; Listing generated by Microsoft (R) Optimizing Compiler Version 19.00.24234.1 

include listing.inc

INCLUDELIB MSVCRT
INCLUDELIB OLDNAMES

PUBLIC	??_R4XYZ_Desc@@6B@				; XYZ_Desc::`RTTI Complete Object Locator'
PUBLIC	??_R0?AVXYZ_Desc@@@8				; XYZ_Desc `RTTI Type Descriptor'
PUBLIC	??_R3XYZ_Desc@@8				; XYZ_Desc::`RTTI Class Hierarchy Descriptor'
PUBLIC	??_R2XYZ_Desc@@8				; XYZ_Desc::`RTTI Base Class Array'
PUBLIC	??_R1A@?0A@EA@XYZ_Desc@@8			; XYZ_Desc::`RTTI Base Class Descriptor at (0,-1,0,64)'
PUBLIC	??_R1A@?0A@EA@ParamBlockDesc2@@8		; ParamBlockDesc2::`RTTI Base Class Descriptor at (0,-1,0,64)'
PUBLIC	??_R0?AVParamBlockDesc2@@@8			; ParamBlockDesc2 `RTTI Type Descriptor'
PUBLIC	??_R3ParamBlockDesc2@@8				; ParamBlockDesc2::`RTTI Class Hierarchy Descriptor'
PUBLIC	??_R2ParamBlockDesc2@@8				; ParamBlockDesc2::`RTTI Base Class Array'
PUBLIC	??_R1BJ@?0A@EA@Noncopyable@Util@MaxSDK@@8	; MaxSDK::Util::Noncopyable::`RTTI Base Class Descriptor at (25,-1,0,64)'
PUBLIC	??_R1BJ@?0A@EC@MaxHeapOperators@@8		; MaxHeapOperators::`RTTI Base Class Descriptor at (25,-1,0,66)'
PUBLIC	??_R4BerconGradientClassDesc@@6B@		; BerconGradientClassDesc::`RTTI Complete Object Locator'
PUBLIC	??_R0?AVBerconGradientClassDesc@@@8		; BerconGradientClassDesc `RTTI Type Descriptor'
PUBLIC	??_R3BerconGradientClassDesc@@8			; BerconGradientClassDesc::`RTTI Class Hierarchy Descriptor'
PUBLIC	??_R2BerconGradientClassDesc@@8			; BerconGradientClassDesc::`RTTI Base Class Array'
PUBLIC	??_R1A@?0A@EA@BerconGradientClassDesc@@8	; BerconGradientClassDesc::`RTTI Base Class Descriptor at (0,-1,0,64)'
PUBLIC	??_R1A@?0A@EA@ClassDesc2@@8			; ClassDesc2::`RTTI Base Class Descriptor at (0,-1,0,64)'
PUBLIC	??_R0?AVClassDesc2@@@8				; ClassDesc2 `RTTI Type Descriptor'
PUBLIC	??_R3ClassDesc2@@8				; ClassDesc2::`RTTI Class Hierarchy Descriptor'
PUBLIC	??_R2ClassDesc2@@8				; ClassDesc2::`RTTI Base Class Array'
PUBLIC	??_C@_1O@ILILCEBJ@?$AAi?$AA?5?$AA?$DO?$AA?$DN?$AA?5?$AA0?$AA?$AA@ ; `string'
PUBLIC	??_R4TabOutOfRangeException@Util@MaxSDK@@6B@	; MaxSDK::Util::TabOutOfRangeException::`RTTI Complete Object Locator'
PUBLIC	??_R3TabOutOfRangeException@Util@MaxSDK@@8	; MaxSDK::Util::TabOutOfRangeException::`RTTI Class Hierarchy Descriptor'
PUBLIC	??_R2TabOutOfRangeException@Util@MaxSDK@@8	; MaxSDK::Util::TabOutOfRangeException::`RTTI Base Class Array'
PUBLIC	??_R1A@?0A@EA@TabOutOfRangeException@Util@MaxSDK@@8 ; MaxSDK::Util::TabOutOfRangeException::`RTTI Base Class Descriptor at (0,-1,0,64)'
PUBLIC	??_R1A@?0A@EA@OutOfRangeException@Util@MaxSDK@@8 ; MaxSDK::Util::OutOfRangeException::`RTTI Base Class Descriptor at (0,-1,0,64)'
PUBLIC	??_R3OutOfRangeException@Util@MaxSDK@@8		; MaxSDK::Util::OutOfRangeException::`RTTI Class Hierarchy Descriptor'
PUBLIC	??_R2OutOfRangeException@Util@MaxSDK@@8		; MaxSDK::Util::OutOfRangeException::`RTTI Base Class Array'
PUBLIC	??_R1A@?0A@EA@Exception@Util@MaxSDK@@8		; MaxSDK::Util::Exception::`RTTI Base Class Descriptor at (0,-1,0,64)'
PUBLIC	??_R3Exception@Util@MaxSDK@@8			; MaxSDK::Util::Exception::`RTTI Class Hierarchy Descriptor'
PUBLIC	??_R2Exception@Util@MaxSDK@@8			; MaxSDK::Util::Exception::`RTTI Base Class Array'
PUBLIC	??_R17?0A@EA@MaxHeapOperators@@8		; MaxHeapOperators::`RTTI Base Class Descriptor at (8,-1,0,64)'
PUBLIC	??_R3MaxHeapOperators@@8			; MaxHeapOperators::`RTTI Class Hierarchy Descriptor'
PUBLIC	??_R2MaxHeapOperators@@8			; MaxHeapOperators::`RTTI Base Class Array'
PUBLIC	??_R1A@?0A@EA@MaxHeapOperators@@8		; MaxHeapOperators::`RTTI Base Class Descriptor at (0,-1,0,64)'
PUBLIC	??_R0?AVInterfaceServer@@@8			; InterfaceServer `RTTI Type Descriptor'
PUBLIC	??_R3InterfaceServer@@8				; InterfaceServer::`RTTI Class Hierarchy Descriptor'
PUBLIC	??_R2InterfaceServer@@8				; InterfaceServer::`RTTI Base Class Array'
PUBLIC	??_R1A@?0A@EA@InterfaceServer@@8		; InterfaceServer::`RTTI Base Class Descriptor at (0,-1,0,64)'
PUBLIC	??_R0?AVBaseInterfaceServer@@@8			; BaseInterfaceServer `RTTI Type Descriptor'
PUBLIC	??_R3BaseInterfaceServer@@8			; BaseInterfaceServer::`RTTI Class Hierarchy Descriptor'
PUBLIC	??_R2BaseInterfaceServer@@8			; BaseInterfaceServer::`RTTI Base Class Array'
PUBLIC	??_R1A@?0A@EA@BaseInterfaceServer@@8		; BaseInterfaceServer::`RTTI Base Class Descriptor at (0,-1,0,64)'
PUBLIC	?texoutDlg@BerconGradient@@2PEAVParamDlg@@EA	; BerconGradient::texoutDlg
PUBLIC	?SetUserDlgProc@ClassDesc2@@UEAA_NPEAVParamBlockDesc2@@PEAVParamMap2UserDlgProc@@@Z ; ClassDesc2::SetUserDlgProc
PUBLIC	?CreateQtWidget@ClassDesc2@@UEAAPEAVQMaxParamBlockWidget@MaxSDK@@AEAVReferenceMaker@@AEAVIParamBlock2@@FAEAVWStr@@AEAH3@Z ; ClassDesc2::CreateQtWidget
PUBLIC	?CreateQtWidget@ClassDesc2@@UEAAPEAVQMaxParamBlockWidget@MaxSDK@@AEAVReferenceMaker@@AEAVIParamBlock2@@FAEAVWStr@@AEAH3AEAVClass_ID@@@Z ; ClassDesc2::CreateQtWidget
PUBLIC	??_R0?AVClassDesc@@@8				; ClassDesc `RTTI Type Descriptor'
PUBLIC	??_R3ClassDesc@@8				; ClassDesc::`RTTI Class Hierarchy Descriptor'
PUBLIC	??_R2ClassDesc@@8				; ClassDesc::`RTTI Base Class Array'
PUBLIC	??_R1A@?0A@EA@ClassDesc@@8			; ClassDesc::`RTTI Base Class Descriptor at (0,-1,0,64)'
PUBLIC	??_C@_15CABMMOGH@?$AAt?$AAh?$AA?$AA@		; `string'
PUBLIC	??_C@_1IA@CBFEGJCG@?$AAc?$AA?3?$AA?2?$AAp?$AAr?$AAo?$AAg?$AAr?$AAa?$AAm?$AA?5?$AAf?$AAi?$AAl?$AAe?$AAs?$AA?2?$AAa?$AAu?$AAt?$AAo?$AAd?$AAe?$AAs?$AAk?$AA?2?$AA3?$AAd?$AAs?$AA?5?$AAm?$AAa@ ; `string'
PUBLIC	??_R17?0A@EC@MaxHeapOperators@@8		; MaxHeapOperators::`RTTI Base Class Descriptor at (8,-1,0,66)'
PUBLIC	??_C@_1CI@OKLGNBMM@?$AAt?$AAh?$AA?5?$AA?$CG?$AA?$CG?$AA?5?$AAi?$AA?5?$AA?$DM?$AA?5?$AAt?$AAh?$AA?9?$AA?$DO?$AAc?$AAo?$AAu?$AAn?$AAt?$AA?$AA@ ; `string'
PUBLIC	??_R0?AVNoncopyable@Util@MaxSDK@@@8		; MaxSDK::Util::Noncopyable `RTTI Type Descriptor'
PUBLIC	??_R3Noncopyable@Util@MaxSDK@@8			; MaxSDK::Util::Noncopyable::`RTTI Class Hierarchy Descriptor'
PUBLIC	_TI4?AVTabOutOfRangeException@Util@MaxSDK@@
PUBLIC	??_R2Noncopyable@Util@MaxSDK@@8			; MaxSDK::Util::Noncopyable::`RTTI Base Class Array'
PUBLIC	_CTA4?AVTabOutOfRangeException@Util@MaxSDK@@
PUBLIC	??_R1A@?0A@EA@Noncopyable@Util@MaxSDK@@8	; MaxSDK::Util::Noncopyable::`RTTI Base Class Descriptor at (0,-1,0,64)'
PUBLIC	??_R0?AVTabOutOfRangeException@Util@MaxSDK@@@8	; MaxSDK::Util::TabOutOfRangeException `RTTI Type Descriptor'
PUBLIC	_CT??_R0?AVTabOutOfRangeException@Util@MaxSDK@@@8??0TabOutOfRangeException@Util@MaxSDK@@QEAA@AEBV012@@Z16
PUBLIC	??_R0?AVOutOfRangeException@Util@MaxSDK@@@8	; MaxSDK::Util::OutOfRangeException `RTTI Type Descriptor'
PUBLIC	_CT??_R0?AVOutOfRangeException@Util@MaxSDK@@@8??0OutOfRangeException@Util@MaxSDK@@QEAA@AEBV012@@Z16
PUBLIC	??_R0?AVException@Util@MaxSDK@@@8		; MaxSDK::Util::Exception `RTTI Type Descriptor'
PUBLIC	_CT??_R0?AVException@Util@MaxSDK@@@8??0Exception@Util@MaxSDK@@QEAA@AEBV012@@Z16
PUBLIC	??_C@_1GI@NLEIFPEJ@?$AAI?$AAn?$AAv?$AAa?$AAl?$AAi?$AAd?$AA?5?$AAi?$AAn?$AAd?$AAe?$AAx?$AA?5?$AAp?$AAa?$AAs?$AAs?$AAe?$AAd?$AA?5?$AAi?$AAn?$AAt?$AAo?$AA?5?$AAa?$AA?5?$AAM?$AAa?$AAx?$AA?5@ ; `string'
PUBLIC	??_7XYZ_Desc@@6B@				; XYZ_Desc::`vftable'
PUBLIC	??_GXYZ_Desc@@UEAAPEAXI@Z			; XYZ_Desc::`scalar deleting destructor'
PUBLIC	?IsPublic@BerconGradientClassDesc@@UEAAHXZ	; BerconGradientClassDesc::IsPublic
PUBLIC	?Create@BerconGradientClassDesc@@UEAAPEAXH@Z	; BerconGradientClassDesc::Create
PUBLIC	?ClassName@BerconGradientClassDesc@@UEAAPEB_WXZ	; BerconGradientClassDesc::ClassName
PUBLIC	?SuperClassID@BerconGradientClassDesc@@UEAAKXZ	; BerconGradientClassDesc::SuperClassID
PUBLIC	??_C@_1BM@LCALCDFD@?$AAx?$AAy?$AAz?$AA_?$AAf?$AAi?$AAl?$AAt?$AAe?$AAr?$AAi?$AAn?$AAg?$AA?$AA@ ; `string'
PUBLIC	?ClassID@BerconGradientClassDesc@@UEAA?AVClass_ID@@XZ ; BerconGradientClassDesc::ClassID
PUBLIC	??_C@_1BC@JCCAEAIN@?$AAx?$AAy?$AAz?$AA_?$AAl?$AAo?$AAc?$AAk?$AA?$AA@ ; `string'
PUBLIC	?Category@BerconGradientClassDesc@@UEAAPEB_WXZ	; BerconGradientClassDesc::Category
PUBLIC	??_C@_1BK@FLPLJMAJ@?$AAx?$AAy?$AAz?$AA_?$AAa?$AAn?$AAg?$AAl?$AAe?$AA_?$AAz?$AA2?$AA?$AA@ ; `string'
PUBLIC	?InternalName@BerconGradientClassDesc@@UEAAPEB_WXZ ; BerconGradientClassDesc::InternalName
PUBLIC	??_C@_1BK@NNGPOOKH@?$AAx?$AAy?$AAz?$AA_?$AAa?$AAn?$AAg?$AAl?$AAe?$AA_?$AAy?$AA2?$AA?$AA@ ; `string'
PUBLIC	?HInstance@BerconGradientClassDesc@@UEAAPEAUHINSTANCE__@@XZ ; BerconGradientClassDesc::HInstance
PUBLIC	??_C@_1BK@BGDDDNAC@?$AAx?$AAy?$AAz?$AA_?$AAa?$AAn?$AAg?$AAl?$AAe?$AA_?$AAx?$AA2?$AA?$AA@ ; `string'
PUBLIC	??_C@_1BI@MHJCJGME@?$AAx?$AAy?$AAz?$AA_?$AAs?$AAi?$AAz?$AAe?$AA_?$AAz?$AA2?$AA?$AA@ ; `string'
PUBLIC	??_C@_1BI@EBAGOEGK@?$AAx?$AAy?$AAz?$AA_?$AAs?$AAi?$AAz?$AAe?$AA_?$AAy?$AA2?$AA?$AA@ ; `string'
PUBLIC	??_C@_1BI@IKFKDHMP@?$AAx?$AAy?$AAz?$AA_?$AAs?$AAi?$AAz?$AAe?$AA_?$AAx?$AA2?$AA?$AA@ ; `string'
PUBLIC	??_C@_1BM@HJOOPID@?$AAx?$AAy?$AAz?$AA_?$AAo?$AAf?$AAf?$AAs?$AAe?$AAt?$AA_?$AAz?$AA2?$AA?$AA@ ; `string'
PUBLIC	??_C@_1BM@IBAKJNCN@?$AAx?$AAy?$AAz?$AA_?$AAo?$AAf?$AAf?$AAs?$AAe?$AAt?$AA_?$AAy?$AA2?$AA?$AA@ ; `string'
PUBLIC	??_C@_1BM@EKFGEOII@?$AAx?$AAy?$AAz?$AA_?$AAo?$AAf?$AAf?$AAs?$AAe?$AAt?$AA_?$AAx?$AA2?$AA?$AA@ ; `string'
PUBLIC	??_C@_1BE@PALBIMHK@?$AAr?$AAa?$AAn?$AAd?$AAB?$AAy?$AAP?$AAa?$AAr?$AA?$AA@ ; `string'
PUBLIC	??_C@_1BE@EGBDKCCD@?$AAr?$AAa?$AAn?$AAd?$AAB?$AAy?$AAO?$AAb?$AAj?$AA?$AA@ ; `string'
PUBLIC	??_C@_1BE@DCGEPHFM@?$AAr?$AAa?$AAn?$AAd?$AAB?$AAy?$AAM?$AAa?$AAt?$AA?$AA@ ; `string'
PUBLIC	??_C@_19HFHNPJHA@?$AAs?$AAe?$AAe?$AAd?$AA?$AA@	; `string'
PUBLIC	??_C@_1BG@EDCBABDD@?$AAx?$AAy?$AAz?$AA_?$AAt?$AAi?$AAl?$AAe?$AA_?$AAz?$AA?$AA@ ; `string'
PUBLIC	??_7BerconGradientClassDesc@@6B@		; BerconGradientClassDesc::`vftable'
PUBLIC	??_C@_1BG@FBJEKONN@?$AAx?$AAy?$AAz?$AA_?$AAt?$AAi?$AAl?$AAe?$AA_?$AAy?$AA?$AA@ ; `string'
PUBLIC	??_C@_1BG@OJCIMJLI@?$AAx?$AAy?$AAz?$AA_?$AAt?$AAi?$AAl?$AAe?$AA_?$AAx?$AA?$AA@ ; `string'
PUBLIC	??_C@_1BI@LALGELMD@?$AAx?$AAy?$AAz?$AA_?$AAa?$AAn?$AAg?$AAl?$AAe?$AA_?$AAz?$AA?$AA@ ; `string'
PUBLIC	??_GBerconGradientClassDesc@@UEAAPEAXI@Z	; BerconGradientClassDesc::`scalar deleting destructor'
PUBLIC	??_C@_1BI@KCADOECN@?$AAx?$AAy?$AAz?$AA_?$AAa?$AAn?$AAg?$AAl?$AAe?$AA_?$AAy?$AA?$AA@ ; `string'
PUBLIC	??_C@_1BI@BKLPIDEI@?$AAx?$AAy?$AAz?$AA_?$AAa?$AAn?$AAg?$AAl?$AAe?$AA_?$AAx?$AA?$AA@ ; `string'
PUBLIC	??_C@_1BG@MFMFKFM@?$AAx?$AAy?$AAz?$AA_?$AAs?$AAi?$AAz?$AAe?$AA_?$AAz?$AA?$AA@ ; `string'
PUBLIC	??_C@_1BG@BOOJPFLC@?$AAx?$AAy?$AAz?$AA_?$AAs?$AAi?$AAz?$AAe?$AA_?$AAy?$AA?$AA@ ; `string'
PUBLIC	??_C@_1BG@KGFFJCNH@?$AAx?$AAy?$AAz?$AA_?$AAs?$AAi?$AAz?$AAe?$AA_?$AAx?$AA?$AA@ ; `string'
PUBLIC	??_C@_1BK@HPJLBIGD@?$AAx?$AAy?$AAz?$AA_?$AAo?$AAf?$AAf?$AAs?$AAe?$AAt?$AA_?$AAz?$AA?$AA@ ; `string'
PUBLIC	??_C@_1BK@GNCOLHIN@?$AAx?$AAy?$AAz?$AA_?$AAo?$AAf?$AAf?$AAs?$AAe?$AAt?$AA_?$AAy?$AA?$AA@ ; `string'
PUBLIC	??_C@_1BK@NFJCNAOI@?$AAx?$AAy?$AAz?$AA_?$AAo?$AAf?$AAf?$AAs?$AAe?$AAt?$AA_?$AAx?$AA?$AA@ ; `string'
PUBLIC	??_C@_1BC@BDPIEDCA@?$AAx?$AAy?$AAz?$AA_?$AAc?$AAh?$AAa?$AAn?$AA?$AA@ ; `string'
PUBLIC	??_C@_1BA@JOBDKJKA@?$AAx?$AAy?$AAz?$AA_?$AAm?$AAa?$AAp?$AA?$AA@ ; `string'
PUBLIC	??_C@_1BA@KMAKHADK@?$AAM?$AAa?$AAp?$AAp?$AAi?$AAn?$AAg?$AA?$AA@ ; `string'
PUBLIC	??_C@_1BO@EFFEGJBE@?$AAB?$AAe?$AAr?$AAc?$AAo?$AAn?$AAG?$AAr?$AAa?$AAd?$AAi?$AAe?$AAn?$AAt?$AA?$AA@ ; `string'
PUBLIC	??_C@_1O@KEKEFEMI@?$AAo?$AAu?$AAt?$AAp?$AAu?$AAt?$AA?$AA@ ; `string'
PUBLIC	??_C@_1M@IFKEOPKH@?$AAd?$AAi?$AAs?$AAO?$AAn?$AA?$AA@ ; `string'
PUBLIC	??_C@_1O@JJJMDNON@?$AAd?$AAi?$AAs?$AAS?$AAt?$AAr?$AA?$AA@ ; `string'
PUBLIC	??_C@_1O@DEGOAFKO@?$AAd?$AAi?$AAs?$AAT?$AAe?$AAx?$AA?$AA@ ; `string'
PUBLIC	??_C@_17DDAFIGMA@?$AAI?$AAO?$AAR?$AA?$AA@	; `string'
PUBLIC	??_C@_1BO@EBFBJNKF@?$AAn?$AAo?$AAr?$AAm?$AAa?$AAl?$AAF?$AAu?$AAn?$AAc?$AAt?$AAi?$AAo?$AAn?$AA?$AA@ ; `string'
PUBLIC	??_C@_1BG@EJCJNKBN@?$AAn?$AAo?$AAr?$AAm?$AAa?$AAl?$AAT?$AAy?$AAp?$AAe?$AA?$AA@ ; `string'
PUBLIC	??_C@_1BI@JFBEDJBF@?$AAg?$AAr?$AAa?$AAd?$AAi?$AAe?$AAn?$AAt?$AAU?$AAV?$AAW?$AA?$AA@ ; `string'
PUBLIC	??_C@_1BE@KCENDKIA@?$AAr?$AAa?$AAn?$AAg?$AAe?$AAL?$AAo?$AAo?$AAp?$AA?$AA@ ; `string'
PUBLIC	??_C@_1BC@DAIIMAMF@?$AAr?$AAa?$AAn?$AAg?$AAe?$AAM?$AAa?$AAx?$AA?$AA@ ; `string'
PUBLIC	??_C@_1BC@KJKJEKOL@?$AAr?$AAa?$AAn?$AAg?$AAe?$AAM?$AAi?$AAn?$AA?$AA@ ; `string'
PUBLIC	??_C@_1BG@NOPEHBND@?$AAr?$AAa?$AAn?$AAd?$AAB?$AAy?$AAT?$AAi?$AAl?$AAe?$AA?$AA@ ; `string'
PUBLIC	??_C@_1BA@NAHOMGAH@?$AAr?$AAe?$AAv?$AAe?$AAr?$AAs?$AAe?$AA?$AA@ ; `string'
PUBLIC	??_C@_1BM@LCNPDDBK@?$AAi?$AAn?$AAt?$AAe?$AAr?$AAp?$AAo?$AAl?$AAa?$AAt?$AAi?$AAo?$AAn?$AA?$AA@ ; `string'
PUBLIC	??_C@_19FHBCDCCA@?$AAt?$AAy?$AAp?$AAe?$AA?$AA@	; `string'
PUBLIC	??_C@_1O@HIEMLHIM@?$AAk?$AAe?$AAy?$AAC?$AAo?$AAl?$AA?$AA@ ; `string'
PUBLIC	??_C@_1O@ICACMGIN@?$AAk?$AAe?$AAy?$AAP?$AAo?$AAs?$AA?$AA@ ; `string'
PUBLIC	??_C@_1O@PJLIOEMF@?$AAk?$AAe?$AAy?$AAN?$AAu?$AAm?$AA?$AA@ ; `string'
PUBLIC	??_C@_1O@HANCGMBA@?$AAk?$AAe?$AAy?$AAT?$AAe?$AAx?$AA?$AA@ ; `string'
PUBLIC	??_C@_1BE@LCHIGCIO@?$AAp?$AAo?$AAs?$AAi?$AAt?$AAi?$AAo?$AAn?$AAs?$AA?$AA@ ; `string'
PUBLIC	??_C@_1O@HJEOCKOC@?$AAc?$AAo?$AAl?$AAo?$AAr?$AAs?$AA?$AA@ ; `string'
PUBLIC	??_C@_1BA@FLPLBKI@?$AAs?$AAu?$AAb?$AAm?$AAa?$AAp?$AAs?$AA?$AA@ ; `string'
PUBLIC	??_C@_19EFANFLCA@?$AAn?$AAo?$AAd?$AAe?$AA?$AA@	; `string'
PUBLIC	??_C@_1O@HHADDHBD@?$AAm?$AAa?$AAp?$AAT?$AAe?$AAx?$AA?$AA@ ; `string'
PUBLIC	??_C@_1O@FEMBPDGM@?$AAp?$AAa?$AAr?$AAa?$AAm?$AAs?$AA?$AA@ ; `string'
PUBLIC	??_R0?AVMaxHeapOperators@@@8			; MaxHeapOperators `RTTI Type Descriptor'
PUBLIC	_CT??_R0?AVMaxHeapOperators@@@818
PUBLIC	?What@TabOutOfRangeException@Util@MaxSDK@@UEBAPEB_WXZ ; MaxSDK::Util::TabOutOfRangeException::What
PUBLIC	??1TabOutOfRangeException@Util@MaxSDK@@UEAA@XZ	; MaxSDK::Util::TabOutOfRangeException::~TabOutOfRangeException
PUBLIC	??0TabOutOfRangeException@Util@MaxSDK@@QEAA@AEBV012@@Z ; MaxSDK::Util::TabOutOfRangeException::TabOutOfRangeException
PUBLIC	??_7TabOutOfRangeException@Util@MaxSDK@@6B@	; MaxSDK::Util::TabOutOfRangeException::`vftable'
PUBLIC	??_GTabOutOfRangeException@Util@MaxSDK@@UEAAPEAXI@Z ; MaxSDK::Util::TabOutOfRangeException::`scalar deleting destructor'
PUBLIC	??_C@_1EM@PJAEPBLB@?$AAT?$AAa?$AAb?$AA?$DM?$AAc?$AAl?$AAa?$AAs?$AAs?$AA?5?$AAF?$AAP?$AAI?$AAn?$AAt?$AAe?$AAr?$AAf?$AAa?$AAc?$AAe?$AA?5?$AA?$CK?$AA?$DO?$AA?3?$AA?3?$AAo?$AAp?$AAe?$AAr?$AAa?$AAt@ ; `string'
PUBLIC	??_C@_1EK@FOLBONAG@?$AAM?$AAa?$AAx?$AAS?$AAD?$AAK?$AA?3?$AA?3?$AAU?$AAt?$AAi?$AAl?$AA?3?$AA?3?$AAT?$AAa?$AAb?$AAO?$AAu?$AAt?$AAO?$AAf?$AAR?$AAa?$AAn?$AAg?$AAe?$AAE?$AAx?$AAc?$AAe?$AAp@ ; `string'
PUBLIC	WinbaseIsolationAwarePrivateT_UnPgpgk
PUBLIC	IsolationAwarePrivateT_SqbjaYRiRY
PUBLIC	IsolationAwarePrivateT_SAbnPgpgk
PUBLIC	WinbaseIsolationAwarePrivateT_SpeRNgRQnPgpgk
PUBLIC	WinbaseIsolationAwarePrivateT_SpYRNahcpNYYRQ
PUBLIC	?BeginCreate@ClassDesc@@UEAAHPEAVInterface@@@Z	; ClassDesc::BeginCreate
PUBLIC	?EndCreate@ClassDesc@@UEAAHPEAVInterface@@@Z	; ClassDesc::EndCreate
PUBLIC	?OkToCreate@ClassDesc@@UEAAHPEAVInterface@@@Z	; ClassDesc::OkToCreate
PUBLIC	?HasClassParams@ClassDesc@@UEAAHXZ		; ClassDesc::HasClassParams
PUBLIC	?EditClassParams@ClassDesc@@UEAAXPEAUHWND__@@@Z	; ClassDesc::EditClassParams
PUBLIC	?NumActionTables@ClassDesc@@UEAAHXZ		; ClassDesc::NumActionTables
PUBLIC	?GetActionTable@ClassDesc@@UEAAPEAVActionTable@@H@Z ; ClassDesc::GetActionTable
PUBLIC	?IsManipulator@ClassDesc@@UEAAHXZ		; ClassDesc::IsManipulator
PUBLIC	?CanManipulate@ClassDesc@@UEAAHPEAVReferenceTarget@@@Z ; ClassDesc::CanManipulate
PUBLIC	?CanManipulateNode@ClassDesc@@UEAAHPEAVINode@@@Z ; ClassDesc::CanManipulateNode
PUBLIC	?CreateManipulator@ClassDesc@@UEAAPEAVManipulator@@PEAVReferenceTarget@@PEAVINode@@@Z ; ClassDesc::CreateManipulator
PUBLIC	?CreateManipulator@ClassDesc@@UEAAPEAVManipulator@@PEAVINode@@@Z ; ClassDesc::CreateManipulator
PUBLIC	?NeedsToSave@ClassDesc@@UEAAHXZ			; ClassDesc::NeedsToSave
PUBLIC	?Save@ClassDesc@@UEAA?AW4IOResult@@PEAVISave@@@Z ; ClassDesc::Save
PUBLIC	?Load@ClassDesc@@UEAA?AW4IOResult@@PEAVILoad@@@Z ; ClassDesc::Load
PUBLIC	?InitialRollupPageState@ClassDesc@@UEAAKXZ	; ClassDesc::InitialRollupPageState
PUBLIC	?UseOnlyInternalNameForMAXScriptExposure@ClassDesc@@UEAA_NXZ ; ClassDesc::UseOnlyInternalNameForMAXScriptExposure
PUBLIC	?GetParamMap@ClassDesc@@UEAAPEAVIParamMap2@@PEAVParamBlockDesc2@@@Z ; ClassDesc::GetParamMap
PUBLIC	?GetUserDlgProc@ClassDesc@@UEAAPEAVParamMap2UserDlgProc@@PEAVParamBlockDesc2@@@Z ; ClassDesc::GetUserDlgProc
PUBLIC	?DrawRepresentation@ClassDesc@@UEAA_NKPEAUHDC__@@AEAVBox2@@@Z ; ClassDesc::DrawRepresentation
PUBLIC	?NumInterfaces@ClassDesc@@UEAAHXZ		; ClassDesc::NumInterfaces
PUBLIC	?GetInterfaceAt@ClassDesc@@UEAAPEAVFPInterface@@H@Z ; ClassDesc::GetInterfaceAt
PUBLIC	?ClearInterfaces@ClassDesc@@UEAAXXZ		; ClassDesc::ClearInterfaces
PUBLIC	?SubClassID@ClassDesc@@UEAA?AVClass_ID@@XZ	; ClassDesc::SubClassID
PUBLIC	?Execute@ClassDesc@@UEAA_JH_K00@Z		; ClassDesc::Execute
EXTRN	?GetInterface@BaseInterfaceServer@@UEAAPEAVBaseInterface@@VInterface_ID@@@Z:PROC ; BaseInterfaceServer::GetInterface
EXTRN	?NumInterfaces@BaseInterfaceServer@@UEBAHXZ:PROC ; BaseInterfaceServer::NumInterfaces
EXTRN	?GetInterfaceAt@BaseInterfaceServer@@UEBAPEAVBaseInterface@@H@Z:PROC ; BaseInterfaceServer::GetInterfaceAt
EXTRN	??_7type_info@@6B@:BYTE				; type_info::`vftable'
EXTRN	?ResetClassParams@ClassDesc2@@UEAAXH@Z:PROC	; ClassDesc2::ResetClassParams
EXTRN	?GetParamBlockDescByID@ClassDesc2@@UEAAPEAVParamBlockDesc2@@F@Z:PROC ; ClassDesc2::GetParamBlockDescByID
EXTRN	?AddParamBlockDesc@ClassDesc2@@UEAAXPEAVParamBlockDesc2@@@Z:PROC ; ClassDesc2::AddParamBlockDesc
EXTRN	?BeginEditParams@ClassDesc2@@UEAAXPEAVIObjParam@@PEAVReferenceMaker@@KPEAVAnimatable@@@Z:PROC ; ClassDesc2::BeginEditParams
EXTRN	?EndEditParams@ClassDesc2@@UEAAXPEAVIObjParam@@PEAVReferenceMaker@@KPEAVAnimatable@@@Z:PROC ; ClassDesc2::EndEditParams
EXTRN	?InvalidateUI@ClassDesc2@@UEAAXPEAVParamBlockDesc2@@@Z:PROC ; ClassDesc2::InvalidateUI
EXTRN	?MakeAutoParamBlocks@ClassDesc2@@UEAAXPEAVReferenceMaker@@@Z:PROC ; ClassDesc2::MakeAutoParamBlocks
EXTRN	??0Exception@Util@MaxSDK@@QEAA@AEBV012@@Z:PROC	; MaxSDK::Util::Exception::Exception
EXTRN	?GetRsrcString@ClassDesc@@UEAAPEB_W_J@Z:PROC	; ClassDesc::GetRsrcString
EXTRN	?GetInterface@ClassDesc@@UEAAPEAVFPInterface@@PEB_W@Z:PROC ; ClassDesc::GetInterface
EXTRN	?GetInterface@ClassDesc@@UEAAPEAVFPInterface@@VInterface_ID@@@Z:PROC ; ClassDesc::GetInterface
EXTRN	?AddInterface@ClassDesc@@UEAAXPEAVFPInterface@@@Z:PROC ; ClassDesc::AddInterface
EXTRN	__imp_?TEXMAP_CAT_3D@@3PA_WA:BYTE
EXTRN	??0OutOfRangeException@Util@MaxSDK@@QEAA@AEBV012@@Z:PROC ; MaxSDK::Util::OutOfRangeException::OutOfRangeException
EXTRN	??_EXYZ_Desc@@UEAAPEAXI@Z:PROC			; XYZ_Desc::`vector deleting destructor'
EXTRN	??_EBerconGradientClassDesc@@UEAAPEAXI@Z:PROC	; BerconGradientClassDesc::`vector deleting destructor'
EXTRN	??_ETabOutOfRangeException@Util@MaxSDK@@UEAAPEAXI@Z:PROC ; MaxSDK::Util::TabOutOfRangeException::`vector deleting destructor'
EXTRN	?NumParamBlockDescs@ClassDesc2@@UEAAHXZ:PROC	; ClassDesc2::NumParamBlockDescs
EXTRN	?GetParamBlockDesc@ClassDesc2@@UEAAPEAVParamBlockDesc2@@H@Z:PROC ; ClassDesc2::GetParamBlockDesc
EXTRN	?NumParamMaps@ClassDesc2@@UEAAHXZ:PROC		; ClassDesc2::NumParamMaps
EXTRN	?GetParamMap@ClassDesc2@@UEAAPEAVIParamMap2@@H@Z:PROC ; ClassDesc2::GetParamMap
EXTRN	GUID_NULL:BYTE
EXTRN	?hInstance@@3PEAUHINSTANCE__@@EA:QWORD		; hInstance
_BSS	SEGMENT
?texoutDlg@BerconGradient@@2PEAVParamDlg@@EA DQ 01H DUP (?) ; BerconGradient::texoutDlg
_BSS	ENDS
;	COMDAT IsolationAwarePrivateT_SqbjaYRiRY
_BSS	SEGMENT
IsolationAwarePrivateT_SqbjaYRiRY DD 01H DUP (?)
_BSS	ENDS
;	COMDAT IsolationAwarePrivateT_SAbnPgpgk
_BSS	SEGMENT
IsolationAwarePrivateT_SAbnPgpgk DD 01H DUP (?)
_BSS	ENDS
;	COMDAT WinbaseIsolationAwarePrivateT_SpeRNgRQnPgpgk
_BSS	SEGMENT
WinbaseIsolationAwarePrivateT_SpeRNgRQnPgpgk DD 01H DUP (?)
_BSS	ENDS
;	COMDAT WinbaseIsolationAwarePrivateT_SpYRNahcpNYYRQ
_BSS	SEGMENT
WinbaseIsolationAwarePrivateT_SpYRNahcpNYYRQ DD 01H DUP (?)
_BSS	ENDS
;	COMDAT WinbaseIsolationAwarePrivateT_UnPgpgk
_DATA	SEGMENT
WinbaseIsolationAwarePrivateT_UnPgpgk DQ ffffffffffffffffH
_DATA	ENDS
;	COMDAT ??_C@_1EK@FOLBONAG@?$AAM?$AAa?$AAx?$AAS?$AAD?$AAK?$AA?3?$AA?3?$AAU?$AAt?$AAi?$AAl?$AA?3?$AA?3?$AAT?$AAa?$AAb?$AAO?$AAu?$AAt?$AAO?$AAf?$AAR?$AAa?$AAn?$AAg?$AAe?$AAE?$AAx?$AAc?$AAe?$AAp@
CONST	SEGMENT
??_C@_1EK@FOLBONAG@?$AAM?$AAa?$AAx?$AAS?$AAD?$AAK?$AA?3?$AA?3?$AAU?$AAt?$AAi?$AAl?$AA?3?$AA?3?$AAT?$AAa?$AAb?$AAO?$AAu?$AAt?$AAO?$AAf?$AAR?$AAa?$AAn?$AAg?$AAe?$AAE?$AAx?$AAc?$AAe?$AAp@ DB 'M'
	DB	00H, 'a', 00H, 'x', 00H, 'S', 00H, 'D', 00H, 'K', 00H, ':', 00H
	DB	':', 00H, 'U', 00H, 't', 00H, 'i', 00H, 'l', 00H, ':', 00H, ':'
	DB	00H, 'T', 00H, 'a', 00H, 'b', 00H, 'O', 00H, 'u', 00H, 't', 00H
	DB	'O', 00H, 'f', 00H, 'R', 00H, 'a', 00H, 'n', 00H, 'g', 00H, 'e'
	DB	00H, 'E', 00H, 'x', 00H, 'c', 00H, 'e', 00H, 'p', 00H, 't', 00H
	DB	'i', 00H, 'o', 00H, 'n', 00H, 00H, 00H	; `string'
CONST	ENDS
;	COMDAT ??_C@_1EM@PJAEPBLB@?$AAT?$AAa?$AAb?$AA?$DM?$AAc?$AAl?$AAa?$AAs?$AAs?$AA?5?$AAF?$AAP?$AAI?$AAn?$AAt?$AAe?$AAr?$AAf?$AAa?$AAc?$AAe?$AA?5?$AA?$CK?$AA?$DO?$AA?3?$AA?3?$AAo?$AAp?$AAe?$AAr?$AAa?$AAt@
CONST	SEGMENT
??_C@_1EM@PJAEPBLB@?$AAT?$AAa?$AAb?$AA?$DM?$AAc?$AAl?$AAa?$AAs?$AAs?$AA?5?$AAF?$AAP?$AAI?$AAn?$AAt?$AAe?$AAr?$AAf?$AAa?$AAc?$AAe?$AA?5?$AA?$CK?$AA?$DO?$AA?3?$AA?3?$AAo?$AAp?$AAe?$AAr?$AAa?$AAt@ DB 'T'
	DB	00H, 'a', 00H, 'b', 00H, '<', 00H, 'c', 00H, 'l', 00H, 'a', 00H
	DB	's', 00H, 's', 00H, ' ', 00H, 'F', 00H, 'P', 00H, 'I', 00H, 'n'
	DB	00H, 't', 00H, 'e', 00H, 'r', 00H, 'f', 00H, 'a', 00H, 'c', 00H
	DB	'e', 00H, ' ', 00H, '*', 00H, '>', 00H, ':', 00H, ':', 00H, 'o'
	DB	00H, 'p', 00H, 'e', 00H, 'r', 00H, 'a', 00H, 't', 00H, 'o', 00H
	DB	'r', 00H, ' ', 00H, '[', 00H, ']', 00H, 00H, 00H ; `string'
CONST	ENDS
;	COMDAT ??_7TabOutOfRangeException@Util@MaxSDK@@6B@
CONST	SEGMENT
??_7TabOutOfRangeException@Util@MaxSDK@@6B@ DQ FLAT:??_R4TabOutOfRangeException@Util@MaxSDK@@6B@ ; MaxSDK::Util::TabOutOfRangeException::`vftable'
	DQ	FLAT:??_ETabOutOfRangeException@Util@MaxSDK@@UEAAPEAXI@Z
	DQ	FLAT:?What@TabOutOfRangeException@Util@MaxSDK@@UEBAPEB_WXZ
CONST	ENDS
;	COMDAT _CT??_R0?AVMaxHeapOperators@@@818
xdata$x	SEGMENT
_CT??_R0?AVMaxHeapOperators@@@818 DD 00H
	DD	imagerel ??_R0?AVMaxHeapOperators@@@8
	DD	08H
	DD	0ffffffffH
	DD	00H
	DD	01H
	DD	00H
xdata$x	ENDS
;	COMDAT ??_R0?AVMaxHeapOperators@@@8
data$r	SEGMENT
??_R0?AVMaxHeapOperators@@@8 DQ FLAT:??_7type_info@@6B@	; MaxHeapOperators `RTTI Type Descriptor'
	DQ	0000000000000000H
	DB	'.?AVMaxHeapOperators@@', 00H
data$r	ENDS
;	COMDAT ??_C@_1O@FEMBPDGM@?$AAp?$AAa?$AAr?$AAa?$AAm?$AAs?$AA?$AA@
CONST	SEGMENT
??_C@_1O@FEMBPDGM@?$AAp?$AAa?$AAr?$AAa?$AAm?$AAs?$AA?$AA@ DB 'p', 00H, 'a'
	DB	00H, 'r', 00H, 'a', 00H, 'm', 00H, 's', 00H, 00H, 00H ; `string'
CONST	ENDS
;	COMDAT ??_C@_1O@HHADDHBD@?$AAm?$AAa?$AAp?$AAT?$AAe?$AAx?$AA?$AA@
CONST	SEGMENT
??_C@_1O@HHADDHBD@?$AAm?$AAa?$AAp?$AAT?$AAe?$AAx?$AA?$AA@ DB 'm', 00H, 'a'
	DB	00H, 'p', 00H, 'T', 00H, 'e', 00H, 'x', 00H, 00H, 00H ; `string'
CONST	ENDS
;	COMDAT ??_C@_19EFANFLCA@?$AAn?$AAo?$AAd?$AAe?$AA?$AA@
CONST	SEGMENT
??_C@_19EFANFLCA@?$AAn?$AAo?$AAd?$AAe?$AA?$AA@ DB 'n', 00H, 'o', 00H, 'd', 00H
	DB	'e', 00H, 00H, 00H				; `string'
CONST	ENDS
;	COMDAT ??_C@_1BA@FLPLBKI@?$AAs?$AAu?$AAb?$AAm?$AAa?$AAp?$AAs?$AA?$AA@
CONST	SEGMENT
??_C@_1BA@FLPLBKI@?$AAs?$AAu?$AAb?$AAm?$AAa?$AAp?$AAs?$AA?$AA@ DB 's', 00H
	DB	'u', 00H, 'b', 00H, 'm', 00H, 'a', 00H, 'p', 00H, 's', 00H, 00H
	DB	00H						; `string'
CONST	ENDS
;	COMDAT ??_C@_1O@HJEOCKOC@?$AAc?$AAo?$AAl?$AAo?$AAr?$AAs?$AA?$AA@
CONST	SEGMENT
??_C@_1O@HJEOCKOC@?$AAc?$AAo?$AAl?$AAo?$AAr?$AAs?$AA?$AA@ DB 'c', 00H, 'o'
	DB	00H, 'l', 00H, 'o', 00H, 'r', 00H, 's', 00H, 00H, 00H ; `string'
CONST	ENDS
;	COMDAT ??_C@_1BE@LCHIGCIO@?$AAp?$AAo?$AAs?$AAi?$AAt?$AAi?$AAo?$AAn?$AAs?$AA?$AA@
CONST	SEGMENT
??_C@_1BE@LCHIGCIO@?$AAp?$AAo?$AAs?$AAi?$AAt?$AAi?$AAo?$AAn?$AAs?$AA?$AA@ DB 'p'
	DB	00H, 'o', 00H, 's', 00H, 'i', 00H, 't', 00H, 'i', 00H, 'o', 00H
	DB	'n', 00H, 's', 00H, 00H, 00H			; `string'
CONST	ENDS
;	COMDAT ??_C@_1O@HANCGMBA@?$AAk?$AAe?$AAy?$AAT?$AAe?$AAx?$AA?$AA@
CONST	SEGMENT
??_C@_1O@HANCGMBA@?$AAk?$AAe?$AAy?$AAT?$AAe?$AAx?$AA?$AA@ DB 'k', 00H, 'e'
	DB	00H, 'y', 00H, 'T', 00H, 'e', 00H, 'x', 00H, 00H, 00H ; `string'
CONST	ENDS
;	COMDAT ??_C@_1O@PJLIOEMF@?$AAk?$AAe?$AAy?$AAN?$AAu?$AAm?$AA?$AA@
CONST	SEGMENT
??_C@_1O@PJLIOEMF@?$AAk?$AAe?$AAy?$AAN?$AAu?$AAm?$AA?$AA@ DB 'k', 00H, 'e'
	DB	00H, 'y', 00H, 'N', 00H, 'u', 00H, 'm', 00H, 00H, 00H ; `string'
CONST	ENDS
;	COMDAT ??_C@_1O@ICACMGIN@?$AAk?$AAe?$AAy?$AAP?$AAo?$AAs?$AA?$AA@
CONST	SEGMENT
??_C@_1O@ICACMGIN@?$AAk?$AAe?$AAy?$AAP?$AAo?$AAs?$AA?$AA@ DB 'k', 00H, 'e'
	DB	00H, 'y', 00H, 'P', 00H, 'o', 00H, 's', 00H, 00H, 00H ; `string'
CONST	ENDS
;	COMDAT ??_C@_1O@HIEMLHIM@?$AAk?$AAe?$AAy?$AAC?$AAo?$AAl?$AA?$AA@
CONST	SEGMENT
??_C@_1O@HIEMLHIM@?$AAk?$AAe?$AAy?$AAC?$AAo?$AAl?$AA?$AA@ DB 'k', 00H, 'e'
	DB	00H, 'y', 00H, 'C', 00H, 'o', 00H, 'l', 00H, 00H, 00H ; `string'
CONST	ENDS
;	COMDAT ??_C@_19FHBCDCCA@?$AAt?$AAy?$AAp?$AAe?$AA?$AA@
CONST	SEGMENT
??_C@_19FHBCDCCA@?$AAt?$AAy?$AAp?$AAe?$AA?$AA@ DB 't', 00H, 'y', 00H, 'p', 00H
	DB	'e', 00H, 00H, 00H				; `string'
CONST	ENDS
;	COMDAT ??_C@_1BM@LCNPDDBK@?$AAi?$AAn?$AAt?$AAe?$AAr?$AAp?$AAo?$AAl?$AAa?$AAt?$AAi?$AAo?$AAn?$AA?$AA@
CONST	SEGMENT
??_C@_1BM@LCNPDDBK@?$AAi?$AAn?$AAt?$AAe?$AAr?$AAp?$AAo?$AAl?$AAa?$AAt?$AAi?$AAo?$AAn?$AA?$AA@ DB 'i'
	DB	00H, 'n', 00H, 't', 00H, 'e', 00H, 'r', 00H, 'p', 00H, 'o', 00H
	DB	'l', 00H, 'a', 00H, 't', 00H, 'i', 00H, 'o', 00H, 'n', 00H, 00H
	DB	00H						; `string'
CONST	ENDS
;	COMDAT ??_C@_1BA@NAHOMGAH@?$AAr?$AAe?$AAv?$AAe?$AAr?$AAs?$AAe?$AA?$AA@
CONST	SEGMENT
??_C@_1BA@NAHOMGAH@?$AAr?$AAe?$AAv?$AAe?$AAr?$AAs?$AAe?$AA?$AA@ DB 'r', 00H
	DB	'e', 00H, 'v', 00H, 'e', 00H, 'r', 00H, 's', 00H, 'e', 00H, 00H
	DB	00H						; `string'
CONST	ENDS
;	COMDAT ??_C@_1BG@NOPEHBND@?$AAr?$AAa?$AAn?$AAd?$AAB?$AAy?$AAT?$AAi?$AAl?$AAe?$AA?$AA@
CONST	SEGMENT
??_C@_1BG@NOPEHBND@?$AAr?$AAa?$AAn?$AAd?$AAB?$AAy?$AAT?$AAi?$AAl?$AAe?$AA?$AA@ DB 'r'
	DB	00H, 'a', 00H, 'n', 00H, 'd', 00H, 'B', 00H, 'y', 00H, 'T', 00H
	DB	'i', 00H, 'l', 00H, 'e', 00H, 00H, 00H	; `string'
CONST	ENDS
;	COMDAT ??_C@_1BC@KJKJEKOL@?$AAr?$AAa?$AAn?$AAg?$AAe?$AAM?$AAi?$AAn?$AA?$AA@
CONST	SEGMENT
??_C@_1BC@KJKJEKOL@?$AAr?$AAa?$AAn?$AAg?$AAe?$AAM?$AAi?$AAn?$AA?$AA@ DB 'r'
	DB	00H, 'a', 00H, 'n', 00H, 'g', 00H, 'e', 00H, 'M', 00H, 'i', 00H
	DB	'n', 00H, 00H, 00H				; `string'
CONST	ENDS
;	COMDAT ??_C@_1BC@DAIIMAMF@?$AAr?$AAa?$AAn?$AAg?$AAe?$AAM?$AAa?$AAx?$AA?$AA@
CONST	SEGMENT
??_C@_1BC@DAIIMAMF@?$AAr?$AAa?$AAn?$AAg?$AAe?$AAM?$AAa?$AAx?$AA?$AA@ DB 'r'
	DB	00H, 'a', 00H, 'n', 00H, 'g', 00H, 'e', 00H, 'M', 00H, 'a', 00H
	DB	'x', 00H, 00H, 00H				; `string'
CONST	ENDS
;	COMDAT ??_C@_1BE@KCENDKIA@?$AAr?$AAa?$AAn?$AAg?$AAe?$AAL?$AAo?$AAo?$AAp?$AA?$AA@
CONST	SEGMENT
??_C@_1BE@KCENDKIA@?$AAr?$AAa?$AAn?$AAg?$AAe?$AAL?$AAo?$AAo?$AAp?$AA?$AA@ DB 'r'
	DB	00H, 'a', 00H, 'n', 00H, 'g', 00H, 'e', 00H, 'L', 00H, 'o', 00H
	DB	'o', 00H, 'p', 00H, 00H, 00H			; `string'
CONST	ENDS
;	COMDAT ??_C@_1BI@JFBEDJBF@?$AAg?$AAr?$AAa?$AAd?$AAi?$AAe?$AAn?$AAt?$AAU?$AAV?$AAW?$AA?$AA@
CONST	SEGMENT
??_C@_1BI@JFBEDJBF@?$AAg?$AAr?$AAa?$AAd?$AAi?$AAe?$AAn?$AAt?$AAU?$AAV?$AAW?$AA?$AA@ DB 'g'
	DB	00H, 'r', 00H, 'a', 00H, 'd', 00H, 'i', 00H, 'e', 00H, 'n', 00H
	DB	't', 00H, 'U', 00H, 'V', 00H, 'W', 00H, 00H, 00H ; `string'
CONST	ENDS
;	COMDAT ??_C@_1BG@EJCJNKBN@?$AAn?$AAo?$AAr?$AAm?$AAa?$AAl?$AAT?$AAy?$AAp?$AAe?$AA?$AA@
CONST	SEGMENT
??_C@_1BG@EJCJNKBN@?$AAn?$AAo?$AAr?$AAm?$AAa?$AAl?$AAT?$AAy?$AAp?$AAe?$AA?$AA@ DB 'n'
	DB	00H, 'o', 00H, 'r', 00H, 'm', 00H, 'a', 00H, 'l', 00H, 'T', 00H
	DB	'y', 00H, 'p', 00H, 'e', 00H, 00H, 00H	; `string'
CONST	ENDS
;	COMDAT ??_C@_1BO@EBFBJNKF@?$AAn?$AAo?$AAr?$AAm?$AAa?$AAl?$AAF?$AAu?$AAn?$AAc?$AAt?$AAi?$AAo?$AAn?$AA?$AA@
CONST	SEGMENT
??_C@_1BO@EBFBJNKF@?$AAn?$AAo?$AAr?$AAm?$AAa?$AAl?$AAF?$AAu?$AAn?$AAc?$AAt?$AAi?$AAo?$AAn?$AA?$AA@ DB 'n'
	DB	00H, 'o', 00H, 'r', 00H, 'm', 00H, 'a', 00H, 'l', 00H, 'F', 00H
	DB	'u', 00H, 'n', 00H, 'c', 00H, 't', 00H, 'i', 00H, 'o', 00H, 'n'
	DB	00H, 00H, 00H				; `string'
CONST	ENDS
;	COMDAT ??_C@_17DDAFIGMA@?$AAI?$AAO?$AAR?$AA?$AA@
CONST	SEGMENT
??_C@_17DDAFIGMA@?$AAI?$AAO?$AAR?$AA?$AA@ DB 'I', 00H, 'O', 00H, 'R', 00H
	DB	00H, 00H					; `string'
CONST	ENDS
;	COMDAT ??_C@_1O@DEGOAFKO@?$AAd?$AAi?$AAs?$AAT?$AAe?$AAx?$AA?$AA@
CONST	SEGMENT
??_C@_1O@DEGOAFKO@?$AAd?$AAi?$AAs?$AAT?$AAe?$AAx?$AA?$AA@ DB 'd', 00H, 'i'
	DB	00H, 's', 00H, 'T', 00H, 'e', 00H, 'x', 00H, 00H, 00H ; `string'
CONST	ENDS
;	COMDAT ??_C@_1O@JJJMDNON@?$AAd?$AAi?$AAs?$AAS?$AAt?$AAr?$AA?$AA@
CONST	SEGMENT
??_C@_1O@JJJMDNON@?$AAd?$AAi?$AAs?$AAS?$AAt?$AAr?$AA?$AA@ DB 'd', 00H, 'i'
	DB	00H, 's', 00H, 'S', 00H, 't', 00H, 'r', 00H, 00H, 00H ; `string'
CONST	ENDS
;	COMDAT ??_C@_1M@IFKEOPKH@?$AAd?$AAi?$AAs?$AAO?$AAn?$AA?$AA@
CONST	SEGMENT
??_C@_1M@IFKEOPKH@?$AAd?$AAi?$AAs?$AAO?$AAn?$AA?$AA@ DB 'd', 00H, 'i', 00H
	DB	's', 00H, 'O', 00H, 'n', 00H, 00H, 00H	; `string'
CONST	ENDS
;	COMDAT ??_C@_1O@KEKEFEMI@?$AAo?$AAu?$AAt?$AAp?$AAu?$AAt?$AA?$AA@
CONST	SEGMENT
??_C@_1O@KEKEFEMI@?$AAo?$AAu?$AAt?$AAp?$AAu?$AAt?$AA?$AA@ DB 'o', 00H, 'u'
	DB	00H, 't', 00H, 'p', 00H, 'u', 00H, 't', 00H, 00H, 00H ; `string'
CONST	ENDS
;	COMDAT ??_C@_1BO@EFFEGJBE@?$AAB?$AAe?$AAr?$AAc?$AAo?$AAn?$AAG?$AAr?$AAa?$AAd?$AAi?$AAe?$AAn?$AAt?$AA?$AA@
CONST	SEGMENT
??_C@_1BO@EFFEGJBE@?$AAB?$AAe?$AAr?$AAc?$AAo?$AAn?$AAG?$AAr?$AAa?$AAd?$AAi?$AAe?$AAn?$AAt?$AA?$AA@ DB 'B'
	DB	00H, 'e', 00H, 'r', 00H, 'c', 00H, 'o', 00H, 'n', 00H, 'G', 00H
	DB	'r', 00H, 'a', 00H, 'd', 00H, 'i', 00H, 'e', 00H, 'n', 00H, 't'
	DB	00H, 00H, 00H				; `string'
CONST	ENDS
;	COMDAT ??_C@_1BA@KMAKHADK@?$AAM?$AAa?$AAp?$AAp?$AAi?$AAn?$AAg?$AA?$AA@
CONST	SEGMENT
??_C@_1BA@KMAKHADK@?$AAM?$AAa?$AAp?$AAp?$AAi?$AAn?$AAg?$AA?$AA@ DB 'M', 00H
	DB	'a', 00H, 'p', 00H, 'p', 00H, 'i', 00H, 'n', 00H, 'g', 00H, 00H
	DB	00H						; `string'
CONST	ENDS
;	COMDAT ??_C@_1BA@JOBDKJKA@?$AAx?$AAy?$AAz?$AA_?$AAm?$AAa?$AAp?$AA?$AA@
CONST	SEGMENT
??_C@_1BA@JOBDKJKA@?$AAx?$AAy?$AAz?$AA_?$AAm?$AAa?$AAp?$AA?$AA@ DB 'x', 00H
	DB	'y', 00H, 'z', 00H, '_', 00H, 'm', 00H, 'a', 00H, 'p', 00H, 00H
	DB	00H						; `string'
CONST	ENDS
;	COMDAT ??_C@_1BC@BDPIEDCA@?$AAx?$AAy?$AAz?$AA_?$AAc?$AAh?$AAa?$AAn?$AA?$AA@
CONST	SEGMENT
??_C@_1BC@BDPIEDCA@?$AAx?$AAy?$AAz?$AA_?$AAc?$AAh?$AAa?$AAn?$AA?$AA@ DB 'x'
	DB	00H, 'y', 00H, 'z', 00H, '_', 00H, 'c', 00H, 'h', 00H, 'a', 00H
	DB	'n', 00H, 00H, 00H				; `string'
CONST	ENDS
;	COMDAT ??_C@_1BK@NFJCNAOI@?$AAx?$AAy?$AAz?$AA_?$AAo?$AAf?$AAf?$AAs?$AAe?$AAt?$AA_?$AAx?$AA?$AA@
CONST	SEGMENT
??_C@_1BK@NFJCNAOI@?$AAx?$AAy?$AAz?$AA_?$AAo?$AAf?$AAf?$AAs?$AAe?$AAt?$AA_?$AAx?$AA?$AA@ DB 'x'
	DB	00H, 'y', 00H, 'z', 00H, '_', 00H, 'o', 00H, 'f', 00H, 'f', 00H
	DB	's', 00H, 'e', 00H, 't', 00H, '_', 00H, 'x', 00H, 00H, 00H ; `string'
CONST	ENDS
;	COMDAT ??_C@_1BK@GNCOLHIN@?$AAx?$AAy?$AAz?$AA_?$AAo?$AAf?$AAf?$AAs?$AAe?$AAt?$AA_?$AAy?$AA?$AA@
CONST	SEGMENT
??_C@_1BK@GNCOLHIN@?$AAx?$AAy?$AAz?$AA_?$AAo?$AAf?$AAf?$AAs?$AAe?$AAt?$AA_?$AAy?$AA?$AA@ DB 'x'
	DB	00H, 'y', 00H, 'z', 00H, '_', 00H, 'o', 00H, 'f', 00H, 'f', 00H
	DB	's', 00H, 'e', 00H, 't', 00H, '_', 00H, 'y', 00H, 00H, 00H ; `string'
CONST	ENDS
;	COMDAT ??_C@_1BK@HPJLBIGD@?$AAx?$AAy?$AAz?$AA_?$AAo?$AAf?$AAf?$AAs?$AAe?$AAt?$AA_?$AAz?$AA?$AA@
CONST	SEGMENT
??_C@_1BK@HPJLBIGD@?$AAx?$AAy?$AAz?$AA_?$AAo?$AAf?$AAf?$AAs?$AAe?$AAt?$AA_?$AAz?$AA?$AA@ DB 'x'
	DB	00H, 'y', 00H, 'z', 00H, '_', 00H, 'o', 00H, 'f', 00H, 'f', 00H
	DB	's', 00H, 'e', 00H, 't', 00H, '_', 00H, 'z', 00H, 00H, 00H ; `string'
CONST	ENDS
;	COMDAT ??_C@_1BG@KGFFJCNH@?$AAx?$AAy?$AAz?$AA_?$AAs?$AAi?$AAz?$AAe?$AA_?$AAx?$AA?$AA@
CONST	SEGMENT
??_C@_1BG@KGFFJCNH@?$AAx?$AAy?$AAz?$AA_?$AAs?$AAi?$AAz?$AAe?$AA_?$AAx?$AA?$AA@ DB 'x'
	DB	00H, 'y', 00H, 'z', 00H, '_', 00H, 's', 00H, 'i', 00H, 'z', 00H
	DB	'e', 00H, '_', 00H, 'x', 00H, 00H, 00H	; `string'
CONST	ENDS
;	COMDAT ??_C@_1BG@BOOJPFLC@?$AAx?$AAy?$AAz?$AA_?$AAs?$AAi?$AAz?$AAe?$AA_?$AAy?$AA?$AA@
CONST	SEGMENT
??_C@_1BG@BOOJPFLC@?$AAx?$AAy?$AAz?$AA_?$AAs?$AAi?$AAz?$AAe?$AA_?$AAy?$AA?$AA@ DB 'x'
	DB	00H, 'y', 00H, 'z', 00H, '_', 00H, 's', 00H, 'i', 00H, 'z', 00H
	DB	'e', 00H, '_', 00H, 'y', 00H, 00H, 00H	; `string'
CONST	ENDS
;	COMDAT ??_C@_1BG@MFMFKFM@?$AAx?$AAy?$AAz?$AA_?$AAs?$AAi?$AAz?$AAe?$AA_?$AAz?$AA?$AA@
CONST	SEGMENT
??_C@_1BG@MFMFKFM@?$AAx?$AAy?$AAz?$AA_?$AAs?$AAi?$AAz?$AAe?$AA_?$AAz?$AA?$AA@ DB 'x'
	DB	00H, 'y', 00H, 'z', 00H, '_', 00H, 's', 00H, 'i', 00H, 'z', 00H
	DB	'e', 00H, '_', 00H, 'z', 00H, 00H, 00H	; `string'
CONST	ENDS
;	COMDAT ??_C@_1BI@BKLPIDEI@?$AAx?$AAy?$AAz?$AA_?$AAa?$AAn?$AAg?$AAl?$AAe?$AA_?$AAx?$AA?$AA@
CONST	SEGMENT
??_C@_1BI@BKLPIDEI@?$AAx?$AAy?$AAz?$AA_?$AAa?$AAn?$AAg?$AAl?$AAe?$AA_?$AAx?$AA?$AA@ DB 'x'
	DB	00H, 'y', 00H, 'z', 00H, '_', 00H, 'a', 00H, 'n', 00H, 'g', 00H
	DB	'l', 00H, 'e', 00H, '_', 00H, 'x', 00H, 00H, 00H ; `string'
CONST	ENDS
;	COMDAT ??_C@_1BI@KCADOECN@?$AAx?$AAy?$AAz?$AA_?$AAa?$AAn?$AAg?$AAl?$AAe?$AA_?$AAy?$AA?$AA@
CONST	SEGMENT
??_C@_1BI@KCADOECN@?$AAx?$AAy?$AAz?$AA_?$AAa?$AAn?$AAg?$AAl?$AAe?$AA_?$AAy?$AA?$AA@ DB 'x'
	DB	00H, 'y', 00H, 'z', 00H, '_', 00H, 'a', 00H, 'n', 00H, 'g', 00H
	DB	'l', 00H, 'e', 00H, '_', 00H, 'y', 00H, 00H, 00H ; `string'
CONST	ENDS
;	COMDAT ??_C@_1BI@LALGELMD@?$AAx?$AAy?$AAz?$AA_?$AAa?$AAn?$AAg?$AAl?$AAe?$AA_?$AAz?$AA?$AA@
CONST	SEGMENT
??_C@_1BI@LALGELMD@?$AAx?$AAy?$AAz?$AA_?$AAa?$AAn?$AAg?$AAl?$AAe?$AA_?$AAz?$AA?$AA@ DB 'x'
	DB	00H, 'y', 00H, 'z', 00H, '_', 00H, 'a', 00H, 'n', 00H, 'g', 00H
	DB	'l', 00H, 'e', 00H, '_', 00H, 'z', 00H, 00H, 00H ; `string'
CONST	ENDS
;	COMDAT ??_C@_1BG@OJCIMJLI@?$AAx?$AAy?$AAz?$AA_?$AAt?$AAi?$AAl?$AAe?$AA_?$AAx?$AA?$AA@
CONST	SEGMENT
??_C@_1BG@OJCIMJLI@?$AAx?$AAy?$AAz?$AA_?$AAt?$AAi?$AAl?$AAe?$AA_?$AAx?$AA?$AA@ DB 'x'
	DB	00H, 'y', 00H, 'z', 00H, '_', 00H, 't', 00H, 'i', 00H, 'l', 00H
	DB	'e', 00H, '_', 00H, 'x', 00H, 00H, 00H	; `string'
CONST	ENDS
;	COMDAT ??_C@_1BG@FBJEKONN@?$AAx?$AAy?$AAz?$AA_?$AAt?$AAi?$AAl?$AAe?$AA_?$AAy?$AA?$AA@
CONST	SEGMENT
??_C@_1BG@FBJEKONN@?$AAx?$AAy?$AAz?$AA_?$AAt?$AAi?$AAl?$AAe?$AA_?$AAy?$AA?$AA@ DB 'x'
	DB	00H, 'y', 00H, 'z', 00H, '_', 00H, 't', 00H, 'i', 00H, 'l', 00H
	DB	'e', 00H, '_', 00H, 'y', 00H, 00H, 00H	; `string'
CONST	ENDS
;	COMDAT ??_7BerconGradientClassDesc@@6B@
CONST	SEGMENT
??_7BerconGradientClassDesc@@6B@ DQ FLAT:??_R4BerconGradientClassDesc@@6B@ ; BerconGradientClassDesc::`vftable'
	DQ	FLAT:??_EBerconGradientClassDesc@@UEAAPEAXI@Z
	DQ	FLAT:?IsPublic@BerconGradientClassDesc@@UEAAHXZ
	DQ	FLAT:?Create@BerconGradientClassDesc@@UEAAPEAXH@Z
	DQ	FLAT:?BeginCreate@ClassDesc@@UEAAHPEAVInterface@@@Z
	DQ	FLAT:?EndCreate@ClassDesc@@UEAAHPEAVInterface@@@Z
	DQ	FLAT:?OkToCreate@ClassDesc@@UEAAHPEAVInterface@@@Z
	DQ	FLAT:?ClassName@BerconGradientClassDesc@@UEAAPEB_WXZ
	DQ	FLAT:?SuperClassID@BerconGradientClassDesc@@UEAAKXZ
	DQ	FLAT:?ClassID@BerconGradientClassDesc@@UEAA?AVClass_ID@@XZ
	DQ	FLAT:?Category@BerconGradientClassDesc@@UEAAPEB_WXZ
	DQ	FLAT:?HasClassParams@ClassDesc@@UEAAHXZ
	DQ	FLAT:?EditClassParams@ClassDesc@@UEAAXPEAUHWND__@@@Z
	DQ	FLAT:?ResetClassParams@ClassDesc2@@UEAAXH@Z
	DQ	FLAT:?NumActionTables@ClassDesc@@UEAAHXZ
	DQ	FLAT:?GetActionTable@ClassDesc@@UEAAPEAVActionTable@@H@Z
	DQ	FLAT:?IsManipulator@ClassDesc@@UEAAHXZ
	DQ	FLAT:?CanManipulate@ClassDesc@@UEAAHPEAVReferenceTarget@@@Z
	DQ	FLAT:?CanManipulateNode@ClassDesc@@UEAAHPEAVINode@@@Z
	DQ	FLAT:?CreateManipulator@ClassDesc@@UEAAPEAVManipulator@@PEAVINode@@@Z
	DQ	FLAT:?CreateManipulator@ClassDesc@@UEAAPEAVManipulator@@PEAVReferenceTarget@@PEAVINode@@@Z
	DQ	FLAT:?NeedsToSave@ClassDesc@@UEAAHXZ
	DQ	FLAT:?Save@ClassDesc@@UEAA?AW4IOResult@@PEAVISave@@@Z
	DQ	FLAT:?Load@ClassDesc@@UEAA?AW4IOResult@@PEAVILoad@@@Z
	DQ	FLAT:?InitialRollupPageState@ClassDesc@@UEAAKXZ
	DQ	FLAT:?InternalName@BerconGradientClassDesc@@UEAAPEB_WXZ
	DQ	FLAT:?UseOnlyInternalNameForMAXScriptExposure@ClassDesc@@UEAA_NXZ
	DQ	FLAT:?HInstance@BerconGradientClassDesc@@UEAAPEAUHINSTANCE__@@XZ
	DQ	FLAT:?NumParamBlockDescs@ClassDesc2@@UEAAHXZ
	DQ	FLAT:?GetParamBlockDesc@ClassDesc2@@UEAAPEAVParamBlockDesc2@@H@Z
	DQ	FLAT:?GetParamBlockDescByID@ClassDesc2@@UEAAPEAVParamBlockDesc2@@F@Z
	DQ	FLAT:?AddParamBlockDesc@ClassDesc2@@UEAAXPEAVParamBlockDesc2@@@Z
	DQ	FLAT:?BeginEditParams@ClassDesc2@@UEAAXPEAVIObjParam@@PEAVReferenceMaker@@KPEAVAnimatable@@@Z
	DQ	FLAT:?EndEditParams@ClassDesc2@@UEAAXPEAVIObjParam@@PEAVReferenceMaker@@KPEAVAnimatable@@@Z
	DQ	FLAT:?InvalidateUI@ClassDesc2@@UEAAXPEAVParamBlockDesc2@@@Z
	DQ	FLAT:?GetRsrcString@ClassDesc@@UEAAPEB_W_J@Z
	DQ	FLAT:?MakeAutoParamBlocks@ClassDesc2@@UEAAXPEAVReferenceMaker@@@Z
	DQ	FLAT:?NumParamMaps@ClassDesc2@@UEAAHXZ
	DQ	FLAT:?GetParamMap@ClassDesc@@UEAAPEAVIParamMap2@@PEAVParamBlockDesc2@@@Z
	DQ	FLAT:?GetParamMap@ClassDesc2@@UEAAPEAVIParamMap2@@H@Z
	DQ	FLAT:?SetUserDlgProc@ClassDesc2@@UEAA_NPEAVParamBlockDesc2@@PEAVParamMap2UserDlgProc@@@Z
	DQ	FLAT:?GetUserDlgProc@ClassDesc@@UEAAPEAVParamMap2UserDlgProc@@PEAVParamBlockDesc2@@@Z
	DQ	FLAT:?DrawRepresentation@ClassDesc@@UEAA_NKPEAUHDC__@@AEAVBox2@@@Z
	DQ	FLAT:?NumInterfaces@ClassDesc@@UEAAHXZ
	DQ	FLAT:?GetInterfaceAt@ClassDesc@@UEAAPEAVFPInterface@@H@Z
	DQ	FLAT:?GetInterface@ClassDesc@@UEAAPEAVFPInterface@@PEB_W@Z
	DQ	FLAT:?GetInterface@ClassDesc@@UEAAPEAVFPInterface@@VInterface_ID@@@Z
	DQ	FLAT:?AddInterface@ClassDesc@@UEAAXPEAVFPInterface@@@Z
	DQ	FLAT:?ClearInterfaces@ClassDesc@@UEAAXXZ
	DQ	FLAT:?SubClassID@ClassDesc@@UEAA?AVClass_ID@@XZ
	DQ	FLAT:?Execute@ClassDesc@@UEAA_JH_K00@Z
	DQ	FLAT:?CreateQtWidget@ClassDesc2@@UEAAPEAVQMaxParamBlockWidget@MaxSDK@@AEAVReferenceMaker@@AEAVIParamBlock2@@FAEAVWStr@@AEAH3AEAVClass_ID@@@Z
	DQ	FLAT:?CreateQtWidget@ClassDesc2@@UEAAPEAVQMaxParamBlockWidget@MaxSDK@@AEAVReferenceMaker@@AEAVIParamBlock2@@FAEAVWStr@@AEAH3@Z
CONST	ENDS
;	COMDAT ??_C@_1BG@EDCBABDD@?$AAx?$AAy?$AAz?$AA_?$AAt?$AAi?$AAl?$AAe?$AA_?$AAz?$AA?$AA@
CONST	SEGMENT
??_C@_1BG@EDCBABDD@?$AAx?$AAy?$AAz?$AA_?$AAt?$AAi?$AAl?$AAe?$AA_?$AAz?$AA?$AA@ DB 'x'
	DB	00H, 'y', 00H, 'z', 00H, '_', 00H, 't', 00H, 'i', 00H, 'l', 00H
	DB	'e', 00H, '_', 00H, 'z', 00H, 00H, 00H	; `string'
CONST	ENDS
;	COMDAT ??_C@_19HFHNPJHA@?$AAs?$AAe?$AAe?$AAd?$AA?$AA@
CONST	SEGMENT
??_C@_19HFHNPJHA@?$AAs?$AAe?$AAe?$AAd?$AA?$AA@ DB 's', 00H, 'e', 00H, 'e', 00H
	DB	'd', 00H, 00H, 00H				; `string'
CONST	ENDS
;	COMDAT ??_C@_1BE@DCGEPHFM@?$AAr?$AAa?$AAn?$AAd?$AAB?$AAy?$AAM?$AAa?$AAt?$AA?$AA@
CONST	SEGMENT
??_C@_1BE@DCGEPHFM@?$AAr?$AAa?$AAn?$AAd?$AAB?$AAy?$AAM?$AAa?$AAt?$AA?$AA@ DB 'r'
	DB	00H, 'a', 00H, 'n', 00H, 'd', 00H, 'B', 00H, 'y', 00H, 'M', 00H
	DB	'a', 00H, 't', 00H, 00H, 00H			; `string'
CONST	ENDS
;	COMDAT ??_C@_1BE@EGBDKCCD@?$AAr?$AAa?$AAn?$AAd?$AAB?$AAy?$AAO?$AAb?$AAj?$AA?$AA@
CONST	SEGMENT
??_C@_1BE@EGBDKCCD@?$AAr?$AAa?$AAn?$AAd?$AAB?$AAy?$AAO?$AAb?$AAj?$AA?$AA@ DB 'r'
	DB	00H, 'a', 00H, 'n', 00H, 'd', 00H, 'B', 00H, 'y', 00H, 'O', 00H
	DB	'b', 00H, 'j', 00H, 00H, 00H			; `string'
CONST	ENDS
;	COMDAT ??_C@_1BE@PALBIMHK@?$AAr?$AAa?$AAn?$AAd?$AAB?$AAy?$AAP?$AAa?$AAr?$AA?$AA@
CONST	SEGMENT
??_C@_1BE@PALBIMHK@?$AAr?$AAa?$AAn?$AAd?$AAB?$AAy?$AAP?$AAa?$AAr?$AA?$AA@ DB 'r'
	DB	00H, 'a', 00H, 'n', 00H, 'd', 00H, 'B', 00H, 'y', 00H, 'P', 00H
	DB	'a', 00H, 'r', 00H, 00H, 00H			; `string'
CONST	ENDS
;	COMDAT ??_C@_1BM@EKFGEOII@?$AAx?$AAy?$AAz?$AA_?$AAo?$AAf?$AAf?$AAs?$AAe?$AAt?$AA_?$AAx?$AA2?$AA?$AA@
CONST	SEGMENT
??_C@_1BM@EKFGEOII@?$AAx?$AAy?$AAz?$AA_?$AAo?$AAf?$AAf?$AAs?$AAe?$AAt?$AA_?$AAx?$AA2?$AA?$AA@ DB 'x'
	DB	00H, 'y', 00H, 'z', 00H, '_', 00H, 'o', 00H, 'f', 00H, 'f', 00H
	DB	's', 00H, 'e', 00H, 't', 00H, '_', 00H, 'x', 00H, '2', 00H, 00H
	DB	00H						; `string'
CONST	ENDS
;	COMDAT ??_C@_1BM@IBAKJNCN@?$AAx?$AAy?$AAz?$AA_?$AAo?$AAf?$AAf?$AAs?$AAe?$AAt?$AA_?$AAy?$AA2?$AA?$AA@
CONST	SEGMENT
??_C@_1BM@IBAKJNCN@?$AAx?$AAy?$AAz?$AA_?$AAo?$AAf?$AAf?$AAs?$AAe?$AAt?$AA_?$AAy?$AA2?$AA?$AA@ DB 'x'
	DB	00H, 'y', 00H, 'z', 00H, '_', 00H, 'o', 00H, 'f', 00H, 'f', 00H
	DB	's', 00H, 'e', 00H, 't', 00H, '_', 00H, 'y', 00H, '2', 00H, 00H
	DB	00H						; `string'
CONST	ENDS
;	COMDAT ??_C@_1BM@HJOOPID@?$AAx?$AAy?$AAz?$AA_?$AAo?$AAf?$AAf?$AAs?$AAe?$AAt?$AA_?$AAz?$AA2?$AA?$AA@
CONST	SEGMENT
??_C@_1BM@HJOOPID@?$AAx?$AAy?$AAz?$AA_?$AAo?$AAf?$AAf?$AAs?$AAe?$AAt?$AA_?$AAz?$AA2?$AA?$AA@ DB 'x'
	DB	00H, 'y', 00H, 'z', 00H, '_', 00H, 'o', 00H, 'f', 00H, 'f', 00H
	DB	's', 00H, 'e', 00H, 't', 00H, '_', 00H, 'z', 00H, '2', 00H, 00H
	DB	00H						; `string'
CONST	ENDS
;	COMDAT ??_C@_1BI@IKFKDHMP@?$AAx?$AAy?$AAz?$AA_?$AAs?$AAi?$AAz?$AAe?$AA_?$AAx?$AA2?$AA?$AA@
CONST	SEGMENT
??_C@_1BI@IKFKDHMP@?$AAx?$AAy?$AAz?$AA_?$AAs?$AAi?$AAz?$AAe?$AA_?$AAx?$AA2?$AA?$AA@ DB 'x'
	DB	00H, 'y', 00H, 'z', 00H, '_', 00H, 's', 00H, 'i', 00H, 'z', 00H
	DB	'e', 00H, '_', 00H, 'x', 00H, '2', 00H, 00H, 00H ; `string'
CONST	ENDS
;	COMDAT ??_C@_1BI@EBAGOEGK@?$AAx?$AAy?$AAz?$AA_?$AAs?$AAi?$AAz?$AAe?$AA_?$AAy?$AA2?$AA?$AA@
CONST	SEGMENT
??_C@_1BI@EBAGOEGK@?$AAx?$AAy?$AAz?$AA_?$AAs?$AAi?$AAz?$AAe?$AA_?$AAy?$AA2?$AA?$AA@ DB 'x'
	DB	00H, 'y', 00H, 'z', 00H, '_', 00H, 's', 00H, 'i', 00H, 'z', 00H
	DB	'e', 00H, '_', 00H, 'y', 00H, '2', 00H, 00H, 00H ; `string'
CONST	ENDS
;	COMDAT ??_C@_1BI@MHJCJGME@?$AAx?$AAy?$AAz?$AA_?$AAs?$AAi?$AAz?$AAe?$AA_?$AAz?$AA2?$AA?$AA@
CONST	SEGMENT
??_C@_1BI@MHJCJGME@?$AAx?$AAy?$AAz?$AA_?$AAs?$AAi?$AAz?$AAe?$AA_?$AAz?$AA2?$AA?$AA@ DB 'x'
	DB	00H, 'y', 00H, 'z', 00H, '_', 00H, 's', 00H, 'i', 00H, 'z', 00H
	DB	'e', 00H, '_', 00H, 'z', 00H, '2', 00H, 00H, 00H ; `string'
CONST	ENDS
;	COMDAT ??_C@_1BK@BGDDDNAC@?$AAx?$AAy?$AAz?$AA_?$AAa?$AAn?$AAg?$AAl?$AAe?$AA_?$AAx?$AA2?$AA?$AA@
CONST	SEGMENT
??_C@_1BK@BGDDDNAC@?$AAx?$AAy?$AAz?$AA_?$AAa?$AAn?$AAg?$AAl?$AAe?$AA_?$AAx?$AA2?$AA?$AA@ DB 'x'
	DB	00H, 'y', 00H, 'z', 00H, '_', 00H, 'a', 00H, 'n', 00H, 'g', 00H
	DB	'l', 00H, 'e', 00H, '_', 00H, 'x', 00H, '2', 00H, 00H, 00H ; `string'
CONST	ENDS
;	COMDAT ??_C@_1BK@NNGPOOKH@?$AAx?$AAy?$AAz?$AA_?$AAa?$AAn?$AAg?$AAl?$AAe?$AA_?$AAy?$AA2?$AA?$AA@
CONST	SEGMENT
??_C@_1BK@NNGPOOKH@?$AAx?$AAy?$AAz?$AA_?$AAa?$AAn?$AAg?$AAl?$AAe?$AA_?$AAy?$AA2?$AA?$AA@ DB 'x'
	DB	00H, 'y', 00H, 'z', 00H, '_', 00H, 'a', 00H, 'n', 00H, 'g', 00H
	DB	'l', 00H, 'e', 00H, '_', 00H, 'y', 00H, '2', 00H, 00H, 00H ; `string'
CONST	ENDS
;	COMDAT ??_C@_1BK@FLPLJMAJ@?$AAx?$AAy?$AAz?$AA_?$AAa?$AAn?$AAg?$AAl?$AAe?$AA_?$AAz?$AA2?$AA?$AA@
CONST	SEGMENT
??_C@_1BK@FLPLJMAJ@?$AAx?$AAy?$AAz?$AA_?$AAa?$AAn?$AAg?$AAl?$AAe?$AA_?$AAz?$AA2?$AA?$AA@ DB 'x'
	DB	00H, 'y', 00H, 'z', 00H, '_', 00H, 'a', 00H, 'n', 00H, 'g', 00H
	DB	'l', 00H, 'e', 00H, '_', 00H, 'z', 00H, '2', 00H, 00H, 00H ; `string'
CONST	ENDS
;	COMDAT ??_C@_1BC@JCCAEAIN@?$AAx?$AAy?$AAz?$AA_?$AAl?$AAo?$AAc?$AAk?$AA?$AA@
CONST	SEGMENT
??_C@_1BC@JCCAEAIN@?$AAx?$AAy?$AAz?$AA_?$AAl?$AAo?$AAc?$AAk?$AA?$AA@ DB 'x'
	DB	00H, 'y', 00H, 'z', 00H, '_', 00H, 'l', 00H, 'o', 00H, 'c', 00H
	DB	'k', 00H, 00H, 00H				; `string'
CONST	ENDS
;	COMDAT ??_C@_1BM@LCALCDFD@?$AAx?$AAy?$AAz?$AA_?$AAf?$AAi?$AAl?$AAt?$AAe?$AAr?$AAi?$AAn?$AAg?$AA?$AA@
CONST	SEGMENT
??_C@_1BM@LCALCDFD@?$AAx?$AAy?$AAz?$AA_?$AAf?$AAi?$AAl?$AAt?$AAe?$AAr?$AAi?$AAn?$AAg?$AA?$AA@ DB 'x'
	DB	00H, 'y', 00H, 'z', 00H, '_', 00H, 'f', 00H, 'i', 00H, 'l', 00H
	DB	't', 00H, 'e', 00H, 'r', 00H, 'i', 00H, 'n', 00H, 'g', 00H, 00H
	DB	00H						; `string'
CONST	ENDS
;	COMDAT ??_7XYZ_Desc@@6B@
CONST	SEGMENT
??_7XYZ_Desc@@6B@ DQ FLAT:??_R4XYZ_Desc@@6B@		; XYZ_Desc::`vftable'
	DQ	FLAT:??_EXYZ_Desc@@UEAAPEAXI@Z
	DQ	FLAT:?GetInterface@BaseInterfaceServer@@UEAAPEAVBaseInterface@@VInterface_ID@@@Z
	DQ	FLAT:?NumInterfaces@BaseInterfaceServer@@UEBAHXZ
	DQ	FLAT:?GetInterfaceAt@BaseInterfaceServer@@UEBAPEAVBaseInterface@@H@Z
CONST	ENDS
;	COMDAT ??_C@_1GI@NLEIFPEJ@?$AAI?$AAn?$AAv?$AAa?$AAl?$AAi?$AAd?$AA?5?$AAi?$AAn?$AAd?$AAe?$AAx?$AA?5?$AAp?$AAa?$AAs?$AAs?$AAe?$AAd?$AA?5?$AAi?$AAn?$AAt?$AAo?$AA?5?$AAa?$AA?5?$AAM?$AAa?$AAx?$AA?5@
CONST	SEGMENT
??_C@_1GI@NLEIFPEJ@?$AAI?$AAn?$AAv?$AAa?$AAl?$AAi?$AAd?$AA?5?$AAi?$AAn?$AAd?$AAe?$AAx?$AA?5?$AAp?$AAa?$AAs?$AAs?$AAe?$AAd?$AA?5?$AAi?$AAn?$AAt?$AAo?$AA?5?$AAa?$AA?5?$AAM?$AAa?$AAx?$AA?5@ DB 'I'
	DB	00H, 'n', 00H, 'v', 00H, 'a', 00H, 'l', 00H, 'i', 00H, 'd', 00H
	DB	' ', 00H, 'i', 00H, 'n', 00H, 'd', 00H, 'e', 00H, 'x', 00H, ' '
	DB	00H, 'p', 00H, 'a', 00H, 's', 00H, 's', 00H, 'e', 00H, 'd', 00H
	DB	' ', 00H, 'i', 00H, 'n', 00H, 't', 00H, 'o', 00H, ' ', 00H, 'a'
	DB	00H, ' ', 00H, 'M', 00H, 'a', 00H, 'x', 00H, ' ', 00H, 'S', 00H
	DB	'D', 00H, 'K', 00H, ' ', 00H, 'T', 00H, 'a', 00H, 'b', 00H, ':'
	DB	00H, ':', 00H, 'o', 00H, 'p', 00H, 'e', 00H, 'r', 00H, 'a', 00H
	DB	't', 00H, 'o', 00H, 'r', 00H, '[', 00H, ']', 00H, 00H, 00H ; `string'
CONST	ENDS
;	COMDAT _CT??_R0?AVException@Util@MaxSDK@@@8??0Exception@Util@MaxSDK@@QEAA@AEBV012@@Z16
xdata$x	SEGMENT
_CT??_R0?AVException@Util@MaxSDK@@@8??0Exception@Util@MaxSDK@@QEAA@AEBV012@@Z16 DD 00H
	DD	imagerel ??_R0?AVException@Util@MaxSDK@@@8
	DD	00H
	DD	0ffffffffH
	ORG $+4
	DD	010H
	DD	imagerel __imp_??0Exception@Util@MaxSDK@@QEAA@AEBV012@@Z
xdata$x	ENDS
;	COMDAT ??_R0?AVException@Util@MaxSDK@@@8
data$r	SEGMENT
??_R0?AVException@Util@MaxSDK@@@8 DQ FLAT:??_7type_info@@6B@ ; MaxSDK::Util::Exception `RTTI Type Descriptor'
	DQ	0000000000000000H
	DB	'.?AVException@Util@MaxSDK@@', 00H
data$r	ENDS
;	COMDAT _CT??_R0?AVOutOfRangeException@Util@MaxSDK@@@8??0OutOfRangeException@Util@MaxSDK@@QEAA@AEBV012@@Z16
xdata$x	SEGMENT
_CT??_R0?AVOutOfRangeException@Util@MaxSDK@@@8??0OutOfRangeException@Util@MaxSDK@@QEAA@AEBV012@@Z16 DD 00H
	DD	imagerel ??_R0?AVOutOfRangeException@Util@MaxSDK@@@8
	DD	00H
	DD	0ffffffffH
	ORG $+4
	DD	010H
	DD	imagerel __imp_??0OutOfRangeException@Util@MaxSDK@@QEAA@AEBV012@@Z
xdata$x	ENDS
;	COMDAT ??_R0?AVOutOfRangeException@Util@MaxSDK@@@8
data$r	SEGMENT
??_R0?AVOutOfRangeException@Util@MaxSDK@@@8 DQ FLAT:??_7type_info@@6B@ ; MaxSDK::Util::OutOfRangeException `RTTI Type Descriptor'
	DQ	0000000000000000H
	DB	'.?AVOutOfRangeException@Util@MaxSDK@@', 00H
data$r	ENDS
;	COMDAT _CT??_R0?AVTabOutOfRangeException@Util@MaxSDK@@@8??0TabOutOfRangeException@Util@MaxSDK@@QEAA@AEBV012@@Z16
xdata$x	SEGMENT
_CT??_R0?AVTabOutOfRangeException@Util@MaxSDK@@@8??0TabOutOfRangeException@Util@MaxSDK@@QEAA@AEBV012@@Z16 DD 00H
	DD	imagerel ??_R0?AVTabOutOfRangeException@Util@MaxSDK@@@8
	DD	00H
	DD	0ffffffffH
	ORG $+4
	DD	010H
	DD	imagerel ??0TabOutOfRangeException@Util@MaxSDK@@QEAA@AEBV012@@Z
xdata$x	ENDS
;	COMDAT ??_R0?AVTabOutOfRangeException@Util@MaxSDK@@@8
data$r	SEGMENT
??_R0?AVTabOutOfRangeException@Util@MaxSDK@@@8 DQ FLAT:??_7type_info@@6B@ ; MaxSDK::Util::TabOutOfRangeException `RTTI Type Descriptor'
	DQ	0000000000000000H
	DB	'.?AVTabOutOfRangeException@Util@MaxSDK@@', 00H
data$r	ENDS
;	COMDAT ??_R1A@?0A@EA@Noncopyable@Util@MaxSDK@@8
rdata$r	SEGMENT
??_R1A@?0A@EA@Noncopyable@Util@MaxSDK@@8 DD imagerel ??_R0?AVNoncopyable@Util@MaxSDK@@@8 ; MaxSDK::Util::Noncopyable::`RTTI Base Class Descriptor at (0,-1,0,64)'
	DD	01H
	DD	00H
	DD	0ffffffffH
	DD	00H
	DD	040H
	DD	imagerel ??_R3Noncopyable@Util@MaxSDK@@8
rdata$r	ENDS
;	COMDAT _CTA4?AVTabOutOfRangeException@Util@MaxSDK@@
xdata$x	SEGMENT
_CTA4?AVTabOutOfRangeException@Util@MaxSDK@@ DD 04H
	DD	imagerel _CT??_R0?AVTabOutOfRangeException@Util@MaxSDK@@@8??0TabOutOfRangeException@Util@MaxSDK@@QEAA@AEBV012@@Z16
	DD	imagerel _CT??_R0?AVOutOfRangeException@Util@MaxSDK@@@8??0OutOfRangeException@Util@MaxSDK@@QEAA@AEBV012@@Z16
	DD	imagerel _CT??_R0?AVException@Util@MaxSDK@@@8??0Exception@Util@MaxSDK@@QEAA@AEBV012@@Z16
	DD	imagerel _CT??_R0?AVMaxHeapOperators@@@818
xdata$x	ENDS
;	COMDAT ??_R2Noncopyable@Util@MaxSDK@@8
rdata$r	SEGMENT
??_R2Noncopyable@Util@MaxSDK@@8 DD imagerel ??_R1A@?0A@EA@Noncopyable@Util@MaxSDK@@8 ; MaxSDK::Util::Noncopyable::`RTTI Base Class Array'
	DD	imagerel ??_R1A@?0A@EA@MaxHeapOperators@@8
	ORG $+3
rdata$r	ENDS
;	COMDAT _TI4?AVTabOutOfRangeException@Util@MaxSDK@@
xdata$x	SEGMENT
_TI4?AVTabOutOfRangeException@Util@MaxSDK@@ DD 00H
	DD	imagerel ??1TabOutOfRangeException@Util@MaxSDK@@UEAA@XZ
	DD	00H
	DD	imagerel _CTA4?AVTabOutOfRangeException@Util@MaxSDK@@
xdata$x	ENDS
;	COMDAT ??_R3Noncopyable@Util@MaxSDK@@8
rdata$r	SEGMENT
??_R3Noncopyable@Util@MaxSDK@@8 DD 00H			; MaxSDK::Util::Noncopyable::`RTTI Class Hierarchy Descriptor'
	DD	00H
	DD	02H
	DD	imagerel ??_R2Noncopyable@Util@MaxSDK@@8
rdata$r	ENDS
;	COMDAT ??_R0?AVNoncopyable@Util@MaxSDK@@@8
data$r	SEGMENT
??_R0?AVNoncopyable@Util@MaxSDK@@@8 DQ FLAT:??_7type_info@@6B@ ; MaxSDK::Util::Noncopyable `RTTI Type Descriptor'
	DQ	0000000000000000H
	DB	'.?AVNoncopyable@Util@MaxSDK@@', 00H
data$r	ENDS
;	COMDAT ??_C@_1CI@OKLGNBMM@?$AAt?$AAh?$AA?5?$AA?$CG?$AA?$CG?$AA?5?$AAi?$AA?5?$AA?$DM?$AA?5?$AAt?$AAh?$AA?9?$AA?$DO?$AAc?$AAo?$AAu?$AAn?$AAt?$AA?$AA@
CONST	SEGMENT
??_C@_1CI@OKLGNBMM@?$AAt?$AAh?$AA?5?$AA?$CG?$AA?$CG?$AA?5?$AAi?$AA?5?$AA?$DM?$AA?5?$AAt?$AAh?$AA?9?$AA?$DO?$AAc?$AAo?$AAu?$AAn?$AAt?$AA?$AA@ DB 't'
	DB	00H, 'h', 00H, ' ', 00H, '&', 00H, '&', 00H, ' ', 00H, 'i', 00H
	DB	' ', 00H, '<', 00H, ' ', 00H, 't', 00H, 'h', 00H, '-', 00H, '>'
	DB	00H, 'c', 00H, 'o', 00H, 'u', 00H, 'n', 00H, 't', 00H, 00H, 00H ; `string'
CONST	ENDS
;	COMDAT ??_R17?0A@EC@MaxHeapOperators@@8
rdata$r	SEGMENT
??_R17?0A@EC@MaxHeapOperators@@8 DD imagerel ??_R0?AVMaxHeapOperators@@@8 ; MaxHeapOperators::`RTTI Base Class Descriptor at (8,-1,0,66)'
	DD	00H
	DD	08H
	DD	0ffffffffH
	DD	00H
	DD	042H
	DD	imagerel ??_R3MaxHeapOperators@@8
rdata$r	ENDS
;	COMDAT ??_C@_1IA@CBFEGJCG@?$AAc?$AA?3?$AA?2?$AAp?$AAr?$AAo?$AAg?$AAr?$AAa?$AAm?$AA?5?$AAf?$AAi?$AAl?$AAe?$AAs?$AA?2?$AAa?$AAu?$AAt?$AAo?$AAd?$AAe?$AAs?$AAk?$AA?2?$AA3?$AAd?$AAs?$AA?5?$AAm?$AAa@
CONST	SEGMENT
??_C@_1IA@CBFEGJCG@?$AAc?$AA?3?$AA?2?$AAp?$AAr?$AAo?$AAg?$AAr?$AAa?$AAm?$AA?5?$AAf?$AAi?$AAl?$AAe?$AAs?$AA?2?$AAa?$AAu?$AAt?$AAo?$AAd?$AAe?$AAs?$AAk?$AA?2?$AA3?$AAd?$AAs?$AA?5?$AAm?$AAa@ DB 'c'
	DB	00H, ':', 00H, '\', 00H, 'p', 00H, 'r', 00H, 'o', 00H, 'g', 00H
	DB	'r', 00H, 'a', 00H, 'm', 00H, ' ', 00H, 'f', 00H, 'i', 00H, 'l'
	DB	00H, 'e', 00H, 's', 00H, '\', 00H, 'a', 00H, 'u', 00H, 't', 00H
	DB	'o', 00H, 'd', 00H, 'e', 00H, 's', 00H, 'k', 00H, '\', 00H, '3'
	DB	00H, 'd', 00H, 's', 00H, ' ', 00H, 'm', 00H, 'a', 00H, 'x', 00H
	DB	' ', 00H, '2', 00H, '0', 00H, '2', 00H, '0', 00H, ' ', 00H, 's'
	DB	00H, 'd', 00H, 'k', 00H, '\', 00H, 'm', 00H, 'a', 00H, 'x', 00H
	DB	's', 00H, 'd', 00H, 'k', 00H, '\', 00H, 'i', 00H, 'n', 00H, 'c'
	DB	00H, 'l', 00H, 'u', 00H, 'd', 00H, 'e', 00H, '\', 00H, 't', 00H
	DB	'a', 00H, 'b', 00H, '.', 00H, 'h', 00H, 00H, 00H ; `string'
CONST	ENDS
;	COMDAT ??_C@_15CABMMOGH@?$AAt?$AAh?$AA?$AA@
CONST	SEGMENT
??_C@_15CABMMOGH@?$AAt?$AAh?$AA?$AA@ DB 't', 00H, 'h', 00H, 00H, 00H ; `string'
CONST	ENDS
;	COMDAT ??_R1A@?0A@EA@ClassDesc@@8
rdata$r	SEGMENT
??_R1A@?0A@EA@ClassDesc@@8 DD imagerel ??_R0?AVClassDesc@@@8 ; ClassDesc::`RTTI Base Class Descriptor at (0,-1,0,64)'
	DD	01H
	DD	00H
	DD	0ffffffffH
	DD	00H
	DD	040H
	DD	imagerel ??_R3ClassDesc@@8
rdata$r	ENDS
;	COMDAT ??_R2ClassDesc@@8
rdata$r	SEGMENT
??_R2ClassDesc@@8 DD imagerel ??_R1A@?0A@EA@ClassDesc@@8 ; ClassDesc::`RTTI Base Class Array'
	DD	imagerel ??_R17?0A@EA@MaxHeapOperators@@8
	ORG $+3
rdata$r	ENDS
;	COMDAT ??_R3ClassDesc@@8
rdata$r	SEGMENT
??_R3ClassDesc@@8 DD 00H				; ClassDesc::`RTTI Class Hierarchy Descriptor'
	DD	00H
	DD	02H
	DD	imagerel ??_R2ClassDesc@@8
rdata$r	ENDS
;	COMDAT ??_R0?AVClassDesc@@@8
data$r	SEGMENT
??_R0?AVClassDesc@@@8 DQ FLAT:??_7type_info@@6B@	; ClassDesc `RTTI Type Descriptor'
	DQ	0000000000000000H
	DB	'.?AVClassDesc@@', 00H
data$r	ENDS
;	COMDAT ??_R1A@?0A@EA@BaseInterfaceServer@@8
rdata$r	SEGMENT
??_R1A@?0A@EA@BaseInterfaceServer@@8 DD imagerel ??_R0?AVBaseInterfaceServer@@@8 ; BaseInterfaceServer::`RTTI Base Class Descriptor at (0,-1,0,64)'
	DD	02H
	DD	00H
	DD	0ffffffffH
	DD	00H
	DD	040H
	DD	imagerel ??_R3BaseInterfaceServer@@8
rdata$r	ENDS
;	COMDAT ??_R2BaseInterfaceServer@@8
rdata$r	SEGMENT
??_R2BaseInterfaceServer@@8 DD imagerel ??_R1A@?0A@EA@BaseInterfaceServer@@8 ; BaseInterfaceServer::`RTTI Base Class Array'
	DD	imagerel ??_R1A@?0A@EA@InterfaceServer@@8
	DD	imagerel ??_R17?0A@EA@MaxHeapOperators@@8
	ORG $+3
rdata$r	ENDS
;	COMDAT ??_R3BaseInterfaceServer@@8
rdata$r	SEGMENT
??_R3BaseInterfaceServer@@8 DD 00H			; BaseInterfaceServer::`RTTI Class Hierarchy Descriptor'
	DD	00H
	DD	03H
	DD	imagerel ??_R2BaseInterfaceServer@@8
rdata$r	ENDS
;	COMDAT ??_R0?AVBaseInterfaceServer@@@8
data$r	SEGMENT
??_R0?AVBaseInterfaceServer@@@8 DQ FLAT:??_7type_info@@6B@ ; BaseInterfaceServer `RTTI Type Descriptor'
	DQ	0000000000000000H
	DB	'.?AVBaseInterfaceServer@@', 00H
data$r	ENDS
;	COMDAT ??_R1A@?0A@EA@InterfaceServer@@8
rdata$r	SEGMENT
??_R1A@?0A@EA@InterfaceServer@@8 DD imagerel ??_R0?AVInterfaceServer@@@8 ; InterfaceServer::`RTTI Base Class Descriptor at (0,-1,0,64)'
	DD	01H
	DD	00H
	DD	0ffffffffH
	DD	00H
	DD	040H
	DD	imagerel ??_R3InterfaceServer@@8
rdata$r	ENDS
;	COMDAT ??_R2InterfaceServer@@8
rdata$r	SEGMENT
??_R2InterfaceServer@@8 DD imagerel ??_R1A@?0A@EA@InterfaceServer@@8 ; InterfaceServer::`RTTI Base Class Array'
	DD	imagerel ??_R17?0A@EA@MaxHeapOperators@@8
	ORG $+3
rdata$r	ENDS
;	COMDAT ??_R3InterfaceServer@@8
rdata$r	SEGMENT
??_R3InterfaceServer@@8 DD 00H				; InterfaceServer::`RTTI Class Hierarchy Descriptor'
	DD	00H
	DD	02H
	DD	imagerel ??_R2InterfaceServer@@8
rdata$r	ENDS
;	COMDAT ??_R0?AVInterfaceServer@@@8
data$r	SEGMENT
??_R0?AVInterfaceServer@@@8 DQ FLAT:??_7type_info@@6B@	; InterfaceServer `RTTI Type Descriptor'
	DQ	0000000000000000H
	DB	'.?AVInterfaceServer@@', 00H
data$r	ENDS
;	COMDAT ??_R1A@?0A@EA@MaxHeapOperators@@8
rdata$r	SEGMENT
??_R1A@?0A@EA@MaxHeapOperators@@8 DD imagerel ??_R0?AVMaxHeapOperators@@@8 ; MaxHeapOperators::`RTTI Base Class Descriptor at (0,-1,0,64)'
	DD	00H
	DD	00H
	DD	0ffffffffH
	DD	00H
	DD	040H
	DD	imagerel ??_R3MaxHeapOperators@@8
rdata$r	ENDS
;	COMDAT ??_R2MaxHeapOperators@@8
rdata$r	SEGMENT
??_R2MaxHeapOperators@@8 DD imagerel ??_R1A@?0A@EA@MaxHeapOperators@@8 ; MaxHeapOperators::`RTTI Base Class Array'
	ORG $+3
rdata$r	ENDS
;	COMDAT ??_R3MaxHeapOperators@@8
rdata$r	SEGMENT
??_R3MaxHeapOperators@@8 DD 00H				; MaxHeapOperators::`RTTI Class Hierarchy Descriptor'
	DD	00H
	DD	01H
	DD	imagerel ??_R2MaxHeapOperators@@8
rdata$r	ENDS
;	COMDAT ??_R17?0A@EA@MaxHeapOperators@@8
rdata$r	SEGMENT
??_R17?0A@EA@MaxHeapOperators@@8 DD imagerel ??_R0?AVMaxHeapOperators@@@8 ; MaxHeapOperators::`RTTI Base Class Descriptor at (8,-1,0,64)'
	DD	00H
	DD	08H
	DD	0ffffffffH
	DD	00H
	DD	040H
	DD	imagerel ??_R3MaxHeapOperators@@8
rdata$r	ENDS
;	COMDAT ??_R2Exception@Util@MaxSDK@@8
rdata$r	SEGMENT
??_R2Exception@Util@MaxSDK@@8 DD imagerel ??_R1A@?0A@EA@Exception@Util@MaxSDK@@8 ; MaxSDK::Util::Exception::`RTTI Base Class Array'
	DD	imagerel ??_R17?0A@EA@MaxHeapOperators@@8
	ORG $+3
rdata$r	ENDS
;	COMDAT ??_R3Exception@Util@MaxSDK@@8
rdata$r	SEGMENT
??_R3Exception@Util@MaxSDK@@8 DD 00H			; MaxSDK::Util::Exception::`RTTI Class Hierarchy Descriptor'
	DD	00H
	DD	02H
	DD	imagerel ??_R2Exception@Util@MaxSDK@@8
rdata$r	ENDS
;	COMDAT ??_R1A@?0A@EA@Exception@Util@MaxSDK@@8
rdata$r	SEGMENT
??_R1A@?0A@EA@Exception@Util@MaxSDK@@8 DD imagerel ??_R0?AVException@Util@MaxSDK@@@8 ; MaxSDK::Util::Exception::`RTTI Base Class Descriptor at (0,-1,0,64)'
	DD	01H
	DD	00H
	DD	0ffffffffH
	DD	00H
	DD	040H
	DD	imagerel ??_R3Exception@Util@MaxSDK@@8
rdata$r	ENDS
;	COMDAT ??_R2OutOfRangeException@Util@MaxSDK@@8
rdata$r	SEGMENT
??_R2OutOfRangeException@Util@MaxSDK@@8 DD imagerel ??_R1A@?0A@EA@OutOfRangeException@Util@MaxSDK@@8 ; MaxSDK::Util::OutOfRangeException::`RTTI Base Class Array'
	DD	imagerel ??_R1A@?0A@EA@Exception@Util@MaxSDK@@8
	DD	imagerel ??_R17?0A@EA@MaxHeapOperators@@8
	ORG $+3
rdata$r	ENDS
;	COMDAT ??_R3OutOfRangeException@Util@MaxSDK@@8
rdata$r	SEGMENT
??_R3OutOfRangeException@Util@MaxSDK@@8 DD 00H		; MaxSDK::Util::OutOfRangeException::`RTTI Class Hierarchy Descriptor'
	DD	00H
	DD	03H
	DD	imagerel ??_R2OutOfRangeException@Util@MaxSDK@@8
rdata$r	ENDS
;	COMDAT ??_R1A@?0A@EA@OutOfRangeException@Util@MaxSDK@@8
rdata$r	SEGMENT
??_R1A@?0A@EA@OutOfRangeException@Util@MaxSDK@@8 DD imagerel ??_R0?AVOutOfRangeException@Util@MaxSDK@@@8 ; MaxSDK::Util::OutOfRangeException::`RTTI Base Class Descriptor at (0,-1,0,64)'
	DD	02H
	DD	00H
	DD	0ffffffffH
	DD	00H
	DD	040H
	DD	imagerel ??_R3OutOfRangeException@Util@MaxSDK@@8
rdata$r	ENDS
;	COMDAT ??_R1A@?0A@EA@TabOutOfRangeException@Util@MaxSDK@@8
rdata$r	SEGMENT
??_R1A@?0A@EA@TabOutOfRangeException@Util@MaxSDK@@8 DD imagerel ??_R0?AVTabOutOfRangeException@Util@MaxSDK@@@8 ; MaxSDK::Util::TabOutOfRangeException::`RTTI Base Class Descriptor at (0,-1,0,64)'
	DD	03H
	DD	00H
	DD	0ffffffffH
	DD	00H
	DD	040H
	DD	imagerel ??_R3TabOutOfRangeException@Util@MaxSDK@@8
rdata$r	ENDS
;	COMDAT ??_R2TabOutOfRangeException@Util@MaxSDK@@8
rdata$r	SEGMENT
??_R2TabOutOfRangeException@Util@MaxSDK@@8 DD imagerel ??_R1A@?0A@EA@TabOutOfRangeException@Util@MaxSDK@@8 ; MaxSDK::Util::TabOutOfRangeException::`RTTI Base Class Array'
	DD	imagerel ??_R1A@?0A@EA@OutOfRangeException@Util@MaxSDK@@8
	DD	imagerel ??_R1A@?0A@EA@Exception@Util@MaxSDK@@8
	DD	imagerel ??_R17?0A@EA@MaxHeapOperators@@8
	ORG $+3
rdata$r	ENDS
;	COMDAT ??_R3TabOutOfRangeException@Util@MaxSDK@@8
rdata$r	SEGMENT
??_R3TabOutOfRangeException@Util@MaxSDK@@8 DD 00H	; MaxSDK::Util::TabOutOfRangeException::`RTTI Class Hierarchy Descriptor'
	DD	00H
	DD	04H
	DD	imagerel ??_R2TabOutOfRangeException@Util@MaxSDK@@8
rdata$r	ENDS
;	COMDAT ??_R4TabOutOfRangeException@Util@MaxSDK@@6B@
rdata$r	SEGMENT
??_R4TabOutOfRangeException@Util@MaxSDK@@6B@ DD 01H	; MaxSDK::Util::TabOutOfRangeException::`RTTI Complete Object Locator'
	DD	00H
	DD	00H
	DD	imagerel ??_R0?AVTabOutOfRangeException@Util@MaxSDK@@@8
	DD	imagerel ??_R3TabOutOfRangeException@Util@MaxSDK@@8
	DD	imagerel ??_R4TabOutOfRangeException@Util@MaxSDK@@6B@
rdata$r	ENDS
;	COMDAT ??_C@_1O@ILILCEBJ@?$AAi?$AA?5?$AA?$DO?$AA?$DN?$AA?5?$AA0?$AA?$AA@
CONST	SEGMENT
??_C@_1O@ILILCEBJ@?$AAi?$AA?5?$AA?$DO?$AA?$DN?$AA?5?$AA0?$AA?$AA@ DB 'i', 00H
	DB	' ', 00H, '>', 00H, '=', 00H, ' ', 00H, '0', 00H, 00H, 00H ; `string'
CONST	ENDS
;	COMDAT ??_R2ClassDesc2@@8
rdata$r	SEGMENT
??_R2ClassDesc2@@8 DD imagerel ??_R1A@?0A@EA@ClassDesc2@@8 ; ClassDesc2::`RTTI Base Class Array'
	DD	imagerel ??_R1A@?0A@EA@ClassDesc@@8
	DD	imagerel ??_R17?0A@EA@MaxHeapOperators@@8
	ORG $+3
rdata$r	ENDS
;	COMDAT ??_R3ClassDesc2@@8
rdata$r	SEGMENT
??_R3ClassDesc2@@8 DD 00H				; ClassDesc2::`RTTI Class Hierarchy Descriptor'
	DD	00H
	DD	03H
	DD	imagerel ??_R2ClassDesc2@@8
rdata$r	ENDS
;	COMDAT ??_R0?AVClassDesc2@@@8
data$r	SEGMENT
??_R0?AVClassDesc2@@@8 DQ FLAT:??_7type_info@@6B@	; ClassDesc2 `RTTI Type Descriptor'
	DQ	0000000000000000H
	DB	'.?AVClassDesc2@@', 00H
data$r	ENDS
;	COMDAT ??_R1A@?0A@EA@ClassDesc2@@8
rdata$r	SEGMENT
??_R1A@?0A@EA@ClassDesc2@@8 DD imagerel ??_R0?AVClassDesc2@@@8 ; ClassDesc2::`RTTI Base Class Descriptor at (0,-1,0,64)'
	DD	02H
	DD	00H
	DD	0ffffffffH
	DD	00H
	DD	040H
	DD	imagerel ??_R3ClassDesc2@@8
rdata$r	ENDS
;	COMDAT ??_R1A@?0A@EA@BerconGradientClassDesc@@8
rdata$r	SEGMENT
??_R1A@?0A@EA@BerconGradientClassDesc@@8 DD imagerel ??_R0?AVBerconGradientClassDesc@@@8 ; BerconGradientClassDesc::`RTTI Base Class Descriptor at (0,-1,0,64)'
	DD	03H
	DD	00H
	DD	0ffffffffH
	DD	00H
	DD	040H
	DD	imagerel ??_R3BerconGradientClassDesc@@8
rdata$r	ENDS
;	COMDAT ??_R2BerconGradientClassDesc@@8
rdata$r	SEGMENT
??_R2BerconGradientClassDesc@@8 DD imagerel ??_R1A@?0A@EA@BerconGradientClassDesc@@8 ; BerconGradientClassDesc::`RTTI Base Class Array'
	DD	imagerel ??_R1A@?0A@EA@ClassDesc2@@8
	DD	imagerel ??_R1A@?0A@EA@ClassDesc@@8
	DD	imagerel ??_R17?0A@EA@MaxHeapOperators@@8
	ORG $+3
rdata$r	ENDS
;	COMDAT ??_R3BerconGradientClassDesc@@8
rdata$r	SEGMENT
??_R3BerconGradientClassDesc@@8 DD 00H			; BerconGradientClassDesc::`RTTI Class Hierarchy Descriptor'
	DD	00H
	DD	04H
	DD	imagerel ??_R2BerconGradientClassDesc@@8
rdata$r	ENDS
;	COMDAT ??_R0?AVBerconGradientClassDesc@@@8
data$r	SEGMENT
??_R0?AVBerconGradientClassDesc@@@8 DQ FLAT:??_7type_info@@6B@ ; BerconGradientClassDesc `RTTI Type Descriptor'
	DQ	0000000000000000H
	DB	'.?AVBerconGradientClassDesc@@', 00H
data$r	ENDS
;	COMDAT ??_R4BerconGradientClassDesc@@6B@
rdata$r	SEGMENT
??_R4BerconGradientClassDesc@@6B@ DD 01H		; BerconGradientClassDesc::`RTTI Complete Object Locator'
	DD	00H
	DD	00H
	DD	imagerel ??_R0?AVBerconGradientClassDesc@@@8
	DD	imagerel ??_R3BerconGradientClassDesc@@8
	DD	imagerel ??_R4BerconGradientClassDesc@@6B@
rdata$r	ENDS
;	COMDAT ??_R1BJ@?0A@EC@MaxHeapOperators@@8
rdata$r	SEGMENT
??_R1BJ@?0A@EC@MaxHeapOperators@@8 DD imagerel ??_R0?AVMaxHeapOperators@@@8 ; MaxHeapOperators::`RTTI Base Class Descriptor at (25,-1,0,66)'
	DD	00H
	DD	019H
	DD	0ffffffffH
	DD	00H
	DD	042H
	DD	imagerel ??_R3MaxHeapOperators@@8
rdata$r	ENDS
;	COMDAT ??_R1BJ@?0A@EA@Noncopyable@Util@MaxSDK@@8
rdata$r	SEGMENT
??_R1BJ@?0A@EA@Noncopyable@Util@MaxSDK@@8 DD imagerel ??_R0?AVNoncopyable@Util@MaxSDK@@@8 ; MaxSDK::Util::Noncopyable::`RTTI Base Class Descriptor at (25,-1,0,64)'
	DD	01H
	DD	019H
	DD	0ffffffffH
	DD	00H
	DD	040H
	DD	imagerel ??_R3Noncopyable@Util@MaxSDK@@8
rdata$r	ENDS
;	COMDAT ??_R2ParamBlockDesc2@@8
rdata$r	SEGMENT
??_R2ParamBlockDesc2@@8 DD imagerel ??_R1A@?0A@EA@ParamBlockDesc2@@8 ; ParamBlockDesc2::`RTTI Base Class Array'
	DD	imagerel ??_R1A@?0A@EA@BaseInterfaceServer@@8
	DD	imagerel ??_R1A@?0A@EA@InterfaceServer@@8
	DD	imagerel ??_R17?0A@EC@MaxHeapOperators@@8
	DD	imagerel ??_R1BJ@?0A@EA@Noncopyable@Util@MaxSDK@@8
	DD	imagerel ??_R1BJ@?0A@EC@MaxHeapOperators@@8
	ORG $+3
rdata$r	ENDS
;	COMDAT ??_R3ParamBlockDesc2@@8
rdata$r	SEGMENT
??_R3ParamBlockDesc2@@8 DD 00H				; ParamBlockDesc2::`RTTI Class Hierarchy Descriptor'
	DD	05H
	DD	06H
	DD	imagerel ??_R2ParamBlockDesc2@@8
rdata$r	ENDS
;	COMDAT ??_R0?AVParamBlockDesc2@@@8
data$r	SEGMENT
??_R0?AVParamBlockDesc2@@@8 DQ FLAT:??_7type_info@@6B@	; ParamBlockDesc2 `RTTI Type Descriptor'
	DQ	0000000000000000H
	DB	'.?AVParamBlockDesc2@@', 00H
data$r	ENDS
;	COMDAT ??_R1A@?0A@EA@ParamBlockDesc2@@8
rdata$r	SEGMENT
??_R1A@?0A@EA@ParamBlockDesc2@@8 DD imagerel ??_R0?AVParamBlockDesc2@@@8 ; ParamBlockDesc2::`RTTI Base Class Descriptor at (0,-1,0,64)'
	DD	05H
	DD	00H
	DD	0ffffffffH
	DD	00H
	DD	040H
	DD	imagerel ??_R3ParamBlockDesc2@@8
rdata$r	ENDS
;	COMDAT ??_R1A@?0A@EA@XYZ_Desc@@8
rdata$r	SEGMENT
??_R1A@?0A@EA@XYZ_Desc@@8 DD imagerel ??_R0?AVXYZ_Desc@@@8 ; XYZ_Desc::`RTTI Base Class Descriptor at (0,-1,0,64)'
	DD	06H
	DD	00H
	DD	0ffffffffH
	DD	00H
	DD	040H
	DD	imagerel ??_R3XYZ_Desc@@8
rdata$r	ENDS
;	COMDAT ??_R2XYZ_Desc@@8
rdata$r	SEGMENT
??_R2XYZ_Desc@@8 DD imagerel ??_R1A@?0A@EA@XYZ_Desc@@8	; XYZ_Desc::`RTTI Base Class Array'
	DD	imagerel ??_R1A@?0A@EA@ParamBlockDesc2@@8
	DD	imagerel ??_R1A@?0A@EA@BaseInterfaceServer@@8
	DD	imagerel ??_R1A@?0A@EA@InterfaceServer@@8
	DD	imagerel ??_R17?0A@EC@MaxHeapOperators@@8
	DD	imagerel ??_R1BJ@?0A@EA@Noncopyable@Util@MaxSDK@@8
	DD	imagerel ??_R1BJ@?0A@EC@MaxHeapOperators@@8
	ORG $+3
rdata$r	ENDS
;	COMDAT ??_R3XYZ_Desc@@8
rdata$r	SEGMENT
??_R3XYZ_Desc@@8 DD 00H					; XYZ_Desc::`RTTI Class Hierarchy Descriptor'
	DD	01H
	DD	07H
	DD	imagerel ??_R2XYZ_Desc@@8
rdata$r	ENDS
;	COMDAT ??_R0?AVXYZ_Desc@@@8
data$r	SEGMENT
??_R0?AVXYZ_Desc@@@8 DQ FLAT:??_7type_info@@6B@		; XYZ_Desc `RTTI Type Descriptor'
	DQ	0000000000000000H
	DB	'.?AVXYZ_Desc@@', 00H
data$r	ENDS
;	COMDAT ??_R4XYZ_Desc@@6B@
rdata$r	SEGMENT
??_R4XYZ_Desc@@6B@ DD 01H				; XYZ_Desc::`RTTI Complete Object Locator'
	DD	00H
	DD	00H
	DD	imagerel ??_R0?AVXYZ_Desc@@@8
	DD	imagerel ??_R3XYZ_Desc@@8
	DD	imagerel ??_R4XYZ_Desc@@6B@
rdata$r	ENDS
PUBLIC	??_H@YAXPEAX_K1P6APEAX0@Z@Z			; `vector constructor iterator'
PUBLIC	?__empty_global_delete@@YAXPEAX@Z		; __empty_global_delete
PUBLIC	?__empty_global_delete@@YAXPEAX_K@Z		; __empty_global_delete
PUBLIC	??_GInterfaceServer@@UEAAPEAXI@Z		; InterfaceServer::`scalar deleting destructor'
PUBLIC	?FreeCaches@Animatable@@UEAAXXZ			; Animatable::FreeCaches
PUBLIC	?BeginEditParams@Animatable@@UEAAXPEAVIObjParam@@KPEAV1@@Z ; Animatable::BeginEditParams
PUBLIC	?EndEditParams@Animatable@@UEAAXPEAVIObjParam@@KPEAV1@@Z ; Animatable::EndEditParams
PUBLIC	?BypassTreeView@Animatable@@UEAAHXZ		; Animatable::BypassTreeView
PUBLIC	?BypassTrackBar@Animatable@@UEAAHXZ		; Animatable::BypassTrackBar
PUBLIC	?BypassPropertyLevel@Animatable@@UEAAHXZ	; Animatable::BypassPropertyLevel
PUBLIC	?InvisibleProperty@Animatable@@UEAAHXZ		; Animatable::InvisibleProperty
PUBLIC	?AssignController@Animatable@@UEAAHPEAV1@H@Z	; Animatable::AssignController
PUBLIC	?CanAssignController@Animatable@@UEAAHH@Z	; Animatable::CanAssignController
PUBLIC	?CanDeleteSubAnim@Animatable@@UEAAHH@Z		; Animatable::CanDeleteSubAnim
PUBLIC	?DeleteSubAnim@Animatable@@UEAAXH@Z		; Animatable::DeleteSubAnim
PUBLIC	?GetSubAnimCurveColor@Animatable@@UEAAKH@Z	; Animatable::GetSubAnimCurveColor
PUBLIC	?CanCopyAnim@Animatable@@UEAAHXZ		; Animatable::CanCopyAnim
PUBLIC	?CanMakeUnique@Animatable@@UEAAHXZ		; Animatable::CanMakeUnique
PUBLIC	?NumChildren@Animatable@@UEAAHXZ		; Animatable::NumChildren
PUBLIC	?ChildAnim@Animatable@@UEAAPEAV1@H@Z		; Animatable::ChildAnim
PUBLIC	?EditTrack@Animatable@@UEAAXXZ			; Animatable::EditTrack
PUBLIC	?NumKeys@Animatable@@UEAAHXZ			; Animatable::NumKeys
PUBLIC	?GetKeyTime@Animatable@@UEAAHH@Z		; Animatable::GetKeyTime
PUBLIC	?GetKeyIndex@Animatable@@UEAAHH@Z		; Animatable::GetKeyIndex
PUBLIC	?GetNextKeyTime@Animatable@@UEAAHHKAEAH@Z	; Animatable::GetNextKeyTime
PUBLIC	?CopyKeysFromTime@Animatable@@UEAAXHHK@Z	; Animatable::CopyKeysFromTime
PUBLIC	?DeleteKeyAtTime@Animatable@@UEAAXH@Z		; Animatable::DeleteKeyAtTime
PUBLIC	?IsKeyAtTime@Animatable@@UEAAHHK@Z		; Animatable::IsKeyAtTime
PUBLIC	?GetKeyTimes@Animatable@@UEAAHAEAV?$Tab@H@@VInterval@@K@Z ; Animatable::GetKeyTimes
PUBLIC	?GetKeySelState@Animatable@@UEAAHAEAVBitArray@@VInterval@@K@Z ; Animatable::GetKeySelState
PUBLIC	?EditTimeRange@Animatable@@UEAAXVInterval@@K@Z	; Animatable::EditTimeRange
PUBLIC	?DeleteTime@Animatable@@UEAAXVInterval@@K@Z	; Animatable::DeleteTime
PUBLIC	?ReverseTime@Animatable@@UEAAXVInterval@@K@Z	; Animatable::ReverseTime
PUBLIC	?ScaleTime@Animatable@@UEAAXVInterval@@M@Z	; Animatable::ScaleTime
PUBLIC	?InsertTime@Animatable@@UEAAXHH@Z		; Animatable::InsertTime
PUBLIC	?SupportTimeOperations@Animatable@@UEAAHXZ	; Animatable::SupportTimeOperations
PUBLIC	?DeleteKeys@Animatable@@UEAAXK@Z		; Animatable::DeleteKeys
PUBLIC	?DeleteKeyByIndex@Animatable@@UEAAXH@Z		; Animatable::DeleteKeyByIndex
PUBLIC	?SelectKeys@Animatable@@UEAAXAEAV?$Tab@VTrackHitRecord@@@@K@Z ; Animatable::SelectKeys
PUBLIC	?SelectSubKeys@Animatable@@UEAAXHAEAV?$Tab@VTrackHitRecord@@@@K@Z ; Animatable::SelectSubKeys
PUBLIC	?SelectSubCurve@Animatable@@UEAAXHH@Z		; Animatable::SelectSubCurve
PUBLIC	?SelectKeyByIndex@Animatable@@UEAAXHH@Z		; Animatable::SelectKeyByIndex
PUBLIC	?IsKeySelected@Animatable@@UEAAHH@Z		; Animatable::IsKeySelected
PUBLIC	?FlagKey@Animatable@@UEAAXVTrackHitRecord@@@Z	; Animatable::FlagKey
PUBLIC	?GetFlagKeyIndex@Animatable@@UEAAHXZ		; Animatable::GetFlagKeyIndex
PUBLIC	?NumSelKeys@Animatable@@UEAAHXZ			; Animatable::NumSelKeys
PUBLIC	?CloneSelectedKeys@Animatable@@UEAAXH@Z		; Animatable::CloneSelectedKeys
PUBLIC	?AddNewKey@Animatable@@UEAAXHK@Z		; Animatable::AddNewKey
PUBLIC	?MoveKeys@Animatable@@UEAAXPEAVParamDimensionBase@@MK@Z ; Animatable::MoveKeys
PUBLIC	?ScaleKeyValues@Animatable@@UEAAXPEAVParamDimensionBase@@MMK@Z ; Animatable::ScaleKeyValues
PUBLIC	?SelectCurve@Animatable@@UEAAXH@Z		; Animatable::SelectCurve
PUBLIC	?IsCurveSelected@Animatable@@UEAAHXZ		; Animatable::IsCurveSelected
PUBLIC	?IsSubCurveSelected@Animatable@@UEAAHH@Z	; Animatable::IsSubCurveSelected
PUBLIC	?GetSelKeyCoords@Animatable@@UEAAHAEAHAEAMK@Z	; Animatable::GetSelKeyCoords
PUBLIC	?SetSelKeyCoords@Animatable@@UEAAXHMK@Z		; Animatable::SetSelKeyCoords
PUBLIC	?SetSelKeyCoordsExpr@Animatable@@UEAAHPEAVParamDimension@@PEB_W1K@Z ; Animatable::SetSelKeyCoordsExpr
PUBLIC	?AdjustTangents@Animatable@@UEAAXVTrackHitRecord@@PEAVParamDimensionBase@@AEAVBox2@@MHMHHHK@Z ; Animatable::AdjustTangents
PUBLIC	?AdjustTangents@Animatable@@UEAAXVTrackHitRecord@@PEAVParamDimensionBase@@MMK@Z ; Animatable::AdjustTangents
PUBLIC	?SetKeyBufferPresent@Animatable@@UEAAHXZ	; Animatable::SetKeyBufferPresent
PUBLIC	?CommitSetKeyBuffer@Animatable@@UEAAXH@Z	; Animatable::CommitSetKeyBuffer
PUBLIC	?RevertSetKeyBuffer@Animatable@@UEAAXXZ		; Animatable::RevertSetKeyBuffer
PUBLIC	?CanCopyTrack@Animatable@@UEAAHVInterval@@K@Z	; Animatable::CanCopyTrack
PUBLIC	?CanPasteTrack@Animatable@@UEAAHPEAVTrackClipObject@@VInterval@@K@Z ; Animatable::CanPasteTrack
PUBLIC	?CopyTrack@Animatable@@UEAAPEAVTrackClipObject@@VInterval@@K@Z ; Animatable::CopyTrack
PUBLIC	?PasteTrack@Animatable@@UEAAXPEAVTrackClipObject@@VInterval@@K@Z ; Animatable::PasteTrack
PUBLIC	?CanCopySubTrack@Animatable@@UEAAHHVInterval@@K@Z ; Animatable::CanCopySubTrack
PUBLIC	?CanPasteSubTrack@Animatable@@UEAAHHPEAVTrackClipObject@@VInterval@@K@Z ; Animatable::CanPasteSubTrack
PUBLIC	?CopySubTrack@Animatable@@UEAAPEAVTrackClipObject@@HVInterval@@K@Z ; Animatable::CopySubTrack
PUBLIC	?PasteSubTrack@Animatable@@UEAAXHPEAVTrackClipObject@@VInterval@@K@Z ; Animatable::PasteSubTrack
PUBLIC	?GetTrackVSpace@Animatable@@UEAAHH@Z		; Animatable::GetTrackVSpace
PUBLIC	?HitTestTrack@Animatable@@UEAAHAEAV?$Tab@VTrackHitRecord@@@@AEAVBox2@@1MHK@Z ; Animatable::HitTestTrack
PUBLIC	?PaintTrack@Animatable@@UEAAHPEAVParamDimensionBase@@PEAUHDC__@@AEAVBox2@@2MHK@Z ; Animatable::PaintTrack
PUBLIC	?PaintSubTrack@Animatable@@UEAAHHPEAVParamDimensionBase@@PEAUHDC__@@AEAVBox2@@2MHK@Z ; Animatable::PaintSubTrack
PUBLIC	?PaintFCurves@Animatable@@UEAAHPEAVParamDimensionBase@@PEAUHDC__@@AEAVBox2@@2MHMHK@Z ; Animatable::PaintFCurves
PUBLIC	?HitTestFCurves@Animatable@@UEAAHPEAVParamDimensionBase@@AEAV?$Tab@VTrackHitRecord@@@@AEAVBox2@@2MHMHK@Z ; Animatable::HitTestFCurves
PUBLIC	?PaintSubFCurves@Animatable@@UEAAHHPEAVParamDimensionBase@@PEAUHDC__@@AEAVBox2@@2MHMHK@Z ; Animatable::PaintSubFCurves
PUBLIC	?HitTestSubFCurves@Animatable@@UEAAHHPEAVParamDimensionBase@@AEAV?$Tab@VTrackHitRecord@@@@AEAVBox2@@2MHMHK@Z ; Animatable::HitTestSubFCurves
PUBLIC	?EditTrackParams@Animatable@@UEAAXHPEAVParamDimensionBase@@PEB_WPEAUHWND__@@PEAVIObjParam@@K@Z ; Animatable::EditTrackParams
PUBLIC	?TrackParamsType@Animatable@@UEAAHXZ		; Animatable::TrackParamsType
PUBLIC	?GetFCurveExtents@Animatable@@UEAAHPEAVParamDimensionBase@@AEAM1K@Z ; Animatable::GetFCurveExtents
PUBLIC	?GetSubFCurveExtents@Animatable@@UEAAHHPEAVParamDimensionBase@@AEAM1K@Z ; Animatable::GetSubFCurveExtents
PUBLIC	?GetParamDimension@Animatable@@UEAAPEAVParamDimension@@H@Z ; Animatable::GetParamDimension
PUBLIC	?TrackViewWinProc@Animatable@@UEAA_JPEAUHWND__@@I_K_J@Z ; Animatable::TrackViewWinProc
PUBLIC	?SelectSubAnim@Animatable@@UEAAHH@Z		; Animatable::SelectSubAnim
PUBLIC	?FreeAllBitmaps@Animatable@@UEAAXXZ		; Animatable::FreeAllBitmaps
PUBLIC	?GetSystemNodes@Animatable@@UEAAXAEAVINodeTab@@W4SysNodeContext@@@Z ; Animatable::GetSystemNodes
PUBLIC	?IsSubClassOf@Animatable@@UEAAHVClass_ID@@@Z	; Animatable::IsSubClassOf
PUBLIC	?IsParamBlockDesc2Used@Animatable@@UEAA_NPEAVParamBlockDesc2@@@Z ; Animatable::IsParamBlockDesc2Used
PUBLIC	?GetMacroRecorderName@Animatable@@UEAA_N_NAEAVWStr@@@Z ; Animatable::GetMacroRecorderName
PUBLIC	?CanTransferReference@ReferenceMaker@@UEAAHH@Z	; ReferenceMaker::CanTransferReference
PUBLIC	?RemapRefOnLoad@ReferenceMaker@@UEAAHH@Z	; ReferenceMaker::RemapRefOnLoad
PUBLIC	?NotifyDependents@ReferenceMaker@@EEAA?AW4RefResult@@AEBVInterval@@_KIKHPEAVReferenceTarget@@@Z ; ReferenceMaker::NotifyDependents
PUBLIC	?IsRefMaker@ReferenceMaker@@UEAAHXZ		; ReferenceMaker::IsRefMaker
PUBLIC	?IsRealDependency@ReferenceMaker@@UEAAHPEAVReferenceTarget@@@Z ; ReferenceMaker::IsRealDependency
PUBLIC	?ShouldPersistWeakRef@ReferenceMaker@@UEAAHPEAVReferenceTarget@@@Z ; ReferenceMaker::ShouldPersistWeakRef
PUBLIC	?IsRefTarget@ReferenceTarget@@UEAAHXZ		; ReferenceTarget::IsRefTarget
PUBLIC	?RefAddedUndoRedo@ReferenceTarget@@UEAAXPEAVReferenceMaker@@@Z ; ReferenceTarget::RefAddedUndoRedo
PUBLIC	?RefDeleted@ReferenceTarget@@UEAAXXZ		; ReferenceTarget::RefDeleted
PUBLIC	?RefDeletedUndoRedo@ReferenceTarget@@UEAAXXZ	; ReferenceTarget::RefDeletedUndoRedo
PUBLIC	?NotifyForeground@ReferenceTarget@@UEAAXH@Z	; ReferenceTarget::NotifyForeground
PUBLIC	?NotifyTarget@ReferenceTarget@@UEAAXHPEAVReferenceMaker@@@Z ; ReferenceTarget::NotifyTarget
PUBLIC	??A?$Tab@PEAVFPInterface@@@@QEBAAEAPEAVFPInterface@@_J@Z ; Tab<FPInterface * __ptr64>::operator[]
PUBLIC	?Set@BitArray@@QEAAXH@Z				; BitArray::Set
PUBLIC	??0AColor@@QEAA@XZ				; AColor::AColor
PUBLIC	?SubTexmapOn@ISubMap@@UEAAHH@Z			; ISubMap::SubTexmapOn
PUBLIC	?BuildMaps@MtlBase@@UEAAHHAEAVRenderMapsContext@@@Z ; MtlBase::BuildMaps
PUBLIC	?LocalMappingsRequired@MtlBase@@UEAAXHAEAVBitArray@@0@Z ; MtlBase::LocalMappingsRequired
PUBLIC	?IsMultiMtl@MtlBase@@UEAAHXZ			; MtlBase::IsMultiMtl
PUBLIC	?SupportsMultiMapsInViewport@MtlBase@@UEAAHXZ	; MtlBase::SupportsMultiMapsInViewport
PUBLIC	?SetupGfxMultiMaps@MtlBase@@UEAAXHPEAVMaterial@@AEAVMtlMakerCallback@@@Z ; MtlBase::SetupGfxMultiMaps
PUBLIC	?GetInterface@MtlBase@@UEAAPEAVBaseInterface@@VInterface_ID@@@Z ; MtlBase::GetInterface
PUBLIC	?GetRefTarget@MtlBase@@UEAAPEAVReferenceTarget@@XZ ; MtlBase::GetRefTarget
PUBLIC	?GetTransparencyHint@MtlBase@@UEAAHHAEAVInterval@@@Z ; MtlBase::GetTransparencyHint
PUBLIC	?Execute@ICustomControl@@UEAA_JH_K00@Z		; ICustomControl::Execute
PUBLIC	??1ICustomControl@@UEAA@XZ			; ICustomControl::~ICustomControl
PUBLIC	??_GICustomControl@@UEAAPEAXI@Z			; ICustomControl::`scalar deleting destructor'
PUBLIC	?HandleOwnViewPerturb@Texmap@@UEAAHXZ		; Texmap::HandleOwnViewPerturb
PUBLIC	?GetUVTransform@Texmap@@UEAAXAEAVMatrix3@@@Z	; Texmap::GetUVTransform
PUBLIC	?GetTextureTiling@Texmap@@UEAAHXZ		; Texmap::GetTextureTiling
PUBLIC	?GetUVWSource@Texmap@@UEAAHXZ			; Texmap::GetUVWSource
PUBLIC	?GetMapChannel@Texmap@@UEAAHXZ			; Texmap::GetMapChannel
PUBLIC	?InitSlotType@Texmap@@UEAAXH@Z			; Texmap::InitSlotType
PUBLIC	?MapSlotType@Texmap@@UEAAHH@Z			; Texmap::MapSlotType
PUBLIC	?GetTheUVGen@Texmap@@UEAAPEAVUVGen@@XZ		; Texmap::GetTheUVGen
PUBLIC	?GetTheXYZGen@Texmap@@UEAAPEAVXYZGen@@XZ	; Texmap::GetTheXYZGen
PUBLIC	?SetOutputLevel@Texmap@@UEAAXHM@Z		; Texmap::SetOutputLevel
PUBLIC	?IsLocalOutputMeaningful@Texmap@@UEAA_NAEAVShadeContext@@@Z ; Texmap::IsLocalOutputMeaningful
PUBLIC	?LoadMapFiles@Texmap@@UEAAHH@Z			; Texmap::LoadMapFiles
PUBLIC	?IsHighDynamicRange@Texmap@@UEBAHXZ		; Texmap::IsHighDynamicRange
PUBLIC	??1Texmap@@UEAA@XZ				; Texmap::~Texmap
PUBLIC	??1?$Tab@PEAVVertexNormalsCallback@@@@UEAA@XZ	; Tab<VertexNormalsCallback * __ptr64>::~Tab<VertexNormalsCallback * __ptr64>
PUBLIC	??_G?$Tab@PEAVVertexNormalsCallback@@@@UEAAPEAXI@Z ; Tab<VertexNormalsCallback * __ptr64>::`scalar deleting destructor'
PUBLIC	??0VertexNormalsControl@@QEAA@XZ		; VertexNormalsControl::VertexNormalsControl
PUBLIC	??1ParamMap2UserDlgProc@@UEAA@XZ		; ParamMap2UserDlgProc::~ParamMap2UserDlgProc
PUBLIC	?SetThing@ParamMap2UserDlgProc@@UEAAXPEAVReferenceTarget@@@Z ; ParamMap2UserDlgProc::SetThing
PUBLIC	?Update@ParamMap2UserDlgProc@@UEAAXH@Z		; ParamMap2UserDlgProc::Update
PUBLIC	?SetParamBlock@ParamMap2UserDlgProc@@UEAAXPEAVIParamBlock2@@@Z ; ParamMap2UserDlgProc::SetParamBlock
PUBLIC	?Update@ParamMap2UserDlgProc@@UEAAXHAEAVInterval@@PEAVIParamMap2@@@Z ; ParamMap2UserDlgProc::Update
PUBLIC	??_GParamMap2UserDlgProc@@UEAAPEAXI@Z		; ParamMap2UserDlgProc::`scalar deleting destructor'
PUBLIC	?SetCustomImageList@ResourceMakerCallback@@UEAAHAEAPEAU_IMAGELIST@@PEAVICurveCtl@@@Z ; ResourceMakerCallback::SetCustomImageList
PUBLIC	?GetToolTip@ResourceMakerCallback@@UEAAHHAEAVWStr@@PEAVICurveCtl@@@Z ; ResourceMakerCallback::GetToolTip
PUBLIC	?ResetCallback@ResourceMakerCallback@@UEAAXHPEAVICurveCtl@@@Z ; ResourceMakerCallback::ResetCallback
PUBLIC	?NewCurveCreatedCallback@ResourceMakerCallback@@UEAAXHPEAVICurveCtl@@@Z ; ResourceMakerCallback::NewCurveCreatedCallback
PUBLIC	?GetInterface@ResourceMakerCallback@@UEAAPEAXK@Z ; ResourceMakerCallback::GetInterface
PUBLIC	??0XYZ_Desc@@QEAA@PEAVClassDesc2@@HHHHHHH@Z	; XYZ_Desc::XYZ_Desc
PUBLIC	?DlgProc@BerconXYZDlgProc@@UEAA_JHPEAVIParamMap2@@PEAUHWND__@@I_K_J@Z ; BerconXYZDlgProc::DlgProc
PUBLIC	?DeleteThis@BerconXYZDlgProc@@UEAAXXZ		; BerconXYZDlgProc::DeleteThis
PUBLIC	?SetThing@BerconXYZDlgProc@@UEAAXPEAVReferenceTarget@@@Z ; BerconXYZDlgProc::SetThing
PUBLIC	??_GBerconXYZDlgProc@@UEAAPEAXI@Z		; BerconXYZDlgProc::`scalar deleting destructor'
PUBLIC	??0BerconXYZ@@QEAA@XZ				; BerconXYZ::BerconXYZ
PUBLIC	??0IGradient@@QEAA@PEAUHWND__@@PEAVGradientRamp@@@Z ; IGradient::IGradient
PUBLIC	?Disable@IGradient@@UEAAXXZ			; IGradient::Disable
PUBLIC	?IsEnabled@IGradient@@UEAAHXZ			; IGradient::IsEnabled
PUBLIC	?Enable@IGradient@@UEAAXH@Z			; IGradient::Enable
PUBLIC	?Enable2@IGradient@@UEAAXH@Z			; IGradient::Enable2
PUBLIC	?GetHwnd@IGradient@@UEAAPEAUHWND__@@XZ		; IGradient::GetHwnd
PUBLIC	?SetTooltip@IGradient@@UEAAX_NPEB_W@Z		; IGradient::SetTooltip
PUBLIC	?Execute@IGradient@@UEAA_JH_K00@Z		; IGradient::Execute
PUBLIC	??_GIGradient@@UEAAPEAXI@Z			; IGradient::`scalar deleting destructor'
PUBLIC	?seedRandomGen@BerconGradient@@QEAAXAEAVShadeContext@@@Z ; BerconGradient::seedRandomGen
PUBLIC	?limitRange@BerconGradient@@QEAAHAEAM@Z		; BerconGradient::limitRange
PUBLIC	?EnableStuff@BerconGradient@@QEAAXXZ		; BerconGradient::EnableStuff
PUBLIC	?getGradientValueUVW@BerconGradient@@QEAAMVPoint3@@@Z ; BerconGradient::getGradientValueUVW
PUBLIC	?getGradientValueDist@BerconGradient@@QEAAMAEAVShadeContext@@@Z ; BerconGradient::getGradientValueDist
PUBLIC	?getGradientValueNormal@BerconGradient@@QEAAMAEAVShadeContext@@@Z ; BerconGradient::getGradientValueNormal
PUBLIC	?getGradientValue@BerconGradient@@QEAAMAEAVShadeContext@@@Z ; BerconGradient::getGradientValue
PUBLIC	?setKeyTex@BerconGradient@@QEAAXPEAVTexmap@@@Z	; BerconGradient::setKeyTex
PUBLIC	?getKeyTex@BerconGradient@@QEAAPEAVTexmap@@XZ	; BerconGradient::getKeyTex
PUBLIC	?keyColorChanged@BerconGradient@@QEAAXVAColor@@@Z ; BerconGradient::keyColorChanged
PUBLIC	?keyNumChanged@BerconGradient@@QEAAXH@Z		; BerconGradient::keyNumChanged
PUBLIC	?keyPosChanged@BerconGradient@@QEAAXM@Z		; BerconGradient::keyPosChanged
PUBLIC	?countKeys@BerconGradient@@QEAAHXZ		; BerconGradient::countKeys
PUBLIC	?resetKeys@BerconGradient@@QEAAXXZ		; BerconGradient::resetKeys
PUBLIC	?gradAddKey@BerconGradient@@UEAAXM@Z		; BerconGradient::gradAddKey
PUBLIC	?gradMoveKey@BerconGradient@@UEAAXHM@Z		; BerconGradient::gradMoveKey
PUBLIC	?gradDelKey@BerconGradient@@UEAAXH@Z		; BerconGradient::gradDelKey
PUBLIC	?gradSelKey@BerconGradient@@UEAAXXZ		; BerconGradient::gradSelKey
PUBLIC	?gradReset@BerconGradient@@UEAAXXZ		; BerconGradient::gradReset
PUBLIC	?SetCustomImageList@BerconGradient@@UEAAHAEAPEAU_IMAGELIST@@PEAVICurveCtl@@@Z ; BerconGradient::SetCustomImageList
PUBLIC	?GetToolTip@BerconGradient@@UEAAHHAEAVWStr@@PEAVICurveCtl@@@Z ; BerconGradient::GetToolTip
PUBLIC	?CreateParamDlg@BerconGradient@@UEAAPEAVParamDlg@@PEAUHWND__@@PEAVIMtlParams@@@Z ; BerconGradient::CreateParamDlg
PUBLIC	?SetDlgThing@BerconGradient@@UEAAHPEAVParamDlg@@@Z ; BerconGradient::SetDlgThing
PUBLIC	?Update@BerconGradient@@UEAAXHAEAVInterval@@@Z	; BerconGradient::Update
PUBLIC	?Reset@BerconGradient@@UEAAXXZ			; BerconGradient::Reset
PUBLIC	?Validity@BerconGradient@@UEAA?AVInterval@@H@Z	; BerconGradient::Validity
PUBLIC	?LocalRequirements@BerconGradient@@UEAAKH@Z	; BerconGradient::LocalRequirements
PUBLIC	?MappingsRequired@BerconGradient@@UEAAXHAEAVBitArray@@0@Z ; BerconGradient::MappingsRequired
PUBLIC	?NumSubTexmaps@BerconGradient@@UEAAHXZ		; BerconGradient::NumSubTexmaps
PUBLIC	?GetSubTexmap@BerconGradient@@UEAAPEAVTexmap@@H@Z ; BerconGradient::GetSubTexmap
PUBLIC	?SetSubTexmap@BerconGradient@@UEAAXHPEAVTexmap@@@Z ; BerconGradient::SetSubTexmap
PUBLIC	?GetSubTexmapSlotName@BerconGradient@@UEAA?AVWStr@@H@Z ; BerconGradient::GetSubTexmapSlotName
PUBLIC	?EvalColor@BerconGradient@@UEAA?AVAColor@@AEAVShadeContext@@@Z ; BerconGradient::EvalColor
PUBLIC	?EvalMono@BerconGradient@@UEAAMAEAVShadeContext@@@Z ; BerconGradient::EvalMono
PUBLIC	?EvalNormalPerturb@BerconGradient@@UEAA?AVPoint3@@AEAVShadeContext@@@Z ; BerconGradient::EvalNormalPerturb
PUBLIC	?SubNumToRefNum@BerconGradient@@UEAAHH@Z	; BerconGradient::SubNumToRefNum
PUBLIC	?DiscardTexHandle@BerconGradient@@QEAAXXZ	; BerconGradient::DiscardTexHandle
PUBLIC	?SupportTexDisplay@BerconGradient@@UEAAHXZ	; BerconGradient::SupportTexDisplay
PUBLIC	?ActivateTexDisplay@BerconGradient@@UEAAXH@Z	; BerconGradient::ActivateTexDisplay
PUBLIC	?GetActiveTexHandle@BerconGradient@@UEAA_KHAEAVTexHandleMaker@@@Z ; BerconGradient::GetActiveTexHandle
PUBLIC	?ClassID@BerconGradient@@UEAA?AVClass_ID@@XZ	; BerconGradient::ClassID
PUBLIC	?SuperClassID@BerconGradient@@UEAAKXZ		; BerconGradient::SuperClassID
PUBLIC	?GetClassName@BerconGradient@@UEAAXAEAVWStr@@@Z	; BerconGradient::GetClassName
PUBLIC	?Clone@BerconGradient@@UEAAPEAVReferenceTarget@@AEAVRemapDir@@@Z ; BerconGradient::Clone
PUBLIC	?NotifyRefChanged@BerconGradient@@UEAA?AW4RefResult@@AEBVInterval@@PEAVReferenceTarget@@AEA_KIH@Z ; BerconGradient::NotifyRefChanged
PUBLIC	?NumSubs@BerconGradient@@UEAAHXZ		; BerconGradient::NumSubs
PUBLIC	?SubAnim@BerconGradient@@UEAAPEAVAnimatable@@H@Z ; BerconGradient::SubAnim
PUBLIC	?SubAnimName@BerconGradient@@UEAA?AVWStr@@H@Z	; BerconGradient::SubAnimName
PUBLIC	?NumRefs@BerconGradient@@UEAAHXZ		; BerconGradient::NumRefs
PUBLIC	?GetReference@BerconGradient@@UEAAPEAVReferenceTarget@@H@Z ; BerconGradient::GetReference
PUBLIC	?SetReference@BerconGradient@@UEAAXHPEAVReferenceTarget@@@Z ; BerconGradient::SetReference
PUBLIC	?NumParamBlocks@BerconGradient@@UEAAHXZ		; BerconGradient::NumParamBlocks
PUBLIC	?GetParamBlock@BerconGradient@@UEAAPEAVIParamBlock2@@H@Z ; BerconGradient::GetParamBlock
PUBLIC	?GetParamBlockByID@BerconGradient@@UEAAPEAVIParamBlock2@@F@Z ; BerconGradient::GetParamBlockByID
PUBLIC	?RenderBegin@BerconGradient@@UEAAHHK@Z		; BerconGradient::RenderBegin
PUBLIC	?RenderEnd@BerconGradient@@UEAAHH@Z		; BerconGradient::RenderEnd
PUBLIC	?DeleteThis@BerconGradient@@UEAAXXZ		; BerconGradient::DeleteThis
PUBLIC	??0BerconGradient@@QEAA@XZ			; BerconGradient::BerconGradient
PUBLIC	??1BerconGradient@@UEAA@XZ			; BerconGradient::~BerconGradient
PUBLIC	?GetInterface@BerconGradient@@UEAAPEAXK@Z	; BerconGradient::GetInterface
PUBLIC	??_GBerconGradient@@UEAAPEAXI@Z			; BerconGradient::`scalar deleting destructor'
PUBLIC	?GetBerconGradientDesc@@YAPEAVClassDesc2@@XZ	; GetBerconGradientDesc
PUBLIC	?DlgProc@BerconGradientDlgProc@@UEAA_JHPEAVIParamMap2@@PEAUHWND__@@I_K_J@Z ; BerconGradientDlgProc::DlgProc
PUBLIC	?DeleteThis@BerconGradientDlgProc@@UEAAXXZ	; BerconGradientDlgProc::DeleteThis
PUBLIC	?SetThing@BerconGradientDlgProc@@UEAAXPEAVReferenceTarget@@@Z ; BerconGradientDlgProc::SetThing
PUBLIC	??_GBerconGradientDlgProc@@UEAAPEAXI@Z		; BerconGradientDlgProc::`scalar deleting destructor'
PUBLIC	??_EBerconGradient@@WEI@EAAPEAXI@Z		; [thunk]:BerconGradient::`vector deleting destructor'
PUBLIC	?GetInterface@BerconGradient@@WJI@EAAPEAXK@Z	; [thunk]:BerconGradient::GetInterface`adjustor{152}'
PUBLIC	??_7InterfaceServer@@6B@			; InterfaceServer::`vftable'
PUBLIC	??_C@_13COJANIEC@?$AA0?$AA?$AA@			; `string'
PUBLIC	??_C@_1CM@HBLCKHLG@?$AAA?$AAn?$AAi?$AAm?$AAa?$AAt?$AAa?$AAb?$AAl?$AAe?$AA?3?$AA?3?$AAE?$AAd?$AAi?$AAt?$AAT?$AAr?$AAa?$AAc?$AAk?$AA?$AA@ ; `string'
PUBLIC	??_C@_1IO@OMAAFOOI@?$AAc?$AA?3?$AA?2?$AAp?$AAr?$AAo?$AAg?$AAr?$AAa?$AAm?$AA?5?$AAf?$AAi?$AAl?$AAe?$AAs?$AA?2?$AAa?$AAu?$AAt?$AAo?$AAd?$AAe?$AAs?$AAk?$AA?2?$AA3?$AAd?$AAs?$AA?5?$AAm?$AAa@ ; `string'
PUBLIC	??_C@_1M@HLGKFCJM@?$AAf?$AAa?$AAl?$AAs?$AAe?$AA?$AA@ ; `string'
PUBLIC	??_C@_1EC@POJFJEHG@?$AAR?$AAe?$AAf?$AAe?$AAr?$AAe?$AAn?$AAc?$AAe?$AAM?$AAa?$AAk?$AAe?$AAr?$AA?3?$AA?3?$AAN?$AAo?$AAt?$AAi?$AAf?$AAy?$AAD?$AAe?$AAp?$AAe?$AAn?$AAd?$AAe?$AAn?$AAt?$AAs@ ; `string'
PUBLIC	??_C@_1IA@EDMIGCEG@?$AAc?$AA?3?$AA?2?$AAp?$AAr?$AAo?$AAg?$AAr?$AAa?$AAm?$AA?5?$AAf?$AAi?$AAl?$AAe?$AAs?$AA?2?$AAa?$AAu?$AAt?$AAo?$AAd?$AAe?$AAs?$AAk?$AA?2?$AA3?$AAd?$AAs?$AA?5?$AAm?$AAa@ ; `string'
PUBLIC	??_C@_1IK@POEJJLJB@?$AAc?$AA?3?$AA?2?$AAp?$AAr?$AAo?$AAg?$AAr?$AAa?$AAm?$AA?5?$AAf?$AAi?$AAl?$AAe?$AAs?$AA?2?$AAa?$AAu?$AAt?$AAo?$AAd?$AAe?$AAs?$AAk?$AA?2?$AA3?$AAd?$AAs?$AA?5?$AAm?$AAa@ ; `string'
PUBLIC	??_C@_1CE@GBNPOKPK@?$AAi?$AA?$DO?$AA?9?$AA1?$AA?5?$AA?$CG?$AA?$CG?$AA?5?$AAi?$AA?$DM?$AAn?$AAu?$AAm?$AAB?$AAi?$AAt?$AAs?$AA?$AA@ ; `string'
PUBLIC	??_C@_1BM@HADNIIA@?$AAB?$AAi?$AAt?$AAA?$AAr?$AAr?$AAa?$AAy?$AA?3?$AA?3?$AAS?$AAe?$AAt?$AA?$AA@ ; `string'
PUBLIC	??_7ICustomControl@@6B@				; ICustomControl::`vftable'
PUBLIC	??_7?$Tab@PEAVVertexNormalsCallback@@@@6B@	; Tab<VertexNormalsCallback * __ptr64>::`vftable'
PUBLIC	??_7ParamMap2UserDlgProc@@6B@			; ParamMap2UserDlgProc::`vftable'
PUBLIC	??_7ResourceMakerCallback@@6B@			; ResourceMakerCallback::`vftable'
PUBLIC	??_7BerconXYZDlgProc@@6B@			; BerconXYZDlgProc::`vftable'
PUBLIC	??_C@_13PHJMHGG@?$AAL?$AA?$AA@			; `string'
PUBLIC	??_7GradientMap@@6B@				; GradientMap::`vftable'
PUBLIC	??_7IGradient@@6B@				; IGradient::`vftable'
PUBLIC	??_7BerconGradient@@6BReferenceTarget@@@	; BerconGradient::`vftable'
PUBLIC	??_7BerconGradient@@6BISubMap@@@		; BerconGradient::`vftable'
PUBLIC	??_7BerconGradient@@6BGradientMap@@@		; BerconGradient::`vftable'
PUBLIC	??_7BerconGradient@@6BResourceMakerCallback@@@	; BerconGradient::`vftable'
PUBLIC	??_7BerconGradientDlgProc@@6B@			; BerconGradientDlgProc::`vftable'
PUBLIC	??_R4InterfaceServer@@6B@			; InterfaceServer::`RTTI Complete Object Locator'
PUBLIC	??_R1A@?0A@EA@ReferenceTarget@@8		; ReferenceTarget::`RTTI Base Class Descriptor at (0,-1,0,64)'
PUBLIC	??_R0?AVReferenceTarget@@@8			; ReferenceTarget `RTTI Type Descriptor'
PUBLIC	??_R3ReferenceTarget@@8				; ReferenceTarget::`RTTI Class Hierarchy Descriptor'
PUBLIC	??_R2ReferenceTarget@@8				; ReferenceTarget::`RTTI Base Class Array'
PUBLIC	??_R1A@?0A@EA@ReferenceMaker@@8			; ReferenceMaker::`RTTI Base Class Descriptor at (0,-1,0,64)'
PUBLIC	??_R0?AVReferenceMaker@@@8			; ReferenceMaker `RTTI Type Descriptor'
PUBLIC	??_R3ReferenceMaker@@8				; ReferenceMaker::`RTTI Class Hierarchy Descriptor'
PUBLIC	??_R2ReferenceMaker@@8				; ReferenceMaker::`RTTI Base Class Array'
PUBLIC	??_R1A@?0A@EA@Animatable@@8			; Animatable::`RTTI Base Class Descriptor at (0,-1,0,64)'
PUBLIC	??_R0?AVAnimatable@@@8				; Animatable `RTTI Type Descriptor'
PUBLIC	??_R3Animatable@@8				; Animatable::`RTTI Class Hierarchy Descriptor'
PUBLIC	??_R2Animatable@@8				; Animatable::`RTTI Base Class Array'
PUBLIC	??_R18?0A@EA@Noncopyable@Util@MaxSDK@@8		; MaxSDK::Util::Noncopyable::`RTTI Base Class Descriptor at (9,-1,0,64)'
PUBLIC	??_R18?0A@EC@MaxHeapOperators@@8		; MaxHeapOperators::`RTTI Base Class Descriptor at (9,-1,0,66)'
PUBLIC	??_R1FA@?0A@EC@MaxHeapOperators@@8		; MaxHeapOperators::`RTTI Base Class Descriptor at (80,-1,0,66)'
PUBLIC	??_R4ParamMap2UserDlgProc@@6B@			; ParamMap2UserDlgProc::`RTTI Complete Object Locator'
PUBLIC	??_R0?AVParamMap2UserDlgProc@@@8		; ParamMap2UserDlgProc `RTTI Type Descriptor'
PUBLIC	??_R3ParamMap2UserDlgProc@@8			; ParamMap2UserDlgProc::`RTTI Class Hierarchy Descriptor'
PUBLIC	??_R2ParamMap2UserDlgProc@@8			; ParamMap2UserDlgProc::`RTTI Base Class Array'
PUBLIC	??_R1A@?0A@EA@ParamMap2UserDlgProc@@8		; ParamMap2UserDlgProc::`RTTI Base Class Descriptor at (0,-1,0,64)'
PUBLIC	??_R0?AVISubMap@@@8				; ISubMap `RTTI Type Descriptor'
PUBLIC	??_R3ISubMap@@8					; ISubMap::`RTTI Class Hierarchy Descriptor'
PUBLIC	??_R2ISubMap@@8					; ISubMap::`RTTI Base Class Array'
PUBLIC	??_R1A@?0A@EA@ISubMap@@8			; ISubMap::`RTTI Base Class Descriptor at (0,-1,0,64)'
PUBLIC	??_R4ICustomControl@@6B@			; ICustomControl::`RTTI Complete Object Locator'
PUBLIC	??_R0?AVICustomControl@@@8			; ICustomControl `RTTI Type Descriptor'
PUBLIC	??_R3ICustomControl@@8				; ICustomControl::`RTTI Class Hierarchy Descriptor'
PUBLIC	??_R2ICustomControl@@8				; ICustomControl::`RTTI Base Class Array'
PUBLIC	??_R1A@?0A@EA@ICustomControl@@8			; ICustomControl::`RTTI Base Class Descriptor at (0,-1,0,64)'
PUBLIC	??_R4?$Tab@PEAVVertexNormalsCallback@@@@6B@	; Tab<VertexNormalsCallback * __ptr64>::`RTTI Complete Object Locator'
PUBLIC	??_R0?AV?$Tab@PEAVVertexNormalsCallback@@@@@8	; Tab<VertexNormalsCallback * __ptr64> `RTTI Type Descriptor'
PUBLIC	??_R3?$Tab@PEAVVertexNormalsCallback@@@@8	; Tab<VertexNormalsCallback * __ptr64>::`RTTI Class Hierarchy Descriptor'
PUBLIC	??_R2?$Tab@PEAVVertexNormalsCallback@@@@8	; Tab<VertexNormalsCallback * __ptr64>::`RTTI Base Class Array'
PUBLIC	??_R1A@?0A@EA@?$Tab@PEAVVertexNormalsCallback@@@@8 ; Tab<VertexNormalsCallback * __ptr64>::`RTTI Base Class Descriptor at (0,-1,0,64)'
PUBLIC	??_R4ResourceMakerCallback@@6B@			; ResourceMakerCallback::`RTTI Complete Object Locator'
PUBLIC	??_R0?AVResourceMakerCallback@@@8		; ResourceMakerCallback `RTTI Type Descriptor'
PUBLIC	??_R3ResourceMakerCallback@@8			; ResourceMakerCallback::`RTTI Class Hierarchy Descriptor'
PUBLIC	??_R2ResourceMakerCallback@@8			; ResourceMakerCallback::`RTTI Base Class Array'
PUBLIC	??_R1A@?0A@EA@ResourceMakerCallback@@8		; ResourceMakerCallback::`RTTI Base Class Descriptor at (0,-1,0,64)'
PUBLIC	??_R4BerconXYZDlgProc@@6B@			; BerconXYZDlgProc::`RTTI Complete Object Locator'
PUBLIC	??_R0?AVBerconXYZDlgProc@@@8			; BerconXYZDlgProc `RTTI Type Descriptor'
PUBLIC	??_R3BerconXYZDlgProc@@8			; BerconXYZDlgProc::`RTTI Class Hierarchy Descriptor'
PUBLIC	??_R2BerconXYZDlgProc@@8			; BerconXYZDlgProc::`RTTI Base Class Array'
PUBLIC	??_R1A@?0A@EA@BerconXYZDlgProc@@8		; BerconXYZDlgProc::`RTTI Base Class Descriptor at (0,-1,0,64)'
PUBLIC	??_R4GradientMap@@6B@				; GradientMap::`RTTI Complete Object Locator'
PUBLIC	??_R0?AVGradientMap@@@8				; GradientMap `RTTI Type Descriptor'
PUBLIC	??_R3GradientMap@@8				; GradientMap::`RTTI Class Hierarchy Descriptor'
PUBLIC	??_R2GradientMap@@8				; GradientMap::`RTTI Base Class Array'
PUBLIC	??_R1A@?0A@EA@GradientMap@@8			; GradientMap::`RTTI Base Class Descriptor at (0,-1,0,64)'
PUBLIC	??_R4IGradient@@6B@				; IGradient::`RTTI Complete Object Locator'
PUBLIC	??_R0?AVIGradient@@@8				; IGradient `RTTI Type Descriptor'
PUBLIC	??_R3IGradient@@8				; IGradient::`RTTI Class Hierarchy Descriptor'
PUBLIC	??_R2IGradient@@8				; IGradient::`RTTI Base Class Array'
PUBLIC	??_R1A@?0A@EA@IGradient@@8			; IGradient::`RTTI Base Class Descriptor at (0,-1,0,64)'
PUBLIC	??_R4BerconGradient@@6BReferenceTarget@@@	; BerconGradient::`RTTI Complete Object Locator'
PUBLIC	??_R0?AVBerconGradient@@@8			; BerconGradient `RTTI Type Descriptor'
PUBLIC	??_R3BerconGradient@@8				; BerconGradient::`RTTI Class Hierarchy Descriptor'
PUBLIC	??_R2BerconGradient@@8				; BerconGradient::`RTTI Base Class Array'
PUBLIC	??_R1A@?0A@EA@BerconGradient@@8			; BerconGradient::`RTTI Base Class Descriptor at (0,-1,0,64)'
PUBLIC	??_R1A@?0A@EA@Texmap@@8				; Texmap::`RTTI Base Class Descriptor at (0,-1,0,64)'
PUBLIC	??_R0?AVTexmap@@@8				; Texmap `RTTI Type Descriptor'
PUBLIC	??_R3Texmap@@8					; Texmap::`RTTI Class Hierarchy Descriptor'
PUBLIC	??_R2Texmap@@8					; Texmap::`RTTI Base Class Array'
PUBLIC	??_R1A@?0A@EA@MtlBase@@8			; MtlBase::`RTTI Base Class Descriptor at (0,-1,0,64)'
PUBLIC	??_R0?AVMtlBase@@@8				; MtlBase `RTTI Type Descriptor'
PUBLIC	??_R3MtlBase@@8					; MtlBase::`RTTI Class Hierarchy Descriptor'
PUBLIC	??_R2MtlBase@@8					; MtlBase::`RTTI Base Class Array'
PUBLIC	??_R1EI@?0A@EA@ISubMap@@8			; ISubMap::`RTTI Base Class Descriptor at (72,-1,0,64)'
PUBLIC	??_R1JA@?0A@EA@GradientMap@@8			; GradientMap::`RTTI Base Class Descriptor at (144,-1,0,64)'
PUBLIC	??_R1JI@?0A@EA@ResourceMakerCallback@@8		; ResourceMakerCallback::`RTTI Base Class Descriptor at (152,-1,0,64)'
PUBLIC	??_R1KA@?0A@EC@MaxHeapOperators@@8		; MaxHeapOperators::`RTTI Base Class Descriptor at (160,-1,0,66)'
PUBLIC	??_R4BerconGradient@@6BISubMap@@@		; BerconGradient::`RTTI Complete Object Locator'
PUBLIC	??_R4BerconGradient@@6BGradientMap@@@		; BerconGradient::`RTTI Complete Object Locator'
PUBLIC	??_R4BerconGradient@@6BResourceMakerCallback@@@	; BerconGradient::`RTTI Complete Object Locator'
PUBLIC	??_R4BerconGradientDlgProc@@6B@			; BerconGradientDlgProc::`RTTI Complete Object Locator'
PUBLIC	??_R0?AVBerconGradientDlgProc@@@8		; BerconGradientDlgProc `RTTI Type Descriptor'
PUBLIC	??_R3BerconGradientDlgProc@@8			; BerconGradientDlgProc::`RTTI Class Hierarchy Descriptor'
PUBLIC	??_R2BerconGradientDlgProc@@8			; BerconGradientDlgProc::`RTTI Base Class Array'
PUBLIC	??_R1A@?0A@EA@BerconGradientDlgProc@@8		; BerconGradientDlgProc::`RTTI Base Class Descriptor at (0,-1,0,64)'
PUBLIC	__real@3a83126f
PUBLIC	__real@3d4ccccd
PUBLIC	__real@3f000000
PUBLIC	__real@3f1a36e2e0000000
PUBLIC	__real@3f800000
PUBLIC	__real@3fc90fdb
PUBLIC	__real@3fcccccd
PUBLIC	__real@3fe921fb54442d18
PUBLIC	__real@3ff0000000000000
PUBLIC	__real@3ff99999a0000000
PUBLIC	__real@40000000
PUBLIC	__real@40400000
PUBLIC	__real@40490fdb
PUBLIC	__real@40800000
PUBLIC	__real@40dfffc000000000
PUBLIC	__real@412e848000000000
PUBLIC	__real@bff0000000000000
PUBLIC	__real@c12e848000000000
PUBLIC	__xmm@3f800000000000000000000000000000
PUBLIC	__xmm@3f8000003f8000003f8000003f800000
PUBLIC	__xmm@7fffffffffffffff7fffffffffffffff
PUBLIC	__xmm@80000000800000008000000080000000
EXTRN	_purecall:PROC
EXTRN	??2@YAPEAX_K@Z:PROC				; operator new
EXTRN	??3@YAXPEAX_K@Z:PROC				; operator delete
EXTRN	?__global_delete@@YAXPEAX_K@Z:PROC		; __global_delete
EXTRN	??_V@YAXPEAX@Z:PROC				; operator delete[]
EXTRN	atexit:PROC
EXTRN	__imp_SendMessageW:PROC
EXTRN	__imp_DestroyWindow:PROC
EXTRN	__imp_GetDlgItem:PROC
EXTRN	__imp_SetWindowLongPtrW:PROC
EXTRN	__imp_srand:PROC
EXTRN	__imp_rand:PROC
EXTRN	__imp_??2MaxHeapOperators@@SAPEAX_K@Z:PROC
EXTRN	__imp_??3MaxHeapOperators@@SAXPEAX@Z:PROC
EXTRN	__imp_??_VMaxHeapOperators@@SAXPEAX@Z:PROC
EXTRN	__imp_??0Exception@Util@MaxSDK@@QEAA@AEBV012@@Z:PROC
EXTRN	__imp_??1Exception@Util@MaxSDK@@UEAA@XZ:PROC
EXTRN	__imp_??0OutOfRangeException@Util@MaxSDK@@QEAA@PEB_W@Z:PROC
EXTRN	__imp_??1OutOfRangeException@Util@MaxSDK@@UEAA@XZ:PROC
EXTRN	__imp_?assert1@@YAHHPEB_W00@Z:PROC
EXTRN	__imp_?zfree@@YAXPEAPEAX@Z:PROC
EXTRN	__imp_??1InterfaceServer@@UEAA@XZ:PROC
EXTRN	??_EInterfaceServer@@UEAAPEAXI@Z:PROC		; InterfaceServer::`vector deleting destructor'
EXTRN	__imp_??0WStr@@QEAA@XZ:PROC
EXTRN	__imp_??0WStr@@QEAA@PEB_W@Z:PROC
EXTRN	__imp_??0WStr@@QEAA@AEBV0@@Z:PROC
EXTRN	__imp_??1WStr@@QEAA@XZ:PROC
EXTRN	__imp_??4WStr@@QEAAAEAV0@PEB_W@Z:PROC
EXTRN	__imp_??0Interval@@QEAA@HH@Z:PROC
EXTRN	__imp_?InInterval@Interval@@QEBAHH@Z:PROC
EXTRN	__imp_??IInterval@@QEBA?AV0@V0@@Z:PROC
EXTRN	__imp_?ReplaceReference@ReferenceMaker@@QEAA?AW4RefResult@@HPEAVReferenceTarget@@H@Z:PROC
EXTRN	__imp_?GetInterface@ReferenceTarget@@UEAAPEAVBaseInterface@@VInterface_ID@@@Z:PROC
EXTRN	__imp_?GetCOREInterface@@YAPEAVInterface@@XZ:PROC
EXTRN	__imp_??0Point3@@QEAA@XZ:PROC
EXTRN	__imp_??APoint3@@QEAAAEAMH@Z:PROC
EXTRN	__imp_??GPoint3@@QEBA?AV0@XZ:PROC
EXTRN	__imp_?Length@@YAMAEBVPoint3@@@Z:PROC
EXTRN	__imp_?Normalize@@YA?AVPoint3@@AEBV1@@Z:PROC
EXTRN	__imp_?FNormalize@@YA?AVPoint3@@AEBV1@@Z:PROC
EXTRN	__imp_?IdentityMatrix@Matrix3@@QEAAXXZ:PROC
EXTRN	__imp_?GetSubTexmapTVName@ISubMap@@QEAA?AVWStr@@H@Z:PROC
EXTRN	__imp_??1MtlBase@@UEAA@XZ:PROC
EXTRN	__imp_??4MtlBase@@QEAAAEAV0@AEBV0@@Z:PROC
EXTRN	__imp_?GetInterface@MtlBase@@UEAAPEAXK@Z:PROC
EXTRN	??_EICustomControl@@UEAAPEAXI@Z:PROC		; ICustomControl::`vector deleting destructor'
EXTRN	__imp_?GetICustEdit@@YAPEAVICustEdit@@PEAUHWND__@@@Z:PROC
EXTRN	__imp_?ReleaseICustEdit@@YAXPEAVICustEdit@@@Z:PROC
EXTRN	__imp_?GetICustButton@@YAPEAVICustButton@@PEAUHWND__@@@Z:PROC
EXTRN	__imp_?ReleaseICustButton@@YAXPEAVICustButton@@@Z:PROC
EXTRN	__imp_??0Texmap@@QEAA@XZ:PROC
EXTRN	__imp_?GetNewDefaultTextureOutput@@YAPEAVTextureOutput@@XZ:PROC
EXTRN	??_E?$Tab@PEAVVertexNormalsCallback@@@@UEAAPEAXI@Z:PROC ; Tab<VertexNormalsCallback * __ptr64>::`vector deleting destructor'
EXTRN	__imp_??0ClassDesc2@@QEAA@XZ:PROC
EXTRN	__imp_??1ClassDesc2@@UEAA@XZ:PROC
EXTRN	__imp_?InvalidateUI@ClassDesc2@@QEAAXPEAVParamBlockDesc2@@FH@Z:PROC
EXTRN	__imp_?MakeAutoParamBlocks@ClassDesc2@@UEAAXPEAVReferenceMaker@@@Z:PROC
EXTRN	__imp_?SetUserDlgProc@ClassDesc2@@QEAA_NPEAVParamBlockDesc2@@FPEAVParamMap2UserDlgProc@@@Z:PROC
EXTRN	__imp_?CreateParamDlgs@ClassDesc2@@QEAAPEAVIAutoMParamDlg@@PEAUHWND__@@PEAVIMtlParams@@PEAVReferenceTarget@@@Z:PROC
EXTRN	__imp_??0ParamBlockDesc2@@QEAA@FPEB_W_JPEAVClassDesc2@@GZZ:PROC
EXTRN	__imp_??1ParamBlockDesc2@@UEAA@XZ:PROC
EXTRN	__imp_?SetUserDlgProc@ParamBlockDesc2@@QEAAXFPEAVParamMap2UserDlgProc@@@Z:PROC
EXTRN	??_EParamMap2UserDlgProc@@UEAAPEAXI@Z:PROC	; ParamMap2UserDlgProc::`vector deleting destructor'
EXTRN	?GetString@@YAPEA_WH@Z:PROC			; GetString
EXTRN	??_EBerconXYZDlgProc@@UEAAPEAXI@Z:PROC		; BerconXYZDlgProc::`vector deleting destructor'
EXTRN	?update@BerconXYZ@@QEAAXPEAVIParamBlock2@@HAEAVInterval@@@Z:PROC ; BerconXYZ::update
EXTRN	?update@BerconXYZ@@QEAAXXZ:PROC			; BerconXYZ::update
EXTRN	?reset@BerconXYZ@@QEAAXPEAVIParamBlock2@@AEAVInterval@@HHHH@Z:PROC ; BerconXYZ::reset
EXTRN	?get@BerconXYZ@@QEAAHAEAVShadeContext@@AEAVPoint3@@@Z:PROC ; BerconXYZ::get
EXTRN	?get@BerconXYZ@@QEAAHAEAVShadeContext@@AEAVPoint3@@PEAV3@@Z:PROC ; BerconXYZ::get
EXTRN	?setHWND@GradientRamp@@QEAAXPEAUHWND__@@@Z:PROC	; GradientRamp::setHWND
EXTRN	?invalidate@GradientRamp@@QEAAXXZ:PROC		; GradientRamp::invalidate
EXTRN	?addKey@GradientRamp@@QEAAXHMVAColor@@PEAVTexmap@@@Z:PROC ; GradientRamp::addKey
EXTRN	?reset@GradientRamp@@QEAAXXZ:PROC		; GradientRamp::reset
EXTRN	?sort@GradientRamp@@QEAAXXZ:PROC		; GradientRamp::sort
EXTRN	?getSubtex@GradientRamp@@QEAAPEAVTexmap@@H@Z:PROC ; GradientRamp::getSubtex
EXTRN	?setSubtex@GradientRamp@@QEAAXHPEAVTexmap@@@Z:PROC ; GradientRamp::setSubtex
EXTRN	?setSubtex@GradientRamp@@QEAAXPEAVTexmap@@@Z:PROC ; GradientRamp::setSubtex
EXTRN	?getColor@GradientRamp@@QEAA?AVAColor@@M@Z:PROC	; GradientRamp::getColor
EXTRN	?getColor@GradientRamp@@QEAA?AVAColor@@MAEAVShadeContext@@@Z:PROC ; GradientRamp::getColor
EXTRN	?getBump@GradientRamp@@QEAA?AVPoint3@@MV2@AEAVShadeContext@@@Z:PROC ; GradientRamp::getBump
EXTRN	??_EIGradient@@UEAAPEAXI@Z:PROC			; IGradient::`vector deleting destructor'
EXTRN	??_EBerconGradient@@UEAAPEAXI@Z:PROC		; BerconGradient::`vector deleting destructor'
EXTRN	??_EBerconGradientDlgProc@@UEAAPEAXI@Z:PROC	; BerconGradientDlgProc::`vector deleting destructor'
EXTRN	?AutoDelete@ReferenceTarget@@UEAA?AW4RefResult@@XZ:PROC ; ReferenceTarget::AutoDelete
EXTRN	?BaseClone@MtlBase@@UEAAXPEAVReferenceTarget@@0AEAVRemapDir@@@Z:PROC ; MtlBase::BaseClone
EXTRN	?CreatePStamp@MtlBase@@UEAAPEAVPStamp@@HH@Z:PROC ; MtlBase::CreatePStamp
EXTRN	?DeleteAllRefsToMe@ReferenceTarget@@UEAA?AW4RefResult@@XZ:PROC ; ReferenceTarget::DeleteAllRefsToMe
EXTRN	?DiscardPStamp@MtlBase@@UEAAXH@Z:PROC		; MtlBase::DiscardPStamp
EXTRN	?DoEnumDependentsImpl@ReferenceTarget@@MEAAHPEAVDependentEnumProc@@@Z:PROC ; ReferenceTarget::DoEnumDependentsImpl
EXTRN	?EnumAuxFiles@MtlBase@@UEAAXAEAVAssetEnumCallback@@K@Z:PROC ; MtlBase::EnumAuxFiles
EXTRN	?GetFullName@MtlBase@@UEAA?AVWStr@@XZ:PROC	; MtlBase::GetFullName
EXTRN	?GetInterface@InterfaceServer@@UEAAPEAVBaseInterface@@VInterface_ID@@@Z:PROC ; InterfaceServer::GetInterface
EXTRN	?GetPStamp@MtlBase@@UEAAPEAVPStamp@@H@Z:PROC	; MtlBase::GetPStamp
EXTRN	?GetProperty@MtlBase@@UEAAPEAXK@Z:PROC		; MtlBase::GetProperty
EXTRN	?GetTimeRange@Animatable@@UEAA?AVInterval@@K@Z:PROC ; Animatable::GetTimeRange
EXTRN	?GetVPDisplayDIB@Texmap@@UEAAPEAUtagBITMAPINFO@@HAEAVTexHandleMaker@@AEAVInterval@@HHH@Z:PROC ; Texmap::GetVPDisplayDIB
EXTRN	?IsAnimated@Animatable@@UEAAHXZ:PROC		; Animatable::IsAnimated
EXTRN	?IsOutputMeaningful@Texmap@@UEAA_NAEAVShadeContext@@@Z:PROC ; Texmap::IsOutputMeaningful
EXTRN	?Load@MtlBase@@UEAA?AW4IOResult@@PEAVILoad@@@Z:PROC ; MtlBase::Load
EXTRN	?MapKeys@Animatable@@UEAAXPEAVTimeMap@@K@Z:PROC	; Animatable::MapKeys
EXTRN	?MouseCycleCompleted@Animatable@@UEAAXH@Z:PROC	; Animatable::MouseCycleCompleted
EXTRN	?MouseCycleStarted@Animatable@@UEAAXH@Z:PROC	; Animatable::MouseCycleStarted
EXTRN	?NodeName@Animatable@@UEAA?AVWStr@@XZ:PROC	; Animatable::NodeName
EXTRN	?NotifyDependents@ReferenceTarget@@UEAA?AW4RefResult@@AEBVInterval@@_KIKHPEAV1@W4NotifyDependentsOption@@@Z:PROC ; ReferenceTarget::NotifyDependents
EXTRN	?RefAdded@Texmap@@UEAAXPEAVReferenceMaker@@@Z:PROC ; Texmap::RefAdded
EXTRN	?ReleaseInterface@Animatable@@UEAAXKPEAX@Z:PROC	; Animatable::ReleaseInterface
EXTRN	?RenderBitmap@Texmap@@UEAAXHPEAVBitmap@@MH@Z:PROC ; Texmap::RenderBitmap
EXTRN	?Requirements@MtlBase@@UEAAKH@Z:PROC		; MtlBase::Requirements
EXTRN	?RescaleWorldUnits@ReferenceMaker@@UEAAXM@Z:PROC ; ReferenceMaker::RescaleWorldUnits
EXTRN	?Save@MtlBase@@UEAA?AW4IOResult@@PEAVISave@@@Z:PROC ; MtlBase::Save
EXTRN	?SaveEnum@ReferenceMaker@@UEAAXAEAVSaveEnumProc@@H@Z:PROC ; ReferenceMaker::SaveEnum
EXTRN	?SetProperty@MtlBase@@UEAAHKPEAX@Z:PROC		; MtlBase::SetProperty
EXTRN	?SpecifySaveReferences@ReferenceMaker@@UEAA_NAEAVReferenceSaveManager@@@Z:PROC ; ReferenceMaker::SpecifySaveReferences
EXTRN	?SubAnimCommitSetKeyBuffer@Animatable@@UEAAXHH@Z:PROC ; Animatable::SubAnimCommitSetKeyBuffer
EXTRN	?SubAnimRevertSetKeyBuffer@Animatable@@UEAAXH@Z:PROC ; Animatable::SubAnimRevertSetKeyBuffer
EXTRN	?SubAnimSetKeyBufferPresent@Animatable@@UEAAHH@Z:PROC ; Animatable::SubAnimSetKeyBufferPresent
EXTRN	?SvCanConcludeLink@Animatable@@UEAA_NPEAVIGraphObjectManager@@PEAVIGraphNode@@1@Z:PROC ; Animatable::SvCanConcludeLink
EXTRN	?SvCanDetach@Animatable@@UEAA_NPEAVIGraphObjectManager@@PEAVIGraphNode@@@Z:PROC ; Animatable::SvCanDetach
EXTRN	?SvCanDetachRel@Animatable@@UEAA_NPEAVIGraphObjectManager@@PEAVIGraphNode@@H1@Z:PROC ; Animatable::SvCanDetachRel
EXTRN	?SvCanInitiateLink@Animatable@@UEAA_NPEAVIGraphObjectManager@@PEAVIGraphNode@@@Z:PROC ; Animatable::SvCanInitiateLink
EXTRN	?SvCanRemoveThis@Animatable@@UEAA_NPEAVIGraphObjectManager@@PEAVIGraphNode@@@Z:PROC ; Animatable::SvCanRemoveThis
EXTRN	?SvCanSelect@MtlBase@@UEAA_NPEAVIGraphObjectManager@@PEAVIGraphNode@@@Z:PROC ; MtlBase::SvCanSelect
EXTRN	?SvCanSetName@MtlBase@@UEAA_NPEAVIGraphObjectManager@@PEAVIGraphNode@@@Z:PROC ; MtlBase::SvCanSetName
EXTRN	?SvDetach@Animatable@@UEAA_NPEAVIGraphObjectManager@@PEAVIGraphNode@@@Z:PROC ; Animatable::SvDetach
EXTRN	?SvDetachRel@Animatable@@UEAA_NPEAVIGraphObjectManager@@PEAVIGraphNode@@H1@Z:PROC ; Animatable::SvDetachRel
EXTRN	?SvEditProperties@Animatable@@UEAA_NPEAVIGraphObjectManager@@PEAVIGraphNode@@@Z:PROC ; Animatable::SvEditProperties
EXTRN	?SvGetMultiSelectCallback@MtlBase@@UEAAPEAVMultiSelectCallback@@PEAVIGraphObjectManager@@PEAVIGraphNode@@@Z:PROC ; MtlBase::SvGetMultiSelectCallback
EXTRN	?SvGetName@MtlBase@@UEAA?AVWStr@@PEAVIGraphObjectManager@@PEAVIGraphNode@@_N@Z:PROC ; MtlBase::SvGetName
EXTRN	?SvGetRefTip@Animatable@@UEAA?AVWStr@@PEAVIGraphObjectManager@@PEAVIGraphNode@@1@Z:PROC ; Animatable::SvGetRefTip
EXTRN	?SvGetRelTip@Animatable@@UEAA?AVWStr@@PEAVIGraphObjectManager@@PEAVIGraphNode@@H1@Z:PROC ; Animatable::SvGetRelTip
EXTRN	?SvGetSwatchColor@Animatable@@UEAAKPEAVIGraphObjectManager@@PEAVIGraphNode@@@Z:PROC ; Animatable::SvGetSwatchColor
EXTRN	?SvGetTip@Animatable@@UEAA?AVWStr@@PEAVIGraphObjectManager@@PEAVIGraphNode@@@Z:PROC ; Animatable::SvGetTip
EXTRN	?SvHandleDoubleClick@MtlBase@@UEAA_NPEAVIGraphObjectManager@@PEAVIGraphNode@@@Z:PROC ; MtlBase::SvHandleDoubleClick
EXTRN	?SvHandleRelDoubleClick@Animatable@@UEAA_NPEAVIGraphObjectManager@@PEAVIGraphNode@@H1@Z:PROC ; Animatable::SvHandleRelDoubleClick
EXTRN	?SvHighlightColor@MtlBase@@UEAAKPEAVIGraphObjectManager@@PEAVIGraphNode@@@Z:PROC ; MtlBase::SvHighlightColor
EXTRN	?SvIsHighlighted@Animatable@@UEAA_NPEAVIGraphObjectManager@@PEAVIGraphNode@@@Z:PROC ; Animatable::SvIsHighlighted
EXTRN	?SvIsInactive@Animatable@@UEAA_NPEAVIGraphObjectManager@@PEAVIGraphNode@@@Z:PROC ; Animatable::SvIsInactive
EXTRN	?SvIsSelected@MtlBase@@UEAA_NPEAVIGraphObjectManager@@PEAVIGraphNode@@@Z:PROC ; MtlBase::SvIsSelected
EXTRN	?SvLinkChild@Animatable@@UEAA_NPEAVIGraphObjectManager@@PEAVIGraphNode@@1@Z:PROC ; Animatable::SvLinkChild
EXTRN	?SvRemoveThis@Animatable@@UEAA_NPEAVIGraphObjectManager@@PEAVIGraphNode@@@Z:PROC ; Animatable::SvRemoveThis
EXTRN	?SvSetName@MtlBase@@UEAA_NPEAVIGraphObjectManager@@PEAVIGraphNode@@AEBVWStr@@@Z:PROC ; MtlBase::SvSetName
EXTRN	?SvTraverseAnimGraph@Texmap@@UEAA?AVSvGraphNodeReference@@PEAVIGraphObjectManager@@PEAVAnimatable@@HK@Z:PROC ; Texmap::SvTraverseAnimGraph
EXTRN	_CxxThrowException:PROC
EXTRN	__CxxFrameHandler3:PROC
EXTRN	acosf:PROC
EXTRN	sqrtf:PROC
EXTRN	__imp_??_7OutOfRangeException@Util@MaxSDK@@6B@:BYTE
EXTRN	__imp_?defaultDim@@3PEAVParamDimension@@EA:QWORD
EXTRN	__ImageBase:BYTE
EXTRN	_fltused:DWORD
_BSS	SEGMENT
?kInvalidId@AssetManagement@MaxSDK@@3UAssetId@12@A DB 010H DUP (?) ; MaxSDK::AssetManagement::kInvalidId
?BerconGradientDesc@@3VBerconGradientClassDesc@@A DB 050H DUP (?) ; BerconGradientDesc
?xyz_blk@@3VXYZ_Desc@@A DB 0a0H DUP (?)			; xyz_blk
?gradientmap_param_blk@@3VParamBlockDesc2@@A DB 0a0H DUP (?) ; gradientmap_param_blk
_BSS	ENDS
;	COMDAT pdata
pdata	SEGMENT
$pdata$??_H@YAXPEAX_K1P6APEAX0@Z@Z DD imagerel $LN12
	DD	imagerel $LN12+72
	DD	imagerel $unwind$??_H@YAXPEAX_K1P6APEAX0@Z@Z
pdata	ENDS
;	COMDAT pdata
pdata	SEGMENT
$pdata$?acos@@YAMM@Z DD imagerel $LN4
	DD	imagerel $LN4+14
	DD	imagerel $unwind$?acos@@YAMM@Z
pdata	ENDS
;	COMDAT pdata
pdata	SEGMENT
$pdata$?sqrt@@YAMM@Z DD imagerel $LN4
	DD	imagerel $LN4+14
	DD	imagerel $unwind$?sqrt@@YAMM@Z
pdata	ENDS
;	COMDAT pdata
pdata	SEGMENT
$pdata$??0TabOutOfRangeException@Util@MaxSDK@@QEAA@PEB_W@Z DD imagerel $LN4
	DD	imagerel $LN4+48
	DD	imagerel $unwind$??0TabOutOfRangeException@Util@MaxSDK@@QEAA@PEB_W@Z
pdata	ENDS
;	COMDAT pdata
pdata	SEGMENT
$pdata$??1TabOutOfRangeException@Util@MaxSDK@@UEAA@XZ DD imagerel $LN7
	DD	imagerel $LN7+29
	DD	imagerel $unwind$??1TabOutOfRangeException@Util@MaxSDK@@UEAA@XZ
pdata	ENDS
;	COMDAT pdata
pdata	SEGMENT
$pdata$??0TabOutOfRangeException@Util@MaxSDK@@QEAA@AEBV012@@Z DD imagerel $LN7
	DD	imagerel $LN7+58
	DD	imagerel $unwind$??0TabOutOfRangeException@Util@MaxSDK@@QEAA@AEBV012@@Z
pdata	ENDS
;	COMDAT pdata
pdata	SEGMENT
$pdata$??_GTabOutOfRangeException@Util@MaxSDK@@UEAAPEAXI@Z DD imagerel $LN14
	DD	imagerel $LN14+85
	DD	imagerel $unwind$??_GTabOutOfRangeException@Util@MaxSDK@@UEAAPEAXI@Z
pdata	ENDS
;	COMDAT pdata
pdata	SEGMENT
$pdata$??_GInterfaceServer@@UEAAPEAXI@Z DD imagerel $LN9
	DD	imagerel $LN9+80
	DD	imagerel $unwind$??_GInterfaceServer@@UEAAPEAXI@Z
pdata	ENDS
;	COMDAT pdata
pdata	SEGMENT
$pdata$??_4Interval@@QEAAAEAV0@V0@@Z DD imagerel $LN4
	DD	imagerel $LN4+38
	DD	imagerel $unwind$??_4Interval@@QEAAAEAV0@V0@@Z
pdata	ENDS
;	COMDAT pdata
pdata	SEGMENT
$pdata$?IsSubClassOf@Animatable@@UEAAHVClass_ID@@@Z DD imagerel $LN8
	DD	imagerel $LN8+56
	DD	imagerel $unwind$?IsSubClassOf@Animatable@@UEAAHVClass_ID@@@Z
pdata	ENDS
;	COMDAT pdata
pdata	SEGMENT
$pdata$?NotifyDependents@ReferenceMaker@@EEAA?AW4RefResult@@AEBVInterval@@_KIKHPEAVReferenceTarget@@@Z DD imagerel $LN5
	DD	imagerel $LN5+43
	DD	imagerel $unwind$?NotifyDependents@ReferenceMaker@@EEAA?AW4RefResult@@AEBVInterval@@_KIKHPEAVReferenceTarget@@@Z
pdata	ENDS
;	COMDAT pdata
pdata	SEGMENT
$pdata$?NotifyForeground@ReferenceTarget@@UEAAXH@Z DD imagerel $LN4
	DD	imagerel $LN4+88
	DD	imagerel $unwind$?NotifyForeground@ReferenceTarget@@UEAAXH@Z
pdata	ENDS
;	COMDAT pdata
pdata	SEGMENT
$pdata$??A?$Tab@PEAVFPInterface@@@@QEBAAEAPEAVFPInterface@@_J@Z DD imagerel $LN13
	DD	imagerel $LN13+243
	DD	imagerel $unwind$??A?$Tab@PEAVFPInterface@@@@QEBAAEAPEAVFPInterface@@_J@Z
pdata	ENDS
;	COMDAT pdata
pdata	SEGMENT
$pdata$?GetInterfaceAt@ClassDesc@@UEAAPEAVFPInterface@@H@Z DD imagerel $LN4
	DD	imagerel $LN4+24
	DD	imagerel $unwind$?GetInterfaceAt@ClassDesc@@UEAAPEAVFPInterface@@H@Z
pdata	ENDS
;	COMDAT pdata
pdata	SEGMENT
$pdata$?Set@BitArray@@QEAAXH@Z DD imagerel $LN19
	DD	imagerel $LN19+162
	DD	imagerel $unwind$?Set@BitArray@@QEAAXH@Z
pdata	ENDS
;	COMDAT pdata
pdata	SEGMENT
$pdata$?GetInterface@MtlBase@@UEAAPEAVBaseInterface@@VInterface_ID@@@Z DD imagerel $LN6
	DD	imagerel $LN6+33
	DD	imagerel $unwind$?GetInterface@MtlBase@@UEAAPEAVBaseInterface@@VInterface_ID@@@Z
pdata	ENDS
;	COMDAT pdata
pdata	SEGMENT
$pdata$??0ICustomControl@@QEAA@XZ DD imagerel $LN6
	DD	imagerel $LN6+45
	DD	imagerel $unwind$??0ICustomControl@@QEAA@XZ
pdata	ENDS
;	COMDAT pdata
pdata	SEGMENT
$pdata$??1ICustomControl@@UEAA@XZ DD imagerel $LN4
	DD	imagerel $LN4+29
	DD	imagerel $unwind$??1ICustomControl@@UEAA@XZ
pdata	ENDS
;	COMDAT pdata
pdata	SEGMENT
$pdata$??_GICustomControl@@UEAAPEAXI@Z DD imagerel $LN11
	DD	imagerel $LN11+85
	DD	imagerel $unwind$??_GICustomControl@@UEAAPEAXI@Z
pdata	ENDS
;	COMDAT pdata
pdata	SEGMENT
$pdata$??1Texmap@@UEAA@XZ DD imagerel $LN4
	DD	imagerel $LN4+29
	DD	imagerel $unwind$??1Texmap@@UEAA@XZ
pdata	ENDS
;	COMDAT pdata
pdata	SEGMENT
$pdata$??1?$Tab@PEAVVertexNormalsCallback@@@@UEAA@XZ DD imagerel $LN3
	DD	imagerel $LN3+39
	DD	imagerel $unwind$??1?$Tab@PEAVVertexNormalsCallback@@@@UEAA@XZ
pdata	ENDS
;	COMDAT pdata
pdata	SEGMENT
$pdata$??_G?$Tab@PEAVVertexNormalsCallback@@@@UEAAPEAXI@Z DD imagerel $LN10
	DD	imagerel $LN10+95
	DD	imagerel $unwind$??_G?$Tab@PEAVVertexNormalsCallback@@@@UEAAPEAXI@Z
pdata	ENDS
;	COMDAT pdata
pdata	SEGMENT
$pdata$??0VertexNormalsControl@@QEAA@XZ DD imagerel $LN6
	DD	imagerel $LN6+47
	DD	imagerel $unwind$??0VertexNormalsControl@@QEAA@XZ
pdata	ENDS
;	COMDAT pdata
pdata	SEGMENT
$pdata$??_GParamMap2UserDlgProc@@UEAAPEAXI@Z DD imagerel $LN11
	DD	imagerel $LN11+63
	DD	imagerel $unwind$??_GParamMap2UserDlgProc@@UEAAPEAXI@Z
pdata	ENDS
;	COMDAT pdata
pdata	SEGMENT
$pdata$??0XYZ_Desc@@QEAA@PEAVClassDesc2@@HHHHHHH@Z DD imagerel $LN4
	DD	imagerel $LN4+4816
	DD	imagerel $unwind$??0XYZ_Desc@@QEAA@PEAVClassDesc2@@HHHHHHH@Z
pdata	ENDS
;	COMDAT pdata
pdata	SEGMENT
$pdata$??1XYZ_Desc@@UEAA@XZ DD imagerel $LN4
	DD	imagerel $LN4+29
	DD	imagerel $unwind$??1XYZ_Desc@@UEAA@XZ
pdata	ENDS
;	COMDAT pdata
pdata	SEGMENT
$pdata$??_GXYZ_Desc@@UEAAPEAXI@Z DD imagerel $LN11
	DD	imagerel $LN11+85
	DD	imagerel $unwind$??_GXYZ_Desc@@UEAAPEAXI@Z
pdata	ENDS
;	COMDAT pdata
pdata	SEGMENT
$pdata$??0BerconXYZDlgProc@@QEAA@PEAVReferenceTarget@@@Z DD imagerel $LN6
	DD	imagerel $LN6+49
	DD	imagerel $unwind$??0BerconXYZDlgProc@@QEAA@PEAVReferenceTarget@@@Z
pdata	ENDS
;	COMDAT pdata
pdata	SEGMENT
$pdata$?DlgProc@BerconXYZDlgProc@@UEAA_JHPEAVIParamMap2@@PEAUHWND__@@I_K_J@Z DD imagerel $LN9
	DD	imagerel $LN9+787
	DD	imagerel $unwind$?DlgProc@BerconXYZDlgProc@@UEAA_JHPEAVIParamMap2@@PEAUHWND__@@I_K_J@Z
pdata	ENDS
;	COMDAT pdata
pdata	SEGMENT
$pdata$1$?DlgProc@BerconXYZDlgProc@@UEAA_JHPEAVIParamMap2@@PEAUHWND__@@I_K_J@Z DD imagerel $LN9+787
	DD	imagerel $LN9+1284
	DD	imagerel $chain$1$?DlgProc@BerconXYZDlgProc@@UEAA_JHPEAVIParamMap2@@PEAUHWND__@@I_K_J@Z
pdata	ENDS
;	COMDAT pdata
pdata	SEGMENT
$pdata$??1BerconXYZDlgProc@@UEAA@XZ DD imagerel $LN6
	DD	imagerel $LN6+32
	DD	imagerel $unwind$??1BerconXYZDlgProc@@UEAA@XZ
pdata	ENDS
;	COMDAT pdata
pdata	SEGMENT
$pdata$??_GBerconXYZDlgProc@@UEAAPEAXI@Z DD imagerel $LN13
	DD	imagerel $LN13+71
	DD	imagerel $unwind$??_GBerconXYZDlgProc@@UEAAPEAXI@Z
pdata	ENDS
;	COMDAT pdata
pdata	SEGMENT
$pdata$??0BerconXYZ@@QEAA@XZ DD imagerel $LN17
	DD	imagerel $LN17+100
	DD	imagerel $unwind$??0BerconXYZ@@QEAA@XZ
pdata	ENDS
;	COMDAT pdata
pdata	SEGMENT
$pdata$??0GradientRamp@@QEAA@PEAVGradientMap@@@Z DD imagerel $LN4
	DD	imagerel $LN4+63
	DD	imagerel $unwind$??0GradientRamp@@QEAA@PEAVGradientMap@@@Z
pdata	ENDS
;	COMDAT pdata
pdata	SEGMENT
$pdata$??1GradientRamp@@QEAA@XZ DD imagerel $LN4
	DD	imagerel $LN4+51
	DD	imagerel $unwind$??1GradientRamp@@QEAA@XZ
pdata	ENDS
;	COMDAT pdata
pdata	SEGMENT
$pdata$??_GGradientRamp@@QEAAPEAXI@Z DD imagerel $LN8
	DD	imagerel $LN8+84
	DD	imagerel $unwind$??_GGradientRamp@@QEAAPEAXI@Z
pdata	ENDS
;	COMDAT pdata
pdata	SEGMENT
$pdata$??0IGradient@@QEAA@PEAUHWND__@@PEAVGradientRamp@@@Z DD imagerel $LN13
	DD	imagerel $LN13+90
	DD	imagerel $unwind$??0IGradient@@QEAA@PEAUHWND__@@PEAVGradientRamp@@@Z
pdata	ENDS
;	COMDAT pdata
pdata	SEGMENT
$pdata$??1IGradient@@UEAA@XZ DD imagerel $LN9
	DD	imagerel $LN9+86
	DD	imagerel $unwind$??1IGradient@@UEAA@XZ
pdata	ENDS
;	COMDAT pdata
pdata	SEGMENT
$pdata$??_GIGradient@@UEAAPEAXI@Z DD imagerel $LN16
	DD	imagerel $LN16+137
	DD	imagerel $unwind$??_GIGradient@@UEAAPEAXI@Z
pdata	ENDS
;	COMDAT pdata
pdata	SEGMENT
$pdata$?seedRandomGen@BerconGradient@@QEAAXAEAVShadeContext@@@Z DD imagerel $LN14
	DD	imagerel $LN14+64
	DD	imagerel $unwind$?seedRandomGen@BerconGradient@@QEAAXAEAVShadeContext@@@Z
pdata	ENDS
;	COMDAT pdata
pdata	SEGMENT
$pdata$0$?seedRandomGen@BerconGradient@@QEAAXAEAVShadeContext@@@Z DD imagerel $LN14+64
	DD	imagerel $LN14+185
	DD	imagerel $chain$0$?seedRandomGen@BerconGradient@@QEAAXAEAVShadeContext@@@Z
pdata	ENDS
;	COMDAT pdata
pdata	SEGMENT
$pdata$1$?seedRandomGen@BerconGradient@@QEAAXAEAVShadeContext@@@Z DD imagerel $LN14+185
	DD	imagerel $LN14+261
	DD	imagerel $chain$1$?seedRandomGen@BerconGradient@@QEAAXAEAVShadeContext@@@Z
pdata	ENDS
;	COMDAT pdata
pdata	SEGMENT
$pdata$2$?seedRandomGen@BerconGradient@@QEAAXAEAVShadeContext@@@Z DD imagerel $LN14+261
	DD	imagerel $LN14+275
	DD	imagerel $chain$2$?seedRandomGen@BerconGradient@@QEAAXAEAVShadeContext@@@Z
pdata	ENDS
;	COMDAT pdata
pdata	SEGMENT
$pdata$3$?seedRandomGen@BerconGradient@@QEAAXAEAVShadeContext@@@Z DD imagerel $LN14+275
	DD	imagerel $LN14+354
	DD	imagerel $chain$3$?seedRandomGen@BerconGradient@@QEAAXAEAVShadeContext@@@Z
pdata	ENDS
;	COMDAT pdata
pdata	SEGMENT
$pdata$?EnableStuff@BerconGradient@@QEAAXXZ DD imagerel $LN18
	DD	imagerel $LN18+30
	DD	imagerel $unwind$?EnableStuff@BerconGradient@@QEAAXXZ
pdata	ENDS
;	COMDAT pdata
pdata	SEGMENT
$pdata$0$?EnableStuff@BerconGradient@@QEAAXXZ DD imagerel $LN18+30
	DD	imagerel $LN18+53
	DD	imagerel $chain$0$?EnableStuff@BerconGradient@@QEAAXXZ
pdata	ENDS
;	COMDAT pdata
pdata	SEGMENT
$pdata$2$?EnableStuff@BerconGradient@@QEAAXXZ DD imagerel $LN18+53
	DD	imagerel $LN18+63
	DD	imagerel $chain$2$?EnableStuff@BerconGradient@@QEAAXXZ
pdata	ENDS
;	COMDAT pdata
pdata	SEGMENT
$pdata$6$?EnableStuff@BerconGradient@@QEAAXXZ DD imagerel $LN18+63
	DD	imagerel $LN18+710
	DD	imagerel $chain$6$?EnableStuff@BerconGradient@@QEAAXXZ
pdata	ENDS
;	COMDAT pdata
pdata	SEGMENT
$pdata$7$?EnableStuff@BerconGradient@@QEAAXXZ DD imagerel $LN18+710
	DD	imagerel $LN18+761
	DD	imagerel $chain$7$?EnableStuff@BerconGradient@@QEAAXXZ
pdata	ENDS
;	COMDAT pdata
pdata	SEGMENT
$pdata$8$?EnableStuff@BerconGradient@@QEAAXXZ DD imagerel $LN18+761
	DD	imagerel $LN18+846
	DD	imagerel $chain$8$?EnableStuff@BerconGradient@@QEAAXXZ
pdata	ENDS
;	COMDAT pdata
pdata	SEGMENT
$pdata$9$?EnableStuff@BerconGradient@@QEAAXXZ DD imagerel $LN18+846
	DD	imagerel $LN18+851
	DD	imagerel $chain$9$?EnableStuff@BerconGradient@@QEAAXXZ
pdata	ENDS
;	COMDAT pdata
pdata	SEGMENT
$pdata$10$?EnableStuff@BerconGradient@@QEAAXXZ DD imagerel $LN18+851
	DD	imagerel $LN18+858
	DD	imagerel $chain$10$?EnableStuff@BerconGradient@@QEAAXXZ
pdata	ENDS
;	COMDAT pdata
pdata	SEGMENT
$pdata$?getGradientValueUVW@BerconGradient@@QEAAMVPoint3@@@Z DD imagerel $LN73
	DD	imagerel $LN73+924
	DD	imagerel $unwind$?getGradientValueUVW@BerconGradient@@QEAAMVPoint3@@@Z
pdata	ENDS
;	COMDAT pdata
pdata	SEGMENT
$pdata$?getGradientValueDist@BerconGradient@@QEAAMAEAVShadeContext@@@Z DD imagerel $LN56
	DD	imagerel $LN56+588
	DD	imagerel $unwind$?getGradientValueDist@BerconGradient@@QEAAMAEAVShadeContext@@@Z
pdata	ENDS
;	COMDAT pdata
pdata	SEGMENT
$pdata$2$?getGradientValueDist@BerconGradient@@QEAAMAEAVShadeContext@@@Z DD imagerel $LN56+588
	DD	imagerel $LN56+826
	DD	imagerel $chain$2$?getGradientValueDist@BerconGradient@@QEAAMAEAVShadeContext@@@Z
pdata	ENDS
;	COMDAT pdata
pdata	SEGMENT
$pdata$3$?getGradientValueDist@BerconGradient@@QEAAMAEAVShadeContext@@@Z DD imagerel $LN56+826
	DD	imagerel $LN56+904
	DD	imagerel $chain$3$?getGradientValueDist@BerconGradient@@QEAAMAEAVShadeContext@@@Z
pdata	ENDS
;	COMDAT pdata
pdata	SEGMENT
$pdata$?getGradientValueNormal@BerconGradient@@QEAAMAEAVShadeContext@@@Z DD imagerel $LN62
	DD	imagerel $LN62+968
	DD	imagerel $unwind$?getGradientValueNormal@BerconGradient@@QEAAMAEAVShadeContext@@@Z
pdata	ENDS
;	COMDAT pdata
pdata	SEGMENT
$pdata$?getGradientValue@BerconGradient@@QEAAMAEAVShadeContext@@@Z DD imagerel $LN43
	DD	imagerel $LN43+98
	DD	imagerel $unwind$?getGradientValue@BerconGradient@@QEAAMAEAVShadeContext@@@Z
pdata	ENDS
;	COMDAT pdata
pdata	SEGMENT
$pdata$3$?getGradientValue@BerconGradient@@QEAAMAEAVShadeContext@@@Z DD imagerel $LN43+98
	DD	imagerel $LN43+300
	DD	imagerel $chain$3$?getGradientValue@BerconGradient@@QEAAMAEAVShadeContext@@@Z
pdata	ENDS
;	COMDAT pdata
pdata	SEGMENT
$pdata$4$?getGradientValue@BerconGradient@@QEAAMAEAVShadeContext@@@Z DD imagerel $LN43+300
	DD	imagerel $LN43+816
	DD	imagerel $chain$4$?getGradientValue@BerconGradient@@QEAAMAEAVShadeContext@@@Z
pdata	ENDS
;	COMDAT pdata
pdata	SEGMENT
$pdata$?setKeyTex@BerconGradient@@QEAAXPEAVTexmap@@@Z DD imagerel $LN9
	DD	imagerel $LN9+35
	DD	imagerel $unwind$?setKeyTex@BerconGradient@@QEAAXPEAVTexmap@@@Z
pdata	ENDS
;	COMDAT pdata
pdata	SEGMENT
$pdata$0$?setKeyTex@BerconGradient@@QEAAXPEAVTexmap@@@Z DD imagerel $LN9+35
	DD	imagerel $LN9+127
	DD	imagerel $chain$0$?setKeyTex@BerconGradient@@QEAAXPEAVTexmap@@@Z
pdata	ENDS
;	COMDAT pdata
pdata	SEGMENT
$pdata$1$?setKeyTex@BerconGradient@@QEAAXPEAVTexmap@@@Z DD imagerel $LN9+127
	DD	imagerel $LN9+138
	DD	imagerel $chain$1$?setKeyTex@BerconGradient@@QEAAXPEAVTexmap@@@Z
pdata	ENDS
;	COMDAT pdata
pdata	SEGMENT
$pdata$?keyColorChanged@BerconGradient@@QEAAXVAColor@@@Z DD imagerel $LN12
	DD	imagerel $LN12+175
	DD	imagerel $unwind$?keyColorChanged@BerconGradient@@QEAAXVAColor@@@Z
pdata	ENDS
;	COMDAT pdata
pdata	SEGMENT
$pdata$?keyNumChanged@BerconGradient@@QEAAXH@Z DD imagerel $LN17
	DD	imagerel $LN17+139
	DD	imagerel $unwind$?keyNumChanged@BerconGradient@@QEAAXH@Z
pdata	ENDS
;	COMDAT pdata
pdata	SEGMENT
$pdata$?keyPosChanged@BerconGradient@@QEAAXM@Z DD imagerel $LN12
	DD	imagerel $LN12+56
	DD	imagerel $unwind$?keyPosChanged@BerconGradient@@QEAAXM@Z
pdata	ENDS
;	COMDAT pdata
pdata	SEGMENT
$pdata$0$?keyPosChanged@BerconGradient@@QEAAXM@Z DD imagerel $LN12+56
	DD	imagerel $LN12+182
	DD	imagerel $chain$0$?keyPosChanged@BerconGradient@@QEAAXM@Z
pdata	ENDS
;	COMDAT pdata
pdata	SEGMENT
$pdata$1$?keyPosChanged@BerconGradient@@QEAAXM@Z DD imagerel $LN12+182
	DD	imagerel $LN12+194
	DD	imagerel $chain$1$?keyPosChanged@BerconGradient@@QEAAXM@Z
pdata	ENDS
;	COMDAT pdata
pdata	SEGMENT
$pdata$?countKeys@BerconGradient@@QEAAHXZ DD imagerel $LN7
	DD	imagerel $LN7+157
	DD	imagerel $unwind$?countKeys@BerconGradient@@QEAAHXZ
pdata	ENDS
;	COMDAT pdata
pdata	SEGMENT
$pdata$?resetKeys@BerconGradient@@QEAAXXZ DD imagerel $LN20
	DD	imagerel $LN20+241
	DD	imagerel $unwind$?resetKeys@BerconGradient@@QEAAXXZ
pdata	ENDS
;	COMDAT pdata
pdata	SEGMENT
$pdata$?gradAddKey@BerconGradient@@UEAAXM@Z DD imagerel $LN11
	DD	imagerel $LN11+25
	DD	imagerel $unwind$?gradAddKey@BerconGradient@@UEAAXM@Z
pdata	ENDS
;	COMDAT pdata
pdata	SEGMENT
$pdata$1$?gradAddKey@BerconGradient@@UEAAXM@Z DD imagerel $LN11+25
	DD	imagerel $LN11+255
	DD	imagerel $chain$1$?gradAddKey@BerconGradient@@UEAAXM@Z
pdata	ENDS
;	COMDAT pdata
pdata	SEGMENT
$pdata$2$?gradAddKey@BerconGradient@@UEAAXM@Z DD imagerel $LN11+255
	DD	imagerel $LN11+261
	DD	imagerel $chain$2$?gradAddKey@BerconGradient@@UEAAXM@Z
pdata	ENDS
;	COMDAT pdata
pdata	SEGMENT
$pdata$?gradMoveKey@BerconGradient@@UEAAXHM@Z DD imagerel $LN11
	DD	imagerel $LN11+205
	DD	imagerel $unwind$?gradMoveKey@BerconGradient@@UEAAXHM@Z
pdata	ENDS
;	COMDAT pdata
pdata	SEGMENT
$pdata$?gradDelKey@BerconGradient@@UEAAXH@Z DD imagerel $LN13
	DD	imagerel $LN13+35
	DD	imagerel $unwind$?gradDelKey@BerconGradient@@UEAAXH@Z
pdata	ENDS
;	COMDAT pdata
pdata	SEGMENT
$pdata$0$?gradDelKey@BerconGradient@@UEAAXH@Z DD imagerel $LN13+35
	DD	imagerel $LN13+208
	DD	imagerel $chain$0$?gradDelKey@BerconGradient@@UEAAXH@Z
pdata	ENDS
;	COMDAT pdata
pdata	SEGMENT
$pdata$1$?gradDelKey@BerconGradient@@UEAAXH@Z DD imagerel $LN13+208
	DD	imagerel $LN13+219
	DD	imagerel $chain$1$?gradDelKey@BerconGradient@@UEAAXH@Z
pdata	ENDS
;	COMDAT pdata
pdata	SEGMENT
$pdata$?gradSelKey@BerconGradient@@UEAAXXZ DD imagerel $LN13
	DD	imagerel $LN13+20
	DD	imagerel $unwind$?gradSelKey@BerconGradient@@UEAAXXZ
pdata	ENDS
;	COMDAT pdata
pdata	SEGMENT
$pdata$1$?gradSelKey@BerconGradient@@UEAAXXZ DD imagerel $LN13+20
	DD	imagerel $LN13+157
	DD	imagerel $chain$1$?gradSelKey@BerconGradient@@UEAAXXZ
pdata	ENDS
;	COMDAT pdata
pdata	SEGMENT
$pdata$2$?gradSelKey@BerconGradient@@UEAAXXZ DD imagerel $LN13+157
	DD	imagerel $LN13+163
	DD	imagerel $chain$2$?gradSelKey@BerconGradient@@UEAAXXZ
pdata	ENDS
;	COMDAT pdata
pdata	SEGMENT
$pdata$?CreateParamDlg@BerconGradient@@UEAAPEAVParamDlg@@PEAUHWND__@@PEAVIMtlParams@@@Z DD imagerel $LN23
	DD	imagerel $LN23+261
	DD	imagerel $unwind$?CreateParamDlg@BerconGradient@@UEAAPEAVParamDlg@@PEAUHWND__@@PEAVIMtlParams@@@Z
pdata	ENDS
;	COMDAT pdata
pdata	SEGMENT
$pdata$?SetDlgThing@BerconGradient@@UEAAHPEAVParamDlg@@@Z DD imagerel $LN6
	DD	imagerel $LN6+49
	DD	imagerel $unwind$?SetDlgThing@BerconGradient@@UEAAHPEAVParamDlg@@@Z
pdata	ENDS
;	COMDAT pdata
pdata	SEGMENT
$pdata$?Update@BerconGradient@@UEAAXHAEAVInterval@@@Z DD imagerel $LN38
	DD	imagerel $LN38+45
	DD	imagerel $unwind$?Update@BerconGradient@@UEAAXHAEAVInterval@@@Z
pdata	ENDS
;	COMDAT pdata
pdata	SEGMENT
$pdata$0$?Update@BerconGradient@@UEAAXHAEAVInterval@@@Z DD imagerel $LN38+45
	DD	imagerel $LN38+84
	DD	imagerel $chain$0$?Update@BerconGradient@@UEAAXHAEAVInterval@@@Z
pdata	ENDS
;	COMDAT pdata
pdata	SEGMENT
$pdata$3$?Update@BerconGradient@@UEAAXHAEAVInterval@@@Z DD imagerel $LN38+84
	DD	imagerel $LN38+672
	DD	imagerel $chain$3$?Update@BerconGradient@@UEAAXHAEAVInterval@@@Z
pdata	ENDS
;	COMDAT pdata
pdata	SEGMENT
$pdata$4$?Update@BerconGradient@@UEAAXHAEAVInterval@@@Z DD imagerel $LN38+672
	DD	imagerel $LN38+965
	DD	imagerel $chain$4$?Update@BerconGradient@@UEAAXHAEAVInterval@@@Z
pdata	ENDS
;	COMDAT pdata
pdata	SEGMENT
$pdata$5$?Update@BerconGradient@@UEAAXHAEAVInterval@@@Z DD imagerel $LN38+965
	DD	imagerel $LN38+1717
	DD	imagerel $chain$5$?Update@BerconGradient@@UEAAXHAEAVInterval@@@Z
pdata	ENDS
;	COMDAT pdata
pdata	SEGMENT
$pdata$6$?Update@BerconGradient@@UEAAXHAEAVInterval@@@Z DD imagerel $LN38+1717
	DD	imagerel $LN38+1763
	DD	imagerel $chain$6$?Update@BerconGradient@@UEAAXHAEAVInterval@@@Z
pdata	ENDS
;	COMDAT pdata
pdata	SEGMENT
$pdata$7$?Update@BerconGradient@@UEAAXHAEAVInterval@@@Z DD imagerel $LN38+1763
	DD	imagerel $LN38+1797
	DD	imagerel $chain$7$?Update@BerconGradient@@UEAAXHAEAVInterval@@@Z
pdata	ENDS
;	COMDAT pdata
pdata	SEGMENT
$pdata$8$?Update@BerconGradient@@UEAAXHAEAVInterval@@@Z DD imagerel $LN38+1797
	DD	imagerel $LN38+1806
	DD	imagerel $chain$8$?Update@BerconGradient@@UEAAXHAEAVInterval@@@Z
pdata	ENDS
;	COMDAT pdata
pdata	SEGMENT
$pdata$?Reset@BerconGradient@@UEAAXXZ DD imagerel $LN8
	DD	imagerel $LN8+746
	DD	imagerel $unwind$?Reset@BerconGradient@@UEAAXXZ
pdata	ENDS
;	COMDAT pdata
pdata	SEGMENT
$pdata$?Validity@BerconGradient@@UEAA?AVInterval@@H@Z DD imagerel $LN8
	DD	imagerel $LN8+76
	DD	imagerel $unwind$?Validity@BerconGradient@@UEAA?AVInterval@@H@Z
pdata	ENDS
;	COMDAT pdata
pdata	SEGMENT
$pdata$?SetSubTexmap@BerconGradient@@UEAAXHPEAVTexmap@@@Z DD imagerel $LN21
	DD	imagerel $LN21+139
	DD	imagerel $unwind$?SetSubTexmap@BerconGradient@@UEAAXHPEAVTexmap@@@Z
pdata	ENDS
;	COMDAT pdata
pdata	SEGMENT
$pdata$?GetSubTexmapSlotName@BerconGradient@@UEAA?AVWStr@@H@Z DD imagerel $LN11
	DD	imagerel $LN11+174
	DD	imagerel $unwind$?GetSubTexmapSlotName@BerconGradient@@UEAA?AVWStr@@H@Z
pdata	ENDS
;	COMDAT pdata
pdata	SEGMENT
$pdata$?dtor$0@?0??GetSubTexmapSlotName@BerconGradient@@UEAA?AVWStr@@H@Z@4HA DD imagerel ?dtor$0@?0??GetSubTexmapSlotName@BerconGradient@@UEAA?AVWStr@@H@Z@4HA
	DD	imagerel ?dtor$0@?0??GetSubTexmapSlotName@BerconGradient@@UEAA?AVWStr@@H@Z@4HA+39
	DD	imagerel $unwind$?dtor$0@?0??GetSubTexmapSlotName@BerconGradient@@UEAA?AVWStr@@H@Z@4HA
pdata	ENDS
;	COMDAT pdata
pdata	SEGMENT
$pdata$?EvalColor@BerconGradient@@UEAA?AVAColor@@AEAVShadeContext@@@Z DD imagerel $LN26
	DD	imagerel $LN26+101
	DD	imagerel $unwind$?EvalColor@BerconGradient@@UEAA?AVAColor@@AEAVShadeContext@@@Z
pdata	ENDS
;	COMDAT pdata
pdata	SEGMENT
$pdata$0$?EvalColor@BerconGradient@@UEAA?AVAColor@@AEAVShadeContext@@@Z DD imagerel $LN26+101
	DD	imagerel $LN26+222
	DD	imagerel $chain$0$?EvalColor@BerconGradient@@UEAA?AVAColor@@AEAVShadeContext@@@Z
pdata	ENDS
;	COMDAT pdata
pdata	SEGMENT
$pdata$1$?EvalColor@BerconGradient@@UEAA?AVAColor@@AEAVShadeContext@@@Z DD imagerel $LN26+222
	DD	imagerel $LN26+438
	DD	imagerel $chain$1$?EvalColor@BerconGradient@@UEAA?AVAColor@@AEAVShadeContext@@@Z
pdata	ENDS
;	COMDAT pdata
pdata	SEGMENT
$pdata$2$?EvalColor@BerconGradient@@UEAA?AVAColor@@AEAVShadeContext@@@Z DD imagerel $LN26+438
	DD	imagerel $LN26+444
	DD	imagerel $chain$2$?EvalColor@BerconGradient@@UEAA?AVAColor@@AEAVShadeContext@@@Z
pdata	ENDS
;	COMDAT pdata
pdata	SEGMENT
$pdata$3$?EvalColor@BerconGradient@@UEAA?AVAColor@@AEAVShadeContext@@@Z DD imagerel $LN26+444
	DD	imagerel $LN26+466
	DD	imagerel $chain$3$?EvalColor@BerconGradient@@UEAA?AVAColor@@AEAVShadeContext@@@Z
pdata	ENDS
;	COMDAT pdata
pdata	SEGMENT
$pdata$?EvalMono@BerconGradient@@UEAAMAEAVShadeContext@@@Z DD imagerel $LN6
	DD	imagerel $LN6+48
	DD	imagerel $unwind$?EvalMono@BerconGradient@@UEAAMAEAVShadeContext@@@Z
pdata	ENDS
;	COMDAT pdata
pdata	SEGMENT
$pdata$?EvalNormalPerturb@BerconGradient@@UEAA?AVPoint3@@AEAVShadeContext@@@Z DD imagerel $LN102
	DD	imagerel $LN102+85
	DD	imagerel $unwind$?EvalNormalPerturb@BerconGradient@@UEAA?AVPoint3@@AEAVShadeContext@@@Z
pdata	ENDS
;	COMDAT pdata
pdata	SEGMENT
$pdata$0$?EvalNormalPerturb@BerconGradient@@UEAA?AVPoint3@@AEAVShadeContext@@@Z DD imagerel $LN102+85
	DD	imagerel $LN102+93
	DD	imagerel $chain$0$?EvalNormalPerturb@BerconGradient@@UEAA?AVPoint3@@AEAVShadeContext@@@Z
pdata	ENDS
;	COMDAT pdata
pdata	SEGMENT
$pdata$3$?EvalNormalPerturb@BerconGradient@@UEAA?AVPoint3@@AEAVShadeContext@@@Z DD imagerel $LN102+93
	DD	imagerel $LN102+235
	DD	imagerel $chain$3$?EvalNormalPerturb@BerconGradient@@UEAA?AVPoint3@@AEAVShadeContext@@@Z
pdata	ENDS
;	COMDAT pdata
pdata	SEGMENT
$pdata$6$?EvalNormalPerturb@BerconGradient@@UEAA?AVPoint3@@AEAVShadeContext@@@Z DD imagerel $LN102+235
	DD	imagerel $LN102+413
	DD	imagerel $chain$6$?EvalNormalPerturb@BerconGradient@@UEAA?AVPoint3@@AEAVShadeContext@@@Z
pdata	ENDS
;	COMDAT pdata
pdata	SEGMENT
$pdata$9$?EvalNormalPerturb@BerconGradient@@UEAA?AVPoint3@@AEAVShadeContext@@@Z DD imagerel $LN102+413
	DD	imagerel $LN102+902
	DD	imagerel $chain$9$?EvalNormalPerturb@BerconGradient@@UEAA?AVPoint3@@AEAVShadeContext@@@Z
pdata	ENDS
;	COMDAT pdata
pdata	SEGMENT
$pdata$10$?EvalNormalPerturb@BerconGradient@@UEAA?AVPoint3@@AEAVShadeContext@@@Z DD imagerel $LN102+902
	DD	imagerel $LN102+993
	DD	imagerel $chain$10$?EvalNormalPerturb@BerconGradient@@UEAA?AVPoint3@@AEAVShadeContext@@@Z
pdata	ENDS
;	COMDAT pdata
pdata	SEGMENT
$pdata$11$?EvalNormalPerturb@BerconGradient@@UEAA?AVPoint3@@AEAVShadeContext@@@Z DD imagerel $LN102+993
	DD	imagerel $LN102+1238
	DD	imagerel $chain$11$?EvalNormalPerturb@BerconGradient@@UEAA?AVPoint3@@AEAVShadeContext@@@Z
pdata	ENDS
;	COMDAT pdata
pdata	SEGMENT
$pdata$12$?EvalNormalPerturb@BerconGradient@@UEAA?AVPoint3@@AEAVShadeContext@@@Z DD imagerel $LN102+1238
	DD	imagerel $LN102+1256
	DD	imagerel $chain$12$?EvalNormalPerturb@BerconGradient@@UEAA?AVPoint3@@AEAVShadeContext@@@Z
pdata	ENDS
;	COMDAT pdata
pdata	SEGMENT
$pdata$4$?EvalNormalPerturb@BerconGradient@@UEAA?AVPoint3@@AEAVShadeContext@@@Z DD imagerel $LN102+1256
	DD	imagerel $LN102+1281
	DD	imagerel $chain$4$?EvalNormalPerturb@BerconGradient@@UEAA?AVPoint3@@AEAVShadeContext@@@Z
pdata	ENDS
;	COMDAT pdata
pdata	SEGMENT
$pdata$13$?EvalNormalPerturb@BerconGradient@@UEAA?AVPoint3@@AEAVShadeContext@@@Z DD imagerel $LN102+1281
	DD	imagerel $LN102+1300
	DD	imagerel $chain$13$?EvalNormalPerturb@BerconGradient@@UEAA?AVPoint3@@AEAVShadeContext@@@Z
pdata	ENDS
;	COMDAT pdata
pdata	SEGMENT
$pdata$?DiscardTexHandle@BerconGradient@@QEAAXXZ DD imagerel $LN5
	DD	imagerel $LN5+44
	DD	imagerel $unwind$?DiscardTexHandle@BerconGradient@@QEAAXXZ
pdata	ENDS
;	COMDAT pdata
pdata	SEGMENT
$pdata$?ActivateTexDisplay@BerconGradient@@UEAAXH@Z DD imagerel $LN9
	DD	imagerel $LN9+47
	DD	imagerel $unwind$?ActivateTexDisplay@BerconGradient@@UEAAXH@Z
pdata	ENDS
;	COMDAT pdata
pdata	SEGMENT
$pdata$?GetActiveTexHandle@BerconGradient@@UEAA_KHAEAVTexHandleMaker@@@Z DD imagerel $LN10
	DD	imagerel $LN10+107
	DD	imagerel $unwind$?GetActiveTexHandle@BerconGradient@@UEAA_KHAEAVTexHandleMaker@@@Z
pdata	ENDS
;	COMDAT pdata
pdata	SEGMENT
$pdata$0$?GetActiveTexHandle@BerconGradient@@UEAA_KHAEAVTexHandleMaker@@@Z DD imagerel $LN10+107
	DD	imagerel $LN10+164
	DD	imagerel $chain$0$?GetActiveTexHandle@BerconGradient@@UEAA_KHAEAVTexHandleMaker@@@Z
pdata	ENDS
;	COMDAT pdata
pdata	SEGMENT
$pdata$1$?GetActiveTexHandle@BerconGradient@@UEAA_KHAEAVTexHandleMaker@@@Z DD imagerel $LN10+164
	DD	imagerel $LN10+186
	DD	imagerel $chain$1$?GetActiveTexHandle@BerconGradient@@UEAA_KHAEAVTexHandleMaker@@@Z
pdata	ENDS
;	COMDAT pdata
pdata	SEGMENT
$pdata$?GetClassName@BerconGradient@@UEAAXAEAVWStr@@@Z DD imagerel $LN4
	DD	imagerel $LN4+37
	DD	imagerel $unwind$?GetClassName@BerconGradient@@UEAAXAEAVWStr@@@Z
pdata	ENDS
;	COMDAT pdata
pdata	SEGMENT
$pdata$?Clone@BerconGradient@@UEAAPEAVReferenceTarget@@AEAVRemapDir@@@Z DD imagerel $LN15
	DD	imagerel $LN15+432
	DD	imagerel $unwind$?Clone@BerconGradient@@UEAAPEAVReferenceTarget@@AEAVRemapDir@@@Z
pdata	ENDS
;	COMDAT pdata
pdata	SEGMENT
$pdata$?NotifyRefChanged@BerconGradient@@UEAA?AW4RefResult@@AEBVInterval@@PEAVReferenceTarget@@AEA_KIH@Z DD imagerel $LN31
	DD	imagerel $LN31+47
	DD	imagerel $unwind$?NotifyRefChanged@BerconGradient@@UEAA?AW4RefResult@@AEBVInterval@@PEAVReferenceTarget@@AEA_KIH@Z
pdata	ENDS
;	COMDAT pdata
pdata	SEGMENT
$pdata$0$?NotifyRefChanged@BerconGradient@@UEAA?AW4RefResult@@AEBVInterval@@PEAVReferenceTarget@@AEA_KIH@Z DD imagerel $LN31+47
	DD	imagerel $LN31+175
	DD	imagerel $chain$0$?NotifyRefChanged@BerconGradient@@UEAA?AW4RefResult@@AEBVInterval@@PEAVReferenceTarget@@AEA_KIH@Z
pdata	ENDS
;	COMDAT pdata
pdata	SEGMENT
$pdata$2$?NotifyRefChanged@BerconGradient@@UEAA?AW4RefResult@@AEBVInterval@@PEAVReferenceTarget@@AEA_KIH@Z DD imagerel $LN31+175
	DD	imagerel $LN31+246
	DD	imagerel $chain$2$?NotifyRefChanged@BerconGradient@@UEAA?AW4RefResult@@AEBVInterval@@PEAVReferenceTarget@@AEA_KIH@Z
pdata	ENDS
;	COMDAT pdata
pdata	SEGMENT
$pdata$3$?NotifyRefChanged@BerconGradient@@UEAA?AW4RefResult@@AEBVInterval@@PEAVReferenceTarget@@AEA_KIH@Z DD imagerel $LN31+246
	DD	imagerel $LN31+257
	DD	imagerel $chain$3$?NotifyRefChanged@BerconGradient@@UEAA?AW4RefResult@@AEBVInterval@@PEAVReferenceTarget@@AEA_KIH@Z
pdata	ENDS
;	COMDAT pdata
pdata	SEGMENT
$pdata$?SubAnimName@BerconGradient@@UEAA?AVWStr@@H@Z DD imagerel $LN13
	DD	imagerel $LN13+139
	DD	imagerel $unwind$?SubAnimName@BerconGradient@@UEAA?AVWStr@@H@Z
pdata	ENDS
;	COMDAT pdata
pdata	SEGMENT
$pdata$?dtor$0@?0??SubAnimName@BerconGradient@@UEAA?AVWStr@@H@Z@4HA DD imagerel ?dtor$0@?0??SubAnimName@BerconGradient@@UEAA?AVWStr@@H@Z@4HA
	DD	imagerel ?dtor$0@?0??SubAnimName@BerconGradient@@UEAA?AVWStr@@H@Z@4HA+39
	DD	imagerel $unwind$?dtor$0@?0??SubAnimName@BerconGradient@@UEAA?AVWStr@@H@Z@4HA
pdata	ENDS
;	COMDAT pdata
pdata	SEGMENT
$pdata$?SetReference@BerconGradient@@UEAAXHPEAVReferenceTarget@@@Z DD imagerel $LN18
	DD	imagerel $LN18+167
	DD	imagerel $unwind$?SetReference@BerconGradient@@UEAAXHPEAVReferenceTarget@@@Z
pdata	ENDS
;	COMDAT pdata
pdata	SEGMENT
$pdata$0$?SetReference@BerconGradient@@UEAAXHPEAVReferenceTarget@@@Z DD imagerel $LN18+167
	DD	imagerel $LN18+232
	DD	imagerel $chain$0$?SetReference@BerconGradient@@UEAAXHPEAVReferenceTarget@@@Z
pdata	ENDS
;	COMDAT pdata
pdata	SEGMENT
$pdata$1$?SetReference@BerconGradient@@UEAAXHPEAVReferenceTarget@@@Z DD imagerel $LN18+232
	DD	imagerel $LN18+264
	DD	imagerel $chain$1$?SetReference@BerconGradient@@UEAAXHPEAVReferenceTarget@@@Z
pdata	ENDS
;	COMDAT pdata
pdata	SEGMENT
$pdata$?GetParamBlockByID@BerconGradient@@UEAAPEAVIParamBlock2@@F@Z DD imagerel $LN6
	DD	imagerel $LN6+107
	DD	imagerel $unwind$?GetParamBlockByID@BerconGradient@@UEAAPEAVIParamBlock2@@F@Z
pdata	ENDS
;	COMDAT pdata
pdata	SEGMENT
$pdata$??0BerconGradient@@QEAA@XZ DD imagerel $LN25
	DD	imagerel $LN25+351
	DD	imagerel $unwind$??0BerconGradient@@QEAA@XZ
pdata	ENDS
;	COMDAT pdata
pdata	SEGMENT
$pdata$?dtor$1@?0???0BerconGradient@@QEAA@XZ@4HA DD imagerel ?dtor$1@?0???0BerconGradient@@QEAA@XZ@4HA
	DD	imagerel ?dtor$1@?0???0BerconGradient@@QEAA@XZ@4HA+29
	DD	imagerel $unwind$?dtor$1@?0???0BerconGradient@@QEAA@XZ@4HA
pdata	ENDS
;	COMDAT pdata
pdata	SEGMENT
$pdata$??1BerconGradient@@UEAA@XZ DD imagerel $LN20
	DD	imagerel $LN20+193
	DD	imagerel $unwind$??1BerconGradient@@UEAA@XZ
pdata	ENDS
;	COMDAT pdata
pdata	SEGMENT
$pdata$??_GBerconGradient@@UEAAPEAXI@Z DD imagerel $LN9
	DD	imagerel $LN9+79
	DD	imagerel $unwind$??_GBerconGradient@@UEAAPEAXI@Z
pdata	ENDS
;	COMDAT pdata
pdata	SEGMENT
$pdata$?Create@BerconGradientClassDesc@@UEAAPEAXH@Z DD imagerel $LN6
	DD	imagerel $LN6+52
	DD	imagerel $unwind$?Create@BerconGradientClassDesc@@UEAAPEAXH@Z
pdata	ENDS
;	COMDAT pdata
pdata	SEGMENT
$pdata$??0BerconGradientClassDesc@@QEAA@XZ DD imagerel $LN4
	DD	imagerel $LN4+48
	DD	imagerel $unwind$??0BerconGradientClassDesc@@QEAA@XZ
pdata	ENDS
;	COMDAT pdata
pdata	SEGMENT
$pdata$??1BerconGradientClassDesc@@UEAA@XZ DD imagerel $LN4
	DD	imagerel $LN4+29
	DD	imagerel $unwind$??1BerconGradientClassDesc@@UEAA@XZ
pdata	ENDS
;	COMDAT pdata
pdata	SEGMENT
$pdata$??_GBerconGradientClassDesc@@UEAAPEAXI@Z DD imagerel $LN11
	DD	imagerel $LN11+85
	DD	imagerel $unwind$??_GBerconGradientClassDesc@@UEAAPEAXI@Z
pdata	ENDS
;	COMDAT pdata
pdata	SEGMENT
$pdata$??__EBerconGradientDesc@@YAXXZ DD imagerel ??__EBerconGradientDesc@@YAXXZ
	DD	imagerel ??__EBerconGradientDesc@@YAXXZ+57
	DD	imagerel $unwind$??__EBerconGradientDesc@@YAXXZ
pdata	ENDS
;	COMDAT pdata
pdata	SEGMENT
$pdata$??__FBerconGradientDesc@@YAXXZ DD imagerel ??__FBerconGradientDesc@@YAXXZ
	DD	imagerel ??__FBerconGradientDesc@@YAXXZ+31
	DD	imagerel $unwind$??__FBerconGradientDesc@@YAXXZ
pdata	ENDS
;	COMDAT pdata
pdata	SEGMENT
$pdata$??__Exyz_blk@@YAXXZ DD imagerel ??__Exyz_blk@@YAXXZ
	DD	imagerel ??__Exyz_blk@@YAXXZ+85
	DD	imagerel $unwind$??__Exyz_blk@@YAXXZ
pdata	ENDS
;	COMDAT pdata
pdata	SEGMENT
$pdata$??__Fxyz_blk@@YAXXZ DD imagerel ??__Fxyz_blk@@YAXXZ
	DD	imagerel ??__Fxyz_blk@@YAXXZ+31
	DD	imagerel $unwind$??__Fxyz_blk@@YAXXZ
pdata	ENDS
;	COMDAT pdata
pdata	SEGMENT
$pdata$??__Egradientmap_param_blk@@YAXXZ DD imagerel ??__Egradientmap_param_blk@@YAXXZ
	DD	imagerel ??__Egradientmap_param_blk@@YAXXZ+3694
	DD	imagerel $unwind$??__Egradientmap_param_blk@@YAXXZ
pdata	ENDS
;	COMDAT pdata
pdata	SEGMENT
$pdata$??0BerconGradientDlgProc@@QEAA@PEAVBerconGradient@@@Z DD imagerel $LN6
	DD	imagerel $LN6+57
	DD	imagerel $unwind$??0BerconGradientDlgProc@@QEAA@PEAVBerconGradient@@@Z
pdata	ENDS
;	COMDAT pdata
pdata	SEGMENT
$pdata$?DlgProc@BerconGradientDlgProc@@UEAA_JHPEAVIParamMap2@@PEAUHWND__@@I_K_J@Z DD imagerel $LN35
	DD	imagerel $LN35+3223
	DD	imagerel $unwind$?DlgProc@BerconGradientDlgProc@@UEAA_JHPEAVIParamMap2@@PEAUHWND__@@I_K_J@Z
pdata	ENDS
;	COMDAT pdata
pdata	SEGMENT
$pdata$?SetThing@BerconGradientDlgProc@@UEAAXPEAVReferenceTarget@@@Z DD imagerel $LN6
	DD	imagerel $LN6+170
	DD	imagerel $unwind$?SetThing@BerconGradientDlgProc@@UEAAXPEAVReferenceTarget@@@Z
pdata	ENDS
;	COMDAT pdata
pdata	SEGMENT
$pdata$??1BerconGradientDlgProc@@UEAA@XZ DD imagerel $LN6
	DD	imagerel $LN6+32
	DD	imagerel $unwind$??1BerconGradientDlgProc@@UEAA@XZ
pdata	ENDS
;	COMDAT pdata
pdata	SEGMENT
$pdata$??_GBerconGradientDlgProc@@UEAAPEAXI@Z DD imagerel $LN13
	DD	imagerel $LN13+71
	DD	imagerel $unwind$??_GBerconGradientDlgProc@@UEAAPEAXI@Z
pdata	ENDS
CRT$XCU	SEGMENT
?kInvalidId$initializer$@AssetManagement@MaxSDK@@3P6AXXZEA DQ FLAT:??__EkInvalidId@AssetManagement@MaxSDK@@YAXXZ ; MaxSDK::AssetManagement::kInvalidId$initializer$
CRT$XCU	ENDS
;	COMDAT __xmm@80000000800000008000000080000000
CONST	SEGMENT
__xmm@80000000800000008000000080000000 DB 00H, 00H, 00H, 080H, 00H, 00H, 00H
	DB	080H, 00H, 00H, 00H, 080H, 00H, 00H, 00H, 080H
CONST	ENDS
;	COMDAT __xmm@7fffffffffffffff7fffffffffffffff
CONST	SEGMENT
__xmm@7fffffffffffffff7fffffffffffffff DB 0ffH, 0ffH, 0ffH, 0ffH, 0ffH, 0ffH
	DB	0ffH, 07fH, 0ffH, 0ffH, 0ffH, 0ffH, 0ffH, 0ffH, 0ffH, 07fH
CONST	ENDS
;	COMDAT __xmm@3f8000003f8000003f8000003f800000
CONST	SEGMENT
__xmm@3f8000003f8000003f8000003f800000 DB 00H, 00H, 080H, '?', 00H, 00H, 080H
	DB	'?', 00H, 00H, 080H, '?', 00H, 00H, 080H, '?'
CONST	ENDS
;	COMDAT __xmm@3f800000000000000000000000000000
CONST	SEGMENT
__xmm@3f800000000000000000000000000000 DB 00H, 00H, 00H, 00H, 00H, 00H, 00H
	DB	00H, 00H, 00H, 00H, 00H, 00H, 00H, 080H, '?'
CONST	ENDS
;	COMDAT __real@c12e848000000000
CONST	SEGMENT
__real@c12e848000000000 DQ 0c12e848000000000r	; -1e+06
CONST	ENDS
;	COMDAT __real@bff0000000000000
CONST	SEGMENT
__real@bff0000000000000 DQ 0bff0000000000000r	; -1
CONST	ENDS
;	COMDAT __real@412e848000000000
CONST	SEGMENT
__real@412e848000000000 DQ 0412e848000000000r	; 1e+06
CONST	ENDS
;	COMDAT __real@40dfffc000000000
CONST	SEGMENT
__real@40dfffc000000000 DQ 040dfffc000000000r	; 32767
CONST	ENDS
;	COMDAT __real@40800000
CONST	SEGMENT
__real@40800000 DD 040800000r			; 4
CONST	ENDS
;	COMDAT __real@40490fdb
CONST	SEGMENT
__real@40490fdb DD 040490fdbr			; 3.14159
CONST	ENDS
;	COMDAT __real@40400000
CONST	SEGMENT
__real@40400000 DD 040400000r			; 3
CONST	ENDS
;	COMDAT __real@40000000
CONST	SEGMENT
__real@40000000 DD 040000000r			; 2
CONST	ENDS
;	COMDAT __real@3ff99999a0000000
CONST	SEGMENT
__real@3ff99999a0000000 DQ 03ff99999a0000000r	; 1.6
CONST	ENDS
;	COMDAT __real@3ff0000000000000
CONST	SEGMENT
__real@3ff0000000000000 DQ 03ff0000000000000r	; 1
CONST	ENDS
;	COMDAT __real@3fe921fb54442d18
CONST	SEGMENT
__real@3fe921fb54442d18 DQ 03fe921fb54442d18r	; 0.785398
CONST	ENDS
;	COMDAT __real@3fcccccd
CONST	SEGMENT
__real@3fcccccd DD 03fcccccdr			; 1.6
CONST	ENDS
;	COMDAT __real@3fc90fdb
CONST	SEGMENT
__real@3fc90fdb DD 03fc90fdbr			; 1.5708
CONST	ENDS
;	COMDAT __real@3f800000
CONST	SEGMENT
__real@3f800000 DD 03f800000r			; 1
CONST	ENDS
;	COMDAT __real@3f1a36e2e0000000
CONST	SEGMENT
__real@3f1a36e2e0000000 DQ 03f1a36e2e0000000r	; 0.0001
CONST	ENDS
;	COMDAT __real@3f000000
CONST	SEGMENT
__real@3f000000 DD 03f000000r			; 0.5
CONST	ENDS
;	COMDAT __real@3d4ccccd
CONST	SEGMENT
__real@3d4ccccd DD 03d4ccccdr			; 0.05
CONST	ENDS
;	COMDAT __real@3a83126f
CONST	SEGMENT
__real@3a83126f DD 03a83126fr			; 0.001
CONST	ENDS
;	COMDAT ??_R1A@?0A@EA@BerconGradientDlgProc@@8
rdata$r	SEGMENT
??_R1A@?0A@EA@BerconGradientDlgProc@@8 DD imagerel ??_R0?AVBerconGradientDlgProc@@@8 ; BerconGradientDlgProc::`RTTI Base Class Descriptor at (0,-1,0,64)'
	DD	02H
	DD	00H
	DD	0ffffffffH
	DD	00H
	DD	040H
	DD	imagerel ??_R3BerconGradientDlgProc@@8
rdata$r	ENDS
;	COMDAT ??_R2BerconGradientDlgProc@@8
rdata$r	SEGMENT
??_R2BerconGradientDlgProc@@8 DD imagerel ??_R1A@?0A@EA@BerconGradientDlgProc@@8 ; BerconGradientDlgProc::`RTTI Base Class Array'
	DD	imagerel ??_R1A@?0A@EA@ParamMap2UserDlgProc@@8
	DD	imagerel ??_R17?0A@EA@MaxHeapOperators@@8
	ORG $+3
rdata$r	ENDS
;	COMDAT ??_R3BerconGradientDlgProc@@8
rdata$r	SEGMENT
??_R3BerconGradientDlgProc@@8 DD 00H			; BerconGradientDlgProc::`RTTI Class Hierarchy Descriptor'
	DD	00H
	DD	03H
	DD	imagerel ??_R2BerconGradientDlgProc@@8
rdata$r	ENDS
;	COMDAT ??_R0?AVBerconGradientDlgProc@@@8
data$r	SEGMENT
??_R0?AVBerconGradientDlgProc@@@8 DQ FLAT:??_7type_info@@6B@ ; BerconGradientDlgProc `RTTI Type Descriptor'
	DQ	0000000000000000H
	DB	'.?AVBerconGradientDlgProc@@', 00H
data$r	ENDS
;	COMDAT ??_R4BerconGradientDlgProc@@6B@
rdata$r	SEGMENT
??_R4BerconGradientDlgProc@@6B@ DD 01H			; BerconGradientDlgProc::`RTTI Complete Object Locator'
	DD	00H
	DD	00H
	DD	imagerel ??_R0?AVBerconGradientDlgProc@@@8
	DD	imagerel ??_R3BerconGradientDlgProc@@8
	DD	imagerel ??_R4BerconGradientDlgProc@@6B@
rdata$r	ENDS
;	COMDAT ??_R4BerconGradient@@6BResourceMakerCallback@@@
rdata$r	SEGMENT
??_R4BerconGradient@@6BResourceMakerCallback@@@ DD 01H	; BerconGradient::`RTTI Complete Object Locator'
	DD	098H
	DD	00H
	DD	imagerel ??_R0?AVBerconGradient@@@8
	DD	imagerel ??_R3BerconGradient@@8
	DD	imagerel ??_R4BerconGradient@@6BResourceMakerCallback@@@
rdata$r	ENDS
;	COMDAT ??_R4BerconGradient@@6BGradientMap@@@
rdata$r	SEGMENT
??_R4BerconGradient@@6BGradientMap@@@ DD 01H		; BerconGradient::`RTTI Complete Object Locator'
	DD	090H
	DD	00H
	DD	imagerel ??_R0?AVBerconGradient@@@8
	DD	imagerel ??_R3BerconGradient@@8
	DD	imagerel ??_R4BerconGradient@@6BGradientMap@@@
rdata$r	ENDS
;	COMDAT ??_R4BerconGradient@@6BISubMap@@@
rdata$r	SEGMENT
??_R4BerconGradient@@6BISubMap@@@ DD 01H		; BerconGradient::`RTTI Complete Object Locator'
	DD	048H
	DD	00H
	DD	imagerel ??_R0?AVBerconGradient@@@8
	DD	imagerel ??_R3BerconGradient@@8
	DD	imagerel ??_R4BerconGradient@@6BISubMap@@@
rdata$r	ENDS
;	COMDAT ??_R1KA@?0A@EC@MaxHeapOperators@@8
rdata$r	SEGMENT
??_R1KA@?0A@EC@MaxHeapOperators@@8 DD imagerel ??_R0?AVMaxHeapOperators@@@8 ; MaxHeapOperators::`RTTI Base Class Descriptor at (160,-1,0,66)'
	DD	00H
	DD	0a0H
	DD	0ffffffffH
	DD	00H
	DD	042H
	DD	imagerel ??_R3MaxHeapOperators@@8
rdata$r	ENDS
;	COMDAT ??_R1JI@?0A@EA@ResourceMakerCallback@@8
rdata$r	SEGMENT
??_R1JI@?0A@EA@ResourceMakerCallback@@8 DD imagerel ??_R0?AVResourceMakerCallback@@@8 ; ResourceMakerCallback::`RTTI Base Class Descriptor at (152,-1,0,64)'
	DD	01H
	DD	098H
	DD	0ffffffffH
	DD	00H
	DD	040H
	DD	imagerel ??_R3ResourceMakerCallback@@8
rdata$r	ENDS
;	COMDAT ??_R1JA@?0A@EA@GradientMap@@8
rdata$r	SEGMENT
??_R1JA@?0A@EA@GradientMap@@8 DD imagerel ??_R0?AVGradientMap@@@8 ; GradientMap::`RTTI Base Class Descriptor at (144,-1,0,64)'
	DD	00H
	DD	090H
	DD	0ffffffffH
	DD	00H
	DD	040H
	DD	imagerel ??_R3GradientMap@@8
rdata$r	ENDS
;	COMDAT ??_R1EI@?0A@EA@ISubMap@@8
rdata$r	SEGMENT
??_R1EI@?0A@EA@ISubMap@@8 DD imagerel ??_R0?AVISubMap@@@8 ; ISubMap::`RTTI Base Class Descriptor at (72,-1,0,64)'
	DD	01H
	DD	048H
	DD	0ffffffffH
	DD	00H
	DD	040H
	DD	imagerel ??_R3ISubMap@@8
rdata$r	ENDS
;	COMDAT ??_R2MtlBase@@8
rdata$r	SEGMENT
??_R2MtlBase@@8 DD imagerel ??_R1A@?0A@EA@MtlBase@@8	; MtlBase::`RTTI Base Class Array'
	DD	imagerel ??_R1A@?0A@EA@ReferenceTarget@@8
	DD	imagerel ??_R1A@?0A@EA@ReferenceMaker@@8
	DD	imagerel ??_R1A@?0A@EA@Animatable@@8
	DD	imagerel ??_R1A@?0A@EA@InterfaceServer@@8
	DD	imagerel ??_R17?0A@EC@MaxHeapOperators@@8
	DD	imagerel ??_R18?0A@EA@Noncopyable@Util@MaxSDK@@8
	DD	imagerel ??_R18?0A@EC@MaxHeapOperators@@8
	DD	imagerel ??_R1EI@?0A@EA@ISubMap@@8
	DD	imagerel ??_R1FA@?0A@EC@MaxHeapOperators@@8
	ORG $+3
rdata$r	ENDS
;	COMDAT ??_R3MtlBase@@8
rdata$r	SEGMENT
??_R3MtlBase@@8 DD 00H					; MtlBase::`RTTI Class Hierarchy Descriptor'
	DD	01H
	DD	0aH
	DD	imagerel ??_R2MtlBase@@8
rdata$r	ENDS
;	COMDAT ??_R0?AVMtlBase@@@8
data$r	SEGMENT
??_R0?AVMtlBase@@@8 DQ FLAT:??_7type_info@@6B@		; MtlBase `RTTI Type Descriptor'
	DQ	0000000000000000H
	DB	'.?AVMtlBase@@', 00H
data$r	ENDS
;	COMDAT ??_R1A@?0A@EA@MtlBase@@8
rdata$r	SEGMENT
??_R1A@?0A@EA@MtlBase@@8 DD imagerel ??_R0?AVMtlBase@@@8 ; MtlBase::`RTTI Base Class Descriptor at (0,-1,0,64)'
	DD	09H
	DD	00H
	DD	0ffffffffH
	DD	00H
	DD	040H
	DD	imagerel ??_R3MtlBase@@8
rdata$r	ENDS
;	COMDAT ??_R2Texmap@@8
rdata$r	SEGMENT
??_R2Texmap@@8 DD imagerel ??_R1A@?0A@EA@Texmap@@8	; Texmap::`RTTI Base Class Array'
	DD	imagerel ??_R1A@?0A@EA@MtlBase@@8
	DD	imagerel ??_R1A@?0A@EA@ReferenceTarget@@8
	DD	imagerel ??_R1A@?0A@EA@ReferenceMaker@@8
	DD	imagerel ??_R1A@?0A@EA@Animatable@@8
	DD	imagerel ??_R1A@?0A@EA@InterfaceServer@@8
	DD	imagerel ??_R17?0A@EC@MaxHeapOperators@@8
	DD	imagerel ??_R18?0A@EA@Noncopyable@Util@MaxSDK@@8
	DD	imagerel ??_R18?0A@EC@MaxHeapOperators@@8
	DD	imagerel ??_R1EI@?0A@EA@ISubMap@@8
	DD	imagerel ??_R1FA@?0A@EC@MaxHeapOperators@@8
	ORG $+3
rdata$r	ENDS
;	COMDAT ??_R3Texmap@@8
rdata$r	SEGMENT
??_R3Texmap@@8 DD 00H					; Texmap::`RTTI Class Hierarchy Descriptor'
	DD	01H
	DD	0bH
	DD	imagerel ??_R2Texmap@@8
rdata$r	ENDS
;	COMDAT ??_R0?AVTexmap@@@8
data$r	SEGMENT
??_R0?AVTexmap@@@8 DQ FLAT:??_7type_info@@6B@		; Texmap `RTTI Type Descriptor'
	DQ	0000000000000000H
	DB	'.?AVTexmap@@', 00H
data$r	ENDS
;	COMDAT ??_R1A@?0A@EA@Texmap@@8
rdata$r	SEGMENT
??_R1A@?0A@EA@Texmap@@8 DD imagerel ??_R0?AVTexmap@@@8	; Texmap::`RTTI Base Class Descriptor at (0,-1,0,64)'
	DD	0aH
	DD	00H
	DD	0ffffffffH
	DD	00H
	DD	040H
	DD	imagerel ??_R3Texmap@@8
rdata$r	ENDS
;	COMDAT ??_R1A@?0A@EA@BerconGradient@@8
rdata$r	SEGMENT
??_R1A@?0A@EA@BerconGradient@@8 DD imagerel ??_R0?AVBerconGradient@@@8 ; BerconGradient::`RTTI Base Class Descriptor at (0,-1,0,64)'
	DD	0eH
	DD	00H
	DD	0ffffffffH
	DD	00H
	DD	040H
	DD	imagerel ??_R3BerconGradient@@8
rdata$r	ENDS
;	COMDAT ??_R2BerconGradient@@8
rdata$r	SEGMENT
??_R2BerconGradient@@8 DD imagerel ??_R1A@?0A@EA@BerconGradient@@8 ; BerconGradient::`RTTI Base Class Array'
	DD	imagerel ??_R1A@?0A@EA@Texmap@@8
	DD	imagerel ??_R1A@?0A@EA@MtlBase@@8
	DD	imagerel ??_R1A@?0A@EA@ReferenceTarget@@8
	DD	imagerel ??_R1A@?0A@EA@ReferenceMaker@@8
	DD	imagerel ??_R1A@?0A@EA@Animatable@@8
	DD	imagerel ??_R1A@?0A@EA@InterfaceServer@@8
	DD	imagerel ??_R17?0A@EC@MaxHeapOperators@@8
	DD	imagerel ??_R18?0A@EA@Noncopyable@Util@MaxSDK@@8
	DD	imagerel ??_R18?0A@EC@MaxHeapOperators@@8
	DD	imagerel ??_R1EI@?0A@EA@ISubMap@@8
	DD	imagerel ??_R1FA@?0A@EC@MaxHeapOperators@@8
	DD	imagerel ??_R1JA@?0A@EA@GradientMap@@8
	DD	imagerel ??_R1JI@?0A@EA@ResourceMakerCallback@@8
	DD	imagerel ??_R1KA@?0A@EC@MaxHeapOperators@@8
	ORG $+3
rdata$r	ENDS
;	COMDAT ??_R3BerconGradient@@8
rdata$r	SEGMENT
??_R3BerconGradient@@8 DD 00H				; BerconGradient::`RTTI Class Hierarchy Descriptor'
	DD	05H
	DD	0fH
	DD	imagerel ??_R2BerconGradient@@8
rdata$r	ENDS
;	COMDAT ??_R0?AVBerconGradient@@@8
data$r	SEGMENT
??_R0?AVBerconGradient@@@8 DQ FLAT:??_7type_info@@6B@	; BerconGradient `RTTI Type Descriptor'
	DQ	0000000000000000H
	DB	'.?AVBerconGradient@@', 00H
data$r	ENDS
;	COMDAT ??_R4BerconGradient@@6BReferenceTarget@@@
rdata$r	SEGMENT
??_R4BerconGradient@@6BReferenceTarget@@@ DD 01H	; BerconGradient::`RTTI Complete Object Locator'
	DD	00H
	DD	00H
	DD	imagerel ??_R0?AVBerconGradient@@@8
	DD	imagerel ??_R3BerconGradient@@8
	DD	imagerel ??_R4BerconGradient@@6BReferenceTarget@@@
rdata$r	ENDS
;	COMDAT ??_R1A@?0A@EA@IGradient@@8
rdata$r	SEGMENT
??_R1A@?0A@EA@IGradient@@8 DD imagerel ??_R0?AVIGradient@@@8 ; IGradient::`RTTI Base Class Descriptor at (0,-1,0,64)'
	DD	03H
	DD	00H
	DD	0ffffffffH
	DD	00H
	DD	040H
	DD	imagerel ??_R3IGradient@@8
rdata$r	ENDS
;	COMDAT ??_R2IGradient@@8
rdata$r	SEGMENT
??_R2IGradient@@8 DD imagerel ??_R1A@?0A@EA@IGradient@@8 ; IGradient::`RTTI Base Class Array'
	DD	imagerel ??_R1A@?0A@EA@ICustomControl@@8
	DD	imagerel ??_R1A@?0A@EA@InterfaceServer@@8
	DD	imagerel ??_R17?0A@EA@MaxHeapOperators@@8
	ORG $+3
rdata$r	ENDS
;	COMDAT ??_R3IGradient@@8
rdata$r	SEGMENT
??_R3IGradient@@8 DD 00H				; IGradient::`RTTI Class Hierarchy Descriptor'
	DD	00H
	DD	04H
	DD	imagerel ??_R2IGradient@@8
rdata$r	ENDS
;	COMDAT ??_R0?AVIGradient@@@8
data$r	SEGMENT
??_R0?AVIGradient@@@8 DQ FLAT:??_7type_info@@6B@	; IGradient `RTTI Type Descriptor'
	DQ	0000000000000000H
	DB	'.?AVIGradient@@', 00H
data$r	ENDS
;	COMDAT ??_R4IGradient@@6B@
rdata$r	SEGMENT
??_R4IGradient@@6B@ DD 01H				; IGradient::`RTTI Complete Object Locator'
	DD	00H
	DD	00H
	DD	imagerel ??_R0?AVIGradient@@@8
	DD	imagerel ??_R3IGradient@@8
	DD	imagerel ??_R4IGradient@@6B@
rdata$r	ENDS
;	COMDAT ??_R1A@?0A@EA@GradientMap@@8
rdata$r	SEGMENT
??_R1A@?0A@EA@GradientMap@@8 DD imagerel ??_R0?AVGradientMap@@@8 ; GradientMap::`RTTI Base Class Descriptor at (0,-1,0,64)'
	DD	00H
	DD	00H
	DD	0ffffffffH
	DD	00H
	DD	040H
	DD	imagerel ??_R3GradientMap@@8
rdata$r	ENDS
;	COMDAT ??_R2GradientMap@@8
rdata$r	SEGMENT
??_R2GradientMap@@8 DD imagerel ??_R1A@?0A@EA@GradientMap@@8 ; GradientMap::`RTTI Base Class Array'
	ORG $+3
rdata$r	ENDS
;	COMDAT ??_R3GradientMap@@8
rdata$r	SEGMENT
??_R3GradientMap@@8 DD 00H				; GradientMap::`RTTI Class Hierarchy Descriptor'
	DD	00H
	DD	01H
	DD	imagerel ??_R2GradientMap@@8
rdata$r	ENDS
;	COMDAT ??_R0?AVGradientMap@@@8
data$r	SEGMENT
??_R0?AVGradientMap@@@8 DQ FLAT:??_7type_info@@6B@	; GradientMap `RTTI Type Descriptor'
	DQ	0000000000000000H
	DB	'.?AVGradientMap@@', 00H
data$r	ENDS
;	COMDAT ??_R4GradientMap@@6B@
rdata$r	SEGMENT
??_R4GradientMap@@6B@ DD 01H				; GradientMap::`RTTI Complete Object Locator'
	DD	00H
	DD	00H
	DD	imagerel ??_R0?AVGradientMap@@@8
	DD	imagerel ??_R3GradientMap@@8
	DD	imagerel ??_R4GradientMap@@6B@
rdata$r	ENDS
;	COMDAT ??_R1A@?0A@EA@BerconXYZDlgProc@@8
rdata$r	SEGMENT
??_R1A@?0A@EA@BerconXYZDlgProc@@8 DD imagerel ??_R0?AVBerconXYZDlgProc@@@8 ; BerconXYZDlgProc::`RTTI Base Class Descriptor at (0,-1,0,64)'
	DD	02H
	DD	00H
	DD	0ffffffffH
	DD	00H
	DD	040H
	DD	imagerel ??_R3BerconXYZDlgProc@@8
rdata$r	ENDS
;	COMDAT ??_R2BerconXYZDlgProc@@8
rdata$r	SEGMENT
??_R2BerconXYZDlgProc@@8 DD imagerel ??_R1A@?0A@EA@BerconXYZDlgProc@@8 ; BerconXYZDlgProc::`RTTI Base Class Array'
	DD	imagerel ??_R1A@?0A@EA@ParamMap2UserDlgProc@@8
	DD	imagerel ??_R17?0A@EA@MaxHeapOperators@@8
	ORG $+3
rdata$r	ENDS
;	COMDAT ??_R3BerconXYZDlgProc@@8
rdata$r	SEGMENT
??_R3BerconXYZDlgProc@@8 DD 00H				; BerconXYZDlgProc::`RTTI Class Hierarchy Descriptor'
	DD	00H
	DD	03H
	DD	imagerel ??_R2BerconXYZDlgProc@@8
rdata$r	ENDS
;	COMDAT ??_R0?AVBerconXYZDlgProc@@@8
data$r	SEGMENT
??_R0?AVBerconXYZDlgProc@@@8 DQ FLAT:??_7type_info@@6B@	; BerconXYZDlgProc `RTTI Type Descriptor'
	DQ	0000000000000000H
	DB	'.?AVBerconXYZDlgProc@@', 00H
data$r	ENDS
;	COMDAT ??_R4BerconXYZDlgProc@@6B@
rdata$r	SEGMENT
??_R4BerconXYZDlgProc@@6B@ DD 01H			; BerconXYZDlgProc::`RTTI Complete Object Locator'
	DD	00H
	DD	00H
	DD	imagerel ??_R0?AVBerconXYZDlgProc@@@8
	DD	imagerel ??_R3BerconXYZDlgProc@@8
	DD	imagerel ??_R4BerconXYZDlgProc@@6B@
rdata$r	ENDS
;	COMDAT ??_R1A@?0A@EA@ResourceMakerCallback@@8
rdata$r	SEGMENT
??_R1A@?0A@EA@ResourceMakerCallback@@8 DD imagerel ??_R0?AVResourceMakerCallback@@@8 ; ResourceMakerCallback::`RTTI Base Class Descriptor at (0,-1,0,64)'
	DD	01H
	DD	00H
	DD	0ffffffffH
	DD	00H
	DD	040H
	DD	imagerel ??_R3ResourceMakerCallback@@8
rdata$r	ENDS
;	COMDAT ??_R2ResourceMakerCallback@@8
rdata$r	SEGMENT
??_R2ResourceMakerCallback@@8 DD imagerel ??_R1A@?0A@EA@ResourceMakerCallback@@8 ; ResourceMakerCallback::`RTTI Base Class Array'
	DD	imagerel ??_R17?0A@EA@MaxHeapOperators@@8
	ORG $+3
rdata$r	ENDS
;	COMDAT ??_R3ResourceMakerCallback@@8
rdata$r	SEGMENT
??_R3ResourceMakerCallback@@8 DD 00H			; ResourceMakerCallback::`RTTI Class Hierarchy Descriptor'
	DD	00H
	DD	02H
	DD	imagerel ??_R2ResourceMakerCallback@@8
rdata$r	ENDS
;	COMDAT ??_R0?AVResourceMakerCallback@@@8
data$r	SEGMENT
??_R0?AVResourceMakerCallback@@@8 DQ FLAT:??_7type_info@@6B@ ; ResourceMakerCallback `RTTI Type Descriptor'
	DQ	0000000000000000H
	DB	'.?AVResourceMakerCallback@@', 00H
data$r	ENDS
;	COMDAT ??_R4ResourceMakerCallback@@6B@
rdata$r	SEGMENT
??_R4ResourceMakerCallback@@6B@ DD 01H			; ResourceMakerCallback::`RTTI Complete Object Locator'
	DD	00H
	DD	00H
	DD	imagerel ??_R0?AVResourceMakerCallback@@@8
	DD	imagerel ??_R3ResourceMakerCallback@@8
	DD	imagerel ??_R4ResourceMakerCallback@@6B@
rdata$r	ENDS
;	COMDAT ??_R1A@?0A@EA@?$Tab@PEAVVertexNormalsCallback@@@@8
rdata$r	SEGMENT
??_R1A@?0A@EA@?$Tab@PEAVVertexNormalsCallback@@@@8 DD imagerel ??_R0?AV?$Tab@PEAVVertexNormalsCallback@@@@@8 ; Tab<VertexNormalsCallback * __ptr64>::`RTTI Base Class Descriptor at (0,-1,0,64)'
	DD	01H
	DD	00H
	DD	0ffffffffH
	DD	00H
	DD	040H
	DD	imagerel ??_R3?$Tab@PEAVVertexNormalsCallback@@@@8
rdata$r	ENDS
;	COMDAT ??_R2?$Tab@PEAVVertexNormalsCallback@@@@8
rdata$r	SEGMENT
??_R2?$Tab@PEAVVertexNormalsCallback@@@@8 DD imagerel ??_R1A@?0A@EA@?$Tab@PEAVVertexNormalsCallback@@@@8 ; Tab<VertexNormalsCallback * __ptr64>::`RTTI Base Class Array'
	DD	imagerel ??_R17?0A@EA@MaxHeapOperators@@8
	ORG $+3
rdata$r	ENDS
;	COMDAT ??_R3?$Tab@PEAVVertexNormalsCallback@@@@8
rdata$r	SEGMENT
??_R3?$Tab@PEAVVertexNormalsCallback@@@@8 DD 00H	; Tab<VertexNormalsCallback * __ptr64>::`RTTI Class Hierarchy Descriptor'
	DD	00H
	DD	02H
	DD	imagerel ??_R2?$Tab@PEAVVertexNormalsCallback@@@@8
rdata$r	ENDS
;	COMDAT ??_R0?AV?$Tab@PEAVVertexNormalsCallback@@@@@8
data$r	SEGMENT
??_R0?AV?$Tab@PEAVVertexNormalsCallback@@@@@8 DQ FLAT:??_7type_info@@6B@ ; Tab<VertexNormalsCallback * __ptr64> `RTTI Type Descriptor'
	DQ	0000000000000000H
	DB	'.?AV?$Tab@PEAVVertexNormalsCallback@@@@', 00H
data$r	ENDS
;	COMDAT ??_R4?$Tab@PEAVVertexNormalsCallback@@@@6B@
rdata$r	SEGMENT
??_R4?$Tab@PEAVVertexNormalsCallback@@@@6B@ DD 01H	; Tab<VertexNormalsCallback * __ptr64>::`RTTI Complete Object Locator'
	DD	00H
	DD	00H
	DD	imagerel ??_R0?AV?$Tab@PEAVVertexNormalsCallback@@@@@8
	DD	imagerel ??_R3?$Tab@PEAVVertexNormalsCallback@@@@8
	DD	imagerel ??_R4?$Tab@PEAVVertexNormalsCallback@@@@6B@
rdata$r	ENDS
;	COMDAT ??_R1A@?0A@EA@ICustomControl@@8
rdata$r	SEGMENT
??_R1A@?0A@EA@ICustomControl@@8 DD imagerel ??_R0?AVICustomControl@@@8 ; ICustomControl::`RTTI Base Class Descriptor at (0,-1,0,64)'
	DD	02H
	DD	00H
	DD	0ffffffffH
	DD	00H
	DD	040H
	DD	imagerel ??_R3ICustomControl@@8
rdata$r	ENDS
;	COMDAT ??_R2ICustomControl@@8
rdata$r	SEGMENT
??_R2ICustomControl@@8 DD imagerel ??_R1A@?0A@EA@ICustomControl@@8 ; ICustomControl::`RTTI Base Class Array'
	DD	imagerel ??_R1A@?0A@EA@InterfaceServer@@8
	DD	imagerel ??_R17?0A@EA@MaxHeapOperators@@8
	ORG $+3
rdata$r	ENDS
;	COMDAT ??_R3ICustomControl@@8
rdata$r	SEGMENT
??_R3ICustomControl@@8 DD 00H				; ICustomControl::`RTTI Class Hierarchy Descriptor'
	DD	00H
	DD	03H
	DD	imagerel ??_R2ICustomControl@@8
rdata$r	ENDS
;	COMDAT ??_R0?AVICustomControl@@@8
data$r	SEGMENT
??_R0?AVICustomControl@@@8 DQ FLAT:??_7type_info@@6B@	; ICustomControl `RTTI Type Descriptor'
	DQ	0000000000000000H
	DB	'.?AVICustomControl@@', 00H
data$r	ENDS
;	COMDAT ??_R4ICustomControl@@6B@
rdata$r	SEGMENT
??_R4ICustomControl@@6B@ DD 01H				; ICustomControl::`RTTI Complete Object Locator'
	DD	00H
	DD	00H
	DD	imagerel ??_R0?AVICustomControl@@@8
	DD	imagerel ??_R3ICustomControl@@8
	DD	imagerel ??_R4ICustomControl@@6B@
rdata$r	ENDS
;	COMDAT ??_R1A@?0A@EA@ISubMap@@8
rdata$r	SEGMENT
??_R1A@?0A@EA@ISubMap@@8 DD imagerel ??_R0?AVISubMap@@@8 ; ISubMap::`RTTI Base Class Descriptor at (0,-1,0,64)'
	DD	01H
	DD	00H
	DD	0ffffffffH
	DD	00H
	DD	040H
	DD	imagerel ??_R3ISubMap@@8
rdata$r	ENDS
;	COMDAT ??_R2ISubMap@@8
rdata$r	SEGMENT
??_R2ISubMap@@8 DD imagerel ??_R1A@?0A@EA@ISubMap@@8	; ISubMap::`RTTI Base Class Array'
	DD	imagerel ??_R17?0A@EA@MaxHeapOperators@@8
	ORG $+3
rdata$r	ENDS
;	COMDAT ??_R3ISubMap@@8
rdata$r	SEGMENT
??_R3ISubMap@@8 DD 00H					; ISubMap::`RTTI Class Hierarchy Descriptor'
	DD	00H
	DD	02H
	DD	imagerel ??_R2ISubMap@@8
rdata$r	ENDS
;	COMDAT ??_R0?AVISubMap@@@8
data$r	SEGMENT
??_R0?AVISubMap@@@8 DQ FLAT:??_7type_info@@6B@		; ISubMap `RTTI Type Descriptor'
	DQ	0000000000000000H
	DB	'.?AVISubMap@@', 00H
data$r	ENDS
;	COMDAT ??_R1A@?0A@EA@ParamMap2UserDlgProc@@8
rdata$r	SEGMENT
??_R1A@?0A@EA@ParamMap2UserDlgProc@@8 DD imagerel ??_R0?AVParamMap2UserDlgProc@@@8 ; ParamMap2UserDlgProc::`RTTI Base Class Descriptor at (0,-1,0,64)'
	DD	01H
	DD	00H
	DD	0ffffffffH
	DD	00H
	DD	040H
	DD	imagerel ??_R3ParamMap2UserDlgProc@@8
rdata$r	ENDS
;	COMDAT ??_R2ParamMap2UserDlgProc@@8
rdata$r	SEGMENT
??_R2ParamMap2UserDlgProc@@8 DD imagerel ??_R1A@?0A@EA@ParamMap2UserDlgProc@@8 ; ParamMap2UserDlgProc::`RTTI Base Class Array'
	DD	imagerel ??_R17?0A@EA@MaxHeapOperators@@8
	ORG $+3
rdata$r	ENDS
;	COMDAT ??_R3ParamMap2UserDlgProc@@8
rdata$r	SEGMENT
??_R3ParamMap2UserDlgProc@@8 DD 00H			; ParamMap2UserDlgProc::`RTTI Class Hierarchy Descriptor'
	DD	00H
	DD	02H
	DD	imagerel ??_R2ParamMap2UserDlgProc@@8
rdata$r	ENDS
;	COMDAT ??_R0?AVParamMap2UserDlgProc@@@8
data$r	SEGMENT
??_R0?AVParamMap2UserDlgProc@@@8 DQ FLAT:??_7type_info@@6B@ ; ParamMap2UserDlgProc `RTTI Type Descriptor'
	DQ	0000000000000000H
	DB	'.?AVParamMap2UserDlgProc@@', 00H
data$r	ENDS
;	COMDAT ??_R4ParamMap2UserDlgProc@@6B@
rdata$r	SEGMENT
??_R4ParamMap2UserDlgProc@@6B@ DD 01H			; ParamMap2UserDlgProc::`RTTI Complete Object Locator'
	DD	00H
	DD	00H
	DD	imagerel ??_R0?AVParamMap2UserDlgProc@@@8
	DD	imagerel ??_R3ParamMap2UserDlgProc@@8
	DD	imagerel ??_R4ParamMap2UserDlgProc@@6B@
rdata$r	ENDS
;	COMDAT ??_R1FA@?0A@EC@MaxHeapOperators@@8
rdata$r	SEGMENT
??_R1FA@?0A@EC@MaxHeapOperators@@8 DD imagerel ??_R0?AVMaxHeapOperators@@@8 ; MaxHeapOperators::`RTTI Base Class Descriptor at (80,-1,0,66)'
	DD	00H
	DD	050H
	DD	0ffffffffH
	DD	00H
	DD	042H
	DD	imagerel ??_R3MaxHeapOperators@@8
rdata$r	ENDS
;	COMDAT ??_R18?0A@EC@MaxHeapOperators@@8
rdata$r	SEGMENT
??_R18?0A@EC@MaxHeapOperators@@8 DD imagerel ??_R0?AVMaxHeapOperators@@@8 ; MaxHeapOperators::`RTTI Base Class Descriptor at (9,-1,0,66)'
	DD	00H
	DD	09H
	DD	0ffffffffH
	DD	00H
	DD	042H
	DD	imagerel ??_R3MaxHeapOperators@@8
rdata$r	ENDS
;	COMDAT ??_R18?0A@EA@Noncopyable@Util@MaxSDK@@8
rdata$r	SEGMENT
??_R18?0A@EA@Noncopyable@Util@MaxSDK@@8 DD imagerel ??_R0?AVNoncopyable@Util@MaxSDK@@@8 ; MaxSDK::Util::Noncopyable::`RTTI Base Class Descriptor at (9,-1,0,64)'
	DD	01H
	DD	09H
	DD	0ffffffffH
	DD	00H
	DD	040H
	DD	imagerel ??_R3Noncopyable@Util@MaxSDK@@8
rdata$r	ENDS
;	COMDAT ??_R2Animatable@@8
rdata$r	SEGMENT
??_R2Animatable@@8 DD imagerel ??_R1A@?0A@EA@Animatable@@8 ; Animatable::`RTTI Base Class Array'
	DD	imagerel ??_R1A@?0A@EA@InterfaceServer@@8
	DD	imagerel ??_R17?0A@EC@MaxHeapOperators@@8
	DD	imagerel ??_R18?0A@EA@Noncopyable@Util@MaxSDK@@8
	DD	imagerel ??_R18?0A@EC@MaxHeapOperators@@8
	ORG $+3
rdata$r	ENDS
;	COMDAT ??_R3Animatable@@8
rdata$r	SEGMENT
??_R3Animatable@@8 DD 00H				; Animatable::`RTTI Class Hierarchy Descriptor'
	DD	05H
	DD	05H
	DD	imagerel ??_R2Animatable@@8
rdata$r	ENDS
;	COMDAT ??_R0?AVAnimatable@@@8
data$r	SEGMENT
??_R0?AVAnimatable@@@8 DQ FLAT:??_7type_info@@6B@	; Animatable `RTTI Type Descriptor'
	DQ	0000000000000000H
	DB	'.?AVAnimatable@@', 00H
data$r	ENDS
;	COMDAT ??_R1A@?0A@EA@Animatable@@8
rdata$r	SEGMENT
??_R1A@?0A@EA@Animatable@@8 DD imagerel ??_R0?AVAnimatable@@@8 ; Animatable::`RTTI Base Class Descriptor at (0,-1,0,64)'
	DD	04H
	DD	00H
	DD	0ffffffffH
	DD	00H
	DD	040H
	DD	imagerel ??_R3Animatable@@8
rdata$r	ENDS
;	COMDAT ??_R2ReferenceMaker@@8
rdata$r	SEGMENT
??_R2ReferenceMaker@@8 DD imagerel ??_R1A@?0A@EA@ReferenceMaker@@8 ; ReferenceMaker::`RTTI Base Class Array'
	DD	imagerel ??_R1A@?0A@EA@Animatable@@8
	DD	imagerel ??_R1A@?0A@EA@InterfaceServer@@8
	DD	imagerel ??_R17?0A@EC@MaxHeapOperators@@8
	DD	imagerel ??_R18?0A@EA@Noncopyable@Util@MaxSDK@@8
	DD	imagerel ??_R18?0A@EC@MaxHeapOperators@@8
	ORG $+3
rdata$r	ENDS
;	COMDAT ??_R3ReferenceMaker@@8
rdata$r	SEGMENT
??_R3ReferenceMaker@@8 DD 00H				; ReferenceMaker::`RTTI Class Hierarchy Descriptor'
	DD	01H
	DD	06H
	DD	imagerel ??_R2ReferenceMaker@@8
rdata$r	ENDS
;	COMDAT ??_R0?AVReferenceMaker@@@8
data$r	SEGMENT
??_R0?AVReferenceMaker@@@8 DQ FLAT:??_7type_info@@6B@	; ReferenceMaker `RTTI Type Descriptor'
	DQ	0000000000000000H
	DB	'.?AVReferenceMaker@@', 00H
data$r	ENDS
;	COMDAT ??_R1A@?0A@EA@ReferenceMaker@@8
rdata$r	SEGMENT
??_R1A@?0A@EA@ReferenceMaker@@8 DD imagerel ??_R0?AVReferenceMaker@@@8 ; ReferenceMaker::`RTTI Base Class Descriptor at (0,-1,0,64)'
	DD	05H
	DD	00H
	DD	0ffffffffH
	DD	00H
	DD	040H
	DD	imagerel ??_R3ReferenceMaker@@8
rdata$r	ENDS
;	COMDAT ??_R2ReferenceTarget@@8
rdata$r	SEGMENT
??_R2ReferenceTarget@@8 DD imagerel ??_R1A@?0A@EA@ReferenceTarget@@8 ; ReferenceTarget::`RTTI Base Class Array'
	DD	imagerel ??_R1A@?0A@EA@ReferenceMaker@@8
	DD	imagerel ??_R1A@?0A@EA@Animatable@@8
	DD	imagerel ??_R1A@?0A@EA@InterfaceServer@@8
	DD	imagerel ??_R17?0A@EC@MaxHeapOperators@@8
	DD	imagerel ??_R18?0A@EA@Noncopyable@Util@MaxSDK@@8
	DD	imagerel ??_R18?0A@EC@MaxHeapOperators@@8
	ORG $+3
rdata$r	ENDS
;	COMDAT ??_R3ReferenceTarget@@8
rdata$r	SEGMENT
??_R3ReferenceTarget@@8 DD 00H				; ReferenceTarget::`RTTI Class Hierarchy Descriptor'
	DD	01H
	DD	07H
	DD	imagerel ??_R2ReferenceTarget@@8
rdata$r	ENDS
;	COMDAT ??_R0?AVReferenceTarget@@@8
data$r	SEGMENT
??_R0?AVReferenceTarget@@@8 DQ FLAT:??_7type_info@@6B@	; ReferenceTarget `RTTI Type Descriptor'
	DQ	0000000000000000H
	DB	'.?AVReferenceTarget@@', 00H
data$r	ENDS
;	COMDAT ??_R1A@?0A@EA@ReferenceTarget@@8
rdata$r	SEGMENT
??_R1A@?0A@EA@ReferenceTarget@@8 DD imagerel ??_R0?AVReferenceTarget@@@8 ; ReferenceTarget::`RTTI Base Class Descriptor at (0,-1,0,64)'
	DD	06H
	DD	00H
	DD	0ffffffffH
	DD	00H
	DD	040H
	DD	imagerel ??_R3ReferenceTarget@@8
rdata$r	ENDS
;	COMDAT ??_R4InterfaceServer@@6B@
rdata$r	SEGMENT
??_R4InterfaceServer@@6B@ DD 01H			; InterfaceServer::`RTTI Complete Object Locator'
	DD	00H
	DD	00H
	DD	imagerel ??_R0?AVInterfaceServer@@@8
	DD	imagerel ??_R3InterfaceServer@@8
	DD	imagerel ??_R4InterfaceServer@@6B@
rdata$r	ENDS
;	COMDAT ?n1@?L@??getGradientValue@BerconGradient@@QEAAMAEAVShadeContext@@@Z@4MA
_DATA	SEGMENT
?n1@?L@??getGradientValue@BerconGradient@@QEAAMAEAVShadeContext@@@Z@4MA DD 03f800000r ; 1 ; `BerconGradient::getGradientValue'::`11'::n1
_DATA	ENDS
;	COMDAT ??_7BerconGradientDlgProc@@6B@
CONST	SEGMENT
??_7BerconGradientDlgProc@@6B@ DQ FLAT:??_R4BerconGradientDlgProc@@6B@ ; BerconGradientDlgProc::`vftable'
	DQ	FLAT:??_EBerconGradientDlgProc@@UEAAPEAXI@Z
	DQ	FLAT:?DlgProc@BerconGradientDlgProc@@UEAA_JHPEAVIParamMap2@@PEAUHWND__@@I_K_J@Z
	DQ	FLAT:?DeleteThis@BerconGradientDlgProc@@UEAAXXZ
	DQ	FLAT:?SetThing@BerconGradientDlgProc@@UEAAXPEAVReferenceTarget@@@Z
	DQ	FLAT:?Update@ParamMap2UserDlgProc@@UEAAXHAEAVInterval@@PEAVIParamMap2@@@Z
	DQ	FLAT:?Update@ParamMap2UserDlgProc@@UEAAXH@Z
	DQ	FLAT:?SetParamBlock@ParamMap2UserDlgProc@@UEAAXPEAVIParamBlock2@@@Z
CONST	ENDS
;	COMDAT ??_7BerconGradient@@6BResourceMakerCallback@@@
CONST	SEGMENT
??_7BerconGradient@@6BResourceMakerCallback@@@ DQ FLAT:??_R4BerconGradient@@6BResourceMakerCallback@@@ ; BerconGradient::`vftable'
	DQ	FLAT:?SetCustomImageList@BerconGradient@@UEAAHAEAPEAU_IMAGELIST@@PEAVICurveCtl@@@Z
	DQ	FLAT:?GetToolTip@BerconGradient@@UEAAHHAEAVWStr@@PEAVICurveCtl@@@Z
	DQ	FLAT:?ResetCallback@ResourceMakerCallback@@UEAAXHPEAVICurveCtl@@@Z
	DQ	FLAT:?NewCurveCreatedCallback@ResourceMakerCallback@@UEAAXHPEAVICurveCtl@@@Z
	DQ	FLAT:?GetInterface@BerconGradient@@WJI@EAAPEAXK@Z
CONST	ENDS
;	COMDAT ??_7BerconGradient@@6BGradientMap@@@
CONST	SEGMENT
??_7BerconGradient@@6BGradientMap@@@ DQ FLAT:??_R4BerconGradient@@6BGradientMap@@@ ; BerconGradient::`vftable'
	DQ	FLAT:?gradAddKey@BerconGradient@@UEAAXM@Z
	DQ	FLAT:?gradMoveKey@BerconGradient@@UEAAXHM@Z
	DQ	FLAT:?gradDelKey@BerconGradient@@UEAAXH@Z
	DQ	FLAT:?gradSelKey@BerconGradient@@UEAAXXZ
	DQ	FLAT:?gradReset@BerconGradient@@UEAAXXZ
CONST	ENDS
;	COMDAT ??_7BerconGradient@@6BISubMap@@@
CONST	SEGMENT
??_7BerconGradient@@6BISubMap@@@ DQ FLAT:??_R4BerconGradient@@6BISubMap@@@ ; BerconGradient::`vftable'
	DQ	FLAT:??_EBerconGradient@@WEI@EAAPEAXI@Z
	DQ	FLAT:?NumSubTexmaps@BerconGradient@@UEAAHXZ
	DQ	FLAT:?GetSubTexmap@BerconGradient@@UEAAPEAVTexmap@@H@Z
	DQ	FLAT:?MapSlotType@Texmap@@UEAAHH@Z
	DQ	FLAT:?SetSubTexmap@BerconGradient@@UEAAXHPEAVTexmap@@@Z
	DQ	FLAT:?SubTexmapOn@ISubMap@@UEAAHH@Z
	DQ	FLAT:?GetSubTexmapSlotName@BerconGradient@@UEAA?AVWStr@@H@Z
	DQ	FLAT:?SetDlgThing@BerconGradient@@UEAAHPEAVParamDlg@@@Z
	DQ	FLAT:?GetRefTarget@MtlBase@@UEAAPEAVReferenceTarget@@XZ
CONST	ENDS
;	COMDAT ??_7BerconGradient@@6BReferenceTarget@@@
CONST	SEGMENT
??_7BerconGradient@@6BReferenceTarget@@@ DQ FLAT:??_R4BerconGradient@@6BReferenceTarget@@@ ; BerconGradient::`vftable'
	DQ	FLAT:??_EBerconGradient@@UEAAPEAXI@Z
	DQ	FLAT:?GetInterface@MtlBase@@UEAAPEAVBaseInterface@@VInterface_ID@@@Z
	DQ	FLAT:?DeleteThis@BerconGradient@@UEAAXXZ
	DQ	FLAT:?GetClassName@BerconGradient@@UEAAXAEAVWStr@@@Z
	DQ	FLAT:?SuperClassID@BerconGradient@@UEAAKXZ
	DQ	FLAT:?ClassID@BerconGradient@@UEAA?AVClass_ID@@XZ
	DQ	FLAT:?FreeCaches@Animatable@@UEAAXXZ
	DQ	FLAT:?BeginEditParams@Animatable@@UEAAXPEAVIObjParam@@KPEAV1@@Z
	DQ	FLAT:?EndEditParams@Animatable@@UEAAXPEAVIObjParam@@KPEAV1@@Z
	DQ	FLAT:?GetInterface@BerconGradient@@UEAAPEAXK@Z
	DQ	FLAT:?ReleaseInterface@Animatable@@UEAAXKPEAX@Z
	DQ	FLAT:?SetProperty@MtlBase@@UEAAHKPEAX@Z
	DQ	FLAT:?GetProperty@MtlBase@@UEAAPEAXK@Z
	DQ	FLAT:?NumSubs@BerconGradient@@UEAAHXZ
	DQ	FLAT:?SubAnim@BerconGradient@@UEAAPEAVAnimatable@@H@Z
	DQ	FLAT:?SubAnimName@BerconGradient@@UEAA?AVWStr@@H@Z
	DQ	FLAT:?BypassTreeView@Animatable@@UEAAHXZ
	DQ	FLAT:?BypassTrackBar@Animatable@@UEAAHXZ
	DQ	FLAT:?BypassPropertyLevel@Animatable@@UEAAHXZ
	DQ	FLAT:?InvisibleProperty@Animatable@@UEAAHXZ
	DQ	FLAT:?AssignController@Animatable@@UEAAHPEAV1@H@Z
	DQ	FLAT:?CanAssignController@Animatable@@UEAAHH@Z
	DQ	FLAT:?CanDeleteSubAnim@Animatable@@UEAAHH@Z
	DQ	FLAT:?DeleteSubAnim@Animatable@@UEAAXH@Z
	DQ	FLAT:?GetSubAnimCurveColor@Animatable@@UEAAKH@Z
	DQ	FLAT:?SubNumToRefNum@BerconGradient@@UEAAHH@Z
	DQ	FLAT:?CanCopyAnim@Animatable@@UEAAHXZ
	DQ	FLAT:?CanMakeUnique@Animatable@@UEAAHXZ
	DQ	FLAT:?NumChildren@Animatable@@UEAAHXZ
	DQ	FLAT:?ChildAnim@Animatable@@UEAAPEAV1@H@Z
	DQ	FLAT:?NodeName@Animatable@@UEAA?AVWStr@@XZ
	DQ	FLAT:?RenderBegin@BerconGradient@@UEAAHHK@Z
	DQ	FLAT:?RenderEnd@BerconGradient@@UEAAHH@Z
	DQ	FLAT:?EditTrack@Animatable@@UEAAXXZ
	DQ	FLAT:?NumKeys@Animatable@@UEAAHXZ
	DQ	FLAT:?GetKeyTime@Animatable@@UEAAHH@Z
	DQ	FLAT:?GetKeyIndex@Animatable@@UEAAHH@Z
	DQ	FLAT:?GetNextKeyTime@Animatable@@UEAAHHKAEAH@Z
	DQ	FLAT:?CopyKeysFromTime@Animatable@@UEAAXHHK@Z
	DQ	FLAT:?DeleteKeyAtTime@Animatable@@UEAAXH@Z
	DQ	FLAT:?IsKeyAtTime@Animatable@@UEAAHHK@Z
	DQ	FLAT:?GetKeyTimes@Animatable@@UEAAHAEAV?$Tab@H@@VInterval@@K@Z
	DQ	FLAT:?GetKeySelState@Animatable@@UEAAHAEAVBitArray@@VInterval@@K@Z
	DQ	FLAT:?GetTimeRange@Animatable@@UEAA?AVInterval@@K@Z
	DQ	FLAT:?EditTimeRange@Animatable@@UEAAXVInterval@@K@Z
	DQ	FLAT:?DeleteTime@Animatable@@UEAAXVInterval@@K@Z
	DQ	FLAT:?ReverseTime@Animatable@@UEAAXVInterval@@K@Z
	DQ	FLAT:?ScaleTime@Animatable@@UEAAXVInterval@@M@Z
	DQ	FLAT:?InsertTime@Animatable@@UEAAXHH@Z
	DQ	FLAT:?SupportTimeOperations@Animatable@@UEAAHXZ
	DQ	FLAT:?MapKeys@Animatable@@UEAAXPEAVTimeMap@@K@Z
	DQ	FLAT:?DeleteKeys@Animatable@@UEAAXK@Z
	DQ	FLAT:?DeleteKeyByIndex@Animatable@@UEAAXH@Z
	DQ	FLAT:?SelectKeys@Animatable@@UEAAXAEAV?$Tab@VTrackHitRecord@@@@K@Z
	DQ	FLAT:?SelectSubKeys@Animatable@@UEAAXHAEAV?$Tab@VTrackHitRecord@@@@K@Z
	DQ	FLAT:?SelectSubCurve@Animatable@@UEAAXHH@Z
	DQ	FLAT:?SelectKeyByIndex@Animatable@@UEAAXHH@Z
	DQ	FLAT:?IsKeySelected@Animatable@@UEAAHH@Z
	DQ	FLAT:?FlagKey@Animatable@@UEAAXVTrackHitRecord@@@Z
	DQ	FLAT:?GetFlagKeyIndex@Animatable@@UEAAHXZ
	DQ	FLAT:?NumSelKeys@Animatable@@UEAAHXZ
	DQ	FLAT:?CloneSelectedKeys@Animatable@@UEAAXH@Z
	DQ	FLAT:?AddNewKey@Animatable@@UEAAXHK@Z
	DQ	FLAT:?MoveKeys@Animatable@@UEAAXPEAVParamDimensionBase@@MK@Z
	DQ	FLAT:?ScaleKeyValues@Animatable@@UEAAXPEAVParamDimensionBase@@MMK@Z
	DQ	FLAT:?SelectCurve@Animatable@@UEAAXH@Z
	DQ	FLAT:?IsCurveSelected@Animatable@@UEAAHXZ
	DQ	FLAT:?IsSubCurveSelected@Animatable@@UEAAHH@Z
	DQ	FLAT:?GetSelKeyCoords@Animatable@@UEAAHAEAHAEAMK@Z
	DQ	FLAT:?SetSelKeyCoords@Animatable@@UEAAXHMK@Z
	DQ	FLAT:?SetSelKeyCoordsExpr@Animatable@@UEAAHPEAVParamDimension@@PEB_W1K@Z
	DQ	FLAT:?AdjustTangents@Animatable@@UEAAXVTrackHitRecord@@PEAVParamDimensionBase@@MMK@Z
	DQ	FLAT:?AdjustTangents@Animatable@@UEAAXVTrackHitRecord@@PEAVParamDimensionBase@@AEAVBox2@@MHMHHHK@Z
	DQ	FLAT:?SubAnimSetKeyBufferPresent@Animatable@@UEAAHH@Z
	DQ	FLAT:?SetKeyBufferPresent@Animatable@@UEAAHXZ
	DQ	FLAT:?SubAnimCommitSetKeyBuffer@Animatable@@UEAAXHH@Z
	DQ	FLAT:?CommitSetKeyBuffer@Animatable@@UEAAXH@Z
	DQ	FLAT:?SubAnimRevertSetKeyBuffer@Animatable@@UEAAXH@Z
	DQ	FLAT:?RevertSetKeyBuffer@Animatable@@UEAAXXZ
	DQ	FLAT:?IsAnimated@Animatable@@UEAAHXZ
	DQ	FLAT:?CanCopyTrack@Animatable@@UEAAHVInterval@@K@Z
	DQ	FLAT:?CanPasteTrack@Animatable@@UEAAHPEAVTrackClipObject@@VInterval@@K@Z
	DQ	FLAT:?CopyTrack@Animatable@@UEAAPEAVTrackClipObject@@VInterval@@K@Z
	DQ	FLAT:?PasteTrack@Animatable@@UEAAXPEAVTrackClipObject@@VInterval@@K@Z
	DQ	FLAT:?CanCopySubTrack@Animatable@@UEAAHHVInterval@@K@Z
	DQ	FLAT:?CanPasteSubTrack@Animatable@@UEAAHHPEAVTrackClipObject@@VInterval@@K@Z
	DQ	FLAT:?CopySubTrack@Animatable@@UEAAPEAVTrackClipObject@@HVInterval@@K@Z
	DQ	FLAT:?PasteSubTrack@Animatable@@UEAAXHPEAVTrackClipObject@@VInterval@@K@Z
	DQ	FLAT:?GetTrackVSpace@Animatable@@UEAAHH@Z
	DQ	FLAT:?HitTestTrack@Animatable@@UEAAHAEAV?$Tab@VTrackHitRecord@@@@AEAVBox2@@1MHK@Z
	DQ	FLAT:?PaintTrack@Animatable@@UEAAHPEAVParamDimensionBase@@PEAUHDC__@@AEAVBox2@@2MHK@Z
	DQ	FLAT:?PaintSubTrack@Animatable@@UEAAHHPEAVParamDimensionBase@@PEAUHDC__@@AEAVBox2@@2MHK@Z
	DQ	FLAT:?PaintFCurves@Animatable@@UEAAHPEAVParamDimensionBase@@PEAUHDC__@@AEAVBox2@@2MHMHK@Z
	DQ	FLAT:?HitTestFCurves@Animatable@@UEAAHPEAVParamDimensionBase@@AEAV?$Tab@VTrackHitRecord@@@@AEAVBox2@@2MHMHK@Z
	DQ	FLAT:?PaintSubFCurves@Animatable@@UEAAHHPEAVParamDimensionBase@@PEAUHDC__@@AEAVBox2@@2MHMHK@Z
	DQ	FLAT:?HitTestSubFCurves@Animatable@@UEAAHHPEAVParamDimensionBase@@AEAV?$Tab@VTrackHitRecord@@@@AEAVBox2@@2MHMHK@Z
	DQ	FLAT:?EditTrackParams@Animatable@@UEAAXHPEAVParamDimensionBase@@PEB_WPEAUHWND__@@PEAVIObjParam@@K@Z
	DQ	FLAT:?TrackParamsType@Animatable@@UEAAHXZ
	DQ	FLAT:?GetFCurveExtents@Animatable@@UEAAHPEAVParamDimensionBase@@AEAM1K@Z
	DQ	FLAT:?GetSubFCurveExtents@Animatable@@UEAAHHPEAVParamDimensionBase@@AEAM1K@Z
	DQ	FLAT:?GetParamDimension@Animatable@@UEAAPEAVParamDimension@@H@Z
	DQ	FLAT:?TrackViewWinProc@Animatable@@UEAA_JPEAUHWND__@@I_K_J@Z
	DQ	FLAT:?SelectSubAnim@Animatable@@UEAAHH@Z
	DQ	FLAT:?EnumAuxFiles@MtlBase@@UEAAXAEAVAssetEnumCallback@@K@Z
	DQ	FLAT:?FreeAllBitmaps@Animatable@@UEAAXXZ
	DQ	FLAT:?GetSystemNodes@Animatable@@UEAAXAEAVINodeTab@@W4SysNodeContext@@@Z
	DQ	FLAT:?IsSubClassOf@Animatable@@UEAAHVClass_ID@@@Z
	DQ	FLAT:?IsRefMaker@ReferenceMaker@@UEAAHXZ
	DQ	FLAT:?MouseCycleCompleted@Animatable@@UEAAXH@Z
	DQ	FLAT:?MouseCycleStarted@Animatable@@UEAAXH@Z
	DQ	FLAT:?NumParamBlocks@BerconGradient@@UEAAHXZ
	DQ	FLAT:?GetParamBlock@BerconGradient@@UEAAPEAVIParamBlock2@@H@Z
	DQ	FLAT:?GetParamBlockByID@BerconGradient@@UEAAPEAVIParamBlock2@@F@Z
	DQ	FLAT:?SvTraverseAnimGraph@Texmap@@UEAA?AVSvGraphNodeReference@@PEAVIGraphObjectManager@@PEAVAnimatable@@HK@Z
	DQ	FLAT:?SvCanInitiateLink@Animatable@@UEAA_NPEAVIGraphObjectManager@@PEAVIGraphNode@@@Z
	DQ	FLAT:?SvCanConcludeLink@Animatable@@UEAA_NPEAVIGraphObjectManager@@PEAVIGraphNode@@1@Z
	DQ	FLAT:?SvGetName@MtlBase@@UEAA?AVWStr@@PEAVIGraphObjectManager@@PEAVIGraphNode@@_N@Z
	DQ	FLAT:?SvCanSetName@MtlBase@@UEAA_NPEAVIGraphObjectManager@@PEAVIGraphNode@@@Z
	DQ	FLAT:?SvSetName@MtlBase@@UEAA_NPEAVIGraphObjectManager@@PEAVIGraphNode@@AEBVWStr@@@Z
	DQ	FLAT:?SvCanRemoveThis@Animatable@@UEAA_NPEAVIGraphObjectManager@@PEAVIGraphNode@@@Z
	DQ	FLAT:?SvRemoveThis@Animatable@@UEAA_NPEAVIGraphObjectManager@@PEAVIGraphNode@@@Z
	DQ	FLAT:?SvIsSelected@MtlBase@@UEAA_NPEAVIGraphObjectManager@@PEAVIGraphNode@@@Z
	DQ	FLAT:?SvIsHighlighted@Animatable@@UEAA_NPEAVIGraphObjectManager@@PEAVIGraphNode@@@Z
	DQ	FLAT:?SvHighlightColor@MtlBase@@UEAAKPEAVIGraphObjectManager@@PEAVIGraphNode@@@Z
	DQ	FLAT:?SvGetSwatchColor@Animatable@@UEAAKPEAVIGraphObjectManager@@PEAVIGraphNode@@@Z
	DQ	FLAT:?SvIsInactive@Animatable@@UEAA_NPEAVIGraphObjectManager@@PEAVIGraphNode@@@Z
	DQ	FLAT:?SvLinkChild@Animatable@@UEAA_NPEAVIGraphObjectManager@@PEAVIGraphNode@@1@Z
	DQ	FLAT:?SvHandleDoubleClick@MtlBase@@UEAA_NPEAVIGraphObjectManager@@PEAVIGraphNode@@@Z
	DQ	FLAT:?SvGetMultiSelectCallback@MtlBase@@UEAAPEAVMultiSelectCallback@@PEAVIGraphObjectManager@@PEAVIGraphNode@@@Z
	DQ	FLAT:?SvCanSelect@MtlBase@@UEAA_NPEAVIGraphObjectManager@@PEAVIGraphNode@@@Z
	DQ	FLAT:?SvEditProperties@Animatable@@UEAA_NPEAVIGraphObjectManager@@PEAVIGraphNode@@@Z
	DQ	FLAT:?SvGetTip@Animatable@@UEAA?AVWStr@@PEAVIGraphObjectManager@@PEAVIGraphNode@@@Z
	DQ	FLAT:?SvGetRefTip@Animatable@@UEAA?AVWStr@@PEAVIGraphObjectManager@@PEAVIGraphNode@@1@Z
	DQ	FLAT:?SvCanDetach@Animatable@@UEAA_NPEAVIGraphObjectManager@@PEAVIGraphNode@@@Z
	DQ	FLAT:?SvDetach@Animatable@@UEAA_NPEAVIGraphObjectManager@@PEAVIGraphNode@@@Z
	DQ	FLAT:?SvGetRelTip@Animatable@@UEAA?AVWStr@@PEAVIGraphObjectManager@@PEAVIGraphNode@@H1@Z
	DQ	FLAT:?SvCanDetachRel@Animatable@@UEAA_NPEAVIGraphObjectManager@@PEAVIGraphNode@@H1@Z
	DQ	FLAT:?SvDetachRel@Animatable@@UEAA_NPEAVIGraphObjectManager@@PEAVIGraphNode@@H1@Z
	DQ	FLAT:?SvHandleRelDoubleClick@Animatable@@UEAA_NPEAVIGraphObjectManager@@PEAVIGraphNode@@H1@Z
	DQ	FLAT:?IsParamBlockDesc2Used@Animatable@@UEAA_NPEAVParamBlockDesc2@@@Z
	DQ	FLAT:?GetMacroRecorderName@Animatable@@UEAA_N_NAEAVWStr@@@Z
	DQ	FLAT:?DeleteAllRefsToMe@ReferenceTarget@@UEAA?AW4RefResult@@XZ
	DQ	FLAT:?CanTransferReference@ReferenceMaker@@UEAAHH@Z
	DQ	FLAT:?NumRefs@BerconGradient@@UEAAHXZ
	DQ	FLAT:?GetReference@BerconGradient@@UEAAPEAVReferenceTarget@@H@Z
	DQ	FLAT:?SetReference@BerconGradient@@UEAAXHPEAVReferenceTarget@@@Z
	DQ	FLAT:?Save@MtlBase@@UEAA?AW4IOResult@@PEAVISave@@@Z
	DQ	FLAT:?Load@MtlBase@@UEAA?AW4IOResult@@PEAVILoad@@@Z
	DQ	FLAT:?RemapRefOnLoad@ReferenceMaker@@UEAAHH@Z
	DQ	FLAT:?RescaleWorldUnits@ReferenceMaker@@UEAAXM@Z
	DQ	FLAT:?NotifyDependents@ReferenceTarget@@UEAA?AW4RefResult@@AEBVInterval@@_KIKHPEAV1@W4NotifyDependentsOption@@@Z
	DQ	FLAT:?NotifyDependents@ReferenceMaker@@EEAA?AW4RefResult@@AEBVInterval@@_KIKHPEAVReferenceTarget@@@Z
	DQ	FLAT:?SaveEnum@ReferenceMaker@@UEAAXAEAVSaveEnumProc@@H@Z
	DQ	FLAT:?SpecifySaveReferences@ReferenceMaker@@UEAA_NAEAVReferenceSaveManager@@@Z
	DQ	FLAT:?DoEnumDependentsImpl@ReferenceTarget@@MEAAHPEAVDependentEnumProc@@@Z
	DQ	FLAT:?IsRefTarget@ReferenceTarget@@UEAAHXZ
	DQ	FLAT:?IsRealDependency@ReferenceMaker@@UEAAHPEAVReferenceTarget@@@Z
	DQ	FLAT:?ShouldPersistWeakRef@ReferenceMaker@@UEAAHPEAVReferenceTarget@@@Z
	DQ	FLAT:?NotifyRefChanged@BerconGradient@@UEAA?AW4RefResult@@AEBVInterval@@PEAVReferenceTarget@@AEA_KIH@Z
	DQ	FLAT:?AutoDelete@ReferenceTarget@@UEAA?AW4RefResult@@XZ
	DQ	FLAT:?RefAdded@Texmap@@UEAAXPEAVReferenceMaker@@@Z
	DQ	FLAT:?RefAddedUndoRedo@ReferenceTarget@@UEAAXPEAVReferenceMaker@@@Z
	DQ	FLAT:?RefDeleted@ReferenceTarget@@UEAAXXZ
	DQ	FLAT:?RefDeletedUndoRedo@ReferenceTarget@@UEAAXXZ
	DQ	FLAT:?Clone@BerconGradient@@UEAAPEAVReferenceTarget@@AEAVRemapDir@@@Z
	DQ	FLAT:?BaseClone@MtlBase@@UEAAXPEAVReferenceTarget@@0AEAVRemapDir@@@Z
	DQ	FLAT:?NotifyForeground@ReferenceTarget@@UEAAXH@Z
	DQ	FLAT:?NotifyTarget@ReferenceTarget@@UEAAXHPEAVReferenceMaker@@@Z
	DQ	FLAT:?GetFullName@MtlBase@@UEAA?AVWStr@@XZ
	DQ	FLAT:?BuildMaps@MtlBase@@UEAAHHAEAVRenderMapsContext@@@Z
	DQ	FLAT:?Requirements@MtlBase@@UEAAKH@Z
	DQ	FLAT:?LocalRequirements@BerconGradient@@UEAAKH@Z
	DQ	FLAT:?MappingsRequired@BerconGradient@@UEAAXHAEAVBitArray@@0@Z
	DQ	FLAT:?LocalMappingsRequired@MtlBase@@UEAAXHAEAVBitArray@@0@Z
	DQ	FLAT:?IsMultiMtl@MtlBase@@UEAAHXZ
	DQ	FLAT:?Update@BerconGradient@@UEAAXHAEAVInterval@@@Z
	DQ	FLAT:?Reset@BerconGradient@@UEAAXXZ
	DQ	FLAT:?Validity@BerconGradient@@UEAA?AVInterval@@H@Z
	DQ	FLAT:?CreateParamDlg@BerconGradient@@UEAAPEAVParamDlg@@PEAUHWND__@@PEAVIMtlParams@@@Z
	DQ	FLAT:?GetPStamp@MtlBase@@UEAAPEAVPStamp@@H@Z
	DQ	FLAT:?CreatePStamp@MtlBase@@UEAAPEAVPStamp@@HH@Z
	DQ	FLAT:?DiscardPStamp@MtlBase@@UEAAXH@Z
	DQ	FLAT:?SupportTexDisplay@BerconGradient@@UEAAHXZ
	DQ	FLAT:?GetActiveTexHandle@BerconGradient@@UEAA_KHAEAVTexHandleMaker@@@Z
	DQ	FLAT:?ActivateTexDisplay@BerconGradient@@UEAAXH@Z
	DQ	FLAT:?SupportsMultiMapsInViewport@MtlBase@@UEAAHXZ
	DQ	FLAT:?SetupGfxMultiMaps@MtlBase@@UEAAXHPEAVMaterial@@AEAVMtlMakerCallback@@@Z
	DQ	FLAT:?GetTransparencyHint@MtlBase@@UEAAHHAEAVInterval@@@Z
	DQ	FLAT:?EvalColor@BerconGradient@@UEAA?AVAColor@@AEAVShadeContext@@@Z
	DQ	FLAT:?EvalMono@BerconGradient@@UEAAMAEAVShadeContext@@@Z
	DQ	FLAT:?EvalNormalPerturb@BerconGradient@@UEAA?AVPoint3@@AEAVShadeContext@@@Z
	DQ	FLAT:?HandleOwnViewPerturb@Texmap@@UEAAHXZ
	DQ	FLAT:?GetVPDisplayDIB@Texmap@@UEAAPEAUtagBITMAPINFO@@HAEAVTexHandleMaker@@AEAVInterval@@HHH@Z
	DQ	FLAT:?GetUVTransform@Texmap@@UEAAXAEAVMatrix3@@@Z
	DQ	FLAT:?GetTextureTiling@Texmap@@UEAAHXZ
	DQ	FLAT:?GetUVWSource@Texmap@@UEAAHXZ
	DQ	FLAT:?GetMapChannel@Texmap@@UEAAHXZ
	DQ	FLAT:?InitSlotType@Texmap@@UEAAXH@Z
	DQ	FLAT:?GetTheUVGen@Texmap@@UEAAPEAVUVGen@@XZ
	DQ	FLAT:?GetTheXYZGen@Texmap@@UEAAPEAVXYZGen@@XZ
	DQ	FLAT:?SetOutputLevel@Texmap@@UEAAXHM@Z
	DQ	FLAT:?IsOutputMeaningful@Texmap@@UEAA_NAEAVShadeContext@@@Z
	DQ	FLAT:?IsLocalOutputMeaningful@Texmap@@UEAA_NAEAVShadeContext@@@Z
	DQ	FLAT:?LoadMapFiles@Texmap@@UEAAHH@Z
	DQ	FLAT:?RenderBitmap@Texmap@@UEAAXHPEAVBitmap@@MH@Z
	DQ	FLAT:?IsHighDynamicRange@Texmap@@UEBAHXZ
CONST	ENDS
;	COMDAT ??_7IGradient@@6B@
CONST	SEGMENT
??_7IGradient@@6B@ DQ FLAT:??_R4IGradient@@6B@		; IGradient::`vftable'
	DQ	FLAT:??_EIGradient@@UEAAPEAXI@Z
	DQ	FLAT:?GetInterface@InterfaceServer@@UEAAPEAVBaseInterface@@VInterface_ID@@@Z
	DQ	FLAT:?GetHwnd@IGradient@@UEAAPEAUHWND__@@XZ
	DQ	FLAT:?Enable@IGradient@@UEAAXH@Z
	DQ	FLAT:?Disable@IGradient@@UEAAXXZ
	DQ	FLAT:?IsEnabled@IGradient@@UEAAHXZ
	DQ	FLAT:?Enable2@IGradient@@UEAAXH@Z
	DQ	FLAT:?Execute@IGradient@@UEAA_JH_K00@Z
	DQ	FLAT:?SetTooltip@IGradient@@UEAAX_NPEB_W@Z
CONST	ENDS
;	COMDAT ??_7GradientMap@@6B@
CONST	SEGMENT
??_7GradientMap@@6B@ DQ FLAT:??_R4GradientMap@@6B@	; GradientMap::`vftable'
	DQ	FLAT:_purecall
	DQ	FLAT:_purecall
	DQ	FLAT:_purecall
	DQ	FLAT:_purecall
	DQ	FLAT:_purecall
CONST	ENDS
;	COMDAT ??_C@_13PHJMHGG@?$AAL?$AA?$AA@
CONST	SEGMENT
??_C@_13PHJMHGG@?$AAL?$AA?$AA@ DB 'L', 00H, 00H, 00H	; `string'
CONST	ENDS
;	COMDAT ??_7BerconXYZDlgProc@@6B@
CONST	SEGMENT
??_7BerconXYZDlgProc@@6B@ DQ FLAT:??_R4BerconXYZDlgProc@@6B@ ; BerconXYZDlgProc::`vftable'
	DQ	FLAT:??_EBerconXYZDlgProc@@UEAAPEAXI@Z
	DQ	FLAT:?DlgProc@BerconXYZDlgProc@@UEAA_JHPEAVIParamMap2@@PEAUHWND__@@I_K_J@Z
	DQ	FLAT:?DeleteThis@BerconXYZDlgProc@@UEAAXXZ
	DQ	FLAT:?SetThing@BerconXYZDlgProc@@UEAAXPEAVReferenceTarget@@@Z
	DQ	FLAT:?Update@ParamMap2UserDlgProc@@UEAAXHAEAVInterval@@PEAVIParamMap2@@@Z
	DQ	FLAT:?Update@ParamMap2UserDlgProc@@UEAAXH@Z
	DQ	FLAT:?SetParamBlock@ParamMap2UserDlgProc@@UEAAXPEAVIParamBlock2@@@Z
CONST	ENDS
;	COMDAT ??_7ResourceMakerCallback@@6B@
CONST	SEGMENT
??_7ResourceMakerCallback@@6B@ DQ FLAT:??_R4ResourceMakerCallback@@6B@ ; ResourceMakerCallback::`vftable'
	DQ	FLAT:?SetCustomImageList@ResourceMakerCallback@@UEAAHAEAPEAU_IMAGELIST@@PEAVICurveCtl@@@Z
	DQ	FLAT:?GetToolTip@ResourceMakerCallback@@UEAAHHAEAVWStr@@PEAVICurveCtl@@@Z
	DQ	FLAT:?ResetCallback@ResourceMakerCallback@@UEAAXHPEAVICurveCtl@@@Z
	DQ	FLAT:?NewCurveCreatedCallback@ResourceMakerCallback@@UEAAXHPEAVICurveCtl@@@Z
	DQ	FLAT:?GetInterface@ResourceMakerCallback@@UEAAPEAXK@Z
CONST	ENDS
_DATA	SEGMENT
?BlinnClassID@@3VClass_ID@@A DD 038H			; BlinnClassID
	DD	00H
?AnisoShaderClassID@@3VClass_ID@@A DD 02857f460H	; AnisoShaderClassID
	DD	00H
?AnisoShaderDlgClassID@@3VClass_ID@@A DD 02857f460H	; AnisoShaderDlgClassID
	DD	00H
?OrenNayarBlinnShaderClassID@@3VClass_ID@@A DD 02857f421H ; OrenNayarBlinnShaderClassID
	DD	00H
?OrenNayarShaderDlgClassID@@3VClass_ID@@A DD 02857f422H	; OrenNayarShaderDlgClassID
	DD	00H
?StraussShaderClassID@@3VClass_ID@@A DD 02857f450H	; StraussShaderClassID
	DD	00H
?kTriObjNormalXTCID@@3VClass_ID@@B DD 0730a33d7H	; kTriObjNormalXTCID
	DD	027246c55H
_DATA	ENDS
;	COMDAT ??_7ParamMap2UserDlgProc@@6B@
CONST	SEGMENT
??_7ParamMap2UserDlgProc@@6B@ DQ FLAT:??_R4ParamMap2UserDlgProc@@6B@ ; ParamMap2UserDlgProc::`vftable'
	DQ	FLAT:??_EParamMap2UserDlgProc@@UEAAPEAXI@Z
	DQ	FLAT:_purecall
	DQ	FLAT:_purecall
	DQ	FLAT:?SetThing@ParamMap2UserDlgProc@@UEAAXPEAVReferenceTarget@@@Z
	DQ	FLAT:?Update@ParamMap2UserDlgProc@@UEAAXHAEAVInterval@@PEAVIParamMap2@@@Z
	DQ	FLAT:?Update@ParamMap2UserDlgProc@@UEAAXH@Z
	DQ	FLAT:?SetParamBlock@ParamMap2UserDlgProc@@UEAAXPEAVIParamBlock2@@@Z
CONST	ENDS
;	COMDAT ??_7?$Tab@PEAVVertexNormalsCallback@@@@6B@
CONST	SEGMENT
??_7?$Tab@PEAVVertexNormalsCallback@@@@6B@ DQ FLAT:??_R4?$Tab@PEAVVertexNormalsCallback@@@@6B@ ; Tab<VertexNormalsCallback * __ptr64>::`vftable'
	DQ	FLAT:??_E?$Tab@PEAVVertexNormalsCallback@@@@UEAAPEAXI@Z
CONST	ENDS
;	COMDAT ??_7ICustomControl@@6B@
CONST	SEGMENT
??_7ICustomControl@@6B@ DQ FLAT:??_R4ICustomControl@@6B@ ; ICustomControl::`vftable'
	DQ	FLAT:??_EICustomControl@@UEAAPEAXI@Z
	DQ	FLAT:?GetInterface@InterfaceServer@@UEAAPEAVBaseInterface@@VInterface_ID@@@Z
	DQ	FLAT:_purecall
	DQ	FLAT:_purecall
	DQ	FLAT:_purecall
	DQ	FLAT:_purecall
	DQ	FLAT:_purecall
	DQ	FLAT:?Execute@ICustomControl@@UEAA_JH_K00@Z
	DQ	FLAT:_purecall
CONST	ENDS
;	COMDAT ??_C@_1BM@HADNIIA@?$AAB?$AAi?$AAt?$AAA?$AAr?$AAr?$AAa?$AAy?$AA?3?$AA?3?$AAS?$AAe?$AAt?$AA?$AA@
CONST	SEGMENT
??_C@_1BM@HADNIIA@?$AAB?$AAi?$AAt?$AAA?$AAr?$AAr?$AAa?$AAy?$AA?3?$AA?3?$AAS?$AAe?$AAt?$AA?$AA@ DB 'B'
	DB	00H, 'i', 00H, 't', 00H, 'A', 00H, 'r', 00H, 'r', 00H, 'a', 00H
	DB	'y', 00H, ':', 00H, ':', 00H, 'S', 00H, 'e', 00H, 't', 00H, 00H
	DB	00H						; `string'
CONST	ENDS
;	COMDAT ??_C@_1CE@GBNPOKPK@?$AAi?$AA?$DO?$AA?9?$AA1?$AA?5?$AA?$CG?$AA?$CG?$AA?5?$AAi?$AA?$DM?$AAn?$AAu?$AAm?$AAB?$AAi?$AAt?$AAs?$AA?$AA@
CONST	SEGMENT
??_C@_1CE@GBNPOKPK@?$AAi?$AA?$DO?$AA?9?$AA1?$AA?5?$AA?$CG?$AA?$CG?$AA?5?$AAi?$AA?$DM?$AAn?$AAu?$AAm?$AAB?$AAi?$AAt?$AAs?$AA?$AA@ DB 'i'
	DB	00H, '>', 00H, '-', 00H, '1', 00H, ' ', 00H, '&', 00H, '&', 00H
	DB	' ', 00H, 'i', 00H, '<', 00H, 'n', 00H, 'u', 00H, 'm', 00H, 'B'
	DB	00H, 'i', 00H, 't', 00H, 's', 00H, 00H, 00H	; `string'
CONST	ENDS
;	COMDAT ??_C@_1IK@POEJJLJB@?$AAc?$AA?3?$AA?2?$AAp?$AAr?$AAo?$AAg?$AAr?$AAa?$AAm?$AA?5?$AAf?$AAi?$AAl?$AAe?$AAs?$AA?2?$AAa?$AAu?$AAt?$AAo?$AAd?$AAe?$AAs?$AAk?$AA?2?$AA3?$AAd?$AAs?$AA?5?$AAm?$AAa@
CONST	SEGMENT
??_C@_1IK@POEJJLJB@?$AAc?$AA?3?$AA?2?$AAp?$AAr?$AAo?$AAg?$AAr?$AAa?$AAm?$AA?5?$AAf?$AAi?$AAl?$AAe?$AAs?$AA?2?$AAa?$AAu?$AAt?$AAo?$AAd?$AAe?$AAs?$AAk?$AA?2?$AA3?$AAd?$AAs?$AA?5?$AAm?$AAa@ DB 'c'
	DB	00H, ':', 00H, '\', 00H, 'p', 00H, 'r', 00H, 'o', 00H, 'g', 00H
	DB	'r', 00H, 'a', 00H, 'm', 00H, ' ', 00H, 'f', 00H, 'i', 00H, 'l'
	DB	00H, 'e', 00H, 's', 00H, '\', 00H, 'a', 00H, 'u', 00H, 't', 00H
	DB	'o', 00H, 'd', 00H, 'e', 00H, 's', 00H, 'k', 00H, '\', 00H, '3'
	DB	00H, 'd', 00H, 's', 00H, ' ', 00H, 'm', 00H, 'a', 00H, 'x', 00H
	DB	' ', 00H, '2', 00H, '0', 00H, '2', 00H, '0', 00H, ' ', 00H, 's'
	DB	00H, 'd', 00H, 'k', 00H, '\', 00H, 'm', 00H, 'a', 00H, 'x', 00H
	DB	's', 00H, 'd', 00H, 'k', 00H, '\', 00H, 'i', 00H, 'n', 00H, 'c'
	DB	00H, 'l', 00H, 'u', 00H, 'd', 00H, 'e', 00H, '\', 00H, 'b', 00H
	DB	'i', 00H, 't', 00H, 'a', 00H, 'r', 00H, 'r', 00H, 'a', 00H, 'y'
	DB	00H, '.', 00H, 'h', 00H, 00H, 00H		; `string'
CONST	ENDS
;	COMDAT ??_C@_1IA@EDMIGCEG@?$AAc?$AA?3?$AA?2?$AAp?$AAr?$AAo?$AAg?$AAr?$AAa?$AAm?$AA?5?$AAf?$AAi?$AAl?$AAe?$AAs?$AA?2?$AAa?$AAu?$AAt?$AAo?$AAd?$AAe?$AAs?$AAk?$AA?2?$AA3?$AAd?$AAs?$AA?5?$AAm?$AAa@
CONST	SEGMENT
??_C@_1IA@EDMIGCEG@?$AAc?$AA?3?$AA?2?$AAp?$AAr?$AAo?$AAg?$AAr?$AAa?$AAm?$AA?5?$AAf?$AAi?$AAl?$AAe?$AAs?$AA?2?$AAa?$AAu?$AAt?$AAo?$AAd?$AAe?$AAs?$AAk?$AA?2?$AA3?$AAd?$AAs?$AA?5?$AAm?$AAa@ DB 'c'
	DB	00H, ':', 00H, '\', 00H, 'p', 00H, 'r', 00H, 'o', 00H, 'g', 00H
	DB	'r', 00H, 'a', 00H, 'm', 00H, ' ', 00H, 'f', 00H, 'i', 00H, 'l'
	DB	00H, 'e', 00H, 's', 00H, '\', 00H, 'a', 00H, 'u', 00H, 't', 00H
	DB	'o', 00H, 'd', 00H, 'e', 00H, 's', 00H, 'k', 00H, '\', 00H, '3'
	DB	00H, 'd', 00H, 's', 00H, ' ', 00H, 'm', 00H, 'a', 00H, 'x', 00H
	DB	' ', 00H, '2', 00H, '0', 00H, '2', 00H, '0', 00H, ' ', 00H, 's'
	DB	00H, 'd', 00H, 'k', 00H, '\', 00H, 'm', 00H, 'a', 00H, 'x', 00H
	DB	's', 00H, 'd', 00H, 'k', 00H, '\', 00H, 'i', 00H, 'n', 00H, 'c'
	DB	00H, 'l', 00H, 'u', 00H, 'd', 00H, 'e', 00H, '\', 00H, 'r', 00H
	DB	'e', 00H, 'f', 00H, '.', 00H, 'h', 00H, 00H, 00H ; `string'
CONST	ENDS
;	COMDAT ??_C@_1EC@POJFJEHG@?$AAR?$AAe?$AAf?$AAe?$AAr?$AAe?$AAn?$AAc?$AAe?$AAM?$AAa?$AAk?$AAe?$AAr?$AA?3?$AA?3?$AAN?$AAo?$AAt?$AAi?$AAf?$AAy?$AAD?$AAe?$AAp?$AAe?$AAn?$AAd?$AAe?$AAn?$AAt?$AAs@
CONST	SEGMENT
??_C@_1EC@POJFJEHG@?$AAR?$AAe?$AAf?$AAe?$AAr?$AAe?$AAn?$AAc?$AAe?$AAM?$AAa?$AAk?$AAe?$AAr?$AA?3?$AA?3?$AAN?$AAo?$AAt?$AAi?$AAf?$AAy?$AAD?$AAe?$AAp?$AAe?$AAn?$AAd?$AAe?$AAn?$AAt?$AAs@ DB 'R'
	DB	00H, 'e', 00H, 'f', 00H, 'e', 00H, 'r', 00H, 'e', 00H, 'n', 00H
	DB	'c', 00H, 'e', 00H, 'M', 00H, 'a', 00H, 'k', 00H, 'e', 00H, 'r'
	DB	00H, ':', 00H, ':', 00H, 'N', 00H, 'o', 00H, 't', 00H, 'i', 00H
	DB	'f', 00H, 'y', 00H, 'D', 00H, 'e', 00H, 'p', 00H, 'e', 00H, 'n'
	DB	00H, 'd', 00H, 'e', 00H, 'n', 00H, 't', 00H, 's', 00H, 00H, 00H ; `string'
CONST	ENDS
;	COMDAT ??_C@_1M@HLGKFCJM@?$AAf?$AAa?$AAl?$AAs?$AAe?$AA?$AA@
CONST	SEGMENT
??_C@_1M@HLGKFCJM@?$AAf?$AAa?$AAl?$AAs?$AAe?$AA?$AA@ DB 'f', 00H, 'a', 00H
	DB	'l', 00H, 's', 00H, 'e', 00H, 00H, 00H	; `string'
CONST	ENDS
;	COMDAT ??_C@_1IO@OMAAFOOI@?$AAc?$AA?3?$AA?2?$AAp?$AAr?$AAo?$AAg?$AAr?$AAa?$AAm?$AA?5?$AAf?$AAi?$AAl?$AAe?$AAs?$AA?2?$AAa?$AAu?$AAt?$AAo?$AAd?$AAe?$AAs?$AAk?$AA?2?$AA3?$AAd?$AAs?$AA?5?$AAm?$AAa@
CONST	SEGMENT
??_C@_1IO@OMAAFOOI@?$AAc?$AA?3?$AA?2?$AAp?$AAr?$AAo?$AAg?$AAr?$AAa?$AAm?$AA?5?$AAf?$AAi?$AAl?$AAe?$AAs?$AA?2?$AAa?$AAu?$AAt?$AAo?$AAd?$AAe?$AAs?$AAk?$AA?2?$AA3?$AAd?$AAs?$AA?5?$AAm?$AAa@ DB 'c'
	DB	00H, ':', 00H, '\', 00H, 'p', 00H, 'r', 00H, 'o', 00H, 'g', 00H
	DB	'r', 00H, 'a', 00H, 'm', 00H, ' ', 00H, 'f', 00H, 'i', 00H, 'l'
	DB	00H, 'e', 00H, 's', 00H, '\', 00H, 'a', 00H, 'u', 00H, 't', 00H
	DB	'o', 00H, 'd', 00H, 'e', 00H, 's', 00H, 'k', 00H, '\', 00H, '3'
	DB	00H, 'd', 00H, 's', 00H, ' ', 00H, 'm', 00H, 'a', 00H, 'x', 00H
	DB	' ', 00H, '2', 00H, '0', 00H, '2', 00H, '0', 00H, ' ', 00H, 's'
	DB	00H, 'd', 00H, 'k', 00H, '\', 00H, 'm', 00H, 'a', 00H, 'x', 00H
	DB	's', 00H, 'd', 00H, 'k', 00H, '\', 00H, 'i', 00H, 'n', 00H, 'c'
	DB	00H, 'l', 00H, 'u', 00H, 'd', 00H, 'e', 00H, '\', 00H, 'a', 00H
	DB	'n', 00H, 'i', 00H, 'm', 00H, 'a', 00H, 't', 00H, 'a', 00H, 'b'
	DB	00H, 'l', 00H, 'e', 00H, '.', 00H, 'h', 00H, 00H, 00H ; `string'
CONST	ENDS
;	COMDAT ??_C@_1CM@HBLCKHLG@?$AAA?$AAn?$AAi?$AAm?$AAa?$AAt?$AAa?$AAb?$AAl?$AAe?$AA?3?$AA?3?$AAE?$AAd?$AAi?$AAt?$AAT?$AAr?$AAa?$AAc?$AAk?$AA?$AA@
CONST	SEGMENT
??_C@_1CM@HBLCKHLG@?$AAA?$AAn?$AAi?$AAm?$AAa?$AAt?$AAa?$AAb?$AAl?$AAe?$AA?3?$AA?3?$AAE?$AAd?$AAi?$AAt?$AAT?$AAr?$AAa?$AAc?$AAk?$AA?$AA@ DB 'A'
	DB	00H, 'n', 00H, 'i', 00H, 'm', 00H, 'a', 00H, 't', 00H, 'a', 00H
	DB	'b', 00H, 'l', 00H, 'e', 00H, ':', 00H, ':', 00H, 'E', 00H, 'd'
	DB	00H, 'i', 00H, 't', 00H, 'T', 00H, 'r', 00H, 'a', 00H, 'c', 00H
	DB	'k', 00H, 00H, 00H				; `string'
CONST	ENDS
;	COMDAT ??_C@_13COJANIEC@?$AA0?$AA?$AA@
CONST	SEGMENT
??_C@_13COJANIEC@?$AA0?$AA?$AA@ DB '0', 00H, 00H, 00H	; `string'
CONST	ENDS
;	COMDAT ??_7InterfaceServer@@6B@
CONST	SEGMENT
??_7InterfaceServer@@6B@ DQ FLAT:??_R4InterfaceServer@@6B@ ; InterfaceServer::`vftable'
	DQ	FLAT:??_EInterfaceServer@@UEAAPEAXI@Z
	DQ	FLAT:?GetInterface@InterfaceServer@@UEAAPEAVBaseInterface@@VInterface_ID@@@Z
CONST	ENDS
;	COMDAT xdata
xdata	SEGMENT
$ip2state$??_GBerconGradientDlgProc@@UEAAPEAXI@Z DD imagerel ??_GBerconGradientDlgProc@@UEAAPEAXI@Z
	DD	0ffffffffH
xdata	ENDS
;	COMDAT xdata
xdata	SEGMENT
$stateUnwindMap$??_GBerconGradientDlgProc@@UEAAPEAXI@Z DD 0ffffffffH
	DD	imagerel ?dtor$0@?0???_GBerconGradientDlgProc@@UEAAPEAXI@Z@4HA
xdata	ENDS
;	COMDAT CONST
CONST	SEGMENT
$cppxdata$??_GBerconGradientDlgProc@@UEAAPEAXI@Z DD 019930522H
	DD	01H
	DD	imagerel $stateUnwindMap$??_GBerconGradientDlgProc@@UEAAPEAXI@Z
	DD	00H
	DD	00H
	DD	01H
	DD	imagerel $ip2state$??_GBerconGradientDlgProc@@UEAAPEAXI@Z
	DD	020H
	DD	00H
	DD	04H
CONST	ENDS
;	COMDAT xdata
xdata	SEGMENT
$unwind$??_GBerconGradientDlgProc@@UEAAPEAXI@Z DD 021311H
	DD	03006520aH
	DD	imagerel __CxxFrameHandler3
	DD	imagerel $cppxdata$??_GBerconGradientDlgProc@@UEAAPEAXI@Z
xdata	ENDS
;	COMDAT xdata
xdata	SEGMENT
$ip2state$??1BerconGradientDlgProc@@UEAA@XZ DD imagerel ??1BerconGradientDlgProc@@UEAA@XZ
	DD	0ffffffffH
xdata	ENDS
;	COMDAT xdata
xdata	SEGMENT
$stateUnwindMap$??1BerconGradientDlgProc@@UEAA@XZ DD 0ffffffffH
	DD	imagerel ?dtor$0@?0???1BerconGradientDlgProc@@UEAA@XZ@4HA
xdata	ENDS
;	COMDAT CONST
CONST	SEGMENT
$cppxdata$??1BerconGradientDlgProc@@UEAA@XZ DD 019930522H
	DD	01H
	DD	imagerel $stateUnwindMap$??1BerconGradientDlgProc@@UEAA@XZ
	DD	00H
	DD	00H
	DD	01H
	DD	imagerel $ip2state$??1BerconGradientDlgProc@@UEAA@XZ
	DD	00H
	DD	00H
	DD	04H
CONST	ENDS
;	COMDAT xdata
xdata	SEGMENT
$unwind$??1BerconGradientDlgProc@@UEAA@XZ DD 011111H
	DD	02209H
	DD	imagerel __CxxFrameHandler3
	DD	imagerel $cppxdata$??1BerconGradientDlgProc@@UEAA@XZ
xdata	ENDS
;	COMDAT xdata
xdata	SEGMENT
$unwind$?SetThing@BerconGradientDlgProc@@UEAAXPEAVReferenceTarget@@@Z DD 060f01H
	DD	07640fH
	DD	06340fH
	DD	0700b320fH
xdata	ENDS
;	COMDAT xdata
xdata	SEGMENT
$ip2state$?DlgProc@BerconGradientDlgProc@@UEAA_JHPEAVIParamMap2@@PEAUHWND__@@I_K_J@Z DD imagerel ?DlgProc@BerconGradientDlgProc@@UEAA_JHPEAVIParamMap2@@PEAUHWND__@@I_K_J@Z
	DD	0ffffffffH
	DD	imagerel ?DlgProc@BerconGradientDlgProc@@UEAA_JHPEAVIParamMap2@@PEAUHWND__@@I_K_J@Z+151
	DD	00H
	DD	imagerel ?DlgProc@BerconGradientDlgProc@@UEAA_JHPEAVIParamMap2@@PEAUHWND__@@I_K_J@Z+203
	DD	0ffffffffH
xdata	ENDS
;	COMDAT xdata
xdata	SEGMENT
$stateUnwindMap$?DlgProc@BerconGradientDlgProc@@UEAA_JHPEAVIParamMap2@@PEAUHWND__@@I_K_J@Z DD 0ffffffffH
	DD	imagerel ?dtor$0@?0??DlgProc@BerconGradientDlgProc@@UEAA_JHPEAVIParamMap2@@PEAUHWND__@@I_K_J@Z@4HA
xdata	ENDS
;	COMDAT CONST
CONST	SEGMENT
$cppxdata$?DlgProc@BerconGradientDlgProc@@UEAA_JHPEAVIParamMap2@@PEAUHWND__@@I_K_J@Z DD 019930522H
	DD	01H
	DD	imagerel $stateUnwindMap$?DlgProc@BerconGradientDlgProc@@UEAA_JHPEAVIParamMap2@@PEAUHWND__@@I_K_J@Z
	DD	00H
	DD	00H
	DD	03H
	DD	imagerel $ip2state$?DlgProc@BerconGradientDlgProc@@UEAA_JHPEAVIParamMap2@@PEAUHWND__@@I_K_J@Z
	DD	030H
	DD	00H
	DD	00H
CONST	ENDS
;	COMDAT xdata
xdata	SEGMENT
$unwind$?DlgProc@BerconGradientDlgProc@@UEAA_JHPEAVIParamMap2@@PEAUHWND__@@I_K_J@Z DD 0c2711H
	DD	0147427H
	DD	0136423H
	DD	012341fH
	DD	0f00cb213H
	DD	0d008e00aH
	DD	05004c006H
	DD	imagerel __CxxFrameHandler3
	DD	imagerel $cppxdata$?DlgProc@BerconGradientDlgProc@@UEAA_JHPEAVIParamMap2@@PEAUHWND__@@I_K_J@Z
xdata	ENDS
;	COMDAT xdata
xdata	SEGMENT
$ip2state$??0BerconGradientDlgProc@@QEAA@PEAVBerconGradient@@@Z DD imagerel ??0BerconGradientDlgProc@@QEAA@PEAVBerconGradient@@@Z
	DD	0ffffffffH
	DD	imagerel ??0BerconGradientDlgProc@@QEAA@PEAVBerconGradient@@@Z+27
	DD	00H
	DD	imagerel ??0BerconGradientDlgProc@@QEAA@PEAVBerconGradient@@@Z+49
	DD	0ffffffffH
xdata	ENDS
;	COMDAT xdata
xdata	SEGMENT
$stateUnwindMap$??0BerconGradientDlgProc@@QEAA@PEAVBerconGradient@@@Z DD 0ffffffffH
	DD	imagerel ?dtor$0@?0???0BerconGradientDlgProc@@QEAA@PEAVBerconGradient@@@Z@4HA
xdata	ENDS
;	COMDAT CONST
CONST	SEGMENT
$cppxdata$??0BerconGradientDlgProc@@QEAA@PEAVBerconGradient@@@Z DD 019930522H
	DD	01H
	DD	imagerel $stateUnwindMap$??0BerconGradientDlgProc@@QEAA@PEAVBerconGradient@@@Z
	DD	00H
	DD	00H
	DD	03H
	DD	imagerel $ip2state$??0BerconGradientDlgProc@@QEAA@PEAVBerconGradient@@@Z
	DD	00H
	DD	00H
	DD	00H
CONST	ENDS
;	COMDAT xdata
xdata	SEGMENT
$unwind$??0BerconGradientDlgProc@@QEAA@PEAVBerconGradient@@@Z DD 011111H
	DD	02209H
	DD	imagerel __CxxFrameHandler3
	DD	imagerel $cppxdata$??0BerconGradientDlgProc@@QEAA@PEAVBerconGradient@@@Z
xdata	ENDS
;	COMDAT xdata
xdata	SEGMENT
$unwind$??__Egradientmap_param_blk@@YAXXZ DD 020a01H
	DD	016b010aH
xdata	ENDS
;	COMDAT xdata
xdata	SEGMENT
$ip2state$??__Fxyz_blk@@YAXXZ DD imagerel ??__Fxyz_blk@@YAXXZ
	DD	0ffffffffH
xdata	ENDS
;	COMDAT xdata
xdata	SEGMENT
$stateUnwindMap$??__Fxyz_blk@@YAXXZ DD 0ffffffffH
	DD	imagerel ?dtor$0@?0???__Fxyz_blk@@YAXXZ@4HA
xdata	ENDS
;	COMDAT CONST
CONST	SEGMENT
$cppxdata$??__Fxyz_blk@@YAXXZ DD 019930522H
	DD	01H
	DD	imagerel $stateUnwindMap$??__Fxyz_blk@@YAXXZ
	DD	00H
	DD	00H
	DD	01H
	DD	imagerel $ip2state$??__Fxyz_blk@@YAXXZ
	DD	020H
	DD	00H
	DD	00H
CONST	ENDS
;	COMDAT xdata
xdata	SEGMENT
$unwind$??__Fxyz_blk@@YAXXZ DD 010d11H
	DD	06204H
	DD	imagerel __CxxFrameHandler3
	DD	imagerel $cppxdata$??__Fxyz_blk@@YAXXZ
xdata	ENDS
;	COMDAT xdata
xdata	SEGMENT
$unwind$??__Exyz_blk@@YAXXZ DD 010401H
	DD	0a204H
xdata	ENDS
;	COMDAT xdata
xdata	SEGMENT
$ip2state$??__FBerconGradientDesc@@YAXXZ DD imagerel ??__FBerconGradientDesc@@YAXXZ
	DD	0ffffffffH
xdata	ENDS
;	COMDAT xdata
xdata	SEGMENT
$stateUnwindMap$??__FBerconGradientDesc@@YAXXZ DD 0ffffffffH
	DD	imagerel ?dtor$0@?0???__FBerconGradientDesc@@YAXXZ@4HA
xdata	ENDS
;	COMDAT CONST
CONST	SEGMENT
$cppxdata$??__FBerconGradientDesc@@YAXXZ DD 019930522H
	DD	01H
	DD	imagerel $stateUnwindMap$??__FBerconGradientDesc@@YAXXZ
	DD	00H
	DD	00H
	DD	01H
	DD	imagerel $ip2state$??__FBerconGradientDesc@@YAXXZ
	DD	020H
	DD	00H
	DD	00H
CONST	ENDS
;	COMDAT xdata
xdata	SEGMENT
$unwind$??__FBerconGradientDesc@@YAXXZ DD 010d11H
	DD	06204H
	DD	imagerel __CxxFrameHandler3
	DD	imagerel $cppxdata$??__FBerconGradientDesc@@YAXXZ
xdata	ENDS
;	COMDAT xdata
xdata	SEGMENT
$ip2state$??__EBerconGradientDesc@@YAXXZ DD imagerel ??__EBerconGradientDesc@@YAXXZ
	DD	0ffffffffH
	DD	imagerel ??__EBerconGradientDesc@@YAXXZ+27
	DD	00H
	DD	imagerel ??__EBerconGradientDesc@@YAXXZ+41
	DD	0ffffffffH
xdata	ENDS
;	COMDAT xdata
xdata	SEGMENT
$stateUnwindMap$??__EBerconGradientDesc@@YAXXZ DD 0ffffffffH
	DD	imagerel ?dtor$0@?0???__EBerconGradientDesc@@YAXXZ@4HA
xdata	ENDS
;	COMDAT CONST
CONST	SEGMENT
$cppxdata$??__EBerconGradientDesc@@YAXXZ DD 019930522H
	DD	01H
	DD	imagerel $stateUnwindMap$??__EBerconGradientDesc@@YAXXZ
	DD	00H
	DD	00H
	DD	03H
	DD	imagerel $ip2state$??__EBerconGradientDesc@@YAXXZ
	DD	020H
	DD	00H
	DD	00H
CONST	ENDS
;	COMDAT xdata
xdata	SEGMENT
$unwind$??__EBerconGradientDesc@@YAXXZ DD 010d11H
	DD	06204H
	DD	imagerel __CxxFrameHandler3
	DD	imagerel $cppxdata$??__EBerconGradientDesc@@YAXXZ
xdata	ENDS
;	COMDAT xdata
xdata	SEGMENT
$ip2state$??_GBerconGradientClassDesc@@UEAAPEAXI@Z DD imagerel ??_GBerconGradientClassDesc@@UEAAPEAXI@Z
	DD	0ffffffffH
xdata	ENDS
;	COMDAT xdata
xdata	SEGMENT
$stateUnwindMap$??_GBerconGradientClassDesc@@UEAAPEAXI@Z DD 0ffffffffH
	DD	imagerel ?dtor$0@?0???_GBerconGradientClassDesc@@UEAAPEAXI@Z@4HA
xdata	ENDS
;	COMDAT CONST
CONST	SEGMENT
$cppxdata$??_GBerconGradientClassDesc@@UEAAPEAXI@Z DD 019930522H
	DD	01H
	DD	imagerel $stateUnwindMap$??_GBerconGradientClassDesc@@UEAAPEAXI@Z
	DD	00H
	DD	00H
	DD	01H
	DD	imagerel $ip2state$??_GBerconGradientClassDesc@@UEAAPEAXI@Z
	DD	020H
	DD	00H
	DD	04H
CONST	ENDS
;	COMDAT xdata
xdata	SEGMENT
$unwind$??_GBerconGradientClassDesc@@UEAAPEAXI@Z DD 041811H
	DD	093418H
	DD	07006520aH
	DD	imagerel __CxxFrameHandler3
	DD	imagerel $cppxdata$??_GBerconGradientClassDesc@@UEAAPEAXI@Z
xdata	ENDS
;	COMDAT xdata
xdata	SEGMENT
$ip2state$??1BerconGradientClassDesc@@UEAA@XZ DD imagerel ??1BerconGradientClassDesc@@UEAA@XZ
	DD	0ffffffffH
xdata	ENDS
;	COMDAT xdata
xdata	SEGMENT
$stateUnwindMap$??1BerconGradientClassDesc@@UEAA@XZ DD 0ffffffffH
	DD	imagerel ?dtor$0@?0???1BerconGradientClassDesc@@UEAA@XZ@4HA
xdata	ENDS
;	COMDAT CONST
CONST	SEGMENT
$cppxdata$??1BerconGradientClassDesc@@UEAA@XZ DD 019930522H
	DD	01H
	DD	imagerel $stateUnwindMap$??1BerconGradientClassDesc@@UEAA@XZ
	DD	00H
	DD	00H
	DD	01H
	DD	imagerel $ip2state$??1BerconGradientClassDesc@@UEAA@XZ
	DD	020H
	DD	00H
	DD	04H
CONST	ENDS
;	COMDAT xdata
xdata	SEGMENT
$unwind$??1BerconGradientClassDesc@@UEAA@XZ DD 011211H
	DD	06209H
	DD	imagerel __CxxFrameHandler3
	DD	imagerel $cppxdata$??1BerconGradientClassDesc@@UEAA@XZ
xdata	ENDS
;	COMDAT xdata
xdata	SEGMENT
$ip2state$??0BerconGradientClassDesc@@QEAA@XZ DD imagerel ??0BerconGradientClassDesc@@QEAA@XZ
	DD	0ffffffffH
	DD	imagerel ??0BerconGradientClassDesc@@QEAA@XZ+29
	DD	00H
	DD	imagerel ??0BerconGradientClassDesc@@QEAA@XZ+39
	DD	0ffffffffH
xdata	ENDS
;	COMDAT xdata
xdata	SEGMENT
$stateUnwindMap$??0BerconGradientClassDesc@@QEAA@XZ DD 0ffffffffH
	DD	imagerel ?dtor$0@?0???0BerconGradientClassDesc@@QEAA@XZ@4HA
xdata	ENDS
;	COMDAT CONST
CONST	SEGMENT
$cppxdata$??0BerconGradientClassDesc@@QEAA@XZ DD 019930522H
	DD	01H
	DD	imagerel $stateUnwindMap$??0BerconGradientClassDesc@@QEAA@XZ
	DD	00H
	DD	00H
	DD	03H
	DD	imagerel $ip2state$??0BerconGradientClassDesc@@QEAA@XZ
	DD	020H
	DD	00H
	DD	00H
CONST	ENDS
;	COMDAT xdata
xdata	SEGMENT
$unwind$??0BerconGradientClassDesc@@QEAA@XZ DD 021311H
	DD	03006520aH
	DD	imagerel __CxxFrameHandler3
	DD	imagerel $cppxdata$??0BerconGradientClassDesc@@QEAA@XZ
xdata	ENDS
;	COMDAT xdata
xdata	SEGMENT
$ip2state$?Create@BerconGradientClassDesc@@UEAAPEAXH@Z DD imagerel ?Create@BerconGradientClassDesc@@UEAAPEAXH@Z
	DD	0ffffffffH
	DD	imagerel ?Create@BerconGradientClassDesc@@UEAAPEAXH@Z+29
	DD	00H
	DD	imagerel ?Create@BerconGradientClassDesc@@UEAAPEAXH@Z+43
	DD	0ffffffffH
xdata	ENDS
;	COMDAT xdata
xdata	SEGMENT
$stateUnwindMap$?Create@BerconGradientClassDesc@@UEAAPEAXH@Z DD 0ffffffffH
	DD	imagerel ?dtor$0@?0??Create@BerconGradientClassDesc@@UEAAPEAXH@Z@4HA
xdata	ENDS
;	COMDAT CONST
CONST	SEGMENT
$cppxdata$?Create@BerconGradientClassDesc@@UEAAPEAXH@Z DD 019930522H
	DD	01H
	DD	imagerel $stateUnwindMap$?Create@BerconGradientClassDesc@@UEAAPEAXH@Z
	DD	00H
	DD	00H
	DD	03H
	DD	imagerel $ip2state$?Create@BerconGradientClassDesc@@UEAAPEAXH@Z
	DD	020H
	DD	00H
	DD	00H
CONST	ENDS
;	COMDAT xdata
xdata	SEGMENT
$unwind$?Create@BerconGradientClassDesc@@UEAAPEAXH@Z DD 010d11H
	DD	06204H
	DD	imagerel __CxxFrameHandler3
	DD	imagerel $cppxdata$?Create@BerconGradientClassDesc@@UEAAPEAXH@Z
xdata	ENDS
;	COMDAT xdata
xdata	SEGMENT
$unwind$??_GBerconGradient@@UEAAPEAXI@Z DD 040a01H
	DD	06340aH
	DD	07006320aH
xdata	ENDS
;	COMDAT xdata
xdata	SEGMENT
$ip2state$??1BerconGradient@@UEAA@XZ DD imagerel ??1BerconGradient@@UEAA@XZ
	DD	0ffffffffH
	DD	imagerel ??1BerconGradient@@UEAA@XZ+76
	DD	00H
	DD	imagerel ??1BerconGradient@@UEAA@XZ+173
	DD	0ffffffffH
xdata	ENDS
;	COMDAT xdata
xdata	SEGMENT
$stateUnwindMap$??1BerconGradient@@UEAA@XZ DD 0ffffffffH
	DD	imagerel ?dtor$0@?0???1BerconGradient@@UEAA@XZ@4HA
	DD	0ffffffffH
	DD	imagerel ?dtor$1@?0???1BerconGradient@@UEAA@XZ@4HA
xdata	ENDS
;	COMDAT CONST
CONST	SEGMENT
$cppxdata$??1BerconGradient@@UEAA@XZ DD 019930522H
	DD	02H
	DD	imagerel $stateUnwindMap$??1BerconGradient@@UEAA@XZ
	DD	00H
	DD	00H
	DD	03H
	DD	imagerel $ip2state$??1BerconGradient@@UEAA@XZ
	DD	020H
	DD	00H
	DD	04H
CONST	ENDS
;	COMDAT xdata
xdata	SEGMENT
$unwind$??1BerconGradient@@UEAA@XZ DD 041819H
	DD	093418H
	DD	07006520aH
	DD	imagerel __CxxFrameHandler3
	DD	imagerel $cppxdata$??1BerconGradient@@UEAA@XZ
xdata	ENDS
;	COMDAT xdata
xdata	SEGMENT
$unwind$?dtor$1@?0???0BerconGradient@@QEAA@XZ@4HA DD 020601H
	DD	050023206H
xdata	ENDS
;	COMDAT xdata
xdata	SEGMENT
$ip2state$??0BerconGradient@@QEAA@XZ DD imagerel ??0BerconGradient@@QEAA@XZ
	DD	0ffffffffH
	DD	imagerel ??0BerconGradient@@QEAA@XZ+36
	DD	00H
	DD	imagerel ??0BerconGradient@@QEAA@XZ+237
	DD	01H
	DD	imagerel ??0BerconGradient@@QEAA@XZ+293
	DD	00H
	DD	imagerel ??0BerconGradient@@QEAA@XZ+335
	DD	0ffffffffH
xdata	ENDS
;	COMDAT xdata
xdata	SEGMENT
$stateUnwindMap$??0BerconGradient@@QEAA@XZ DD 0ffffffffH
	DD	imagerel ?dtor$0@?0???0BerconGradient@@QEAA@XZ@4HA
	DD	00H
	DD	imagerel ?dtor$1@?0???0BerconGradient@@QEAA@XZ@4HA
xdata	ENDS
;	COMDAT CONST
CONST	SEGMENT
$cppxdata$??0BerconGradient@@QEAA@XZ DD 019930522H
	DD	02H
	DD	imagerel $stateUnwindMap$??0BerconGradient@@QEAA@XZ
	DD	00H
	DD	00H
	DD	05H
	DD	imagerel $ip2state$??0BerconGradient@@QEAA@XZ
	DD	020H
	DD	00H
	DD	00H
CONST	ENDS
;	COMDAT xdata
xdata	SEGMENT
$unwind$??0BerconGradient@@QEAA@XZ DD 061a11H
	DD	0c341aH
	DD	07008520cH
	DD	050066007H
	DD	imagerel __CxxFrameHandler3
	DD	imagerel $cppxdata$??0BerconGradient@@QEAA@XZ
xdata	ENDS
;	COMDAT xdata
xdata	SEGMENT
$unwind$?GetParamBlockByID@BerconGradient@@UEAAPEAVIParamBlock2@@F@Z DD 040a01H
	DD	06340aH
	DD	07006320aH
xdata	ENDS
;	COMDAT xdata
xdata	SEGMENT
$chain$1$?SetReference@BerconGradient@@UEAAXHPEAVReferenceTarget@@@Z DD 021H
	DD	imagerel $LN18
	DD	imagerel $LN18+167
	DD	imagerel $unwind$?SetReference@BerconGradient@@UEAAXHPEAVReferenceTarget@@@Z
xdata	ENDS
;	COMDAT xdata
xdata	SEGMENT
$chain$0$?SetReference@BerconGradient@@UEAAXHPEAVReferenceTarget@@@Z DD 020521H
	DD	086405H
	DD	imagerel $LN18
	DD	imagerel $LN18+167
	DD	imagerel $unwind$?SetReference@BerconGradient@@UEAAXHPEAVReferenceTarget@@@Z
xdata	ENDS
;	COMDAT xdata
xdata	SEGMENT
$unwind$?SetReference@BerconGradient@@UEAAXHPEAVReferenceTarget@@@Z DD 040a01H
	DD	09340aH
	DD	07006520aH
xdata	ENDS
;	COMDAT xdata
xdata	SEGMENT
$unwind$?dtor$0@?0??SubAnimName@BerconGradient@@UEAA?AVWStr@@H@Z@4HA DD 020601H
	DD	050023206H
xdata	ENDS
;	COMDAT xdata
xdata	SEGMENT
$ip2state$?SubAnimName@BerconGradient@@UEAA?AVWStr@@H@Z DD imagerel ?SubAnimName@BerconGradient@@UEAA?AVWStr@@H@Z
	DD	0ffffffffH
	DD	imagerel ?SubAnimName@BerconGradient@@UEAA?AVWStr@@H@Z+121
	DD	00H
xdata	ENDS
;	COMDAT xdata
xdata	SEGMENT
$stateUnwindMap$?SubAnimName@BerconGradient@@UEAA?AVWStr@@H@Z DD 0ffffffffH
	DD	imagerel ?dtor$0@?0??SubAnimName@BerconGradient@@UEAA?AVWStr@@H@Z@4HA
xdata	ENDS
;	COMDAT CONST
CONST	SEGMENT
$cppxdata$?SubAnimName@BerconGradient@@UEAA?AVWStr@@H@Z DD 019930522H
	DD	01H
	DD	imagerel $stateUnwindMap$?SubAnimName@BerconGradient@@UEAA?AVWStr@@H@Z
	DD	00H
	DD	00H
	DD	02H
	DD	imagerel $ip2state$?SubAnimName@BerconGradient@@UEAA?AVWStr@@H@Z
	DD	028H
	DD	00H
	DD	00H
CONST	ENDS
;	COMDAT xdata
xdata	SEGMENT
$unwind$?SubAnimName@BerconGradient@@UEAA?AVWStr@@H@Z DD 021311H
	DD	03006520aH
	DD	imagerel __CxxFrameHandler3
	DD	imagerel $cppxdata$?SubAnimName@BerconGradient@@UEAA?AVWStr@@H@Z
xdata	ENDS
;	COMDAT xdata
xdata	SEGMENT
$chain$3$?NotifyRefChanged@BerconGradient@@UEAA?AW4RefResult@@AEBVInterval@@PEAVReferenceTarget@@AEA_KIH@Z DD 021H
	DD	imagerel $LN31
	DD	imagerel $LN31+47
	DD	imagerel $unwind$?NotifyRefChanged@BerconGradient@@UEAA?AW4RefResult@@AEBVInterval@@PEAVReferenceTarget@@AEA_KIH@Z
xdata	ENDS
;	COMDAT xdata
xdata	SEGMENT
$chain$2$?NotifyRefChanged@BerconGradient@@UEAA?AW4RefResult@@AEBVInterval@@PEAVReferenceTarget@@AEA_KIH@Z DD 020021H
	DD	063400H
	DD	imagerel $LN31
	DD	imagerel $LN31+47
	DD	imagerel $unwind$?NotifyRefChanged@BerconGradient@@UEAA?AW4RefResult@@AEBVInterval@@PEAVReferenceTarget@@AEA_KIH@Z
xdata	ENDS
;	COMDAT xdata
xdata	SEGMENT
$chain$0$?NotifyRefChanged@BerconGradient@@UEAA?AW4RefResult@@AEBVInterval@@PEAVReferenceTarget@@AEA_KIH@Z DD 020521H
	DD	063405H
	DD	imagerel $LN31
	DD	imagerel $LN31+47
	DD	imagerel $unwind$?NotifyRefChanged@BerconGradient@@UEAA?AW4RefResult@@AEBVInterval@@PEAVReferenceTarget@@AEA_KIH@Z
xdata	ENDS
;	COMDAT xdata
xdata	SEGMENT
$unwind$?NotifyRefChanged@BerconGradient@@UEAA?AW4RefResult@@AEBVInterval@@PEAVReferenceTarget@@AEA_KIH@Z DD 020601H
	DD	070023206H
xdata	ENDS
;	COMDAT xdata
xdata	SEGMENT
$ip2state$?Clone@BerconGradient@@UEAAPEAVReferenceTarget@@AEAVRemapDir@@@Z DD imagerel ?Clone@BerconGradient@@UEAAPEAVReferenceTarget@@AEAVRemapDir@@@Z
	DD	0ffffffffH
	DD	imagerel ?Clone@BerconGradient@@UEAAPEAVReferenceTarget@@AEAVRemapDir@@@Z+64
	DD	00H
	DD	imagerel ?Clone@BerconGradient@@UEAAPEAVReferenceTarget@@AEAVRemapDir@@@Z+87
	DD	0ffffffffH
xdata	ENDS
;	COMDAT xdata
xdata	SEGMENT
$stateUnwindMap$?Clone@BerconGradient@@UEAAPEAVReferenceTarget@@AEAVRemapDir@@@Z DD 0ffffffffH
	DD	imagerel ?dtor$0@?0??Clone@BerconGradient@@UEAAPEAVReferenceTarget@@AEAVRemapDir@@@Z@4HA
xdata	ENDS
;	COMDAT CONST
CONST	SEGMENT
$cppxdata$?Clone@BerconGradient@@UEAAPEAVReferenceTarget@@AEAVRemapDir@@@Z DD 019930522H
	DD	01H
	DD	imagerel $stateUnwindMap$?Clone@BerconGradient@@UEAAPEAVReferenceTarget@@AEAVRemapDir@@@Z
	DD	00H
	DD	00H
	DD	03H
	DD	imagerel $ip2state$?Clone@BerconGradient@@UEAAPEAVReferenceTarget@@AEAVRemapDir@@@Z
	DD	020H
	DD	00H
	DD	00H
CONST	ENDS
;	COMDAT xdata
xdata	SEGMENT
$unwind$?Clone@BerconGradient@@UEAAPEAVReferenceTarget@@AEAVRemapDir@@@Z DD 0a2211H
	DD	0d6422H
	DD	0c541dH
	DD	0b3418H
	DD	0f006520aH
	DD	07002e004H
	DD	imagerel __CxxFrameHandler3
	DD	imagerel $cppxdata$?Clone@BerconGradient@@UEAAPEAVReferenceTarget@@AEAVRemapDir@@@Z
xdata	ENDS
;	COMDAT xdata
xdata	SEGMENT
$unwind$?GetClassName@BerconGradient@@UEAAXAEAVWStr@@@Z DD 020601H
	DD	030023206H
xdata	ENDS
;	COMDAT xdata
xdata	SEGMENT
$chain$1$?GetActiveTexHandle@BerconGradient@@UEAA_KHAEAVTexHandleMaker@@@Z DD 021H
	DD	imagerel $LN10
	DD	imagerel $LN10+107
	DD	imagerel $unwind$?GetActiveTexHandle@BerconGradient@@UEAA_KHAEAVTexHandleMaker@@@Z
xdata	ENDS
;	COMDAT xdata
xdata	SEGMENT
$chain$0$?GetActiveTexHandle@BerconGradient@@UEAA_KHAEAVTexHandleMaker@@@Z DD 020521H
	DD	0a3405H
	DD	imagerel $LN10
	DD	imagerel $LN10+107
	DD	imagerel $unwind$?GetActiveTexHandle@BerconGradient@@UEAA_KHAEAVTexHandleMaker@@@Z
xdata	ENDS
;	COMDAT xdata
xdata	SEGMENT
$unwind$?GetActiveTexHandle@BerconGradient@@UEAA_KHAEAVTexHandleMaker@@@Z DD 081501H
	DD	0d7415H
	DD	0c6415H
	DD	0b5415H
	DD	0e0117215H
xdata	ENDS
;	COMDAT xdata
xdata	SEGMENT
$unwind$?ActivateTexDisplay@BerconGradient@@UEAAXH@Z DD 020901H
	DD	030053209H
xdata	ENDS
;	COMDAT xdata
xdata	SEGMENT
$unwind$?DiscardTexHandle@BerconGradient@@QEAAXXZ DD 020601H
	DD	030023206H
xdata	ENDS
;	COMDAT xdata
xdata	SEGMENT
$chain$13$?EvalNormalPerturb@BerconGradient@@UEAA?AVPoint3@@AEAVShadeContext@@@Z DD 021H
	DD	imagerel $LN102
	DD	imagerel $LN102+85
	DD	imagerel $unwind$?EvalNormalPerturb@BerconGradient@@UEAA?AVPoint3@@AEAVShadeContext@@@Z
xdata	ENDS
;	COMDAT xdata
xdata	SEGMENT
$chain$4$?EvalNormalPerturb@BerconGradient@@UEAA?AVPoint3@@AEAVShadeContext@@@Z DD 040021H
	DD	0136800H
	DD	031e400H
	DD	imagerel $LN102+85
	DD	imagerel $LN102+93
	DD	imagerel $chain$0$?EvalNormalPerturb@BerconGradient@@UEAA?AVPoint3@@AEAVShadeContext@@@Z
xdata	ENDS
;	COMDAT xdata
xdata	SEGMENT
$chain$12$?EvalNormalPerturb@BerconGradient@@UEAA?AVPoint3@@AEAVShadeContext@@@Z DD 021H
	DD	imagerel $LN102+235
	DD	imagerel $LN102+413
	DD	imagerel $chain$6$?EvalNormalPerturb@BerconGradient@@UEAA?AVPoint3@@AEAVShadeContext@@@Z
xdata	ENDS
;	COMDAT xdata
xdata	SEGMENT
$chain$11$?EvalNormalPerturb@BerconGradient@@UEAA?AVPoint3@@AEAVShadeContext@@@Z DD 021H
	DD	imagerel $LN102+413
	DD	imagerel $LN102+902
	DD	imagerel $chain$9$?EvalNormalPerturb@BerconGradient@@UEAA?AVPoint3@@AEAVShadeContext@@@Z
xdata	ENDS
;	COMDAT xdata
xdata	SEGMENT
$chain$10$?EvalNormalPerturb@BerconGradient@@UEAA?AVPoint3@@AEAVShadeContext@@@Z DD 020921H
	DD	0fa809H
	DD	imagerel $LN102+413
	DD	imagerel $LN102+902
	DD	imagerel $chain$9$?EvalNormalPerturb@BerconGradient@@UEAA?AVPoint3@@AEAVShadeContext@@@Z
xdata	ENDS
;	COMDAT xdata
xdata	SEGMENT
$chain$9$?EvalNormalPerturb@BerconGradient@@UEAA?AVPoint3@@AEAVShadeContext@@@Z DD 061e21H
	DD	0eb81eH
	DD	0109815H
	DD	0118809H
	DD	imagerel $LN102+235
	DD	imagerel $LN102+413
	DD	imagerel $chain$6$?EvalNormalPerturb@BerconGradient@@UEAA?AVPoint3@@AEAVShadeContext@@@Z
xdata	ENDS
;	COMDAT xdata
xdata	SEGMENT
$chain$6$?EvalNormalPerturb@BerconGradient@@UEAA?AVPoint3@@AEAVShadeContext@@@Z DD 041221H
	DD	0dc812H
	DD	0127809H
	DD	imagerel $LN102+1256
	DD	imagerel $LN102+1281
	DD	imagerel $chain$4$?EvalNormalPerturb@BerconGradient@@UEAA?AVPoint3@@AEAVShadeContext@@@Z
xdata	ENDS
;	COMDAT xdata
xdata	SEGMENT
$chain$3$?EvalNormalPerturb@BerconGradient@@UEAA?AVPoint3@@AEAVShadeContext@@@Z DD 061921H
	DD	0136819H
	DD	031e410H
	DD	0307408H
	DD	imagerel $LN102+85
	DD	imagerel $LN102+93
	DD	imagerel $chain$0$?EvalNormalPerturb@BerconGradient@@UEAA?AVPoint3@@AEAVShadeContext@@@Z
xdata	ENDS
;	COMDAT xdata
xdata	SEGMENT
$chain$0$?EvalNormalPerturb@BerconGradient@@UEAA?AVPoint3@@AEAVShadeContext@@@Z DD 020821H
	DD	02f3408H
	DD	imagerel $LN102
	DD	imagerel $LN102+85
	DD	imagerel $unwind$?EvalNormalPerturb@BerconGradient@@UEAA?AVPoint3@@AEAVShadeContext@@@Z
xdata	ENDS
;	COMDAT xdata
xdata	SEGMENT
$unwind$?EvalNormalPerturb@BerconGradient@@UEAA?AVPoint3@@AEAVShadeContext@@@Z DD 071501H
	DD	0280115H
	DD	0d007f009H
	DD	06003c005H
	DD	05002H
xdata	ENDS
;	COMDAT xdata
xdata	SEGMENT
$unwind$?EvalMono@BerconGradient@@UEAAMAEAVShadeContext@@@Z DD 010401H
	DD	06204H
xdata	ENDS
;	COMDAT xdata
xdata	SEGMENT
$chain$3$?EvalColor@BerconGradient@@UEAA?AVAColor@@AEAVShadeContext@@@Z DD 021H
	DD	imagerel $LN26
	DD	imagerel $LN26+101
	DD	imagerel $unwind$?EvalColor@BerconGradient@@UEAA?AVAColor@@AEAVShadeContext@@@Z
xdata	ENDS
;	COMDAT xdata
xdata	SEGMENT
$chain$2$?EvalColor@BerconGradient@@UEAA?AVAColor@@AEAVShadeContext@@@Z DD 021H
	DD	imagerel $LN26+101
	DD	imagerel $LN26+222
	DD	imagerel $chain$0$?EvalColor@BerconGradient@@UEAA?AVAColor@@AEAVShadeContext@@@Z
xdata	ENDS
;	COMDAT xdata
xdata	SEGMENT
$chain$1$?EvalColor@BerconGradient@@UEAA?AVAColor@@AEAVShadeContext@@@Z DD 020621H
	DD	047806H
	DD	imagerel $LN26+101
	DD	imagerel $LN26+222
	DD	imagerel $chain$0$?EvalColor@BerconGradient@@UEAA?AVAColor@@AEAVShadeContext@@@Z
xdata	ENDS
;	COMDAT xdata
xdata	SEGMENT
$chain$0$?EvalColor@BerconGradient@@UEAA?AVAColor@@AEAVShadeContext@@@Z DD 020621H
	DD	056806H
	DD	imagerel $LN26
	DD	imagerel $LN26+101
	DD	imagerel $unwind$?EvalColor@BerconGradient@@UEAA?AVAColor@@AEAVShadeContext@@@Z
xdata	ENDS
;	COMDAT xdata
xdata	SEGMENT
$unwind$?EvalColor@BerconGradient@@UEAA?AVAColor@@AEAVShadeContext@@@Z DD 060f01H
	DD	010640fH
	DD	0e340fH
	DD	0700bb20fH
xdata	ENDS
;	COMDAT xdata
xdata	SEGMENT
$unwind$?dtor$0@?0??GetSubTexmapSlotName@BerconGradient@@UEAA?AVWStr@@H@Z@4HA DD 020601H
	DD	050023206H
xdata	ENDS
;	COMDAT xdata
xdata	SEGMENT
$ip2state$?GetSubTexmapSlotName@BerconGradient@@UEAA?AVWStr@@H@Z DD imagerel ?GetSubTexmapSlotName@BerconGradient@@UEAA?AVWStr@@H@Z
	DD	0ffffffffH
	DD	imagerel ?GetSubTexmapSlotName@BerconGradient@@UEAA?AVWStr@@H@Z+58
	DD	00H
	DD	imagerel ?GetSubTexmapSlotName@BerconGradient@@UEAA?AVWStr@@H@Z+68
	DD	0ffffffffH
	DD	imagerel ?GetSubTexmapSlotName@BerconGradient@@UEAA?AVWStr@@H@Z+96
	DD	00H
	DD	imagerel ?GetSubTexmapSlotName@BerconGradient@@UEAA?AVWStr@@H@Z+106
	DD	0ffffffffH
	DD	imagerel ?GetSubTexmapSlotName@BerconGradient@@UEAA?AVWStr@@H@Z+131
	DD	01H
	DD	imagerel ?GetSubTexmapSlotName@BerconGradient@@UEAA?AVWStr@@H@Z+153
	DD	00H
xdata	ENDS
;	COMDAT xdata
xdata	SEGMENT
$stateUnwindMap$?GetSubTexmapSlotName@BerconGradient@@UEAA?AVWStr@@H@Z DD 0ffffffffH
	DD	imagerel ?dtor$0@?0??GetSubTexmapSlotName@BerconGradient@@UEAA?AVWStr@@H@Z@4HA
	DD	00H
	DD	imagerel ?dtor$1@?0??GetSubTexmapSlotName@BerconGradient@@UEAA?AVWStr@@H@Z@4HA
xdata	ENDS
;	COMDAT CONST
CONST	SEGMENT
$cppxdata$?GetSubTexmapSlotName@BerconGradient@@UEAA?AVWStr@@H@Z DD 019930522H
	DD	02H
	DD	imagerel $stateUnwindMap$?GetSubTexmapSlotName@BerconGradient@@UEAA?AVWStr@@H@Z
	DD	00H
	DD	00H
	DD	07H
	DD	imagerel $ip2state$?GetSubTexmapSlotName@BerconGradient@@UEAA?AVWStr@@H@Z
	DD	028H
	DD	00H
	DD	00H
CONST	ENDS
;	COMDAT xdata
xdata	SEGMENT
$unwind$?GetSubTexmapSlotName@BerconGradient@@UEAA?AVWStr@@H@Z DD 021311H
	DD	03006520aH
	DD	imagerel __CxxFrameHandler3
	DD	imagerel $cppxdata$?GetSubTexmapSlotName@BerconGradient@@UEAA?AVWStr@@H@Z
xdata	ENDS
;	COMDAT xdata
xdata	SEGMENT
$unwind$?SetSubTexmap@BerconGradient@@UEAAXHPEAVTexmap@@@Z DD 040a01H
	DD	06340aH
	DD	07006320aH
xdata	ENDS
;	COMDAT xdata
xdata	SEGMENT
$unwind$?Validity@BerconGradient@@UEAA?AVInterval@@H@Z DD 040a01H
	DD	07340aH
	DD	07006320aH
xdata	ENDS
;	COMDAT xdata
xdata	SEGMENT
$unwind$?Reset@BerconGradient@@UEAAXXZ DD 060f01H
	DD	0b640fH
	DD	0a340fH
	DD	0700b720fH
xdata	ENDS
;	COMDAT xdata
xdata	SEGMENT
$chain$8$?Update@BerconGradient@@UEAAXHAEAVInterval@@@Z DD 021H
	DD	imagerel $LN38
	DD	imagerel $LN38+45
	DD	imagerel $unwind$?Update@BerconGradient@@UEAAXHAEAVInterval@@@Z
xdata	ENDS
;	COMDAT xdata
xdata	SEGMENT
$chain$7$?Update@BerconGradient@@UEAAXHAEAVInterval@@@Z DD 021H
	DD	imagerel $LN38+45
	DD	imagerel $LN38+84
	DD	imagerel $chain$0$?Update@BerconGradient@@UEAAXHAEAVInterval@@@Z
xdata	ENDS
;	COMDAT xdata
xdata	SEGMENT
$chain$6$?Update@BerconGradient@@UEAAXHAEAVInterval@@@Z DD 020021H
	DD	0ce400H
	DD	imagerel $LN38+45
	DD	imagerel $LN38+84
	DD	imagerel $chain$0$?Update@BerconGradient@@UEAAXHAEAVInterval@@@Z
xdata	ENDS
;	COMDAT xdata
xdata	SEGMENT
$chain$5$?Update@BerconGradient@@UEAAXHAEAVInterval@@@Z DD 021H
	DD	imagerel $LN38+84
	DD	imagerel $LN38+672
	DD	imagerel $chain$3$?Update@BerconGradient@@UEAAXHAEAVInterval@@@Z
xdata	ENDS
;	COMDAT xdata
xdata	SEGMENT
$chain$4$?Update@BerconGradient@@UEAAXHAEAVInterval@@@Z DD 020621H
	DD	056806H
	DD	imagerel $LN38+84
	DD	imagerel $LN38+672
	DD	imagerel $chain$3$?Update@BerconGradient@@UEAAXHAEAVInterval@@@Z
xdata	ENDS
;	COMDAT xdata
xdata	SEGMENT
$chain$3$?Update@BerconGradient@@UEAAXHAEAVInterval@@@Z DD 061521H
	DD	0ce415H
	DD	0dc40dH
	DD	0133408H
	DD	imagerel $LN38+45
	DD	imagerel $LN38+84
	DD	imagerel $chain$0$?Update@BerconGradient@@UEAAXHAEAVInterval@@@Z
xdata	ENDS
;	COMDAT xdata
xdata	SEGMENT
$chain$0$?Update@BerconGradient@@UEAAXHAEAVInterval@@@Z DD 020821H
	DD	0146408H
	DD	imagerel $LN38
	DD	imagerel $LN38+45
	DD	imagerel $unwind$?Update@BerconGradient@@UEAAXHAEAVInterval@@@Z
xdata	ENDS
;	COMDAT xdata
xdata	SEGMENT
$unwind$?Update@BerconGradient@@UEAAXHAEAVInterval@@@Z DD 040901H
	DD	0f005d209H
	DD	050027003H
xdata	ENDS
;	COMDAT xdata
xdata	SEGMENT
$unwind$?SetDlgThing@BerconGradient@@UEAAHPEAVParamDlg@@@Z DD 010401H
	DD	04204H
xdata	ENDS
;	COMDAT xdata
xdata	SEGMENT
$ip2state$?CreateParamDlg@BerconGradient@@UEAAPEAVParamDlg@@PEAUHWND__@@PEAVIMtlParams@@@Z DD imagerel ?CreateParamDlg@BerconGradient@@UEAAPEAVParamDlg@@PEAUHWND__@@PEAVIMtlParams@@@Z
	DD	0ffffffffH
	DD	imagerel ?CreateParamDlg@BerconGradient@@UEAAPEAVParamDlg@@PEAUHWND__@@PEAVIMtlParams@@@Z+117
	DD	00H
	DD	imagerel ?CreateParamDlg@BerconGradient@@UEAAPEAVParamDlg@@PEAUHWND__@@PEAVIMtlParams@@@Z+132
	DD	01H
	DD	imagerel ?CreateParamDlg@BerconGradient@@UEAAPEAVParamDlg@@PEAUHWND__@@PEAVIMtlParams@@@Z+154
	DD	0ffffffffH
	DD	imagerel ?CreateParamDlg@BerconGradient@@UEAAPEAVParamDlg@@PEAUHWND__@@PEAVIMtlParams@@@Z+188
	DD	02H
	DD	imagerel ?CreateParamDlg@BerconGradient@@UEAAPEAVParamDlg@@PEAUHWND__@@PEAVIMtlParams@@@Z+196
	DD	03H
	DD	imagerel ?CreateParamDlg@BerconGradient@@UEAAPEAVParamDlg@@PEAUHWND__@@PEAVIMtlParams@@@Z+210
	DD	0ffffffffH
xdata	ENDS
;	COMDAT xdata
xdata	SEGMENT
$stateUnwindMap$?CreateParamDlg@BerconGradient@@UEAAPEAVParamDlg@@PEAUHWND__@@PEAVIMtlParams@@@Z DD 0ffffffffH
	DD	imagerel ?dtor$0@?0??CreateParamDlg@BerconGradient@@UEAAPEAVParamDlg@@PEAUHWND__@@PEAVIMtlParams@@@Z@4HA
	DD	00H
	DD	imagerel ?dtor$2@?0??CreateParamDlg@BerconGradient@@UEAAPEAVParamDlg@@PEAUHWND__@@PEAVIMtlParams@@@Z@4HA
	DD	0ffffffffH
	DD	imagerel ?dtor$1@?0??CreateParamDlg@BerconGradient@@UEAAPEAVParamDlg@@PEAUHWND__@@PEAVIMtlParams@@@Z@4HA
	DD	02H
	DD	imagerel ?dtor$3@?0??CreateParamDlg@BerconGradient@@UEAAPEAVParamDlg@@PEAUHWND__@@PEAVIMtlParams@@@Z@4HA
xdata	ENDS
;	COMDAT CONST
CONST	SEGMENT
$cppxdata$?CreateParamDlg@BerconGradient@@UEAAPEAVParamDlg@@PEAUHWND__@@PEAVIMtlParams@@@Z DD 019930522H
	DD	04H
	DD	imagerel $stateUnwindMap$?CreateParamDlg@BerconGradient@@UEAAPEAVParamDlg@@PEAUHWND__@@PEAVIMtlParams@@@Z
	DD	00H
	DD	00H
	DD	07H
	DD	imagerel $ip2state$?CreateParamDlg@BerconGradient@@UEAAPEAVParamDlg@@PEAUHWND__@@PEAVIMtlParams@@@Z
	DD	020H
	DD	00H
	DD	00H
CONST	ENDS
;	COMDAT xdata
xdata	SEGMENT
$unwind$?CreateParamDlg@BerconGradient@@UEAAPEAVParamDlg@@PEAUHWND__@@PEAVIMtlParams@@@Z DD 081e11H
	DD	0b741eH
	DD	0a6419H
	DD	093414H
	DD	0e0025206H
	DD	imagerel __CxxFrameHandler3
	DD	imagerel $cppxdata$?CreateParamDlg@BerconGradient@@UEAAPEAVParamDlg@@PEAUHWND__@@PEAVIMtlParams@@@Z
xdata	ENDS
;	COMDAT xdata
xdata	SEGMENT
$chain$2$?gradSelKey@BerconGradient@@UEAAXXZ DD 021H
	DD	imagerel $LN13
	DD	imagerel $LN13+20
	DD	imagerel $unwind$?gradSelKey@BerconGradient@@UEAAXXZ
xdata	ENDS
;	COMDAT xdata
xdata	SEGMENT
$chain$1$?gradSelKey@BerconGradient@@UEAAXXZ DD 040a21H
	DD	08740aH
	DD	073405H
	DD	imagerel $LN13
	DD	imagerel $LN13+20
	DD	imagerel $unwind$?gradSelKey@BerconGradient@@UEAAXXZ
xdata	ENDS
;	COMDAT xdata
xdata	SEGMENT
$unwind$?gradSelKey@BerconGradient@@UEAAXXZ DD 020601H
	DD	060023206H
xdata	ENDS
;	COMDAT xdata
xdata	SEGMENT
$chain$1$?gradDelKey@BerconGradient@@UEAAXH@Z DD 021H
	DD	imagerel $LN13
	DD	imagerel $LN13+35
	DD	imagerel $unwind$?gradDelKey@BerconGradient@@UEAAXH@Z
xdata	ENDS
;	COMDAT xdata
xdata	SEGMENT
$chain$0$?gradDelKey@BerconGradient@@UEAAXH@Z DD 020521H
	DD	076405H
	DD	imagerel $LN13
	DD	imagerel $LN13+35
	DD	imagerel $unwind$?gradDelKey@BerconGradient@@UEAAXH@Z
xdata	ENDS
;	COMDAT xdata
xdata	SEGMENT
$unwind$?gradDelKey@BerconGradient@@UEAAXH@Z DD 040a01H
	DD	08340aH
	DD	07006320aH
xdata	ENDS
;	COMDAT xdata
xdata	SEGMENT
$unwind$?gradMoveKey@BerconGradient@@UEAAXHM@Z DD 0a1a01H
	DD	03681aH
	DD	0d6414H
	DD	0c5414H
	DD	0b3414H
	DD	070107214H
xdata	ENDS
;	COMDAT xdata
xdata	SEGMENT
$chain$2$?gradAddKey@BerconGradient@@UEAAXM@Z DD 021H
	DD	imagerel $LN11
	DD	imagerel $LN11+25
	DD	imagerel $unwind$?gradAddKey@BerconGradient@@UEAAXM@Z
xdata	ENDS
;	COMDAT xdata
xdata	SEGMENT
$chain$1$?gradAddKey@BerconGradient@@UEAAXM@Z DD 040a21H
	DD	08740aH
	DD	096405H
	DD	imagerel $LN11
	DD	imagerel $LN11+25
	DD	imagerel $unwind$?gradAddKey@BerconGradient@@UEAAXM@Z
xdata	ENDS
;	COMDAT xdata
xdata	SEGMENT
$unwind$?gradAddKey@BerconGradient@@UEAAXM@Z DD 020b01H
	DD	03007920bH
xdata	ENDS
;	COMDAT xdata
xdata	SEGMENT
$unwind$?resetKeys@BerconGradient@@QEAAXXZ DD 020601H
	DD	03002d206H
xdata	ENDS
;	COMDAT xdata
xdata	SEGMENT
$unwind$?countKeys@BerconGradient@@QEAAHXZ DD 042701H
	DD	067427H
	DD	030023206H
xdata	ENDS
;	COMDAT xdata
xdata	SEGMENT
$chain$1$?keyPosChanged@BerconGradient@@QEAAXM@Z DD 021H
	DD	imagerel $LN12
	DD	imagerel $LN12+56
	DD	imagerel $unwind$?keyPosChanged@BerconGradient@@QEAAXM@Z
xdata	ENDS
;	COMDAT xdata
xdata	SEGMENT
$chain$0$?keyPosChanged@BerconGradient@@QEAAXM@Z DD 020521H
	DD	0b3405H
	DD	imagerel $LN12
	DD	imagerel $LN12+56
	DD	imagerel $unwind$?keyPosChanged@BerconGradient@@QEAAXM@Z
xdata	ENDS
;	COMDAT xdata
xdata	SEGMENT
$unwind$?keyPosChanged@BerconGradient@@QEAAXM@Z DD 041701H
	DD	036817H
	DD	070027206H
xdata	ENDS
;	COMDAT xdata
xdata	SEGMENT
$unwind$?keyNumChanged@BerconGradient@@QEAAXH@Z DD 040a01H
	DD	07340aH
	DD	07006320aH
xdata	ENDS
;	COMDAT xdata
xdata	SEGMENT
$unwind$?keyColorChanged@BerconGradient@@QEAAXVAColor@@@Z DD 040a01H
	DD	09340aH
	DD	07006520aH
xdata	ENDS
;	COMDAT xdata
xdata	SEGMENT
$chain$1$?setKeyTex@BerconGradient@@QEAAXPEAVTexmap@@@Z DD 021H
	DD	imagerel $LN9
	DD	imagerel $LN9+35
	DD	imagerel $unwind$?setKeyTex@BerconGradient@@QEAAXPEAVTexmap@@@Z
xdata	ENDS
;	COMDAT xdata
xdata	SEGMENT
$chain$0$?setKeyTex@BerconGradient@@QEAAXPEAVTexmap@@@Z DD 020521H
	DD	086405H
	DD	imagerel $LN9
	DD	imagerel $LN9+35
	DD	imagerel $unwind$?setKeyTex@BerconGradient@@QEAAXPEAVTexmap@@@Z
xdata	ENDS
;	COMDAT xdata
xdata	SEGMENT
$unwind$?setKeyTex@BerconGradient@@QEAAXPEAVTexmap@@@Z DD 040a01H
	DD	09340aH
	DD	07006520aH
xdata	ENDS
;	COMDAT xdata
xdata	SEGMENT
$chain$4$?getGradientValue@BerconGradient@@QEAAMAEAVShadeContext@@@Z DD 021H
	DD	imagerel $LN43
	DD	imagerel $LN43+98
	DD	imagerel $unwind$?getGradientValue@BerconGradient@@QEAAMAEAVShadeContext@@@Z
xdata	ENDS
;	COMDAT xdata
xdata	SEGMENT
$chain$3$?getGradientValue@BerconGradient@@QEAAMAEAVShadeContext@@@Z DD 081b21H
	DD	03981bH
	DD	048815H
	DD	05780fH
	DD	066806H
	DD	imagerel $LN43
	DD	imagerel $LN43+98
	DD	imagerel $unwind$?getGradientValue@BerconGradient@@QEAAMAEAVShadeContext@@@Z
xdata	ENDS
;	COMDAT xdata
xdata	SEGMENT
$unwind$?getGradientValue@BerconGradient@@QEAAMAEAVShadeContext@@@Z DD 081401H
	DD	0126414H
	DD	0115414H
	DD	0103414H
	DD	07010d214H
xdata	ENDS
;	COMDAT xdata
xdata	SEGMENT
$unwind$?getGradientValueNormal@BerconGradient@@QEAAMAEAVShadeContext@@@Z DD 091c01H
	DD	016741cH
	DD	015641cH
	DD	014341cH
	DD	012011cH
	DD	05010H
xdata	ENDS
;	COMDAT xdata
xdata	SEGMENT
$chain$3$?getGradientValueDist@BerconGradient@@QEAAMAEAVShadeContext@@@Z DD 021H
	DD	imagerel $LN56
	DD	imagerel $LN56+588
	DD	imagerel $unwind$?getGradientValueDist@BerconGradient@@QEAAMAEAVShadeContext@@@Z
xdata	ENDS
;	COMDAT xdata
xdata	SEGMENT
$chain$2$?getGradientValueDist@BerconGradient@@QEAAMAEAVShadeContext@@@Z DD 061b21H
	DD	08881bH
	DD	097812H
	DD	0a6809H
	DD	imagerel $LN56
	DD	imagerel $LN56+588
	DD	imagerel $unwind$?getGradientValueDist@BerconGradient@@QEAAMAEAVShadeContext@@@Z
xdata	ENDS
;	COMDAT xdata
xdata	SEGMENT
$unwind$?getGradientValueDist@BerconGradient@@QEAAMAEAVShadeContext@@@Z DD 091c01H
	DD	01a741cH
	DD	019641cH
	DD	018341cH
	DD	016011cH
	DD	05010H
xdata	ENDS
;	COMDAT xdata
xdata	SEGMENT
$unwind$?getGradientValueUVW@BerconGradient@@QEAAMVPoint3@@@Z DD 041601H
	DD	036816H
	DD	030027206H
xdata	ENDS
;	COMDAT xdata
xdata	SEGMENT
$chain$10$?EnableStuff@BerconGradient@@QEAAXXZ DD 021H
	DD	imagerel $LN18
	DD	imagerel $LN18+30
	DD	imagerel $unwind$?EnableStuff@BerconGradient@@QEAAXXZ
xdata	ENDS
;	COMDAT xdata
xdata	SEGMENT
$chain$9$?EnableStuff@BerconGradient@@QEAAXXZ DD 021H
	DD	imagerel $LN18+30
	DD	imagerel $LN18+53
	DD	imagerel $chain$0$?EnableStuff@BerconGradient@@QEAAXXZ
xdata	ENDS
;	COMDAT xdata
xdata	SEGMENT
$chain$8$?EnableStuff@BerconGradient@@QEAAXXZ DD 020021H
	DD	08c400H
	DD	imagerel $LN18+53
	DD	imagerel $LN18+63
	DD	imagerel $chain$2$?EnableStuff@BerconGradient@@QEAAXXZ
xdata	ENDS
;	COMDAT xdata
xdata	SEGMENT
$chain$7$?EnableStuff@BerconGradient@@QEAAXXZ DD 040021H
	DD	07d400H
	DD	08c400H
	DD	imagerel $LN18+53
	DD	imagerel $LN18+63
	DD	imagerel $chain$2$?EnableStuff@BerconGradient@@QEAAXXZ
xdata	ENDS
;	COMDAT xdata
xdata	SEGMENT
$chain$6$?EnableStuff@BerconGradient@@QEAAXXZ DD 081421H
	DD	07d414H
	DD	08c40fH
	DD	09740aH
	DD	0e6405H
	DD	imagerel $LN18+53
	DD	imagerel $LN18+63
	DD	imagerel $chain$2$?EnableStuff@BerconGradient@@QEAAXXZ
xdata	ENDS
;	COMDAT xdata
xdata	SEGMENT
$chain$2$?EnableStuff@BerconGradient@@QEAAXXZ DD 040a21H
	DD	0d540aH
	DD	0c3405H
	DD	imagerel $LN18+30
	DD	imagerel $LN18+53
	DD	imagerel $chain$0$?EnableStuff@BerconGradient@@QEAAXXZ
xdata	ENDS
;	COMDAT xdata
xdata	SEGMENT
$chain$0$?EnableStuff@BerconGradient@@QEAAXXZ DD 020521H
	DD	06e405H
	DD	imagerel $LN18
	DD	imagerel $LN18+30
	DD	imagerel $unwind$?EnableStuff@BerconGradient@@QEAAXXZ
xdata	ENDS
;	COMDAT xdata
xdata	SEGMENT
$unwind$?EnableStuff@BerconGradient@@QEAAXXZ DD 020601H
	DD	0f0029206H
xdata	ENDS
;	COMDAT xdata
xdata	SEGMENT
$chain$3$?seedRandomGen@BerconGradient@@QEAAXAEAVShadeContext@@@Z DD 021H
	DD	imagerel $LN14
	DD	imagerel $LN14+64
	DD	imagerel $unwind$?seedRandomGen@BerconGradient@@QEAAXAEAVShadeContext@@@Z
xdata	ENDS
;	COMDAT xdata
xdata	SEGMENT
$chain$2$?seedRandomGen@BerconGradient@@QEAAXAEAVShadeContext@@@Z DD 021H
	DD	imagerel $LN14+64
	DD	imagerel $LN14+185
	DD	imagerel $chain$0$?seedRandomGen@BerconGradient@@QEAAXAEAVShadeContext@@@Z
xdata	ENDS
;	COMDAT xdata
xdata	SEGMENT
$chain$1$?seedRandomGen@BerconGradient@@QEAAXAEAVShadeContext@@@Z DD 020521H
	DD	09e405H
	DD	imagerel $LN14+64
	DD	imagerel $LN14+185
	DD	imagerel $chain$0$?seedRandomGen@BerconGradient@@QEAAXAEAVShadeContext@@@Z
xdata	ENDS
;	COMDAT xdata
xdata	SEGMENT
$chain$0$?seedRandomGen@BerconGradient@@QEAAXAEAVShadeContext@@@Z DD 020521H
	DD	083405H
	DD	imagerel $LN14
	DD	imagerel $LN14+64
	DD	imagerel $unwind$?seedRandomGen@BerconGradient@@QEAAXAEAVShadeContext@@@Z
xdata	ENDS
;	COMDAT xdata
xdata	SEGMENT
$unwind$?seedRandomGen@BerconGradient@@QEAAXAEAVShadeContext@@@Z DD 060f01H
	DD	0b640fH
	DD	0a540fH
	DD	0700b520fH
xdata	ENDS
;	COMDAT xdata
xdata	SEGMENT
$ip2state$??_GIGradient@@UEAAPEAXI@Z DD imagerel ??_GIGradient@@UEAAPEAXI@Z
	DD	0ffffffffH
	DD	imagerel ??_GIGradient@@UEAAPEAXI@Z+39
	DD	00H
	DD	imagerel ??_GIGradient@@UEAAPEAXI@Z+78
	DD	0ffffffffH
xdata	ENDS
;	COMDAT xdata
xdata	SEGMENT
$stateUnwindMap$??_GIGradient@@UEAAPEAXI@Z DD 0ffffffffH
	DD	imagerel ?dtor$0@?0???_GIGradient@@UEAAPEAXI@Z@4HA
	DD	0ffffffffH
	DD	imagerel ?dtor$1@?0???_GIGradient@@UEAAPEAXI@Z@4HA
xdata	ENDS
;	COMDAT CONST
CONST	SEGMENT
$cppxdata$??_GIGradient@@UEAAPEAXI@Z DD 019930522H
	DD	02H
	DD	imagerel $stateUnwindMap$??_GIGradient@@UEAAPEAXI@Z
	DD	00H
	DD	00H
	DD	03H
	DD	imagerel $ip2state$??_GIGradient@@UEAAPEAXI@Z
	DD	020H
	DD	00H
	DD	04H
CONST	ENDS
;	COMDAT xdata
xdata	SEGMENT
$unwind$??_GIGradient@@UEAAPEAXI@Z DD 041819H
	DD	093418H
	DD	07006520aH
	DD	imagerel __CxxFrameHandler3
	DD	imagerel $cppxdata$??_GIGradient@@UEAAPEAXI@Z
xdata	ENDS
;	COMDAT xdata
xdata	SEGMENT
$ip2state$??1IGradient@@UEAA@XZ DD imagerel ??1IGradient@@UEAA@XZ
	DD	0ffffffffH
	DD	imagerel ??1IGradient@@UEAA@XZ+32
	DD	00H
	DD	imagerel ??1IGradient@@UEAA@XZ+71
	DD	0ffffffffH
xdata	ENDS
;	COMDAT xdata
xdata	SEGMENT
$stateUnwindMap$??1IGradient@@UEAA@XZ DD 0ffffffffH
	DD	imagerel ?dtor$0@?0???1IGradient@@UEAA@XZ@4HA
	DD	0ffffffffH
	DD	imagerel ?dtor$1@?0???1IGradient@@UEAA@XZ@4HA
xdata	ENDS
;	COMDAT CONST
CONST	SEGMENT
$cppxdata$??1IGradient@@UEAA@XZ DD 019930522H
	DD	02H
	DD	imagerel $stateUnwindMap$??1IGradient@@UEAA@XZ
	DD	00H
	DD	00H
	DD	03H
	DD	imagerel $ip2state$??1IGradient@@UEAA@XZ
	DD	020H
	DD	00H
	DD	04H
CONST	ENDS
;	COMDAT xdata
xdata	SEGMENT
$unwind$??1IGradient@@UEAA@XZ DD 021319H
	DD	03006520aH
	DD	imagerel __CxxFrameHandler3
	DD	imagerel $cppxdata$??1IGradient@@UEAA@XZ
xdata	ENDS
;	COMDAT xdata
xdata	SEGMENT
$ip2state$??0IGradient@@QEAA@PEAUHWND__@@PEAVGradientRamp@@@Z DD imagerel ??0IGradient@@QEAA@PEAUHWND__@@PEAVGradientRamp@@@Z
	DD	0ffffffffH
	DD	imagerel ??0IGradient@@QEAA@PEAUHWND__@@PEAVGradientRamp@@@Z+35
	DD	00H
	DD	imagerel ??0IGradient@@QEAA@PEAUHWND__@@PEAVGradientRamp@@@Z+45
	DD	01H
	DD	imagerel ??0IGradient@@QEAA@PEAUHWND__@@PEAVGradientRamp@@@Z+81
	DD	0ffffffffH
xdata	ENDS
;	COMDAT xdata
xdata	SEGMENT
$stateUnwindMap$??0IGradient@@QEAA@PEAUHWND__@@PEAVGradientRamp@@@Z DD 0ffffffffH
	DD	imagerel ?dtor$1@?0???0IGradient@@QEAA@PEAUHWND__@@PEAVGradientRamp@@@Z@4HA
	DD	0ffffffffH
	DD	imagerel ?dtor$0@?0???0IGradient@@QEAA@PEAUHWND__@@PEAVGradientRamp@@@Z@4HA
xdata	ENDS
;	COMDAT CONST
CONST	SEGMENT
$cppxdata$??0IGradient@@QEAA@PEAUHWND__@@PEAVGradientRamp@@@Z DD 019930522H
	DD	02H
	DD	imagerel $stateUnwindMap$??0IGradient@@QEAA@PEAUHWND__@@PEAVGradientRamp@@@Z
	DD	00H
	DD	00H
	DD	04H
	DD	imagerel $ip2state$??0IGradient@@QEAA@PEAUHWND__@@PEAVGradientRamp@@@Z
	DD	020H
	DD	00H
	DD	00H
CONST	ENDS
;	COMDAT xdata
xdata	SEGMENT
$unwind$??0IGradient@@QEAA@PEAUHWND__@@PEAVGradientRamp@@@Z DD 021311H
	DD	03006520aH
	DD	imagerel __CxxFrameHandler3
	DD	imagerel $cppxdata$??0IGradient@@QEAA@PEAUHWND__@@PEAVGradientRamp@@@Z
xdata	ENDS
;	COMDAT xdata
xdata	SEGMENT
$unwind$??_GGradientRamp@@QEAAPEAXI@Z DD 040a01H
	DD	06340aH
	DD	07006320aH
xdata	ENDS
;	COMDAT xdata
xdata	SEGMENT
$unwind$??1GradientRamp@@QEAA@XZ DD 020601H
	DD	030023206H
xdata	ENDS
;	COMDAT xdata
xdata	SEGMENT
$unwind$??0GradientRamp@@QEAA@PEAVGradientMap@@@Z DD 020601H
	DD	030023206H
xdata	ENDS
;	COMDAT xdata
xdata	SEGMENT
$unwind$??0BerconXYZ@@QEAA@XZ DD 060f01H
	DD	07640fH
	DD	06340fH
	DD	0700b320fH
xdata	ENDS
;	COMDAT xdata
xdata	SEGMENT
$ip2state$??_GBerconXYZDlgProc@@UEAAPEAXI@Z DD imagerel ??_GBerconXYZDlgProc@@UEAAPEAXI@Z
	DD	0ffffffffH
xdata	ENDS
;	COMDAT xdata
xdata	SEGMENT
$stateUnwindMap$??_GBerconXYZDlgProc@@UEAAPEAXI@Z DD 0ffffffffH
	DD	imagerel ?dtor$0@?0???_GBerconXYZDlgProc@@UEAAPEAXI@Z@4HA
xdata	ENDS
;	COMDAT CONST
CONST	SEGMENT
$cppxdata$??_GBerconXYZDlgProc@@UEAAPEAXI@Z DD 019930522H
	DD	01H
	DD	imagerel $stateUnwindMap$??_GBerconXYZDlgProc@@UEAAPEAXI@Z
	DD	00H
	DD	00H
	DD	01H
	DD	imagerel $ip2state$??_GBerconXYZDlgProc@@UEAAPEAXI@Z
	DD	020H
	DD	00H
	DD	04H
CONST	ENDS
;	COMDAT xdata
xdata	SEGMENT
$unwind$??_GBerconXYZDlgProc@@UEAAPEAXI@Z DD 021311H
	DD	03006520aH
	DD	imagerel __CxxFrameHandler3
	DD	imagerel $cppxdata$??_GBerconXYZDlgProc@@UEAAPEAXI@Z
xdata	ENDS
;	COMDAT xdata
xdata	SEGMENT
$ip2state$??1BerconXYZDlgProc@@UEAA@XZ DD imagerel ??1BerconXYZDlgProc@@UEAA@XZ
	DD	0ffffffffH
xdata	ENDS
;	COMDAT xdata
xdata	SEGMENT
$stateUnwindMap$??1BerconXYZDlgProc@@UEAA@XZ DD 0ffffffffH
	DD	imagerel ?dtor$0@?0???1BerconXYZDlgProc@@UEAA@XZ@4HA
xdata	ENDS
;	COMDAT CONST
CONST	SEGMENT
$cppxdata$??1BerconXYZDlgProc@@UEAA@XZ DD 019930522H
	DD	01H
	DD	imagerel $stateUnwindMap$??1BerconXYZDlgProc@@UEAA@XZ
	DD	00H
	DD	00H
	DD	01H
	DD	imagerel $ip2state$??1BerconXYZDlgProc@@UEAA@XZ
	DD	00H
	DD	00H
	DD	04H
CONST	ENDS
;	COMDAT xdata
xdata	SEGMENT
$unwind$??1BerconXYZDlgProc@@UEAA@XZ DD 011111H
	DD	02209H
	DD	imagerel __CxxFrameHandler3
	DD	imagerel $cppxdata$??1BerconXYZDlgProc@@UEAA@XZ
xdata	ENDS
;	COMDAT xdata
xdata	SEGMENT
$chain$1$?DlgProc@BerconXYZDlgProc@@UEAA_JHPEAVIParamMap2@@PEAUHWND__@@I_K_J@Z DD 040a21H
	DD	0df40aH
	DD	0c7405H
	DD	imagerel $LN9
	DD	imagerel $LN9+787
	DD	imagerel $unwind$?DlgProc@BerconXYZDlgProc@@UEAA_JHPEAVIParamMap2@@PEAUHWND__@@I_K_J@Z
xdata	ENDS
;	COMDAT xdata
xdata	SEGMENT
$unwind$?DlgProc@BerconXYZDlgProc@@UEAA_JHPEAVIParamMap2@@PEAUHWND__@@I_K_J@Z DD 060d01H
	DD	0e340dH
	DD	0e009720dH
	DD	050066007H
xdata	ENDS
;	COMDAT xdata
xdata	SEGMENT
$ip2state$??0BerconXYZDlgProc@@QEAA@PEAVReferenceTarget@@@Z DD imagerel ??0BerconXYZDlgProc@@QEAA@PEAVReferenceTarget@@@Z
	DD	0ffffffffH
	DD	imagerel ??0BerconXYZDlgProc@@QEAA@PEAVReferenceTarget@@@Z+27
	DD	00H
	DD	imagerel ??0BerconXYZDlgProc@@QEAA@PEAVReferenceTarget@@@Z+41
	DD	0ffffffffH
xdata	ENDS
;	COMDAT xdata
xdata	SEGMENT
$stateUnwindMap$??0BerconXYZDlgProc@@QEAA@PEAVReferenceTarget@@@Z DD 0ffffffffH
	DD	imagerel ?dtor$0@?0???0BerconXYZDlgProc@@QEAA@PEAVReferenceTarget@@@Z@4HA
xdata	ENDS
;	COMDAT CONST
CONST	SEGMENT
$cppxdata$??0BerconXYZDlgProc@@QEAA@PEAVReferenceTarget@@@Z DD 019930522H
	DD	01H
	DD	imagerel $stateUnwindMap$??0BerconXYZDlgProc@@QEAA@PEAVReferenceTarget@@@Z
	DD	00H
	DD	00H
	DD	03H
	DD	imagerel $ip2state$??0BerconXYZDlgProc@@QEAA@PEAVReferenceTarget@@@Z
	DD	00H
	DD	00H
	DD	00H
CONST	ENDS
;	COMDAT xdata
xdata	SEGMENT
$unwind$??0BerconXYZDlgProc@@QEAA@PEAVReferenceTarget@@@Z DD 011111H
	DD	02209H
	DD	imagerel __CxxFrameHandler3
	DD	imagerel $cppxdata$??0BerconXYZDlgProc@@QEAA@PEAVReferenceTarget@@@Z
xdata	ENDS
;	COMDAT xdata
xdata	SEGMENT
$ip2state$??_GXYZ_Desc@@UEAAPEAXI@Z DD imagerel ??_GXYZ_Desc@@UEAAPEAXI@Z
	DD	0ffffffffH
xdata	ENDS
;	COMDAT xdata
xdata	SEGMENT
$stateUnwindMap$??_GXYZ_Desc@@UEAAPEAXI@Z DD 0ffffffffH
	DD	imagerel ?dtor$0@?0???_GXYZ_Desc@@UEAAPEAXI@Z@4HA
xdata	ENDS
;	COMDAT CONST
CONST	SEGMENT
$cppxdata$??_GXYZ_Desc@@UEAAPEAXI@Z DD 019930522H
	DD	01H
	DD	imagerel $stateUnwindMap$??_GXYZ_Desc@@UEAAPEAXI@Z
	DD	00H
	DD	00H
	DD	01H
	DD	imagerel $ip2state$??_GXYZ_Desc@@UEAAPEAXI@Z
	DD	020H
	DD	00H
	DD	04H
CONST	ENDS
;	COMDAT xdata
xdata	SEGMENT
$unwind$??_GXYZ_Desc@@UEAAPEAXI@Z DD 041811H
	DD	093418H
	DD	07006520aH
	DD	imagerel __CxxFrameHandler3
	DD	imagerel $cppxdata$??_GXYZ_Desc@@UEAAPEAXI@Z
xdata	ENDS
;	COMDAT xdata
xdata	SEGMENT
$ip2state$??1XYZ_Desc@@UEAA@XZ DD imagerel ??1XYZ_Desc@@UEAA@XZ
	DD	0ffffffffH
xdata	ENDS
;	COMDAT xdata
xdata	SEGMENT
$stateUnwindMap$??1XYZ_Desc@@UEAA@XZ DD 0ffffffffH
	DD	imagerel ?dtor$0@?0???1XYZ_Desc@@UEAA@XZ@4HA
xdata	ENDS
;	COMDAT CONST
CONST	SEGMENT
$cppxdata$??1XYZ_Desc@@UEAA@XZ DD 019930522H
	DD	01H
	DD	imagerel $stateUnwindMap$??1XYZ_Desc@@UEAA@XZ
	DD	00H
	DD	00H
	DD	01H
	DD	imagerel $ip2state$??1XYZ_Desc@@UEAA@XZ
	DD	020H
	DD	00H
	DD	04H
CONST	ENDS
;	COMDAT xdata
xdata	SEGMENT
$unwind$??1XYZ_Desc@@UEAA@XZ DD 011211H
	DD	06209H
	DD	imagerel __CxxFrameHandler3
	DD	imagerel $cppxdata$??1XYZ_Desc@@UEAA@XZ
xdata	ENDS
;	COMDAT xdata
xdata	SEGMENT
$ip2state$??0XYZ_Desc@@QEAA@PEAVClassDesc2@@HHHHHHH@Z DD imagerel ??0XYZ_Desc@@QEAA@PEAVClassDesc2@@HHHHHHH@Z
	DD	0ffffffffH
	DD	imagerel ??0XYZ_Desc@@QEAA@PEAVClassDesc2@@HHHHHHH@Z+4794
	DD	00H
	DD	imagerel ??0XYZ_Desc@@QEAA@PEAVClassDesc2@@HHHHHHH@Z+4804
	DD	0ffffffffH
xdata	ENDS
;	COMDAT xdata
xdata	SEGMENT
$stateUnwindMap$??0XYZ_Desc@@QEAA@PEAVClassDesc2@@HHHHHHH@Z DD 0ffffffffH
	DD	imagerel ?dtor$0@?0???0XYZ_Desc@@QEAA@PEAVClassDesc2@@HHHHHHH@Z@4HA
xdata	ENDS
;	COMDAT CONST
CONST	SEGMENT
$cppxdata$??0XYZ_Desc@@QEAA@PEAVClassDesc2@@HHHHHHH@Z DD 019930522H
	DD	01H
	DD	imagerel $stateUnwindMap$??0XYZ_Desc@@QEAA@PEAVClassDesc2@@HHHHHHH@Z
	DD	00H
	DD	00H
	DD	03H
	DD	imagerel $ip2state$??0XYZ_Desc@@QEAA@PEAVClassDesc2@@HHHHHHH@Z
	DD	0e70H
	DD	00H
	DD	00H
CONST	ENDS
;	COMDAT xdata
xdata	SEGMENT
$unwind$??0XYZ_Desc@@QEAA@PEAVClassDesc2@@HHHHHHH@Z DD 031711H
	DD	01d0010fH
	DD	03008H
	DD	imagerel __CxxFrameHandler3
	DD	imagerel $cppxdata$??0XYZ_Desc@@QEAA@PEAVClassDesc2@@HHHHHHH@Z
xdata	ENDS
;	COMDAT xdata
xdata	SEGMENT
$unwind$??_GParamMap2UserDlgProc@@UEAAPEAXI@Z DD 020601H
	DD	030023206H
xdata	ENDS
;	COMDAT xdata
xdata	SEGMENT
$ip2state$??0VertexNormalsControl@@QEAA@XZ DD imagerel ??0VertexNormalsControl@@QEAA@XZ
	DD	0ffffffffH
xdata	ENDS
;	COMDAT xdata
xdata	SEGMENT
$stateUnwindMap$??0VertexNormalsControl@@QEAA@XZ DD 0ffffffffH
	DD	imagerel ?dtor$0@?0???0VertexNormalsControl@@QEAA@XZ@4HA
xdata	ENDS
;	COMDAT CONST
CONST	SEGMENT
$cppxdata$??0VertexNormalsControl@@QEAA@XZ DD 019930522H
	DD	01H
	DD	imagerel $stateUnwindMap$??0VertexNormalsControl@@QEAA@XZ
	DD	00H
	DD	00H
	DD	01H
	DD	imagerel $ip2state$??0VertexNormalsControl@@QEAA@XZ
	DD	00H
	DD	00H
	DD	00H
CONST	ENDS
;	COMDAT xdata
xdata	SEGMENT
$unwind$??0VertexNormalsControl@@QEAA@XZ DD 011111H
	DD	02209H
	DD	imagerel __CxxFrameHandler3
	DD	imagerel $cppxdata$??0VertexNormalsControl@@QEAA@XZ
xdata	ENDS
;	COMDAT xdata
xdata	SEGMENT
$ip2state$??_G?$Tab@PEAVVertexNormalsCallback@@@@UEAAPEAXI@Z DD imagerel ??_G?$Tab@PEAVVertexNormalsCallback@@@@UEAAPEAXI@Z
	DD	0ffffffffH
xdata	ENDS
;	COMDAT CONST
CONST	SEGMENT
$cppxdata$??_G?$Tab@PEAVVertexNormalsCallback@@@@UEAAPEAXI@Z DD 019930522H
	DD	00H
	DD	00H
	DD	00H
	DD	00H
	DD	01H
	DD	imagerel $ip2state$??_G?$Tab@PEAVVertexNormalsCallback@@@@UEAAPEAXI@Z
	DD	020H
	DD	00H
	DD	04H
CONST	ENDS
;	COMDAT xdata
xdata	SEGMENT
$unwind$??_G?$Tab@PEAVVertexNormalsCallback@@@@UEAAPEAXI@Z DD 041419H
	DD	083414H
	DD	070025206H
	DD	imagerel __CxxFrameHandler3
	DD	imagerel $cppxdata$??_G?$Tab@PEAVVertexNormalsCallback@@@@UEAAPEAXI@Z
xdata	ENDS
;	COMDAT xdata
xdata	SEGMENT
$ip2state$??1?$Tab@PEAVVertexNormalsCallback@@@@UEAA@XZ DD imagerel ??1?$Tab@PEAVVertexNormalsCallback@@@@UEAA@XZ
	DD	0ffffffffH
xdata	ENDS
;	COMDAT CONST
CONST	SEGMENT
$cppxdata$??1?$Tab@PEAVVertexNormalsCallback@@@@UEAA@XZ DD 019930522H
	DD	00H
	DD	00H
	DD	00H
	DD	00H
	DD	01H
	DD	imagerel $ip2state$??1?$Tab@PEAVVertexNormalsCallback@@@@UEAA@XZ
	DD	020H
	DD	00H
	DD	04H
CONST	ENDS
;	COMDAT xdata
xdata	SEGMENT
$unwind$??1?$Tab@PEAVVertexNormalsCallback@@@@UEAA@XZ DD 010d19H
	DD	06204H
	DD	imagerel __CxxFrameHandler3
	DD	imagerel $cppxdata$??1?$Tab@PEAVVertexNormalsCallback@@@@UEAA@XZ
xdata	ENDS
;	COMDAT xdata
xdata	SEGMENT
$ip2state$??1Texmap@@UEAA@XZ DD imagerel ??1Texmap@@UEAA@XZ
	DD	0ffffffffH
xdata	ENDS
;	COMDAT xdata
xdata	SEGMENT
$stateUnwindMap$??1Texmap@@UEAA@XZ DD 0ffffffffH
	DD	imagerel ?dtor$0@?0???1Texmap@@UEAA@XZ@4HA
xdata	ENDS
;	COMDAT CONST
CONST	SEGMENT
$cppxdata$??1Texmap@@UEAA@XZ DD 019930522H
	DD	01H
	DD	imagerel $stateUnwindMap$??1Texmap@@UEAA@XZ
	DD	00H
	DD	00H
	DD	01H
	DD	imagerel $ip2state$??1Texmap@@UEAA@XZ
	DD	020H
	DD	00H
	DD	04H
CONST	ENDS
;	COMDAT xdata
xdata	SEGMENT
$unwind$??1Texmap@@UEAA@XZ DD 011211H
	DD	06209H
	DD	imagerel __CxxFrameHandler3
	DD	imagerel $cppxdata$??1Texmap@@UEAA@XZ
xdata	ENDS
;	COMDAT xdata
xdata	SEGMENT
$ip2state$??_GICustomControl@@UEAAPEAXI@Z DD imagerel ??_GICustomControl@@UEAAPEAXI@Z
	DD	0ffffffffH
xdata	ENDS
;	COMDAT xdata
xdata	SEGMENT
$stateUnwindMap$??_GICustomControl@@UEAAPEAXI@Z DD 0ffffffffH
	DD	imagerel ?dtor$0@?0???_GICustomControl@@UEAAPEAXI@Z@4HA
xdata	ENDS
;	COMDAT CONST
CONST	SEGMENT
$cppxdata$??_GICustomControl@@UEAAPEAXI@Z DD 019930522H
	DD	01H
	DD	imagerel $stateUnwindMap$??_GICustomControl@@UEAAPEAXI@Z
	DD	00H
	DD	00H
	DD	01H
	DD	imagerel $ip2state$??_GICustomControl@@UEAAPEAXI@Z
	DD	020H
	DD	00H
	DD	04H
CONST	ENDS
;	COMDAT xdata
xdata	SEGMENT
$unwind$??_GICustomControl@@UEAAPEAXI@Z DD 041811H
	DD	093418H
	DD	07006520aH
	DD	imagerel __CxxFrameHandler3
	DD	imagerel $cppxdata$??_GICustomControl@@UEAAPEAXI@Z
xdata	ENDS
;	COMDAT xdata
xdata	SEGMENT
$ip2state$??1ICustomControl@@UEAA@XZ DD imagerel ??1ICustomControl@@UEAA@XZ
	DD	0ffffffffH
xdata	ENDS
;	COMDAT xdata
xdata	SEGMENT
$stateUnwindMap$??1ICustomControl@@UEAA@XZ DD 0ffffffffH
	DD	imagerel ?dtor$0@?0???1ICustomControl@@UEAA@XZ@4HA
xdata	ENDS
;	COMDAT CONST
CONST	SEGMENT
$cppxdata$??1ICustomControl@@UEAA@XZ DD 019930522H
	DD	01H
	DD	imagerel $stateUnwindMap$??1ICustomControl@@UEAA@XZ
	DD	00H
	DD	00H
	DD	01H
	DD	imagerel $ip2state$??1ICustomControl@@UEAA@XZ
	DD	020H
	DD	00H
	DD	04H
CONST	ENDS
;	COMDAT xdata
xdata	SEGMENT
$unwind$??1ICustomControl@@UEAA@XZ DD 011211H
	DD	06209H
	DD	imagerel __CxxFrameHandler3
	DD	imagerel $cppxdata$??1ICustomControl@@UEAA@XZ
xdata	ENDS
;	COMDAT xdata
xdata	SEGMENT
$ip2state$??0ICustomControl@@QEAA@XZ DD imagerel ??0ICustomControl@@QEAA@XZ
	DD	0ffffffffH
	DD	imagerel ??0ICustomControl@@QEAA@XZ+27
	DD	00H
	DD	imagerel ??0ICustomControl@@QEAA@XZ+37
	DD	0ffffffffH
xdata	ENDS
;	COMDAT xdata
xdata	SEGMENT
$stateUnwindMap$??0ICustomControl@@QEAA@XZ DD 0ffffffffH
	DD	imagerel ?dtor$0@?0???0ICustomControl@@QEAA@XZ@4HA
xdata	ENDS
;	COMDAT CONST
CONST	SEGMENT
$cppxdata$??0ICustomControl@@QEAA@XZ DD 019930522H
	DD	01H
	DD	imagerel $stateUnwindMap$??0ICustomControl@@QEAA@XZ
	DD	00H
	DD	00H
	DD	03H
	DD	imagerel $ip2state$??0ICustomControl@@QEAA@XZ
	DD	00H
	DD	00H
	DD	04H
CONST	ENDS
;	COMDAT xdata
xdata	SEGMENT
$unwind$??0ICustomControl@@QEAA@XZ DD 011111H
	DD	02209H
	DD	imagerel __CxxFrameHandler3
	DD	imagerel $cppxdata$??0ICustomControl@@QEAA@XZ
xdata	ENDS
;	COMDAT xdata
xdata	SEGMENT
$unwind$?GetInterface@MtlBase@@UEAAPEAVBaseInterface@@VInterface_ID@@@Z DD 010401H
	DD	06204H
xdata	ENDS
;	COMDAT xdata
xdata	SEGMENT
$unwind$?Set@BitArray@@QEAAXH@Z DD 040a01H
	DD	06340aH
	DD	07006320aH
xdata	ENDS
;	COMDAT xdata
xdata	SEGMENT
$unwind$?GetInterfaceAt@ClassDesc@@UEAAPEAVFPInterface@@H@Z DD 010401H
	DD	04204H
xdata	ENDS
;	COMDAT xdata
xdata	SEGMENT
$ip2state$??A?$Tab@PEAVFPInterface@@@@QEBAAEAPEAVFPInterface@@_J@Z DD imagerel ??A?$Tab@PEAVFPInterface@@@@QEBAAEAPEAVFPInterface@@_J@Z
	DD	0ffffffffH
	DD	imagerel ??A?$Tab@PEAVFPInterface@@@@QEBAAEAPEAVFPInterface@@_J@Z+202
	DD	00H
	DD	imagerel ??A?$Tab@PEAVFPInterface@@@@QEBAAEAPEAVFPInterface@@_J@Z+214
	DD	0ffffffffH
xdata	ENDS
;	COMDAT xdata
xdata	SEGMENT
$stateUnwindMap$??A?$Tab@PEAVFPInterface@@@@QEBAAEAPEAVFPInterface@@_J@Z DD 0ffffffffH
	DD	imagerel ?dtor$0@?0???A?$Tab@PEAVFPInterface@@@@QEBAAEAPEAVFPInterface@@_J@Z@4HA
xdata	ENDS
;	COMDAT CONST
CONST	SEGMENT
$cppxdata$??A?$Tab@PEAVFPInterface@@@@QEBAAEAPEAVFPInterface@@_J@Z DD 019930522H
	DD	01H
	DD	imagerel $stateUnwindMap$??A?$Tab@PEAVFPInterface@@@@QEBAAEAPEAVFPInterface@@_J@Z
	DD	00H
	DD	00H
	DD	03H
	DD	imagerel $ip2state$??A?$Tab@PEAVFPInterface@@@@QEBAAEAPEAVFPInterface@@_J@Z
	DD	020H
	DD	00H
	DD	00H
CONST	ENDS
;	COMDAT xdata
xdata	SEGMENT
$unwind$??A?$Tab@PEAVFPInterface@@@@QEBAAEAPEAVFPInterface@@_J@Z DD 041411H
	DD	0a3414H
	DD	070027206H
	DD	imagerel __CxxFrameHandler3
	DD	imagerel $cppxdata$??A?$Tab@PEAVFPInterface@@@@QEBAAEAPEAVFPInterface@@_J@Z
xdata	ENDS
;	COMDAT xdata
xdata	SEGMENT
$unwind$?NotifyForeground@ReferenceTarget@@UEAAXH@Z DD 040a01H
	DD	0b340aH
	DD	07006720aH
xdata	ENDS
;	COMDAT xdata
xdata	SEGMENT
$unwind$?NotifyDependents@ReferenceMaker@@EEAA?AW4RefResult@@AEBVInterval@@_KIKHPEAVReferenceTarget@@@Z DD 010401H
	DD	04204H
xdata	ENDS
;	COMDAT xdata
xdata	SEGMENT
$unwind$?IsSubClassOf@Animatable@@UEAAHVClass_ID@@@Z DD 020601H
	DD	030023206H
xdata	ENDS
;	COMDAT xdata
xdata	SEGMENT
$unwind$??_4Interval@@QEAAAEAV0@V0@@Z DD 020601H
	DD	030023206H
xdata	ENDS
;	COMDAT xdata
xdata	SEGMENT
$unwind$??_GInterfaceServer@@UEAAPEAXI@Z DD 040a01H
	DD	06340aH
	DD	07006320aH
xdata	ENDS
;	COMDAT xdata
xdata	SEGMENT
$ip2state$??_GTabOutOfRangeException@Util@MaxSDK@@UEAAPEAXI@Z DD imagerel ??_GTabOutOfRangeException@Util@MaxSDK@@UEAAPEAXI@Z
	DD	0ffffffffH
xdata	ENDS
;	COMDAT xdata
xdata	SEGMENT
$stateUnwindMap$??_GTabOutOfRangeException@Util@MaxSDK@@UEAAPEAXI@Z DD 0ffffffffH
	DD	imagerel ?dtor$0@?0???_GTabOutOfRangeException@Util@MaxSDK@@UEAAPEAXI@Z@4HA
	DD	0ffffffffH
	DD	imagerel ?dtor$1@?0???_GTabOutOfRangeException@Util@MaxSDK@@UEAAPEAXI@Z@4HA
xdata	ENDS
;	COMDAT CONST
CONST	SEGMENT
$cppxdata$??_GTabOutOfRangeException@Util@MaxSDK@@UEAAPEAXI@Z DD 019930522H
	DD	02H
	DD	imagerel $stateUnwindMap$??_GTabOutOfRangeException@Util@MaxSDK@@UEAAPEAXI@Z
	DD	00H
	DD	00H
	DD	01H
	DD	imagerel $ip2state$??_GTabOutOfRangeException@Util@MaxSDK@@UEAAPEAXI@Z
	DD	020H
	DD	00H
	DD	04H
CONST	ENDS
;	COMDAT xdata
xdata	SEGMENT
$unwind$??_GTabOutOfRangeException@Util@MaxSDK@@UEAAPEAXI@Z DD 041811H
	DD	093418H
	DD	07006520aH
	DD	imagerel __CxxFrameHandler3
	DD	imagerel $cppxdata$??_GTabOutOfRangeException@Util@MaxSDK@@UEAAPEAXI@Z
xdata	ENDS
;	COMDAT xdata
xdata	SEGMENT
$ip2state$??0TabOutOfRangeException@Util@MaxSDK@@QEAA@AEBV012@@Z DD imagerel ??0TabOutOfRangeException@Util@MaxSDK@@QEAA@AEBV012@@Z
	DD	0ffffffffH
	DD	imagerel ??0TabOutOfRangeException@Util@MaxSDK@@QEAA@AEBV012@@Z+29
	DD	00H
	DD	imagerel ??0TabOutOfRangeException@Util@MaxSDK@@QEAA@AEBV012@@Z+39
	DD	01H
	DD	imagerel ??0TabOutOfRangeException@Util@MaxSDK@@QEAA@AEBV012@@Z+49
	DD	0ffffffffH
xdata	ENDS
;	COMDAT xdata
xdata	SEGMENT
$stateUnwindMap$??0TabOutOfRangeException@Util@MaxSDK@@QEAA@AEBV012@@Z DD 0ffffffffH
	DD	imagerel ?dtor$1@?0???0TabOutOfRangeException@Util@MaxSDK@@QEAA@AEBV012@@Z@4HA
	DD	0ffffffffH
	DD	imagerel ?dtor$0@?0???0TabOutOfRangeException@Util@MaxSDK@@QEAA@AEBV012@@Z@4HA
xdata	ENDS
;	COMDAT CONST
CONST	SEGMENT
$cppxdata$??0TabOutOfRangeException@Util@MaxSDK@@QEAA@AEBV012@@Z DD 019930522H
	DD	02H
	DD	imagerel $stateUnwindMap$??0TabOutOfRangeException@Util@MaxSDK@@QEAA@AEBV012@@Z
	DD	00H
	DD	00H
	DD	04H
	DD	imagerel $ip2state$??0TabOutOfRangeException@Util@MaxSDK@@QEAA@AEBV012@@Z
	DD	020H
	DD	00H
	DD	00H
CONST	ENDS
;	COMDAT xdata
xdata	SEGMENT
$unwind$??0TabOutOfRangeException@Util@MaxSDK@@QEAA@AEBV012@@Z DD 021311H
	DD	03006520aH
	DD	imagerel __CxxFrameHandler3
	DD	imagerel $cppxdata$??0TabOutOfRangeException@Util@MaxSDK@@QEAA@AEBV012@@Z
xdata	ENDS
;	COMDAT xdata
xdata	SEGMENT
$ip2state$??1TabOutOfRangeException@Util@MaxSDK@@UEAA@XZ DD imagerel ??1TabOutOfRangeException@Util@MaxSDK@@UEAA@XZ
	DD	0ffffffffH
xdata	ENDS
;	COMDAT xdata
xdata	SEGMENT
$stateUnwindMap$??1TabOutOfRangeException@Util@MaxSDK@@UEAA@XZ DD 0ffffffffH
	DD	imagerel ?dtor$0@?0???1TabOutOfRangeException@Util@MaxSDK@@UEAA@XZ@4HA
	DD	0ffffffffH
	DD	imagerel ?dtor$1@?0???1TabOutOfRangeException@Util@MaxSDK@@UEAA@XZ@4HA
xdata	ENDS
;	COMDAT CONST
CONST	SEGMENT
$cppxdata$??1TabOutOfRangeException@Util@MaxSDK@@UEAA@XZ DD 019930522H
	DD	02H
	DD	imagerel $stateUnwindMap$??1TabOutOfRangeException@Util@MaxSDK@@UEAA@XZ
	DD	00H
	DD	00H
	DD	01H
	DD	imagerel $ip2state$??1TabOutOfRangeException@Util@MaxSDK@@UEAA@XZ
	DD	020H
	DD	00H
	DD	04H
CONST	ENDS
;	COMDAT xdata
xdata	SEGMENT
$unwind$??1TabOutOfRangeException@Util@MaxSDK@@UEAA@XZ DD 011211H
	DD	06209H
	DD	imagerel __CxxFrameHandler3
	DD	imagerel $cppxdata$??1TabOutOfRangeException@Util@MaxSDK@@UEAA@XZ
xdata	ENDS
;	COMDAT xdata
xdata	SEGMENT
$ip2state$??0TabOutOfRangeException@Util@MaxSDK@@QEAA@PEB_W@Z DD imagerel ??0TabOutOfRangeException@Util@MaxSDK@@QEAA@PEB_W@Z
	DD	0ffffffffH
	DD	imagerel ??0TabOutOfRangeException@Util@MaxSDK@@QEAA@PEB_W@Z+29
	DD	00H
	DD	imagerel ??0TabOutOfRangeException@Util@MaxSDK@@QEAA@PEB_W@Z+39
	DD	0ffffffffH
xdata	ENDS
;	COMDAT xdata
xdata	SEGMENT
$stateUnwindMap$??0TabOutOfRangeException@Util@MaxSDK@@QEAA@PEB_W@Z DD 0ffffffffH
	DD	imagerel ?dtor$0@?0???0TabOutOfRangeException@Util@MaxSDK@@QEAA@PEB_W@Z@4HA
xdata	ENDS
;	COMDAT CONST
CONST	SEGMENT
$cppxdata$??0TabOutOfRangeException@Util@MaxSDK@@QEAA@PEB_W@Z DD 019930522H
	DD	01H
	DD	imagerel $stateUnwindMap$??0TabOutOfRangeException@Util@MaxSDK@@QEAA@PEB_W@Z
	DD	00H
	DD	00H
	DD	03H
	DD	imagerel $ip2state$??0TabOutOfRangeException@Util@MaxSDK@@QEAA@PEB_W@Z
	DD	020H
	DD	00H
	DD	00H
CONST	ENDS
;	COMDAT xdata
xdata	SEGMENT
$unwind$??0TabOutOfRangeException@Util@MaxSDK@@QEAA@PEB_W@Z DD 021311H
	DD	03006520aH
	DD	imagerel __CxxFrameHandler3
	DD	imagerel $cppxdata$??0TabOutOfRangeException@Util@MaxSDK@@QEAA@PEB_W@Z
xdata	ENDS
;	COMDAT xdata
xdata	SEGMENT
$unwind$?sqrt@@YAMM@Z DD 010401H
	DD	04204H
xdata	ENDS
;	COMDAT xdata
xdata	SEGMENT
$unwind$?acos@@YAMM@Z DD 010401H
	DD	04204H
xdata	ENDS
;	COMDAT xdata
xdata	SEGMENT
$unwind$??_H@YAXPEAX_K1P6APEAX0@Z@Z DD 081901H
	DD	086419H
	DD	075419H
	DD	063419H
	DD	070153219H
xdata	ENDS
CRT$XCU	SEGMENT
?BerconGradientDesc$initializer$@@3P6AXXZEA DQ FLAT:??__EBerconGradientDesc@@YAXXZ ; BerconGradientDesc$initializer$
CRT$XCU	ENDS
CRT$XCU	SEGMENT
?xyz_blk$initializer$@@3P6AXXZEA DQ FLAT:??__Exyz_blk@@YAXXZ ; xyz_blk$initializer$
CRT$XCU	ENDS
CRT$XCU	SEGMENT
?gradientmap_param_blk$initializer$@@3P6AXXZEA DQ FLAT:??__Egradientmap_param_blk@@YAXXZ ; gradientmap_param_blk$initializer$
CRT$XCU	ENDS
; Function compile flags: /Odsp
;	COMDAT ?GetInterface@BerconGradient@@WJI@EAAPEAXK@Z
_TEXT	SEGMENT
?GetInterface@BerconGradient@@WJI@EAAPEAXK@Z PROC	; [thunk]:BerconGradient::GetInterface`adjustor{152}', COMDAT
	sub	rcx, 152				; 00000098H
	jmp	?GetInterface@BerconGradient@@UEAAPEAXK@Z ; BerconGradient::GetInterface
?GetInterface@BerconGradient@@WJI@EAAPEAXK@Z ENDP	; [thunk]:BerconGradient::GetInterface`adjustor{152}'
_TEXT	ENDS
; Function compile flags: /Odsp
;	COMDAT ??_EBerconGradient@@WEI@EAAPEAXI@Z
_TEXT	SEGMENT
??_EBerconGradient@@WEI@EAAPEAXI@Z PROC			; [thunk]:BerconGradient::`vector deleting destructor', COMDAT
	sub	rcx, 72					; 00000048H
	jmp	??_EBerconGradient@@UEAAPEAXI@Z
??_EBerconGradient@@WEI@EAAPEAXI@Z ENDP			; [thunk]:BerconGradient::`vector deleting destructor'
_TEXT	ENDS
; Function compile flags: /Ogtp
; File c:\program files\autodesk\3ds max 2020 sdk\maxsdk\include\iparamm2.h
;	COMDAT ??_GBerconGradientDlgProc@@UEAAPEAXI@Z
_TEXT	SEGMENT
$T1 = 32
this$ = 64
__flags$ = 72
??_GBerconGradientDlgProc@@UEAAPEAXI@Z PROC		; BerconGradientDlgProc::`scalar deleting destructor', COMDAT
$LN13:
	mov	QWORD PTR [rsp+8], rcx
	push	rbx
	sub	rsp, 48					; 00000030H
	mov	QWORD PTR $T1[rsp], -2
	mov	rbx, rcx

; 59   : 		virtual ~ParamMap2UserDlgProc() { }

	lea	rax, OFFSET FLAT:??_7ParamMap2UserDlgProc@@6B@
	mov	QWORD PTR [rcx], rax
	test	dl, 1
	je	SHORT $LN12@scalar
	test	dl, 4
	jne	SHORT $LN3@scalar
	call	QWORD PTR __imp_??3MaxHeapOperators@@SAXPEAX@Z
	npad	1
	jmp	SHORT $LN12@scalar
$LN3@scalar:
	mov	edx, 24
	call	?__global_delete@@YAXPEAX_K@Z		; __global_delete
	npad	1
$LN12@scalar:
	mov	rax, rbx
	add	rsp, 48					; 00000030H
	pop	rbx
	ret	0
??_GBerconGradientDlgProc@@UEAAPEAXI@Z ENDP		; BerconGradientDlgProc::`scalar deleting destructor'
_TEXT	ENDS
;	COMDAT text$x
text$x	SEGMENT
$T1 = 32
this$ = 64
__flags$ = 72
?dtor$0@?0???_GBerconGradientDlgProc@@UEAAPEAXI@Z@4HA PROC ; `BerconGradientDlgProc::`scalar deleting destructor''::`1'::dtor$0
	mov	rcx, QWORD PTR this$[rdx]
	jmp	??1ParamMap2UserDlgProc@@UEAA@XZ	; ParamMap2UserDlgProc::~ParamMap2UserDlgProc
?dtor$0@?0???_GBerconGradientDlgProc@@UEAAPEAXI@Z@4HA ENDP ; `BerconGradientDlgProc::`scalar deleting destructor''::`1'::dtor$0
text$x	ENDS
; Function compile flags: /Ogtp
;	COMDAT text$x
text$x	SEGMENT
$T1 = 32
this$ = 64
__flags$ = 72
?dtor$0@?0???_GBerconGradientDlgProc@@UEAAPEAXI@Z@4HA PROC ; `BerconGradientDlgProc::`scalar deleting destructor''::`1'::dtor$0
	mov	rcx, QWORD PTR this$[rdx]
	jmp	??1ParamMap2UserDlgProc@@UEAA@XZ	; ParamMap2UserDlgProc::~ParamMap2UserDlgProc
?dtor$0@?0???_GBerconGradientDlgProc@@UEAAPEAXI@Z@4HA ENDP ; `BerconGradientDlgProc::`scalar deleting destructor''::`1'::dtor$0
text$x	ENDS
; Function compile flags: /Ogtp
; File c:\program files\autodesk\3ds max 2020 sdk\maxsdk\include\iparamm2.h
;	COMDAT ??1BerconGradientDlgProc@@UEAA@XZ
_TEXT	SEGMENT
$T1 = 0
this$ = 32
??1BerconGradientDlgProc@@UEAA@XZ PROC			; BerconGradientDlgProc::~BerconGradientDlgProc, COMDAT
$LN6:
	mov	QWORD PTR [rsp+8], rcx
	sub	rsp, 24
	mov	QWORD PTR $T1[rsp], -2

; 59   : 		virtual ~ParamMap2UserDlgProc() { }

	lea	rax, OFFSET FLAT:??_7ParamMap2UserDlgProc@@6B@
	mov	QWORD PTR [rcx], rax
	add	rsp, 24
	ret	0
??1BerconGradientDlgProc@@UEAA@XZ ENDP			; BerconGradientDlgProc::~BerconGradientDlgProc
_TEXT	ENDS
;	COMDAT text$x
text$x	SEGMENT
$T1 = 0
this$ = 32
?dtor$0@?0???1BerconGradientDlgProc@@UEAA@XZ@4HA PROC	; `BerconGradientDlgProc::~BerconGradientDlgProc'::`1'::dtor$0
	mov	rcx, QWORD PTR this$[rdx]
	jmp	??1ParamMap2UserDlgProc@@UEAA@XZ	; ParamMap2UserDlgProc::~ParamMap2UserDlgProc
?dtor$0@?0???1BerconGradientDlgProc@@UEAA@XZ@4HA ENDP	; `BerconGradientDlgProc::~BerconGradientDlgProc'::`1'::dtor$0
text$x	ENDS
; Function compile flags: /Ogtp
;	COMDAT text$x
text$x	SEGMENT
$T1 = 0
this$ = 32
?dtor$0@?0???1BerconGradientDlgProc@@UEAA@XZ@4HA PROC	; `BerconGradientDlgProc::~BerconGradientDlgProc'::`1'::dtor$0
	mov	rcx, QWORD PTR this$[rdx]
	jmp	??1ParamMap2UserDlgProc@@UEAA@XZ	; ParamMap2UserDlgProc::~ParamMap2UserDlgProc
?dtor$0@?0???1BerconGradientDlgProc@@UEAA@XZ@4HA ENDP	; `BerconGradientDlgProc::~BerconGradientDlgProc'::`1'::dtor$0
text$x	ENDS
; Function compile flags: /Ogtp
; File g:\dropbox\github\berconmaps\src\bercongradient.cpp
; File g:\dropbox\github\berconmaps\src\igradient.h
; File g:\dropbox\github\berconmaps\src\bercongradient.cpp
;	COMDAT ?SetThing@BerconGradientDlgProc@@UEAAXPEAVReferenceTarget@@@Z
_TEXT	SEGMENT
this$ = 48
m$ = 56
?SetThing@BerconGradientDlgProc@@UEAAXPEAVReferenceTarget@@@Z PROC ; BerconGradientDlgProc::SetThing, COMDAT

; 333  : 		void SetThing(ReferenceTarget *m) {

$LN6:
	mov	QWORD PTR [rsp+8], rbx
	mov	QWORD PTR [rsp+16], rsi
	push	rdi
	sub	rsp, 32					; 00000020H

; 334  : 			IGradient* gradUI = parentMap->gradientUI; // Take old control

	mov	rax, QWORD PTR [rcx+8]
	mov	rsi, rcx
	mov	rdi, rdx

; 335  : 			parentMap->gradientUI = NULL; // Remove control from old map
; 336  : 			parentMap->gradient->setHWND(NULL); // Remove control from old maps gradient

	xor	edx, edx
	mov	rbx, QWORD PTR [rax+464]
	mov	QWORD PTR [rax+464], 0
	mov	rcx, QWORD PTR [rcx+8]
	mov	rcx, QWORD PTR [rcx+456]
	call	?setHWND@GradientRamp@@QEAAXPEAUHWND__@@@Z ; GradientRamp::setHWND

; 337  : 
; 338  : 			parentMap = (BerconGradient*)m; // Switch maps			

	mov	QWORD PTR [rsi+8], rdi

; 339  : 
; 340  : 			parentMap->gradientUI = gradUI; // Replace new maps control

	mov	QWORD PTR [rdi+464], rbx

; 341  : 			parentMap->gradient->setHWND(parentMap->gradientUI->GetHwnd()); // Set new maps gradients HWND

	mov	rax, QWORD PTR [rsi+8]
	mov	rcx, QWORD PTR [rax+464]
	mov	rax, QWORD PTR [rcx]
	call	QWORD PTR [rax+16]
	mov	rcx, QWORD PTR [rsi+8]
	mov	rdx, rax
	mov	rcx, QWORD PTR [rcx+456]
	call	?setHWND@GradientRamp@@QEAAXPEAUHWND__@@@Z ; GradientRamp::setHWND

; 342  : 			parentMap->gradientUI->setGradient(parentMap->gradient); // Set new maps controls gradient

	mov	rax, QWORD PTR [rsi+8]
; File g:\dropbox\github\berconmaps\src\igradient.h

; 47   : 	void setGradient(GradientRamp *r) { gradient = r; } 

	mov	rcx, QWORD PTR [rax+464]
	mov	rax, QWORD PTR [rax+456]
	mov	QWORD PTR [rcx+16], rax
; File g:\dropbox\github\berconmaps\src\bercongradient.cpp

; 343  : 			parentMap->gradient->invalidate(); // Redraw

	mov	rcx, QWORD PTR [rsi+8]
	mov	rcx, QWORD PTR [rcx+456]
	call	?invalidate@GradientRamp@@QEAAXXZ	; GradientRamp::invalidate

; 344  : 
; 345  : 			parentMap->EnableStuff();

	mov	rcx, QWORD PTR [rsi+8]

; 346  : 		}

	mov	rbx, QWORD PTR [rsp+48]
	mov	rsi, QWORD PTR [rsp+56]
	add	rsp, 32					; 00000020H
	pop	rdi

; 344  : 
; 345  : 			parentMap->EnableStuff();

	jmp	?EnableStuff@BerconGradient@@QEAAXXZ	; BerconGradient::EnableStuff
?SetThing@BerconGradientDlgProc@@UEAAXPEAVReferenceTarget@@@Z ENDP ; BerconGradientDlgProc::SetThing
_TEXT	ENDS
; Function compile flags: /Ogtp
; File g:\dropbox\github\berconmaps\src\bercongradient.cpp
;	COMDAT ?DeleteThis@BerconGradientDlgProc@@UEAAXXZ
_TEXT	SEGMENT
this$ = 8
?DeleteThis@BerconGradientDlgProc@@UEAAXXZ PROC		; BerconGradientDlgProc::DeleteThis, COMDAT

; 332  : 		void DeleteThis() {delete this;}

	test	rcx, rcx
	je	SHORT $LN3@DeleteThis
	mov	rax, QWORD PTR [rcx]
	mov	edx, 1
	rex_jmp	QWORD PTR [rax]
$LN3@DeleteThis:
	ret	0
?DeleteThis@BerconGradientDlgProc@@UEAAXXZ ENDP		; BerconGradientDlgProc::DeleteThis
_TEXT	ENDS
; Function compile flags: /Ogtp
; File g:\dropbox\github\berconmaps\src\bercongradient.cpp
; File g:\dropbox\github\berconmaps\src\igradient.h
; File g:\dropbox\github\berconmaps\src\bercongradient.cpp
;	COMDAT ?DlgProc@BerconGradientDlgProc@@UEAA_JHPEAVIParamMap2@@PEAUHWND__@@I_K_J@Z
_TEXT	SEGMENT
$T1 = 48
$T2 = 64
$T3 = 64
$T4 = 64
$T5 = 64
$T6 = 64
$T7 = 64
$T8 = 64
$T9 = 64
$T10 = 64
$T11 = 64
$T12 = 64
$T13 = 64
$T14 = 64
$T15 = 64
$T16 = 80
this$ = 144
t$ = 152
map$ = 160
hWnd$ = 168
curIndex$17 = 176
curIndex$18 = 176
msg$ = 176
wParam$ = 184
lParam$ = 192
?DlgProc@BerconGradientDlgProc@@UEAA_JHPEAVIParamMap2@@PEAUHWND__@@I_K_J@Z PROC ; BerconGradientDlgProc::DlgProc, COMDAT

; 349  : INT_PTR BerconGradientDlgProc::DlgProc(TimeValue t,IParamMap2 *map,HWND hWnd,UINT msg,WPARAM wParam,LPARAM lParam) {	

$LN35:
	mov	rax, rsp
	push	rbp
	push	r12
	push	r13
	push	r14
	push	r15
	mov	rbp, rsp
	sub	rsp, 96					; 00000060H
	mov	QWORD PTR $T1[rbp-96], -2
	mov	QWORD PTR [rax+8], rbx
	mov	QWORD PTR [rax+16], rsi
	mov	QWORD PTR [rax+24], rdi
	mov	r14, r9
	mov	rsi, r8
	mov	r12d, edx
	mov	rdi, rcx

; 350  : 	switch (msg) {	

	mov	eax, DWORD PTR msg$[rbp-96]
	cmp	eax, 1624				; 00000658H
	ja	$LN29@DlgProc
	je	$LN21@DlgProc
	cmp	eax, 2
	je	$LN12@DlgProc
	cmp	eax, 24
	je	$LN11@DlgProc
	cmp	eax, 272				; 00000110H
	jne	$LN25@DlgProc

; 351  : 		case WM_INITDIALOG: {			
; 352  : 			// Initialize gradient			
; 353  : 			parentMap->gradient->setHWND(GetDlgItem(hWnd,IDC_GRADIENT));

	mov	edx, 1040				; 00000410H
	mov	rcx, r9
	call	QWORD PTR __imp_GetDlgItem
	mov	rdx, rax
	mov	rcx, QWORD PTR [rdi+8]
	mov	rcx, QWORD PTR [rcx+456]
	call	?setHWND@GradientRamp@@QEAAXPEAUHWND__@@@Z ; GradientRamp::setHWND

; 354  : 			igrad = new IGradient(GetDlgItem(hWnd,IDC_GRADIENT), parentMap->gradient);

	mov	ecx, 24
	call	QWORD PTR __imp_??2MaxHeapOperators@@SAPEAX_K@Z
	mov	r13, rax
	mov	QWORD PTR $T15[rbp-96], rax
	xor	r15d, r15d
	test	rax, rax
	je	SHORT $LN27@DlgProc
	mov	rbx, QWORD PTR [rdi+8]
	mov	edx, 1040				; 00000410H
	mov	rcx, r14
	call	QWORD PTR __imp_GetDlgItem
	mov	rdx, rax
	mov	r8, QWORD PTR [rbx+456]
	mov	rcx, r13
	call	??0IGradient@@QEAA@PEAUHWND__@@PEAVGradientRamp@@@Z ; IGradient::IGradient
	mov	rcx, rax
	jmp	SHORT $LN28@DlgProc
$LN27@DlgProc:
	mov	rcx, r15
$LN28@DlgProc:
	mov	QWORD PTR [rdi+16], rcx

; 355  : 			parentMap->gradientUI = igrad;

	mov	rax, QWORD PTR [rdi+8]
	mov	QWORD PTR [rax+464], rcx

; 356  : 			
; 357  : 			// Dropdown values
; 358  : 			HWND hwndMap = GetDlgItem(hWnd, IDC_GRADIENT_TYPE);  

	mov	edx, 1050				; 0000041aH
	mov	rcx, r14
	call	QWORD PTR __imp_GetDlgItem
	mov	rbx, rax

; 359  : 			SendMessage(hwndMap, CB_ADDSTRING, 0, (LPARAM)GetString(IDS_GRADTYPE_UVW));

	mov	ecx, 169				; 000000a9H
	call	?GetString@@YAPEA_WH@Z			; GetString
	mov	r9, rax
	xor	r8d, r8d
	mov	edx, 323				; 00000143H
	mov	rcx, rbx
	call	QWORD PTR __imp_SendMessageW

; 360  : 			SendMessage(hwndMap, CB_ADDSTRING, 0, (LPARAM)GetString(IDS_GRADTYPE_NORMAL));

	mov	ecx, 172				; 000000acH
	call	?GetString@@YAPEA_WH@Z			; GetString
	mov	r9, rax
	xor	r8d, r8d
	mov	edx, 323				; 00000143H
	mov	rcx, rbx
	call	QWORD PTR __imp_SendMessageW

; 361  : 			SendMessage(hwndMap, CB_ADDSTRING, 0, (LPARAM)GetString(IDS_GRADTYPE_DISTANCE));

	mov	ecx, 173				; 000000adH
	call	?GetString@@YAPEA_WH@Z			; GetString
	mov	r9, rax
	xor	r8d, r8d
	mov	edx, 323				; 00000143H
	mov	rcx, rbx
	call	QWORD PTR __imp_SendMessageW

; 362  : 			SendMessage(hwndMap, CB_ADDSTRING, 0, (LPARAM)GetString(IDS_GRADTYPE_LIGHT));

	mov	ecx, 170				; 000000aaH
	call	?GetString@@YAPEA_WH@Z			; GetString
	mov	r9, rax
	xor	r8d, r8d
	mov	edx, 323				; 00000143H
	mov	rcx, rbx
	call	QWORD PTR __imp_SendMessageW

; 363  : 			SendMessage(hwndMap, CB_ADDSTRING, 0, (LPARAM)GetString(IDS_GRADTYPE_MAP));

	mov	ecx, 171				; 000000abH
	call	?GetString@@YAPEA_WH@Z			; GetString
	mov	r9, rax
	xor	r8d, r8d
	mov	edx, 323				; 00000143H
	mov	rcx, rbx
	call	QWORD PTR __imp_SendMessageW

; 364  : 			SendMessage(hwndMap, CB_ADDSTRING, 0, (LPARAM)GetString(IDS_GRADTYPE_RANDOM));

	mov	ecx, 147				; 00000093H
	call	?GetString@@YAPEA_WH@Z			; GetString
	mov	r9, rax
	xor	r8d, r8d
	mov	edx, 323				; 00000143H
	mov	rcx, rbx
	call	QWORD PTR __imp_SendMessageW

; 365  : 			SendMessage(hwndMap, CB_ADDSTRING, 0, (LPARAM)GetString(IDS_GRADTYPE_AGE));

	mov	ecx, 148				; 00000094H
	call	?GetString@@YAPEA_WH@Z			; GetString
	mov	r9, rax
	xor	r8d, r8d
	mov	edx, 323				; 00000143H
	mov	rcx, rbx
	call	QWORD PTR __imp_SendMessageW

; 366  : 			SendMessage(hwndMap, CB_ADDSTRING, 0, (LPARAM)GetString(IDS_GRADTYPE_SPEED));

	mov	ecx, 149				; 00000095H
	call	?GetString@@YAPEA_WH@Z			; GetString
	mov	r9, rax
	xor	r8d, r8d
	mov	edx, 323				; 00000143H
	mov	rcx, rbx
	call	QWORD PTR __imp_SendMessageW

; 367  : 			SendMessage(hwndMap, CB_ADDSTRING, 0, (LPARAM)GetString(IDS_GRADTYPE_SIZE));			

	mov	ecx, 150				; 00000096H
	call	?GetString@@YAPEA_WH@Z			; GetString
	mov	r9, rax
	xor	r8d, r8d
	mov	edx, 323				; 00000143H
	mov	rcx, rbx
	call	QWORD PTR __imp_SendMessageW

; 368  : 
; 369  : 			hwndMap = GetDlgItem(hWnd, IDC_GRADIENT_INT);  

	mov	edx, 1054				; 0000041eH
	mov	rcx, r14
	call	QWORD PTR __imp_GetDlgItem
	mov	rbx, rax

; 370  : 			SendMessage(hwndMap, CB_ADDSTRING, 0, (LPARAM)GetString(IDS_GRADINT_LINEAR));

	mov	ecx, 151				; 00000097H
	call	?GetString@@YAPEA_WH@Z			; GetString
	mov	r9, rax
	xor	r8d, r8d
	mov	edx, 323				; 00000143H
	mov	rcx, rbx
	call	QWORD PTR __imp_SendMessageW

; 371  : 			SendMessage(hwndMap, CB_ADDSTRING, 0, (LPARAM)GetString(IDS_GRADINT_SMOOTH));

	mov	ecx, 152				; 00000098H
	call	?GetString@@YAPEA_WH@Z			; GetString
	mov	r9, rax
	xor	r8d, r8d
	mov	edx, 323				; 00000143H
	mov	rcx, rbx
	call	QWORD PTR __imp_SendMessageW

; 372  : 			SendMessage(hwndMap, CB_ADDSTRING, 0, (LPARAM)GetString(IDS_GRADINT_SOLIDNEAR));

	mov	ecx, 153				; 00000099H
	call	?GetString@@YAPEA_WH@Z			; GetString
	mov	r9, rax
	xor	r8d, r8d
	mov	edx, 323				; 00000143H
	mov	rcx, rbx
	call	QWORD PTR __imp_SendMessageW

; 373  : 			SendMessage(hwndMap, CB_ADDSTRING, 0, (LPARAM)GetString(IDS_GRADINT_SOLIDLEFT));

	mov	ecx, 154				; 0000009aH
	call	?GetString@@YAPEA_WH@Z			; GetString
	mov	r9, rax
	xor	r8d, r8d
	mov	edx, 323				; 00000143H
	mov	rcx, rbx
	call	QWORD PTR __imp_SendMessageW

; 374  : 			SendMessage(hwndMap, CB_ADDSTRING, 0, (LPARAM)GetString(IDS_GRADINT_SOLIDRIGHT));

	mov	ecx, 155				; 0000009bH
	call	?GetString@@YAPEA_WH@Z			; GetString
	mov	r9, rax
	xor	r8d, r8d
	mov	edx, 323				; 00000143H
	mov	rcx, rbx
	call	QWORD PTR __imp_SendMessageW

; 375  : 
; 376  : 			hwndMap = GetDlgItem(hWnd, IDC_GRADIENT_UVW);  

	mov	edx, 1058				; 00000422H
	mov	rcx, r14
	call	QWORD PTR __imp_GetDlgItem
	mov	rbx, rax

; 377  : 			SendMessage(hwndMap, CB_ADDSTRING, 0, (LPARAM)GetString(IDS_GRADUVW_LINEAR));

	mov	ecx, 174				; 000000aeH
	call	?GetString@@YAPEA_WH@Z			; GetString
	mov	r9, rax
	xor	r8d, r8d
	mov	edx, 323				; 00000143H
	mov	rcx, rbx
	call	QWORD PTR __imp_SendMessageW

; 378  : 			SendMessage(hwndMap, CB_ADDSTRING, 0, (LPARAM)GetString(IDS_GRADUVW_RADIAL));

	mov	ecx, 175				; 000000afH
	call	?GetString@@YAPEA_WH@Z			; GetString
	mov	r9, rax
	xor	r8d, r8d
	mov	edx, 323				; 00000143H
	mov	rcx, rbx
	call	QWORD PTR __imp_SendMessageW

; 379  : 			SendMessage(hwndMap, CB_ADDSTRING, 0, (LPARAM)GetString(IDS_GRADUVW_RECTANGLE));

	mov	ecx, 176				; 000000b0H
	call	?GetString@@YAPEA_WH@Z			; GetString
	mov	r9, rax
	xor	r8d, r8d
	mov	edx, 323				; 00000143H
	mov	rcx, rbx
	call	QWORD PTR __imp_SendMessageW

; 380  : 			SendMessage(hwndMap, CB_ADDSTRING, 0, (LPARAM)GetString(IDS_GRADUVW_DIAGONAL));

	mov	ecx, 177				; 000000b1H
	call	?GetString@@YAPEA_WH@Z			; GetString
	mov	r9, rax
	xor	r8d, r8d
	mov	edx, 323				; 00000143H
	mov	rcx, rbx
	call	QWORD PTR __imp_SendMessageW

; 381  : 			SendMessage(hwndMap, CB_ADDSTRING, 0, (LPARAM)GetString(IDS_GRADUVW_PONG));

	mov	ecx, 183				; 000000b7H
	call	?GetString@@YAPEA_WH@Z			; GetString
	mov	r9, rax
	xor	r8d, r8d
	mov	edx, 323				; 00000143H
	mov	rcx, rbx
	call	QWORD PTR __imp_SendMessageW

; 382  : 			SendMessage(hwndMap, CB_ADDSTRING, 0, (LPARAM)GetString(IDS_GRADUVW_SPIRAL));

	mov	ecx, 178				; 000000b2H
	call	?GetString@@YAPEA_WH@Z			; GetString
	mov	r9, rax
	xor	r8d, r8d
	mov	edx, 323				; 00000143H
	mov	rcx, rbx
	call	QWORD PTR __imp_SendMessageW

; 383  : 			SendMessage(hwndMap, CB_ADDSTRING, 0, (LPARAM)GetString(IDS_GRADUVW_SWEEP));

	mov	ecx, 179				; 000000b3H
	call	?GetString@@YAPEA_WH@Z			; GetString
	mov	r9, rax
	xor	r8d, r8d
	mov	edx, 323				; 00000143H
	mov	rcx, rbx
	call	QWORD PTR __imp_SendMessageW

; 384  : 			SendMessage(hwndMap, CB_ADDSTRING, 0, (LPARAM)GetString(IDS_GRADUVW_TARTAN));

	mov	ecx, 180				; 000000b4H
	call	?GetString@@YAPEA_WH@Z			; GetString
	mov	r9, rax
	xor	r8d, r8d
	mov	edx, 323				; 00000143H
	mov	rcx, rbx
	call	QWORD PTR __imp_SendMessageW

; 385  : 			SendMessage(hwndMap, CB_ADDSTRING, 0, (LPARAM)GetString(IDS_GRADUVW_SPHERICAL));

	mov	ecx, 181				; 000000b5H
	call	?GetString@@YAPEA_WH@Z			; GetString
	mov	r9, rax
	xor	r8d, r8d
	mov	edx, 323				; 00000143H
	mov	rcx, rbx
	call	QWORD PTR __imp_SendMessageW

; 386  : 			SendMessage(hwndMap, CB_ADDSTRING, 0, (LPARAM)GetString(IDS_GRADUVW_BOX));

	mov	ecx, 182				; 000000b6H
	call	?GetString@@YAPEA_WH@Z			; GetString
	mov	r9, rax
	xor	r8d, r8d
	mov	edx, 323				; 00000143H
	mov	rcx, rbx
	call	QWORD PTR __imp_SendMessageW

; 387  : 
; 388  : 			hwndMap = GetDlgItem(hWnd, IDC_GRADIENT_NORMAL);  

	mov	edx, 1059				; 00000423H
	mov	rcx, r14
	call	QWORD PTR __imp_GetDlgItem
	mov	rbx, rax

; 389  : 			SendMessage(hwndMap, CB_ADDSTRING, 0, (LPARAM)GetString(IDS_NORMAL_VIEW));

	mov	ecx, 188				; 000000bcH
	call	?GetString@@YAPEA_WH@Z			; GetString
	mov	r9, rax
	xor	r8d, r8d
	mov	edx, 323				; 00000143H
	mov	rcx, rbx
	call	QWORD PTR __imp_SendMessageW

; 390  : 			SendMessage(hwndMap, CB_ADDSTRING, 0, (LPARAM)GetString(IDS_NORMAL_LOCALX));

	mov	ecx, 189				; 000000bdH
	call	?GetString@@YAPEA_WH@Z			; GetString
	mov	r9, rax
	xor	r8d, r8d
	mov	edx, 323				; 00000143H
	mov	rcx, rbx
	call	QWORD PTR __imp_SendMessageW

; 391  : 			SendMessage(hwndMap, CB_ADDSTRING, 0, (LPARAM)GetString(IDS_NORMAL_LOCALY));

	mov	ecx, 190				; 000000beH
	call	?GetString@@YAPEA_WH@Z			; GetString
	mov	r9, rax
	xor	r8d, r8d
	mov	edx, 323				; 00000143H
	mov	rcx, rbx
	call	QWORD PTR __imp_SendMessageW

; 392  : 			SendMessage(hwndMap, CB_ADDSTRING, 0, (LPARAM)GetString(IDS_NORMAL_LOCALZ));

	mov	ecx, 191				; 000000bfH
	call	?GetString@@YAPEA_WH@Z			; GetString
	mov	r9, rax
	xor	r8d, r8d
	mov	edx, 323				; 00000143H
	mov	rcx, rbx
	call	QWORD PTR __imp_SendMessageW

; 393  : 			SendMessage(hwndMap, CB_ADDSTRING, 0, (LPARAM)GetString(IDS_NORMAL_WORLDX));

	mov	ecx, 192				; 000000c0H
	call	?GetString@@YAPEA_WH@Z			; GetString
	mov	r9, rax
	xor	r8d, r8d
	mov	edx, 323				; 00000143H
	mov	rcx, rbx
	call	QWORD PTR __imp_SendMessageW

; 394  : 			SendMessage(hwndMap, CB_ADDSTRING, 0, (LPARAM)GetString(IDS_NORMAL_WORLDY));

	mov	ecx, 193				; 000000c1H
	call	?GetString@@YAPEA_WH@Z			; GetString
	mov	r9, rax
	xor	r8d, r8d
	mov	edx, 323				; 00000143H
	mov	rcx, rbx
	call	QWORD PTR __imp_SendMessageW

; 395  : 			SendMessage(hwndMap, CB_ADDSTRING, 0, (LPARAM)GetString(IDS_NORMAL_WORLDZ));

	mov	ecx, 194				; 000000c2H
	call	?GetString@@YAPEA_WH@Z			; GetString
	mov	r9, rax
	xor	r8d, r8d
	mov	edx, 323				; 00000143H
	mov	rcx, rbx
	call	QWORD PTR __imp_SendMessageW

; 396  : 			SendMessage(hwndMap, CB_ADDSTRING, 0, (LPARAM)GetString(IDS_NORMAL_CAMERAX));

	mov	ecx, 195				; 000000c3H
	call	?GetString@@YAPEA_WH@Z			; GetString
	mov	r9, rax
	xor	r8d, r8d
	mov	edx, 323				; 00000143H
	mov	rcx, rbx
	call	QWORD PTR __imp_SendMessageW

; 397  : 			SendMessage(hwndMap, CB_ADDSTRING, 0, (LPARAM)GetString(IDS_NORMAL_CAMERAY));

	mov	ecx, 196				; 000000c4H
	call	?GetString@@YAPEA_WH@Z			; GetString
	mov	r9, rax
	xor	r8d, r8d
	mov	edx, 323				; 00000143H
	mov	rcx, rbx
	call	QWORD PTR __imp_SendMessageW

; 398  : 			SendMessage(hwndMap, CB_ADDSTRING, 0, (LPARAM)GetString(IDS_NORMAL_CAMERAZ));

	mov	ecx, 197				; 000000c5H
	call	?GetString@@YAPEA_WH@Z			; GetString
	mov	r9, rax
	xor	r8d, r8d
	mov	edx, 323				; 00000143H
	mov	rcx, rbx
	call	QWORD PTR __imp_SendMessageW

; 399  : 			SendMessage(hwndMap, CB_ADDSTRING, 0, (LPARAM)GetString(IDS_NORMAL_TOOBJECT));

	mov	ecx, 198				; 000000c6H
	call	?GetString@@YAPEA_WH@Z			; GetString
	mov	r9, rax
	xor	r8d, r8d
	mov	edx, 323				; 00000143H
	mov	rcx, rbx
	call	QWORD PTR __imp_SendMessageW

; 400  : 			SendMessage(hwndMap, CB_ADDSTRING, 0, (LPARAM)GetString(IDS_NORMAL_OBJECTZ));

	mov	ecx, 199				; 000000c7H
	call	?GetString@@YAPEA_WH@Z			; GetString
	mov	r9, rax
	xor	r8d, r8d
	mov	edx, 323				; 00000143H
	mov	rcx, rbx
	call	QWORD PTR __imp_SendMessageW

; 401  : 
; 402  : 			hwndMap = GetDlgItem(hWnd, IDC_GRADIENT_NORMAL2);  

	mov	edx, 1060				; 00000424H
	mov	rcx, r14
	call	QWORD PTR __imp_GetDlgItem
	mov	rbx, rax

; 403  : 			SendMessage(hwndMap, CB_ADDSTRING, 0, (LPARAM)GetString(IDS_NORMAL_PARALLEL));

	mov	ecx, 200				; 000000c8H
	call	?GetString@@YAPEA_WH@Z			; GetString
	mov	r9, rax
	xor	r8d, r8d
	mov	edx, 323				; 00000143H
	mov	rcx, rbx
	call	QWORD PTR __imp_SendMessageW

; 404  : 			SendMessage(hwndMap, CB_ADDSTRING, 0, (LPARAM)GetString(IDS_NORMAL_TOWARDS));

	mov	ecx, 201				; 000000c9H
	call	?GetString@@YAPEA_WH@Z			; GetString
	mov	r9, rax
	xor	r8d, r8d
	mov	edx, 323				; 00000143H
	mov	rcx, rbx
	call	QWORD PTR __imp_SendMessageW

; 405  : 			SendMessage(hwndMap, CB_ADDSTRING, 0, (LPARAM)GetString(IDS_NORMAL_FRESNEL));

	mov	ecx, 202				; 000000caH
	call	?GetString@@YAPEA_WH@Z			; GetString
	mov	r9, rax
	xor	r8d, r8d
	mov	edx, 323				; 00000143H
	mov	rcx, rbx
	call	QWORD PTR __imp_SendMessageW

; 406  : 						
; 407  : 			hwndMap = GetDlgItem(hWnd, IDC_RANGELOOP);  

	mov	edx, 1077				; 00000435H
	mov	rcx, r14
	call	QWORD PTR __imp_GetDlgItem
	mov	rbx, rax

; 408  : 			SendMessage(hwndMap, CB_ADDSTRING, 0, (LPARAM)GetString(IDS_LOOP_STRETCH));

	mov	ecx, 184				; 000000b8H
	call	?GetString@@YAPEA_WH@Z			; GetString
	mov	r9, rax
	xor	r8d, r8d
	mov	edx, 323				; 00000143H
	mov	rcx, rbx
	call	QWORD PTR __imp_SendMessageW

; 409  : 			SendMessage(hwndMap, CB_ADDSTRING, 0, (LPARAM)GetString(IDS_LOOP_TILE));

	mov	ecx, 185				; 000000b9H
	call	?GetString@@YAPEA_WH@Z			; GetString
	mov	r9, rax
	xor	r8d, r8d
	mov	edx, 323				; 00000143H
	mov	rcx, rbx
	call	QWORD PTR __imp_SendMessageW

; 410  : 			SendMessage(hwndMap, CB_ADDSTRING, 0, (LPARAM)GetString(IDS_LOOP_MIRROR));

	mov	ecx, 186				; 000000baH
	call	?GetString@@YAPEA_WH@Z			; GetString
	mov	r9, rax
	xor	r8d, r8d
	mov	edx, 323				; 00000143H
	mov	rcx, rbx
	call	QWORD PTR __imp_SendMessageW

; 411  : 			SendMessage(hwndMap, CB_ADDSTRING, 0, (LPARAM)GetString(IDS_LOOP_NONE));

	mov	ecx, 187				; 000000bbH
	call	?GetString@@YAPEA_WH@Z			; GetString
	mov	r9, rax
	xor	r8d, r8d
	mov	edx, 323				; 00000143H
	mov	rcx, rbx
	call	QWORD PTR __imp_SendMessageW

; 412  : 
; 413  : 			// Set correct dropdown value
; 414  : 			int curIndex;
; 415  : 			map->GetParamBlock()->GetValue(pb_type, t, curIndex, FOREVER);

	mov	rax, QWORD PTR [rsi]
	mov	rcx, rsi
	call	QWORD PTR [rax+136]
	mov	rbx, rax
	mov	rdi, QWORD PTR [rax]
	mov	edx, -2147483648			; ffffffff80000000H
	mov	r8d, 2147483647				; 7fffffffH
	lea	rcx, QWORD PTR $T14[rbp-96]
	call	QWORD PTR __imp_??0Interval@@QEAA@HH@Z
	mov	edx, 7
	mov	DWORD PTR [rsp+40], r15d
	mov	QWORD PTR [rsp+32], rax
	lea	r9, QWORD PTR curIndex$18[rbp-96]
	mov	r8d, r12d
	mov	rcx, rbx
	call	QWORD PTR [rdi+1704]

; 416  : 			SendMessage(GetDlgItem(hWnd, IDC_GRADIENT_TYPE), CB_SETCURSEL, (WPARAM)curIndex, 0);

	movsxd	rbx, DWORD PTR curIndex$18[rbp-96]
	mov	edx, 1050				; 0000041aH
	mov	rcx, r14
	call	QWORD PTR __imp_GetDlgItem
	mov	rcx, rax
	xor	r9d, r9d
	mov	r8, rbx
	mov	edx, 334				; 0000014eH
	call	QWORD PTR __imp_SendMessageW

; 417  : 			map->GetParamBlock()->GetValue(pb_interpolation, t, curIndex, FOREVER);

	mov	rax, QWORD PTR [rsi]
	mov	rcx, rsi
	call	QWORD PTR [rax+136]
	mov	rbx, rax
	mov	rdi, QWORD PTR [rax]
	mov	edx, -2147483648			; ffffffff80000000H
	mov	r8d, 2147483647				; 7fffffffH
	lea	rcx, QWORD PTR $T13[rbp-96]
	call	QWORD PTR __imp_??0Interval@@QEAA@HH@Z
	mov	edx, 8
	mov	DWORD PTR [rsp+40], r15d
	mov	QWORD PTR [rsp+32], rax
	lea	r9, QWORD PTR curIndex$18[rbp-96]
	mov	r8d, r12d
	mov	rcx, rbx
	call	QWORD PTR [rdi+1704]

; 418  : 			SendMessage(GetDlgItem(hWnd, IDC_GRADIENT_INT), CB_SETCURSEL, (WPARAM)curIndex, 0);

	movsxd	rbx, DWORD PTR curIndex$18[rbp-96]
	mov	edx, 1054				; 0000041eH
	mov	rcx, r14
	call	QWORD PTR __imp_GetDlgItem
	mov	rcx, rax
	xor	r9d, r9d
	mov	r8, rbx
	mov	edx, 334				; 0000014eH
	call	QWORD PTR __imp_SendMessageW

; 419  : 			map->GetParamBlock()->GetValue(pb_gradient_uvw, t, curIndex, FOREVER);

	mov	rax, QWORD PTR [rsi]
	mov	rcx, rsi
	call	QWORD PTR [rax+136]
	mov	rbx, rax
	mov	rdi, QWORD PTR [rax]
	mov	edx, -2147483648			; ffffffff80000000H
	mov	r8d, 2147483647				; 7fffffffH
	lea	rcx, QWORD PTR $T12[rbp-96]
	call	QWORD PTR __imp_??0Interval@@QEAA@HH@Z
	mov	edx, 18
	mov	DWORD PTR [rsp+40], r15d
	mov	QWORD PTR [rsp+32], rax
	lea	r9, QWORD PTR curIndex$18[rbp-96]
	mov	r8d, r12d
	mov	rcx, rbx
	call	QWORD PTR [rdi+1704]

; 420  : 			SendMessage(GetDlgItem(hWnd, IDC_GRADIENT_UVW), CB_SETCURSEL, (WPARAM)curIndex, 0);

	movsxd	rbx, DWORD PTR curIndex$18[rbp-96]
	mov	edx, 1058				; 00000422H
	mov	rcx, r14
	call	QWORD PTR __imp_GetDlgItem
	mov	rcx, rax
	xor	r9d, r9d
	mov	r8, rbx
	mov	edx, 334				; 0000014eH
	call	QWORD PTR __imp_SendMessageW

; 421  : 			map->GetParamBlock()->GetValue(pb_gradient_normal, t, curIndex, FOREVER);

	mov	rax, QWORD PTR [rsi]
	mov	rcx, rsi
	call	QWORD PTR [rax+136]
	mov	rbx, rax
	mov	rdi, QWORD PTR [rax]
	mov	edx, -2147483648			; ffffffff80000000H
	mov	r8d, 2147483647				; 7fffffffH
	lea	rcx, QWORD PTR $T11[rbp-96]
	call	QWORD PTR __imp_??0Interval@@QEAA@HH@Z
	mov	edx, 19
	mov	DWORD PTR [rsp+40], r15d
	mov	QWORD PTR [rsp+32], rax
	lea	r9, QWORD PTR curIndex$18[rbp-96]
	mov	r8d, r12d
	mov	rcx, rbx
	call	QWORD PTR [rdi+1704]

; 422  : 			SendMessage(GetDlgItem(hWnd, IDC_GRADIENT_NORMAL), CB_SETCURSEL, (WPARAM)curIndex, 0);

	movsxd	rbx, DWORD PTR curIndex$18[rbp-96]
	mov	edx, 1059				; 00000423H
	mov	rcx, r14
	call	QWORD PTR __imp_GetDlgItem
	mov	rcx, rax
	xor	r9d, r9d
	mov	r8, rbx
	mov	edx, 334				; 0000014eH
	call	QWORD PTR __imp_SendMessageW

; 423  : 			map->GetParamBlock()->GetValue(pb_gradient_normal2, t, curIndex, FOREVER);

	mov	rax, QWORD PTR [rsi]
	mov	rcx, rsi
	call	QWORD PTR [rax+136]
	mov	rbx, rax
	mov	rdi, QWORD PTR [rax]
	mov	edx, -2147483648			; ffffffff80000000H
	mov	r8d, 2147483647				; 7fffffffH
	lea	rcx, QWORD PTR $T10[rbp-96]
	call	QWORD PTR __imp_??0Interval@@QEAA@HH@Z
	mov	edx, 20
	mov	DWORD PTR [rsp+40], r15d
	mov	QWORD PTR [rsp+32], rax
	lea	r9, QWORD PTR curIndex$18[rbp-96]
	mov	r8d, r12d
	mov	rcx, rbx
	call	QWORD PTR [rdi+1704]

; 424  : 			SendMessage(GetDlgItem(hWnd, IDC_GRADIENT_NORMAL2), CB_SETCURSEL, (WPARAM)curIndex, 0);

	movsxd	rbx, DWORD PTR curIndex$18[rbp-96]
	mov	edx, 1060				; 00000424H
	mov	rcx, r14
	call	QWORD PTR __imp_GetDlgItem
	mov	rcx, rax
	xor	r9d, r9d
	mov	r8, rbx
	mov	edx, 334				; 0000014eH
	call	QWORD PTR __imp_SendMessageW

; 425  : 			map->GetParamBlock()->GetValue(pb_range_loop, t, curIndex, FOREVER);

	mov	rax, QWORD PTR [rsi]
	mov	rcx, rsi
	call	QWORD PTR [rax+136]
	mov	rbx, rax
	mov	rdi, QWORD PTR [rax]
	mov	edx, -2147483648			; ffffffff80000000H
	mov	r8d, 2147483647				; 7fffffffH
	lea	rcx, QWORD PTR $T9[rbp-96]
	call	QWORD PTR __imp_??0Interval@@QEAA@HH@Z
	mov	edx, 17
	mov	DWORD PTR [rsp+40], r15d
	mov	QWORD PTR [rsp+32], rax
	lea	r9, QWORD PTR curIndex$18[rbp-96]
	mov	r8d, r12d
	mov	rcx, rbx
	call	QWORD PTR [rdi+1704]

; 426  : 			SendMessage(GetDlgItem(hWnd, IDC_RANGELOOP), CB_SETCURSEL, (WPARAM)curIndex, 0);

	movsxd	rbx, DWORD PTR curIndex$18[rbp-96]
	mov	edx, 1077				; 00000435H
	mov	rcx, r14
	call	QWORD PTR __imp_GetDlgItem
	mov	rcx, rax
	xor	r9d, r9d
	mov	r8, rbx
	mov	edx, 334				; 0000014eH
	call	QWORD PTR __imp_SendMessageW

; 427  : 			break;

	jmp	$LN15@DlgProc
$LN11@DlgProc:

; 428  : 		}		
; 429  : 		case WM_SHOWWINDOW:	{
; 430  : 			// Set correct dropdown value
; 431  : 			int curIndex;
; 432  : 			map->GetParamBlock()->GetValue(pb_type, t, curIndex, FOREVER);

	mov	rax, QWORD PTR [r8]
	mov	rcx, rsi
	call	QWORD PTR [rax+136]
	mov	rbx, rax
	mov	rdi, QWORD PTR [rax]
	mov	edx, -2147483648			; ffffffff80000000H
	mov	r8d, 2147483647				; 7fffffffH
	lea	rcx, QWORD PTR $T8[rbp-96]
	call	QWORD PTR __imp_??0Interval@@QEAA@HH@Z
	mov	edx, 7
	xor	r15d, r15d
	mov	DWORD PTR [rsp+40], r15d
	mov	QWORD PTR [rsp+32], rax
	lea	r9, QWORD PTR curIndex$17[rbp-96]
	mov	r8d, r12d
	mov	rcx, rbx
	call	QWORD PTR [rdi+1704]

; 433  : 			SendMessage(GetDlgItem(hWnd, IDC_GRADIENT_TYPE), CB_SETCURSEL, (WPARAM)curIndex, 0);

	movsxd	rbx, DWORD PTR curIndex$17[rbp-96]
	mov	edx, 1050				; 0000041aH
	mov	rcx, r14
	call	QWORD PTR __imp_GetDlgItem
	mov	rcx, rax
	xor	r9d, r9d
	mov	r8, rbx
	mov	edx, 334				; 0000014eH
	call	QWORD PTR __imp_SendMessageW

; 434  : 			map->GetParamBlock()->GetValue(pb_interpolation, t, curIndex, FOREVER);

	mov	rax, QWORD PTR [rsi]
	mov	rcx, rsi
	call	QWORD PTR [rax+136]
	mov	rbx, rax
	mov	rdi, QWORD PTR [rax]
	mov	edx, -2147483648			; ffffffff80000000H
	mov	r8d, 2147483647				; 7fffffffH
	lea	rcx, QWORD PTR $T7[rbp-96]
	call	QWORD PTR __imp_??0Interval@@QEAA@HH@Z
	lea	edx, QWORD PTR [r15+8]
	mov	DWORD PTR [rsp+40], r15d
	mov	QWORD PTR [rsp+32], rax
	lea	r9, QWORD PTR curIndex$17[rbp-96]
	mov	r8d, r12d
	mov	rcx, rbx
	call	QWORD PTR [rdi+1704]

; 435  : 			SendMessage(GetDlgItem(hWnd, IDC_GRADIENT_INT), CB_SETCURSEL, (WPARAM)curIndex, 0);

	movsxd	rbx, DWORD PTR curIndex$17[rbp-96]
	mov	edx, 1054				; 0000041eH
	mov	rcx, r14
	call	QWORD PTR __imp_GetDlgItem
	mov	rcx, rax
	xor	r9d, r9d
	mov	r8, rbx
	mov	edx, 334				; 0000014eH
	call	QWORD PTR __imp_SendMessageW

; 436  : 			map->GetParamBlock()->GetValue(pb_gradient_uvw, t, curIndex, FOREVER);

	mov	rax, QWORD PTR [rsi]
	mov	rcx, rsi
	call	QWORD PTR [rax+136]
	mov	rbx, rax
	mov	rdi, QWORD PTR [rax]
	mov	edx, -2147483648			; ffffffff80000000H
	mov	r8d, 2147483647				; 7fffffffH
	lea	rcx, QWORD PTR $T6[rbp-96]
	call	QWORD PTR __imp_??0Interval@@QEAA@HH@Z
	lea	edx, QWORD PTR [r15+18]
	mov	DWORD PTR [rsp+40], r15d
	mov	QWORD PTR [rsp+32], rax
	lea	r9, QWORD PTR curIndex$17[rbp-96]
	mov	r8d, r12d
	mov	rcx, rbx
	call	QWORD PTR [rdi+1704]

; 437  : 			SendMessage(GetDlgItem(hWnd, IDC_GRADIENT_UVW), CB_SETCURSEL, (WPARAM)curIndex, 0);

	movsxd	rbx, DWORD PTR curIndex$17[rbp-96]
	mov	edx, 1058				; 00000422H
	mov	rcx, r14
	call	QWORD PTR __imp_GetDlgItem
	mov	rcx, rax
	xor	r9d, r9d
	mov	r8, rbx
	mov	edx, 334				; 0000014eH
	call	QWORD PTR __imp_SendMessageW

; 438  : 			map->GetParamBlock()->GetValue(pb_gradient_normal, t, curIndex, FOREVER);

	mov	rax, QWORD PTR [rsi]
	mov	rcx, rsi
	call	QWORD PTR [rax+136]
	mov	rbx, rax
	mov	rdi, QWORD PTR [rax]
	mov	edx, -2147483648			; ffffffff80000000H
	mov	r8d, 2147483647				; 7fffffffH
	lea	rcx, QWORD PTR $T5[rbp-96]
	call	QWORD PTR __imp_??0Interval@@QEAA@HH@Z
	lea	edx, QWORD PTR [r15+19]
	mov	DWORD PTR [rsp+40], r15d
	mov	QWORD PTR [rsp+32], rax
	lea	r9, QWORD PTR curIndex$17[rbp-96]
	mov	r8d, r12d
	mov	rcx, rbx
	call	QWORD PTR [rdi+1704]

; 439  : 			SendMessage(GetDlgItem(hWnd, IDC_GRADIENT_NORMAL), CB_SETCURSEL, (WPARAM)curIndex, 0);

	movsxd	rbx, DWORD PTR curIndex$17[rbp-96]
	mov	edx, 1059				; 00000423H
	mov	rcx, r14
	call	QWORD PTR __imp_GetDlgItem
	mov	rcx, rax
	xor	r9d, r9d
	mov	r8, rbx
	mov	edx, 334				; 0000014eH
	call	QWORD PTR __imp_SendMessageW

; 440  : 			map->GetParamBlock()->GetValue(pb_gradient_normal2, t, curIndex, FOREVER);

	mov	rax, QWORD PTR [rsi]
	mov	rcx, rsi
	call	QWORD PTR [rax+136]
	mov	rbx, rax
	mov	rdi, QWORD PTR [rax]
	mov	edx, -2147483648			; ffffffff80000000H
	mov	r8d, 2147483647				; 7fffffffH
	lea	rcx, QWORD PTR $T4[rbp-96]
	call	QWORD PTR __imp_??0Interval@@QEAA@HH@Z
	lea	edx, QWORD PTR [r15+20]
	mov	DWORD PTR [rsp+40], r15d
	mov	QWORD PTR [rsp+32], rax
	lea	r9, QWORD PTR curIndex$17[rbp-96]
	mov	r8d, r12d
	mov	rcx, rbx
	call	QWORD PTR [rdi+1704]

; 441  : 			SendMessage(GetDlgItem(hWnd, IDC_GRADIENT_NORMAL2), CB_SETCURSEL, (WPARAM)curIndex, 0);

	movsxd	rbx, DWORD PTR curIndex$17[rbp-96]
	mov	edx, 1060				; 00000424H
	mov	rcx, r14
	call	QWORD PTR __imp_GetDlgItem
	mov	rcx, rax
	xor	r9d, r9d
	mov	r8, rbx
	mov	edx, 334				; 0000014eH
	call	QWORD PTR __imp_SendMessageW

; 442  : 			map->GetParamBlock()->GetValue(pb_range_loop, t, curIndex, FOREVER);

	mov	rax, QWORD PTR [rsi]
	mov	rcx, rsi
	call	QWORD PTR [rax+136]
	mov	rbx, rax
	mov	rdi, QWORD PTR [rax]
	mov	edx, -2147483648			; ffffffff80000000H
	mov	r8d, 2147483647				; 7fffffffH
	lea	rcx, QWORD PTR $T3[rbp-96]
	call	QWORD PTR __imp_??0Interval@@QEAA@HH@Z
	lea	edx, QWORD PTR [r15+17]
	mov	DWORD PTR [rsp+40], r15d
	mov	QWORD PTR [rsp+32], rax
	lea	r9, QWORD PTR curIndex$17[rbp-96]
	mov	r8d, r12d
	mov	rcx, rbx
	call	QWORD PTR [rdi+1704]

; 443  : 			SendMessage(GetDlgItem(hWnd, IDC_RANGELOOP), CB_SETCURSEL, (WPARAM)curIndex, 0);

	movsxd	rbx, DWORD PTR curIndex$17[rbp-96]
	mov	edx, 1077				; 00000435H
	mov	rcx, r14
	call	QWORD PTR __imp_GetDlgItem
	mov	rcx, rax
	xor	r9d, r9d
	mov	r8, rbx
	mov	edx, 334				; 0000014eH
	call	QWORD PTR __imp_SendMessageW

; 444  : 			break;

	jmp	$LN15@DlgProc
$LN12@DlgProc:
; File g:\dropbox\github\berconmaps\src\igradient.h

; 55   : 	void DeleteMe() {delete this;}

	mov	rcx, QWORD PTR [rcx+16]
	test	rcx, rcx
	je	$LN15@DlgProc
	mov	rax, QWORD PTR [rcx]
	mov	edx, 1
	call	QWORD PTR [rax]
; File g:\dropbox\github\berconmaps\src\bercongradient.cpp

; 449  : 			break;

	jmp	$LN15@DlgProc
$LN21@DlgProc:

; 474  : 		}
; 475  : 		case CC_SPINNER_CHANGE: {
; 476  : 			switch (LOWORD(wParam)) {

	movzx	ecx, WORD PTR wParam$[rbp-96]
	sub	ecx, 1047				; 00000417H
	je	SHORT $LN23@DlgProc
	cmp	ecx, 2
	jne	$LN15@DlgProc

; 477  : 				case IDC_KEYNUM_SPIN:
; 478  : 					parentMap->keyNumChanged(((ISpinnerControl*)lParam)->GetIVal()); break;

	mov	rcx, QWORD PTR lParam$[rbp-96]
	mov	rax, QWORD PTR [rcx]
	call	QWORD PTR [rax+80]
	mov	edx, eax
	mov	rcx, QWORD PTR [rdi+8]
	call	?keyNumChanged@BerconGradient@@QEAAXH@Z	; BerconGradient::keyNumChanged
	jmp	$LN15@DlgProc
$LN23@DlgProc:

; 479  : 				case IDC_KEYPOS_SPIN:
; 480  : 					parentMap->keyPosChanged(((ISpinnerControl*)lParam)->GetFVal()); break;

	mov	rcx, QWORD PTR lParam$[rbp-96]
	mov	rax, QWORD PTR [rcx]
	call	QWORD PTR [rax+72]
	vmovaps	xmm1, xmm0
	mov	rcx, QWORD PTR [rdi+8]
	call	?keyPosChanged@BerconGradient@@QEAAXM@Z	; BerconGradient::keyPosChanged

; 481  : 				default: break;
; 482  : 			}
; 483  : 			break;

	jmp	$LN15@DlgProc
$LN29@DlgProc:

; 350  : 	switch (msg) {	

	sub	eax, 1627				; 0000065bH
	je	SHORT $LN13@DlgProc
	cmp	eax, 82					; 00000052H
	je	SHORT $LN16@DlgProc
$LN25@DlgProc:

; 484  : 		}
; 485  : 		default: return FALSE;

	xor	eax, eax
	jmp	$LN1@DlgProc
$LN16@DlgProc:

; 455  : 				default:
; 456  : 					break;
; 457  : 			}
; 458  : 			break;
; 459  : 		}
; 460  : 		case WM_CUSTEDIT_ENTER: {
; 461  : 			// Unlike the other messages here lParam is the HWND of the custom edit and not a pointer to it
; 462  : 			ICustEdit* custEdit=GetICustEdit(reinterpret_cast<HWND>(lParam));

	mov	rcx, QWORD PTR lParam$[rbp-96]
	call	QWORD PTR __imp_?GetICustEdit@@YAPEAVICustEdit@@PEAUHWND__@@@Z
	mov	rbx, rax

; 463  : 			if (custEdit) {

	test	rax, rax
	je	$LN15@DlgProc

; 464  : 				switch (LOWORD(wParam)) {

	movzx	ecx, WORD PTR wParam$[rbp-96]
	sub	ecx, 1046				; 00000416H
	je	SHORT $LN19@DlgProc
	cmp	ecx, 2
	jne	SHORT $LN20@DlgProc

; 465  : 					case IDC_KEYNUM_EDIT:
; 466  : 						parentMap->keyNumChanged(custEdit->GetInt()); break;

	mov	rax, QWORD PTR [rax]
	xor	edx, edx
	mov	rcx, rbx
	call	QWORD PTR [rax+120]
	mov	edx, eax
	mov	rcx, QWORD PTR [rdi+8]
	call	?keyNumChanged@BerconGradient@@QEAAXH@Z	; BerconGradient::keyNumChanged
	jmp	SHORT $LN20@DlgProc
$LN19@DlgProc:

; 467  : 					case IDC_KEYPOS_EDIT:
; 468  : 						parentMap->keyPosChanged(custEdit->GetFloat()); break;

	mov	rax, QWORD PTR [rax]
	xor	edx, edx
	mov	rcx, rbx
	call	QWORD PTR [rax+128]
	vmovaps	xmm1, xmm0
	mov	rcx, QWORD PTR [rdi+8]
	call	?keyPosChanged@BerconGradient@@QEAAXM@Z	; BerconGradient::keyPosChanged
$LN20@DlgProc:

; 469  : 					default: break;
; 470  : 				}
; 471  : 				ReleaseICustEdit(custEdit);

	mov	rcx, rbx
	call	QWORD PTR __imp_?ReleaseICustEdit@@YAXPEAVICustEdit@@@Z

; 472  : 			}
; 473  : 			break;

	jmp	SHORT $LN15@DlgProc
$LN13@DlgProc:

; 450  : 		}
; 451  : 		case CC_COLOR_CHANGE: {
; 452  : 			switch (LOWORD(wParam)) {

	mov	eax, 1045				; 00000415H
	cmp	WORD PTR wParam$[rbp-96], ax
	jne	SHORT $LN15@DlgProc

; 453  : 				case IDC_KEYCOL:					
; 454  : 					parentMap->keyColorChanged(((IColorSwatch*)lParam)->GetAColor());

	mov	rcx, QWORD PTR lParam$[rbp-96]
	mov	r8, QWORD PTR [rcx]
	lea	rdx, QWORD PTR $T16[rbp-96]
	call	QWORD PTR [r8+144]
	vmovups	xmm0, XMMWORD PTR [rax]
	vmovups	XMMWORD PTR $T2[rbp-96], xmm0
	lea	rdx, QWORD PTR $T2[rbp-96]
	mov	rcx, QWORD PTR [rdi+8]
	call	?keyColorChanged@BerconGradient@@QEAAXVAColor@@@Z ; BerconGradient::keyColorChanged
$LN15@DlgProc:

; 486  : 	}
; 487  : 	return TRUE;

	mov	eax, 1
$LN1@DlgProc:

; 488  : }

	lea	r11, QWORD PTR [rsp+96]
	mov	rbx, QWORD PTR [r11+48]
	mov	rsi, QWORD PTR [r11+56]
	mov	rdi, QWORD PTR [r11+64]
	mov	rsp, r11
	pop	r15
	pop	r14
	pop	r13
	pop	r12
	pop	rbp
	ret	0
?DlgProc@BerconGradientDlgProc@@UEAA_JHPEAVIParamMap2@@PEAUHWND__@@I_K_J@Z ENDP ; BerconGradientDlgProc::DlgProc
_TEXT	ENDS
;	COMDAT text$x
text$x	SEGMENT
$T1 = 48
$T2 = 64
$T3 = 64
$T4 = 64
$T5 = 64
$T6 = 64
$T7 = 64
$T8 = 64
$T9 = 64
$T10 = 64
$T11 = 64
$T12 = 64
$T13 = 64
$T14 = 64
$T15 = 64
$T16 = 80
this$ = 144
t$ = 152
map$ = 160
hWnd$ = 168
curIndex$17 = 176
curIndex$18 = 176
msg$ = 176
wParam$ = 184
lParam$ = 192
?dtor$0@?0??DlgProc@BerconGradientDlgProc@@UEAA_JHPEAVIParamMap2@@PEAUHWND__@@I_K_J@Z@4HA PROC ; `BerconGradientDlgProc::DlgProc'::`1'::dtor$0
	mov	rcx, QWORD PTR $T15[rdx]
	rex_jmp	QWORD PTR __imp_??3MaxHeapOperators@@SAXPEAX@Z
?dtor$0@?0??DlgProc@BerconGradientDlgProc@@UEAA_JHPEAVIParamMap2@@PEAUHWND__@@I_K_J@Z@4HA ENDP ; `BerconGradientDlgProc::DlgProc'::`1'::dtor$0
text$x	ENDS
; Function compile flags: /Ogtp
;	COMDAT text$x
text$x	SEGMENT
$T1 = 48
$T2 = 64
$T3 = 64
$T4 = 64
$T5 = 64
$T6 = 64
$T7 = 64
$T8 = 64
$T9 = 64
$T10 = 64
$T11 = 64
$T12 = 64
$T13 = 64
$T14 = 64
$T15 = 64
$T16 = 80
this$ = 144
t$ = 152
map$ = 160
hWnd$ = 168
curIndex$17 = 176
curIndex$18 = 176
msg$ = 176
wParam$ = 184
lParam$ = 192
?dtor$0@?0??DlgProc@BerconGradientDlgProc@@UEAA_JHPEAVIParamMap2@@PEAUHWND__@@I_K_J@Z@4HA PROC ; `BerconGradientDlgProc::DlgProc'::`1'::dtor$0
	mov	rcx, QWORD PTR $T15[rdx]
	rex_jmp	QWORD PTR __imp_??3MaxHeapOperators@@SAXPEAX@Z
?dtor$0@?0??DlgProc@BerconGradientDlgProc@@UEAA_JHPEAVIParamMap2@@PEAUHWND__@@I_K_J@Z@4HA ENDP ; `BerconGradientDlgProc::DlgProc'::`1'::dtor$0
text$x	ENDS
; Function compile flags: /Ogtp
; File g:\dropbox\github\berconmaps\src\bercongradient.cpp
;	COMDAT ??0BerconGradientDlgProc@@QEAA@PEAVBerconGradient@@@Z
_TEXT	SEGMENT
$T1 = 0
this$ = 32
m$ = 40
??0BerconGradientDlgProc@@QEAA@PEAVBerconGradient@@@Z PROC ; BerconGradientDlgProc::BerconGradientDlgProc, COMDAT

; 330  : 		BerconGradientDlgProc(BerconGradient *m) {parentMap = m; igrad = NULL;}		

$LN6:
	mov	QWORD PTR [rsp+8], rcx
	sub	rsp, 24
	mov	QWORD PTR $T1[rsp], -2
	lea	rax, OFFSET FLAT:??_7ParamMap2UserDlgProc@@6B@
	mov	QWORD PTR [rcx], rax
	lea	rax, OFFSET FLAT:??_7BerconGradientDlgProc@@6B@
	mov	QWORD PTR [rcx], rax
	mov	QWORD PTR [rcx+8], rdx
	mov	QWORD PTR [rcx+16], 0
	mov	rax, rcx
	add	rsp, 24
	ret	0
??0BerconGradientDlgProc@@QEAA@PEAVBerconGradient@@@Z ENDP ; BerconGradientDlgProc::BerconGradientDlgProc
_TEXT	ENDS
;	COMDAT text$x
text$x	SEGMENT
$T1 = 0
this$ = 32
m$ = 40
?dtor$0@?0???0BerconGradientDlgProc@@QEAA@PEAVBerconGradient@@@Z@4HA PROC ; `BerconGradientDlgProc::BerconGradientDlgProc'::`1'::dtor$0
	mov	rcx, QWORD PTR this$[rdx]
	jmp	??1ParamMap2UserDlgProc@@UEAA@XZ	; ParamMap2UserDlgProc::~ParamMap2UserDlgProc
?dtor$0@?0???0BerconGradientDlgProc@@QEAA@PEAVBerconGradient@@@Z@4HA ENDP ; `BerconGradientDlgProc::BerconGradientDlgProc'::`1'::dtor$0
text$x	ENDS
; Function compile flags: /Ogtp
;	COMDAT text$x
text$x	SEGMENT
$T1 = 0
this$ = 32
m$ = 40
?dtor$0@?0???0BerconGradientDlgProc@@QEAA@PEAVBerconGradient@@@Z@4HA PROC ; `BerconGradientDlgProc::BerconGradientDlgProc'::`1'::dtor$0
	mov	rcx, QWORD PTR this$[rdx]
	jmp	??1ParamMap2UserDlgProc@@UEAA@XZ	; ParamMap2UserDlgProc::~ParamMap2UserDlgProc
?dtor$0@?0???0BerconGradientDlgProc@@QEAA@PEAVBerconGradient@@@Z@4HA ENDP ; `BerconGradientDlgProc::BerconGradientDlgProc'::`1'::dtor$0
text$x	ENDS
; Function compile flags: /Ogtp
;	COMDAT ??__Fgradientmap_param_blk@@YAXXZ
text$yd	SEGMENT
??__Fgradientmap_param_blk@@YAXXZ PROC			; `dynamic atexit destructor for 'gradientmap_param_blk'', COMDAT
	lea	rcx, OFFSET FLAT:?gradientmap_param_blk@@3VParamBlockDesc2@@A
	rex_jmp	QWORD PTR __imp_??1ParamBlockDesc2@@UEAA@XZ
??__Fgradientmap_param_blk@@YAXXZ ENDP			; `dynamic atexit destructor for 'gradientmap_param_blk''
text$yd	ENDS
; Function compile flags: /Ogtp
; File g:\dropbox\github\berconmaps\src\bercongradient.cpp
; File c:\program files\autodesk\3ds max 2020 sdk\maxsdk\include\color.h
; File g:\dropbox\github\berconmaps\src\bercongradient.cpp
;	COMDAT ??__Egradientmap_param_blk@@YAXXZ
text$di	SEGMENT
??__Egradientmap_param_blk@@YAXXZ PROC			; `dynamic initializer for 'gradientmap_param_blk'', COMDAT

; 281  : );

	mov	r11, rsp
	sub	rsp, 2904				; 00000b58H

; 115  : static ParamBlockDesc2 gradientmap_param_blk ( gradientmap_params, _T("params"),  0, &BerconGradientDesc, 

	mov	DWORD PTR [r11-48], -1073740800		; ffffffffc0000400H
	xor	ecx, ecx
	mov	DWORD PTR [r11-56], -1073740800		; ffffffffc0000400H
	mov	edx, 6
	mov	DWORD PTR [r11-64], 2
	mov	DWORD PTR [r11-72], -1073741817		; ffffffffc0000007H
	mov	DWORD PTR [r11-80], 8
	mov	DWORD PTR [r11-88], 512			; 00000200H
	lea	r10d, QWORD PTR [rdx-5]
	mov	DWORD PTR [r11-96], 18
	vmovsd	xmm4, QWORD PTR __real@bff0000000000000
	vmovsd	xmm1, QWORD PTR __real@412e848000000000
	vmovsd	xmm2, QWORD PTR __real@3ff0000000000000
	vxorps	xmm0, xmm0, xmm0
; File c:\program files\autodesk\3ds max 2020 sdk\maxsdk\include\color.h

; 103  : 	Color(double R, double G, double B) { r = (float)R; g = (float)G; b = (float)B; }

	vmovss	DWORD PTR [r11-16], xmm0
; File g:\dropbox\github\berconmaps\src\bercongradient.cpp

; 115  : static ParamBlockDesc2 gradientmap_param_blk ( gradientmap_params, _T("params"),  0, &BerconGradientDesc, 

	mov	eax, DWORD PTR [r11-16]
	mov	DWORD PTR [r11-32], eax
	lea	rax, OFFSET FLAT:??_C@_1O@KEKEFEMI@?$AAo?$AAu?$AAt?$AAp?$AAu?$AAt?$AA?$AA@
	mov	QWORD PTR [r11-104], rax
	lea	rax, OFFSET FLAT:??_C@_1M@IFKEOPKH@?$AAd?$AAi?$AAs?$AAO?$AAn?$AA?$AA@
	mov	DWORD PTR [r11-112], 27
	mov	DWORD PTR [r11-120], -1073740800	; ffffffffc0000400H
	mov	DWORD PTR [r11-128], 1063		; 00000427H
	mov	DWORD PTR [rsp+2768], 2
	mov	DWORD PTR [rsp+2760], -1073741821	; ffffffffc0000003H
	mov	QWORD PTR [r11-152], rcx
	mov	DWORD PTR [rsp+2744], -1073741824	; ffffffffc0000000H
	mov	DWORD PTR [rsp+2736], 211		; 000000d3H
	mov	DWORD PTR [r11-176], r10d
	mov	DWORD PTR [rsp+2720], 4
	mov	QWORD PTR [r11-192], rax
	lea	rax, OFFSET FLAT:??_C@_1O@JJJMDNON@?$AAd?$AAi?$AAs?$AAS?$AAt?$AAr?$AA?$AA@
	mov	DWORD PTR [rsp+2704], 26
	mov	DWORD PTR [rsp+2696], -1073740800	; ffffffffc0000400H
	vmovsd	QWORD PTR [rsp+2688], xmm4
	mov	DWORD PTR [rsp+2680], 1062		; 00000426H
	mov	DWORD PTR [rsp+2672], 1020		; 000003fcH
	mov	DWORD PTR [r11-240], r10d
	mov	QWORD PTR [r11-248], rcx
	mov	DWORD PTR [rsp+2648], -1073741821	; ffffffffc0000003H
	vmovsd	QWORD PTR [rsp+2640], xmm1
	vxorpd	xmm3, xmm3, xmm3
	vmovsd	QWORD PTR [rsp+2632], xmm3
	mov	DWORD PTR [rsp+2624], -1073741822	; ffffffffc0000002H
	vmovsd	QWORD PTR [rsp+2616], xmm3
	mov	DWORD PTR [rsp+2608], -1073741824	; ffffffffc0000000H
	mov	DWORD PTR [rsp+2600], 12
	mov	DWORD PTR [r11-312], r10d
	mov	QWORD PTR [r11-320], rcx
	mov	QWORD PTR [r11-328], rax
	lea	rax, OFFSET FLAT:??_C@_1O@DEGOAFKO@?$AAd?$AAi?$AAs?$AAT?$AAe?$AAx?$AA?$AA@
	mov	DWORD PTR [rsp+2568], 25
	mov	DWORD PTR [rsp+2560], -1073740800	; ffffffffc0000400H
	mov	DWORD PTR [rsp+2552], 1061		; 00000425H
	mov	DWORD PTR [rsp+2544], 8
	mov	DWORD PTR [rsp+2536], -1073741821	; ffffffffc0000003H
	mov	DWORD PTR [rsp+2528], 2
	mov	DWORD PTR [rsp+2520], -1073741816	; ffffffffc0000008H
	mov	DWORD PTR [rsp+2512], 7
	mov	DWORD PTR [rsp+2504], -1073741817	; ffffffffc0000007H
	mov	DWORD PTR [rsp+2496], 13
	mov	DWORD PTR [rsp+2488], 512		; 00000200H
	mov	DWORD PTR [rsp+2480], 15
	mov	QWORD PTR [r11-432], rax
	mov	DWORD PTR [rsp+2464], 24
	mov	DWORD PTR [rsp+2456], -1073740800	; ffffffffc0000400H
	vmovsd	QWORD PTR [rsp+2448], xmm4
	mov	DWORD PTR [rsp+2440], 1055		; 0000041fH
	mov	DWORD PTR [rsp+2432], 1019		; 000003fbH
	mov	DWORD PTR [r11-480], r10d
	mov	QWORD PTR [r11-488], rcx
	mov	DWORD PTR [rsp+2408], -1073741821	; ffffffffc0000003H
	vmovsd	QWORD PTR [rsp+2400], xmm1
	vmovsd	QWORD PTR [rsp+2392], xmm2
	mov	DWORD PTR [rsp+2384], -1073741822	; ffffffffc0000002H
	vunpcklps xmm0, xmm0, xmm0
	vmovsd	QWORD PTR [r11-40], xmm0
	vmovsd	xmm0, QWORD PTR __real@3ff99999a0000000
	vmovsd	QWORD PTR [rsp+2376], xmm0
	mov	DWORD PTR [rsp+2368], -1073741824	; ffffffffc0000000H
	mov	DWORD PTR [rsp+2360], 210		; 000000d2H
	mov	DWORD PTR [r11-552], r10d
	lea	rax, OFFSET FLAT:??_C@_17DDAFIGMA@?$AAI?$AAO?$AAR?$AA?$AA@
	mov	QWORD PTR [r11-560], rcx
	mov	QWORD PTR [r11-568], rax
	lea	rax, OFFSET FLAT:??_C@_1BO@EBFBJNKF@?$AAn?$AAo?$AAr?$AAm?$AAa?$AAl?$AAF?$AAu?$AAn?$AAc?$AAt?$AAi?$AAo?$AAn?$AA?$AA@
	mov	DWORD PTR [rsp+2328], 21
	mov	DWORD PTR [rsp+2320], -1073740800	; ffffffffc0000400H
	mov	QWORD PTR [r11-592], rcx
	mov	DWORD PTR [rsp+2304], 1060		; 00000424H
	mov	DWORD PTR [rsp+2296], 13
	mov	DWORD PTR [rsp+2288], -1073741821	; ffffffffc0000003H
	mov	QWORD PTR [r11-624], rcx
	mov	DWORD PTR [rsp+2272], -1073741824	; ffffffffc0000000H
	mov	DWORD PTR [rsp+2264], 209		; 000000d1H
	mov	DWORD PTR [r11-648], r10d
	mov	DWORD PTR [r11-656], r10d
	mov	QWORD PTR [r11-664], rax
	lea	rax, OFFSET FLAT:??_C@_1BG@EJCJNKBN@?$AAn?$AAo?$AAr?$AAm?$AAa?$AAl?$AAT?$AAy?$AAp?$AAe?$AA?$AA@
	mov	DWORD PTR [rsp+2232], 20
	mov	DWORD PTR [rsp+2224], -1073740800	; ffffffffc0000400H
	mov	QWORD PTR [r11-688], rcx
	mov	DWORD PTR [rsp+2208], 1059		; 00000423H
	mov	DWORD PTR [rsp+2200], 13
	mov	DWORD PTR [rsp+2192], -1073741821	; ffffffffc0000003H
	mov	QWORD PTR [r11-720], rcx
	mov	DWORD PTR [rsp+2176], -1073741824	; ffffffffc0000000H
	mov	DWORD PTR [rsp+2168], 208		; 000000d0H
	mov	DWORD PTR [r11-744], r10d
	mov	DWORD PTR [r11-752], r10d
	mov	QWORD PTR [r11-760], rax
	lea	rax, OFFSET FLAT:??_C@_1BI@JFBEDJBF@?$AAg?$AAr?$AAa?$AAd?$AAi?$AAe?$AAn?$AAt?$AAU?$AAV?$AAW?$AA?$AA@
	mov	DWORD PTR [rsp+2136], 19
	mov	DWORD PTR [rsp+2128], -1073740800	; ffffffffc0000400H
	mov	QWORD PTR [r11-784], rcx
	mov	DWORD PTR [rsp+2112], 1058		; 00000422H
	mov	DWORD PTR [rsp+2104], 13
	mov	DWORD PTR [rsp+2096], -1073741821	; ffffffffc0000003H
	mov	QWORD PTR [r11-816], rcx
	mov	DWORD PTR [rsp+2080], -1073741824	; ffffffffc0000000H
	mov	DWORD PTR [rsp+2072], 207		; 000000cfH
	mov	DWORD PTR [r11-840], r10d
	mov	DWORD PTR [r11-848], r10d
	mov	QWORD PTR [r11-856], rax
	lea	rax, OFFSET FLAT:??_C@_1BE@KCENDKIA@?$AAr?$AAa?$AAn?$AAg?$AAe?$AAL?$AAo?$AAo?$AAp?$AA?$AA@
	mov	DWORD PTR [rsp+2040], 18
	mov	DWORD PTR [rsp+2032], -1073740800	; ffffffffc0000400H
	vmovsd	xmm0, QWORD PTR __real@c12e848000000000
	mov	QWORD PTR [r11-880], rcx
	mov	DWORD PTR [rsp+2016], 1077		; 00000435H
	mov	DWORD PTR [rsp+2008], 13
	mov	DWORD PTR [rsp+2000], -1073741821	; ffffffffc0000003H
	mov	QWORD PTR [r11-912], rcx
	mov	DWORD PTR [rsp+1984], -1073741824	; ffffffffc0000000H
	mov	DWORD PTR [rsp+1976], 206		; 000000ceH
	mov	DWORD PTR [r11-936], r10d
	mov	DWORD PTR [r11-944], r10d
	mov	QWORD PTR [r11-952], rax
	lea	rax, OFFSET FLAT:??_C@_1BC@DAIIMAMF@?$AAr?$AAa?$AAn?$AAg?$AAe?$AAM?$AAa?$AAx?$AA?$AA@
	mov	DWORD PTR [rsp+1944], 17
	mov	DWORD PTR [rsp+1936], -1073740800	; ffffffffc0000400H
	vmovsd	QWORD PTR [rsp+1928], xmm4
	mov	DWORD PTR [rsp+1920], 1053		; 0000041dH
	mov	DWORD PTR [rsp+1912], 1018		; 000003faH
	mov	DWORD PTR [r11-1000], r10d
	mov	QWORD PTR [r11-1008], rcx
	mov	DWORD PTR [rsp+1888], -1073741821	; ffffffffc0000003H
	vmovsd	QWORD PTR [rsp+1880], xmm1
	vmovsd	QWORD PTR [rsp+1872], xmm0
	mov	DWORD PTR [rsp+1864], -1073741822	; ffffffffc0000002H
	vmovsd	QWORD PTR [rsp+1856], xmm2
	mov	DWORD PTR [rsp+1848], -1073741824	; ffffffffc0000000H
	mov	DWORD PTR [rsp+1840], 168		; 000000a8H
	mov	DWORD PTR [r11-1072], r10d
	mov	QWORD PTR [r11-1080], rcx
	mov	QWORD PTR [r11-1088], rax
	mov	DWORD PTR [rsp+1808], 16
	mov	DWORD PTR [rsp+1800], -1073740800	; ffffffffc0000400H
	vmovsd	QWORD PTR [rsp+1792], xmm4
	mov	DWORD PTR [rsp+1784], 1052		; 0000041cH
	mov	DWORD PTR [rsp+1776], 1016		; 000003f8H
	mov	DWORD PTR [r11-1136], r10d
	mov	QWORD PTR [r11-1144], rcx
	lea	rax, OFFSET FLAT:??_C@_1BC@KJKJEKOL@?$AAr?$AAa?$AAn?$AAg?$AAe?$AAM?$AAi?$AAn?$AA?$AA@
	mov	DWORD PTR [rsp+1752], -1073741821	; ffffffffc0000003H
	vmovsd	QWORD PTR [rsp+1744], xmm1
	vmovsd	QWORD PTR [rsp+1736], xmm0
	mov	DWORD PTR [rsp+1728], -1073741822	; ffffffffc0000002H
	vmovsd	QWORD PTR [rsp+1720], xmm3
	mov	DWORD PTR [rsp+1712], -1073741824	; ffffffffc0000000H
	mov	DWORD PTR [rsp+1704], 167		; 000000a7H
	mov	DWORD PTR [r11-1208], r10d
	mov	QWORD PTR [r11-1216], rcx
	mov	QWORD PTR [r11-1224], rax
	lea	rax, OFFSET FLAT:??_C@_1BG@NOPEHBND@?$AAr?$AAa?$AAn?$AAd?$AAB?$AAy?$AAT?$AAi?$AAl?$AAe?$AA?$AA@
	mov	DWORD PTR [rsp+1672], 15
	mov	DWORD PTR [rsp+1664], -1073740800	; ffffffffc0000400H
	mov	DWORD PTR [rsp+1656], 1035		; 0000040bH
	mov	DWORD PTR [rsp+1648], 2
	mov	DWORD PTR [rsp+1640], -1073741821	; ffffffffc0000003H
	mov	DWORD PTR [r11-1272], r10d
	mov	DWORD PTR [rsp+1624], -1073741824	; ffffffffc0000000H
	mov	DWORD PTR [rsp+1616], 166		; 000000a6H
	mov	DWORD PTR [r11-1296], r10d
	mov	DWORD PTR [rsp+1600], 4
	mov	QWORD PTR [r11-1312], rax
	lea	rax, OFFSET FLAT:??_C@_1BE@PALBIMHK@?$AAr?$AAa?$AAn?$AAd?$AAB?$AAy?$AAP?$AAa?$AAr?$AA?$AA@
	mov	DWORD PTR [rsp+1584], 14
	mov	DWORD PTR [rsp+1576], -1073740800	; ffffffffc0000400H
	mov	DWORD PTR [rsp+1568], 1034		; 0000040aH
	mov	DWORD PTR [rsp+1560], 2
	mov	DWORD PTR [rsp+1552], -1073741821	; ffffffffc0000003H
	mov	DWORD PTR [r11-1360], r10d
	mov	DWORD PTR [rsp+1536], -1073741824	; ffffffffc0000000H
	mov	DWORD PTR [rsp+1528], 166		; 000000a6H
	mov	DWORD PTR [r11-1384], r10d
	mov	DWORD PTR [rsp+1512], 4
	mov	QWORD PTR [r11-1400], rax
	lea	rax, OFFSET FLAT:??_C@_1BE@EGBDKCCD@?$AAr?$AAa?$AAn?$AAd?$AAB?$AAy?$AAO?$AAb?$AAj?$AA?$AA@
	mov	DWORD PTR [rsp+1496], 13
	mov	DWORD PTR [rsp+1488], -1073740800	; ffffffffc0000400H
	mov	DWORD PTR [rsp+1480], 1033		; 00000409H
	mov	DWORD PTR [rsp+1472], 2
	mov	DWORD PTR [rsp+1464], -1073741821	; ffffffffc0000003H
	mov	DWORD PTR [r11-1448], r10d
	mov	DWORD PTR [rsp+1448], -1073741824	; ffffffffc0000000H
	mov	DWORD PTR [rsp+1440], 165		; 000000a5H
	mov	DWORD PTR [r11-1472], r10d
	mov	DWORD PTR [rsp+1424], 4
	mov	QWORD PTR [r11-1488], rax
	lea	rax, OFFSET FLAT:??_C@_1BE@DCGEPHFM@?$AAr?$AAa?$AAn?$AAd?$AAB?$AAy?$AAM?$AAa?$AAt?$AA?$AA@
	mov	DWORD PTR [rsp+1408], 12
	mov	DWORD PTR [rsp+1400], -1073740800	; ffffffffc0000400H
	mov	DWORD PTR [rsp+1392], 1051		; 0000041bH
	mov	DWORD PTR [rsp+1384], 2
	mov	DWORD PTR [rsp+1376], -1073741821	; ffffffffc0000003H
	mov	DWORD PTR [r11-1536], r10d
	mov	DWORD PTR [rsp+1360], -1073741824	; ffffffffc0000000H
	mov	DWORD PTR [rsp+1352], 164		; 000000a4H
	mov	DWORD PTR [r11-1560], r10d
	mov	DWORD PTR [rsp+1336], 4
	mov	QWORD PTR [r11-1576], rax
	lea	rax, OFFSET FLAT:??_C@_19HFHNPJHA@?$AAs?$AAe?$AAe?$AAd?$AA?$AA@
	mov	DWORD PTR [rsp+1320], 11
	mov	DWORD PTR [rsp+1312], -1073740800	; ffffffffc0000400H
	vmovsd	QWORD PTR [rsp+1304], xmm4
	mov	DWORD PTR [rsp+1296], 1017		; 000003f9H
	mov	DWORD PTR [rsp+1288], 1015		; 000003f7H
	mov	QWORD PTR [r11-1624], rcx
	mov	QWORD PTR [r11-1632], rcx
	mov	DWORD PTR [rsp+1264], -1073741821	; ffffffffc0000003H
	mov	DWORD PTR [rsp+1256], 99999		; 0001869fH
	mov	DWORD PTR [r11-1656], r10d
	mov	DWORD PTR [rsp+1240], -1073741822	; ffffffffc0000002H
	mov	DWORD PTR [rsp+1232], 12345		; 00003039H
	mov	DWORD PTR [rsp+1224], -1073741824	; ffffffffc0000000H
	mov	DWORD PTR [rsp+1216], 50		; 00000032H
	mov	DWORD PTR [r11-1696], r10d
	mov	DWORD PTR [r11-1704], r10d
	mov	QWORD PTR [r11-1712], rax
	mov	DWORD PTR [rsp+1184], 10
	mov	DWORD PTR [rsp+1176], -1073740800	; ffffffffc0000400H
	mov	DWORD PTR [rsp+1168], 1076		; 00000434H
	mov	DWORD PTR [rsp+1160], 2
	lea	rax, OFFSET FLAT:??_C@_1BA@NAHOMGAH@?$AAr?$AAe?$AAv?$AAe?$AAr?$AAs?$AAe?$AA?$AA@
	mov	DWORD PTR [rsp+1152], -1073741821	; ffffffffc0000003H
	mov	QWORD PTR [r11-1760], rcx
	mov	DWORD PTR [rsp+1136], -1073741824	; ffffffffc0000000H
	mov	DWORD PTR [rsp+1128], 205		; 000000cdH
	mov	DWORD PTR [r11-1784], r10d
	mov	DWORD PTR [rsp+1112], 4
	mov	QWORD PTR [r11-1800], rax
	lea	rax, OFFSET FLAT:??_C@_1BM@LCNPDDBK@?$AAi?$AAn?$AAt?$AAe?$AAr?$AAp?$AAo?$AAl?$AAa?$AAt?$AAi?$AAo?$AAn?$AA?$AA@
	mov	DWORD PTR [rsp+1096], 9
	mov	DWORD PTR [rsp+1088], -1073740800	; ffffffffc0000400H
	mov	QWORD PTR [r11-1824], rcx
	mov	DWORD PTR [rsp+1072], 1054		; 0000041eH
	mov	DWORD PTR [rsp+1064], 13
	mov	DWORD PTR [rsp+1056], -1073741821	; ffffffffc0000003H
	mov	QWORD PTR [r11-1856], rcx
	mov	DWORD PTR [rsp+1040], -1073741824	; ffffffffc0000000H
	mov	DWORD PTR [rsp+1032], 163		; 000000a3H
	mov	DWORD PTR [r11-1880], r10d
	mov	DWORD PTR [r11-1888], r10d
	mov	QWORD PTR [r11-1896], rax
	lea	rax, OFFSET FLAT:??_C@_19FHBCDCCA@?$AAt?$AAy?$AAp?$AAe?$AA?$AA@
	mov	DWORD PTR [rsp+1000], 8
	mov	DWORD PTR [rsp+992], -1073740800	; ffffffffc0000400H
	mov	QWORD PTR [r11-1920], rcx
	mov	DWORD PTR [rsp+976], 1050		; 0000041aH
	mov	DWORD PTR [rsp+968], 13
	mov	DWORD PTR [rsp+960], -1073741821	; ffffffffc0000003H
	mov	QWORD PTR [r11-1952], rcx
	mov	DWORD PTR [rsp+944], -1073741824	; ffffffffc0000000H
	mov	DWORD PTR [rsp+936], 162		; 000000a2H
	mov	DWORD PTR [r11-1976], r10d
	mov	DWORD PTR [r11-1984], r10d
	mov	QWORD PTR [r11-1992], rax
	lea	rax, QWORD PTR [r11-40]
	mov	DWORD PTR [rsp+904], 7
	mov	DWORD PTR [rsp+896], -1073740800	; ffffffffc0000400H
	mov	DWORD PTR [rsp+888], 1045		; 00000415H
	mov	DWORD PTR [rsp+880], 4
	mov	DWORD PTR [rsp+872], -1073741821	; ffffffffc0000003H
	mov	QWORD PTR [r11-2040], rax
	lea	rax, OFFSET FLAT:??_C@_1O@HIEMLHIM@?$AAk?$AAe?$AAy?$AAC?$AAo?$AAl?$AA?$AA@
	mov	DWORD PTR [rsp+856], -1073741824	; ffffffffc0000000H
	mov	DWORD PTR [rsp+848], 161		; 000000a1H
	mov	DWORD PTR [rsp+840], 2
	mov	DWORD PTR [rsp+832], 2
	mov	QWORD PTR [r11-2080], rax
	lea	rax, OFFSET FLAT:??_C@_1O@ICACMGIN@?$AAk?$AAe?$AAy?$AAP?$AAo?$AAs?$AA?$AA@
	mov	DWORD PTR [rsp+816], 4
	mov	DWORD PTR [rsp+808], -1073740800	; ffffffffc0000400H
	vmovsd	QWORD PTR [rsp+800], xmm4
	mov	DWORD PTR [rsp+792], 1047		; 00000417H
	mov	DWORD PTR [rsp+784], 1046		; 00000416H
	mov	DWORD PTR [r11-2128], r10d
	mov	QWORD PTR [r11-2136], rcx
	mov	DWORD PTR [rsp+760], -1073741821	; ffffffffc0000003H
	vmovsd	QWORD PTR [rsp+752], xmm2
	vmovsd	QWORD PTR [rsp+744], xmm3
	mov	DWORD PTR [rsp+736], -1073741822	; ffffffffc0000002H
	vmovsd	QWORD PTR [rsp+728], xmm3
	mov	DWORD PTR [rsp+720], -1073741824	; ffffffffc0000000H
	mov	DWORD PTR [rsp+712], 160		; 000000a0H
	mov	DWORD PTR [rsp+704], 2
	mov	QWORD PTR [r11-2208], rcx
	mov	QWORD PTR [r11-2216], rax
	mov	DWORD PTR [rsp+680], 5
	mov	DWORD PTR [rsp+672], -1073740800	; ffffffffc0000400H
	vmovsd	QWORD PTR [rsp+664], xmm4
	mov	DWORD PTR [rsp+656], 1049		; 00000419H
	mov	DWORD PTR [rsp+648], 1048		; 00000418H
	mov	QWORD PTR [r11-2264], rcx
	mov	QWORD PTR [r11-2272], rcx
	mov	DWORD PTR [rsp+624], -1073741821	; ffffffffc0000003H
	mov	DWORD PTR [rsp+616], 100000		; 000186a0H
	mov	QWORD PTR [r11-2296], rcx
	mov	DWORD PTR [rsp+600], -1073741822	; ffffffffc0000002H
	mov	QWORD PTR [r11-2312], rcx
	mov	DWORD PTR [rsp+584], -1073741824	; ffffffffc0000000H
	mov	DWORD PTR [rsp+576], 159		; 0000009fH
	mov	DWORD PTR [rsp+568], 2
	mov	DWORD PTR [r11-2344], r10d
	lea	rax, OFFSET FLAT:??_C@_1O@PJLIOEMF@?$AAk?$AAe?$AAy?$AAN?$AAu?$AAm?$AA?$AA@
	mov	QWORD PTR [r11-2352], rax
	lea	r8, OFFSET FLAT:??_C@_1O@FEMBPDGM@?$AAp?$AAa?$AAr?$AAa?$AAm?$AAs?$AA?$AA@
	mov	DWORD PTR [rsp+544], edx
	lea	rax, OFFSET FLAT:??_C@_1O@HANCGMBA@?$AAk?$AAe?$AAy?$AAT?$AAe?$AAx?$AA?$AA@
	mov	DWORD PTR [rsp+536], -1073740800	; ffffffffc0000400H
	xor	r9d, r9d
	mov	DWORD PTR [rsp+528], 1044		; 00000414H
	mov	DWORD PTR [rsp+520], 8
	mov	DWORD PTR [rsp+512], -1073741821	; ffffffffc0000003H
	mov	DWORD PTR [r11-2400], r10d
	mov	DWORD PTR [rsp+496], -1073741816	; ffffffffc0000008H
	mov	DWORD PTR [rsp+488], edx
	mov	DWORD PTR [rsp+480], -1073741817	; ffffffffc0000007H
	mov	DWORD PTR [rsp+472], 158		; 0000009eH
	mov	DWORD PTR [rsp+464], 530		; 00000212H
	mov	DWORD PTR [rsp+456], 15
	mov	QWORD PTR [r11-2456], rax
	lea	rax, OFFSET FLAT:??_C@_1BE@LCHIGCIO@?$AAp?$AAo?$AAs?$AAi?$AAt?$AAi?$AAo?$AAn?$AAs?$AA?$AA@
	mov	DWORD PTR [rsp+440], 3
	mov	DWORD PTR [rsp+432], -1073740800	; ffffffffc0000400H
	mov	DWORD PTR [rsp+424], 157		; 0000009dH
	mov	DWORD PTR [rsp+416], 4097		; 00001001H
	mov	QWORD PTR [r11-2496], rcx
	mov	DWORD PTR [rsp+400], 2048		; 00000800H
	mov	QWORD PTR [r11-2512], rax
	lea	rax, OFFSET FLAT:??_C@_1O@HJEOCKOC@?$AAc?$AAo?$AAl?$AAo?$AAr?$AAs?$AA?$AA@
	mov	DWORD PTR [rsp+384], 2
	mov	DWORD PTR [rsp+376], -1073740800	; ffffffffc0000400H
	mov	DWORD PTR [rsp+368], 156		; 0000009cH
	mov	DWORD PTR [rsp+360], 4097		; 00001001H
	mov	QWORD PTR [r11-2552], rcx
	mov	DWORD PTR [rsp+344], 2071		; 00000817H
	mov	QWORD PTR [r11-2568], rax
	lea	rax, OFFSET FLAT:??_C@_1BA@FLPLBKI@?$AAs?$AAu?$AAb?$AAm?$AAa?$AAp?$AAs?$AA?$AA@
	mov	DWORD PTR [r11-2576], r10d
	mov	DWORD PTR [rsp+320], -1073740800	; ffffffffc0000400H
	mov	DWORD PTR [rsp+312], 146		; 00000092H
	mov	DWORD PTR [rsp+304], 4160		; 00001040H
	mov	QWORD PTR [r11-2608], rcx
	mov	DWORD PTR [rsp+288], 2063		; 0000080fH
	mov	QWORD PTR [r11-2624], rax
	lea	rax, OFFSET FLAT:??_C@_19EFANFLCA@?$AAn?$AAo?$AAd?$AAe?$AA?$AA@
	mov	QWORD PTR [r11-2632], rcx
	mov	DWORD PTR [rsp+264], -1073740800	; ffffffffc0000400H
	mov	DWORD PTR [rsp+256], 1057		; 00000421H
	mov	DWORD PTR [rsp+248], 7
	mov	DWORD PTR [rsp+240], -1073741821	; ffffffffc0000003H
	mov	DWORD PTR [rsp+232], 204		; 000000ccH
	mov	QWORD PTR [r11-2680], rcx
	mov	DWORD PTR [rsp+216], 17
	mov	QWORD PTR [r11-2696], rax
	lea	rax, OFFSET FLAT:??_C@_1O@HHADDHBD@?$AAm?$AAa?$AAp?$AAT?$AAe?$AAx?$AA?$AA@
	mov	DWORD PTR [rsp+200], 22
	mov	DWORD PTR [rsp+192], -1073740800	; ffffffffc0000400H
	mov	DWORD PTR [rsp+184], 1056		; 00000420H
	mov	DWORD PTR [rsp+176], 8
	mov	DWORD PTR [rsp+168], -1073741821	; ffffffffc0000003H
	mov	QWORD PTR [r11-2744], rcx
	mov	DWORD PTR [rsp+152], -1073741816	; ffffffffc0000008H
	mov	DWORD PTR [rsp+144], 5
	mov	DWORD PTR [rsp+136], -1073741817	; ffffffffc0000007H
	mov	DWORD PTR [rsp+128], 203		; 000000cbH
	mov	DWORD PTR [rsp+120], 512		; 00000200H
	mov	DWORD PTR [rsp+112], 15
	mov	QWORD PTR [rsp+104], rax
	lea	rax, OFFSET FLAT:?BerconGradientDesc@@3VBerconGradientClassDesc@@A
	mov	DWORD PTR [rsp+96], 23
	mov	QWORD PTR [rsp+88], rcx
	mov	QWORD PTR [rsp+80], rcx
	mov	QWORD PTR [rsp+72], rcx
	lea	rcx, OFFSET FLAT:?gradientmap_param_blk@@3VParamBlockDesc2@@A
	mov	DWORD PTR [rsp+64], 4
	mov	DWORD PTR [rsp+56], 109			; 0000006dH
	mov	DWORD PTR [rsp+48], r10d
	mov	WORD PTR [rsp+40], dx
	movsx	edx, r10w
	mov	QWORD PTR [rsp+32], rax
	call	QWORD PTR __imp_??0ParamBlockDesc2@@QEAA@FPEB_W_JPEAVClassDesc2@@GZZ
	lea	rcx, OFFSET FLAT:??__Fgradientmap_param_blk@@YAXXZ ; `dynamic atexit destructor for 'gradientmap_param_blk''
	add	rsp, 2904				; 00000b58H
	jmp	atexit
??__Egradientmap_param_blk@@YAXXZ ENDP			; `dynamic initializer for 'gradientmap_param_blk''
text$di	ENDS
; Function compile flags: /Ogtp
;	COMDAT ??__Fxyz_blk@@YAXXZ
text$yd	SEGMENT
$T1 = 32
??__Fxyz_blk@@YAXXZ PROC				; `dynamic atexit destructor for 'xyz_blk'', COMDAT
	sub	rsp, 56					; 00000038H
	mov	QWORD PTR $T1[rsp], -2
	lea	rcx, OFFSET FLAT:?xyz_blk@@3VXYZ_Desc@@A
	add	rsp, 56					; 00000038H
	rex_jmp	QWORD PTR __imp_??1ParamBlockDesc2@@UEAA@XZ
??__Fxyz_blk@@YAXXZ ENDP				; `dynamic atexit destructor for 'xyz_blk''
text$yd	ENDS
;	COMDAT text$x
text$x	SEGMENT
$T1 = 32
?dtor$0@?0???__Fxyz_blk@@YAXXZ@4HA PROC			; ``dynamic atexit destructor for 'xyz_blk'''::`1'::dtor$0
	lea	rcx, OFFSET FLAT:?xyz_blk@@3VXYZ_Desc@@A
	rex_jmp	QWORD PTR __imp_??1ParamBlockDesc2@@UEAA@XZ
?dtor$0@?0???__Fxyz_blk@@YAXXZ@4HA ENDP			; ``dynamic atexit destructor for 'xyz_blk'''::`1'::dtor$0
text$x	ENDS
; Function compile flags: /Ogtp
;	COMDAT text$x
text$x	SEGMENT
$T1 = 32
?dtor$0@?0???__Fxyz_blk@@YAXXZ@4HA PROC			; ``dynamic atexit destructor for 'xyz_blk'''::`1'::dtor$0
	lea	rcx, OFFSET FLAT:?xyz_blk@@3VXYZ_Desc@@A
	rex_jmp	QWORD PTR __imp_??1ParamBlockDesc2@@UEAA@XZ
?dtor$0@?0???__Fxyz_blk@@YAXXZ@4HA ENDP			; ``dynamic atexit destructor for 'xyz_blk'''::`1'::dtor$0
text$x	ENDS
; Function compile flags: /Ogtp
; File g:\dropbox\github\berconmaps\src\bercongradient.cpp
;	COMDAT ??__Exyz_blk@@YAXXZ
text$di	SEGMENT
??__Exyz_blk@@YAXXZ PROC				; `dynamic initializer for 'xyz_blk'', COMDAT

; 47   : static XYZ_Desc xyz_blk(&BerconGradientDesc, COORD_REF, xyz_params, 0, 1, 1, 1);

	sub	rsp, 88					; 00000058H
	mov	DWORD PTR [rsp+64], 1
	lea	rdx, OFFSET FLAT:?BerconGradientDesc@@3VBerconGradientClassDesc@@A
	mov	DWORD PTR [rsp+56], 1
	lea	rcx, OFFSET FLAT:?xyz_blk@@3VXYZ_Desc@@A
	mov	DWORD PTR [rsp+48], 1
	xor	r9d, r9d
	mov	DWORD PTR [rsp+40], 1
	xor	r8d, r8d
	mov	DWORD PTR [rsp+32], 0
	call	??0XYZ_Desc@@QEAA@PEAVClassDesc2@@HHHHHHH@Z ; XYZ_Desc::XYZ_Desc
	lea	rcx, OFFSET FLAT:??__Fxyz_blk@@YAXXZ	; `dynamic atexit destructor for 'xyz_blk''
	add	rsp, 88					; 00000058H
	jmp	atexit
??__Exyz_blk@@YAXXZ ENDP				; `dynamic initializer for 'xyz_blk''
text$di	ENDS
; Function compile flags: /Ogtp
; File g:\dropbox\github\berconmaps\src\bercongradient.cpp
;	COMDAT ?GetBerconGradientDesc@@YAPEAVClassDesc2@@XZ
_TEXT	SEGMENT
?GetBerconGradientDesc@@YAPEAVClassDesc2@@XZ PROC	; GetBerconGradientDesc, COMDAT

; 39   : ClassDesc2* GetBerconGradientDesc() { return &BerconGradientDesc; }

	lea	rax, OFFSET FLAT:?BerconGradientDesc@@3VBerconGradientClassDesc@@A
	ret	0
?GetBerconGradientDesc@@YAPEAVClassDesc2@@XZ ENDP	; GetBerconGradientDesc
_TEXT	ENDS
; Function compile flags: /Ogtp
;	COMDAT ??__FBerconGradientDesc@@YAXXZ
text$yd	SEGMENT
$T1 = 32
??__FBerconGradientDesc@@YAXXZ PROC			; `dynamic atexit destructor for 'BerconGradientDesc'', COMDAT
	sub	rsp, 56					; 00000038H
	mov	QWORD PTR $T1[rsp], -2
	lea	rcx, OFFSET FLAT:?BerconGradientDesc@@3VBerconGradientClassDesc@@A
	add	rsp, 56					; 00000038H
	rex_jmp	QWORD PTR __imp_??1ClassDesc2@@UEAA@XZ
??__FBerconGradientDesc@@YAXXZ ENDP			; `dynamic atexit destructor for 'BerconGradientDesc''
text$yd	ENDS
;	COMDAT text$x
text$x	SEGMENT
$T1 = 32
?dtor$0@?0???__FBerconGradientDesc@@YAXXZ@4HA PROC	; ``dynamic atexit destructor for 'BerconGradientDesc'''::`1'::dtor$0
	lea	rcx, OFFSET FLAT:?BerconGradientDesc@@3VBerconGradientClassDesc@@A
	rex_jmp	QWORD PTR __imp_??1ClassDesc2@@UEAA@XZ
?dtor$0@?0???__FBerconGradientDesc@@YAXXZ@4HA ENDP	; ``dynamic atexit destructor for 'BerconGradientDesc'''::`1'::dtor$0
text$x	ENDS
; Function compile flags: /Ogtp
;	COMDAT text$x
text$x	SEGMENT
$T1 = 32
?dtor$0@?0???__FBerconGradientDesc@@YAXXZ@4HA PROC	; ``dynamic atexit destructor for 'BerconGradientDesc'''::`1'::dtor$0
	lea	rcx, OFFSET FLAT:?BerconGradientDesc@@3VBerconGradientClassDesc@@A
	rex_jmp	QWORD PTR __imp_??1ClassDesc2@@UEAA@XZ
?dtor$0@?0???__FBerconGradientDesc@@YAXXZ@4HA ENDP	; ``dynamic atexit destructor for 'BerconGradientDesc'''::`1'::dtor$0
text$x	ENDS
; Function compile flags: /Ogtp
; File g:\dropbox\github\berconmaps\src\bercongradient.cpp
;	COMDAT ??__EBerconGradientDesc@@YAXXZ
text$di	SEGMENT
$T1 = 32
??__EBerconGradientDesc@@YAXXZ PROC			; `dynamic initializer for 'BerconGradientDesc'', COMDAT

; 38   : static BerconGradientClassDesc BerconGradientDesc;

	sub	rsp, 56					; 00000038H
	mov	QWORD PTR $T1[rsp], -2
	lea	rcx, OFFSET FLAT:?BerconGradientDesc@@3VBerconGradientClassDesc@@A
	call	QWORD PTR __imp_??0ClassDesc2@@QEAA@XZ
	npad	1
	lea	rax, OFFSET FLAT:??_7BerconGradientClassDesc@@6B@
	mov	QWORD PTR ?BerconGradientDesc@@3VBerconGradientClassDesc@@A, rax
	lea	rcx, OFFSET FLAT:??__FBerconGradientDesc@@YAXXZ ; `dynamic atexit destructor for 'BerconGradientDesc''
	add	rsp, 56					; 00000038H
	jmp	atexit
??__EBerconGradientDesc@@YAXXZ ENDP			; `dynamic initializer for 'BerconGradientDesc''
text$di	ENDS
;	COMDAT text$x
text$x	SEGMENT
$T1 = 32
?dtor$0@?0???__EBerconGradientDesc@@YAXXZ@4HA PROC	; ``dynamic initializer for 'BerconGradientDesc'''::`1'::dtor$0
	lea	rcx, OFFSET FLAT:?BerconGradientDesc@@3VBerconGradientClassDesc@@A
	rex_jmp	QWORD PTR __imp_??1ClassDesc2@@UEAA@XZ
?dtor$0@?0???__EBerconGradientDesc@@YAXXZ@4HA ENDP	; ``dynamic initializer for 'BerconGradientDesc'''::`1'::dtor$0
text$x	ENDS
; Function compile flags: /Ogtp
;	COMDAT text$x
text$x	SEGMENT
$T1 = 32
?dtor$0@?0???__EBerconGradientDesc@@YAXXZ@4HA PROC	; ``dynamic initializer for 'BerconGradientDesc'''::`1'::dtor$0
	lea	rcx, OFFSET FLAT:?BerconGradientDesc@@3VBerconGradientClassDesc@@A
	rex_jmp	QWORD PTR __imp_??1ClassDesc2@@UEAA@XZ
?dtor$0@?0???__EBerconGradientDesc@@YAXXZ@4HA ENDP	; ``dynamic initializer for 'BerconGradientDesc'''::`1'::dtor$0
text$x	ENDS
; Function compile flags: /Ogtp
;	COMDAT ??_GBerconGradientClassDesc@@UEAAPEAXI@Z
_TEXT	SEGMENT
$T1 = 32
this$ = 64
__flags$ = 72
??_GBerconGradientClassDesc@@UEAAPEAXI@Z PROC		; BerconGradientClassDesc::`scalar deleting destructor', COMDAT
$LN11:
	mov	QWORD PTR [rsp+8], rcx
	push	rdi
	sub	rsp, 48					; 00000030H
	mov	QWORD PTR $T1[rsp], -2
	mov	QWORD PTR [rsp+72], rbx
	mov	edi, edx
	mov	rbx, rcx
	call	QWORD PTR __imp_??1ClassDesc2@@UEAA@XZ
	npad	1
	test	dil, 1
	je	SHORT $LN10@scalar
	mov	rcx, rbx
	test	dil, 4
	jne	SHORT $LN3@scalar
	call	QWORD PTR __imp_??3MaxHeapOperators@@SAXPEAX@Z
	npad	1
	jmp	SHORT $LN10@scalar
$LN3@scalar:
	mov	edx, 80					; 00000050H
	call	?__global_delete@@YAXPEAX_K@Z		; __global_delete
	npad	1
$LN10@scalar:
	mov	rax, rbx
	mov	rbx, QWORD PTR [rsp+72]
	add	rsp, 48					; 00000030H
	pop	rdi
	ret	0
??_GBerconGradientClassDesc@@UEAAPEAXI@Z ENDP		; BerconGradientClassDesc::`scalar deleting destructor'
_TEXT	ENDS
;	COMDAT text$x
text$x	SEGMENT
$T1 = 32
this$ = 64
__flags$ = 72
?dtor$0@?0???_GBerconGradientClassDesc@@UEAAPEAXI@Z@4HA PROC ; `BerconGradientClassDesc::`scalar deleting destructor''::`1'::dtor$0
	mov	rcx, QWORD PTR this$[rdx]
	rex_jmp	QWORD PTR __imp_??1ClassDesc2@@UEAA@XZ
?dtor$0@?0???_GBerconGradientClassDesc@@UEAAPEAXI@Z@4HA ENDP ; `BerconGradientClassDesc::`scalar deleting destructor''::`1'::dtor$0
text$x	ENDS
; Function compile flags: /Ogtp
;	COMDAT text$x
text$x	SEGMENT
$T1 = 32
this$ = 64
__flags$ = 72
?dtor$0@?0???_GBerconGradientClassDesc@@UEAAPEAXI@Z@4HA PROC ; `BerconGradientClassDesc::`scalar deleting destructor''::`1'::dtor$0
	mov	rcx, QWORD PTR this$[rdx]
	rex_jmp	QWORD PTR __imp_??1ClassDesc2@@UEAA@XZ
?dtor$0@?0???_GBerconGradientClassDesc@@UEAAPEAXI@Z@4HA ENDP ; `BerconGradientClassDesc::`scalar deleting destructor''::`1'::dtor$0
text$x	ENDS
; Function compile flags: /Ogtp
;	COMDAT ??1BerconGradientClassDesc@@UEAA@XZ
_TEXT	SEGMENT
$T1 = 32
this$ = 64
??1BerconGradientClassDesc@@UEAA@XZ PROC		; BerconGradientClassDesc::~BerconGradientClassDesc, COMDAT
$LN4:
	mov	QWORD PTR [rsp+8], rcx
	sub	rsp, 56					; 00000038H
	mov	QWORD PTR $T1[rsp], -2
	add	rsp, 56					; 00000038H
	rex_jmp	QWORD PTR __imp_??1ClassDesc2@@UEAA@XZ
??1BerconGradientClassDesc@@UEAA@XZ ENDP		; BerconGradientClassDesc::~BerconGradientClassDesc
_TEXT	ENDS
;	COMDAT text$x
text$x	SEGMENT
$T1 = 32
this$ = 64
?dtor$0@?0???1BerconGradientClassDesc@@UEAA@XZ@4HA PROC	; `BerconGradientClassDesc::~BerconGradientClassDesc'::`1'::dtor$0
	mov	rcx, QWORD PTR this$[rdx]
	rex_jmp	QWORD PTR __imp_??1ClassDesc2@@UEAA@XZ
?dtor$0@?0???1BerconGradientClassDesc@@UEAA@XZ@4HA ENDP	; `BerconGradientClassDesc::~BerconGradientClassDesc'::`1'::dtor$0
text$x	ENDS
; Function compile flags: /Ogtp
;	COMDAT text$x
text$x	SEGMENT
$T1 = 32
this$ = 64
?dtor$0@?0???1BerconGradientClassDesc@@UEAA@XZ@4HA PROC	; `BerconGradientClassDesc::~BerconGradientClassDesc'::`1'::dtor$0
	mov	rcx, QWORD PTR this$[rdx]
	rex_jmp	QWORD PTR __imp_??1ClassDesc2@@UEAA@XZ
?dtor$0@?0???1BerconGradientClassDesc@@UEAA@XZ@4HA ENDP	; `BerconGradientClassDesc::~BerconGradientClassDesc'::`1'::dtor$0
text$x	ENDS
; Function compile flags: /Ogtp
;	COMDAT ??0BerconGradientClassDesc@@QEAA@XZ
_TEXT	SEGMENT
$T1 = 32
this$ = 64
??0BerconGradientClassDesc@@QEAA@XZ PROC		; BerconGradientClassDesc::BerconGradientClassDesc, COMDAT
$LN4:
	mov	QWORD PTR [rsp+8], rcx
	push	rbx
	sub	rsp, 48					; 00000030H
	mov	QWORD PTR $T1[rsp], -2
	mov	rbx, rcx
	call	QWORD PTR __imp_??0ClassDesc2@@QEAA@XZ
	npad	1
	lea	rax, OFFSET FLAT:??_7BerconGradientClassDesc@@6B@
	mov	QWORD PTR [rbx], rax
	mov	rax, rbx
	add	rsp, 48					; 00000030H
	pop	rbx
	ret	0
??0BerconGradientClassDesc@@QEAA@XZ ENDP		; BerconGradientClassDesc::BerconGradientClassDesc
_TEXT	ENDS
;	COMDAT text$x
text$x	SEGMENT
$T1 = 32
this$ = 64
?dtor$0@?0???0BerconGradientClassDesc@@QEAA@XZ@4HA PROC	; `BerconGradientClassDesc::BerconGradientClassDesc'::`1'::dtor$0
	mov	rcx, QWORD PTR this$[rdx]
	rex_jmp	QWORD PTR __imp_??1ClassDesc2@@UEAA@XZ
?dtor$0@?0???0BerconGradientClassDesc@@QEAA@XZ@4HA ENDP	; `BerconGradientClassDesc::BerconGradientClassDesc'::`1'::dtor$0
text$x	ENDS
; Function compile flags: /Ogtp
;	COMDAT text$x
text$x	SEGMENT
$T1 = 32
this$ = 64
?dtor$0@?0???0BerconGradientClassDesc@@QEAA@XZ@4HA PROC	; `BerconGradientClassDesc::BerconGradientClassDesc'::`1'::dtor$0
	mov	rcx, QWORD PTR this$[rdx]
	rex_jmp	QWORD PTR __imp_??1ClassDesc2@@UEAA@XZ
?dtor$0@?0???0BerconGradientClassDesc@@QEAA@XZ@4HA ENDP	; `BerconGradientClassDesc::BerconGradientClassDesc'::`1'::dtor$0
text$x	ENDS
; Function compile flags: /Ogtp
; File g:\dropbox\github\berconmaps\src\bercongradient.h
;	COMDAT ?HInstance@BerconGradientClassDesc@@UEAAPEAUHINSTANCE__@@XZ
_TEXT	SEGMENT
this$ = 8
?HInstance@BerconGradientClassDesc@@UEAAPEAUHINSTANCE__@@XZ PROC ; BerconGradientClassDesc::HInstance, COMDAT

; 195  : 	virtual HINSTANCE HInstance() 					{ return hInstance; }

	mov	rax, QWORD PTR ?hInstance@@3PEAUHINSTANCE__@@EA ; hInstance
	ret	0
?HInstance@BerconGradientClassDesc@@UEAAPEAUHINSTANCE__@@XZ ENDP ; BerconGradientClassDesc::HInstance
_TEXT	ENDS
; Function compile flags: /Ogtp
; File g:\dropbox\github\berconmaps\src\bercongradient.h
;	COMDAT ?InternalName@BerconGradientClassDesc@@UEAAPEB_WXZ
_TEXT	SEGMENT
this$ = 8
?InternalName@BerconGradientClassDesc@@UEAAPEB_WXZ PROC	; BerconGradientClassDesc::InternalName, COMDAT

; 194  : 	virtual const TCHAR* InternalName() 			{ return _T("BerconGradient"); } // scripter-visible name

	lea	rax, OFFSET FLAT:??_C@_1BO@EFFEGJBE@?$AAB?$AAe?$AAr?$AAc?$AAo?$AAn?$AAG?$AAr?$AAa?$AAd?$AAi?$AAe?$AAn?$AAt?$AA?$AA@
	ret	0
?InternalName@BerconGradientClassDesc@@UEAAPEB_WXZ ENDP	; BerconGradientClassDesc::InternalName
_TEXT	ENDS
; Function compile flags: /Ogtp
; File g:\dropbox\github\berconmaps\src\bercongradient.h
;	COMDAT ?Category@BerconGradientClassDesc@@UEAAPEB_WXZ
_TEXT	SEGMENT
this$ = 8
?Category@BerconGradientClassDesc@@UEAAPEB_WXZ PROC	; BerconGradientClassDesc::Category, COMDAT

; 193  : 	virtual const TCHAR* Category() 				{ return TEXMAP_CAT_3D; }

	mov	rax, QWORD PTR __imp_?TEXMAP_CAT_3D@@3PA_WA
	ret	0
?Category@BerconGradientClassDesc@@UEAAPEB_WXZ ENDP	; BerconGradientClassDesc::Category
_TEXT	ENDS
; Function compile flags: /Ogtp
; File g:\dropbox\github\berconmaps\src\bercongradient.h
; File c:\program files\autodesk\3ds max 2020 sdk\maxsdk\include\maxtypes.h
; File g:\dropbox\github\berconmaps\src\bercongradient.h
; File c:\program files\autodesk\3ds max 2020 sdk\maxsdk\include\maxtypes.h
; File g:\dropbox\github\berconmaps\src\bercongradient.h
;	COMDAT ?ClassID@BerconGradientClassDesc@@UEAA?AVClass_ID@@XZ
_TEXT	SEGMENT
this$ = 8
__$ReturnUdt$ = 16
?ClassID@BerconGradientClassDesc@@UEAA?AVClass_ID@@XZ PROC ; BerconGradientClassDesc::ClassID, COMDAT
; File c:\program files\autodesk\3ds max 2020 sdk\maxsdk\include\maxtypes.h

; 160  : 	Class_ID(ulong aa, ulong bb) { a = aa; b = bb; }

	mov	DWORD PTR [rdx], 856603678		; 330ebc1eH
; File g:\dropbox\github\berconmaps\src\bercongradient.h

; 192  : 	virtual Class_ID ClassID() 						{ return BerconGradient_CLASS_ID; }

	mov	rax, rdx
; File c:\program files\autodesk\3ds max 2020 sdk\maxsdk\include\maxtypes.h

; 160  : 	Class_ID(ulong aa, ulong bb) { a = aa; b = bb; }

	mov	DWORD PTR [rdx+4], 1355780343		; 50cf90f7H
; File g:\dropbox\github\berconmaps\src\bercongradient.h

; 192  : 	virtual Class_ID ClassID() 						{ return BerconGradient_CLASS_ID; }

	ret	0
?ClassID@BerconGradientClassDesc@@UEAA?AVClass_ID@@XZ ENDP ; BerconGradientClassDesc::ClassID
_TEXT	ENDS
; Function compile flags: /Ogtp
; File g:\dropbox\github\berconmaps\src\bercongradient.h
;	COMDAT ?SuperClassID@BerconGradientClassDesc@@UEAAKXZ
_TEXT	SEGMENT
this$ = 8
?SuperClassID@BerconGradientClassDesc@@UEAAKXZ PROC	; BerconGradientClassDesc::SuperClassID, COMDAT

; 191  : 	virtual SClass_ID SuperClassID() 				{ return TEXMAP_CLASS_ID; }

	mov	eax, 3088				; 00000c10H
	ret	0
?SuperClassID@BerconGradientClassDesc@@UEAAKXZ ENDP	; BerconGradientClassDesc::SuperClassID
_TEXT	ENDS
; Function compile flags: /Ogtp
; File g:\dropbox\github\berconmaps\src\bercongradient.h
;	COMDAT ?ClassName@BerconGradientClassDesc@@UEAAPEB_WXZ
_TEXT	SEGMENT
this$ = 8
?ClassName@BerconGradientClassDesc@@UEAAPEB_WXZ PROC	; BerconGradientClassDesc::ClassName, COMDAT

; 190  : 	virtual const TCHAR *	ClassName() 			{ return GetString(IDS_BERCON_COLOR); }

	mov	ecx, 145				; 00000091H
	jmp	?GetString@@YAPEA_WH@Z			; GetString
?ClassName@BerconGradientClassDesc@@UEAAPEB_WXZ ENDP	; BerconGradientClassDesc::ClassName
_TEXT	ENDS
; Function compile flags: /Ogtp
; File g:\dropbox\github\berconmaps\src\bercongradient.h
;	COMDAT ?Create@BerconGradientClassDesc@@UEAAPEAXH@Z
_TEXT	SEGMENT
$T1 = 32
this$ = 64
__formal$ = 72
$T2 = 80
?Create@BerconGradientClassDesc@@UEAAPEAXH@Z PROC	; BerconGradientClassDesc::Create, COMDAT

; 189  : 	virtual void* Create(BOOL /*loading = FALSE*/) 	{ return new BerconGradient(); }

$LN6:
	sub	rsp, 56					; 00000038H
	mov	QWORD PTR $T1[rsp], -2
	mov	ecx, 584				; 00000248H
	call	QWORD PTR __imp_??2MaxHeapOperators@@SAPEAX_K@Z
	mov	QWORD PTR $T2[rsp], rax
	test	rax, rax
	je	SHORT $LN3@Create
	mov	rcx, rax
	call	??0BerconGradient@@QEAA@XZ		; BerconGradient::BerconGradient
	npad	1
	jmp	SHORT $LN4@Create
$LN3@Create:
	xor	eax, eax
$LN4@Create:
	add	rsp, 56					; 00000038H
	ret	0
?Create@BerconGradientClassDesc@@UEAAPEAXH@Z ENDP	; BerconGradientClassDesc::Create
_TEXT	ENDS
;	COMDAT text$x
text$x	SEGMENT
$T1 = 32
this$ = 64
__formal$ = 72
$T2 = 80
?dtor$0@?0??Create@BerconGradientClassDesc@@UEAAPEAXH@Z@4HA PROC ; `BerconGradientClassDesc::Create'::`1'::dtor$0
	mov	rcx, QWORD PTR $T2[rdx]
	rex_jmp	QWORD PTR __imp_??3MaxHeapOperators@@SAXPEAX@Z
?dtor$0@?0??Create@BerconGradientClassDesc@@UEAAPEAXH@Z@4HA ENDP ; `BerconGradientClassDesc::Create'::`1'::dtor$0
text$x	ENDS
; Function compile flags: /Ogtp
;	COMDAT text$x
text$x	SEGMENT
$T1 = 32
this$ = 64
__formal$ = 72
$T2 = 80
?dtor$0@?0??Create@BerconGradientClassDesc@@UEAAPEAXH@Z@4HA PROC ; `BerconGradientClassDesc::Create'::`1'::dtor$0
	mov	rcx, QWORD PTR $T2[rdx]
	rex_jmp	QWORD PTR __imp_??3MaxHeapOperators@@SAXPEAX@Z
?dtor$0@?0??Create@BerconGradientClassDesc@@UEAAPEAXH@Z@4HA ENDP ; `BerconGradientClassDesc::Create'::`1'::dtor$0
text$x	ENDS
; Function compile flags: /Ogtp
; File g:\dropbox\github\berconmaps\src\bercongradient.h
;	COMDAT ?IsPublic@BerconGradientClassDesc@@UEAAHXZ
_TEXT	SEGMENT
this$ = 8
?IsPublic@BerconGradientClassDesc@@UEAAHXZ PROC		; BerconGradientClassDesc::IsPublic, COMDAT

; 188  : 	virtual int IsPublic() 							{ return TRUE; }

	mov	eax, 1
	ret	0
?IsPublic@BerconGradientClassDesc@@UEAAHXZ ENDP		; BerconGradientClassDesc::IsPublic
_TEXT	ENDS
; Function compile flags: /Ogtp
;	COMDAT ??_GBerconGradient@@UEAAPEAXI@Z
_TEXT	SEGMENT
this$ = 48
__flags$ = 56
??_GBerconGradient@@UEAAPEAXI@Z PROC			; BerconGradient::`scalar deleting destructor', COMDAT
$LN9:
	mov	QWORD PTR [rsp+8], rbx
	push	rdi
	sub	rsp, 32					; 00000020H
	mov	edi, edx
	mov	rbx, rcx
	call	??1BerconGradient@@UEAA@XZ		; BerconGradient::~BerconGradient
	test	dil, 1
	je	SHORT $LN7@scalar
	mov	rcx, rbx
	test	dil, 4
	jne	SHORT $LN3@scalar
	call	QWORD PTR __imp_??3MaxHeapOperators@@SAXPEAX@Z
	mov	rax, rbx
	mov	rbx, QWORD PTR [rsp+48]
	add	rsp, 32					; 00000020H
	pop	rdi
	ret	0
$LN3@scalar:
	mov	edx, 584				; 00000248H
	call	?__global_delete@@YAXPEAX_K@Z		; __global_delete
$LN7@scalar:
	mov	rax, rbx
	mov	rbx, QWORD PTR [rsp+48]
	add	rsp, 32					; 00000020H
	pop	rdi
	ret	0
??_GBerconGradient@@UEAAPEAXI@Z ENDP			; BerconGradient::`scalar deleting destructor'
_TEXT	ENDS
; Function compile flags: /Ogtp
; File g:\dropbox\github\berconmaps\src\bercongradient.h
;	COMDAT ?GetInterface@BerconGradient@@UEAAPEAXK@Z
_TEXT	SEGMENT
this$ = 8
id$ = 16
?GetInterface@BerconGradient@@UEAAPEAXK@Z PROC		; BerconGradient::GetInterface, COMDAT

; 179  : 			if(id == I_RESMAKER_INTERFACE)

	cmp	edx, 611595082				; 2474334aH
	jne	SHORT $LN2@GetInterfa
	xor	edx, edx
	lea	rax, QWORD PTR [rcx+152]
	test	rcx, rcx
	cmove	rax, rdx

; 183  : 		}

	ret	0
$LN2@GetInterfa:

; 180  : 				return (void *) (ResourceMakerCallback*) this;
; 181  : 			else
; 182  : 				return Texmap::GetInterface(id);

	rex_jmp	QWORD PTR __imp_?GetInterface@MtlBase@@UEAAPEAXK@Z
?GetInterface@BerconGradient@@UEAAPEAXK@Z ENDP		; BerconGradient::GetInterface
_TEXT	ENDS
; Function compile flags: /Ogtp
; File g:\dropbox\github\berconmaps\src\bercongradient.cpp
; File g:\dropbox\github\berconmaps\src\gradientramp.h
; File g:\dropbox\github\berconmaps\src\bercongradient.h
; File g:\dropbox\github\berconmaps\src\bercongradient.cpp
;	COMDAT ??1BerconGradient@@UEAA@XZ
_TEXT	SEGMENT
$T1 = 32
this$ = 64
??1BerconGradient@@UEAA@XZ PROC				; BerconGradient::~BerconGradient, COMDAT

; 509  : BerconGradient::~BerconGradient() {

$LN20:
	mov	QWORD PTR [rsp+8], rcx
	push	rdi
	sub	rsp, 48					; 00000030H
	mov	QWORD PTR $T1[rsp], -2
	mov	QWORD PTR [rsp+72], rbx
	mov	rbx, rcx
	lea	rax, OFFSET FLAT:??_7BerconGradient@@6BReferenceTarget@@@
	mov	QWORD PTR [rcx], rax
	lea	rax, OFFSET FLAT:??_7BerconGradient@@6BISubMap@@@
	mov	QWORD PTR [rcx+72], rax
	lea	rax, OFFSET FLAT:??_7BerconGradient@@6BGradientMap@@@
	mov	QWORD PTR [rcx+144], rax
	lea	rax, OFFSET FLAT:??_7BerconGradient@@6BResourceMakerCallback@@@
	mov	QWORD PTR [rcx+152], rax

; 510  : 	if (gradient) delete gradient;

	mov	rdi, QWORD PTR [rcx+456]
	test	rdi, rdi
	je	SHORT $LN8@BerconGrad
; File g:\dropbox\github\berconmaps\src\gradientramp.h

; 73   : 		delete[] subtex;

	mov	rcx, QWORD PTR [rdi+24]
	call	??_V@YAXPEAX@Z				; operator delete[]
	npad	1

; 74   : 		delete[] position;

	mov	rcx, QWORD PTR [rdi+32]
	call	??_V@YAXPEAX@Z				; operator delete[]
	npad	1

; 75   : 		delete[] color;

	mov	rcx, QWORD PTR [rdi+40]
	call	QWORD PTR __imp_??_VMaxHeapOperators@@SAXPEAX@Z
	npad	1

; 76   : 		delete[] number;	

	mov	rcx, QWORD PTR [rdi+48]
	call	??_V@YAXPEAX@Z				; operator delete[]
	npad	1
	mov	edx, 72					; 00000048H
	mov	rcx, rdi
	call	??3@YAXPEAX_K@Z				; operator delete
	npad	1
$LN8@BerconGrad:
; File g:\dropbox\github\berconmaps\src\bercongradient.h

; 140  : 		void DiscardTexHandle() { if (texHandle) { texHandle->DeleteThis(); texHandle = NULL; } }

	mov	rcx, QWORD PTR [rbx+568]
	test	rcx, rcx
	je	SHORT $LN13@BerconGrad
	mov	rax, QWORD PTR [rcx]
	call	QWORD PTR [rax+16]
	npad	1
	mov	QWORD PTR [rbx+568], 0
$LN13@BerconGrad:
	mov	rcx, rbx
; File g:\dropbox\github\berconmaps\src\bercongradient.cpp

; 512  : }

	mov	rbx, QWORD PTR [rsp+72]
	add	rsp, 48					; 00000030H
	pop	rdi
	rex_jmp	QWORD PTR __imp_??1MtlBase@@UEAA@XZ
??1BerconGradient@@UEAA@XZ ENDP				; BerconGradient::~BerconGradient
_TEXT	ENDS
;	COMDAT text$x
text$x	SEGMENT
$T1 = 32
this$ = 64
?dtor$0@?0???1BerconGradient@@UEAA@XZ@4HA PROC		; `BerconGradient::~BerconGradient'::`1'::dtor$0
	mov	rcx, QWORD PTR this$[rdx]
	jmp	??1Texmap@@UEAA@XZ
?dtor$0@?0???1BerconGradient@@UEAA@XZ@4HA ENDP		; `BerconGradient::~BerconGradient'::`1'::dtor$0
$T1 = 32
this$ = 64
?dtor$1@?0???1BerconGradient@@UEAA@XZ@4HA PROC		; `BerconGradient::~BerconGradient'::`1'::dtor$1
	mov	rcx, QWORD PTR this$[rdx]
	rex_jmp	QWORD PTR __imp_??1MtlBase@@UEAA@XZ
?dtor$1@?0???1BerconGradient@@UEAA@XZ@4HA ENDP		; `BerconGradient::~BerconGradient'::`1'::dtor$1
text$x	ENDS
; Function compile flags: /Ogtp
;	COMDAT text$x
text$x	SEGMENT
$T1 = 32
this$ = 64
?dtor$0@?0???1BerconGradient@@UEAA@XZ@4HA PROC		; `BerconGradient::~BerconGradient'::`1'::dtor$0
	mov	rcx, QWORD PTR this$[rdx]
	jmp	??1Texmap@@UEAA@XZ
?dtor$0@?0???1BerconGradient@@UEAA@XZ@4HA ENDP		; `BerconGradient::~BerconGradient'::`1'::dtor$0
text$x	ENDS
; Function compile flags: /Ogtp
;	COMDAT text$x
text$x	SEGMENT
$T1 = 32
this$ = 64
?dtor$1@?0???1BerconGradient@@UEAA@XZ@4HA PROC		; `BerconGradient::~BerconGradient'::`1'::dtor$1
	mov	rcx, QWORD PTR this$[rdx]
	rex_jmp	QWORD PTR __imp_??1MtlBase@@UEAA@XZ
?dtor$1@?0???1BerconGradient@@UEAA@XZ@4HA ENDP		; `BerconGradient::~BerconGradient'::`1'::dtor$1
text$x	ENDS
; Function compile flags: /Ogtp
; File g:\dropbox\github\berconmaps\src\bercongradient.cpp
; File c:\program files\autodesk\3ds max 2020 sdk\maxsdk\include\interval.h
; File g:\dropbox\github\berconmaps\src\bercongradient.cpp
; File c:\program files\autodesk\3ds max 2020 sdk\maxsdk\include\interval.h
; File g:\dropbox\github\berconmaps\src\bercongradient.cpp
; File g:\dropbox\github\berconmaps\src\gradientramp.h
; File g:\dropbox\github\berconmaps\src\bercongradient.cpp
;	COMDAT ??0BerconGradient@@QEAA@XZ
_TEXT	SEGMENT
$T1 = 32
this$ = 80
$T2 = 88
??0BerconGradient@@QEAA@XZ PROC				; BerconGradient::BerconGradient, COMDAT

; 490  : BerconGradient::BerconGradient() {

$LN25:
	mov	QWORD PTR [rsp+8], rcx
	push	rbp
	push	rsi
	push	rdi
	sub	rsp, 48					; 00000030H
	mov	QWORD PTR $T1[rsp], -2
	mov	QWORD PTR [rsp+96], rbx
	mov	rdi, rcx
	call	QWORD PTR __imp_??0Texmap@@QEAA@XZ
	npad	1
	lea	rsi, QWORD PTR [rdi+144]
	lea	rax, OFFSET FLAT:??_7BerconGradient@@6BReferenceTarget@@@
	mov	QWORD PTR [rdi], rax
	lea	rax, OFFSET FLAT:??_7BerconGradient@@6BISubMap@@@
	mov	QWORD PTR [rdi+72], rax
	lea	rax, OFFSET FLAT:??_7BerconGradient@@6BGradientMap@@@
	mov	QWORD PTR [rsi], rax
	lea	rax, OFFSET FLAT:??_7BerconGradient@@6BResourceMakerCallback@@@
	mov	QWORD PTR [rdi+152], rax
	lea	rcx, QWORD PTR [rdi+176]
	call	??0BerconXYZ@@QEAA@XZ			; BerconXYZ::BerconXYZ
; File c:\program files\autodesk\3ds max 2020 sdk\maxsdk\include\interval.h

; 126  : 		void SetEmpty() { start = TIME_NegInfinity; end = TIME_NegInfinity; }

	mov	DWORD PTR [rdi+448], -2147483648	; ffffffff80000000H
	mov	DWORD PTR [rdi+452], -2147483648	; ffffffff80000000H
	mov	DWORD PTR [rdi+576], -2147483648	; ffffffff80000000H
	mov	DWORD PTR [rdi+580], -2147483648	; ffffffff80000000H
; File g:\dropbox\github\berconmaps\src\bercongradient.cpp

; 491  : 	texHandle = NULL;

	xor	ebp, ebp
	mov	QWORD PTR [rdi+568], rbp

; 492  : 	previewMatIDMode = TRUE;	

	mov	DWORD PTR [rdi+540], 1

; 493  : 	pblock = NULL;	

	mov	QWORD PTR [rdi+160], rbp

; 494  : 	pbXYZ = NULL;

	mov	QWORD PTR [rdi+168], rbp

; 495  : 	//xyzGen = NULL;
; 496  : 	texout = NULL;	

	mov	QWORD PTR [rdi+440], rbp

; 497  : //	pbCurve = NULL;
; 498  : //	curve = NULL;
; 499  : 	p_maptex = NULL;

	mov	QWORD PTR [rdi+544], rbp

; 500  : 	p_distex = NULL;

	mov	QWORD PTR [rdi+552], rbp

; 501  : 	p_node = NULL;

	mov	QWORD PTR [rdi+560], rbp
; File c:\program files\autodesk\3ds max 2020 sdk\maxsdk\include\interval.h

; 126  : 		void SetEmpty() { start = TIME_NegInfinity; end = TIME_NegInfinity; }

	mov	DWORD PTR [rdi+448], -2147483648	; ffffffff80000000H
	mov	DWORD PTR [rdi+452], -2147483648	; ffffffff80000000H
; File g:\dropbox\github\berconmaps\src\bercongradient.cpp

; 503  : 	gradient = new GradientRamp(this);	

	lea	ecx, QWORD PTR [rbp+72]
	call	??2@YAPEAX_K@Z				; operator new
	mov	rbx, rax
	mov	QWORD PTR $T2[rsp], rax
	test	rax, rax
	je	SHORT $LN5@BerconGrad
; File g:\dropbox\github\berconmaps\src\gradientramp.h

; 59   : 		m_hWnd = NULL;

	mov	QWORD PTR [rax], rbp

; 60   : 		parent = p;

	mov	QWORD PTR [rax+8], rsi

; 61   : 		selected = 0;

	mov	QWORD PTR [rax+64], rbp

; 62   : 		interpolation = 0;
; 63   : 		keys = 0;

	mov	DWORD PTR [rax+56], ebp

; 64   : 		subtex = NULL;

	mov	QWORD PTR [rax+24], rbp

; 65   : 		position = NULL;

	mov	QWORD PTR [rax+32], rbp

; 66   : 		color = NULL;

	mov	QWORD PTR [rax+40], rbp

; 67   : 		number = NULL;		

	mov	QWORD PTR [rax+48], rbp

; 68   : 		reset();

	mov	rcx, rax
	call	?reset@GradientRamp@@QEAAXXZ		; GradientRamp::reset

; 69   : 		sort();		

	mov	rcx, rbx
	call	?sort@GradientRamp@@QEAAXXZ		; GradientRamp::sort
; File g:\dropbox\github\berconmaps\src\bercongradient.cpp

; 503  : 	gradient = new GradientRamp(this);	

	jmp	SHORT $LN6@BerconGrad
$LN5@BerconGrad:
	mov	rbx, rbp
$LN6@BerconGrad:
	mov	QWORD PTR [rdi+456], rbx

; 504  : 	BerconGradientDesc.MakeAutoParamBlocks(this);

	mov	rdx, rdi
	lea	rcx, OFFSET FLAT:?BerconGradientDesc@@3VBerconGradientClassDesc@@A
	call	QWORD PTR __imp_?MakeAutoParamBlocks@ClassDesc2@@UEAAXPEAVReferenceMaker@@@Z

; 505  : 	berconXYZ.mode2D = TRUE;

	mov	DWORD PTR [rdi+436], 1

; 506  : 	BerconGradient::Reset();	

	mov	rcx, rdi
	call	?Reset@BerconGradient@@UEAAXXZ		; BerconGradient::Reset
	npad	1

; 507  : }

	mov	rax, rdi
	mov	rbx, QWORD PTR [rsp+96]
	add	rsp, 48					; 00000030H
	pop	rdi
	pop	rsi
	pop	rbp
	ret	0
??0BerconGradient@@QEAA@XZ ENDP				; BerconGradient::BerconGradient
_TEXT	ENDS
;	COMDAT text$x
text$x	SEGMENT
$T1 = 32
this$ = 80
$T2 = 88
?dtor$0@?0???0BerconGradient@@QEAA@XZ@4HA PROC		; `BerconGradient::BerconGradient'::`1'::dtor$0
	mov	rcx, QWORD PTR this$[rdx]
	jmp	??1Texmap@@UEAA@XZ
?dtor$0@?0???0BerconGradient@@QEAA@XZ@4HA ENDP		; `BerconGradient::BerconGradient'::`1'::dtor$0
$T1 = 32
this$ = 80
$T2 = 88
?dtor$1@?0???0BerconGradient@@QEAA@XZ@4HA PROC		; `BerconGradient::BerconGradient'::`1'::dtor$1
	push	rbp
	sub	rsp, 32					; 00000020H
	mov	rbp, rdx
	mov	edx, 72					; 00000048H
	mov	rcx, QWORD PTR $T2[rbp]
	call	??3@YAXPEAX_K@Z				; operator delete
	add	rsp, 32					; 00000020H
	pop	rbp
	ret	0
?dtor$1@?0???0BerconGradient@@QEAA@XZ@4HA ENDP		; `BerconGradient::BerconGradient'::`1'::dtor$1
text$x	ENDS
; Function compile flags: /Ogtp
;	COMDAT text$x
text$x	SEGMENT
$T1 = 32
this$ = 80
$T2 = 88
?dtor$0@?0???0BerconGradient@@QEAA@XZ@4HA PROC		; `BerconGradient::BerconGradient'::`1'::dtor$0
	mov	rcx, QWORD PTR this$[rdx]
	jmp	??1Texmap@@UEAA@XZ
?dtor$0@?0???0BerconGradient@@QEAA@XZ@4HA ENDP		; `BerconGradient::BerconGradient'::`1'::dtor$0
text$x	ENDS
; Function compile flags: /Ogtp
;	COMDAT text$x
text$x	SEGMENT
$T1 = 32
this$ = 80
$T2 = 88
?dtor$1@?0???0BerconGradient@@QEAA@XZ@4HA PROC		; `BerconGradient::BerconGradient'::`1'::dtor$1
	push	rbp
	sub	rsp, 32					; 00000020H
	mov	rbp, rdx
	mov	edx, 72					; 00000048H
	mov	rcx, QWORD PTR $T2[rbp]
	call	??3@YAXPEAX_K@Z				; operator delete
	add	rsp, 32					; 00000020H
	pop	rbp
	ret	0
?dtor$1@?0???0BerconGradient@@QEAA@XZ@4HA ENDP		; `BerconGradient::BerconGradient'::`1'::dtor$1
text$x	ENDS
; Function compile flags: /Ogtp
; File g:\dropbox\github\berconmaps\src\bercongradient.h
;	COMDAT ?DeleteThis@BerconGradient@@UEAAXXZ
_TEXT	SEGMENT
this$ = 8
?DeleteThis@BerconGradient@@UEAAXXZ PROC		; BerconGradient::DeleteThis, COMDAT

; 173  : 		void DeleteThis() { delete this; }		

	test	rcx, rcx
	je	SHORT $LN3@DeleteThis
	mov	rax, QWORD PTR [rcx]
	mov	edx, 1
	rex_jmp	QWORD PTR [rax]
$LN3@DeleteThis:
	ret	0
?DeleteThis@BerconGradient@@UEAAXXZ ENDP		; BerconGradient::DeleteThis
_TEXT	ENDS
; Function compile flags: /Ogtp
; File g:\dropbox\github\berconmaps\src\bercongradient.h
;	COMDAT ?RenderEnd@BerconGradient@@UEAAHH@Z
_TEXT	SEGMENT
this$ = 8
t$ = 16
?RenderEnd@BerconGradient@@UEAAHH@Z PROC		; BerconGradient::RenderEnd, COMDAT

; 171  : 		int RenderEnd(TimeValue t) { previewMatIDMode = TRUE; return 1; }				

	mov	DWORD PTR [rcx+540], 1
	mov	eax, 1
	ret	0
?RenderEnd@BerconGradient@@UEAAHH@Z ENDP		; BerconGradient::RenderEnd
_TEXT	ENDS
; Function compile flags: /Ogtp
; File g:\dropbox\github\berconmaps\src\bercongradient.h
;	COMDAT ?RenderBegin@BerconGradient@@UEAAHHK@Z
_TEXT	SEGMENT
this$ = 8
t$ = 16
flags$ = 24
?RenderBegin@BerconGradient@@UEAAHHK@Z PROC		; BerconGradient::RenderBegin, COMDAT

; 170  : 		int RenderBegin(TimeValue t, ULONG flags = 0) { if (!flags) previewMatIDMode = FALSE; return 1; }

	mov	eax, 1
	test	r8d, r8d
	jne	SHORT $LN2@RenderBegi
	mov	DWORD PTR [rcx+540], r8d
$LN2@RenderBegi:
	ret	0
?RenderBegin@BerconGradient@@UEAAHHK@Z ENDP		; BerconGradient::RenderBegin
_TEXT	ENDS
; Function compile flags: /Ogtp
; File g:\dropbox\github\berconmaps\src\bercongradient.h
;	COMDAT ?GetParamBlockByID@BerconGradient@@UEAAPEAVIParamBlock2@@F@Z
_TEXT	SEGMENT
this$ = 48
id$ = 56
?GetParamBlockByID@BerconGradient@@UEAAPEAVIParamBlock2@@F@Z PROC ; BerconGradient::GetParamBlockByID, COMDAT

; 163  : 		IParamBlock2* GetParamBlockByID(BlockID id) { 

$LN6:
	mov	QWORD PTR [rsp+8], rbx
	push	rdi
	sub	rsp, 32					; 00000020H
	mov	rbx, rcx
	movzx	edi, dx

; 164  : 			if (pblock->ID() == id) return pblock;

	mov	rcx, QWORD PTR [rcx+160]
	mov	rax, QWORD PTR [rcx]
	call	QWORD PTR [rax+1384]
	cmp	ax, di
	jne	SHORT $LN2@GetParamBl
	mov	rax, QWORD PTR [rbx+160]

; 168  : 		}

	mov	rbx, QWORD PTR [rsp+48]
	add	rsp, 32					; 00000020H
	pop	rdi
	ret	0
$LN2@GetParamBl:

; 165  : 		//	if (pbCurve->ID() == id) return pbCurve;
; 166  : 			if (pbXYZ->ID() == id) return pbXYZ;

	mov	rcx, QWORD PTR [rbx+168]
	mov	rax, QWORD PTR [rcx]
	call	QWORD PTR [rax+1384]
	cmp	ax, di
	jne	SHORT $LN3@GetParamBl
	mov	rax, QWORD PTR [rbx+168]

; 168  : 		}

	mov	rbx, QWORD PTR [rsp+48]
	add	rsp, 32					; 00000020H
	pop	rdi
	ret	0
$LN3@GetParamBl:

; 167  : 			return NULL;

	xor	eax, eax

; 168  : 		}

	mov	rbx, QWORD PTR [rsp+48]
	add	rsp, 32					; 00000020H
	pop	rdi
	ret	0
?GetParamBlockByID@BerconGradient@@UEAAPEAVIParamBlock2@@F@Z ENDP ; BerconGradient::GetParamBlockByID
_TEXT	ENDS
; Function compile flags: /Ogtp
; File g:\dropbox\github\berconmaps\src\bercongradient.h
;	COMDAT ?GetParamBlock@BerconGradient@@UEAAPEAVIParamBlock2@@H@Z
_TEXT	SEGMENT
this$ = 8
i$ = 16
?GetParamBlock@BerconGradient@@UEAAPEAVIParamBlock2@@H@Z PROC ; BerconGradient::GetParamBlock, COMDAT

; 162  : 		IParamBlock2* GetParamBlock(int i) { switch (i) { case 0: return pblock; /*case 1: return pbCurve;*/ case 1: return pbXYZ; } return NULL; }

	test	edx, edx
	je	SHORT $LN4@GetParamBl
	cmp	edx, 1
	je	SHORT $LN5@GetParamBl
	xor	eax, eax
	ret	0
$LN5@GetParamBl:
	mov	rax, QWORD PTR [rcx+168]
	ret	0
$LN4@GetParamBl:
	mov	rax, QWORD PTR [rcx+160]
	ret	0
?GetParamBlock@BerconGradient@@UEAAPEAVIParamBlock2@@H@Z ENDP ; BerconGradient::GetParamBlock
_TEXT	ENDS
; Function compile flags: /Ogtp
; File g:\dropbox\github\berconmaps\src\bercongradient.h
;	COMDAT ?NumParamBlocks@BerconGradient@@UEAAHXZ
_TEXT	SEGMENT
this$ = 8
?NumParamBlocks@BerconGradient@@UEAAHXZ PROC		; BerconGradient::NumParamBlocks, COMDAT

; 161  : 		int	NumParamBlocks() { return 2; }

	mov	eax, 2
	ret	0
?NumParamBlocks@BerconGradient@@UEAAHXZ ENDP		; BerconGradient::NumParamBlocks
_TEXT	ENDS
; Function compile flags: /Ogtp
; File g:\dropbox\github\berconmaps\src\bercongradient.cpp
; File g:\dropbox\github\berconmaps\src\gradientramp.h
; File g:\dropbox\github\berconmaps\src\bercongradient.cpp
;	COMDAT ?SetReference@BerconGradient@@UEAAXHPEAVReferenceTarget@@@Z
_TEXT	SEGMENT
this$ = 64
i$ = 72
rtarg$ = 80
?SetReference@BerconGradient@@UEAAXHPEAVReferenceTarget@@@Z PROC ; BerconGradient::SetReference, COMDAT

; 927  : void BerconGradient::SetReference(int i, RefTargetHandle rtarg) {

$LN18:
	mov	QWORD PTR [rsp+16], rbx
	push	rdi
	sub	rsp, 48					; 00000030H
	mov	rdi, r8
	mov	rbx, rcx

; 928  : 	switch(i) {		

	cmp	edx, 7
	ja	$LN10@SetReferen
	lea	rcx, OFFSET FLAT:__ImageBase
	movsxd	rax, edx
	mov	r9d, DWORD PTR $LN15@SetReferen[rcx+rax*4]
	add	r9, rcx
	jmp	r9
$LN4@SetReferen:

; 929  : 		case COORD_REF: pbXYZ = (IParamBlock2 *)rtarg; break;			

	mov	QWORD PTR [rbx+168], rdi

; 942  : 			break;
; 943  : 	}
; 944  : }

	mov	rbx, QWORD PTR [rsp+72]
	add	rsp, 48					; 00000030H
	pop	rdi
	ret	0
$LN5@SetReferen:

; 930  : 		case PBLOCK_REF: pblock = (IParamBlock2 *)rtarg; break;		

	mov	QWORD PTR [rbx+160], rdi

; 942  : 			break;
; 943  : 	}
; 944  : }

	mov	rbx, QWORD PTR [rsp+72]
	add	rsp, 48					; 00000030H
	pop	rdi
	ret	0
$LN6@SetReferen:

; 931  : 		case OUTPUT_REF: texout = (TextureOutput *)rtarg; break;

	mov	QWORD PTR [rbx+440], rdi

; 942  : 			break;
; 943  : 	}
; 944  : }

	mov	rbx, QWORD PTR [rsp+72]
	add	rsp, 48					; 00000030H
	pop	rdi
	ret	0
$LN7@SetReferen:

; 932  : //		case CURVE_REF: curve = (ICurveCtl *)rtarg; break;
; 933  : //		case CURVEPB_REF: pbCurve = (IParamBlock2 *)rtarg; break;
; 934  : 		case MAPTEX_REF: p_maptex = (Texmap *)rtarg; break;

	mov	QWORD PTR [rbx+544], rdi

; 942  : 			break;
; 943  : 	}
; 944  : }

	mov	rbx, QWORD PTR [rsp+72]
	add	rsp, 48					; 00000030H
	pop	rdi
	ret	0
$LN8@SetReferen:

; 935  : 		case DISTEX_REF: p_distex = (Texmap *)rtarg; break;		

	mov	QWORD PTR [rbx+552], rdi

; 942  : 			break;
; 943  : 	}
; 944  : }

	mov	rbx, QWORD PTR [rsp+72]
	add	rsp, 48					; 00000030H
	pop	rdi
	ret	0
$LN9@SetReferen:

; 936  : 		case KEYTEX_REF: setKeyTex((Texmap *)rtarg); break;		

	mov	rdx, rdi
	mov	rcx, rbx

; 942  : 			break;
; 943  : 	}
; 944  : }

	mov	rbx, QWORD PTR [rsp+72]
	add	rsp, 48					; 00000030H
	pop	rdi

; 936  : 		case KEYTEX_REF: setKeyTex((Texmap *)rtarg); break;		

	jmp	?setKeyTex@BerconGradient@@QEAAXPEAVTexmap@@@Z ; BerconGradient::setKeyTex
$LN10@SetReferen:
; File g:\dropbox\github\berconmaps\src\gradientramp.h

; 107  : 	int numKeys() { return keys; }

	mov	rcx, QWORD PTR [rbx+456]
	mov	QWORD PTR [rsp+64], rsi
; File g:\dropbox\github\berconmaps\src\bercongradient.cpp

; 938  : 			int k = i-REF_OFFSET-SUBMAPCOUNT;

	lea	esi, DWORD PTR [rdx-8]

; 939  : 			if (k >= gradient->numKeys()) return;

	cmp	esi, DWORD PTR [rcx+56]
	jge	SHORT $LN16@SetReferen

; 940  : 			gradient->setSubtex(k, (Texmap *)rtarg);

	mov	edx, esi
	call	?setSubtex@GradientRamp@@QEAAXHPEAVTexmap@@@Z ; GradientRamp::setSubtex

; 941  : 			pblock->SetValue(pb_submaps, 0, (Texmap *)rtarg, k);

	mov	rcx, QWORD PTR [rbx+160]
	xor	edx, edx
	mov	r9, rdi
	mov	DWORD PTR [rsp+32], esi
	xor	r8d, r8d
	mov	rax, QWORD PTR [rcx]
	call	QWORD PTR [rax+1512]
$LN16@SetReferen:
	mov	rsi, QWORD PTR [rsp+64]

; 942  : 			break;
; 943  : 	}
; 944  : }

	mov	rbx, QWORD PTR [rsp+72]
	add	rsp, 48					; 00000030H
	pop	rdi
	ret	0
	npad	1
$LN15@SetReferen:
	DD	$LN4@SetReferen
	DD	$LN5@SetReferen
	DD	$LN6@SetReferen
	DD	$LN10@SetReferen
	DD	$LN10@SetReferen
	DD	$LN7@SetReferen
	DD	$LN9@SetReferen
	DD	$LN8@SetReferen
?SetReference@BerconGradient@@UEAAXHPEAVReferenceTarget@@@Z ENDP ; BerconGradient::SetReference
_TEXT	ENDS
; Function compile flags: /Ogtp
; File g:\dropbox\github\berconmaps\src\bercongradient.cpp
; File g:\dropbox\github\berconmaps\src\gradientramp.h
; File g:\dropbox\github\berconmaps\src\bercongradient.cpp
;	COMDAT ?GetReference@BerconGradient@@UEAAPEAVReferenceTarget@@H@Z
_TEXT	SEGMENT
this$ = 8
i$ = 16
?GetReference@BerconGradient@@UEAAPEAVReferenceTarget@@H@Z PROC ; BerconGradient::GetReference, COMDAT

; 911  : 	switch (i) {		

	cmp	edx, 7
	ja	SHORT $LN10@GetReferen
	lea	r9, OFFSET FLAT:__ImageBase
	movsxd	rax, edx
	mov	r8d, DWORD PTR $LN17@GetReferen[r9+rax*4]
	add	r8, r9
	jmp	r8
$LN4@GetReferen:

; 912  : 		case COORD_REF: return pbXYZ;

	mov	rax, QWORD PTR [rcx+168]

; 924  : 	}
; 925  : }

	ret	0
$LN5@GetReferen:

; 913  : 		case PBLOCK_REF: return pblock;		

	mov	rax, QWORD PTR [rcx+160]

; 924  : 	}
; 925  : }

	ret	0
$LN6@GetReferen:

; 914  : 		case OUTPUT_REF: return texout;

	mov	rax, QWORD PTR [rcx+440]

; 924  : 	}
; 925  : }

	ret	0
$LN7@GetReferen:

; 915  : 	//	case CURVE_REF: return curve;		
; 916  : 	//	case CURVEPB_REF: return pbCurve;
; 917  : 		case MAPTEX_REF: return p_maptex;

	mov	rax, QWORD PTR [rcx+544]

; 924  : 	}
; 925  : }

	ret	0
$LN8@GetReferen:

; 918  : 		case DISTEX_REF: return p_distex;

	mov	rax, QWORD PTR [rcx+552]

; 924  : 	}
; 925  : }

	ret	0
$LN9@GetReferen:

; 818  : 	return gradient->getSubtex();

	mov	rcx, QWORD PTR [rcx+456]
	or	edx, -1
$LN11@GetReferen:

; 923  : 			return gradient->getSubtex(k);

	jmp	?getSubtex@GradientRamp@@QEAAPEAVTexmap@@H@Z ; GradientRamp::getSubtex
$LN10@GetReferen:
; File g:\dropbox\github\berconmaps\src\gradientramp.h

; 107  : 	int numKeys() { return keys; }

	mov	rcx, QWORD PTR [rcx+456]
; File g:\dropbox\github\berconmaps\src\bercongradient.cpp

; 921  : 			int k = i-REF_OFFSET-SUBMAPCOUNT;

	add	edx, -8

; 922  : 			if (k >= gradient->numKeys()) return NULL;

	cmp	edx, DWORD PTR [rcx+56]
	jl	SHORT $LN11@GetReferen
	xor	eax, eax

; 924  : 	}
; 925  : }

	ret	0
	npad	2
$LN17@GetReferen:
	DD	$LN4@GetReferen
	DD	$LN5@GetReferen
	DD	$LN6@GetReferen
	DD	$LN10@GetReferen
	DD	$LN10@GetReferen
	DD	$LN7@GetReferen
	DD	$LN9@GetReferen
	DD	$LN8@GetReferen
?GetReference@BerconGradient@@UEAAPEAVReferenceTarget@@H@Z ENDP ; BerconGradient::GetReference
_TEXT	ENDS
; Function compile flags: /Ogtp
; File g:\dropbox\github\berconmaps\src\bercongradient.h
;	COMDAT ?NumRefs@BerconGradient@@UEAAHXZ
_TEXT	SEGMENT
this$ = 8
?NumRefs@BerconGradient@@UEAAHXZ PROC			; BerconGradient::NumRefs, COMDAT

; 157  : 		int NumRefs() { return 7+gradient->numKeys(); } // !! Update submap count !!

	mov	rax, QWORD PTR [rcx+456]
	mov	eax, DWORD PTR [rax+56]
	add	eax, 7
	ret	0
?NumRefs@BerconGradient@@UEAAHXZ ENDP			; BerconGradient::NumRefs
_TEXT	ENDS
; Function compile flags: /Ogtp
; File g:\dropbox\github\berconmaps\src\bercongradient.cpp
;	COMDAT ?SubAnimName@BerconGradient@@UEAA?AVWStr@@H@Z
_TEXT	SEGMENT
$T1 = 32
$T2 = 40
this$ = 64
__$ReturnUdt$ = 72
i$ = 80
?SubAnimName@BerconGradient@@UEAA?AVWStr@@H@Z PROC	; BerconGradient::SubAnimName, COMDAT

; 988  : TSTR BerconGradient::SubAnimName(int i) {

$LN13:
	mov	QWORD PTR [rsp+16], rdx
	push	rbx
	sub	rsp, 48					; 00000030H
	mov	QWORD PTR $T2[rsp], -2
	mov	rbx, rdx
	mov	DWORD PTR $T1[rsp], 0

; 989  : 	switch (i) {

	mov	edx, r8d
	test	r8d, r8d
	je	SHORT $LN5@SubAnimNam
	sub	edx, 1
	je	SHORT $LN4@SubAnimNam
	cmp	edx, 1
	je	SHORT $LN6@SubAnimNam

; 993  : //		case CURVE_REF: return GetString(IDS_CURVE);
; 994  : //		case CURVEPB_REF: return GetString(IDS_CURVEPB);
; 995  : 		default: return GetSubTexmapTVName(i-REF_OFFSET);

	add	r8d, -5
	add	rcx, 72					; 00000048H
	mov	rdx, rbx
	call	QWORD PTR __imp_?GetSubTexmapTVName@ISubMap@@QEAA?AVWStr@@H@Z
	jmp	SHORT $LN11@SubAnimNam
$LN6@SubAnimNam:

; 992  : 		case OUTPUT_REF: return GetString(IDS_OUTPUT);	

	mov	ecx, 8
	jmp	SHORT $LN12@SubAnimNam
$LN4@SubAnimNam:

; 990  : 		case PBLOCK_REF: return GetString(IDS_PARAMS);

	mov	ecx, 4
	call	?GetString@@YAPEA_WH@Z			; GetString
	mov	rdx, rax
	mov	rcx, rbx
	call	QWORD PTR __imp_??0WStr@@QEAA@PEB_W@Z
	jmp	SHORT $LN11@SubAnimNam
$LN5@SubAnimNam:

; 991  : 		case COORD_REF: return GetString(IDS_COORDS);				

	mov	ecx, 7
$LN12@SubAnimNam:
	call	?GetString@@YAPEA_WH@Z			; GetString
	mov	rdx, rax
	mov	rcx, rbx
	call	QWORD PTR __imp_??0WStr@@QEAA@PEB_W@Z
	npad	1
$LN11@SubAnimNam:
	mov	DWORD PTR $T1[rsp], 1
	mov	rax, rbx

; 996  : 	}									  
; 997  : }

	add	rsp, 48					; 00000030H
	pop	rbx
	ret	0
	int	3
?SubAnimName@BerconGradient@@UEAA?AVWStr@@H@Z ENDP	; BerconGradient::SubAnimName
_TEXT	ENDS
;	COMDAT text$x
text$x	SEGMENT
$T1 = 32
$T2 = 40
this$ = 64
__$ReturnUdt$ = 72
i$ = 80
?dtor$0@?0??SubAnimName@BerconGradient@@UEAA?AVWStr@@H@Z@4HA PROC ; `BerconGradient::SubAnimName'::`1'::dtor$0
	push	rbp
	sub	rsp, 32					; 00000020H
	mov	rbp, rdx
	mov	eax, DWORD PTR $T1[rbp]
	and	eax, 1
	test	eax, eax
	je	SHORT $LN10@dtor$0
	and	DWORD PTR $T1[rbp], -2
	mov	rcx, QWORD PTR __$ReturnUdt$[rbp]
	call	QWORD PTR __imp_??1WStr@@QEAA@XZ
$LN10@dtor$0:
	add	rsp, 32					; 00000020H
	pop	rbp
	ret	0
?dtor$0@?0??SubAnimName@BerconGradient@@UEAA?AVWStr@@H@Z@4HA ENDP ; `BerconGradient::SubAnimName'::`1'::dtor$0
text$x	ENDS
; Function compile flags: /Ogtp
;	COMDAT text$x
text$x	SEGMENT
$T1 = 32
$T2 = 40
this$ = 64
__$ReturnUdt$ = 72
i$ = 80
?dtor$0@?0??SubAnimName@BerconGradient@@UEAA?AVWStr@@H@Z@4HA PROC ; `BerconGradient::SubAnimName'::`1'::dtor$0
	push	rbp
	sub	rsp, 32					; 00000020H
	mov	rbp, rdx
	mov	eax, DWORD PTR $T1[rbp]
	and	eax, 1
	test	eax, eax
	je	SHORT $LN10@dtor$0
	and	DWORD PTR $T1[rbp], -2
	mov	rcx, QWORD PTR __$ReturnUdt$[rbp]
	call	QWORD PTR __imp_??1WStr@@QEAA@XZ
$LN10@dtor$0:
	add	rsp, 32					; 00000020H
	pop	rbp
	ret	0
?dtor$0@?0??SubAnimName@BerconGradient@@UEAA?AVWStr@@H@Z@4HA ENDP ; `BerconGradient::SubAnimName'::`1'::dtor$0
text$x	ENDS
; Function compile flags: /Ogtp
; File g:\dropbox\github\berconmaps\src\bercongradient.cpp
; File g:\dropbox\github\berconmaps\src\gradientramp.h
; File g:\dropbox\github\berconmaps\src\bercongradient.cpp
;	COMDAT ?SubAnim@BerconGradient@@UEAAPEAVAnimatable@@H@Z
_TEXT	SEGMENT
this$ = 8
i$ = 16
?SubAnim@BerconGradient@@UEAAPEAVAnimatable@@H@Z PROC	; BerconGradient::SubAnim, COMDAT

; 972  : 	switch (i) {		

	cmp	edx, 7
	ja	SHORT $LN10@SubAnim
	lea	r9, OFFSET FLAT:__ImageBase
	movsxd	rax, edx
	mov	r8d, DWORD PTR $LN17@SubAnim[r9+rax*4]
	add	r8, r9
	jmp	r8
$LN4@SubAnim:

; 973  : 		case PBLOCK_REF: return pblock;

	mov	rax, QWORD PTR [rcx+160]

; 985  : 	}
; 986  : }

	ret	0
$LN5@SubAnim:

; 974  : 		case COORD_REF: return pbXYZ;		

	mov	rax, QWORD PTR [rcx+168]

; 985  : 	}
; 986  : }

	ret	0
$LN6@SubAnim:

; 975  : 		case OUTPUT_REF: return texout;

	mov	rax, QWORD PTR [rcx+440]

; 985  : 	}
; 986  : }

	ret	0
$LN7@SubAnim:

; 976  : //		case CURVE_REF: return curve;
; 977  : //		case CURVEPB_REF: return pbCurve;
; 978  : 		case MAPTEX_REF: return p_maptex;

	mov	rax, QWORD PTR [rcx+544]

; 985  : 	}
; 986  : }

	ret	0
$LN8@SubAnim:

; 979  : 		case DISTEX_REF: return p_distex;

	mov	rax, QWORD PTR [rcx+552]

; 985  : 	}
; 986  : }

	ret	0
$LN9@SubAnim:

; 818  : 	return gradient->getSubtex();

	mov	rcx, QWORD PTR [rcx+456]
	or	edx, -1
$LN11@SubAnim:

; 984  : 			return gradient->getSubtex(k);

	jmp	?getSubtex@GradientRamp@@QEAAPEAVTexmap@@H@Z ; GradientRamp::getSubtex
$LN10@SubAnim:
; File g:\dropbox\github\berconmaps\src\gradientramp.h

; 107  : 	int numKeys() { return keys; }

	mov	rcx, QWORD PTR [rcx+456]
; File g:\dropbox\github\berconmaps\src\bercongradient.cpp

; 982  : 			int k = i-REF_OFFSET-SUBMAPCOUNT;

	add	edx, -8

; 983  : 			if (k >= gradient->numKeys()) return NULL;		

	cmp	edx, DWORD PTR [rcx+56]
	jl	SHORT $LN11@SubAnim
	xor	eax, eax

; 985  : 	}
; 986  : }

	ret	0
	npad	2
$LN17@SubAnim:
	DD	$LN5@SubAnim
	DD	$LN4@SubAnim
	DD	$LN6@SubAnim
	DD	$LN10@SubAnim
	DD	$LN10@SubAnim
	DD	$LN7@SubAnim
	DD	$LN9@SubAnim
	DD	$LN8@SubAnim
?SubAnim@BerconGradient@@UEAAPEAVAnimatable@@H@Z ENDP	; BerconGradient::SubAnim
_TEXT	ENDS
; Function compile flags: /Ogtp
; File g:\dropbox\github\berconmaps\src\bercongradient.h
;	COMDAT ?NumSubs@BerconGradient@@UEAAHXZ
_TEXT	SEGMENT
this$ = 8
?NumSubs@BerconGradient@@UEAAHXZ PROC			; BerconGradient::NumSubs, COMDAT

; 153  : 		int NumSubs() { return 7+gradient->numKeys(); } // !! Update submap count !!

	mov	rax, QWORD PTR [rcx+456]
	mov	eax, DWORD PTR [rax+56]
	add	eax, 7
	ret	0
?NumSubs@BerconGradient@@UEAAHXZ ENDP			; BerconGradient::NumSubs
_TEXT	ENDS
; Function compile flags: /Ogtp
; File g:\dropbox\github\berconmaps\src\bercongradient.cpp
; File c:\program files\autodesk\3ds max 2020 sdk\maxsdk\include\interval.h
; File g:\dropbox\github\berconmaps\src\bercongradient.cpp
; File c:\program files\autodesk\3ds max 2020 sdk\maxsdk\include\iparamb2.h
; File g:\dropbox\github\berconmaps\src\bercongradient.cpp
; File c:\program files\autodesk\3ds max 2020 sdk\maxsdk\include\iparamb2.h
; File g:\dropbox\github\berconmaps\src\bercongradient.cpp
; File g:\dropbox\github\berconmaps\src\bercongradient.h
; File g:\dropbox\github\berconmaps\src\bercongradient.cpp
; File c:\program files\autodesk\3ds max 2020 sdk\maxsdk\include\iparamb2.h
; File g:\dropbox\github\berconmaps\src\bercongradient.cpp
; File c:\program files\autodesk\3ds max 2020 sdk\maxsdk\include\iparamb2.h
; File g:\dropbox\github\berconmaps\src\bercongradient.cpp
;	COMDAT ?NotifyRefChanged@BerconGradient@@UEAA?AW4RefResult@@AEBVInterval@@PEAVReferenceTarget@@AEA_KIH@Z
_TEXT	SEGMENT
this$ = 48
changeInt$ = 56
hTarget$ = 64
partID$ = 72
message$ = 80
propagate$ = 88
?NotifyRefChanged@BerconGradient@@UEAA?AW4RefResult@@AEBVInterval@@PEAVReferenceTarget@@AEA_KIH@Z PROC ; BerconGradient::NotifyRefChanged, COMDAT

; 999  : RefResult BerconGradient::NotifyRefChanged(NOTIFY_REF_CHANGED_ARGS) {	

$LN31:
	push	rdi
	sub	rsp, 32					; 00000020H

; 1000 : 	switch (message) {

	cmp	DWORD PTR message$[rsp], 80		; 00000050H
	mov	rdi, rcx
	jne	$LN26@NotifyRefC
; File c:\program files\autodesk\3ds max 2020 sdk\maxsdk\include\interval.h

; 126  : 		void SetEmpty() { start = TIME_NegInfinity; end = TIME_NegInfinity; }

	mov	DWORD PTR [rcx+448], -2147483648	; ffffffff80000000H
	mov	DWORD PTR [rcx+452], -2147483648	; ffffffff80000000H
; File g:\dropbox\github\berconmaps\src\bercongradient.cpp

; 1003 : 			if (hTarget == pblock) {

	mov	rcx, QWORD PTR [rcx+160]
	mov	QWORD PTR [rsp+48], rbx
	cmp	r8, rcx
	jne	SHORT $LN5@NotifyRefC

; 1004 : 				ParamID changing_param = pblock->LastNotifyParamID();

	mov	rax, QWORD PTR [rcx]
	call	QWORD PTR [rax+2288]
; File c:\program files\autodesk\3ds max 2020 sdk\maxsdk\include\iparamb2.h

; 4058 : 	PB2Export void InvalidateUI(ParamID id, int tabIndex=-1) { cd->InvalidateUI(this, id, tabIndex); } // nominated param

	mov	rcx, QWORD PTR ?gradientmap_param_blk@@3VParamBlockDesc2@@A+40
	lea	rdx, OFFSET FLAT:?gradientmap_param_blk@@3VParamBlockDesc2@@A
	movzx	r8d, ax
	or	r9d, -1
; File g:\dropbox\github\berconmaps\src\bercongradient.cpp

; 1004 : 				ParamID changing_param = pblock->LastNotifyParamID();

	movzx	ebx, ax
; File c:\program files\autodesk\3ds max 2020 sdk\maxsdk\include\iparamb2.h

; 4058 : 	PB2Export void InvalidateUI(ParamID id, int tabIndex=-1) { cd->InvalidateUI(this, id, tabIndex); } // nominated param

	call	QWORD PTR __imp_?InvalidateUI@ClassDesc2@@QEAAXPEAVParamBlockDesc2@@FH@Z
; File g:\dropbox\github\berconmaps\src\bercongradient.cpp

; 1006 : 				if (changing_param != -1) DiscardTexHandle();

	cmp	bx, -1
	je	$LN24@NotifyRefC
; File g:\dropbox\github\berconmaps\src\bercongradient.h

; 140  : 		void DiscardTexHandle() { if (texHandle) { texHandle->DeleteThis(); texHandle = NULL; } }

	mov	rcx, QWORD PTR [rdi+568]
	xor	ebx, ebx
	test	rcx, rcx
	je	SHORT $LN17@NotifyRefC
	mov	rax, QWORD PTR [rcx]
	call	QWORD PTR [rax+16]
	mov	QWORD PTR [rdi+568], rbx
$LN17@NotifyRefC:
	mov	rcx, QWORD PTR [rdi+568]
	test	rcx, rcx
	je	SHORT $LN24@NotifyRefC
	mov	rax, QWORD PTR [rcx]
	call	QWORD PTR [rax+16]
	mov	QWORD PTR [rdi+568], rbx
; File g:\dropbox\github\berconmaps\src\bercongradient.cpp

; 1018 : 	return(REF_SUCCEED);

	mov	eax, 1
	mov	rbx, QWORD PTR [rsp+48]

; 1019 : }

	add	rsp, 32					; 00000020H
	pop	rdi
	ret	0
$LN5@NotifyRefC:

; 1007 : 	//		}  else if (hTarget == pbCurve) {
; 1008 : 	//			ParamID changing_param = pbCurve->LastNotifyParamID();
; 1009 : 	//			BerconCurve_param_blk.InvalidateUI(changing_param);
; 1010 : 				if (changing_param != -1) DiscardTexHandle();
; 1011 : 			} else if (hTarget == pbXYZ) {

	mov	rcx, QWORD PTR [rdi+168]
	cmp	r8, rcx
	jne	SHORT $LN24@NotifyRefC

; 1012 : 				ParamID changing_param = pbXYZ->LastNotifyParamID();

	mov	rax, QWORD PTR [rcx]
	call	QWORD PTR [rax+2288]
; File c:\program files\autodesk\3ds max 2020 sdk\maxsdk\include\iparamb2.h

; 4058 : 	PB2Export void InvalidateUI(ParamID id, int tabIndex=-1) { cd->InvalidateUI(this, id, tabIndex); } // nominated param

	mov	rcx, QWORD PTR ?xyz_blk@@3VXYZ_Desc@@A+40
	lea	rdx, OFFSET FLAT:?xyz_blk@@3VXYZ_Desc@@A
	movzx	r8d, ax
	or	r9d, -1
; File g:\dropbox\github\berconmaps\src\bercongradient.cpp

; 1012 : 				ParamID changing_param = pbXYZ->LastNotifyParamID();

	movzx	ebx, ax
; File c:\program files\autodesk\3ds max 2020 sdk\maxsdk\include\iparamb2.h

; 4058 : 	PB2Export void InvalidateUI(ParamID id, int tabIndex=-1) { cd->InvalidateUI(this, id, tabIndex); } // nominated param

	call	QWORD PTR __imp_?InvalidateUI@ClassDesc2@@QEAAXPEAVParamBlockDesc2@@FH@Z
; File g:\dropbox\github\berconmaps\src\bercongradient.cpp

; 1014 : 				if (changing_param != -1) DiscardTexHandle();

	cmp	bx, -1
	je	SHORT $LN24@NotifyRefC
	mov	rcx, rdi
	call	?DiscardTexHandle@BerconGradient@@QEAAXXZ ; BerconGradient::DiscardTexHandle
$LN24@NotifyRefC:
	mov	rbx, QWORD PTR [rsp+48]
$LN26@NotifyRefC:

; 1018 : 	return(REF_SUCCEED);

	mov	eax, 1

; 1019 : }

	add	rsp, 32					; 00000020H
	pop	rdi
	ret	0
?NotifyRefChanged@BerconGradient@@UEAA?AW4RefResult@@AEBVInterval@@PEAVReferenceTarget@@AEA_KIH@Z ENDP ; BerconGradient::NotifyRefChanged
_TEXT	ENDS
; Function compile flags: /Ogtp
; File g:\dropbox\github\berconmaps\src\bercongradient.cpp
; File c:\program files\autodesk\3ds max 2020 sdk\maxsdk\include\interval.h
; File g:\dropbox\github\berconmaps\src\bercongradient.cpp
;	COMDAT ?Clone@BerconGradient@@UEAAPEAVReferenceTarget@@AEAVRemapDir@@@Z
_TEXT	SEGMENT
$T1 = 32
$T2 = 80
this$ = 80
remap$ = 88
?Clone@BerconGradient@@UEAAPEAVReferenceTarget@@AEAVRemapDir@@@Z PROC ; BerconGradient::Clone, COMDAT

; 946  : RefTargetHandle BerconGradient::Clone(RemapDir &remap) {	

$LN15:
	push	rdi
	push	r14
	push	r15
	sub	rsp, 48					; 00000030H
	mov	QWORD PTR $T1[rsp], -2
	mov	QWORD PTR [rsp+88], rbx
	mov	QWORD PTR [rsp+96], rbp
	mov	QWORD PTR [rsp+104], rsi
	mov	rsi, rdx
	mov	r14, rcx

; 947  : 	int keys = countKeys();

	call	?countKeys@BerconGradient@@QEAAHXZ	; BerconGradient::countKeys
	mov	r15d, eax

; 948  : 
; 949  : 	BerconGradient *mnew = new BerconGradient();

	mov	ecx, 584				; 00000248H
	call	QWORD PTR __imp_??2MaxHeapOperators@@SAPEAX_K@Z
	mov	QWORD PTR $T2[rsp], rax
	xor	ebx, ebx
	test	rax, rax
	je	SHORT $LN6@Clone
	mov	rcx, rax
	call	??0BerconGradient@@QEAA@XZ		; BerconGradient::BerconGradient
	mov	rbp, rax
	jmp	SHORT $LN7@Clone
$LN6@Clone:
	mov	rbp, rbx
$LN7@Clone:

; 950  : 	*((MtlBase*)mnew) = *((MtlBase*)this);	

	mov	rdx, r14
	mov	rcx, rbp
	call	QWORD PTR __imp_??4MtlBase@@QEAAAEAV0@AEBV0@@Z

; 951  : 
; 952  : 	mnew->pblock->SetCount(pb_submaps, keys);		

	mov	rcx, QWORD PTR [rbp+160]
	mov	rax, QWORD PTR [rcx]
	xor	edx, edx
	mov	r8d, r15d
	call	QWORD PTR [rax+1880]

; 953  : 	for (int i = 0; i<keys; i++) {		

	test	r15d, r15d
	jle	SHORT $LN3@Clone
	npad	3
$LL4@Clone:

; 954  : 		mnew->ReplaceReference(i+REF_OFFSET+SUBMAPCOUNT, remap.CloneRef(gradient->getSubtex(i)));

	mov	rdi, QWORD PTR [rsi]
	mov	edx, ebx
	mov	rcx, QWORD PTR [r14+456]
	call	?getSubtex@GradientRamp@@QEAAPEAVTexmap@@H@Z ; GradientRamp::getSubtex
	mov	rdx, rax
	mov	rcx, rsi
	call	QWORD PTR [rdi+8]
	mov	r8, rax
	lea	edx, DWORD PTR [rbx+8]
	mov	r9d, 1
	mov	rcx, rbp
	call	QWORD PTR __imp_?ReplaceReference@ReferenceMaker@@QEAA?AW4RefResult@@HPEAVReferenceTarget@@H@Z

; 953  : 	for (int i = 0; i<keys; i++) {		

	inc	ebx
	cmp	ebx, r15d
	jl	SHORT $LL4@Clone
$LN3@Clone:

; 955  : 	}
; 956  : 
; 957  : 	mnew->ReplaceReference(MAPTEX_REF, remap.CloneRef(p_maptex));

	mov	rax, QWORD PTR [rsi]
	mov	rdx, QWORD PTR [r14+544]
	mov	rcx, rsi
	call	QWORD PTR [rax+8]
	mov	r8, rax
	mov	edx, 5
	lea	r9d, QWORD PTR [rdx-4]
	mov	rcx, rbp
	call	QWORD PTR __imp_?ReplaceReference@ReferenceMaker@@QEAA?AW4RefResult@@HPEAVReferenceTarget@@H@Z

; 958  : 	mnew->ReplaceReference(DISTEX_REF, remap.CloneRef(p_distex));

	mov	rax, QWORD PTR [rsi]
	mov	rdx, QWORD PTR [r14+552]
	mov	rcx, rsi
	call	QWORD PTR [rax+8]
	mov	r8, rax
	mov	edx, 7
	lea	r9d, QWORD PTR [rdx-6]
	mov	rcx, rbp
	call	QWORD PTR __imp_?ReplaceReference@ReferenceMaker@@QEAA?AW4RefResult@@HPEAVReferenceTarget@@H@Z
; File c:\program files\autodesk\3ds max 2020 sdk\maxsdk\include\interval.h

; 126  : 		void SetEmpty() { start = TIME_NegInfinity; end = TIME_NegInfinity; }

	mov	DWORD PTR [rbp+448], -2147483648	; ffffffff80000000H
	mov	DWORD PTR [rbp+452], -2147483648	; ffffffff80000000H
; File g:\dropbox\github\berconmaps\src\bercongradient.cpp

; 961  : 	mnew->ReplaceReference(PBLOCK_REF,remap.CloneRef(pblock));

	mov	rax, QWORD PTR [rsi]
	mov	rdx, QWORD PTR [r14+160]
	mov	rcx, rsi
	call	QWORD PTR [rax+8]
	mov	r8, rax
	mov	edx, 1
	mov	r9d, edx
	mov	rcx, rbp
	call	QWORD PTR __imp_?ReplaceReference@ReferenceMaker@@QEAA?AW4RefResult@@HPEAVReferenceTarget@@H@Z

; 962  : 	mnew->ReplaceReference(COORD_REF,remap.CloneRef(pbXYZ));

	mov	rax, QWORD PTR [rsi]
	mov	rdx, QWORD PTR [r14+168]
	mov	rcx, rsi
	call	QWORD PTR [rax+8]
	mov	r8, rax
	xor	edx, edx
	lea	r9d, QWORD PTR [rdx+1]
	mov	rcx, rbp
	call	QWORD PTR __imp_?ReplaceReference@ReferenceMaker@@QEAA?AW4RefResult@@HPEAVReferenceTarget@@H@Z

; 963  : 	mnew->ReplaceReference(OUTPUT_REF,remap.CloneRef(texout));	

	mov	rax, QWORD PTR [rsi]
	mov	rdx, QWORD PTR [r14+440]
	mov	rcx, rsi
	call	QWORD PTR [rax+8]
	mov	r8, rax
	mov	edx, 2
	lea	r9d, QWORD PTR [rdx-1]
	mov	rcx, rbp
	call	QWORD PTR __imp_?ReplaceReference@ReferenceMaker@@QEAA?AW4RefResult@@HPEAVReferenceTarget@@H@Z

; 964  : //	mnew->ReplaceReference(CURVE_REF,remap.CloneRef(curve));
; 965  : //	mnew->ReplaceReference(CURVEPB_REF,remap.CloneRef(pbCurve));
; 966  : 
; 967  : 	BaseClone(this, mnew, remap);

	mov	rax, QWORD PTR [r14]
	mov	r9, rsi
	mov	r8, rbp
	mov	rdx, r14
	mov	rcx, r14
	call	QWORD PTR [rax+1320]

; 968  : 	return (RefTargetHandle)mnew;

	mov	rax, rbp

; 969  : }

	mov	rbx, QWORD PTR [rsp+88]
	mov	rbp, QWORD PTR [rsp+96]
	mov	rsi, QWORD PTR [rsp+104]
	add	rsp, 48					; 00000030H
	pop	r15
	pop	r14
	pop	rdi
	ret	0
?Clone@BerconGradient@@UEAAPEAVReferenceTarget@@AEAVRemapDir@@@Z ENDP ; BerconGradient::Clone
_TEXT	ENDS
;	COMDAT text$x
text$x	SEGMENT
$T1 = 32
$T2 = 80
this$ = 80
remap$ = 88
?dtor$0@?0??Clone@BerconGradient@@UEAAPEAVReferenceTarget@@AEAVRemapDir@@@Z@4HA PROC ; `BerconGradient::Clone'::`1'::dtor$0
	mov	rcx, QWORD PTR $T2[rdx]
	rex_jmp	QWORD PTR __imp_??3MaxHeapOperators@@SAXPEAX@Z
?dtor$0@?0??Clone@BerconGradient@@UEAAPEAVReferenceTarget@@AEAVRemapDir@@@Z@4HA ENDP ; `BerconGradient::Clone'::`1'::dtor$0
text$x	ENDS
; Function compile flags: /Ogtp
;	COMDAT text$x
text$x	SEGMENT
$T1 = 32
$T2 = 80
this$ = 80
remap$ = 88
?dtor$0@?0??Clone@BerconGradient@@UEAAPEAVReferenceTarget@@AEAVRemapDir@@@Z@4HA PROC ; `BerconGradient::Clone'::`1'::dtor$0
	mov	rcx, QWORD PTR $T2[rdx]
	rex_jmp	QWORD PTR __imp_??3MaxHeapOperators@@SAXPEAX@Z
?dtor$0@?0??Clone@BerconGradient@@UEAAPEAVReferenceTarget@@AEAVRemapDir@@@Z@4HA ENDP ; `BerconGradient::Clone'::`1'::dtor$0
text$x	ENDS
; Function compile flags: /Ogtp
; File g:\dropbox\github\berconmaps\src\bercongradient.h
;	COMDAT ?GetClassName@BerconGradient@@UEAAXAEAVWStr@@@Z
_TEXT	SEGMENT
this$ = 48
s$ = 56
?GetClassName@BerconGradient@@UEAAXAEAVWStr@@@Z PROC	; BerconGradient::GetClassName, COMDAT

; 148  : 		void GetClassName(TSTR& s) {s = GetString(IDS_BERCON_COLOR);}

$LN4:
	push	rbx
	sub	rsp, 32					; 00000020H
	mov	ecx, 145				; 00000091H
	mov	rbx, rdx
	call	?GetString@@YAPEA_WH@Z			; GetString
	mov	rdx, rax
	mov	rcx, rbx
	add	rsp, 32					; 00000020H
	pop	rbx
	rex_jmp	QWORD PTR __imp_??4WStr@@QEAAAEAV0@PEB_W@Z
?GetClassName@BerconGradient@@UEAAXAEAVWStr@@@Z ENDP	; BerconGradient::GetClassName
_TEXT	ENDS
; Function compile flags: /Ogtp
; File g:\dropbox\github\berconmaps\src\bercongradient.h
;	COMDAT ?SuperClassID@BerconGradient@@UEAAKXZ
_TEXT	SEGMENT
this$ = 8
?SuperClassID@BerconGradient@@UEAAKXZ PROC		; BerconGradient::SuperClassID, COMDAT

; 147  : 		SClass_ID SuperClassID() { return TEXMAP_CLASS_ID; }

	mov	eax, 3088				; 00000c10H
	ret	0
?SuperClassID@BerconGradient@@UEAAKXZ ENDP		; BerconGradient::SuperClassID
_TEXT	ENDS
; Function compile flags: /Ogtp
; File g:\dropbox\github\berconmaps\src\bercongradient.h
; File c:\program files\autodesk\3ds max 2020 sdk\maxsdk\include\maxtypes.h
; File g:\dropbox\github\berconmaps\src\bercongradient.h
; File c:\program files\autodesk\3ds max 2020 sdk\maxsdk\include\maxtypes.h
; File g:\dropbox\github\berconmaps\src\bercongradient.h
;	COMDAT ?ClassID@BerconGradient@@UEAA?AVClass_ID@@XZ
_TEXT	SEGMENT
this$ = 8
__$ReturnUdt$ = 16
?ClassID@BerconGradient@@UEAA?AVClass_ID@@XZ PROC	; BerconGradient::ClassID, COMDAT
; File c:\program files\autodesk\3ds max 2020 sdk\maxsdk\include\maxtypes.h

; 160  : 	Class_ID(ulong aa, ulong bb) { a = aa; b = bb; }

	mov	DWORD PTR [rdx], 856603678		; 330ebc1eH
; File g:\dropbox\github\berconmaps\src\bercongradient.h

; 146  : 		Class_ID ClassID() {return BerconGradient_CLASS_ID;}		

	mov	rax, rdx
; File c:\program files\autodesk\3ds max 2020 sdk\maxsdk\include\maxtypes.h

; 160  : 	Class_ID(ulong aa, ulong bb) { a = aa; b = bb; }

	mov	DWORD PTR [rdx+4], 1355780343		; 50cf90f7H
; File g:\dropbox\github\berconmaps\src\bercongradient.h

; 146  : 		Class_ID ClassID() {return BerconGradient_CLASS_ID;}		

	ret	0
?ClassID@BerconGradient@@UEAA?AVClass_ID@@XZ ENDP	; BerconGradient::ClassID
_TEXT	ENDS
; Function compile flags: /Ogtp
; File g:\dropbox\github\berconmaps\src\bercongradient.cpp
; File g:\dropbox\github\berconmaps\src\bercongradient.h
; File g:\dropbox\github\berconmaps\src\bercongradient.cpp
;	COMDAT ?GetActiveTexHandle@BerconGradient@@UEAA_KHAEAVTexHandleMaker@@@Z
_TEXT	SEGMENT
this$ = 80
t$ = 88
thmaker$ = 96
?GetActiveTexHandle@BerconGradient@@UEAA_KHAEAVTexHandleMaker@@@Z PROC ; BerconGradient::GetActiveTexHandle, COMDAT

; 685  : DWORD_PTR BerconGradient::GetActiveTexHandle(TimeValue t, TexHandleMaker& thmaker) {

$LN10:
	mov	QWORD PTR [rsp+16], rbp
	mov	QWORD PTR [rsp+24], rsi
	mov	QWORD PTR [rsp+32], rdi
	push	r14
	sub	rsp, 64					; 00000040H

; 686  : 	if (texHandle) {

	xor	ebp, ebp
	mov	r14, r8
	mov	esi, edx
	mov	rdi, rcx
	cmp	QWORD PTR [rcx+568], rbp
	je	SHORT $LN7@GetActiveT

; 687  : 		if (texHandleValid.InInterval(t))

	add	rcx, 576				; 00000240H
	call	QWORD PTR __imp_?InInterval@Interval@@QEBAHH@Z

; 688  : 			return texHandle->GetHandle();

	mov	rcx, QWORD PTR [rdi+568]
	test	eax, eax
	je	SHORT $LN3@GetActiveT
	mov	rax, QWORD PTR [rcx]
	call	QWORD PTR [rax+8]
	jmp	SHORT $LN1@GetActiveT
$LN3@GetActiveT:
; File g:\dropbox\github\berconmaps\src\bercongradient.h

; 140  : 		void DiscardTexHandle() { if (texHandle) { texHandle->DeleteThis(); texHandle = NULL; } }

	test	rcx, rcx
	je	SHORT $LN7@GetActiveT
	mov	rax, QWORD PTR [rcx]
	call	QWORD PTR [rax+16]
	mov	QWORD PTR [rdi+568], rbp
$LN7@GetActiveT:
; File g:\dropbox\github\berconmaps\src\bercongradient.cpp

; 691  : 	texHandle = thmaker.MakeHandle(GetVPDisplayDIB(t,thmaker,texHandleValid));

	mov	rax, QWORD PTR [rdi]
	lea	r9, QWORD PTR [rdi+576]
	mov	DWORD PTR [rsp+48], ebp
	mov	r8, r14
	mov	QWORD PTR [rsp+80], rbx
	mov	edx, esi
	mov	rbx, QWORD PTR [r14]
	mov	rcx, rdi
	mov	DWORD PTR [rsp+40], ebp
	mov	DWORD PTR [rsp+32], ebp
	call	QWORD PTR [rax+1536]
	mov	rdx, rax
	mov	rcx, r14
	call	QWORD PTR [rbx+32]
	mov	QWORD PTR [rdi+568], rax

; 692  : 	return texHandle->GetHandle();

	mov	rcx, rax
	mov	rdx, QWORD PTR [rax]
	call	QWORD PTR [rdx+8]
	mov	rbx, QWORD PTR [rsp+80]
$LN1@GetActiveT:

; 693  : }

	mov	rbp, QWORD PTR [rsp+88]
	mov	rsi, QWORD PTR [rsp+96]
	mov	rdi, QWORD PTR [rsp+104]
	add	rsp, 64					; 00000040H
	pop	r14
	ret	0
?GetActiveTexHandle@BerconGradient@@UEAA_KHAEAVTexHandleMaker@@@Z ENDP ; BerconGradient::GetActiveTexHandle
_TEXT	ENDS
; Function compile flags: /Ogtp
; File g:\dropbox\github\berconmaps\src\bercongradient.h
;	COMDAT ?ActivateTexDisplay@BerconGradient@@UEAAXH@Z
_TEXT	SEGMENT
this$ = 48
onoff$ = 56
?ActivateTexDisplay@BerconGradient@@UEAAXH@Z PROC	; BerconGradient::ActivateTexDisplay, COMDAT

; 142  : 		void ActivateTexDisplay(BOOL onoff) { if (!onoff) DiscardTexHandle(); }

$LN9:
	test	edx, edx
	jne	SHORT $LN7@ActivateTe
	push	rbx
	sub	rsp, 32					; 00000020H
	mov	rbx, rcx

; 140  : 		void DiscardTexHandle() { if (texHandle) { texHandle->DeleteThis(); texHandle = NULL; } }

	mov	rcx, QWORD PTR [rcx+568]
	test	rcx, rcx
	je	SHORT $LN5@ActivateTe
	mov	rax, QWORD PTR [rcx]
	call	QWORD PTR [rax+16]
	mov	QWORD PTR [rbx+568], 0
$LN5@ActivateTe:

; 142  : 		void ActivateTexDisplay(BOOL onoff) { if (!onoff) DiscardTexHandle(); }

	add	rsp, 32					; 00000020H
	pop	rbx
$LN7@ActivateTe:
	ret	0
?ActivateTexDisplay@BerconGradient@@UEAAXH@Z ENDP	; BerconGradient::ActivateTexDisplay
_TEXT	ENDS
; Function compile flags: /Ogtp
; File g:\dropbox\github\berconmaps\src\bercongradient.h
;	COMDAT ?SupportTexDisplay@BerconGradient@@UEAAHXZ
_TEXT	SEGMENT
this$ = 8
?SupportTexDisplay@BerconGradient@@UEAAHXZ PROC		; BerconGradient::SupportTexDisplay, COMDAT

; 141  : 		BOOL SupportTexDisplay() { return TRUE; }

	mov	eax, 1
	ret	0
?SupportTexDisplay@BerconGradient@@UEAAHXZ ENDP		; BerconGradient::SupportTexDisplay
_TEXT	ENDS
; Function compile flags: /Ogtp
; File g:\dropbox\github\berconmaps\src\bercongradient.h
;	COMDAT ?DiscardTexHandle@BerconGradient@@QEAAXXZ
_TEXT	SEGMENT
this$ = 48
?DiscardTexHandle@BerconGradient@@QEAAXXZ PROC		; BerconGradient::DiscardTexHandle, COMDAT

; 140  : 		void DiscardTexHandle() { if (texHandle) { texHandle->DeleteThis(); texHandle = NULL; } }

$LN5:
	push	rbx
	sub	rsp, 32					; 00000020H
	mov	rbx, rcx
	mov	rcx, QWORD PTR [rcx+568]
	test	rcx, rcx
	je	SHORT $LN2@DiscardTex
	mov	rax, QWORD PTR [rcx]
	call	QWORD PTR [rax+16]
	mov	QWORD PTR [rbx+568], 0
$LN2@DiscardTex:
	add	rsp, 32					; 00000020H
	pop	rbx
	ret	0
?DiscardTexHandle@BerconGradient@@QEAAXXZ ENDP		; BerconGradient::DiscardTexHandle
_TEXT	ENDS
; Function compile flags: /Ogtp
; File g:\dropbox\github\berconmaps\src\bercongradient.h
;	COMDAT ?SubNumToRefNum@BerconGradient@@UEAAHH@Z
_TEXT	SEGMENT
this$ = 8
subNum$ = 16
?SubNumToRefNum@BerconGradient@@UEAAHH@Z PROC		; BerconGradient::SubNumToRefNum, COMDAT

; 133  : 		int SubNumToRefNum(int subNum) { return subNum; }		

	mov	eax, edx
	ret	0
?SubNumToRefNum@BerconGradient@@UEAAHH@Z ENDP		; BerconGradient::SubNumToRefNum
_TEXT	ENDS
; Function compile flags: /Ogtp
; File g:\dropbox\github\berconmaps\src\bercongradient.cpp
; File c:\program files\autodesk\3ds max 2020 sdk\maxsdk\include\point3.h
; File g:\dropbox\github\berconmaps\src\bercongradient.cpp
; File c:\program files\autodesk\3ds max 2020 sdk\maxsdk\include\point3.h
; File g:\dropbox\github\berconmaps\src\bercongradient.cpp
; File c:\program files\autodesk\3ds max 2020 sdk\maxsdk\include\point3.h
; File g:\dropbox\github\berconmaps\src\bercongradient.cpp
; File c:\program files\autodesk\3ds max 2020 sdk\maxsdk\include\point3.h
; File g:\dropbox\github\berconmaps\src\bercongradient.cpp
; File c:\program files\autodesk\3ds max 2020 sdk\maxsdk\include\point3.h
; File g:\dropbox\github\berconmaps\src\bercongradient.cpp
; File c:\program files\autodesk\3ds max 2020 sdk\maxsdk\include\point3.h
; File g:\dropbox\github\berconmaps\src\bercongradient.cpp
; File c:\program files\autodesk\3ds max 2020 sdk\maxsdk\include\acolor.h
; File g:\dropbox\github\berconmaps\src\bercongradient.cpp
; File c:\program files\autodesk\3ds max 2020 sdk\maxsdk\include\acolor.h
; File c:\program files\autodesk\3ds max 2020 sdk\maxsdk\include\point3.h
; File g:\dropbox\github\berconmaps\src\bercongradient.cpp
; File c:\program files\autodesk\3ds max 2020 sdk\maxsdk\include\point3.h
; File g:\dropbox\github\berconmaps\src\bercongradient.cpp
; File c:\program files\autodesk\3ds max 2020 sdk\maxsdk\include\point3.h
; File g:\dropbox\github\berconmaps\src\bercongradient.cpp
; File c:\program files\autodesk\3ds max 2020 sdk\maxsdk\include\point3.h
; File g:\dropbox\github\berconmaps\src\bercongradient.cpp
; File c:\program files\autodesk\3ds max 2020 sdk\maxsdk\include\point3.h
; File g:\dropbox\github\berconmaps\src\bercongradient.cpp
; File c:\program files\autodesk\3ds max 2020 sdk\maxsdk\include\point3.h
; File g:\dropbox\github\berconmaps\src\bercongradient.cpp
; File c:\program files\autodesk\3ds max 2020 sdk\maxsdk\include\acolor.h
; File g:\dropbox\github\berconmaps\src\bercongradient.cpp
; File c:\program files\autodesk\3ds max 2020 sdk\maxsdk\include\point3.h
; File g:\dropbox\github\berconmaps\src\bercongradient.cpp
; File c:\program files\autodesk\3ds max 2020 sdk\maxsdk\include\point3.h
; File g:\dropbox\github\berconmaps\src\bercongradient.cpp
; File c:\program files\autodesk\3ds max 2020 sdk\maxsdk\include\point3.h
; File g:\dropbox\github\berconmaps\src\bercongradient.cpp
;	COMDAT ?EvalNormalPerturb@BerconGradient@@UEAA?AVPoint3@@AEAVShadeContext@@@Z
_TEXT	SEGMENT
normal$ = 48
$T1 = 64
$T2 = 64
$T3 = 64
$T4 = 64
$T5 = 64
$T6 = 64
p$ = 80
$T7 = 96
$T8 = 96
$T9 = 96
$T10 = 112
$T11 = 112
$T12 = 112
$T13 = 112
$T14 = 112
M$ = 128
MP$ = 168
d$ = 368
this$ = 368
__$ReturnUdt$ = 376
sc$ = 384
?EvalNormalPerturb@BerconGradient@@UEAA?AVPoint3@@AEAVShadeContext@@@Z PROC ; BerconGradient::EvalNormalPerturb, COMDAT

; 1379 : Point3 BerconGradient::EvalNormalPerturb(ShadeContext& sc) {

$LN102:
	push	rbp
	push	rsi
	push	r12
	push	r13
	push	r15
	lea	rbp, QWORD PTR [rsp-64]
	sub	rsp, 320				; 00000140H
; File c:\program files\autodesk\3ds max 2020 sdk\maxsdk\include\point3.h

; 67   : 		x = X;

	xor	r12d, r12d
; File g:\dropbox\github\berconmaps\src\bercongradient.cpp

; 1379 : Point3 BerconGradient::EvalNormalPerturb(ShadeContext& sc) {

	mov	r13, r8
; File c:\program files\autodesk\3ds max 2020 sdk\maxsdk\include\point3.h

; 67   : 		x = X;

	mov	QWORD PTR [rdx], r12
; File g:\dropbox\github\berconmaps\src\bercongradient.cpp

; 1379 : Point3 BerconGradient::EvalNormalPerturb(ShadeContext& sc) {

	mov	r15, rdx
; File c:\program files\autodesk\3ds max 2020 sdk\maxsdk\include\point3.h

; 69   : 		z = Z;

	mov	DWORD PTR [rdx+8], r12d
; File g:\dropbox\github\berconmaps\src\bercongradient.cpp

; 1379 : Point3 BerconGradient::EvalNormalPerturb(ShadeContext& sc) {

	mov	rsi, rcx

; 1380 : 	// Returned vector
; 1381 : 	Point3 res(0.0f,0.0f,0.0f);
; 1382 : 	if (p_type != 0) return res; // Bump only works for UVW, otherwise we don't really know the derivative of the gradient

	cmp	DWORD PTR [rcx+480], r12d
	jne	$LN98@EvalNormal

; 1383 : 	
; 1384 : 	// Use cache
; 1385 : 	if (sc.GetCache(this,res)) 

	mov	rax, QWORD PTR [r8]
	mov	r8, rdx
	mov	rdx, rcx
	mov	rcx, r13
	call	QWORD PTR [rax+488]
	test	eax, eax
	jne	$LN98@EvalNormal

; 1386 : 		return res;
; 1387 : 	if (gbufID) sc.SetGBufferID(gbufID);

	mov	edx, DWORD PTR [rsi+128]
	mov	QWORD PTR [rsp+376], rbx
	mov	QWORD PTR [rsp+384], rdi
	mov	QWORD PTR [rsp+392], r14
	vmovaps	XMMWORD PTR [rsp+304], xmm6
	test	edx, edx
	je	SHORT $LN7@EvalNormal
	mov	rax, QWORD PTR [r13]
	mov	rcx, r13
	call	QWORD PTR [rax+464]
$LN7@EvalNormal:

; 1391 : 	Point3 M[3];

	vxorps	xmm6, xmm6, xmm6
	mov	r14d, 3
	lea	rdi, QWORD PTR M$[rbp-256]
; File c:\program files\autodesk\3ds max 2020 sdk\maxsdk\include\point3.h

; 59   : 	float x = 0.f;

	vmovss	DWORD PTR p$[rsp], xmm6

; 60   : 	float y = 0.f;

	vmovss	DWORD PTR p$[rsp+4], xmm6

; 61   : 	float z = 0.f;

	vmovss	DWORD PTR p$[rsp+8], xmm6
; File g:\dropbox\github\berconmaps\src\bercongradient.cpp

; 1391 : 	Point3 M[3];

	mov	ebx, r14d
	npad	6
$LL22@EvalNormal:
	mov	rcx, rdi
	call	QWORD PTR __imp_??0Point3@@QEAA@XZ
	add	rdi, 12
	sub	rbx, 1
	jne	SHORT $LL22@EvalNormal

; 1392 : 
; 1393 : 	if (!berconXYZ.get(sc, p, M)) return res;

	lea	rcx, QWORD PTR [rsi+176]
	mov	rdx, r13
	lea	r9, QWORD PTR M$[rbp-256]
	lea	r8, QWORD PTR p$[rsp]
	call	?get@BerconXYZ@@QEAAHAEAVShadeContext@@AEAVPoint3@@PEAV3@@Z ; BerconXYZ::get
	mov	rdi, QWORD PTR [rsp+384]
	test	eax, eax
	je	$LN100@EvalNormal

; 1394 : 	
; 1395 : 	// Distortion
; 1396 : 	float dist = 0.f;
; 1397 : 	if (p_disOn && p_distex) dist = (1.f - p_distex->EvalMono(sc) * 2.f) * p_disStr;

	vmovaps	XMMWORD PTR [rsp+288], xmm7
	vmovaps	XMMWORD PTR [rsp+208], xmm12
	vmovss	xmm12, DWORD PTR __real@3f800000
	vmovaps	xmm7, xmm6
	cmp	DWORD PTR [rsi+532], r12d
	je	SHORT $LN9@EvalNormal
	mov	rcx, QWORD PTR [rsi+552]
	test	rcx, rcx
	je	SHORT $LN9@EvalNormal
	mov	rax, QWORD PTR [rcx]
	mov	rdx, r13
	call	QWORD PTR [rax+1512]
	vmulss	xmm1, xmm0, DWORD PTR __real@40000000
	vsubss	xmm2, xmm12, xmm1
	vmulss	xmm7, xmm2, DWORD PTR [rsi+536]
$LN9@EvalNormal:
; File c:\program files\autodesk\3ds max 2020 sdk\maxsdk\include\point3.h

; 85   : 		x = a.x;

	vmovss	xmm0, DWORD PTR p$[rsp]

; 86   : 		y = a.y;

	vmovss	xmm1, DWORD PTR p$[rsp+4]
	vmovss	DWORD PTR $T10[rsp], xmm0

; 87   : 		z = a.z;

	vmovss	xmm0, DWORD PTR p$[rsp+8]
; File g:\dropbox\github\berconmaps\src\bercongradient.cpp

; 1400 : 	float d = getGradientValueUVW(p) + dist;	

	lea	rdx, QWORD PTR $T10[rsp]
	mov	rcx, rsi
; File c:\program files\autodesk\3ds max 2020 sdk\maxsdk\include\point3.h

; 87   : 		z = a.z;

	vmovss	DWORD PTR $T10[rsp+8], xmm0
	vmovss	DWORD PTR $T10[rsp+4], xmm1
; File g:\dropbox\github\berconmaps\src\bercongradient.cpp

; 1400 : 	float d = getGradientValueUVW(p) + dist;	

	call	?getGradientValueUVW@BerconGradient@@QEAAMVPoint3@@@Z ; BerconGradient::getGradientValueUVW
	vaddss	xmm1, xmm0, xmm7

; 1401 : 	if (!limitRange(d)) return res;

	lea	rdx, QWORD PTR d$[rbp-256]
	mov	rcx, rsi
	vmovss	DWORD PTR d$[rbp-256], xmm1
	call	?limitRange@BerconGradient@@QEAAHAEAM@Z	; BerconGradient::limitRange
	test	eax, eax
	je	$LN99@EvalNormal

; 1402 : //	if (p_curveOn) d = curve->GetControlCurve(0)->GetValue(sc.CurTime(), d);		
; 1403 : 	d = Intens(gradient->getColor(d, sc));

	vmovss	xmm2, DWORD PTR d$[rbp-256]
	mov	rcx, QWORD PTR [rsi+456]
	lea	rdx, QWORD PTR $T14[rsp]
	vmovaps	XMMWORD PTR [rsp+272], xmm8
	mov	r9, r13
	vmovaps	XMMWORD PTR [rsp+256], xmm9
	vmovaps	XMMWORD PTR [rsp+224], xmm11
	call	?getColor@GradientRamp@@QEAA?AVAColor@@MAEAVShadeContext@@@Z ; GradientRamp::getColor
; File c:\program files\autodesk\3ds max 2020 sdk\maxsdk\include\acolor.h

; 334  : static inline float Intens(const AColor& c) {   return (c.r+c.g+c.b)/3.0f; }

	vmovss	xmm9, DWORD PTR __real@40400000
; File g:\dropbox\github\berconmaps\src\bercongradient.cpp

; 1420 : 		Point3 MP[3];

	lea	rbx, QWORD PTR MP$[rbp-256]
; File c:\program files\autodesk\3ds max 2020 sdk\maxsdk\include\acolor.h

; 334  : static inline float Intens(const AColor& c) {   return (c.r+c.g+c.b)/3.0f; }

	vmovss	xmm0, DWORD PTR [rax+4]
	vaddss	xmm1, xmm0, DWORD PTR [rax]
	vaddss	xmm2, xmm1, DWORD PTR [rax+8]
	vdivss	xmm11, xmm2, xmm9
; File c:\program files\autodesk\3ds max 2020 sdk\maxsdk\include\point3.h

; 59   : 	float x = 0.f;

	vmovss	DWORD PTR normal$[rsp], xmm6

; 60   : 	float y = 0.f;

	vmovss	DWORD PTR normal$[rsp+4], xmm6

; 61   : 	float z = 0.f;

	vmovss	DWORD PTR normal$[rsp+8], xmm6
$LL32@EvalNormal:
	mov	rcx, rbx
	call	QWORD PTR __imp_??0Point3@@QEAA@XZ
	add	rbx, 12
	sub	r14, 1
	jne	SHORT $LL32@EvalNormal

; 67   : 		x = X;

	vmovss	xmm8, DWORD PTR __real@3a83126f
; File g:\dropbox\github\berconmaps\src\bercongradient.cpp

; 1421 : 		MP[0] = Point3(DELTA,0.f,0.f); MP[1] = Point3(0.f,DELTA,0.f); MP[2] = Point3(0.f,DELTA,0.f);

	vunpcklps xmm0, xmm8, xmm6
	vmovsd	QWORD PTR MP$[rbp-256], xmm0
; File c:\program files\autodesk\3ds max 2020 sdk\maxsdk\include\point3.h

; 69   : 		z = Z;

	vmovss	DWORD PTR $T6[rsp+8], xmm6
; File g:\dropbox\github\berconmaps\src\bercongradient.cpp

; 1421 : 		MP[0] = Point3(DELTA,0.f,0.f); MP[1] = Point3(0.f,DELTA,0.f); MP[2] = Point3(0.f,DELTA,0.f);

	mov	eax, DWORD PTR $T6[rsp+8]
; File c:\program files\autodesk\3ds max 2020 sdk\maxsdk\include\point3.h

; 67   : 		x = X;

	lea	rbx, QWORD PTR MP$[rbp-248]
; File g:\dropbox\github\berconmaps\src\bercongradient.cpp

; 1421 : 		MP[0] = Point3(DELTA,0.f,0.f); MP[1] = Point3(0.f,DELTA,0.f); MP[2] = Point3(0.f,DELTA,0.f);

	vunpcklps xmm0, xmm6, xmm8
; File c:\program files\autodesk\3ds max 2020 sdk\maxsdk\include\point3.h

; 69   : 		z = Z;

	vmovss	DWORD PTR $T5[rsp+8], xmm6
; File g:\dropbox\github\berconmaps\src\bercongradient.cpp

; 1421 : 		MP[0] = Point3(DELTA,0.f,0.f); MP[1] = Point3(0.f,DELTA,0.f); MP[2] = Point3(0.f,DELTA,0.f);

	mov	DWORD PTR MP$[rbp-248], eax
	mov	eax, DWORD PTR $T5[rsp+8]
	vmovsd	QWORD PTR MP$[rbp-244], xmm0
	vunpcklps xmm0, xmm6, xmm8
; File c:\program files\autodesk\3ds max 2020 sdk\maxsdk\include\point3.h

; 69   : 		z = Z;

	vmovss	DWORD PTR $T4[rsp+8], xmm6
; File g:\dropbox\github\berconmaps\src\bercongradient.cpp

; 1421 : 		MP[0] = Point3(DELTA,0.f,0.f); MP[1] = Point3(0.f,DELTA,0.f); MP[2] = Point3(0.f,DELTA,0.f);

	mov	DWORD PTR MP$[rbp-236], eax
	mov	eax, DWORD PTR $T4[rsp+8]
	vmovsd	QWORD PTR MP$[rbp-232], xmm0
	mov	DWORD PTR MP$[rbp-224], eax
$LL4@EvalNormal:
; File c:\program files\autodesk\3ds max 2020 sdk\maxsdk\include\point3.h

; 316  : __forceinline Point3 Point3::operator+(const Point3& b) const { return (Point3(x + b.x, y + b.y, z + b.z)); }

	vmovss	xmm0, DWORD PTR p$[rsp]
	vaddss	xmm4, xmm0, DWORD PTR [rbx-8]
	vmovss	xmm0, DWORD PTR p$[rsp+8]
	vaddss	xmm2, xmm0, DWORD PTR [rbx]
	vmovss	xmm1, DWORD PTR p$[rsp+4]
	vaddss	xmm3, xmm1, DWORD PTR [rbx-4]
	vmovss	DWORD PTR $T3[rsp+8], xmm2
; File g:\dropbox\github\berconmaps\src\bercongradient.cpp

; 1423 : 			normal[i] = getGradientValueUVW(p+MP[i]) + dist;

	mov	eax, DWORD PTR $T3[rsp+8]
	lea	rdx, QWORD PTR $T7[rsp]
	vunpcklps xmm0, xmm4, xmm3
	mov	rcx, rsi
	mov	DWORD PTR $T7[rsp+8], eax
	vmovsd	QWORD PTR $T7[rsp], xmm0
	call	?getGradientValueUVW@BerconGradient@@QEAAMVPoint3@@@Z ; BerconGradient::getGradientValueUVW
	mov	edx, r12d
	lea	rcx, QWORD PTR normal$[rsp]
	vaddss	xmm6, xmm0, xmm7
	call	QWORD PTR __imp_??APoint3@@QEAAAEAMH@Z

; 1424 : 			if (!limitRange(normal[i])) return res;

	mov	edx, r12d
	lea	rcx, QWORD PTR normal$[rsp]
	vmovss	DWORD PTR [rax], xmm6
	call	QWORD PTR __imp_??APoint3@@QEAAAEAMH@Z
	mov	rdx, rax
	mov	rcx, rsi
	call	?limitRange@BerconGradient@@QEAAHAEAM@Z	; BerconGradient::limitRange
	test	eax, eax
	je	$LN78@EvalNormal

; 1427 : 			normal[i] = Intens(gradient->getColor(normal[i], sc));

	mov	edx, r12d
	lea	rcx, QWORD PTR normal$[rsp]
	call	QWORD PTR __imp_??APoint3@@QEAAAEAMH@Z
	mov	rcx, QWORD PTR [rsi+456]
	lea	rdx, QWORD PTR $T13[rsp]
	mov	r9, r13
	vmovss	xmm2, DWORD PTR [rax]
	call	?getColor@GradientRamp@@QEAA?AVAColor@@MAEAVShadeContext@@@Z ; GradientRamp::getColor
	mov	edx, r12d
	lea	rcx, QWORD PTR normal$[rsp]
; File c:\program files\autodesk\3ds max 2020 sdk\maxsdk\include\acolor.h

; 334  : static inline float Intens(const AColor& c) {   return (c.r+c.g+c.b)/3.0f; }

	vmovss	xmm0, DWORD PTR [rax+4]
	vaddss	xmm1, xmm0, DWORD PTR [rax]
	vaddss	xmm2, xmm1, DWORD PTR [rax+8]
	vdivss	xmm6, xmm2, xmm9
; File g:\dropbox\github\berconmaps\src\bercongradient.cpp

; 1427 : 			normal[i] = Intens(gradient->getColor(normal[i], sc));

	call	QWORD PTR __imp_??APoint3@@QEAAAEAMH@Z

; 1428 : 			normal[i] = (normal[i] - d) / DELTA;

	mov	edx, r12d
	lea	rcx, QWORD PTR normal$[rsp]
	vmovss	DWORD PTR [rax], xmm6
	call	QWORD PTR __imp_??APoint3@@QEAAAEAMH@Z
	mov	edx, r12d
	lea	rcx, QWORD PTR normal$[rsp]
	vmovss	xmm6, DWORD PTR [rax]
	call	QWORD PTR __imp_??APoint3@@QEAAAEAMH@Z
	vsubss	xmm0, xmm6, xmm11
	inc	r12d
	add	rbx, 12
	vdivss	xmm1, xmm0, xmm8
	vmovss	DWORD PTR [rax], xmm1
	cmp	r12d, 3
	jl	$LL4@EvalNormal

; 1437 : 	res = gradient->getBump(p_reverse?1.f-d:d, p_reverse?normal:-normal, sc);

	cmp	DWORD PTR [rsi+516], 0
; File c:\program files\autodesk\3ds max 2020 sdk\maxsdk\include\point3.h

; 335  : __forceinline Point3 operator*(const Point3& a, float f) { return (Point3(a.x * f, a.y * f, a.z * f)); }

	vmovss	xmm2, DWORD PTR normal$[rsp+8]
	vmovss	xmm3, DWORD PTR normal$[rsp+4]
	vmulss	xmm9, xmm2, DWORD PTR M$[rbp-228]
	vmulss	xmm5, xmm3, DWORD PTR M$[rbp-236]
	vmulss	xmm8, xmm2, DWORD PTR M$[rbp-224]
	vmulss	xmm7, xmm3, DWORD PTR M$[rbp-244]
	vmulss	xmm6, xmm3, DWORD PTR M$[rbp-240]
	vmovaps	XMMWORD PTR [rsp+240], xmm10
	vmulss	xmm10, xmm2, DWORD PTR M$[rbp-232]
	vmovss	xmm2, DWORD PTR normal$[rsp]
	vmulss	xmm4, xmm2, DWORD PTR M$[rbp-256]
	vmulss	xmm3, xmm2, DWORD PTR M$[rbp-252]
	vmulss	xmm2, xmm2, DWORD PTR M$[rbp-248]

; 316  : __forceinline Point3 Point3::operator+(const Point3& b) const { return (Point3(x + b.x, y + b.y, z + b.z)); }

	vaddss	xmm0, xmm2, xmm5
	vaddss	xmm1, xmm4, xmm7
	vaddss	xmm4, xmm1, xmm10
	vmovaps	xmm10, XMMWORD PTR [rsp+240]
	vaddss	xmm3, xmm3, xmm6
	vaddss	xmm2, xmm0, xmm8
	vaddss	xmm5, xmm3, xmm9
	vmovss	DWORD PTR normal$[rsp+8], xmm2
	vmovss	DWORD PTR normal$[rsp], xmm4
	vmovss	DWORD PTR normal$[rsp+4], xmm5
; File g:\dropbox\github\berconmaps\src\bercongradient.cpp

; 1437 : 	res = gradient->getBump(p_reverse?1.f-d:d, p_reverse?normal:-normal, sc);

	je	SHORT $LN13@EvalNormal
	mov	eax, DWORD PTR normal$[rsp+8]
	vmovsd	xmm0, QWORD PTR normal$[rsp]
	mov	DWORD PTR $T9[rsp+8], eax
	lea	rax, QWORD PTR $T9[rsp]
	vmovsd	QWORD PTR $T9[rsp], xmm0
	jmp	SHORT $LN14@EvalNormal
$LN13@EvalNormal:
	lea	rdx, QWORD PTR $T8[rsp]
	lea	rcx, QWORD PTR normal$[rsp]
	call	QWORD PTR __imp_??GPoint3@@QEBA?AV0@XZ
$LN14@EvalNormal:
	cmp	DWORD PTR [rsi+516], 0
	je	SHORT $LN15@EvalNormal
	vsubss	xmm11, xmm12, xmm11
$LN15@EvalNormal:
	vmovsd	xmm0, QWORD PTR [rax]
	mov	eax, DWORD PTR [rax+8]
	lea	r9, QWORD PTR $T2[rsp]
	mov	rcx, QWORD PTR [rsi+456]
	lea	rdx, QWORD PTR $T12[rsp]
	vmovaps	xmm2, xmm11
	vmovsd	QWORD PTR $T2[rsp], xmm0
	mov	DWORD PTR $T2[rsp+8], eax
	mov	QWORD PTR [rsp+32], r13
	call	?getBump@GradientRamp@@QEAA?AVPoint3@@MV2@AEAVShadeContext@@@Z ; GradientRamp::getBump

; 1440 : 	res = texout->Filter(res);

	lea	r8, QWORD PTR $T1[rsp]
	lea	rdx, QWORD PTR $T11[rsp]
	vmovsd	xmm0, QWORD PTR [rax]
	vmovsd	QWORD PTR [r15], xmm0
	mov	eax, DWORD PTR [rax+8]
	mov	DWORD PTR [r15+8], eax
; File c:\program files\autodesk\3ds max 2020 sdk\maxsdk\include\point3.h

; 85   : 		x = a.x;

	vmovss	xmm0, DWORD PTR [r15]
; File g:\dropbox\github\berconmaps\src\bercongradient.cpp

; 1440 : 	res = texout->Filter(res);

	mov	rcx, QWORD PTR [rsi+440]
; File c:\program files\autodesk\3ds max 2020 sdk\maxsdk\include\point3.h

; 86   : 		y = a.y;

	vmovss	xmm1, DWORD PTR [r15+4]
	vmovss	DWORD PTR $T1[rsp], xmm0

; 87   : 		z = a.z;

	vmovss	xmm0, DWORD PTR [r15+8]
	vmovss	DWORD PTR $T1[rsp+8], xmm0
	vmovss	DWORD PTR $T1[rsp+4], xmm1
; File g:\dropbox\github\berconmaps\src\bercongradient.cpp

; 1440 : 	res = texout->Filter(res);

	mov	rax, QWORD PTR [rcx]
	call	QWORD PTR [rax+1504]

; 1441 : 
; 1442 : 	// Shading ready, return results	
; 1443 : 	sc.PutCache(this,res);

	mov	r8, r15
	mov	rdx, rsi
	mov	rcx, r13
	vmovsd	xmm0, QWORD PTR [rax]
	vmovsd	QWORD PTR [r15], xmm0
	mov	eax, DWORD PTR [rax+8]
	mov	DWORD PTR [r15+8], eax
	mov	rax, QWORD PTR [r13]
	call	QWORD PTR [rax+512]
$LN78@EvalNormal:
	vmovaps	xmm11, XMMWORD PTR [rsp+224]
	vmovaps	xmm9, XMMWORD PTR [rsp+256]
	vmovaps	xmm8, XMMWORD PTR [rsp+272]
$LN99@EvalNormal:
	vmovaps	xmm7, XMMWORD PTR [rsp+288]
	vmovaps	xmm12, XMMWORD PTR [rsp+208]
$LN100@EvalNormal:
	mov	r14, QWORD PTR [rsp+392]
	mov	rbx, QWORD PTR [rsp+376]
	vmovaps	xmm6, XMMWORD PTR [rsp+304]
$LN98@EvalNormal:

; 1424 : 			if (!limitRange(normal[i])) return res;

	mov	rax, r15

; 1444 : 	return res;
; 1445 : }

	add	rsp, 320				; 00000140H
	pop	r15
	pop	r13
	pop	r12
	pop	rsi
	pop	rbp
	ret	0
?EvalNormalPerturb@BerconGradient@@UEAA?AVPoint3@@AEAVShadeContext@@@Z ENDP ; BerconGradient::EvalNormalPerturb
_TEXT	ENDS
; Function compile flags: /Ogtp
; File g:\dropbox\github\berconmaps\src\bercongradient.cpp
; File c:\program files\autodesk\3ds max 2020 sdk\maxsdk\include\acolor.h
; File g:\dropbox\github\berconmaps\src\bercongradient.cpp
;	COMDAT ?EvalMono@BerconGradient@@UEAAMAEAVShadeContext@@@Z
_TEXT	SEGMENT
$T1 = 32
this$ = 64
sc$ = 72
?EvalMono@BerconGradient@@UEAAMAEAVShadeContext@@@Z PROC ; BerconGradient::EvalMono, COMDAT

; 1373 : float BerconGradient::EvalMono(ShadeContext& sc) {

$LN6:
	sub	rsp, 56					; 00000038H

; 1374 : 	return Intens(EvalColor(sc));

	mov	rax, QWORD PTR [rcx]
	mov	r8, rdx
	lea	rdx, QWORD PTR $T1[rsp]
	call	QWORD PTR [rax+1504]
; File c:\program files\autodesk\3ds max 2020 sdk\maxsdk\include\acolor.h

; 334  : static inline float Intens(const AColor& c) {   return (c.r+c.g+c.b)/3.0f; }

	vmovss	xmm0, DWORD PTR [rax+4]
	vaddss	xmm1, xmm0, DWORD PTR [rax]
	vaddss	xmm2, xmm1, DWORD PTR [rax+8]
	vdivss	xmm0, xmm2, DWORD PTR __real@40400000
; File g:\dropbox\github\berconmaps\src\bercongradient.cpp

; 1375 : }

	add	rsp, 56					; 00000038H
	ret	0
?EvalMono@BerconGradient@@UEAAMAEAVShadeContext@@@Z ENDP ; BerconGradient::EvalMono
_TEXT	ENDS
; Function compile flags: /Ogtp
; File g:\dropbox\github\berconmaps\src\bercongradient.cpp
; File c:\program files\autodesk\3ds max 2020 sdk\maxsdk\include\acolor.h
; File g:\dropbox\github\berconmaps\src\bercongradient.cpp
; File c:\program files\autodesk\3ds max 2020 sdk\maxsdk\include\acolor.h
; File g:\dropbox\github\berconmaps\src\bercongradient.cpp
; File c:\program files\autodesk\3ds max 2020 sdk\maxsdk\include\acolor.h
; File g:\dropbox\github\berconmaps\src\bercongradient.cpp
; File c:\program files\autodesk\3ds max 2020 sdk\maxsdk\include\point3.h
; File g:\dropbox\github\berconmaps\src\bercongradient.cpp
; File c:\program files\autodesk\3ds max 2020 sdk\maxsdk\include\point3.h
; File g:\dropbox\github\berconmaps\src\bercongradient.cpp
; File c:\program files\autodesk\3ds max 2020 sdk\maxsdk\include\point3.h
; File g:\dropbox\github\berconmaps\src\bercongradient.cpp
;	COMDAT ?EvalColor@BerconGradient@@UEAA?AVAColor@@AEAVShadeContext@@@Z
_TEXT	SEGMENT
$T1 = 32
p$2 = 32
$T3 = 48
$T4 = 48
$T5 = 48
this$ = 112
d$ = 120
__$ReturnUdt$ = 120
sc$ = 128
?EvalColor@BerconGradient@@UEAA?AVAColor@@AEAVShadeContext@@@Z PROC ; BerconGradient::EvalColor, COMDAT

; 1331 : AColor BerconGradient::EvalColor(ShadeContext& sc) {

$LN26:
	mov	QWORD PTR [rsp+8], rbx
	mov	QWORD PTR [rsp+24], rsi
	push	rdi
	sub	rsp, 96					; 00000060H
; File c:\program files\autodesk\3ds max 2020 sdk\maxsdk\include\acolor.h

; 44   : 	AColor(float R, float G, float B, float A=1.0f)  { r = R; g = G; b = B; a = A; }

	xor	eax, eax
; File g:\dropbox\github\berconmaps\src\bercongradient.cpp

; 1331 : AColor BerconGradient::EvalColor(ShadeContext& sc) {

	mov	rsi, r8
; File c:\program files\autodesk\3ds max 2020 sdk\maxsdk\include\acolor.h

; 44   : 	AColor(float R, float G, float B, float A=1.0f)  { r = R; g = G; b = B; a = A; }

	mov	QWORD PTR [rdx], rax
; File g:\dropbox\github\berconmaps\src\bercongradient.cpp

; 1331 : AColor BerconGradient::EvalColor(ShadeContext& sc) {

	mov	rdi, rdx
; File c:\program files\autodesk\3ds max 2020 sdk\maxsdk\include\acolor.h

; 44   : 	AColor(float R, float G, float B, float A=1.0f)  { r = R; g = G; b = B; a = A; }

	mov	QWORD PTR [rdx+8], rax
; File g:\dropbox\github\berconmaps\src\bercongradient.cpp

; 1331 : AColor BerconGradient::EvalColor(ShadeContext& sc) {

	mov	rbx, rcx

; 1332 : 	// Initialize returned color
; 1333 : 	AColor res(0.0f,0.0f,0.0f,0.0f);
; 1334 : 	if (!sc.doMaps) return res;

	cmp	DWORD PTR [r8+12], eax
	je	$LN23@EvalColor

; 1335 : 
; 1336 : 	// Use cache
; 1337 : 	if (sc.GetCache(this,res)) 

	mov	rax, QWORD PTR [r8]
	mov	r8, rdx
	mov	rdx, rcx
	mov	rcx, rsi
	call	QWORD PTR [rax+504]
	test	eax, eax
	jne	$LN23@EvalColor

; 1338 : 		return res; 	
; 1339 : 	if (gbufID) sc.SetGBufferID(gbufID);		

	mov	edx, DWORD PTR [rbx+128]
	test	edx, edx
	je	SHORT $LN4@EvalColor
	mov	rax, QWORD PTR [rsi]
	mov	rcx, rsi
	call	QWORD PTR [rax+464]
$LN4@EvalColor:

; 1340 : 	
; 1341 : 	// Function type
; 1342 : 	float d;
; 1343 : 	if (p_type == 0) {// UVW

	cmp	DWORD PTR [rbx+480], 0

; 1345 : 		if (!berconXYZ.get(sc, p)) return res;

	mov	rdx, rsi
	vmovaps	XMMWORD PTR [rsp+80], xmm6
	jne	SHORT $LN5@EvalColor
	vxorps	xmm0, xmm0, xmm0
	lea	rcx, QWORD PTR [rbx+176]
	lea	r8, QWORD PTR p$2[rsp]
; File c:\program files\autodesk\3ds max 2020 sdk\maxsdk\include\point3.h

; 59   : 	float x = 0.f;

	vmovss	DWORD PTR p$2[rsp], xmm0

; 60   : 	float y = 0.f;

	vmovss	DWORD PTR p$2[rsp+4], xmm0

; 61   : 	float z = 0.f;

	vmovss	DWORD PTR p$2[rsp+8], xmm0
; File g:\dropbox\github\berconmaps\src\bercongradient.cpp

; 1345 : 		if (!berconXYZ.get(sc, p)) return res;

	call	?get@BerconXYZ@@QEAAHAEAVShadeContext@@AEAVPoint3@@@Z ; BerconXYZ::get
	test	eax, eax
	je	$LN24@EvalColor
; File c:\program files\autodesk\3ds max 2020 sdk\maxsdk\include\point3.h

; 85   : 		x = a.x;

	vmovss	xmm0, DWORD PTR p$2[rsp]

; 86   : 		y = a.y;

	vmovss	xmm1, DWORD PTR p$2[rsp+4]
	vmovss	DWORD PTR $T3[rsp], xmm0

; 87   : 		z = a.z;

	vmovss	xmm0, DWORD PTR p$2[rsp+8]
; File g:\dropbox\github\berconmaps\src\bercongradient.cpp

; 1346 : 		d = getGradientValueUVW(p);

	lea	rdx, QWORD PTR $T3[rsp]
	mov	rcx, rbx
; File c:\program files\autodesk\3ds max 2020 sdk\maxsdk\include\point3.h

; 87   : 		z = a.z;

	vmovss	DWORD PTR $T3[rsp+8], xmm0
	vmovss	DWORD PTR $T3[rsp+4], xmm1
; File g:\dropbox\github\berconmaps\src\bercongradient.cpp

; 1346 : 		d = getGradientValueUVW(p);

	call	?getGradientValueUVW@BerconGradient@@QEAAMVPoint3@@@Z ; BerconGradient::getGradientValueUVW

; 1347 : 	} else { // Others

	jmp	SHORT $LN21@EvalColor
$LN5@EvalColor:

; 1348 : 		d = getGradientValue(sc);

	mov	rcx, rbx
	call	?getGradientValue@BerconGradient@@QEAAMAEAVShadeContext@@@Z ; BerconGradient::getGradientValue
$LN21@EvalColor:

; 1349 : 	}		 
; 1350 : 
; 1351 : 	// Distortion
; 1352 : 	if (p_disOn && p_distex) d += (1.f - p_distex->EvalMono(sc) * 2.f) * p_disStr;

	cmp	DWORD PTR [rbx+532], 0
	vmovaps	XMMWORD PTR [rsp+64], xmm7
	vmovss	xmm7, DWORD PTR __real@3f800000
	vmovss	DWORD PTR d$[rsp], xmm0
	vmovaps	xmm6, xmm0
	je	SHORT $LN8@EvalColor
	mov	rcx, QWORD PTR [rbx+552]
	test	rcx, rcx
	je	SHORT $LN8@EvalColor
	mov	rax, QWORD PTR [rcx]
	mov	rdx, rsi
	call	QWORD PTR [rax+1512]
	vmulss	xmm1, xmm0, DWORD PTR __real@40000000
	vsubss	xmm2, xmm7, xmm1
	vmulss	xmm0, xmm2, DWORD PTR [rbx+536]
	vaddss	xmm1, xmm6, xmm0
	vmovss	DWORD PTR d$[rsp], xmm1
$LN8@EvalColor:

; 1353 : 
; 1354 : 	// Limit range
; 1355 : 	if (!limitRange(d)) return res;

	lea	rdx, QWORD PTR d$[rsp]
	mov	rcx, rbx
	call	?limitRange@BerconGradient@@QEAAHAEAM@Z	; BerconGradient::limitRange
	test	eax, eax
	je	SHORT $LN22@EvalColor

; 1356 : 
; 1357 : 	// Curve
; 1358 : 	//if (p_curveOn) d = curve->GetControlCurve(0)->GetValue(sc.CurTime(), d);		
; 1359 : 
; 1360 : 	// Get color from gradient
; 1361 : 	res = gradient->getColor(p_reverse?1.f-d:d, sc);

	cmp	DWORD PTR [rbx+516], 0
	je	SHORT $LN11@EvalColor
	vsubss	xmm2, xmm7, DWORD PTR d$[rsp]
	jmp	SHORT $LN12@EvalColor
$LN11@EvalColor:
	vmovss	xmm2, DWORD PTR d$[rsp]
$LN12@EvalColor:
	mov	rcx, QWORD PTR [rbx+456]
	lea	rdx, QWORD PTR $T5[rsp]
	mov	r9, rsi
	call	?getColor@GradientRamp@@QEAA?AVAColor@@MAEAVShadeContext@@@Z ; GradientRamp::getColor

; 1362 : 
; 1363 : 	// Output
; 1364 : 	res = texout->Filter(res);

	lea	r8, QWORD PTR $T4[rsp]
	lea	rdx, QWORD PTR $T1[rsp]
	vmovups	xmm0, XMMWORD PTR [rax]
	vmovups	XMMWORD PTR [rdi], xmm0
	vmovups	xmm0, XMMWORD PTR [rax]
	mov	rcx, QWORD PTR [rbx+440]
	vmovups	XMMWORD PTR $T4[rsp], xmm0
	mov	rax, QWORD PTR [rcx]
	call	QWORD PTR [rax+1520]

; 1365 : 
; 1366 : 	// Shading ready, return results
; 1367 : 	sc.PutCache(this,res);

	mov	r8, rdi
	mov	rdx, rbx
	mov	rcx, rsi
	vmovups	xmm0, XMMWORD PTR [rax]
	vmovups	XMMWORD PTR [rdi], xmm0
	mov	rax, QWORD PTR [rsi]
	call	QWORD PTR [rax+528]
$LN22@EvalColor:
	vmovaps	xmm7, XMMWORD PTR [rsp+64]
$LN24@EvalColor:
	vmovaps	xmm6, XMMWORD PTR [rsp+80]
$LN23@EvalColor:

; 1368 : 	return res;
; 1369 : }

	mov	rbx, QWORD PTR [rsp+112]
	mov	rax, rdi
	mov	rsi, QWORD PTR [rsp+128]
	add	rsp, 96					; 00000060H
	pop	rdi
	ret	0
?EvalColor@BerconGradient@@UEAA?AVAColor@@AEAVShadeContext@@@Z ENDP ; BerconGradient::EvalColor
_TEXT	ENDS
; Function compile flags: /Ogtp
; File g:\dropbox\github\berconmaps\src\bercongradient.cpp
;	COMDAT ?GetSubTexmapSlotName@BerconGradient@@UEAA?AVWStr@@H@Z
_TEXT	SEGMENT
$T1 = 32
$T2 = 40
this$ = 64
__$ReturnUdt$ = 72
i$ = 80
n$ = 88
?GetSubTexmapSlotName@BerconGradient@@UEAA?AVWStr@@H@Z PROC ; BerconGradient::GetSubTexmapSlotName, COMDAT

; 878  : TSTR BerconGradient::GetSubTexmapSlotName(int i) {		

$LN11:
	mov	QWORD PTR [rsp+16], rdx
	push	rbx
	sub	rsp, 48					; 00000030H
	mov	QWORD PTR $T2[rsp], -2
	mov	rbx, rdx
	mov	DWORD PTR $T1[rsp], 0

; 879  : 	if (i == MAPTEX_NUM)

	test	r8d, r8d
	jne	SHORT $LN2@GetSubTexm

; 880  : 		return TSTR(GetString(IDS_MAP)); 

	mov	ecx, 203				; 000000cbH
	call	?GetString@@YAPEA_WH@Z			; GetString
	mov	rdx, rax
	mov	rcx, rbx
	call	QWORD PTR __imp_??0WStr@@QEAA@PEB_W@Z
	npad	1
	mov	DWORD PTR $T1[rsp], 1
	jmp	SHORT $LN9@GetSubTexm
$LN2@GetSubTexm:

; 881  : 	if (i == DISTEX_NUM)

	cmp	r8d, 2
	jne	SHORT $LN3@GetSubTexm

; 882  : 		return TSTR(GetString(IDS_DISTORTION_MAP)); 

	lea	ecx, QWORD PTR [r8+11]
$LN10@GetSubTexm:
	call	?GetString@@YAPEA_WH@Z			; GetString
	mov	rdx, rax
	mov	rcx, rbx
	call	QWORD PTR __imp_??0WStr@@QEAA@PEB_W@Z
	npad	1
	mov	DWORD PTR $T1[rsp], 1
	jmp	SHORT $LN9@GetSubTexm
$LN3@GetSubTexm:

; 883  : 	if (i == KEYTEX_NUM)

	cmp	r8d, 1
	jne	SHORT $LN4@GetSubTexm

; 884  : 		return TSTR(GetString(IDS_KEYTEX)); 

	mov	ecx, 158				; 0000009eH
	jmp	SHORT $LN10@GetSubTexm
$LN4@GetSubTexm:

; 885  : 	
; 886  : 	/*
; 887  : 	TSTR s;
; 888  : 	TCHAR* name = NULL;
; 889  : 	Interval iv;
; 890  : 
; 891  : 	int j = FindSubMtl(i);
; 892  : 	if (j>=0) {
; 893  : 		pblock->GetValue(multi_names,0,name,iv,j);
; 894  : 	if (name) 
; 895  : 		s.printf("(%d) %s",i+1,name);
; 896  : 	else 
; 897  : 		s.printf("(%d)",i+1);
; 898  : 	}
; 899  : 
; 900  : 	else 
; 901  : 	s.printf("(%d)",i+1);
; 902  : 	return s;
; 903  : 	}*/
; 904  : 
; 905  : 	TSTR n;

	lea	rcx, QWORD PTR n$[rsp]
	call	QWORD PTR __imp_??0WStr@@QEAA@XZ
	npad	1

; 906  : //	n.printf("Key #%d", i-3);
; 907  : 	return n;	

	lea	rdx, QWORD PTR n$[rsp]
	mov	rcx, rbx
	call	QWORD PTR __imp_??0WStr@@QEAA@AEBV0@@Z
	mov	DWORD PTR $T1[rsp], 1
	lea	rcx, QWORD PTR n$[rsp]
	call	QWORD PTR __imp_??1WStr@@QEAA@XZ
$LN9@GetSubTexm:
	mov	rax, rbx

; 908  : }

	add	rsp, 48					; 00000030H
	pop	rbx
	ret	0
	int	3
?GetSubTexmapSlotName@BerconGradient@@UEAA?AVWStr@@H@Z ENDP ; BerconGradient::GetSubTexmapSlotName
_TEXT	ENDS
;	COMDAT text$x
text$x	SEGMENT
$T1 = 32
$T2 = 40
this$ = 64
__$ReturnUdt$ = 72
i$ = 80
n$ = 88
?dtor$0@?0??GetSubTexmapSlotName@BerconGradient@@UEAA?AVWStr@@H@Z@4HA PROC ; `BerconGradient::GetSubTexmapSlotName'::`1'::dtor$0
	push	rbp
	sub	rsp, 32					; 00000020H
	mov	rbp, rdx
	mov	eax, DWORD PTR $T1[rbp]
	and	eax, 1
	test	eax, eax
	je	SHORT $LN7@dtor$0
	and	DWORD PTR $T1[rbp], -2
	mov	rcx, QWORD PTR __$ReturnUdt$[rbp]
	call	QWORD PTR __imp_??1WStr@@QEAA@XZ
$LN7@dtor$0:
	add	rsp, 32					; 00000020H
	pop	rbp
	ret	0
?dtor$0@?0??GetSubTexmapSlotName@BerconGradient@@UEAA?AVWStr@@H@Z@4HA ENDP ; `BerconGradient::GetSubTexmapSlotName'::`1'::dtor$0
$T1 = 32
$T2 = 40
this$ = 64
__$ReturnUdt$ = 72
i$ = 80
n$ = 88
?dtor$1@?0??GetSubTexmapSlotName@BerconGradient@@UEAA?AVWStr@@H@Z@4HA PROC ; `BerconGradient::GetSubTexmapSlotName'::`1'::dtor$1
	lea	rcx, QWORD PTR n$[rdx]
	rex_jmp	QWORD PTR __imp_??1WStr@@QEAA@XZ
?dtor$1@?0??GetSubTexmapSlotName@BerconGradient@@UEAA?AVWStr@@H@Z@4HA ENDP ; `BerconGradient::GetSubTexmapSlotName'::`1'::dtor$1
text$x	ENDS
; Function compile flags: /Ogtp
;	COMDAT text$x
text$x	SEGMENT
$T1 = 32
$T2 = 40
this$ = 64
__$ReturnUdt$ = 72
i$ = 80
n$ = 88
?dtor$0@?0??GetSubTexmapSlotName@BerconGradient@@UEAA?AVWStr@@H@Z@4HA PROC ; `BerconGradient::GetSubTexmapSlotName'::`1'::dtor$0
	push	rbp
	sub	rsp, 32					; 00000020H
	mov	rbp, rdx
	mov	eax, DWORD PTR $T1[rbp]
	and	eax, 1
	test	eax, eax
	je	SHORT $LN7@dtor$0
	and	DWORD PTR $T1[rbp], -2
	mov	rcx, QWORD PTR __$ReturnUdt$[rbp]
	call	QWORD PTR __imp_??1WStr@@QEAA@XZ
$LN7@dtor$0:
	add	rsp, 32					; 00000020H
	pop	rbp
	ret	0
?dtor$0@?0??GetSubTexmapSlotName@BerconGradient@@UEAA?AVWStr@@H@Z@4HA ENDP ; `BerconGradient::GetSubTexmapSlotName'::`1'::dtor$0
text$x	ENDS
; Function compile flags: /Ogtp
;	COMDAT text$x
text$x	SEGMENT
$T1 = 32
$T2 = 40
this$ = 64
__$ReturnUdt$ = 72
i$ = 80
n$ = 88
?dtor$1@?0??GetSubTexmapSlotName@BerconGradient@@UEAA?AVWStr@@H@Z@4HA PROC ; `BerconGradient::GetSubTexmapSlotName'::`1'::dtor$1
	lea	rcx, QWORD PTR n$[rdx]
	rex_jmp	QWORD PTR __imp_??1WStr@@QEAA@XZ
?dtor$1@?0??GetSubTexmapSlotName@BerconGradient@@UEAA?AVWStr@@H@Z@4HA ENDP ; `BerconGradient::GetSubTexmapSlotName'::`1'::dtor$1
text$x	ENDS
; Function compile flags: /Ogtp
; File g:\dropbox\github\berconmaps\src\bercongradient.cpp
; File c:\program files\autodesk\3ds max 2020 sdk\maxsdk\include\iparamb2.h
; File g:\dropbox\github\berconmaps\src\bercongradient.cpp
; File c:\program files\autodesk\3ds max 2020 sdk\maxsdk\include\iparamb2.h
; File g:\dropbox\github\berconmaps\src\bercongradient.cpp
; File c:\program files\autodesk\3ds max 2020 sdk\maxsdk\include\iparamb2.h
; File c:\program files\autodesk\3ds max 2020 sdk\maxsdk\include\interval.h
; File g:\dropbox\github\berconmaps\src\bercongradient.cpp
;	COMDAT ?SetSubTexmap@BerconGradient@@UEAAXHPEAVTexmap@@@Z
_TEXT	SEGMENT
this$ = 48
i$ = 56
m$ = 64
?SetSubTexmap@BerconGradient@@UEAAXHPEAVTexmap@@@Z PROC	; BerconGradient::SetSubTexmap, COMDAT

; 866  : void BerconGradient::SetSubTexmap(int i, Texmap *m) {	

$LN21:
	mov	QWORD PTR [rsp+8], rbx
	push	rdi
	sub	rsp, 32					; 00000020H

; 867  : 	if (i >= SUBMAPCOUNT+gradient->numKeys()) return;

	mov	rax, QWORD PTR [rcx+384]
	mov	ebx, edx
	mov	rdi, rcx
	mov	r9d, DWORD PTR [rax+56]
	add	r9d, 3
	cmp	edx, r9d
	jge	SHORT $LN1@SetSubTexm

; 868  : 	ReplaceReference(i+REF_OFFSET, m);		

	add	edx, 5
	add	rcx, -72				; ffffffffffffffb8H
	mov	r9d, 1
	call	QWORD PTR __imp_?ReplaceReference@ReferenceMaker@@QEAA?AW4RefResult@@HPEAVReferenceTarget@@H@Z

; 869  : 	if (i == MAPTEX_NUM)

	test	ebx, ebx
	jne	SHORT $LN3@SetSubTexm
; File c:\program files\autodesk\3ds max 2020 sdk\maxsdk\include\iparamb2.h

; 4058 : 	PB2Export void InvalidateUI(ParamID id, int tabIndex=-1) { cd->InvalidateUI(this, id, tabIndex); } // nominated param

	lea	r8d, QWORD PTR [rbx+23]
	jmp	SHORT $LN19@SetSubTexm
$LN3@SetSubTexm:
; File g:\dropbox\github\berconmaps\src\bercongradient.cpp

; 871  : 	else if (i == KEYTEX_NUM)

	cmp	ebx, 1
	jne	SHORT $LN5@SetSubTexm
; File c:\program files\autodesk\3ds max 2020 sdk\maxsdk\include\iparamb2.h

; 4058 : 	PB2Export void InvalidateUI(ParamID id, int tabIndex=-1) { cd->InvalidateUI(this, id, tabIndex); } // nominated param

	lea	r8d, QWORD PTR [rbx+2]
	jmp	SHORT $LN19@SetSubTexm
$LN5@SetSubTexm:
; File g:\dropbox\github\berconmaps\src\bercongradient.cpp

; 873  : 	else if (i == DISTEX_NUM)

	cmp	ebx, 2
	jne	SHORT $LN7@SetSubTexm
; File c:\program files\autodesk\3ds max 2020 sdk\maxsdk\include\iparamb2.h

; 4058 : 	PB2Export void InvalidateUI(ParamID id, int tabIndex=-1) { cd->InvalidateUI(this, id, tabIndex); } // nominated param

	lea	r8d, QWORD PTR [rbx+22]
$LN19@SetSubTexm:
	mov	rcx, QWORD PTR ?gradientmap_param_blk@@3VParamBlockDesc2@@A+40
	lea	rdx, OFFSET FLAT:?gradientmap_param_blk@@3VParamBlockDesc2@@A
	or	r9d, -1
	call	QWORD PTR __imp_?InvalidateUI@ClassDesc2@@QEAAXPEAVParamBlockDesc2@@FH@Z
$LN7@SetSubTexm:
; File c:\program files\autodesk\3ds max 2020 sdk\maxsdk\include\interval.h

; 126  : 		void SetEmpty() { start = TIME_NegInfinity; end = TIME_NegInfinity; }

	mov	DWORD PTR [rdi+376], -2147483648	; ffffffff80000000H
	mov	DWORD PTR [rdi+380], -2147483648	; ffffffff80000000H
$LN1@SetSubTexm:
; File g:\dropbox\github\berconmaps\src\bercongradient.cpp

; 876  : }

	mov	rbx, QWORD PTR [rsp+48]
	add	rsp, 32					; 00000020H
	pop	rdi
	ret	0
?SetSubTexmap@BerconGradient@@UEAAXHPEAVTexmap@@@Z ENDP	; BerconGradient::SetSubTexmap
_TEXT	ENDS
; Function compile flags: /Ogtp
; File g:\dropbox\github\berconmaps\src\bercongradient.cpp
;	COMDAT ?GetSubTexmap@BerconGradient@@UEAAPEAVTexmap@@H@Z
_TEXT	SEGMENT
this$ = 8
i$ = 16
?GetSubTexmap@BerconGradient@@UEAAPEAVTexmap@@H@Z PROC	; BerconGradient::GetSubTexmap, COMDAT

; 856  : 	if (i == MAPTEX_NUM)

	test	edx, edx
	jne	SHORT $LN2@GetSubTexm

; 857  : 		return p_maptex;

	mov	rax, QWORD PTR [rcx+472]

; 864  : }

	ret	0
$LN2@GetSubTexm:

; 858  : 	else if (i == DISTEX_NUM)

	cmp	edx, 2
	jne	SHORT $LN4@GetSubTexm

; 859  : 		return p_distex;	

	mov	rax, QWORD PTR [rcx+480]

; 864  : }

	ret	0
$LN4@GetSubTexm:

; 818  : 	return gradient->getSubtex();

	mov	rcx, QWORD PTR [rcx+384]

; 860  : 	else if (i == KEYTEX_NUM)

	cmp	edx, 1
	jne	SHORT $LN6@GetSubTexm

; 818  : 	return gradient->getSubtex();

	or	edx, -1

; 861  : 		return getKeyTex();	
; 862  : 	else
; 863  : 		return gradient->getSubtex(i-SUBMAPCOUNT);

	jmp	?getSubtex@GradientRamp@@QEAAPEAVTexmap@@H@Z ; GradientRamp::getSubtex
$LN6@GetSubTexm:
	add	edx, -3
	jmp	?getSubtex@GradientRamp@@QEAAPEAVTexmap@@H@Z ; GradientRamp::getSubtex
?GetSubTexmap@BerconGradient@@UEAAPEAVTexmap@@H@Z ENDP	; BerconGradient::GetSubTexmap
_TEXT	ENDS
; Function compile flags: /Ogtp
; File g:\dropbox\github\berconmaps\src\bercongradient.h
;	COMDAT ?NumSubTexmaps@BerconGradient@@UEAAHXZ
_TEXT	SEGMENT
this$ = 8
?NumSubTexmaps@BerconGradient@@UEAAHXZ PROC		; BerconGradient::NumSubTexmaps, COMDAT

; 124  : 		int NumSubTexmaps() { return 3 + gradient->numKeys(); } // !! Update submap count !!

	mov	rax, QWORD PTR [rcx+384]
	mov	eax, DWORD PTR [rax+56]
	add	eax, 3
	ret	0
?NumSubTexmaps@BerconGradient@@UEAAHXZ ENDP		; BerconGradient::NumSubTexmaps
_TEXT	ENDS
; Function compile flags: /Ogtp
; File g:\dropbox\github\berconmaps\src\bercongradient.h
; File g:\dropbox\github\berconmaps\src\berconcommon.h
; File g:\dropbox\github\berconmaps\src\bercongradient.h
;	COMDAT ?MappingsRequired@BerconGradient@@UEAAXHAEAVBitArray@@0@Z
_TEXT	SEGMENT
this$ = 8
subMtlNum$ = 16
mapreq$ = 24
bumpreq$ = 32
?MappingsRequired@BerconGradient@@UEAAXHAEAVBitArray@@0@Z PROC ; BerconGradient::MappingsRequired, COMDAT

; 122  : 		void MappingsRequired(int subMtlNum, BitArray& mapreq, BitArray& bumpreq) { berconXYZ.map(subMtlNum, mapreq, bumpreq); }

	cmp	DWORD PTR [rcx+176], 1
	ja	SHORT $LN4@MappingsRe
; File g:\dropbox\github\berconmaps\src\berconcommon.h

; 354  : 	void map(int subMtlNum, BitArray& mapreq, BitArray& bumpreq) { if (mappingType==0 || mappingType==1) mapreq.Set(mappingChannel); }	

	mov	edx, DWORD PTR [rcx+180]
	mov	rcx, r8
	jmp	?Set@BitArray@@QEAAXH@Z			; BitArray::Set
$LN4@MappingsRe:
; File g:\dropbox\github\berconmaps\src\bercongradient.h

; 122  : 		void MappingsRequired(int subMtlNum, BitArray& mapreq, BitArray& bumpreq) { berconXYZ.map(subMtlNum, mapreq, bumpreq); }

	ret	0
?MappingsRequired@BerconGradient@@UEAAXHAEAVBitArray@@0@Z ENDP ; BerconGradient::MappingsRequired
_TEXT	ENDS
; Function compile flags: /Ogtp
; File g:\dropbox\github\berconmaps\src\bercongradient.h
;	COMDAT ?LocalRequirements@BerconGradient@@UEAAKH@Z
_TEXT	SEGMENT
this$ = 8
subMtlNum$ = 16
?LocalRequirements@BerconGradient@@UEAAKH@Z PROC	; BerconGradient::LocalRequirements, COMDAT

; 121  : 		ULONG LocalRequirements(int subMtlNum) { return berconXYZ.req(); }

	xor	edx, edx
	mov	eax, 16
	cmp	DWORD PTR [rcx+176], 1
	cmova	eax, edx
	ret	0
?LocalRequirements@BerconGradient@@UEAAKH@Z ENDP	; BerconGradient::LocalRequirements
_TEXT	ENDS
; Function compile flags: /Ogtp
; File g:\dropbox\github\berconmaps\src\bercongradient.cpp
; File c:\program files\autodesk\3ds max 2020 sdk\maxsdk\include\interval.h
; File g:\dropbox\github\berconmaps\src\bercongradient.cpp
; File c:\program files\autodesk\3ds max 2020 sdk\maxsdk\include\interval.h
; File g:\dropbox\github\berconmaps\src\bercongradient.cpp
;	COMDAT ?Validity@BerconGradient@@UEAA?AVInterval@@H@Z
_TEXT	SEGMENT
v$ = 48
this$ = 48
__$ReturnUdt$ = 56
t$ = 64
?Validity@BerconGradient@@UEAA?AVInterval@@H@Z PROC	; BerconGradient::Validity, COMDAT

; 679  : Interval BerconGradient::Validity(TimeValue t) {

$LN8:
	mov	QWORD PTR [rsp+16], rbx
	push	rdi
	sub	rsp, 32					; 00000020H

; 681  : 	Update(t,v);

	mov	rax, QWORD PTR [rcx]
	mov	r9d, r8d
	mov	rdi, rdx
; File c:\program files\autodesk\3ds max 2020 sdk\maxsdk\include\interval.h

; 126  : 		void SetEmpty() { start = TIME_NegInfinity; end = TIME_NegInfinity; }

	mov	DWORD PTR v$[rsp], -2147483648		; ffffffff80000000H
; File g:\dropbox\github\berconmaps\src\bercongradient.cpp

; 681  : 	Update(t,v);

	lea	r8, QWORD PTR v$[rsp]
; File c:\program files\autodesk\3ds max 2020 sdk\maxsdk\include\interval.h

; 126  : 		void SetEmpty() { start = TIME_NegInfinity; end = TIME_NegInfinity; }

	mov	DWORD PTR v$[rsp+4], -2147483648	; ffffffff80000000H
; File g:\dropbox\github\berconmaps\src\bercongradient.cpp

; 681  : 	Update(t,v);

	mov	edx, r9d
	mov	rbx, rcx
	call	QWORD PTR [rax+1400]

; 682  : 	return ivalid;

	mov	rax, QWORD PTR [rbx+448]

; 683  : }

	mov	rbx, QWORD PTR [rsp+56]
	mov	QWORD PTR [rdi], rax
	mov	rax, rdi
	add	rsp, 32					; 00000020H
	pop	rdi
	ret	0
?Validity@BerconGradient@@UEAA?AVInterval@@H@Z ENDP	; BerconGradient::Validity
_TEXT	ENDS
; Function compile flags: /Ogtp
; File g:\dropbox\github\berconmaps\src\bercongradient.cpp
; File c:\program files\autodesk\3ds max 2020 sdk\maxsdk\include\interval.h
; File g:\dropbox\github\berconmaps\src\bercongradient.cpp
;	COMDAT ?Reset@BerconGradient@@UEAAXXZ
_TEXT	SEGMENT
this$ = 80
?Reset@BerconGradient@@UEAAXXZ PROC			; BerconGradient::Reset, COMDAT

; 514  : void BerconGradient::Reset() {

$LN8:
	mov	QWORD PTR [rsp+8], rbx
	mov	QWORD PTR [rsp+16], rsi
	push	rdi
	sub	rsp, 64					; 00000040H
	mov	rdi, rcx

; 515  : 	TimeValue t = GetCOREInterface()->GetTime();

	call	QWORD PTR __imp_?GetCOREInterface@@YAPEAVInterface@@XZ
	mov	rcx, rax
	mov	rdx, QWORD PTR [rax]
	call	QWORD PTR [rdx+1448]

; 516  : 		
; 517  : 	//if (xyzGen) xyzGen->Reset();
; 518  : 	//else ReplaceReference( COORD_REF, GetNewDefaultXYZGen());	
; 519  : 	if (texout) texout->Reset();

	mov	rcx, QWORD PTR [rdi+440]
	mov	ebx, eax
	test	rcx, rcx
	je	SHORT $LN2@Reset
	mov	rdx, QWORD PTR [rcx]
	call	QWORD PTR [rdx+1408]
	jmp	SHORT $LN3@Reset
$LN2@Reset:

; 520  : 	else ReplaceReference( OUTPUT_REF, GetNewDefaultTextureOutput());

	call	QWORD PTR __imp_?GetNewDefaultTextureOutput@@YAPEAVTextureOutput@@XZ
	mov	edx, 2
	mov	rcx, rdi
	mov	r8, rax
	lea	r9d, QWORD PTR [rdx-1]
	call	QWORD PTR __imp_?ReplaceReference@ReferenceMaker@@QEAA?AW4RefResult@@HPEAVReferenceTarget@@H@Z
$LN3@Reset:

; 521  : 	
; 522  : //	if (curve) curve->DeleteMe();
; 523  : //	curve = (ICurveCtl *) CreateInstance(REF_MAKER_CLASS_ID,CURVE_CONTROL_CLASS_ID);
; 524  : #if MAX_RELEASE >= 18900
; 525  : //	curve->RegisterResourceMaker(static_cast<ReferenceTarget*>(this));
; 526  : #else
; 527  : //	curve->RegisterResourceMaker(static_cast<ReferenceMaker*>(this));
; 528  : #endif
; 529  : //	CurveCtrl::init(curve);
; 530  : //	pbCurve->SetValue( pb_curve_on, t, FALSE);	
; 531  : 
; 532  : 	pblock->SetValue( pb_type,				t, 0);

	mov	rcx, QWORD PTR [rdi+160]
	xor	esi, esi
	mov	edx, 7
	mov	DWORD PTR [rsp+32], esi
	xor	r9d, r9d
	mov	r8d, ebx
	mov	rax, QWORD PTR [rcx]
	call	QWORD PTR [rax+1576]

; 533  : 	pblock->SetValue( pb_interpolation,		t, 0);

	mov	rcx, QWORD PTR [rdi+160]
	lea	edx, QWORD PTR [rsi+8]
	xor	r9d, r9d
	mov	DWORD PTR [rsp+32], esi
	mov	r8d, ebx
	mov	rax, QWORD PTR [rcx]
	call	QWORD PTR [rax+1576]

; 534  : 	pblock->SetValue( pb_seed,				t, 12345);

	mov	rcx, QWORD PTR [rdi+160]
	lea	edx, QWORD PTR [rsi+10]
	mov	r9d, 12345				; 00003039H
	mov	DWORD PTR [rsp+32], esi
	mov	r8d, ebx
	mov	rax, QWORD PTR [rcx]
	call	QWORD PTR [rax+1576]

; 535  : 	pblock->SetValue( pb_rand_mat,			t, 1);

	mov	rcx, QWORD PTR [rdi+160]
	lea	edx, QWORD PTR [rsi+11]
	lea	r9d, QWORD PTR [rsi+1]
	mov	DWORD PTR [rsp+32], esi
	mov	r8d, ebx
	mov	rax, QWORD PTR [rcx]
	call	QWORD PTR [rax+1576]

; 536  : 	pblock->SetValue( pb_rand_obj,			t, 1);

	mov	rcx, QWORD PTR [rdi+160]
	lea	edx, QWORD PTR [rsi+12]
	lea	r9d, QWORD PTR [rsi+1]
	mov	DWORD PTR [rsp+32], esi
	mov	r8d, ebx
	mov	rax, QWORD PTR [rcx]
	call	QWORD PTR [rax+1576]

; 537  : 	pblock->SetValue( pb_rand_par,			t, 1);

	mov	rcx, QWORD PTR [rdi+160]
	lea	edx, QWORD PTR [rsi+13]
	lea	r9d, QWORD PTR [rsi+1]
	mov	DWORD PTR [rsp+32], esi
	mov	r8d, ebx
	mov	rax, QWORD PTR [rcx]
	call	QWORD PTR [rax+1576]

; 538  : 	pblock->SetValue( pb_rand_tile,			t, 1);

	mov	rcx, QWORD PTR [rdi+160]
	lea	edx, QWORD PTR [rsi+14]
	lea	r9d, QWORD PTR [rsi+1]
	mov	DWORD PTR [rsp+32], esi
	mov	r8d, ebx
	mov	rax, QWORD PTR [rcx]
	call	QWORD PTR [rax+1576]

; 539  : 	pblock->SetValue( pb_range_min,			t, 0.f);

	mov	rcx, QWORD PTR [rdi+160]
	lea	edx, QWORD PTR [rsi+15]
	vxorps	xmm3, xmm3, xmm3
	mov	r8d, ebx
	mov	DWORD PTR [rsp+32], esi
	mov	rax, QWORD PTR [rcx]
	call	QWORD PTR [rax+1584]

; 540  : 	pblock->SetValue( pb_range_max,			t, 1.f);

	mov	rcx, QWORD PTR [rdi+160]
	lea	edx, QWORD PTR [rsi+16]
	vmovss	xmm3, DWORD PTR __real@3f800000
	mov	r8d, ebx
	mov	DWORD PTR [rsp+32], esi
	mov	rax, QWORD PTR [rcx]
	call	QWORD PTR [rax+1584]

; 541  : 	pblock->SetValue( p_rangeLoop,			t, 0);

	mov	rcx, QWORD PTR [rdi+160]
	xor	r9d, r9d
	movzx	edx, WORD PTR [rdi+508]
	mov	r8d, ebx
	mov	DWORD PTR [rsp+32], esi
	mov	rax, QWORD PTR [rcx]
	call	QWORD PTR [rax+1576]

; 542  : 	pblock->SetValue( p_reverse,			t, 0);

	mov	rcx, QWORD PTR [rdi+160]
	xor	r9d, r9d
	movzx	edx, WORD PTR [rdi+516]
	mov	r8d, ebx
	mov	DWORD PTR [rsp+32], esi
	mov	rax, QWORD PTR [rcx]
	call	QWORD PTR [rax+1576]

; 543  : 	pblock->SetValue( pb_dison,				t, 0);

	mov	rcx, QWORD PTR [rdi+160]
	lea	edx, QWORD PTR [rsi+26]
	mov	rax, QWORD PTR [rcx]
	xor	r9d, r9d
	mov	DWORD PTR [rsp+32], esi
	mov	r8d, ebx
	call	QWORD PTR [rax+1576]

; 544  : 	pblock->SetValue( pb_disstr,			t, 0.05f);

	mov	rcx, QWORD PTR [rdi+160]
	lea	edx, QWORD PTR [rsi+25]
	vmovss	xmm3, DWORD PTR __real@3d4ccccd
	mov	r8d, ebx
	mov	DWORD PTR [rsp+32], esi
	mov	rax, QWORD PTR [rcx]
	call	QWORD PTR [rax+1584]

; 545  : 	pblock->SetValue( pb_gradient_uvw,		t, 0);	

	mov	rcx, QWORD PTR [rdi+160]
	lea	edx, QWORD PTR [rsi+18]
	xor	r9d, r9d
	mov	DWORD PTR [rsp+32], esi
	mov	r8d, ebx
	mov	rax, QWORD PTR [rcx]
	call	QWORD PTR [rax+1576]

; 546  : 	pblock->SetValue( pb_gradient_normal,	t, 0);	

	mov	rcx, QWORD PTR [rdi+160]
	lea	edx, QWORD PTR [rsi+19]
	xor	r9d, r9d
	mov	DWORD PTR [rsp+32], esi
	mov	r8d, ebx
	mov	rax, QWORD PTR [rcx]
	call	QWORD PTR [rax+1576]

; 547  : 	pblock->SetValue( pb_gradient_normal2,	t, 0);	

	mov	rcx, QWORD PTR [rdi+160]
	lea	edx, QWORD PTR [rsi+20]
	xor	r9d, r9d
	mov	DWORD PTR [rsp+32], esi
	mov	r8d, ebx
	mov	rax, QWORD PTR [rcx]
	call	QWORD PTR [rax+1576]

; 548  : 	pblock->SetValue( pb_ior,				t, 1.6f);		

	mov	rcx, QWORD PTR [rdi+160]
	lea	edx, QWORD PTR [rsi+21]
	vmovss	xmm3, DWORD PTR __real@3fcccccd
	mov	r8d, ebx
	mov	DWORD PTR [rsp+32], esi
	mov	rax, QWORD PTR [rcx]
	call	QWORD PTR [rax+1584]

; 549  : 
; 550  : 	p_maptex = NULL;
; 551  : 	p_distex = NULL;
; 552  : 	p_node = NULL;
; 553  : 
; 554  : 	gradient->reset();

	mov	rcx, QWORD PTR [rdi+456]
	mov	QWORD PTR [rdi+544], rsi
	mov	QWORD PTR [rdi+552], rsi
	mov	QWORD PTR [rdi+560], rsi
	call	?reset@GradientRamp@@QEAAXXZ		; GradientRamp::reset

; 555  : 	resetKeys();

	mov	rcx, rdi
	call	?resetKeys@BerconGradient@@QEAAXXZ	; BerconGradient::resetKeys

; 556  : 
; 557  : 	berconXYZ.reset(pbXYZ, ivalid, 0, 1, 1, 1);

	mov	rdx, QWORD PTR [rdi+168]
	lea	rcx, QWORD PTR [rdi+176]
	mov	DWORD PTR [rsp+48], 1
	lea	r8, QWORD PTR [rdi+448]
	mov	DWORD PTR [rsp+40], 1
	xor	r9d, r9d
	mov	DWORD PTR [rsp+32], 1
	call	?reset@BerconXYZ@@QEAAXPEAVIParamBlock2@@AEAVInterval@@HHHH@Z ; BerconXYZ::reset

; 560  : }

	mov	rbx, QWORD PTR [rsp+80]
	mov	rsi, QWORD PTR [rsp+88]
; File c:\program files\autodesk\3ds max 2020 sdk\maxsdk\include\interval.h

; 126  : 		void SetEmpty() { start = TIME_NegInfinity; end = TIME_NegInfinity; }

	mov	DWORD PTR [rdi+448], -2147483648	; ffffffff80000000H
	mov	DWORD PTR [rdi+452], -2147483648	; ffffffff80000000H
; File g:\dropbox\github\berconmaps\src\bercongradient.cpp

; 560  : }

	add	rsp, 64					; 00000040H
	pop	rdi
	ret	0
?Reset@BerconGradient@@UEAAXXZ ENDP			; BerconGradient::Reset
_TEXT	ENDS
; Function compile flags: /Ogtp
; File g:\dropbox\github\berconmaps\src\bercongradient.cpp
; File c:\program files\autodesk\3ds max 2020 sdk\maxsdk\include\color.h
; File g:\dropbox\github\berconmaps\src\bercongradient.cpp
; File c:\program files\autodesk\3ds max 2020 sdk\maxsdk\include\color.h
; File g:\dropbox\github\berconmaps\src\bercongradient.cpp
; File c:\program files\autodesk\3ds max 2020 sdk\maxsdk\include\iparamb2.h
; File g:\dropbox\github\berconmaps\src\bercongradient.cpp
; File c:\program files\autodesk\3ds max 2020 sdk\maxsdk\include\iparamb2.h
; File g:\dropbox\github\berconmaps\src\bercongradient.cpp
; File c:\program files\autodesk\3ds max 2020 sdk\maxsdk\include\iparamb2.h
; File c:\program files\autodesk\3ds max 2020 sdk\maxsdk\include\interval.h
; File g:\dropbox\github\berconmaps\src\bercongradient.cpp
; File c:\program files\autodesk\3ds max 2020 sdk\maxsdk\include\interval.h
; File g:\dropbox\github\berconmaps\src\bercongradient.cpp
;	COMDAT ?Update@BerconGradient@@UEAAXHAEAVInterval@@@Z
_TEXT	SEGMENT
$T1 = 48
$T2 = 48
col$3 = 64
currentKeyColor$4 = 64
$T5 = 144
pos$6 = 144
this$ = 144
t$ = 152
valid$ = 160
tex$7 = 168
?Update@BerconGradient@@UEAAXHAEAVInterval@@@Z PROC	; BerconGradient::Update, COMDAT

; 562  : void BerconGradient::Update(TimeValue t, Interval& valid) {	

$LN38:
	push	rbp
	push	rdi
	push	r15
	sub	rsp, 112				; 00000070H

; 563  : //CharStream *out = thread_local(current_stdout);			
; 564  : 
; 565  : 	if (pblock == NULL || gradient == NULL) return;	

	cmp	QWORD PTR [rcx+160], 0
	mov	r15, r8
	mov	ebp, edx
	mov	rdi, rcx
	je	$LN6@Update
	cmp	QWORD PTR [rcx+456], 0
	je	$LN6@Update

; 566  : 	if (!ivalid.InInterval(t)) {

	mov	QWORD PTR [rsp+160], rsi
	lea	rsi, QWORD PTR [rcx+448]
	mov	rcx, rsi
	call	QWORD PTR __imp_?InInterval@Interval@@QEBAHH@Z
	test	eax, eax
	jne	$LN7@Update

; 567  : 				
; 568  : 		// Set key information		
; 569  : 		if (gradient->selected >= 0 && gradient->selected < countKeys() && pblock->GetMap() != NULL) {			

	mov	rax, QWORD PTR [rdi+456]
	mov	QWORD PTR [rsp+152], rbx
	mov	QWORD PTR [rsp+104], r12
	xor	r12d, r12d
	mov	QWORD PTR [rsp+96], r14
	cmp	DWORD PTR [rax+64], r12d
	jl	$LN8@Update
	mov	rcx, rdi
	call	?countKeys@BerconGradient@@QEAAHXZ	; BerconGradient::countKeys
	mov	rcx, QWORD PTR [rdi+456]
	cmp	DWORD PTR [rcx+64], eax
	jge	$LN8@Update
	mov	rcx, QWORD PTR [rdi+160]
	xor	edx, edx
	mov	rax, QWORD PTR [rcx]
	call	QWORD PTR [rax+2328]
	test	rax, rax
	je	$LN8@Update

; 570  : 			AColor currentKeyColor = pblock->GetAColor(pb_colors, t, gradient->selected);						

	mov	rcx, QWORD PTR [rdi+160]
	lea	r8d, QWORD PTR [r12+1]
	mov	rax, QWORD PTR [rdi+456]
	lea	rdx, QWORD PTR currentKeyColor$4[rsp]
	mov	r9d, ebp
	mov	r10, QWORD PTR [rcx]
	mov	eax, DWORD PTR [rax+64]
	mov	DWORD PTR [rsp+32], eax
	call	QWORD PTR [r10+1728]
; File c:\program files\autodesk\3ds max 2020 sdk\maxsdk\include\color.h

; 93   : 	Color(float R, float G, float B)  { r = R; g = G; b = B;  }

	vmovss	xmm0, DWORD PTR currentKeyColor$4[rsp]
; File g:\dropbox\github\berconmaps\src\bercongradient.cpp

; 571  : 			pblock->SetValue(pb_keyCol, t, Color(currentKeyColor.r, currentKeyColor.g, currentKeyColor.b));	

	mov	rcx, QWORD PTR [rdi+160]
	lea	edx, QWORD PTR [r12+4]
; File c:\program files\autodesk\3ds max 2020 sdk\maxsdk\include\color.h

; 93   : 	Color(float R, float G, float B)  { r = R; g = G; b = B;  }

	vmovss	xmm1, DWORD PTR currentKeyColor$4[rsp+4]
	vmovss	DWORD PTR $T2[rsp], xmm0
	vmovss	xmm0, DWORD PTR currentKeyColor$4[rsp+8]
	vmovss	DWORD PTR $T2[rsp+8], xmm0
	vmovss	DWORD PTR $T2[rsp+4], xmm1
; File g:\dropbox\github\berconmaps\src\bercongradient.cpp

; 571  : 			pblock->SetValue(pb_keyCol, t, Color(currentKeyColor.r, currentKeyColor.g, currentKeyColor.b));	

	mov	rax, QWORD PTR [rcx]
	lea	r9, QWORD PTR $T2[rsp]
	mov	r8d, ebp
	mov	DWORD PTR [rsp+32], r12d
	call	QWORD PTR [rax+1544]

; 572  : 			pblock->SetValue(pb_keyNum, t, gradient->selected);	

	mov	rcx, QWORD PTR [rdi+160]
	lea	edx, QWORD PTR [r12+6]
	mov	rax, QWORD PTR [rdi+456]
	mov	r8d, ebp
	mov	DWORD PTR [rsp+32], r12d
	mov	r10, QWORD PTR [rcx]
	mov	r9d, DWORD PTR [rax+64]
	call	QWORD PTR [r10+1576]

; 573  : 			pblock->SetValue(pb_keyPos, t, pblock->GetFloat(pb_positions, t, gradient->selected));				

	mov	rcx, QWORD PTR [rdi+160]
	lea	edx, QWORD PTR [r12+2]
	mov	rax, QWORD PTR [rdi+456]
	mov	r8d, ebp
	mov	rbx, QWORD PTR [rcx]
	mov	r9d, DWORD PTR [rax+64]
	call	QWORD PTR [rbx+1768]
	mov	rcx, QWORD PTR [rdi+160]
	lea	edx, QWORD PTR [r12+5]
	vmovaps	xmm3, xmm0
	mov	r8d, ebp
	mov	DWORD PTR [rsp+32], r12d
	call	QWORD PTR [rbx+1584]

; 574  : 			pblock->GetDesc()->InvalidateUI(pb_keyCol);

	mov	rcx, QWORD PTR [rdi+160]
	mov	rax, QWORD PTR [rcx]
	call	QWORD PTR [rax+1400]
; File c:\program files\autodesk\3ds max 2020 sdk\maxsdk\include\iparamb2.h

; 4058 : 	PB2Export void InvalidateUI(ParamID id, int tabIndex=-1) { cd->InvalidateUI(this, id, tabIndex); } // nominated param

	lea	r8d, QWORD PTR [r12+4]
	or	r9d, -1
	mov	rdx, rax
	mov	rcx, QWORD PTR [rax+40]
	call	QWORD PTR __imp_?InvalidateUI@ClassDesc2@@QEAAXPEAVParamBlockDesc2@@FH@Z
; File g:\dropbox\github\berconmaps\src\bercongradient.cpp

; 575  : 			pblock->GetDesc()->InvalidateUI(pb_keyNum);

	mov	rcx, QWORD PTR [rdi+160]
	mov	rax, QWORD PTR [rcx]
	call	QWORD PTR [rax+1400]
; File c:\program files\autodesk\3ds max 2020 sdk\maxsdk\include\iparamb2.h

; 4058 : 	PB2Export void InvalidateUI(ParamID id, int tabIndex=-1) { cd->InvalidateUI(this, id, tabIndex); } // nominated param

	lea	r8d, QWORD PTR [r12+6]
	or	r9d, -1
	mov	rdx, rax
	mov	rcx, QWORD PTR [rax+40]
	call	QWORD PTR __imp_?InvalidateUI@ClassDesc2@@QEAAXPEAVParamBlockDesc2@@FH@Z
; File g:\dropbox\github\berconmaps\src\bercongradient.cpp

; 576  : 			pblock->GetDesc()->InvalidateUI(pb_keyPos);			

	mov	rcx, QWORD PTR [rdi+160]
	mov	rax, QWORD PTR [rcx]
	call	QWORD PTR [rax+1400]
; File c:\program files\autodesk\3ds max 2020 sdk\maxsdk\include\iparamb2.h

; 4058 : 	PB2Export void InvalidateUI(ParamID id, int tabIndex=-1) { cd->InvalidateUI(this, id, tabIndex); } // nominated param

	lea	r8d, QWORD PTR [r12+5]
	or	r9d, -1
	mov	rdx, rax
	mov	rcx, QWORD PTR [rax+40]
	call	QWORD PTR __imp_?InvalidateUI@ClassDesc2@@QEAAXPEAVParamBlockDesc2@@FH@Z
$LN8@Update:
; File c:\program files\autodesk\3ds max 2020 sdk\maxsdk\include\interval.h

; 130  : 		void SetInfinite() { start = TIME_NegInfinity; end = TIME_PosInfinity; }

	mov	DWORD PTR [rsi], -2147483648		; ffffffff80000000H
	mov	DWORD PTR [rsi+4], 2147483647		; 7fffffffH
; File g:\dropbox\github\berconmaps\src\bercongradient.cpp

; 581  : 		if (p_maptex) p_maptex->Update(t,ivalid);	

	mov	rcx, QWORD PTR [rdi+544]
	test	rcx, rcx
	je	SHORT $LN9@Update
	mov	rax, QWORD PTR [rcx]
	mov	r8, rsi
	mov	edx, ebp
	call	QWORD PTR [rax+1400]
$LN9@Update:

; 582  : 		if (p_distex) p_distex->Update(t,ivalid);			

	mov	rcx, QWORD PTR [rdi+552]
	test	rcx, rcx
	je	SHORT $LN10@Update
	mov	rax, QWORD PTR [rcx]
	mov	r8, rsi
	mov	edx, ebp
	call	QWORD PTR [rax+1400]
$LN10@Update:

; 583  : 
; 584  : 		//if (xyzGen != NULL)
; 585  : 			//xyzGen->Update(t,ivalid);
; 586  : 		if (texout != NULL)

	mov	rcx, QWORD PTR [rdi+440]
	test	rcx, rcx
	je	SHORT $LN11@Update

; 587  : 			texout->Update(t,ivalid);

	mov	rax, QWORD PTR [rcx]
	mov	r8, rsi
	mov	edx, ebp
	call	QWORD PTR [rax+1400]
$LN11@Update:

; 588  : 
; 589  : //		pbCurve->GetValue(pb_curve_on, t, p_curveOn, ivalid);
; 590  : 
; 591  : 		// Load gradient					
; 592  : 		int keys = countKeys();

	mov	rcx, rdi
	call	?countKeys@BerconGradient@@QEAAHXZ	; BerconGradient::countKeys

; 593  : 		gradient->reset();	

	mov	rcx, QWORD PTR [rdi+456]
	mov	r14d, eax
	call	?reset@GradientRamp@@QEAAXXZ		; GradientRamp::reset

; 594  : 		pblockGetValue(pb_interpolation,gradient->interpolation);	

	mov	rcx, QWORD PTR [rdi+160]
	mov	edx, 8
	mov	r9, QWORD PTR [rdi+456]
	mov	r8d, ebp
	add	r9, 68					; 00000044H
	mov	DWORD PTR [rsp+40], r12d
	mov	QWORD PTR [rsp+32], rsi
	mov	r10, QWORD PTR [rcx]
	call	QWORD PTR [r10+1704]

; 595  : 		for (int i=0;i<keys;i++) {

	mov	ebx, r12d
	test	r14d, r14d
	jle	$LN3@Update
	vmovaps	XMMWORD PTR [rsp+80], xmm6
	vmovss	xmm6, DWORD PTR __real@3f800000
	npad	2
$LL4@Update:

; 596  : 			float pos; AColor col; Texmap* tex;
; 597  : 			pblock->GetValue(pb_positions, t, pos, ivalid, i);

	mov	rcx, QWORD PTR [rdi+160]
	lea	r9, QWORD PTR pos$6[rsp]
	mov	edx, 2
	mov	DWORD PTR [rsp+40], ebx
	mov	r8d, ebp
	mov	QWORD PTR [rsp+32], rsi
	mov	rax, QWORD PTR [rcx]
	call	QWORD PTR [rax+1712]

; 598  : 			pblock->GetValue(pb_submaps, t, tex, ivalid, i);

	mov	rcx, QWORD PTR [rdi+160]
	lea	r9, QWORD PTR tex$7[rsp]
	xor	edx, edx
	mov	DWORD PTR [rsp+40], ebx
	mov	r8d, ebp
	mov	QWORD PTR [rsp+32], rsi
	mov	rax, QWORD PTR [rcx]
	call	QWORD PTR [rax+1640]

; 599  : 			pblock->GetValue(pb_colors, t, col, ivalid, i);

	mov	rcx, QWORD PTR [rdi+160]
	lea	r9, QWORD PTR col$3[rsp]
	mov	edx, 1
	mov	DWORD PTR [rsp+40], ebx
	mov	r8d, ebp
	mov	QWORD PTR [rsp+32], rsi
	mov	rax, QWORD PTR [rcx]
	call	QWORD PTR [rax+1664]

; 600  : 			if (i == 0)

	test	ebx, ebx
	jne	SHORT $LN12@Update

; 601  : 				pos = 0.f;

	vxorps	xmm2, xmm2, xmm2
	vmovss	DWORD PTR pos$6[rsp], xmm2
	jmp	SHORT $LN14@Update
$LN12@Update:

; 602  : 			else if (i == 1)

	cmp	ebx, 1
	jne	SHORT $LN36@Update

; 603  : 				pos = 1.f;

	vmovss	DWORD PTR pos$6[rsp], xmm6
	vmovaps	xmm2, xmm6
	jmp	SHORT $LN14@Update
$LN36@Update:
	vmovss	xmm2, DWORD PTR pos$6[rsp]
$LN14@Update:

; 604  : 			gradient->addKey(i,pos,col,tex);

	vmovups	xmm0, XMMWORD PTR col$3[rsp]
	mov	rax, QWORD PTR tex$7[rsp]
	lea	r9, QWORD PTR $T1[rsp]
	mov	rcx, QWORD PTR [rdi+456]
	mov	edx, ebx
	vmovdqa	XMMWORD PTR $T1[rsp], xmm0
	mov	QWORD PTR [rsp+32], rax
	call	?addKey@GradientRamp@@QEAAXHMVAColor@@PEAVTexmap@@@Z ; GradientRamp::addKey

; 605  : 			if (gradient->getSubtex(i))

	mov	rcx, QWORD PTR [rdi+456]
	mov	edx, ebx
	call	?getSubtex@GradientRamp@@QEAAPEAVTexmap@@H@Z ; GradientRamp::getSubtex
	test	rax, rax
	je	SHORT $LN2@Update

; 606  : 				gradient->getSubtex(i)->Update(t,ivalid);

	mov	rcx, QWORD PTR [rdi+456]
	mov	edx, ebx
	call	?getSubtex@GradientRamp@@QEAAPEAVTexmap@@H@Z ; GradientRamp::getSubtex
	mov	r8, rsi
	mov	edx, ebp
	mov	rcx, rax
	mov	r9, QWORD PTR [rax]
	call	QWORD PTR [r9+1400]
$LN2@Update:

; 595  : 		for (int i=0;i<keys;i++) {

	inc	ebx
	cmp	ebx, r14d
	jl	$LL4@Update
	vmovaps	xmm6, XMMWORD PTR [rsp+80]
$LN3@Update:

; 607  : 		}	
; 608  : 		gradient->sort();

	mov	rcx, QWORD PTR [rdi+456]
	call	?sort@GradientRamp@@QEAAXXZ		; GradientRamp::sort

; 609  : 		gradient->invalidate();	

	mov	rcx, QWORD PTR [rdi+456]
	call	?invalidate@GradientRamp@@QEAAXXZ	; GradientRamp::invalidate

; 610  : 
; 611  : 		// General stuff
; 612  : 		pblockGetValue(pb_seed,				p_seed);

	mov	rcx, QWORD PTR [rdi+160]
	lea	r9, QWORD PTR [rdi+476]
	mov	edx, 10
	mov	DWORD PTR [rsp+40], r12d
	mov	r8d, ebp
	mov	QWORD PTR [rsp+32], rsi
	mov	rax, QWORD PTR [rcx]
	call	QWORD PTR [rax+1704]

; 613  : 		pblockGetValue(pb_type,				p_type);		

	mov	rcx, QWORD PTR [rdi+160]
	lea	r9, QWORD PTR [rdi+480]
	mov	edx, 7
	mov	DWORD PTR [rsp+40], r12d
	mov	r8d, ebp
	mov	QWORD PTR [rsp+32], rsi
	mov	rax, QWORD PTR [rcx]
	call	QWORD PTR [rax+1704]

; 614  : 		pblockGetValue(pb_rand_obj,			p_randObj);

	mov	rcx, QWORD PTR [rdi+160]
	lea	r9, QWORD PTR [rdi+484]
	mov	edx, 12
	mov	DWORD PTR [rsp+40], r12d
	mov	r8d, ebp
	mov	QWORD PTR [rsp+32], rsi
	mov	rax, QWORD PTR [rcx]
	call	QWORD PTR [rax+1704]

; 615  : 		pblockGetValue(pb_rand_mat,			p_randMat);

	mov	rcx, QWORD PTR [rdi+160]
	lea	r9, QWORD PTR [rdi+488]
	mov	edx, 11
	mov	DWORD PTR [rsp+40], r12d
	mov	r8d, ebp
	mov	QWORD PTR [rsp+32], rsi
	mov	rax, QWORD PTR [rcx]
	call	QWORD PTR [rax+1704]

; 616  : 		pblockGetValue(pb_rand_par,			p_randPar);

	mov	rcx, QWORD PTR [rdi+160]
	lea	r9, QWORD PTR [rdi+492]
	mov	edx, 13
	mov	DWORD PTR [rsp+40], r12d
	mov	r8d, ebp
	mov	QWORD PTR [rsp+32], rsi
	mov	rax, QWORD PTR [rcx]
	call	QWORD PTR [rax+1704]

; 617  : 		pblockGetValue(pb_rand_tile,		p_randTile);		

	mov	rcx, QWORD PTR [rdi+160]
	lea	r9, QWORD PTR [rdi+496]
	mov	edx, 14
	mov	DWORD PTR [rsp+40], r12d
	mov	r8d, ebp
	mov	QWORD PTR [rsp+32], rsi
	mov	rax, QWORD PTR [rcx]
	call	QWORD PTR [rax+1704]

; 618  : 		pblockGetValue(pb_range_min,		p_rangeMin);

	mov	rcx, QWORD PTR [rdi+160]
	lea	r9, QWORD PTR [rdi+500]
	mov	edx, 15
	mov	DWORD PTR [rsp+40], r12d
	mov	r8d, ebp
	mov	QWORD PTR [rsp+32], rsi
	mov	rax, QWORD PTR [rcx]
	call	QWORD PTR [rax+1712]

; 619  : 		pblockGetValue(pb_range_max,		p_rangeMax);

	mov	rcx, QWORD PTR [rdi+160]
	lea	r9, QWORD PTR [rdi+504]
	mov	edx, 16
	mov	DWORD PTR [rsp+40], r12d
	mov	r8d, ebp
	mov	QWORD PTR [rsp+32], rsi
	mov	rax, QWORD PTR [rcx]
	call	QWORD PTR [rax+1712]

; 620  : 		pblockGetValue(pb_gradient_uvw,		p_uvwType);

	mov	rcx, QWORD PTR [rdi+160]
	lea	r9, QWORD PTR [rdi+512]
	mov	edx, 18
	mov	DWORD PTR [rsp+40], r12d
	mov	r8d, ebp
	mov	QWORD PTR [rsp+32], rsi
	mov	rax, QWORD PTR [rcx]
	call	QWORD PTR [rax+1704]

; 621  : 		pblockGetValue(pb_gradient_normal,	p_normalType);

	mov	rcx, QWORD PTR [rdi+160]
	lea	r9, QWORD PTR [rdi+520]
	mov	edx, 19
	mov	DWORD PTR [rsp+40], r12d
	mov	rax, QWORD PTR [rcx]
	mov	r8d, ebp
	mov	QWORD PTR [rsp+32], rsi
	call	QWORD PTR [rax+1704]

; 622  : 		pblockGetValue(pb_gradient_normal2,	p_normalFunction);

	mov	rcx, QWORD PTR [rdi+160]
	lea	r9, QWORD PTR [rdi+524]
	mov	edx, 20
	mov	DWORD PTR [rsp+40], r12d
	mov	r8d, ebp
	mov	QWORD PTR [rsp+32], rsi
	mov	rax, QWORD PTR [rcx]
	call	QWORD PTR [rax+1704]

; 623  : 		pblockGetValue(pb_ior,				p_ior);

	mov	rcx, QWORD PTR [rdi+160]
	lea	r9, QWORD PTR [rdi+528]
	mov	edx, 21
	mov	DWORD PTR [rsp+40], r12d
	mov	r8d, ebp
	mov	QWORD PTR [rsp+32], rsi
	mov	rax, QWORD PTR [rcx]
	call	QWORD PTR [rax+1712]

; 624  : 
; 625  : 		pblockGetValue(pb_dison,			p_disOn);

	mov	rcx, QWORD PTR [rdi+160]
	lea	r9, QWORD PTR [rdi+532]
	mov	edx, 26
	mov	DWORD PTR [rsp+40], r12d
	mov	r8d, ebp
	mov	QWORD PTR [rsp+32], rsi
	mov	rax, QWORD PTR [rcx]
	call	QWORD PTR [rax+1704]

; 626  : 		pblockGetValue(pb_disstr,			p_disStr);

	mov	rcx, QWORD PTR [rdi+160]
	lea	r9, QWORD PTR [rdi+536]
	mov	edx, 25
	mov	DWORD PTR [rsp+40], r12d
	mov	r8d, ebp
	mov	QWORD PTR [rsp+32], rsi
	mov	rax, QWORD PTR [rcx]
	call	QWORD PTR [rax+1712]

; 627  : 
; 628  : 		pblockGetValue(pb_reverse,			p_reverse);

	mov	rcx, QWORD PTR [rdi+160]
	lea	r9, QWORD PTR [rdi+516]
	mov	edx, 9
	mov	DWORD PTR [rsp+40], r12d
	mov	r8d, ebp
	mov	QWORD PTR [rsp+32], rsi
	mov	rax, QWORD PTR [rcx]
	call	QWORD PTR [rax+1704]

; 629  : 		pblockGetValue(pb_range_loop,		p_rangeLoop);

	mov	rcx, QWORD PTR [rdi+160]
	lea	r9, QWORD PTR [rdi+508]
	mov	edx, 17
	mov	DWORD PTR [rsp+40], r12d
	mov	r8d, ebp
	mov	QWORD PTR [rsp+32], rsi
	mov	rax, QWORD PTR [rcx]
	call	QWORD PTR [rax+1704]

; 630  : 		
; 631  : 		pblockGetValue(pb_node,				p_node);		

	mov	rcx, QWORD PTR [rdi+160]
	lea	r9, QWORD PTR [rdi+560]
	mov	edx, 22
	mov	DWORD PTR [rsp+40], r12d
	mov	r8d, ebp
	mov	QWORD PTR [rsp+32], rsi
	mov	rax, QWORD PTR [rcx]
	call	QWORD PTR [rax+1624]

; 632  : 
; 633  : 		if (p_rangeMin > p_rangeMax) // Switch so rangeMax is always bigger

	vmovss	xmm0, DWORD PTR [rdi+500]
	vcomiss	xmm0, DWORD PTR [rdi+504]
	mov	r12, QWORD PTR [rsp+104]
	mov	rbx, QWORD PTR [rsp+152]
	jbe	SHORT $LN16@Update

; 634  : 			{ float f = p_rangeMin; p_rangeMax = p_rangeMin; p_rangeMin = f; }	

	vmovss	DWORD PTR [rdi+504], xmm0
$LN16@Update:

; 635  : 		
; 636  : 		EnableStuff();

	mov	rcx, rdi
	call	?EnableStuff@BerconGradient@@QEAAXXZ	; BerconGradient::EnableStuff

; 637  : 
; 638  : 		berconXYZ.update(pbXYZ, t, ivalid);

	mov	rdx, QWORD PTR [rdi+168]
	lea	rcx, QWORD PTR [rdi+176]
	mov	r9, rsi
	mov	r8d, ebp
	call	?update@BerconXYZ@@QEAAXPEAVIParamBlock2@@HAEAVInterval@@@Z ; BerconXYZ::update
	mov	r14, QWORD PTR [rsp+96]
$LN7@Update:
; File c:\program files\autodesk\3ds max 2020 sdk\maxsdk\include\interval.h

; 155  : 		Interval& operator&=(const Interval i) { return (*this = (*this&i)); }

	mov	r8, QWORD PTR [rsi]
	lea	rdx, QWORD PTR $T5[rsp]
	mov	rcx, r15
	call	QWORD PTR __imp_??IInterval@@QEBA?AV0@V0@@Z
	mov	rsi, QWORD PTR [rsp+160]
	mov	rcx, QWORD PTR [rax]
	mov	QWORD PTR [r15], rcx
$LN6@Update:
; File g:\dropbox\github\berconmaps\src\bercongradient.cpp

; 642  : }

	add	rsp, 112				; 00000070H
	pop	r15
	pop	rdi
	pop	rbp
	ret	0
?Update@BerconGradient@@UEAAXHAEAVInterval@@@Z ENDP	; BerconGradient::Update
_TEXT	ENDS
; Function compile flags: /Ogtp
; File g:\dropbox\github\berconmaps\src\bercongradient.cpp
;	COMDAT ?SetDlgThing@BerconGradient@@UEAAHPEAVParamDlg@@@Z
_TEXT	SEGMENT
this$ = 48
dlg$ = 56
?SetDlgThing@BerconGradient@@UEAAHPEAVParamDlg@@@Z PROC	; BerconGradient::SetDlgThing, COMDAT

; 845  : BOOL BerconGradient::SetDlgThing(ParamDlg* dlg) {	

$LN6:
	sub	rsp, 40					; 00000028H
	mov	r8, rcx

; 846  : 	/*if (dlg == xyzGenDlg)
; 847  : 		xyzGenDlg->SetThing(xyzGen);
; 848  : 	else*/ if (dlg == texoutDlg)

	mov	rcx, QWORD PTR ?texoutDlg@BerconGradient@@2PEAVParamDlg@@EA ; BerconGradient::texoutDlg
	cmp	rdx, rcx
	jne	SHORT $LN2@SetDlgThin

; 849  : 		texoutDlg->SetThing(texout);

	mov	rax, QWORD PTR [rcx]
	mov	rdx, QWORD PTR [r8+368]
	call	QWORD PTR [rax+24]

; 852  : 	return TRUE;

	mov	eax, 1

; 853  : }

	add	rsp, 40					; 00000028H
	ret	0
$LN2@SetDlgThin:

; 850  : 	else 
; 851  : 		return FALSE;

	xor	eax, eax

; 853  : }

	add	rsp, 40					; 00000028H
	ret	0
?SetDlgThing@BerconGradient@@UEAAHPEAVParamDlg@@@Z ENDP	; BerconGradient::SetDlgThing
_TEXT	ENDS
; Function compile flags: /Ogtp
; File g:\dropbox\github\berconmaps\src\bercongradient.cpp
; File c:\program files\autodesk\3ds max 2020 sdk\maxsdk\include\iparamb2.h
; File g:\dropbox\github\berconmaps\src\bercongradient.cpp
; File g:\dropbox\github\berconmaps\src\berconcommon.h
; File c:\program files\autodesk\3ds max 2020 sdk\maxsdk\include\iparamb2.h
; File g:\dropbox\github\berconmaps\src\bercongradient.cpp
;	COMDAT ?CreateParamDlg@BerconGradient@@UEAAPEAVParamDlg@@PEAUHWND__@@PEAVIMtlParams@@@Z
_TEXT	SEGMENT
$T1 = 32
$T2 = 64
$T3 = 64
this$ = 64
hwMtlEdit$ = 72
imp$ = 80
?CreateParamDlg@BerconGradient@@UEAAPEAVParamDlg@@PEAUHWND__@@PEAVIMtlParams@@@Z PROC ; BerconGradient::CreateParamDlg, COMDAT

; 832  : ParamDlg* BerconGradient::CreateParamDlg(HWND hwMtlEdit, IMtlParams *imp) {

$LN23:
	push	r14
	sub	rsp, 48					; 00000030H
	mov	QWORD PTR $T1[rsp], -2
	mov	QWORD PTR [rsp+72], rbx
	mov	QWORD PTR [rsp+80], rsi
	mov	QWORD PTR [rsp+88], rdi
	mov	rbx, r8
	mov	rdi, rdx
	mov	rsi, rcx

; 833  : 	//xyzGenDlg = xyzGen->CreateParamDlg(hwMtlEdit, imp);
; 834  : 	IAutoMParamDlg* masterDlg = BerconGradientDesc.CreateParamDlgs(hwMtlEdit, imp, this);

	mov	r9, rcx
	lea	rcx, OFFSET FLAT:?BerconGradientDesc@@3VBerconGradientClassDesc@@A
	call	QWORD PTR __imp_?CreateParamDlgs@ClassDesc2@@QEAAPEAVIAutoMParamDlg@@PEAUHWND__@@PEAVIMtlParams@@PEAVReferenceTarget@@@Z
	mov	r14, rax

; 835  : 	texoutDlg = texout->CreateParamDlg(hwMtlEdit, imp);

	mov	rcx, QWORD PTR [rsi+440]
	mov	r9, QWORD PTR [rcx]
	mov	r8, rbx
	mov	rdx, rdi
	call	QWORD PTR [r9+1424]
	mov	QWORD PTR ?texoutDlg@BerconGradient@@2PEAVParamDlg@@EA, rax ; BerconGradient::texoutDlg

; 836  : 	//masterDlg->AddDlg(xyzGenDlg);	
; 837  : 	masterDlg->AddDlg(texoutDlg);

	mov	r8, QWORD PTR [r14]
	mov	rdx, rax
	mov	rcx, r14
	call	QWORD PTR [r8+120]

; 838  : 	gradientmap_param_blk.SetUserDlgProc(new BerconGradientDlgProc(this));

	mov	ecx, 24
	call	QWORD PTR __imp_??2MaxHeapOperators@@SAPEAX_K@Z
	mov	QWORD PTR $T3[rsp], rax
	lea	rbx, OFFSET FLAT:??_7ParamMap2UserDlgProc@@6B@
	test	rax, rax
	je	SHORT $LN4@CreatePara
	mov	QWORD PTR [rax], rbx

; 330  : 		BerconGradientDlgProc(BerconGradient *m) {parentMap = m; igrad = NULL;}		

	lea	rcx, OFFSET FLAT:??_7BerconGradientDlgProc@@6B@
	mov	QWORD PTR [rax], rcx
	mov	QWORD PTR [rax+8], rsi
	mov	QWORD PTR [rax+16], 0
$LN4@CreatePara:
; File c:\program files\autodesk\3ds max 2020 sdk\maxsdk\include\iparamb2.h

; 4077 : 	inline void		SetUserDlgProc(ParamMap2UserDlgProc* proc=NULL) { SetUserDlgProc(0, proc); }

	xor	edx, edx
	mov	r8, rax
	lea	rcx, OFFSET FLAT:?gradientmap_param_blk@@3VParamBlockDesc2@@A
	call	QWORD PTR __imp_?SetUserDlgProc@ParamBlockDesc2@@QEAAXFPEAVParamMap2UserDlgProc@@@Z
; File g:\dropbox\github\berconmaps\src\bercongradient.cpp

; 840  : 	xyz_blk.SetUserDlgProc(new BerconXYZDlgProc(this));

	mov	ecx, 16
	call	QWORD PTR __imp_??2MaxHeapOperators@@SAPEAX_K@Z
	mov	QWORD PTR $T2[rsp], rax
	test	rax, rax
	je	SHORT $LN6@CreatePara
	mov	QWORD PTR [rax], rbx
; File g:\dropbox\github\berconmaps\src\berconcommon.h

; 265  : 		BerconXYZDlgProc(ReferenceTarget *m) {reftarg = m;}		

	lea	rcx, OFFSET FLAT:??_7BerconXYZDlgProc@@6B@
	mov	QWORD PTR [rax], rcx
	mov	QWORD PTR [rax+8], rsi
$LN6@CreatePara:
; File c:\program files\autodesk\3ds max 2020 sdk\maxsdk\include\iparamb2.h

; 4077 : 	inline void		SetUserDlgProc(ParamMap2UserDlgProc* proc=NULL) { SetUserDlgProc(0, proc); }

	xor	edx, edx
	mov	r8, rax
	lea	rcx, OFFSET FLAT:?xyz_blk@@3VXYZ_Desc@@A
	call	QWORD PTR __imp_?SetUserDlgProc@ParamBlockDesc2@@QEAAXFPEAVParamMap2UserDlgProc@@@Z
; File g:\dropbox\github\berconmaps\src\bercongradient.cpp

; 841  : 	EnableStuff();

	mov	rcx, rsi
	call	?EnableStuff@BerconGradient@@QEAAXXZ	; BerconGradient::EnableStuff

; 842  : 	return masterDlg;

	mov	rax, r14

; 843  : }						

	mov	rbx, QWORD PTR [rsp+72]
	mov	rsi, QWORD PTR [rsp+80]
	mov	rdi, QWORD PTR [rsp+88]
	add	rsp, 48					; 00000030H
	pop	r14
	ret	0
?CreateParamDlg@BerconGradient@@UEAAPEAVParamDlg@@PEAUHWND__@@PEAVIMtlParams@@@Z ENDP ; BerconGradient::CreateParamDlg
_TEXT	ENDS
;	COMDAT text$x
text$x	SEGMENT
$T1 = 32
$T2 = 64
$T3 = 64
this$ = 64
hwMtlEdit$ = 72
imp$ = 80
?dtor$0@?0??CreateParamDlg@BerconGradient@@UEAAPEAVParamDlg@@PEAUHWND__@@PEAVIMtlParams@@@Z@4HA PROC ; `BerconGradient::CreateParamDlg'::`1'::dtor$0
	mov	rcx, QWORD PTR $T3[rdx]
	rex_jmp	QWORD PTR __imp_??3MaxHeapOperators@@SAXPEAX@Z
?dtor$0@?0??CreateParamDlg@BerconGradient@@UEAAPEAVParamDlg@@PEAUHWND__@@PEAVIMtlParams@@@Z@4HA ENDP ; `BerconGradient::CreateParamDlg'::`1'::dtor$0
$T1 = 32
$T2 = 64
$T3 = 64
this$ = 64
hwMtlEdit$ = 72
imp$ = 80
?dtor$2@?0??CreateParamDlg@BerconGradient@@UEAAPEAVParamDlg@@PEAUHWND__@@PEAVIMtlParams@@@Z@4HA PROC ; `BerconGradient::CreateParamDlg'::`1'::dtor$2
	mov	rcx, QWORD PTR $T3[rdx]
	jmp	??1ParamMap2UserDlgProc@@UEAA@XZ	; ParamMap2UserDlgProc::~ParamMap2UserDlgProc
?dtor$2@?0??CreateParamDlg@BerconGradient@@UEAAPEAVParamDlg@@PEAUHWND__@@PEAVIMtlParams@@@Z@4HA ENDP ; `BerconGradient::CreateParamDlg'::`1'::dtor$2
$T1 = 32
$T2 = 64
$T3 = 64
this$ = 64
hwMtlEdit$ = 72
imp$ = 80
?dtor$1@?0??CreateParamDlg@BerconGradient@@UEAAPEAVParamDlg@@PEAUHWND__@@PEAVIMtlParams@@@Z@4HA PROC ; `BerconGradient::CreateParamDlg'::`1'::dtor$1
	mov	rcx, QWORD PTR $T2[rdx]
	rex_jmp	QWORD PTR __imp_??3MaxHeapOperators@@SAXPEAX@Z
?dtor$1@?0??CreateParamDlg@BerconGradient@@UEAAPEAVParamDlg@@PEAUHWND__@@PEAVIMtlParams@@@Z@4HA ENDP ; `BerconGradient::CreateParamDlg'::`1'::dtor$1
$T1 = 32
$T2 = 64
$T3 = 64
this$ = 64
hwMtlEdit$ = 72
imp$ = 80
?dtor$3@?0??CreateParamDlg@BerconGradient@@UEAAPEAVParamDlg@@PEAUHWND__@@PEAVIMtlParams@@@Z@4HA PROC ; `BerconGradient::CreateParamDlg'::`1'::dtor$3
	mov	rcx, QWORD PTR $T2[rdx]
	jmp	??1ParamMap2UserDlgProc@@UEAA@XZ	; ParamMap2UserDlgProc::~ParamMap2UserDlgProc
?dtor$3@?0??CreateParamDlg@BerconGradient@@UEAAPEAVParamDlg@@PEAUHWND__@@PEAVIMtlParams@@@Z@4HA ENDP ; `BerconGradient::CreateParamDlg'::`1'::dtor$3
text$x	ENDS
; Function compile flags: /Ogtp
;	COMDAT text$x
text$x	SEGMENT
$T1 = 32
$T2 = 64
$T3 = 64
this$ = 64
hwMtlEdit$ = 72
imp$ = 80
?dtor$0@?0??CreateParamDlg@BerconGradient@@UEAAPEAVParamDlg@@PEAUHWND__@@PEAVIMtlParams@@@Z@4HA PROC ; `BerconGradient::CreateParamDlg'::`1'::dtor$0
	mov	rcx, QWORD PTR $T3[rdx]
	rex_jmp	QWORD PTR __imp_??3MaxHeapOperators@@SAXPEAX@Z
?dtor$0@?0??CreateParamDlg@BerconGradient@@UEAAPEAVParamDlg@@PEAUHWND__@@PEAVIMtlParams@@@Z@4HA ENDP ; `BerconGradient::CreateParamDlg'::`1'::dtor$0
text$x	ENDS
; Function compile flags: /Ogtp
;	COMDAT text$x
text$x	SEGMENT
$T1 = 32
$T2 = 64
$T3 = 64
this$ = 64
hwMtlEdit$ = 72
imp$ = 80
?dtor$2@?0??CreateParamDlg@BerconGradient@@UEAAPEAVParamDlg@@PEAUHWND__@@PEAVIMtlParams@@@Z@4HA PROC ; `BerconGradient::CreateParamDlg'::`1'::dtor$2
	mov	rcx, QWORD PTR $T3[rdx]
	jmp	??1ParamMap2UserDlgProc@@UEAA@XZ	; ParamMap2UserDlgProc::~ParamMap2UserDlgProc
?dtor$2@?0??CreateParamDlg@BerconGradient@@UEAAPEAVParamDlg@@PEAUHWND__@@PEAVIMtlParams@@@Z@4HA ENDP ; `BerconGradient::CreateParamDlg'::`1'::dtor$2
text$x	ENDS
; Function compile flags: /Ogtp
;	COMDAT text$x
text$x	SEGMENT
$T1 = 32
$T2 = 64
$T3 = 64
this$ = 64
hwMtlEdit$ = 72
imp$ = 80
?dtor$1@?0??CreateParamDlg@BerconGradient@@UEAAPEAVParamDlg@@PEAUHWND__@@PEAVIMtlParams@@@Z@4HA PROC ; `BerconGradient::CreateParamDlg'::`1'::dtor$1
	mov	rcx, QWORD PTR $T2[rdx]
	rex_jmp	QWORD PTR __imp_??3MaxHeapOperators@@SAXPEAX@Z
?dtor$1@?0??CreateParamDlg@BerconGradient@@UEAAPEAVParamDlg@@PEAUHWND__@@PEAVIMtlParams@@@Z@4HA ENDP ; `BerconGradient::CreateParamDlg'::`1'::dtor$1
text$x	ENDS
; Function compile flags: /Ogtp
;	COMDAT text$x
text$x	SEGMENT
$T1 = 32
$T2 = 64
$T3 = 64
this$ = 64
hwMtlEdit$ = 72
imp$ = 80
?dtor$3@?0??CreateParamDlg@BerconGradient@@UEAAPEAVParamDlg@@PEAUHWND__@@PEAVIMtlParams@@@Z@4HA PROC ; `BerconGradient::CreateParamDlg'::`1'::dtor$3
	mov	rcx, QWORD PTR $T2[rdx]
	jmp	??1ParamMap2UserDlgProc@@UEAA@XZ	; ParamMap2UserDlgProc::~ParamMap2UserDlgProc
?dtor$3@?0??CreateParamDlg@BerconGradient@@UEAAPEAVParamDlg@@PEAUHWND__@@PEAVIMtlParams@@@Z@4HA ENDP ; `BerconGradient::CreateParamDlg'::`1'::dtor$3
text$x	ENDS
; Function compile flags: /Ogtp
; File g:\dropbox\github\berconmaps\src\bercongradient.h
;	COMDAT ?GetToolTip@BerconGradient@@UEAAHHAEAVWStr@@PEAVICurveCtl@@@Z
_TEXT	SEGMENT
this$ = 8
iButton$ = 16
ToolTip$ = 24
pCCtl$ = 32
?GetToolTip@BerconGradient@@UEAAHHAEAVWStr@@PEAVICurveCtl@@@Z PROC ; BerconGradient::GetToolTip, COMDAT

; 105  : 		BOOL GetToolTip(int iButton, TSTR &ToolTip,ICurveCtl *pCCtl) { return TRUE; };

	mov	eax, 1
	ret	0
?GetToolTip@BerconGradient@@UEAAHHAEAVWStr@@PEAVICurveCtl@@@Z ENDP ; BerconGradient::GetToolTip
_TEXT	ENDS
; Function compile flags: /Ogtp
; File g:\dropbox\github\berconmaps\src\bercongradient.h
;	COMDAT ?SetCustomImageList@BerconGradient@@UEAAHAEAPEAU_IMAGELIST@@PEAVICurveCtl@@@Z
_TEXT	SEGMENT
this$ = 8
hCTools$ = 16
pCCtl$ = 24
?SetCustomImageList@BerconGradient@@UEAAHAEAPEAU_IMAGELIST@@PEAVICurveCtl@@@Z PROC ; BerconGradient::SetCustomImageList, COMDAT

; 104  : 		BOOL SetCustomImageList(HIMAGELIST &hCTools,ICurveCtl *pCCtl) { return TRUE; };

	mov	eax, 1
	ret	0
?SetCustomImageList@BerconGradient@@UEAAHAEAPEAU_IMAGELIST@@PEAVICurveCtl@@@Z ENDP ; BerconGradient::SetCustomImageList
_TEXT	ENDS
; Function compile flags: /Ogtp
; File g:\dropbox\github\berconmaps\src\bercongradient.h
;	COMDAT ?gradReset@BerconGradient@@UEAAXXZ
_TEXT	SEGMENT
this$ = 8
?gradReset@BerconGradient@@UEAAXXZ PROC			; BerconGradient::gradReset, COMDAT

; 98   : 		void gradReset() { resetKeys(); }

	add	rcx, -144				; ffffffffffffff70H
	jmp	?resetKeys@BerconGradient@@QEAAXXZ	; BerconGradient::resetKeys
?gradReset@BerconGradient@@UEAAXXZ ENDP			; BerconGradient::gradReset
_TEXT	ENDS
; Function compile flags: /Ogtp
; File g:\dropbox\github\berconmaps\src\bercongradient.cpp
; File c:\program files\autodesk\3ds max 2020 sdk\maxsdk\include\interval.h
; File g:\dropbox\github\berconmaps\src\bercongradient.cpp
; File c:\program files\autodesk\3ds max 2020 sdk\maxsdk\include\interval.h
; File g:\dropbox\github\berconmaps\src\bercongradient.cpp
; File c:\program files\autodesk\3ds max 2020 sdk\maxsdk\include\iparamb2.h
; File g:\dropbox\github\berconmaps\src\bercongradient.cpp
;	COMDAT ?gradSelKey@BerconGradient@@UEAAXXZ
_TEXT	SEGMENT
$T1 = 48
this$ = 48
?gradSelKey@BerconGradient@@UEAAXXZ PROC		; BerconGradient::gradSelKey, COMDAT

; 821  : void BerconGradient::gradSelKey() {

$LN13:
	push	rsi
	sub	rsp, 32					; 00000020H

; 822  : 	if (!pblock) return;

	cmp	QWORD PTR [rcx+16], 0
	mov	rsi, rcx
	je	$LN1@gradSelKey
	mov	QWORD PTR [rsp+56], rbx
	mov	QWORD PTR [rsp+64], rdi
; File c:\program files\autodesk\3ds max 2020 sdk\maxsdk\include\interval.h

; 126  : 		void SetEmpty() { start = TIME_NegInfinity; end = TIME_NegInfinity; }

	mov	DWORD PTR [rcx+304], -2147483648	; ffffffff80000000H
	mov	DWORD PTR [rcx+308], -2147483648	; ffffffff80000000H
; File g:\dropbox\github\berconmaps\src\bercongradient.cpp

; 824  : 	Update(GetCOREInterface()->GetTime(),Interval());		

	call	QWORD PTR __imp_?GetCOREInterface@@YAPEAVInterface@@XZ
	mov	rdi, QWORD PTR [rsi-144]
	mov	rcx, rax
; File c:\program files\autodesk\3ds max 2020 sdk\maxsdk\include\interval.h

; 126  : 		void SetEmpty() { start = TIME_NegInfinity; end = TIME_NegInfinity; }

	mov	DWORD PTR $T1[rsp], -2147483648		; ffffffff80000000H
	mov	DWORD PTR $T1[rsp+4], -2147483648	; ffffffff80000000H
; File g:\dropbox\github\berconmaps\src\bercongradient.cpp

; 824  : 	Update(GetCOREInterface()->GetTime(),Interval());		

	mov	rdx, QWORD PTR [rax]
	call	QWORD PTR [rdx+1448]
	mov	edx, eax
	lea	r8, QWORD PTR $T1[rsp]
	lea	rcx, QWORD PTR [rsi-144]
	call	QWORD PTR [rdi+1400]

; 825  : 	pblock->GetDesc()->InvalidateUI(pb_keyTex);	

	mov	rcx, QWORD PTR [rsi+16]
	mov	rax, QWORD PTR [rcx]
	call	QWORD PTR [rax+1400]
; File c:\program files\autodesk\3ds max 2020 sdk\maxsdk\include\iparamb2.h

; 4058 : 	PB2Export void InvalidateUI(ParamID id, int tabIndex=-1) { cd->InvalidateUI(this, id, tabIndex); } // nominated param

	mov	r8d, 3
	or	r9d, -1
	mov	rdx, rax
	mov	rcx, QWORD PTR [rax+40]
	call	QWORD PTR __imp_?InvalidateUI@ClassDesc2@@QEAAXPEAVParamBlockDesc2@@FH@Z
	mov	rdi, QWORD PTR [rsp+64]
	mov	rbx, QWORD PTR [rsp+56]
$LN1@gradSelKey:
; File g:\dropbox\github\berconmaps\src\bercongradient.cpp

; 826  : }

	add	rsp, 32					; 00000020H
	pop	rsi
	ret	0
?gradSelKey@BerconGradient@@UEAAXXZ ENDP		; BerconGradient::gradSelKey
_TEXT	ENDS
; Function compile flags: /Ogtp
; File g:\dropbox\github\berconmaps\src\bercongradient.cpp
; File c:\program files\autodesk\3ds max 2020 sdk\maxsdk\include\interval.h
; File g:\dropbox\github\berconmaps\src\bercongradient.cpp
; File c:\program files\autodesk\3ds max 2020 sdk\maxsdk\include\interval.h
; File g:\dropbox\github\berconmaps\src\bercongradient.cpp
;	COMDAT ?gradDelKey@BerconGradient@@UEAAXH@Z
_TEXT	SEGMENT
$T1 = 48
this$ = 48
n$ = 56
?gradDelKey@BerconGradient@@UEAAXH@Z PROC		; BerconGradient::gradDelKey, COMDAT

; 796  : void BerconGradient::gradDelKey(int n) {

$LN13:
	mov	QWORD PTR [rsp+24], rbx
	push	rdi
	sub	rsp, 32					; 00000020H

; 797  : 	if (!pblock) return;

	cmp	QWORD PTR [rcx+16], 0
	mov	edi, edx
	mov	rbx, rcx
	je	$LN1@gradDelKey

; 798  : 	if (n <= 1) return; // Don't delete keys 0 and 1

	cmp	edx, 1
	jle	$LN1@gradDelKey

; 799  : 	if (n < countKeys()) {

	mov	QWORD PTR [rsp+56], rsi
	lea	rsi, QWORD PTR [rcx-144]
	mov	rcx, rsi
	call	?countKeys@BerconGradient@@QEAAHXZ	; BerconGradient::countKeys
	cmp	edi, eax
	jge	SHORT $LN4@gradDelKey

; 800  : 		pblock->Delete(pb_submaps, n, 1);

	mov	rcx, QWORD PTR [rbx+16]
	xor	edx, edx
	mov	r8d, edi
	mov	rax, QWORD PTR [rcx]
	lea	r9d, QWORD PTR [rdx+1]
	call	QWORD PTR [rax+1888]

; 801  : 		pblock->Delete(pb_colors, n, 1);

	mov	rcx, QWORD PTR [rbx+16]
	mov	edx, 1
	mov	r9d, edx
	mov	r8d, edi
	mov	rax, QWORD PTR [rcx]
	call	QWORD PTR [rax+1888]

; 802  : 		pblock->Delete(pb_positions, n, 1);

	mov	rcx, QWORD PTR [rbx+16]
	mov	edx, 2
	mov	r8d, edi
	mov	rax, QWORD PTR [rcx]
	lea	r9d, QWORD PTR [rdx-1]
	call	QWORD PTR [rax+1888]
$LN4@gradDelKey:
; File c:\program files\autodesk\3ds max 2020 sdk\maxsdk\include\interval.h

; 126  : 		void SetEmpty() { start = TIME_NegInfinity; end = TIME_NegInfinity; }

	mov	DWORD PTR [rbx+304], -2147483648	; ffffffff80000000H
	mov	DWORD PTR [rbx+308], -2147483648	; ffffffff80000000H
; File g:\dropbox\github\berconmaps\src\bercongradient.cpp

; 805  : 	Update(GetCOREInterface()->GetTime(),Interval());

	call	QWORD PTR __imp_?GetCOREInterface@@YAPEAVInterface@@XZ
	mov	rbx, QWORD PTR [rsi]
	mov	rcx, rax
; File c:\program files\autodesk\3ds max 2020 sdk\maxsdk\include\interval.h

; 126  : 		void SetEmpty() { start = TIME_NegInfinity; end = TIME_NegInfinity; }

	mov	DWORD PTR $T1[rsp], -2147483648		; ffffffff80000000H
	mov	DWORD PTR $T1[rsp+4], -2147483648	; ffffffff80000000H
; File g:\dropbox\github\berconmaps\src\bercongradient.cpp

; 805  : 	Update(GetCOREInterface()->GetTime(),Interval());

	mov	rdx, QWORD PTR [rax]
	call	QWORD PTR [rdx+1448]
	lea	r8, QWORD PTR $T1[rsp]
	mov	rcx, rsi
	mov	edx, eax
	call	QWORD PTR [rbx+1400]
	mov	rsi, QWORD PTR [rsp+56]
$LN1@gradDelKey:

; 806  : }

	mov	rbx, QWORD PTR [rsp+64]
	add	rsp, 32					; 00000020H
	pop	rdi
	ret	0
?gradDelKey@BerconGradient@@UEAAXH@Z ENDP		; BerconGradient::gradDelKey
_TEXT	ENDS
; Function compile flags: /Ogtp
; File g:\dropbox\github\berconmaps\src\bercongradient.cpp
; File c:\program files\autodesk\3ds max 2020 sdk\maxsdk\include\interval.h
; File g:\dropbox\github\berconmaps\src\bercongradient.cpp
; File c:\program files\autodesk\3ds max 2020 sdk\maxsdk\include\interval.h
; File g:\dropbox\github\berconmaps\src\bercongradient.cpp
;	COMDAT ?gradMoveKey@BerconGradient@@UEAAXHM@Z
_TEXT	SEGMENT
$T1 = 80
this$ = 80
n$ = 88
pos$ = 96
?gradMoveKey@BerconGradient@@UEAAXHM@Z PROC		; BerconGradient::gradMoveKey, COMDAT

; 775  : void BerconGradient::gradMoveKey(int n, float pos) {

$LN11:
	mov	QWORD PTR [rsp+16], rbx
	mov	QWORD PTR [rsp+24], rbp
	mov	QWORD PTR [rsp+32], rsi
	push	rdi
	sub	rsp, 64					; 00000040H
	vmovaps	XMMWORD PTR [rsp+48], xmm6
	mov	esi, edx
	vmovaps	xmm6, xmm2
	mov	rbx, rcx

; 776  : 	TimeValue t = GetCOREInterface()->GetTime();

	call	QWORD PTR __imp_?GetCOREInterface@@YAPEAVInterface@@XZ
	mov	rcx, rax
	mov	r8, QWORD PTR [rax]
	call	QWORD PTR [r8+1448]

; 777  : 	if (n < countKeys())

	lea	rdi, QWORD PTR [rbx-144]
	mov	ebp, eax
	mov	rcx, rdi
	call	?countKeys@BerconGradient@@QEAAHXZ	; BerconGradient::countKeys
	cmp	esi, eax
	jge	SHORT $LN2@gradMoveKe

; 778  : 		pblock->SetValue(pb_positions, t, pos, n);

	mov	rcx, QWORD PTR [rbx+16]
	mov	edx, 2
	vmovaps	xmm3, xmm6
	mov	r8d, ebp
	mov	DWORD PTR [rsp+32], esi
	mov	r9, QWORD PTR [rcx]
	call	QWORD PTR [r9+1584]
$LN2@gradMoveKe:
; File c:\program files\autodesk\3ds max 2020 sdk\maxsdk\include\interval.h

; 126  : 		void SetEmpty() { start = TIME_NegInfinity; end = TIME_NegInfinity; }

	mov	DWORD PTR [rbx+304], -2147483648	; ffffffff80000000H
	mov	DWORD PTR [rbx+308], -2147483648	; ffffffff80000000H
; File g:\dropbox\github\berconmaps\src\bercongradient.cpp

; 780  : 	Update(GetCOREInterface()->GetTime(),Interval());

	call	QWORD PTR __imp_?GetCOREInterface@@YAPEAVInterface@@XZ
	mov	rbx, QWORD PTR [rdi]
	mov	rcx, rax
; File c:\program files\autodesk\3ds max 2020 sdk\maxsdk\include\interval.h

; 126  : 		void SetEmpty() { start = TIME_NegInfinity; end = TIME_NegInfinity; }

	mov	DWORD PTR $T1[rsp], -2147483648		; ffffffff80000000H
	mov	DWORD PTR $T1[rsp+4], -2147483648	; ffffffff80000000H
; File g:\dropbox\github\berconmaps\src\bercongradient.cpp

; 780  : 	Update(GetCOREInterface()->GetTime(),Interval());

	mov	rdx, QWORD PTR [rax]
	call	QWORD PTR [rdx+1448]
	lea	r8, QWORD PTR $T1[rsp]
	mov	rcx, rdi
	mov	edx, eax
	call	QWORD PTR [rbx+1400]

; 781  : }

	mov	rbx, QWORD PTR [rsp+88]
	mov	rbp, QWORD PTR [rsp+96]
	mov	rsi, QWORD PTR [rsp+104]
	vmovaps	xmm6, XMMWORD PTR [rsp+48]
	add	rsp, 64					; 00000040H
	pop	rdi
	ret	0
?gradMoveKey@BerconGradient@@UEAAXHM@Z ENDP		; BerconGradient::gradMoveKey
_TEXT	ENDS
; Function compile flags: /Ogtp
; File g:\dropbox\github\berconmaps\src\bercongradient.cpp
; File c:\program files\autodesk\3ds max 2020 sdk\maxsdk\include\interval.h
; File g:\dropbox\github\berconmaps\src\bercongradient.cpp
; File c:\program files\autodesk\3ds max 2020 sdk\maxsdk\include\interval.h
; File g:\dropbox\github\berconmaps\src\bercongradient.cpp
;	COMDAT ?gradAddKey@BerconGradient@@UEAAXM@Z
_TEXT	SEGMENT
$T1 = 48
$T2 = 96
this$ = 96
pos$ = 104
sub$ = 112
col$ = 120
?gradAddKey@BerconGradient@@UEAAXM@Z PROC		; BerconGradient::gradAddKey, COMDAT

; 784  : void BerconGradient::gradAddKey(float pos) {

$LN11:
	vmovss	DWORD PTR [rsp+16], xmm1
	push	rbx
	sub	rsp, 80					; 00000050H

; 785  : 	if (!pblock) return;

	cmp	QWORD PTR [rcx+16], 0
	mov	rbx, rcx
	je	$LN1@gradAddKey

; 786  : 	countKeys();

	mov	QWORD PTR [rsp+72], rsi
	mov	QWORD PTR [rsp+64], rdi
	lea	rdi, QWORD PTR [rcx-144]
	mov	rcx, rdi
	call	?countKeys@BerconGradient@@QEAAHXZ	; BerconGradient::countKeys

; 787  : 	AColor* col = &gradient->getColor(pos);

	vmovss	xmm2, DWORD PTR pos$[rsp]
	mov	rcx, QWORD PTR [rbx+312]
	lea	rdx, QWORD PTR $T1[rsp]
	call	?getColor@GradientRamp@@QEAA?AVAColor@@M@Z ; GradientRamp::getColor

; 788  : 	Texmap* sub = NULL;
; 789  : 	pblock->Append(pb_submaps, 1, &sub);

	mov	rcx, QWORD PTR [rbx+16]
	lea	r9, QWORD PTR sub$[rsp]
	xor	esi, esi
	mov	QWORD PTR col$[rsp], rax
	mov	QWORD PTR sub$[rsp], rsi
	xor	edx, edx
	mov	DWORD PTR [rsp+32], esi
	mov	rax, QWORD PTR [rcx]
	lea	r8d, QWORD PTR [rsi+1]
	call	QWORD PTR [rax+2088]

; 790  : 	pblock->Append(pb_colors, 1, &col);

	mov	rcx, QWORD PTR [rbx+16]
	lea	r9, QWORD PTR col$[rsp]
	mov	edx, 1
	mov	DWORD PTR [rsp+32], esi
	mov	r8d, edx
	mov	rax, QWORD PTR [rcx]
	call	QWORD PTR [rax+2128]

; 791  : 	pblock->Append(pb_positions, 1, &pos);

	mov	rcx, QWORD PTR [rbx+16]
	lea	edx, QWORD PTR [rsi+2]
	lea	r9, QWORD PTR pos$[rsp]
	mov	DWORD PTR [rsp+32], esi
	lea	r8d, QWORD PTR [rsi+1]
	mov	rax, QWORD PTR [rcx]
	call	QWORD PTR [rax+2168]
; File c:\program files\autodesk\3ds max 2020 sdk\maxsdk\include\interval.h

; 126  : 		void SetEmpty() { start = TIME_NegInfinity; end = TIME_NegInfinity; }

	mov	DWORD PTR [rbx+304], -2147483648	; ffffffff80000000H
	mov	DWORD PTR [rbx+308], -2147483648	; ffffffff80000000H
; File g:\dropbox\github\berconmaps\src\bercongradient.cpp

; 793  : 	Update(GetCOREInterface()->GetTime(),Interval());

	call	QWORD PTR __imp_?GetCOREInterface@@YAPEAVInterface@@XZ
	mov	rbx, QWORD PTR [rdi]
	mov	rcx, rax
; File c:\program files\autodesk\3ds max 2020 sdk\maxsdk\include\interval.h

; 126  : 		void SetEmpty() { start = TIME_NegInfinity; end = TIME_NegInfinity; }

	mov	DWORD PTR $T2[rsp], -2147483648		; ffffffff80000000H
	mov	DWORD PTR $T2[rsp+4], -2147483648	; ffffffff80000000H
; File g:\dropbox\github\berconmaps\src\bercongradient.cpp

; 793  : 	Update(GetCOREInterface()->GetTime(),Interval());

	mov	rdx, QWORD PTR [rax]
	call	QWORD PTR [rdx+1448]
	lea	r8, QWORD PTR $T2[rsp]
	mov	rcx, rdi
	mov	edx, eax
	call	QWORD PTR [rbx+1400]
	mov	rdi, QWORD PTR [rsp+64]
	mov	rsi, QWORD PTR [rsp+72]
$LN1@gradAddKey:

; 794  : }

	add	rsp, 80					; 00000050H
	pop	rbx
	ret	0
?gradAddKey@BerconGradient@@UEAAXM@Z ENDP		; BerconGradient::gradAddKey
_TEXT	ENDS
; Function compile flags: /Ogtp
; File g:\dropbox\github\berconmaps\src\bercongradient.cpp
; File c:\program files\autodesk\3ds max 2020 sdk\maxsdk\include\interval.h
; File g:\dropbox\github\berconmaps\src\bercongradient.cpp
;	COMDAT ?resetKeys@BerconGradient@@QEAAXXZ
_TEXT	SEGMENT
colors$ = 48
nullMaps$ = 64
col1$ = 80
col2$ = 96
floats$ = 128
this$ = 128
?resetKeys@BerconGradient@@QEAAXXZ PROC			; BerconGradient::resetKeys, COMDAT

; 749  : void BerconGradient::resetKeys() {	

$LN20:
	push	rbx
	sub	rsp, 112				; 00000070H
	mov	rbx, rcx

; 750  : 	if (!pblock) return;

	mov	rcx, QWORD PTR [rcx+160]
	test	rcx, rcx
	je	$LN1@resetKeys

; 751  : 
; 752  : 	//pblock->SetCount(pb_submaps, 2);
; 753  : 	//pblock->SetCount(pb_colors, 2);
; 754  : 	//pblock->SetCount(pb_positions, 2);
; 755  : 	/*
; 756  : 	pblock->SetValue(pb_submaps, t, NULL, 0);
; 757  : 	pblock->SetValue(pb_submaps, t, NULL, 1);
; 758  : 	pblock->SetValue(pb_colors, t, AColor(0.f,0.f,0.f,1.f), 0);
; 759  : 	pblock->SetValue(pb_colors, t, AColor(1.f,1.f,1.f,1.f), 1);
; 760  : 	pblock->SetValue(pb_positions, t, 0.f, 0);
; 761  : 	pblock->SetValue(pb_positions, t, 1.f, 1);
; 762  : */
; 763  : 	Texmap* nullMaps[2] = {NULL, NULL};
; 764  : 	pblock->Append(pb_submaps, 2, nullMaps);

	xor	edx, edx
	lea	r9, QWORD PTR nullMaps$[rsp]
	vpxor	xmm0, xmm0, xmm0
	vmovdqu	XMMWORD PTR nullMaps$[rsp], xmm0
	mov	rax, QWORD PTR [rcx]
	lea	r8d, QWORD PTR [rdx+2]
	mov	DWORD PTR [rsp+32], edx
	call	QWORD PTR [rax+2088]

; 765  : 	AColor col1 = AColor(0.f,0.f,0.f,1.f); AColor col2 = AColor(1.f,1.f,1.f,1.f);
; 766  : 	AColor* colors[2] = {&col1, &col2};
; 767  : 	pblock->Append(pb_colors, 2, colors);

	mov	rcx, QWORD PTR [rbx+160]
	lea	rax, QWORD PTR col1$[rsp]
	vmovups	xmm0, XMMWORD PTR __xmm@3f800000000000000000000000000000
	vmovups	xmm1, XMMWORD PTR __xmm@3f8000003f8000003f8000003f800000
	mov	QWORD PTR colors$[rsp], rax
	lea	r9, QWORD PTR colors$[rsp]
	lea	rax, QWORD PTR col2$[rsp]
	mov	DWORD PTR [rsp+32], 0
	mov	edx, 1
	mov	QWORD PTR colors$[rsp+8], rax
	vmovups	XMMWORD PTR col1$[rsp], xmm0
	vmovups	XMMWORD PTR col2$[rsp], xmm1
	mov	rax, QWORD PTR [rcx]
	lea	r8d, QWORD PTR [rdx+1]
	call	QWORD PTR [rax+2128]

; 768  : 	float floats[2] = {0.f, 1.f};
; 769  : 	pblock->Append(pb_positions, 2, floats);

	mov	rcx, QWORD PTR [rbx+160]
	lea	r9, QWORD PTR floats$[rsp]
	vmovss	xmm1, DWORD PTR __real@3f800000
	vxorps	xmm0, xmm0, xmm0
	vmovss	DWORD PTR floats$[rsp], xmm0
	vmovss	DWORD PTR floats$[rsp+4], xmm1
	mov	rax, QWORD PTR [rcx]
	mov	edx, 2
	mov	r8d, edx
	mov	DWORD PTR [rsp+32], 0
	call	QWORD PTR [rax+2168]
; File c:\program files\autodesk\3ds max 2020 sdk\maxsdk\include\interval.h

; 126  : 		void SetEmpty() { start = TIME_NegInfinity; end = TIME_NegInfinity; }

	mov	DWORD PTR [rbx+448], -2147483648	; ffffffff80000000H
	mov	DWORD PTR [rbx+452], -2147483648	; ffffffff80000000H
$LN1@resetKeys:
; File g:\dropbox\github\berconmaps\src\bercongradient.cpp

; 773  : }

	add	rsp, 112				; 00000070H
	pop	rbx
	ret	0
?resetKeys@BerconGradient@@QEAAXXZ ENDP			; BerconGradient::resetKeys
_TEXT	ENDS
; Function compile flags: /Ogtp
; File g:\dropbox\github\berconmaps\src\bercongradient.cpp
;	COMDAT ?countKeys@BerconGradient@@QEAAHXZ
_TEXT	SEGMENT
this$ = 48
?countKeys@BerconGradient@@QEAAHXZ PROC			; BerconGradient::countKeys, COMDAT

; 730  : int BerconGradient::countKeys() {

$LN7:
	push	rbx
	sub	rsp, 32					; 00000020H
	mov	rbx, rcx

; 731  : 	if (!pblock) return 0;

	mov	rcx, QWORD PTR [rcx+160]
	test	rcx, rcx
	jne	SHORT $LN2@countKeys
	xor	eax, eax

; 736  : }

	add	rsp, 32					; 00000020H
	pop	rbx
	ret	0
$LN2@countKeys:

; 732  : 	int smallest = pblock->Count(pb_submaps);

	mov	rax, QWORD PTR [rcx]
	xor	edx, edx
	mov	QWORD PTR [rsp+48], rdi
	call	QWORD PTR [rax+1864]

; 733  : 	if (smallest > pblock->Count(pb_colors)) smallest = pblock->Count(pb_colors);

	mov	rcx, QWORD PTR [rbx+160]
	mov	edx, 1
	mov	edi, eax
	mov	r8, QWORD PTR [rcx]
	call	QWORD PTR [r8+1864]
	cmp	edi, eax
	jle	SHORT $LN3@countKeys
	mov	rcx, QWORD PTR [rbx+160]
	mov	edx, 1
	mov	rax, QWORD PTR [rcx]
	call	QWORD PTR [rax+1864]
	mov	edi, eax
$LN3@countKeys:

; 734  : 	if (smallest > pblock->Count(pb_positions)) smallest = pblock->Count(pb_positions);	

	mov	rcx, QWORD PTR [rbx+160]
	mov	edx, 2
	mov	rax, QWORD PTR [rcx]
	call	QWORD PTR [rax+1864]
	cmp	edi, eax
	jle	SHORT $LN4@countKeys
	mov	rcx, QWORD PTR [rbx+160]
	mov	edx, 2
	mov	rax, QWORD PTR [rcx]
	call	QWORD PTR [rax+1864]
	mov	edi, eax
$LN4@countKeys:

; 735  : 	return smallest;

	mov	eax, edi
	mov	rdi, QWORD PTR [rsp+48]

; 736  : }

	add	rsp, 32					; 00000020H
	pop	rbx
	ret	0
?countKeys@BerconGradient@@QEAAHXZ ENDP			; BerconGradient::countKeys
_TEXT	ENDS
; Function compile flags: /Ogtp
; File g:\dropbox\github\berconmaps\src\bercongradient.cpp
; File c:\program files\autodesk\3ds max 2020 sdk\maxsdk\include\interval.h
; File g:\dropbox\github\berconmaps\src\bercongradient.cpp
;	COMDAT ?keyPosChanged@BerconGradient@@QEAAXM@Z
_TEXT	SEGMENT
$T1 = 80
this$ = 80
pos$ = 88
?keyPosChanged@BerconGradient@@QEAAXM@Z PROC		; BerconGradient::keyPosChanged, COMDAT

; 721  : void BerconGradient::keyPosChanged(float pos) {

$LN12:
	push	rdi
	sub	rsp, 64					; 00000040H

; 722  : 	if (!pblock) return;

	cmp	QWORD PTR [rcx+160], 0
	mov	rdi, rcx
	vmovaps	XMMWORD PTR [rsp+48], xmm6
	vmovaps	xmm6, xmm1
	je	$LN3@keyPosChan

; 723  : 	if (gradient->selected >= 0 && gradient->selected < gradient->numKeys()) {

	mov	rax, QWORD PTR [rcx+456]
	mov	ecx, DWORD PTR [rax+64]
	test	ecx, ecx
	js	$LN3@keyPosChan
	cmp	ecx, DWORD PTR [rax+56]
	jge	SHORT $LN3@keyPosChan

; 724  : 		TimeValue t = GetCOREInterface()->GetTime();		

	mov	QWORD PTR [rsp+88], rbx
	call	QWORD PTR __imp_?GetCOREInterface@@YAPEAVInterface@@XZ
	mov	rcx, rax
	mov	rdx, QWORD PTR [rax]
	call	QWORD PTR [rdx+1448]

; 725  : 		pblock->SetValue(pb_positions, t, pos, gradient->selected);

	mov	rcx, QWORD PTR [rdi+160]
	mov	edx, 2
	mov	r8, QWORD PTR [rdi+456]
	vmovaps	xmm3, xmm6
	mov	r9, QWORD PTR [rcx]
	mov	r8d, DWORD PTR [r8+64]
	mov	DWORD PTR [rsp+32], r8d
	mov	r8d, eax
	call	QWORD PTR [r9+1584]

; 726  : 		Update(GetCOREInterface()->GetTime(),Interval());

	call	QWORD PTR __imp_?GetCOREInterface@@YAPEAVInterface@@XZ
	mov	rbx, QWORD PTR [rdi]
	mov	rcx, rax
; File c:\program files\autodesk\3ds max 2020 sdk\maxsdk\include\interval.h

; 126  : 		void SetEmpty() { start = TIME_NegInfinity; end = TIME_NegInfinity; }

	mov	DWORD PTR $T1[rsp], -2147483648		; ffffffff80000000H
	mov	DWORD PTR $T1[rsp+4], -2147483648	; ffffffff80000000H
; File g:\dropbox\github\berconmaps\src\bercongradient.cpp

; 726  : 		Update(GetCOREInterface()->GetTime(),Interval());

	mov	rdx, QWORD PTR [rax]
	call	QWORD PTR [rdx+1448]
	lea	r8, QWORD PTR $T1[rsp]
	mov	rcx, rdi
	mov	edx, eax
	call	QWORD PTR [rbx+1400]
	mov	rbx, QWORD PTR [rsp+88]
$LN3@keyPosChan:

; 727  : 	}
; 728  : }

	vmovaps	xmm6, XMMWORD PTR [rsp+48]
	add	rsp, 64					; 00000040H
	pop	rdi
	ret	0
?keyPosChanged@BerconGradient@@QEAAXM@Z ENDP		; BerconGradient::keyPosChanged
_TEXT	ENDS
; Function compile flags: /Ogtp
; File g:\dropbox\github\berconmaps\src\bercongradient.cpp
; File g:\dropbox\github\berconmaps\src\gradientramp.h
; File g:\dropbox\github\berconmaps\src\bercongradient.cpp
; File c:\program files\autodesk\3ds max 2020 sdk\maxsdk\include\interval.h
; File g:\dropbox\github\berconmaps\src\bercongradient.cpp
;	COMDAT ?keyNumChanged@BerconGradient@@QEAAXH@Z
_TEXT	SEGMENT
$T1 = 48
this$ = 48
num$ = 56
?keyNumChanged@BerconGradient@@QEAAXH@Z PROC		; BerconGradient::keyNumChanged, COMDAT

; 708  : void BerconGradient::keyNumChanged(int num) {	

$LN17:
	mov	QWORD PTR [rsp+16], rbx
	push	rdi
	sub	rsp, 32					; 00000020H

; 709  : 	if (!pblock) return;

	cmp	QWORD PTR [rcx+160], 0
	mov	ebx, edx
	mov	rdi, rcx
	je	SHORT $LN1@keyNumChan

; 710  : 	TimeValue t = GetCOREInterface()->GetTime();	

	call	QWORD PTR __imp_?GetCOREInterface@@YAPEAVInterface@@XZ
	mov	rcx, rax
	mov	r8, QWORD PTR [rax]
	call	QWORD PTR [r8+1448]
; File g:\dropbox\github\berconmaps\src\gradientramp.h

; 107  : 	int numKeys() { return keys; }

	mov	rdx, QWORD PTR [rdi+456]
; File g:\dropbox\github\berconmaps\src\bercongradient.cpp

; 711  : 	if (num >= gradient->numKeys())

	mov	eax, DWORD PTR [rdx+56]
	cmp	ebx, eax
	jl	SHORT $LN3@keyNumChan

; 712  : 		gradient->selected = gradient->numKeys() - 1;

	dec	eax
	mov	DWORD PTR [rdx+64], eax
	jmp	SHORT $LN5@keyNumChan
$LN3@keyNumChan:

; 713  : 	else if (num < 0)

	xor	eax, eax
	test	ebx, ebx
	cmovs	ebx, eax
	mov	DWORD PTR [rdx+64], ebx
$LN5@keyNumChan:

; 717  : 	Update(GetCOREInterface()->GetTime(),Interval());

	call	QWORD PTR __imp_?GetCOREInterface@@YAPEAVInterface@@XZ
	mov	rbx, QWORD PTR [rdi]
	mov	rcx, rax
; File c:\program files\autodesk\3ds max 2020 sdk\maxsdk\include\interval.h

; 126  : 		void SetEmpty() { start = TIME_NegInfinity; end = TIME_NegInfinity; }

	mov	DWORD PTR $T1[rsp], -2147483648		; ffffffff80000000H
	mov	DWORD PTR $T1[rsp+4], -2147483648	; ffffffff80000000H
; File g:\dropbox\github\berconmaps\src\bercongradient.cpp

; 717  : 	Update(GetCOREInterface()->GetTime(),Interval());

	mov	rdx, QWORD PTR [rax]
	call	QWORD PTR [rdx+1448]
	lea	r8, QWORD PTR $T1[rsp]
	mov	rcx, rdi
	mov	edx, eax
	call	QWORD PTR [rbx+1400]
$LN1@keyNumChan:

; 718  : }

	mov	rbx, QWORD PTR [rsp+56]
	add	rsp, 32					; 00000020H
	pop	rdi
	ret	0
?keyNumChanged@BerconGradient@@QEAAXH@Z ENDP		; BerconGradient::keyNumChanged
_TEXT	ENDS
; Function compile flags: /Ogtp
; File g:\dropbox\github\berconmaps\src\bercongradient.cpp
; File c:\program files\autodesk\3ds max 2020 sdk\maxsdk\include\interval.h
; File g:\dropbox\github\berconmaps\src\bercongradient.cpp
;	COMDAT ?keyColorChanged@BerconGradient@@QEAAXVAColor@@@Z
_TEXT	SEGMENT
$T1 = 64
this$ = 64
col$ = 72
?keyColorChanged@BerconGradient@@QEAAXVAColor@@@Z PROC	; BerconGradient::keyColorChanged, COMDAT

; 699  : void BerconGradient::keyColorChanged(AColor col) {

$LN12:
	mov	QWORD PTR [rsp+16], rbx
	push	rdi
	sub	rsp, 48					; 00000030H

; 700  : 	if (!pblock) return;

	cmp	QWORD PTR [rcx+160], 0
	mov	rbx, rdx
	mov	rdi, rcx
	je	$LN3@keyColorCh

; 701  : 	if (gradient->selected >= 0 && gradient->selected < gradient->numKeys()) {

	mov	rax, QWORD PTR [rcx+456]
	mov	ecx, DWORD PTR [rax+64]
	test	ecx, ecx
	js	SHORT $LN3@keyColorCh
	cmp	ecx, DWORD PTR [rax+56]
	jge	SHORT $LN3@keyColorCh

; 702  : 		TimeValue t = GetCOREInterface()->GetTime();

	call	QWORD PTR __imp_?GetCOREInterface@@YAPEAVInterface@@XZ
	mov	rcx, rax
	mov	rdx, QWORD PTR [rax]
	call	QWORD PTR [rdx+1448]

; 703  : 		pblock->SetValue(pb_colors, t, col, gradient->selected);

	mov	rcx, QWORD PTR [rdi+160]
	mov	edx, 1
	mov	r8, QWORD PTR [rdi+456]
	mov	r9, rbx
	mov	r10, QWORD PTR [rcx]
	mov	r8d, DWORD PTR [r8+64]
	mov	DWORD PTR [rsp+32], r8d
	mov	r8d, eax
	call	QWORD PTR [r10+1536]

; 704  : 		Update(GetCOREInterface()->GetTime(),Interval());

	call	QWORD PTR __imp_?GetCOREInterface@@YAPEAVInterface@@XZ
	mov	rbx, QWORD PTR [rdi]
	mov	rcx, rax
; File c:\program files\autodesk\3ds max 2020 sdk\maxsdk\include\interval.h

; 126  : 		void SetEmpty() { start = TIME_NegInfinity; end = TIME_NegInfinity; }

	mov	DWORD PTR $T1[rsp], -2147483648		; ffffffff80000000H
	mov	DWORD PTR $T1[rsp+4], -2147483648	; ffffffff80000000H
; File g:\dropbox\github\berconmaps\src\bercongradient.cpp

; 704  : 		Update(GetCOREInterface()->GetTime(),Interval());

	mov	rdx, QWORD PTR [rax]
	call	QWORD PTR [rdx+1448]
	lea	r8, QWORD PTR $T1[rsp]
	mov	rcx, rdi
	mov	edx, eax
	call	QWORD PTR [rbx+1400]
$LN3@keyColorCh:

; 705  : 	}
; 706  : }

	mov	rbx, QWORD PTR [rsp+72]
	add	rsp, 48					; 00000030H
	pop	rdi
	ret	0
?keyColorChanged@BerconGradient@@QEAAXVAColor@@@Z ENDP	; BerconGradient::keyColorChanged
_TEXT	ENDS
; Function compile flags: /Ogtp
; File g:\dropbox\github\berconmaps\src\bercongradient.cpp
;	COMDAT ?getKeyTex@BerconGradient@@QEAAPEAVTexmap@@XZ
_TEXT	SEGMENT
this$ = 8
?getKeyTex@BerconGradient@@QEAAPEAVTexmap@@XZ PROC	; BerconGradient::getKeyTex, COMDAT

; 818  : 	return gradient->getSubtex();

	mov	rcx, QWORD PTR [rcx+456]
	or	edx, -1
	jmp	?getSubtex@GradientRamp@@QEAAPEAVTexmap@@H@Z ; GradientRamp::getSubtex
?getKeyTex@BerconGradient@@QEAAPEAVTexmap@@XZ ENDP	; BerconGradient::getKeyTex
_TEXT	ENDS
; Function compile flags: /Ogtp
; File g:\dropbox\github\berconmaps\src\bercongradient.cpp
;	COMDAT ?setKeyTex@BerconGradient@@QEAAXPEAVTexmap@@@Z
_TEXT	SEGMENT
this$ = 64
m$ = 72
?setKeyTex@BerconGradient@@QEAAXPEAVTexmap@@@Z PROC	; BerconGradient::setKeyTex, COMDAT

; 808  : void BerconGradient::setKeyTex(Texmap* m) {		

$LN9:
	mov	QWORD PTR [rsp+16], rbx
	push	rdi
	sub	rsp, 48					; 00000030H

; 809  : 	if (gradient->selected >= 0 && gradient->selected < gradient->numKeys()) {

	mov	rax, QWORD PTR [rcx+456]
	mov	rbx, rcx
	mov	rdi, rdx
	mov	ecx, DWORD PTR [rax+64]
	test	ecx, ecx
	js	SHORT $LN3@setKeyTex
	cmp	ecx, DWORD PTR [rax+56]
	jge	SHORT $LN3@setKeyTex

; 810  : 		TimeValue t = GetCOREInterface()->GetTime();

	mov	QWORD PTR [rsp+64], rsi
	call	QWORD PTR __imp_?GetCOREInterface@@YAPEAVInterface@@XZ
	mov	rcx, rax
	mov	r8, QWORD PTR [rax]
	call	QWORD PTR [r8+1448]

; 811  : 		gradient->setSubtex(m);		

	mov	rcx, QWORD PTR [rbx+456]
	mov	rdx, rdi
	mov	esi, eax
	call	?setSubtex@GradientRamp@@QEAAXPEAVTexmap@@@Z ; GradientRamp::setSubtex

; 812  : 		if (pblock) // Max deletes pblock and starts assigining NULL materials, to prevent crash check if pblock still exists

	mov	rcx, QWORD PTR [rbx+160]
	test	rcx, rcx
	je	SHORT $LN7@setKeyTex

; 813  : 			pblock->SetValue(pb_submaps, t, m, gradient->selected);

	mov	r8, QWORD PTR [rbx+456]
	xor	edx, edx
	mov	r10, QWORD PTR [rcx]
	mov	r9, rdi
	mov	r8d, DWORD PTR [r8+64]
	mov	DWORD PTR [rsp+32], r8d
	mov	r8d, esi
	call	QWORD PTR [r10+1512]
$LN7@setKeyTex:
	mov	rsi, QWORD PTR [rsp+64]
$LN3@setKeyTex:

; 814  : 	}
; 815  : }

	mov	rbx, QWORD PTR [rsp+72]
	add	rsp, 48					; 00000030H
	pop	rdi
	ret	0
?setKeyTex@BerconGradient@@QEAAXPEAVTexmap@@@Z ENDP	; BerconGradient::setKeyTex
_TEXT	ENDS
; Function compile flags: /Ogtp
; File g:\dropbox\github\berconmaps\src\bercongradient.cpp
; File c:\program files (x86)\windows kits\10\include\10.0.10586.0\ucrt\math.h
; File g:\dropbox\github\berconmaps\src\bercongradient.cpp
; File c:\program files (x86)\microsoft visual studio 14.0\vc\include\cmath
; File g:\dropbox\github\berconmaps\src\bercongradient.cpp
; File c:\program files (x86)\microsoft visual studio 14.0\vc\include\cmath
; File g:\dropbox\github\berconmaps\src\bercongradient.cpp
; File c:\program files (x86)\windows kits\10\include\10.0.10586.0\ucrt\math.h
; File g:\dropbox\github\berconmaps\src\bercongradient.cpp
; File c:\program files\autodesk\3ds max 2020 sdk\maxsdk\include\color.h
; File g:\dropbox\github\berconmaps\src\bercongradient.cpp
;	COMDAT ?getGradientValue@BerconGradient@@QEAAMAEAVShadeContext@@@Z
_TEXT	SEGMENT
$T1 = 32
$T2 = 32
this$ = 128
sc$ = 136
?getGradientValue@BerconGradient@@QEAAMAEAVShadeContext@@@Z PROC ; BerconGradient::getGradientValue, COMDAT

; 1239 : float BerconGradient::getGradientValue(ShadeContext& sc) {

$LN43:
	mov	QWORD PTR [rsp+8], rbx
	mov	QWORD PTR [rsp+16], rbp
	mov	QWORD PTR [rsp+24], rsi
	push	rdi
	sub	rsp, 112				; 00000070H

; 1240 : 	switch (p_type) {

	mov	eax, DWORD PTR [rcx+480]
	mov	rdi, rdx
	dec	eax
	mov	rbx, rcx
	cmp	eax, 7
	ja	$LN21@getGradien
	lea	rcx, OFFSET FLAT:__ImageBase
	cdqe
	mov	r8d, DWORD PTR $LN40@getGradien[rcx+rax*4]
	add	r8, rcx
	jmp	r8
$LN7@getGradien:

; 1241 : 		case 0: { // UVW
; 1242 : 			break; // Handled in main evaluation
; 1243 : 		}
; 1244 : 		case 1: { // Normal
; 1245 : 			switch (p_normalFunction) {

	mov	ecx, DWORD PTR [rbx+524]
	test	ecx, ecx
	je	$LN8@getGradien
	sub	ecx, 1
	je	$LN9@getGradien
	cmp	ecx, 1
	jne	$LN4@getGradien

; 1251 : 				}
; 1252 : 				case 2: { // Fresnel
; 1253 : 					// NOTE: Should this get IOR from sc.GetIOR()?
; 1254 : 					//		 I think not since its just a map, not material.
; 1255 : 					//		 You get more predictable behaviour with constant 1.f.
; 1256 : 					static float n1 = 1.0f;								
; 1257 : 					float cti = fabs(getGradientValueNormal(sc));					

	vmovaps	XMMWORD PTR [rsp+96], xmm6
	mov	rcx, rbx
	vmovaps	XMMWORD PTR [rsp+80], xmm7
	vmovaps	XMMWORD PTR [rsp+64], xmm8
	vmovaps	XMMWORD PTR [rsp+48], xmm9
	call	?getGradientValueNormal@BerconGradient@@QEAAMAEAVShadeContext@@@Z ; BerconGradient::getGradientValueNormal

; 1258 : 					float stt = (n1 / p_ior) * sqrt(1 - cti * cti);

	vmovss	xmm9, DWORD PTR __real@3f800000
	vmovss	xmm7, DWORD PTR [rbx+528]
; File c:\program files (x86)\windows kits\10\include\10.0.10586.0\ucrt\math.h

; 671  :         return (float)fabs(_X);

	vcvtss2sd xmm1, xmm0, xmm0
	vandpd	xmm1, xmm1, QWORD PTR __xmm@7fffffffffffffff7fffffffffffffff
	vcvtsd2ss xmm8, xmm1, xmm1
; File g:\dropbox\github\berconmaps\src\bercongradient.cpp

; 1258 : 					float stt = (n1 / p_ior) * sqrt(1 - cti * cti);

	vmulss	xmm0, xmm8, xmm8
	vsubss	xmm0, xmm9, xmm0
; File c:\program files (x86)\microsoft visual studio 14.0\vc\include\cmath

; 305  : 	return (_CSTD sqrtf(_Xx));

	call	sqrtf
; File g:\dropbox\github\berconmaps\src\bercongradient.cpp

; 1258 : 					float stt = (n1 / p_ior) * sqrt(1 - cti * cti);

	vmovss	xmm6, DWORD PTR ?n1@?L@??getGradientValue@BerconGradient@@QEAAMAEAVShadeContext@@@Z@4MA
	vdivss	xmm1, xmm6, xmm7
	vmulss	xmm0, xmm0, xmm1

; 1259 : 					float ctt = sqrt(1 - stt * stt);

	vmulss	xmm2, xmm0, xmm0
	vsubss	xmm0, xmm9, xmm2
; File c:\program files (x86)\microsoft visual studio 14.0\vc\include\cmath

; 305  : 	return (_CSTD sqrtf(_Xx));

	call	sqrtf
; File g:\dropbox\github\berconmaps\src\bercongradient.cpp

; 1260 : 					float rs = (p_ior * ctt - n1 * cti ) / (p_ior * ctt + n1 * cti);

	vmulss	xmm3, xmm7, xmm0

; 1261 : 					rs = rs * rs;
; 1262 : 					float rp = (n1 * ctt - p_ior * cti ) / (n1 * ctt + p_ior * cti);

	vmulss	xmm4, xmm6, xmm0
	vmulss	xmm1, xmm6, xmm8
	vmovaps	xmm6, XMMWORD PTR [rsp+96]
	vsubss	xmm2, xmm3, xmm1
	vaddss	xmm1, xmm3, xmm1
	vmulss	xmm0, xmm7, xmm8
	vmovaps	xmm8, XMMWORD PTR [rsp+64]
	vmovaps	xmm7, XMMWORD PTR [rsp+80]
	vdivss	xmm5, xmm2, xmm1
	vsubss	xmm1, xmm4, xmm0
	vaddss	xmm0, xmm0, xmm4
	vdivss	xmm1, xmm1, xmm0

; 1263 : 					rp = rp * rp;

	vmulss	xmm3, xmm1, xmm1
	vmulss	xmm2, xmm5, xmm5

; 1264 : 					return 1.f - 0.5f * (rs + rp);				

	vaddss	xmm0, xmm3, xmm2
	vmulss	xmm1, xmm0, DWORD PTR __real@3f000000
	vsubss	xmm0, xmm9, xmm1
	vmovaps	xmm9, XMMWORD PTR [rsp+48]
	jmp	$LN1@getGradien
$LN9@getGradien:

; 1248 : 				}
; 1249 : 				case 1: { // Towards / Away
; 1250 : 					return (getGradientValueNormal(sc) + 1.f) / 2.f;	

	mov	rcx, rbx
	call	?getGradientValueNormal@BerconGradient@@QEAAMAEAVShadeContext@@@Z ; BerconGradient::getGradientValueNormal
	vaddss	xmm1, xmm0, DWORD PTR __real@3f800000
	vmulss	xmm0, xmm1, DWORD PTR __real@3f000000
	jmp	$LN1@getGradien
$LN8@getGradien:

; 1247 : 					return fabs(getGradientValueNormal(sc));

	mov	rcx, rbx
	call	?getGradientValueNormal@BerconGradient@@QEAAMAEAVShadeContext@@@Z ; BerconGradient::getGradientValueNormal
; File c:\program files (x86)\windows kits\10\include\10.0.10586.0\ucrt\math.h

; 671  :         return (float)fabs(_X);

	vcvtss2sd xmm1, xmm0, xmm0
	vandpd	xmm1, xmm1, QWORD PTR __xmm@7fffffffffffffff7fffffffffffffff
	vcvtsd2ss xmm0, xmm1, xmm1
; File g:\dropbox\github\berconmaps\src\bercongradient.cpp

; 1247 : 					return fabs(getGradientValueNormal(sc));

	jmp	$LN1@getGradien
$LN4@getGradien:

; 1265 : 				}
; 1266 : 			}
; 1267 : 		}
; 1268 : 		case 2: { // Distance
; 1269 : 			return getGradientValueDist(sc);		

	mov	rcx, rbx
	call	?getGradientValueDist@BerconGradient@@QEAAMAEAVShadeContext@@@Z ; BerconGradient::getGradientValueDist
	jmp	$LN1@getGradien
$LN12@getGradien:

; 1272 : 			return Intens(sc.DiffuseIllum());

	mov	rax, QWORD PTR [rdx]
	mov	rcx, rdi
	lea	rdx, QWORD PTR $T2[rsp]
	call	QWORD PTR [rax+568]
; File c:\program files\autodesk\3ds max 2020 sdk\maxsdk\include\color.h

; 577  : static inline float Intens(const Color& c) { return (c.r+c.g+c.b)/3.0f; }

	vmovss	xmm0, DWORD PTR [rax+4]
	vaddss	xmm1, xmm0, DWORD PTR [rax]
	vaddss	xmm2, xmm1, DWORD PTR [rax+8]
	vdivss	xmm0, xmm2, DWORD PTR __real@40400000
; File g:\dropbox\github\berconmaps\src\bercongradient.cpp

; 1272 : 			return Intens(sc.DiffuseIllum());

	jmp	$LN1@getGradien
$LN13@getGradien:

; 1273 : 		}
; 1274 : 		case 4: { // Map			
; 1275 : 			return p_maptex?p_maptex->EvalMono(sc):0.f; // TODO: Evaluate submaps color, bump is tougher DELTA shift with BerconSC?

	mov	rcx, QWORD PTR [rbx+544]
	test	rcx, rcx
	je	$LN21@getGradien
	mov	rax, QWORD PTR [rcx]
	call	QWORD PTR [rax+1512]
	jmp	$LN1@getGradien
$LN14@getGradien:

; 1276 : 		}
; 1277 : 		case 5: { // Random
; 1278 : 			seedRandomGen(sc);

	mov	rcx, rbx
	call	?seedRandomGen@BerconGradient@@QEAAXAEAVShadeContext@@@Z ; BerconGradient::seedRandomGen

; 1279 : 			return (float)sfrand();

	call	QWORD PTR __imp_rand
	vxorps	xmm0, xmm0, xmm0
	vcvtsi2sd xmm0, xmm0, eax
	vdivsd	xmm1, xmm0, QWORD PTR __real@40dfffc000000000
	vcvtsd2ss xmm0, xmm1, xmm1
	jmp	$LN1@getGradien
$LN15@getGradien:

; 1280 : 		}
; 1281 : 		case 6: { // Particle age
; 1282 : 			Object *ob = sc.GetEvalObject();		

	mov	rax, QWORD PTR [rdx]
	mov	rcx, rdi
	call	QWORD PTR [rax+80]
	mov	rsi, rax

; 1283 : 			if (ob && ob->IsParticleSystem()) {				

	test	rax, rax
	je	$LN21@getGradien
	mov	rdx, QWORD PTR [rax]
	mov	rcx, rax
	call	QWORD PTR [rdx+1896]
	test	eax, eax
	je	$LN21@getGradien

; 1284 : 				ParticleObject *obj = (ParticleObject*)ob;
; 1285 : 				TimeValue t = sc.CurTime();

	mov	rdx, QWORD PTR [rdi]
	mov	rcx, rdi
	call	QWORD PTR [rdx+56]

; 1286 : 				TimeValue age  = obj->ParticleAge(t,sc.mtlNum);

	mov	r9, QWORD PTR [rsi]
	mov	rcx, rsi
	mov	r8d, DWORD PTR [rdi+28]
	mov	edx, eax
	mov	ebx, eax
	call	QWORD PTR [r9+2480]

; 1287 : 				TimeValue life = obj->ParticleLife(t,sc.mtlNum);

	mov	r9, QWORD PTR [rsi]
	mov	edx, ebx
	mov	r8d, DWORD PTR [rdi+28]
	mov	rcx, rsi
	mov	ebp, eax
	call	QWORD PTR [r9+2488]

; 1288 : 				if (age>=0 && life>=0) 

	test	ebp, ebp
	js	$LN21@getGradien
	test	eax, eax
	js	$LN21@getGradien

; 1289 : 					return float(age)/float(life);

	vxorps	xmm0, xmm0, xmm0
	vxorps	xmm1, xmm1, xmm1
	vcvtsi2ss xmm1, xmm1, ebp
	vcvtsi2ss xmm0, xmm0, eax
	vdivss	xmm0, xmm1, xmm0
	jmp	$LN1@getGradien
$LN18@getGradien:

; 1290 : 			}
; 1291 : 			break;
; 1292 : 		}
; 1293 : 		case 7: { // Particle speed
; 1294 : 			Object *ob = sc.GetEvalObject();		

	mov	rax, QWORD PTR [rdx]
	mov	rcx, rdi
	call	QWORD PTR [rax+80]
	mov	rsi, rax

; 1295 : 			if (ob && ob->IsParticleSystem()) {

	test	rax, rax
	je	SHORT $LN21@getGradien
	mov	rdx, QWORD PTR [rax]
	mov	rcx, rax
	call	QWORD PTR [rdx+1896]
	test	eax, eax
	je	SHORT $LN21@getGradien

; 1296 : 				ParticleObject *obj = (ParticleObject*)ob; 
; 1297 : 				/*IChkMtlAPI* chkMtlAPI = static_cast<IChkMtlAPI*>(obj->GetInterface(I_NEWMTLINTERFACE));
; 1298 : 				if ((chkMtlAPI&&chkMtlAPI->SupportsParticleIDbyFace()))
; 1299 : 					return (Length(obj->ParticleVelocity(sc.CurTime(),chkMtlAPI->GetParticleFromFace(sc.FaceNumber()))) - p_rangeMin) / (p_rangeMax - p_rangeMin);
; 1300 : 				else*/
; 1301 : 					return Length(obj->ParticleVelocity(sc.CurTime(),sc.mtlNum));

	mov	rdx, QWORD PTR [rdi]
	mov	rcx, rdi
	mov	rbx, QWORD PTR [rsi]
	call	QWORD PTR [rdx+56]
	mov	r9d, DWORD PTR [rdi+28]
	lea	rdx, QWORD PTR $T1[rsp]
	mov	r8d, eax
	mov	rcx, rsi
	call	QWORD PTR [rbx+2456]
	mov	rcx, rax
	call	QWORD PTR __imp_?Length@@YAMAEBVPoint3@@@Z
	jmp	SHORT $LN1@getGradien
$LN20@getGradien:

; 1302 : 			}									
; 1303 : 			break;
; 1304 : 		}
; 1305 : 		case 8: { // Particle size
; 1306 : 			Object *ob = sc.GetEvalObject();		

	mov	rax, QWORD PTR [rdx]
	mov	rcx, rdi
	call	QWORD PTR [rax+80]
	mov	rsi, rax

; 1307 : 			if (ob && ob->IsParticleSystem()) {

	test	rax, rax
	je	SHORT $LN21@getGradien
	mov	rdx, QWORD PTR [rax]
	mov	rcx, rax
	call	QWORD PTR [rdx+1896]
	test	eax, eax
	je	SHORT $LN21@getGradien

; 1308 : 				ParticleObject *obj = (ParticleObject*)ob;
; 1309 : 				return obj->ParticleSize(sc.CurTime(),sc.mtlNum);

	mov	rdx, QWORD PTR [rdi]
	mov	rcx, rdi
	mov	rbx, QWORD PTR [rsi]
	call	QWORD PTR [rdx+56]
	mov	r8d, DWORD PTR [rdi+28]
	mov	rcx, rsi
	mov	edx, eax
	call	QWORD PTR [rbx+2464]
	jmp	SHORT $LN1@getGradien
$LN21@getGradien:
	vxorps	xmm0, xmm0, xmm0
$LN1@getGradien:

; 1310 : 			}									
; 1311 : 			break;
; 1312 : 		}
; 1313 : 		default:
; 1314 : 			break;
; 1315 : 	}
; 1316 : 	return 0.f;
; 1317 : }

	lea	r11, QWORD PTR [rsp+112]
	mov	rbx, QWORD PTR [r11+16]
	mov	rbp, QWORD PTR [r11+24]
	mov	rsi, QWORD PTR [r11+32]
	mov	rsp, r11
	pop	rdi
	ret	0
	npad	2
$LN40@getGradien:
	DD	$LN7@getGradien
	DD	$LN4@getGradien
	DD	$LN12@getGradien
	DD	$LN13@getGradien
	DD	$LN14@getGradien
	DD	$LN15@getGradien
	DD	$LN18@getGradien
	DD	$LN20@getGradien
?getGradientValue@BerconGradient@@QEAAMAEAVShadeContext@@@Z ENDP ; BerconGradient::getGradientValue
_TEXT	ENDS
; Function compile flags: /Ogtp
; File g:\dropbox\github\berconmaps\src\bercongradient.cpp
; File c:\program files\autodesk\3ds max 2020 sdk\maxsdk\include\point3.h
; File g:\dropbox\github\berconmaps\src\bercongradient.cpp
; File c:\program files\autodesk\3ds max 2020 sdk\maxsdk\include\matrix3.h
; File g:\dropbox\github\berconmaps\src\bercongradient.cpp
; File c:\program files\autodesk\3ds max 2020 sdk\maxsdk\include\point3.h
; File g:\dropbox\github\berconmaps\src\bercongradient.cpp
; File c:\program files\autodesk\3ds max 2020 sdk\maxsdk\include\point3.h
; File g:\dropbox\github\berconmaps\src\bercongradient.cpp
; File c:\program files\autodesk\3ds max 2020 sdk\maxsdk\include\point3.h
; File g:\dropbox\github\berconmaps\src\bercongradient.cpp
; File c:\program files\autodesk\3ds max 2020 sdk\maxsdk\include\point3.h
; File g:\dropbox\github\berconmaps\src\bercongradient.cpp
; File c:\program files\autodesk\3ds max 2020 sdk\maxsdk\include\point3.h
; File g:\dropbox\github\berconmaps\src\bercongradient.cpp
;	COMDAT ?getGradientValueNormal@BerconGradient@@QEAAMAEAVShadeContext@@@Z
_TEXT	SEGMENT
$T1 = 32
$T2 = 32
$T3 = 32
$T4 = 32
$T5 = 32
$T6 = 32
$T7 = 44
$T8 = 44
$T9 = 44
$T10 = 44
$T11 = 44
$T12 = 44
$T13 = 44
$T14 = 44
$T15 = 44
$T16 = 44
$T17 = 44
$T18 = 56
$T19 = 56
$T20 = 56
$T21 = 56
$T22 = 68
$T23 = 68
$T24 = 68
$T25 = 68
$T26 = 80
$T27 = 80
$T28 = 92
$T29 = 92
this$ = 160
sc$ = 168
?getGradientValueNormal@BerconGradient@@QEAAMAEAVShadeContext@@@Z PROC ; BerconGradient::getGradientValueNormal, COMDAT

; 1192 : float BerconGradient::getGradientValueNormal(ShadeContext& sc) {

$LN62:
	mov	QWORD PTR [rsp+8], rbx
	mov	QWORD PTR [rsp+16], rsi
	mov	QWORD PTR [rsp+24], rdi
	push	rbp
	lea	rbp, QWORD PTR [rsp-87]
	sub	rsp, 144				; 00000090H

; 1193 : 	switch (p_normalType) {	 

	movsxd	rax, DWORD PTR [rcx+520]
	mov	rsi, rdx
	mov	rdi, rcx
	cmp	eax, 11
	ja	$LN2@getGradien
	lea	rcx, OFFSET FLAT:__ImageBase
	mov	r8d, DWORD PTR $LN45@getGradien[rcx+rax*4]
	add	r8, rcx
	jmp	r8
$LN4@getGradien:

; 1195 : 			return -DotProd(sc.Normal(), sc.V());

	mov	rax, QWORD PTR [rdx]
	mov	rcx, rsi
	lea	rdx, QWORD PTR $T6[rbp-57]
	call	QWORD PTR [rax+144]
	lea	rdx, QWORD PTR $T17[rbp-57]
$LN58@getGradien:
	mov	r8, QWORD PTR [rsi]
	mov	rcx, rsi
	mov	rbx, rax
	call	QWORD PTR [r8+104]
; File c:\program files\autodesk\3ds max 2020 sdk\maxsdk\include\point3.h

; 354  : __forceinline float DotProd(const Point3& a, const Point3& b) { return (a.x * b.x + a.y * b.y + a.z * b.z); }

	vmovss	xmm1, DWORD PTR [rax]
	vmulss	xmm2, xmm1, DWORD PTR [rbx]
$LN60@getGradien:
	vmovss	xmm0, DWORD PTR [rax+4]
	vmulss	xmm3, xmm0, DWORD PTR [rbx+4]
	vmovss	xmm0, DWORD PTR [rax+8]
	vmulss	xmm1, xmm0, DWORD PTR [rbx+8]
	vaddss	xmm4, xmm3, xmm2
	vaddss	xmm2, xmm4, xmm1
; File g:\dropbox\github\berconmaps\src\bercongradient.cpp

; 1195 : 			return -DotProd(sc.Normal(), sc.V());

	vxorps	xmm0, xmm2, DWORD PTR __xmm@80000000800000008000000080000000
	jmp	$LN1@getGradien
$LN5@getGradien:

; 1196 : 		}
; 1197 : 		case 1: { // Local X
; 1198 : 			return (sc.VectorTo(sc.Normal(), REF_OBJECT)).x;

	mov	rbx, QWORD PTR [rdx]
	mov	rcx, rsi
	lea	rdx, QWORD PTR $T16[rbp-57]
	call	QWORD PTR [rbx+104]
	mov	r9d, 2
$LN55@getGradien:
	mov	r8, rax
	lea	rdx, QWORD PTR $T5[rbp-57]
	mov	rcx, rsi
	call	QWORD PTR [rbx+432]
	vmovss	xmm0, DWORD PTR [rax]
	jmp	$LN1@getGradien
$LN6@getGradien:

; 1199 : 		}
; 1200 : 		case 2: { // Local Y
; 1201 : 			return (sc.VectorTo(sc.Normal(), REF_OBJECT)).y;

	mov	rbx, QWORD PTR [rdx]
	mov	rcx, rsi
	lea	rdx, QWORD PTR $T15[rbp-57]
	call	QWORD PTR [rbx+104]
	mov	r9d, 2
$LN56@getGradien:
	mov	r8, rax
	lea	rdx, QWORD PTR $T4[rbp-57]
	mov	rcx, rsi
	call	QWORD PTR [rbx+432]
	vmovss	xmm0, DWORD PTR [rax+4]
	jmp	$LN1@getGradien
$LN7@getGradien:

; 1202 : 		}
; 1203 : 		case 3: { // Local Z
; 1204 : 			return (sc.VectorTo(sc.Normal(), REF_OBJECT)).z;

	mov	rbx, QWORD PTR [rdx]
	mov	rcx, rsi
	lea	rdx, QWORD PTR $T14[rbp-57]
	call	QWORD PTR [rbx+104]
	mov	r9d, 2
$LN57@getGradien:
	mov	r8, rax
	lea	rdx, QWORD PTR $T3[rbp-57]
	mov	rcx, rsi
	call	QWORD PTR [rbx+432]
	vmovss	xmm0, DWORD PTR [rax+8]
	jmp	$LN1@getGradien
$LN8@getGradien:

; 1205 : 		}
; 1206 : 		case 4: { // World X
; 1207 : 			return (sc.VectorTo(sc.Normal(), REF_WORLD)).x;

	mov	rbx, QWORD PTR [rdx]
	mov	rcx, rsi
	lea	rdx, QWORD PTR $T13[rbp-57]
	call	QWORD PTR [rbx+104]
	mov	r9d, 1
	jmp	$LN55@getGradien
$LN9@getGradien:

; 1208 : 		}
; 1209 : 		case 5: { // World Y
; 1210 : 			return (sc.VectorTo(sc.Normal(), REF_WORLD)).y;

	mov	rbx, QWORD PTR [rdx]
	mov	rcx, rsi
	lea	rdx, QWORD PTR $T12[rbp-57]
	call	QWORD PTR [rbx+104]
	mov	r9d, 1
	jmp	SHORT $LN56@getGradien
$LN10@getGradien:

; 1211 : 		}
; 1212 : 		case 6: { // World Z
; 1213 : 			return (sc.VectorTo(sc.Normal(), REF_WORLD)).z;

	mov	rbx, QWORD PTR [rdx]
	mov	rcx, rsi
	lea	rdx, QWORD PTR $T11[rbp-57]
	call	QWORD PTR [rbx+104]
	mov	r9d, 1
	jmp	SHORT $LN57@getGradien
$LN11@getGradien:

; 1214 : 		}
; 1215 : 		case 7: { // Camera X
; 1216 : 			return sc.Normal().x; //(sc.VectorTo(sc.Normal(), REF_CAMERA)).x;

	mov	rax, QWORD PTR [rdx]
	mov	rcx, rsi
	lea	rdx, QWORD PTR $T10[rbp-57]
	call	QWORD PTR [rax+104]
	vmovss	xmm0, DWORD PTR [rax]
	jmp	$LN1@getGradien
$LN12@getGradien:

; 1217 : 		}
; 1218 : 		case 8: { // Camera Y
; 1219 : 			return sc.Normal().y; //(sc.VectorTo(sc.Normal(), REF_CAMERA)).y;

	mov	rax, QWORD PTR [rdx]
	mov	rcx, rsi
	lea	rdx, QWORD PTR $T9[rbp-57]
	call	QWORD PTR [rax+104]
	vmovss	xmm0, DWORD PTR [rax+4]
	jmp	$LN1@getGradien
$LN13@getGradien:

; 1220 : 		}
; 1221 : 		case 9: { // Camera Z
; 1222 : 			return sc.Normal().z; //(sc.VectorTo(sc.Normal(), REF_CAMERA)).z;

	mov	rax, QWORD PTR [rdx]
	mov	rcx, rsi
	lea	rdx, QWORD PTR $T8[rbp-57]
	call	QWORD PTR [rax+104]
	vmovss	xmm0, DWORD PTR [rax+8]
	jmp	$LN1@getGradien
$LN14@getGradien:

; 1223 : 		}
; 1224 : 		case 10: { // To Object
; 1225 : 			if (sc.InMtlEditor() || !p_node)

	mov	rax, QWORD PTR [rdx]
	mov	rcx, rsi
	call	QWORD PTR [rax+24]
	test	eax, eax
	jne	$LN16@getGradien
	mov	rbx, QWORD PTR [rdi+560]
	test	rbx, rbx
	je	$LN16@getGradien

; 1227 : 			return DotProd(sc.Normal(), FNormalize(sc.PointFrom((p_node->GetNodeTM(sc.CurTime())).GetTrans(),REF_WORLD) - sc.P()));							

	mov	rax, QWORD PTR [rsi]
	mov	rcx, rsi
	mov	rbx, QWORD PTR [rbx]
	call	QWORD PTR [rax+56]
	mov	rcx, QWORD PTR [rdi+560]
	lea	rdx, QWORD PTR $T29[rbp-57]
	mov	r8d, eax
	xor	r9d, r9d
	call	QWORD PTR [rbx+1376]
	mov	r8, QWORD PTR [rsi]
	lea	rdx, QWORD PTR $T7[rbp-57]
	mov	rcx, rsi
	mov	rbx, rax
	call	QWORD PTR [r8+208]
	mov	r10, QWORD PTR [rsi]
; File c:\program files\autodesk\3ds max 2020 sdk\maxsdk\include\matrix3.h

; 118  :    const Point3& operator[](int i) const { return((Point3&)(*m[i])); }

	lea	r8, QWORD PTR [rbx+36]
; File g:\dropbox\github\berconmaps\src\bercongradient.cpp

; 1227 : 			return DotProd(sc.Normal(), FNormalize(sc.PointFrom((p_node->GetNodeTM(sc.CurTime())).GetTrans(),REF_WORLD) - sc.P()));							

	mov	r9d, 1
	lea	rdx, QWORD PTR $T27[rbp-57]
	mov	rcx, rsi
	mov	rdi, rax
	call	QWORD PTR [r10+424]
	lea	rdx, QWORD PTR $T2[rbp-57]
	lea	rcx, QWORD PTR $T20[rbp-57]
; File c:\program files\autodesk\3ds max 2020 sdk\maxsdk\include\point3.h

; 314  : __forceinline Point3 Point3::operator-(const Point3& b) const { return (Point3(x - b.x, y - b.y, z - b.z)); }

	vmovss	xmm0, DWORD PTR [rax+8]
	vsubss	xmm4, xmm0, DWORD PTR [rdi+8]
	vmovss	xmm0, DWORD PTR [rax]
	vmovss	xmm1, DWORD PTR [rax+4]
	vsubss	xmm2, xmm0, DWORD PTR [rdi]
	vsubss	xmm3, xmm1, DWORD PTR [rdi+4]

; 67   : 		x = X;

	vmovss	DWORD PTR $T2[rbp-57], xmm2

; 68   : 		y = Y;

	vmovss	DWORD PTR $T2[rbp-53], xmm3

; 69   : 		z = Z;

	vmovss	DWORD PTR $T2[rbp-49], xmm4
; File g:\dropbox\github\berconmaps\src\bercongradient.cpp

; 1227 : 			return DotProd(sc.Normal(), FNormalize(sc.PointFrom((p_node->GetNodeTM(sc.CurTime())).GetTrans(),REF_WORLD) - sc.P()));							

	call	QWORD PTR __imp_?FNormalize@@YA?AVPoint3@@AEBV1@@Z
	lea	rdx, QWORD PTR $T24[rbp-57]
$LN59@getGradien:
	mov	r8, QWORD PTR [rsi]
	mov	rcx, rsi
	mov	rbx, rax
	call	QWORD PTR [r8+104]
; File c:\program files\autodesk\3ds max 2020 sdk\maxsdk\include\point3.h

; 354  : __forceinline float DotProd(const Point3& a, const Point3& b) { return (a.x * b.x + a.y * b.y + a.z * b.z); }

	vmovss	xmm0, DWORD PTR [rax+4]
	vmulss	xmm3, xmm0, DWORD PTR [rbx+4]
	vmovss	xmm1, DWORD PTR [rax]
	vmovss	xmm0, DWORD PTR [rax+8]
	vmulss	xmm2, xmm1, DWORD PTR [rbx]
	vmulss	xmm1, xmm0, DWORD PTR [rbx+8]
	vaddss	xmm4, xmm3, xmm2
	vaddss	xmm0, xmm4, xmm1
; File g:\dropbox\github\berconmaps\src\bercongradient.cpp

; 1227 : 			return DotProd(sc.Normal(), FNormalize(sc.PointFrom((p_node->GetNodeTM(sc.CurTime())).GetTrans(),REF_WORLD) - sc.P()));							

	jmp	$LN1@getGradien
$LN16@getGradien:

; 1226 : 				return -DotProd(sc.Normal(), sc.V());												

	mov	rax, QWORD PTR [rsi]
	lea	rdx, QWORD PTR $T25[rbp-57]
	mov	rcx, rsi
	call	QWORD PTR [rax+144]
	lea	rdx, QWORD PTR $T21[rbp-57]
	jmp	$LN58@getGradien
$LN17@getGradien:

; 1228 : 		}
; 1229 : 		case 11: { // Object Z			
; 1230 : 			if (sc.InMtlEditor() || !p_node)

	mov	rax, QWORD PTR [rdx]
	mov	rcx, rsi
	call	QWORD PTR [rax+24]
	test	eax, eax
	jne	$LN19@getGradien
	mov	rbx, QWORD PTR [rdi+560]
	test	rbx, rbx
	je	$LN19@getGradien

; 1232 : 			return DotProd(sc.Normal(), FNormalize(sc.VectorFrom(p_node->GetNodeTM(sc.CurTime()).GetRow(2),REF_WORLD)));			

	mov	rax, QWORD PTR [rsi]
	mov	rcx, rsi
	mov	rbx, QWORD PTR [rbx]
	call	QWORD PTR [rax+56]
	mov	rcx, QWORD PTR [rdi+560]
	lea	rdx, QWORD PTR $T28[rbp-57]
	mov	r8d, eax
	xor	r9d, r9d
	call	QWORD PTR [rbx+1376]
	vxorps	xmm0, xmm0, xmm0
; File c:\program files\autodesk\3ds max 2020 sdk\maxsdk\include\point3.h

; 59   : 	float x = 0.f;

	vmovss	DWORD PTR $T1[rbp-57], xmm0

; 60   : 	float y = 0.f;

	vmovss	DWORD PTR $T1[rbp-53], xmm0

; 61   : 	float z = 0.f;

	vmovss	DWORD PTR $T1[rbp-49], xmm0

; 70   : 	}
; 71   : 	/*! \remarks Constructor. x, y, and z are initialized to the specified values (cast as floats). */
; 72   : 	Point3(double X, double Y, double Z) {
; 73   : 		x = static_cast<float>(X);
; 74   : 		y = static_cast<float>(Y);
; 75   : 		z = static_cast<float>(Z);
; 76   : 	}
; 77   : 	/*! \remarks Constructor. x, y, and z are initialized to the specified values (cast as floats). */
; 78   : 	Point3(int X, int Y, int Z) {
; 79   : 		x = static_cast<float>(X);
; 80   : 		y = static_cast<float>(Y);
; 81   : 		z = static_cast<float>(Z);
; 82   : 	}
; 83   : 	/*! \remarks Constructor. x, y, and z are initialized to the specified Point3. */
; 84   : 	Point3(const Point3& a) {
; 85   : 		x = a.x;

	vmovss	xmm0, DWORD PTR [rax+24]
	vmovss	DWORD PTR $T1[rbp-57], xmm0

; 86   : 		y = a.y;

	vmovss	xmm1, DWORD PTR [rax+28]
	vmovss	DWORD PTR $T1[rbp-53], xmm1

; 87   : 		z = a.z;

	vmovss	xmm0, DWORD PTR [rax+32]
; File g:\dropbox\github\berconmaps\src\bercongradient.cpp

; 1232 : 			return DotProd(sc.Normal(), FNormalize(sc.VectorFrom(p_node->GetNodeTM(sc.CurTime()).GetRow(2),REF_WORLD)));			

	mov	rax, QWORD PTR [rsi]
	lea	r8, QWORD PTR $T1[rbp-57]
	mov	r9d, 1
	lea	rdx, QWORD PTR $T22[rbp-57]
	mov	rcx, rsi
; File c:\program files\autodesk\3ds max 2020 sdk\maxsdk\include\point3.h

; 87   : 		z = a.z;

	vmovss	DWORD PTR $T1[rbp-49], xmm0
; File g:\dropbox\github\berconmaps\src\bercongradient.cpp

; 1232 : 			return DotProd(sc.Normal(), FNormalize(sc.VectorFrom(p_node->GetNodeTM(sc.CurTime()).GetRow(2),REF_WORLD)));			

	call	QWORD PTR [rax+440]
	mov	rdx, rax
	lea	rcx, QWORD PTR $T18[rbp-57]
	call	QWORD PTR __imp_?FNormalize@@YA?AVPoint3@@AEBV1@@Z
	lea	rdx, QWORD PTR $T26[rbp-57]
	jmp	$LN59@getGradien
$LN19@getGradien:

; 1231 : 				return -DotProd(sc.Normal(), sc.V());				

	mov	rax, QWORD PTR [rsi]
	lea	rdx, QWORD PTR $T23[rbp-57]
	mov	rcx, rsi
	call	QWORD PTR [rax+144]
	mov	r8, QWORD PTR [rsi]
	lea	rdx, QWORD PTR $T19[rbp-57]
	mov	rcx, rsi
	mov	rbx, rax
	call	QWORD PTR [r8+104]
; File c:\program files\autodesk\3ds max 2020 sdk\maxsdk\include\point3.h

; 354  : __forceinline float DotProd(const Point3& a, const Point3& b) { return (a.x * b.x + a.y * b.y + a.z * b.z); }

	vmovss	xmm1, DWORD PTR [rbx]
	vmulss	xmm2, xmm1, DWORD PTR [rax]
; File g:\dropbox\github\berconmaps\src\bercongradient.cpp

; 1231 : 				return -DotProd(sc.Normal(), sc.V());				

	jmp	$LN60@getGradien
$LN2@getGradien:
	vxorps	xmm0, xmm0, xmm0
$LN1@getGradien:

; 1233 : 		}
; 1234 : 	}
; 1235 : 	return 0.f;
; 1236 : }

	lea	r11, QWORD PTR [rsp+144]
	mov	rbx, QWORD PTR [r11+16]
	mov	rsi, QWORD PTR [r11+24]
	mov	rdi, QWORD PTR [r11+32]
	mov	rsp, r11
	pop	rbp
	ret	0
	npad	1
$LN45@getGradien:
	DD	$LN4@getGradien
	DD	$LN5@getGradien
	DD	$LN6@getGradien
	DD	$LN7@getGradien
	DD	$LN8@getGradien
	DD	$LN9@getGradien
	DD	$LN10@getGradien
	DD	$LN11@getGradien
	DD	$LN12@getGradien
	DD	$LN13@getGradien
	DD	$LN14@getGradien
	DD	$LN17@getGradien
?getGradientValueNormal@BerconGradient@@QEAAMAEAVShadeContext@@@Z ENDP ; BerconGradient::getGradientValueNormal
_TEXT	ENDS
; Function compile flags: /Ogtp
; File g:\dropbox\github\berconmaps\src\bercongradient.cpp
; File c:\program files\autodesk\3ds max 2020 sdk\maxsdk\include\point3.h
; File g:\dropbox\github\berconmaps\src\bercongradient.cpp
; File c:\program files\autodesk\3ds max 2020 sdk\maxsdk\include\point3.h
; File g:\dropbox\github\berconmaps\src\bercongradient.cpp
; File c:\program files\autodesk\3ds max 2020 sdk\maxsdk\include\point3.h
; File g:\dropbox\github\berconmaps\src\bercongradient.cpp
; File c:\program files\autodesk\3ds max 2020 sdk\maxsdk\include\point3.h
; File g:\dropbox\github\berconmaps\src\bercongradient.cpp
; File c:\program files\autodesk\3ds max 2020 sdk\maxsdk\include\point3.h
; File g:\dropbox\github\berconmaps\src\bercongradient.cpp
; File c:\program files\autodesk\3ds max 2020 sdk\maxsdk\include\point3.h
; File g:\dropbox\github\berconmaps\src\bercongradient.cpp
; File c:\program files\autodesk\3ds max 2020 sdk\maxsdk\include\point3.h
; File g:\dropbox\github\berconmaps\src\bercongradient.cpp
;	COMDAT ?getGradientValueDist@BerconGradient@@QEAAMAEAVShadeContext@@@Z
_TEXT	SEGMENT
b$1 = 32
$T2 = 32
$T3 = 32
$T4 = 32
$T5 = 32
$T6 = 48
$T7 = 48
$T8 = 48
$T9 = 48
$T10 = 48
$T11 = 48
$T12 = 48
$T13 = 48
$T14 = 48
$T15 = 48
$T16 = 48
$T17 = 48
$T18 = 60
$T19 = 60
$T20 = 60
tm$21 = 72
$T22 = 72
this$ = 192
sc$ = 200
?getGradientValueDist@BerconGradient@@QEAAMAEAVShadeContext@@@Z PROC ; BerconGradient::getGradientValueDist, COMDAT

; 1143 : float BerconGradient::getGradientValueDist(ShadeContext& sc) {

$LN56:
	mov	QWORD PTR [rsp+8], rbx
	mov	QWORD PTR [rsp+16], rsi
	mov	QWORD PTR [rsp+24], rdi
	push	rbp
	lea	rbp, QWORD PTR [rsp-87]
	sub	rsp, 176				; 000000b0H

; 1144 : 	switch (p_normalType) {	 

	movsxd	rax, DWORD PTR [rcx+520]
	mov	rsi, rdx
	mov	rdi, rcx
	cmp	eax, 11
	ja	$LN2@getGradien
	lea	rcx, OFFSET FLAT:__ImageBase
	mov	r8d, DWORD PTR $LN45@getGradien[rcx+rax*4]
	add	r8, rcx
	jmp	r8
$LN4@getGradien:

; 1145 : 		case 0: { // View			 
; 1146 : 			return -sc.P().z; //Length(sc.OrigView()); //(sc.PointTo(sc.P(), REF_CAMERA)).z;

	mov	rax, QWORD PTR [rdx]
	lea	rdx, QWORD PTR $T17[rbp-89]
$LN46@getGradien:
	mov	rcx, rsi
	call	QWORD PTR [rax+208]
	vmovss	xmm0, DWORD PTR [rax+8]
	vxorps	xmm0, xmm0, DWORD PTR __xmm@80000000800000008000000080000000
	jmp	$LN1@getGradien
$LN5@getGradien:

; 1147 : 		}
; 1148 : 		case 1: { // Local X
; 1149 : 			return (sc.PointTo(sc.P(), REF_OBJECT)).x;

	mov	rbx, QWORD PTR [rdx]
	mov	rcx, rsi
	lea	rdx, QWORD PTR $T16[rbp-89]
	call	QWORD PTR [rbx+208]
	mov	r9d, 2
$LN52@getGradien:
	mov	r8, rax
	lea	rdx, QWORD PTR $T5[rbp-89]
	mov	rcx, rsi
	call	QWORD PTR [rbx+416]
	vmovss	xmm0, DWORD PTR [rax]
	jmp	$LN1@getGradien
$LN6@getGradien:

; 1150 : 		}
; 1151 : 		case 2: { // Local Y
; 1152 : 			return (sc.PointTo(sc.P(), REF_OBJECT)).y;

	mov	rbx, QWORD PTR [rdx]
	mov	rcx, rsi
	lea	rdx, QWORD PTR $T15[rbp-89]
	call	QWORD PTR [rbx+208]
	mov	r9d, 2
$LN53@getGradien:
	mov	r8, rax
	lea	rdx, QWORD PTR $T4[rbp-89]
	mov	rcx, rsi
	call	QWORD PTR [rbx+416]
	vmovss	xmm0, DWORD PTR [rax+4]
	jmp	$LN1@getGradien
$LN7@getGradien:

; 1153 : 		}
; 1154 : 		case 3: { // Local Z
; 1155 : 			return (sc.PointTo(sc.P(), REF_OBJECT)).z;

	mov	rbx, QWORD PTR [rdx]
	mov	rcx, rsi
	lea	rdx, QWORD PTR $T14[rbp-89]
	call	QWORD PTR [rbx+208]
	mov	r9d, 2
$LN54@getGradien:
	mov	r8, rax
	lea	rdx, QWORD PTR $T3[rbp-89]
	mov	rcx, rsi
	call	QWORD PTR [rbx+416]
	vmovss	xmm0, DWORD PTR [rax+8]
	jmp	$LN1@getGradien
$LN8@getGradien:

; 1156 : 		}
; 1157 : 		case 4: { // World X
; 1158 : 			return (sc.PointTo(sc.P(), REF_WORLD)).x;

	mov	rbx, QWORD PTR [rdx]
	mov	rcx, rsi
	lea	rdx, QWORD PTR $T13[rbp-89]
	call	QWORD PTR [rbx+208]
	mov	r9d, 1
	jmp	$LN52@getGradien
$LN9@getGradien:

; 1159 : 		}
; 1160 : 		case 5: { // World Y
; 1161 : 			return (sc.PointTo(sc.P(), REF_WORLD)).y;

	mov	rbx, QWORD PTR [rdx]
	mov	rcx, rsi
	lea	rdx, QWORD PTR $T12[rbp-89]
	call	QWORD PTR [rbx+208]
	mov	r9d, 1
	jmp	SHORT $LN53@getGradien
$LN10@getGradien:

; 1162 : 		}
; 1163 : 		case 6: { // World Z
; 1164 : 			return (sc.PointTo(sc.P(), REF_WORLD)).z;

	mov	rbx, QWORD PTR [rdx]
	mov	rcx, rsi
	lea	rdx, QWORD PTR $T11[rbp-89]
	call	QWORD PTR [rbx+208]
	mov	r9d, 1
	jmp	SHORT $LN54@getGradien
$LN11@getGradien:

; 1165 : 		}
; 1166 : 		case 7: { // Camera X
; 1167 : 			return sc.P().x; //(sc.PointTo(sc.P(), REF_CAMERA)).x;

	mov	rax, QWORD PTR [rdx]
	mov	rcx, rsi
	lea	rdx, QWORD PTR $T10[rbp-89]
	call	QWORD PTR [rax+208]
	vmovss	xmm0, DWORD PTR [rax]
	jmp	$LN1@getGradien
$LN12@getGradien:

; 1168 : 		}
; 1169 : 		case 8: { // Camera Y
; 1170 : 			return sc.P().y; //(sc.PointTo(sc.P(), REF_CAMERA)).y;

	mov	rax, QWORD PTR [rdx]
	mov	rcx, rsi
	lea	rdx, QWORD PTR $T9[rbp-89]
	call	QWORD PTR [rax+208]
	vmovss	xmm0, DWORD PTR [rax+4]
	jmp	$LN1@getGradien
$LN14@getGradien:

; 1171 : 		}
; 1172 : 		case 9: { // Camera Z
; 1173 : 			return -sc.P().z; //-(sc.PointTo(sc.P(), REF_CAMERA)).z;
; 1174 : 		}
; 1175 : 		case 10: { // To Object
; 1176 : 			if (sc.InMtlEditor() || !p_node)

	mov	rax, QWORD PTR [rdx]
	mov	rcx, rsi
	call	QWORD PTR [rax+24]
	test	eax, eax
	jne	$LN16@getGradien
	mov	rbx, QWORD PTR [rdi+560]
	test	rbx, rbx
	je	$LN16@getGradien

; 1178 : 			return Length((p_node->GetNodeTM(sc.CurTime())).GetTrans() - sc.PointTo(sc.P(), REF_WORLD));

	mov	rax, QWORD PTR [rsi]
	mov	rcx, rsi
	mov	rbx, QWORD PTR [rbx]
	call	QWORD PTR [rax+56]
	mov	rcx, QWORD PTR [rdi+560]
	lea	rdx, QWORD PTR $T22[rbp-89]
	mov	r8d, eax
	xor	r9d, r9d
	call	QWORD PTR [rbx+1376]
	mov	rbx, QWORD PTR [rsi]
	lea	rdx, QWORD PTR $T8[rbp-89]
	mov	rcx, rsi
	mov	rdi, rax
	call	QWORD PTR [rbx+208]
	mov	r9d, 1
	lea	rdx, QWORD PTR $T19[rbp-89]
	mov	r8, rax
	mov	rcx, rsi
	call	QWORD PTR [rbx+416]
; File c:\program files\autodesk\3ds max 2020 sdk\maxsdk\include\point3.h

; 314  : __forceinline Point3 Point3::operator-(const Point3& b) const { return (Point3(x - b.x, y - b.y, z - b.z)); }

	vmovss	xmm0, DWORD PTR [rdi+44]
	vmovss	xmm1, DWORD PTR [rdi+40]
; File g:\dropbox\github\berconmaps\src\bercongradient.cpp

; 1178 : 			return Length((p_node->GetNodeTM(sc.CurTime())).GetTrans() - sc.PointTo(sc.P(), REF_WORLD));

	lea	rcx, QWORD PTR $T2[rbp-89]
; File c:\program files\autodesk\3ds max 2020 sdk\maxsdk\include\point3.h

; 314  : __forceinline Point3 Point3::operator-(const Point3& b) const { return (Point3(x - b.x, y - b.y, z - b.z)); }

	vsubss	xmm4, xmm0, DWORD PTR [rax+8]
	vmovss	xmm0, DWORD PTR [rdi+36]
	vsubss	xmm2, xmm0, DWORD PTR [rax]
	vsubss	xmm3, xmm1, DWORD PTR [rax+4]

; 67   : 		x = X;

	vmovss	DWORD PTR $T2[rbp-89], xmm2

; 68   : 		y = Y;

	vmovss	DWORD PTR $T2[rbp-85], xmm3

; 69   : 		z = Z;

	vmovss	DWORD PTR $T2[rbp-81], xmm4
; File g:\dropbox\github\berconmaps\src\bercongradient.cpp

; 1178 : 			return Length((p_node->GetNodeTM(sc.CurTime())).GetTrans() - sc.PointTo(sc.P(), REF_WORLD));

	call	QWORD PTR __imp_?Length@@YAMAEBVPoint3@@@Z
	jmp	$LN1@getGradien
$LN16@getGradien:

; 1177 : 				return -sc.P().z; //(sc.PointTo(sc.P(), REF_CAMERA)).z;			

	mov	rax, QWORD PTR [rsi]
	lea	rdx, QWORD PTR $T20[rbp-89]
	jmp	$LN46@getGradien
$LN17@getGradien:

; 1179 : 		}
; 1180 : 		case 11: { // Object Z			
; 1181 : 			if (sc.InMtlEditor() || !p_node)

	mov	rax, QWORD PTR [rdx]
	mov	rcx, rsi
	call	QWORD PTR [rax+24]
	test	eax, eax
	jne	SHORT $LN16@getGradien
	mov	rbx, QWORD PTR [rdi+560]
	test	rbx, rbx
	je	SHORT $LN16@getGradien

; 1182 : 				return -sc.P().z; //(sc.PointTo(sc.P(), REF_CAMERA)).z;			
; 1183 : 			Matrix3 tm = p_node->GetNodeTM(sc.CurTime());

	mov	rax, QWORD PTR [rsi]
	mov	rcx, rsi
	mov	rbx, QWORD PTR [rbx]
	vmovaps	XMMWORD PTR [rsp+160], xmm6
	vmovaps	XMMWORD PTR [rsp+144], xmm7
	vmovaps	XMMWORD PTR [rsp+128], xmm8
	call	QWORD PTR [rax+56]
	mov	rcx, QWORD PTR [rdi+560]
	lea	rdx, QWORD PTR tm$21[rbp-89]
	mov	r8d, eax
	xor	r9d, r9d
	call	QWORD PTR [rbx+1376]

; 1184 : 			Point3 a = tm.GetTrans() - sc.PointTo(sc.P(), REF_WORLD);

	mov	rbx, QWORD PTR [rsi]
	lea	rdx, QWORD PTR $T18[rbp-89]
	mov	rcx, rsi
	call	QWORD PTR [rbx+208]
	mov	r9d, 1
	lea	rdx, QWORD PTR $T7[rbp-89]
	mov	r8, rax
	mov	rcx, rsi
	call	QWORD PTR [rbx+416]
; File c:\program files\autodesk\3ds max 2020 sdk\maxsdk\include\point3.h

; 314  : __forceinline Point3 Point3::operator-(const Point3& b) const { return (Point3(x - b.x, y - b.y, z - b.z)); }

	vmovss	xmm0, DWORD PTR tm$21[rbp-53]
	vmovss	xmm1, DWORD PTR tm$21[rbp-49]
; File g:\dropbox\github\berconmaps\src\bercongradient.cpp

; 1185 : 			Point3 b = FNormalize(tm.GetRow(2));

	lea	rdx, QWORD PTR $T6[rbp-89]
; File c:\program files\autodesk\3ds max 2020 sdk\maxsdk\include\point3.h

; 314  : __forceinline Point3 Point3::operator-(const Point3& b) const { return (Point3(x - b.x, y - b.y, z - b.z)); }

	vsubss	xmm8, xmm0, DWORD PTR [rax]
	vsubss	xmm6, xmm1, DWORD PTR [rax+4]
	vmovss	xmm0, DWORD PTR tm$21[rbp-45]
	vsubss	xmm7, xmm0, DWORD PTR [rax+8]

; 85   : 		x = a.x;

	vmovss	xmm1, DWORD PTR tm$21[rbp-65]

; 86   : 		y = a.y;

	vmovss	xmm0, DWORD PTR tm$21[rbp-61]
	vmovss	DWORD PTR $T6[rbp-89], xmm1

; 87   : 		z = a.z;

	vmovss	xmm1, DWORD PTR tm$21[rbp-57]
; File g:\dropbox\github\berconmaps\src\bercongradient.cpp

; 1185 : 			Point3 b = FNormalize(tm.GetRow(2));

	lea	rcx, QWORD PTR b$1[rbp-89]
; File c:\program files\autodesk\3ds max 2020 sdk\maxsdk\include\point3.h

; 87   : 		z = a.z;

	vmovss	DWORD PTR $T6[rbp-81], xmm1
	vmovss	DWORD PTR $T6[rbp-85], xmm0
; File g:\dropbox\github\berconmaps\src\bercongradient.cpp

; 1185 : 			Point3 b = FNormalize(tm.GetRow(2));

	call	QWORD PTR __imp_?FNormalize@@YA?AVPoint3@@AEBV1@@Z
; File c:\program files\autodesk\3ds max 2020 sdk\maxsdk\include\point3.h

; 354  : __forceinline float DotProd(const Point3& a, const Point3& b) { return (a.x * b.x + a.y * b.y + a.z * b.z); }

	vmulss	xmm3, xmm6, DWORD PTR b$1[rbp-85]
	vmulss	xmm2, xmm8, DWORD PTR b$1[rbp-89]
	vmulss	xmm1, xmm7, DWORD PTR b$1[rbp-81]
	vaddss	xmm4, xmm3, xmm2
; File g:\dropbox\github\berconmaps\src\bercongradient.cpp

; 1186 : 			return (-DotProd(b, a) / Length(b));

	lea	rcx, QWORD PTR b$1[rbp-89]
; File c:\program files\autodesk\3ds max 2020 sdk\maxsdk\include\point3.h

; 354  : __forceinline float DotProd(const Point3& a, const Point3& b) { return (a.x * b.x + a.y * b.y + a.z * b.z); }

	vaddss	xmm6, xmm4, xmm1
; File g:\dropbox\github\berconmaps\src\bercongradient.cpp

; 1186 : 			return (-DotProd(b, a) / Length(b));

	call	QWORD PTR __imp_?Length@@YAMAEBVPoint3@@@Z
	vmovaps	xmm8, XMMWORD PTR [rsp+128]
	vmovaps	xmm7, XMMWORD PTR [rsp+144]
	vdivss	xmm1, xmm6, xmm0
	vxorps	xmm0, xmm1, DWORD PTR __xmm@80000000800000008000000080000000
	vmovaps	xmm6, XMMWORD PTR [rsp+160]
	jmp	SHORT $LN1@getGradien
$LN2@getGradien:
	vxorps	xmm0, xmm0, xmm0
$LN1@getGradien:

; 1187 : 		}
; 1188 : 	}
; 1189 : 	return 0.f;
; 1190 : }

	lea	r11, QWORD PTR [rsp+176]
	mov	rbx, QWORD PTR [r11+16]
	mov	rsi, QWORD PTR [r11+24]
	mov	rdi, QWORD PTR [r11+32]
	mov	rsp, r11
	pop	rbp
	ret	0
	npad	1
$LN45@getGradien:
	DD	$LN4@getGradien
	DD	$LN5@getGradien
	DD	$LN6@getGradien
	DD	$LN7@getGradien
	DD	$LN8@getGradien
	DD	$LN9@getGradien
	DD	$LN10@getGradien
	DD	$LN11@getGradien
	DD	$LN12@getGradien
	DD	$LN4@getGradien
	DD	$LN14@getGradien
	DD	$LN17@getGradien
?getGradientValueDist@BerconGradient@@QEAAMAEAVShadeContext@@@Z ENDP ; BerconGradient::getGradientValueDist
_TEXT	ENDS
; Function compile flags: /Ogtp
; File g:\dropbox\github\berconmaps\src\bercongradient.cpp
; File c:\program files (x86)\microsoft visual studio 14.0\vc\include\cmath
; File g:\dropbox\github\berconmaps\src\bercongradient.cpp
; File c:\program files (x86)\windows kits\10\include\10.0.10586.0\ucrt\math.h
; File g:\dropbox\github\berconmaps\src\bercongradient.cpp
; File c:\program files (x86)\windows kits\10\include\10.0.10586.0\ucrt\math.h
; File g:\dropbox\github\berconmaps\src\bercongradient.cpp
; File c:\program files (x86)\microsoft visual studio 14.0\vc\include\cmath
; File g:\dropbox\github\berconmaps\src\bercongradient.cpp
; File c:\program files (x86)\microsoft visual studio 14.0\vc\include\cmath
; File g:\dropbox\github\berconmaps\src\bercongradient.cpp
; File c:\program files (x86)\microsoft visual studio 14.0\vc\include\cmath
; File g:\dropbox\github\berconmaps\src\bercongradient.cpp
; File c:\program files (x86)\microsoft visual studio 14.0\vc\include\cmath
; File g:\dropbox\github\berconmaps\src\bercongradient.cpp
; File c:\program files (x86)\microsoft visual studio 14.0\vc\include\cmath
; File g:\dropbox\github\berconmaps\src\bercongradient.cpp
; File c:\program files (x86)\windows kits\10\include\10.0.10586.0\ucrt\math.h
; File g:\dropbox\github\berconmaps\src\bercongradient.cpp
; File c:\program files (x86)\windows kits\10\include\10.0.10586.0\ucrt\math.h
; File g:\dropbox\github\berconmaps\src\bercongradient.cpp
; File c:\program files (x86)\windows kits\10\include\10.0.10586.0\ucrt\math.h
; File g:\dropbox\github\berconmaps\src\bercongradient.cpp
; File c:\program files (x86)\windows kits\10\include\10.0.10586.0\ucrt\math.h
; File g:\dropbox\github\berconmaps\src\bercongradient.cpp
;	COMDAT ?getGradientValueUVW@BerconGradient@@QEAAMVPoint3@@@Z
_TEXT	SEGMENT
$T1 = 32
$T2 = 32
$T3 = 32
this$ = 80
p$ = 88
?getGradientValueUVW@BerconGradient@@QEAAMVPoint3@@@Z PROC ; BerconGradient::getGradientValueUVW, COMDAT

; 1047 : float BerconGradient::getGradientValueUVW(Point3 p) {

$LN73:
	push	rbx
	sub	rsp, 64					; 00000040H

; 1048 : 	// NOTE! Asumes the values are scaled to [0..1, 0..1, 0..1] space
; 1049 : 	switch (p_uvwType) {

	movsxd	rax, DWORD PTR [rcx+512]
	mov	rbx, rdx
	vmovaps	XMMWORD PTR [rsp+48], xmm6
	cmp	eax, 9
	ja	$LN19@getGradien
	lea	rdx, OFFSET FLAT:__ImageBase
	mov	ecx, DWORD PTR $LN69@getGradien[rdx+rax*4]
	add	rcx, rdx
	jmp	rcx
$LN4@getGradien:

; 1050 : 		case 0: { // 1D Linear
; 1051 : 			return p.x;

	vmovss	xmm0, DWORD PTR [rbx]

; 1101 : 		}
; 1102 : 		default:
; 1103 : 			return 0.f;
; 1104 : 	}
; 1105 : }

	vmovaps	xmm6, XMMWORD PTR [rsp+48]
	add	rsp, 64					; 00000040H
	pop	rbx
	ret	0
$LN5@getGradien:

; 1052 : 		}
; 1053 : 		case 1: { // 2D Radial
; 1054 : 			p.x -= .5f; p.y -= .5f;

	vmovss	xmm0, DWORD PTR [rbx]
	vsubss	xmm3, xmm0, DWORD PTR __real@3f000000
	vmovss	xmm0, DWORD PTR [rbx+4]
	vsubss	xmm1, xmm0, DWORD PTR __real@3f000000

; 1055 : 			return 1.f - sqrt(p.x*p.x + p.y*p.y) * 2.f;			

	vmulss	xmm2, xmm1, xmm1
	vmulss	xmm0, xmm3, xmm3
	vaddss	xmm0, xmm2, xmm0
	vmovss	DWORD PTR [rbx], xmm3
	vmovss	DWORD PTR [rbx+4], xmm1
$LN71@getGradien:
; File c:\program files (x86)\microsoft visual studio 14.0\vc\include\cmath

; 305  : 	return (_CSTD sqrtf(_Xx));

	call	sqrtf
$LN70@getGradien:
; File g:\dropbox\github\berconmaps\src\bercongradient.cpp

; 1055 : 			return 1.f - sqrt(p.x*p.x + p.y*p.y) * 2.f;			

	vmovss	xmm1, DWORD PTR __real@3f800000
	vaddss	xmm2, xmm0, xmm0
	vsubss	xmm0, xmm1, xmm2

; 1101 : 		}
; 1102 : 		default:
; 1103 : 			return 0.f;
; 1104 : 	}
; 1105 : }

	vmovaps	xmm6, XMMWORD PTR [rsp+48]
	add	rsp, 64					; 00000040H
	pop	rbx
	ret	0
$LN6@getGradien:

; 1056 : 		}
; 1057 : 		case 2: { // 2D Rectangle
; 1058 : 			p.x -= .5f; p.y -= .5f;

	vmovss	xmm0, DWORD PTR [rbx]
	vsubss	xmm2, xmm0, DWORD PTR __real@3f000000
	vmovss	xmm0, DWORD PTR [rbx+4]
	vsubss	xmm4, xmm0, DWORD PTR __real@3f000000
; File c:\program files (x86)\windows kits\10\include\10.0.10586.0\ucrt\math.h

; 671  :         return (float)fabs(_X);

	vcvtss2sd xmm1, xmm2, xmm2
	vandpd	xmm1, xmm1, QWORD PTR __xmm@7fffffffffffffff7fffffffffffffff
	vcvtsd2ss xmm2, xmm1, xmm1
	vcvtss2sd xmm0, xmm4, xmm4
	vandpd	xmm0, xmm0, QWORD PTR __xmm@7fffffffffffffff7fffffffffffffff
	vcvtsd2ss xmm1, xmm0, xmm0
	vmovss	DWORD PTR [rbx+4], xmm1
	vmaxss	xmm0, xmm2, xmm1
	vmovss	DWORD PTR [rbx], xmm2
; File g:\dropbox\github\berconmaps\src\bercongradient.cpp

; 1060 : 			return 1.f - (p.x>p.y?p.x:p.y) * 2.f;		

	jmp	SHORT $LN70@getGradien
$LN7@getGradien:

; 1063 : 			return 1.f - fabs(p.x - p.y); // / SQRT2 / 2.f;					

	vmovss	xmm0, DWORD PTR [rbx]
	vsubss	xmm1, xmm0, DWORD PTR [rbx+4]
	vmovss	xmm0, DWORD PTR __real@3f800000
; File c:\program files (x86)\windows kits\10\include\10.0.10586.0\ucrt\math.h

; 671  :         return (float)fabs(_X);

	vcvtss2sd xmm2, xmm1, xmm1
	vandpd	xmm2, xmm2, QWORD PTR __xmm@7fffffffffffffff7fffffffffffffff
	vcvtsd2ss xmm3, xmm2, xmm2
; File g:\dropbox\github\berconmaps\src\bercongradient.cpp

; 1063 : 			return 1.f - fabs(p.x - p.y); // / SQRT2 / 2.f;					

	vsubss	xmm0, xmm0, xmm3

; 1101 : 		}
; 1102 : 		default:
; 1103 : 			return 0.f;
; 1104 : 	}
; 1105 : }

	vmovaps	xmm6, XMMWORD PTR [rsp+48]
	add	rsp, 64					; 00000040H
	pop	rbx
	ret	0
$LN8@getGradien:

; 1064 : 		}
; 1065 : 		case 4: { // 2D Pong
; 1066 : 			p.z = 0;
; 1067 : 			p = Normalize(p);

	mov	rdx, rbx
	mov	DWORD PTR [rbx+8], 0
	lea	rcx, QWORD PTR $T3[rsp]
	call	QWORD PTR __imp_?Normalize@@YA?AVPoint3@@AEBV1@@Z
	vmovsd	xmm0, QWORD PTR [rax]
	vmovsd	QWORD PTR [rbx], xmm0
	mov	eax, DWORD PTR [rax+8]
	mov	DWORD PTR [rbx+8], eax
; File c:\program files (x86)\microsoft visual studio 14.0\vc\include\cmath

; 37   : 	return (_CSTD acosf(_Xx));

	vmovss	xmm0, DWORD PTR [rbx+4]
	call	acosf
; File g:\dropbox\github\berconmaps\src\bercongradient.cpp

; 1069 : 			if (a > pi / 4.f) a = (float)pi / 2.f - a;

	vcvtss2sd xmm1, xmm0, xmm0
	vcomisd	xmm1, QWORD PTR __real@3fe921fb54442d18
	jbe	SHORT $LN9@getGradien
	vmovss	xmm1, DWORD PTR __real@3fc90fdb
	vsubss	xmm0, xmm1, xmm0
$LN9@getGradien:

; 1070 : 			return a / (float)pi * 4.f;

	vdivss	xmm0, xmm0, DWORD PTR __real@40490fdb
	vmulss	xmm0, xmm0, DWORD PTR __real@40800000

; 1101 : 		}
; 1102 : 		default:
; 1103 : 			return 0.f;
; 1104 : 	}
; 1105 : }

	vmovaps	xmm6, XMMWORD PTR [rsp+48]
	add	rsp, 64					; 00000040H
	pop	rbx
	ret	0
$LN10@getGradien:

; 1071 : 		}	
; 1072 : 		case 5: { // 2D Spiral
; 1073 : 			p.x -= .5f; p.y -= .5f;	p.z = 0;

	vmovss	xmm0, DWORD PTR [rbx]
	vmovss	xmm1, DWORD PTR [rbx+4]
	vmovss	xmm6, DWORD PTR __real@3f000000
	vsubss	xmm0, xmm0, xmm6
	vmovss	DWORD PTR [rbx], xmm0
	vsubss	xmm0, xmm1, xmm6

; 1074 : 			p = Normalize(p);

	mov	rdx, rbx
	mov	DWORD PTR [rbx+8], 0
	lea	rcx, QWORD PTR $T2[rsp]
	vmovss	DWORD PTR [rbx+4], xmm0
	call	QWORD PTR __imp_?Normalize@@YA?AVPoint3@@AEBV1@@Z
	vmovsd	xmm0, QWORD PTR [rax]
	vmovsd	QWORD PTR [rbx], xmm0
	mov	eax, DWORD PTR [rax+8]
	mov	DWORD PTR [rbx+8], eax

; 1075 : 			if (p.x > 0)

	vmovss	xmm1, DWORD PTR [rbx]
	vxorps	xmm0, xmm0, xmm0
	vcomiss	xmm1, xmm0
; File c:\program files (x86)\microsoft visual studio 14.0\vc\include\cmath

; 37   : 	return (_CSTD acosf(_Xx));

	vmovss	xmm0, DWORD PTR [rbx+4]
; File g:\dropbox\github\berconmaps\src\bercongradient.cpp

; 1075 : 			if (p.x > 0)

	jbe	SHORT $LN11@getGradien
; File c:\program files (x86)\microsoft visual studio 14.0\vc\include\cmath

; 37   : 	return (_CSTD acosf(_Xx));

	call	acosf
; File g:\dropbox\github\berconmaps\src\bercongradient.cpp

; 1076 : 				return acos(p.y) / (float)pi / 2.f;

	vdivss	xmm1, xmm0, DWORD PTR __real@40490fdb
	vmulss	xmm0, xmm1, xmm6

; 1101 : 		}
; 1102 : 		default:
; 1103 : 			return 0.f;
; 1104 : 	}
; 1105 : }

	vmovaps	xmm6, XMMWORD PTR [rsp+48]
	add	rsp, 64					; 00000040H
	pop	rbx
	ret	0
$LN11@getGradien:
; File c:\program files (x86)\microsoft visual studio 14.0\vc\include\cmath

; 37   : 	return (_CSTD acosf(_Xx));

	call	acosf
; File g:\dropbox\github\berconmaps\src\bercongradient.cpp

; 1078 : 				return 1.f - acos(p.y) / (float)pi / 2.f;

	vdivss	xmm1, xmm0, DWORD PTR __real@40490fdb
	vmovss	xmm2, DWORD PTR __real@3f800000
	vmulss	xmm3, xmm1, xmm6
	vsubss	xmm0, xmm2, xmm3

; 1101 : 		}
; 1102 : 		default:
; 1103 : 			return 0.f;
; 1104 : 	}
; 1105 : }

	vmovaps	xmm6, XMMWORD PTR [rsp+48]
	add	rsp, 64					; 00000040H
	pop	rbx
	ret	0
$LN12@getGradien:

; 1079 : 		}	
; 1080 : 		case 6: { // 2D Sweep
; 1081 : 			p.z = 0;
; 1082 : 			p = Normalize(p);

	mov	rdx, rbx
	mov	DWORD PTR [rbx+8], 0
	lea	rcx, QWORD PTR $T1[rsp]
	call	QWORD PTR __imp_?Normalize@@YA?AVPoint3@@AEBV1@@Z
	vmovsd	xmm0, QWORD PTR [rax]
	vmovsd	QWORD PTR [rbx], xmm0
	mov	eax, DWORD PTR [rax+8]
	mov	DWORD PTR [rbx+8], eax
; File c:\program files (x86)\microsoft visual studio 14.0\vc\include\cmath

; 37   : 	return (_CSTD acosf(_Xx));

	vmovss	xmm0, DWORD PTR [rbx+4]
	call	acosf
; File g:\dropbox\github\berconmaps\src\bercongradient.cpp

; 1083 : 			return acos(p.y) / (float)pi * 2.f;

	vdivss	xmm1, xmm0, DWORD PTR __real@40490fdb
	vaddss	xmm0, xmm1, xmm1

; 1101 : 		}
; 1102 : 		default:
; 1103 : 			return 0.f;
; 1104 : 	}
; 1105 : }

	vmovaps	xmm6, XMMWORD PTR [rsp+48]
	add	rsp, 64					; 00000040H
	pop	rbx
	ret	0
$LN14@getGradien:

; 1084 : 		}	
; 1085 : 		case 7: { // 2D Tartan
; 1086 : 			p.x -= .5f; p.y -= .5f;

	vmovss	xmm0, DWORD PTR [rbx]
	vsubss	xmm2, xmm0, DWORD PTR __real@3f000000
	vmovss	xmm0, DWORD PTR [rbx+4]
	vsubss	xmm4, xmm0, DWORD PTR __real@3f000000
; File c:\program files (x86)\windows kits\10\include\10.0.10586.0\ucrt\math.h

; 671  :         return (float)fabs(_X);

	vcvtss2sd xmm1, xmm2, xmm2
	vandpd	xmm1, xmm1, QWORD PTR __xmm@7fffffffffffffff7fffffffffffffff
	vcvtsd2ss xmm2, xmm1, xmm1
	vcvtss2sd xmm0, xmm4, xmm4
	vandpd	xmm0, xmm0, QWORD PTR __xmm@7fffffffffffffff7fffffffffffffff
	vcvtsd2ss xmm1, xmm0, xmm0
	vmovss	DWORD PTR [rbx+4], xmm1
	vminss	xmm0, xmm2, xmm1
	vmovss	DWORD PTR [rbx], xmm2
; File g:\dropbox\github\berconmaps\src\bercongradient.cpp

; 1088 : 			return 1.f - (p.x<p.y?p.x:p.y)*2.f;		

	jmp	$LN70@getGradien
$LN15@getGradien:

; 1089 : 		}
; 1090 : 		case 8: { // 3D Spherical
; 1091 : 			p.x -= .5f; p.y -= .5f; p.z -= .5f;

	vmovss	xmm1, DWORD PTR __real@3f000000
	vmovss	xmm0, DWORD PTR [rbx]
	vsubss	xmm4, xmm0, xmm1
	vmovss	xmm0, DWORD PTR [rbx+4]
	vsubss	xmm2, xmm0, xmm1
	vmovss	xmm0, DWORD PTR [rbx+8]
	vsubss	xmm3, xmm0, xmm1

; 1092 : 			return 1.f - sqrt(p.x*p.x + p.y*p.y + p.z*p.z) * 2.f;

	vmulss	xmm1, xmm4, xmm4
	vmulss	xmm0, xmm2, xmm2
	vmovss	DWORD PTR [rbx+4], xmm2
	vaddss	xmm2, xmm1, xmm0
	vmulss	xmm1, xmm3, xmm3
	vaddss	xmm0, xmm2, xmm1
	vmovss	DWORD PTR [rbx], xmm4
	vmovss	DWORD PTR [rbx+8], xmm3
	jmp	$LN71@getGradien
$LN16@getGradien:

; 1095 : 			p.x -= .5f; p.y -= .5f; p.z -= .5f;

	vmovss	xmm2, DWORD PTR __real@3f000000
	vmovss	xmm0, DWORD PTR [rbx]
; File c:\program files (x86)\windows kits\10\include\10.0.10586.0\ucrt\math.h

; 671  :         return (float)fabs(_X);

	vmovsd	xmm5, QWORD PTR __xmm@7fffffffffffffff7fffffffffffffff
; File g:\dropbox\github\berconmaps\src\bercongradient.cpp

; 1095 : 			p.x -= .5f; p.y -= .5f; p.z -= .5f;

	vmovss	xmm1, DWORD PTR [rbx+8]
	vsubss	xmm3, xmm0, xmm2
	vmovss	xmm0, DWORD PTR [rbx+4]
	vsubss	xmm4, xmm0, xmm2
; File c:\program files (x86)\windows kits\10\include\10.0.10586.0\ucrt\math.h

; 671  :         return (float)fabs(_X);

	vcvtss2sd xmm0, xmm3, xmm3
	vandpd	xmm0, xmm0, xmm5
	vcvtsd2ss xmm6, xmm0, xmm0
; File g:\dropbox\github\berconmaps\src\bercongradient.cpp

; 1095 : 			p.x -= .5f; p.y -= .5f; p.z -= .5f;

	vsubss	xmm1, xmm1, xmm2
; File c:\program files (x86)\windows kits\10\include\10.0.10586.0\ucrt\math.h

; 671  :         return (float)fabs(_X);

	vcvtss2sd xmm1, xmm1, xmm1
	vcvtss2sd xmm0, xmm4, xmm4
	vandpd	xmm0, xmm0, xmm5
	vcvtsd2ss xmm3, xmm0, xmm0
	vmaxss	xmm0, xmm3, xmm6
	vandpd	xmm1, xmm1, xmm5
	vcvtsd2ss xmm2, xmm1, xmm1
	vmaxss	xmm1, xmm2, xmm0
	vmovss	DWORD PTR [rbx+4], xmm3
; File g:\dropbox\github\berconmaps\src\bercongradient.cpp

; 1096 : 			p.x = fabs(p.x); p.y = fabs(p.y); p.z = fabs(p.z);

	vmovss	DWORD PTR [rbx+8], xmm2

; 1097 : 			float largest = p.x;
; 1098 : 			if (largest < p.y) largest = p.y;
; 1099 : 			if (largest < p.z) largest = p.z;
; 1100 : 			return 1.f - largest * 2.f;													

	vmovss	xmm2, DWORD PTR __real@3f800000
	vaddss	xmm3, xmm1, xmm1
	vsubss	xmm0, xmm2, xmm3
	vmovss	DWORD PTR [rbx], xmm6

; 1101 : 		}
; 1102 : 		default:
; 1103 : 			return 0.f;
; 1104 : 	}
; 1105 : }

	vmovaps	xmm6, XMMWORD PTR [rsp+48]
	add	rsp, 64					; 00000040H
	pop	rbx
	ret	0
$LN19@getGradien:
	vxorps	xmm0, xmm0, xmm0
	vmovaps	xmm6, XMMWORD PTR [rsp+48]
	add	rsp, 64					; 00000040H
	pop	rbx
	ret	0
$LN69@getGradien:
	DD	$LN4@getGradien
	DD	$LN5@getGradien
	DD	$LN6@getGradien
	DD	$LN7@getGradien
	DD	$LN8@getGradien
	DD	$LN10@getGradien
	DD	$LN12@getGradien
	DD	$LN14@getGradien
	DD	$LN15@getGradien
	DD	$LN16@getGradien
?getGradientValueUVW@BerconGradient@@QEAAMVPoint3@@@Z ENDP ; BerconGradient::getGradientValueUVW
_TEXT	ENDS
; Function compile flags: /Ogtp
; File g:\dropbox\github\berconmaps\src\bercongradient.cpp
;	COMDAT ?EnableStuff@BerconGradient@@QEAAXXZ
_TEXT	SEGMENT
this$ = 96
?EnableStuff@BerconGradient@@QEAAXXZ PROC		; BerconGradient::EnableStuff, COMDAT

; 644  : void BerconGradient::EnableStuff() {			

$LN18:
	push	r15
	sub	rsp, 80					; 00000050H
	mov	r15, rcx

; 645  : 	if (!pblock) return;

	mov	rcx, QWORD PTR [rcx+160]
	test	rcx, rcx
	je	$LN3@EnableStuf

; 646  : 	IParamMap2 *map = pblock->GetMap();

	mov	rax, QWORD PTR [rcx]
	xor	edx, edx
	mov	QWORD PTR [rsp+48], r14
	call	QWORD PTR [rax+2328]
	mov	r14, rax

; 647  : 	if (map) {

	test	rax, rax
	je	$LN16@EnableStuf

; 648  : 		// Update values
; 649  : 		TimeValue t = GetCOREInterface()->GetTime();

	mov	QWORD PTR [rsp+96], rbx
	mov	QWORD PTR [rsp+104], rbp
	mov	QWORD PTR [rsp+112], rsi
	mov	QWORD PTR [rsp+72], rdi
	mov	QWORD PTR [rsp+64], r12
	mov	QWORD PTR [rsp+56], r13
	call	QWORD PTR __imp_?GetCOREInterface@@YAPEAVInterface@@XZ
	mov	rcx, rax
	mov	rdx, QWORD PTR [rax]
	call	QWORD PTR [rdx+1448]

; 650  : 		pblockGetValue(pb_type, p_type);

	mov	rcx, QWORD PTR [r15+160]
	lea	r12, QWORD PTR [r15+480]
	xor	ebp, ebp
	lea	rbx, QWORD PTR [r15+448]
	mov	edx, 7
	mov	DWORD PTR [rsp+40], ebp
	mov	r9, r12
	mov	QWORD PTR [rsp+32], rbx
	mov	r10, QWORD PTR [rcx]
	mov	r8d, eax
	mov	edi, eax
	call	QWORD PTR [r10+1704]

; 651  : 		pblockGetValue(pb_dison, p_disOn);

	mov	rcx, QWORD PTR [r15+160]
	lea	edx, QWORD PTR [rbp+26]
	mov	DWORD PTR [rsp+40], ebp
	lea	r9, QWORD PTR [r15+532]
	mov	r8d, edi
	mov	QWORD PTR [rsp+32], rbx
	mov	rax, QWORD PTR [rcx]
	call	QWORD PTR [rax+1704]

; 652  : 		pblockGetValue(pb_gradient_normal,	p_normalType);

	mov	rcx, QWORD PTR [r15+160]
	lea	r9, QWORD PTR [r15+520]
	lea	edx, QWORD PTR [rbp+19]
	mov	DWORD PTR [rsp+40], ebp
	mov	r8d, edi
	mov	QWORD PTR [rsp+32], rbx
	mov	rax, QWORD PTR [rcx]
	call	QWORD PTR [rax+1704]

; 653  : 		pblockGetValue(pb_gradient_normal2,	p_normalFunction);

	mov	rcx, QWORD PTR [r15+160]
	lea	edx, QWORD PTR [rbp+20]
	mov	DWORD PTR [rsp+40], ebp
	lea	r9, QWORD PTR [r15+524]
	mov	r8d, edi
	mov	QWORD PTR [rsp+32], rbx
	mov	rax, QWORD PTR [rcx]
	call	QWORD PTR [rax+1704]
	mov	rax, QWORD PTR [r15+456]

; 654  : 		// Key params
; 655  : 		map->Enable(pb_keyTex,		gradient->selected==-1?FALSE:TRUE);

	lea	edx, QWORD PTR [rbp+3]
	mov	r10, QWORD PTR [r14]
	mov	r8d, ebp
	mov	rcx, r14
	cmp	DWORD PTR [rax+64], -1
	setne	r8b
	xor	r9d, r9d
	call	QWORD PTR [r10+184]
	mov	rax, QWORD PTR [r15+456]

; 656  : 		map->Enable(pb_keyPos,		gradient->selected==-1?FALSE:TRUE);

	lea	edx, QWORD PTR [rbp+5]
	mov	r10, QWORD PTR [r14]
	mov	r8d, ebp
	mov	rcx, r14
	cmp	DWORD PTR [rax+64], -1
	setne	r8b
	xor	r9d, r9d
	call	QWORD PTR [r10+184]
	mov	rax, QWORD PTR [r15+456]

; 657  : 		map->Enable(pb_keyCol,		gradient->selected==-1?FALSE:TRUE);

	lea	edx, QWORD PTR [rbp+4]
	mov	r10, QWORD PTR [r14]
	mov	r8d, ebp
	mov	rcx, r14
	cmp	DWORD PTR [rax+64], -1
	setne	r8b
	xor	r9d, r9d
	call	QWORD PTR [r10+184]

; 658  : 		// Random
; 659  : 		map->Enable(pb_seed,		p_type==5?TRUE:FALSE);

	cmp	DWORD PTR [r12], 5
	lea	edx, QWORD PTR [rbp+10]
	mov	rax, QWORD PTR [r14]
	mov	r8d, ebp
	sete	r8b
	mov	rcx, r14
	xor	r9d, r9d
	call	QWORD PTR [rax+184]

; 660  : 		map->Enable(pb_rand_obj,	p_type==5?TRUE:FALSE);

	cmp	DWORD PTR [r12], 5
	lea	edx, QWORD PTR [rbp+12]
	mov	rax, QWORD PTR [r14]
	mov	r8d, ebp
	sete	r8b
	mov	rcx, r14
	xor	r9d, r9d
	call	QWORD PTR [rax+184]

; 661  : 		map->Enable(pb_rand_mat,	p_type==5?TRUE:FALSE);

	cmp	DWORD PTR [r12], 5
	lea	edx, QWORD PTR [rbp+11]
	mov	rax, QWORD PTR [r14]
	mov	r8d, ebp
	sete	r8b
	mov	rcx, r14
	xor	r9d, r9d
	call	QWORD PTR [rax+184]

; 662  : 		map->Enable(pb_rand_par,	p_type==5?TRUE:FALSE);

	cmp	DWORD PTR [r12], 5
	lea	edx, QWORD PTR [rbp+13]
	mov	rax, QWORD PTR [r14]
	mov	r8d, ebp
	sete	r8b
	mov	rcx, r14
	xor	r9d, r9d
	call	QWORD PTR [rax+184]

; 663  : 		map->Enable(pb_rand_tile,	p_type==5?TRUE:FALSE);

	cmp	DWORD PTR [r12], 5
	lea	edx, QWORD PTR [rbp+14]
	mov	rax, QWORD PTR [r14]
	mov	r8d, ebp
	sete	r8b
	mov	rcx, r14
	xor	r9d, r9d
	call	QWORD PTR [rax+184]

; 664  : 		// Mapped
; 665  : 		map->Enable(pb_maptex,		p_type==4?TRUE:FALSE);		

	cmp	DWORD PTR [r12], 4
	lea	edx, QWORD PTR [rbp+23]
	mov	rax, QWORD PTR [r14]
	mov	r8d, ebp
	sete	r8b
	mov	rcx, r14
	xor	r9d, r9d
	call	QWORD PTR [rax+184]

; 666  : 		// Distortion
; 667  : 		map->Enable(pb_disstr,		p_disOn?TRUE:FALSE);

	cmp	DWORD PTR [r15+532], ebp
	lea	edx, QWORD PTR [rbp+25]
	mov	rax, QWORD PTR [r14]
	mov	r8d, ebp
	setne	r8b
	mov	rcx, r14
	xor	r9d, r9d
	call	QWORD PTR [rax+184]

; 668  : 		map->Enable(pb_distex,		p_disOn?TRUE:FALSE);

	cmp	DWORD PTR [r15+532], ebp
	lea	edx, QWORD PTR [rbp+24]
	mov	rax, QWORD PTR [r14]
	mov	r8d, ebp
	setne	r8b
	mov	rcx, r14
	xor	r9d, r9d
	call	QWORD PTR [rax+184]
	mov	eax, DWORD PTR [r12]

; 669  : 		// Normal / Distance
; 670  : 		map->Enable(pb_gradient_normal,		p_type==1||p_type==2?TRUE:FALSE);

	lea	edx, QWORD PTR [rbp+19]
	dec	eax
	mov	r8d, ebp
	cmp	eax, 1
	mov	rcx, r14
	mov	rax, QWORD PTR [r14]
	setbe	r8b
	xor	r9d, r9d
	call	QWORD PTR [rax+184]

; 671  : 		map->Enable(pb_gradient_normal2,	p_type==1?TRUE:FALSE);

	cmp	DWORD PTR [r12], 1
	lea	edx, QWORD PTR [rbp+20]
	mov	rax, QWORD PTR [r14]
	mov	r8d, ebp
	sete	r8b
	mov	rcx, r14
	xor	r9d, r9d
	call	QWORD PTR [rax+184]
	mov	rdi, QWORD PTR [rsp+72]

; 672  : 		map->Enable(pb_ior,					p_type==1&&p_normalFunction==2?TRUE:FALSE);

	mov	ebx, 1
	mov	rsi, QWORD PTR [rsp+112]
	cmp	DWORD PTR [r12], ebx
	jne	SHORT $LN7@EnableStuf
	cmp	DWORD PTR [r15+524], 2
	mov	r8d, ebx
	je	SHORT $LN8@EnableStuf
$LN7@EnableStuf:
	mov	r8d, ebp
$LN8@EnableStuf:
	mov	rax, QWORD PTR [r14]
	mov	edx, 21
	xor	r9d, r9d
	mov	rcx, r14
	call	QWORD PTR [rax+184]
	mov	eax, DWORD PTR [r12]
	mov	r13, QWORD PTR [rsp+56]
	dec	eax
	cmp	eax, ebx
	ja	SHORT $LN11@EnableStuf
	mov	eax, DWORD PTR [r15+520]
	sub	eax, 10
	cmp	eax, ebx
	jbe	SHORT $LN12@EnableStuf
$LN11@EnableStuf:

; 673  : 		map->Enable(pb_node,				(p_type==1||p_type==2)&&(p_normalType==10||p_normalType==11)?TRUE:FALSE);

	mov	ebx, ebp
$LN12@EnableStuf:
	mov	rax, QWORD PTR [r14]
	mov	edx, 22
	xor	r9d, r9d
	mov	r8d, ebx
	mov	rcx, r14
	call	QWORD PTR [rax+184]

; 674  : 		// UVW
; 675  : 		map->Enable(pb_gradient_uvw,	p_type==0?TRUE:FALSE);

	cmp	DWORD PTR [r12], ebp
	mov	edx, 18
	mov	rax, QWORD PTR [r14]
	mov	rcx, r14
	sete	bpl
	xor	r9d, r9d
	mov	r8d, ebp
	call	QWORD PTR [rax+184]
	mov	r12, QWORD PTR [rsp+64]
	mov	rbp, QWORD PTR [rsp+104]
	mov	rbx, QWORD PTR [rsp+96]
$LN16@EnableStuf:
	mov	r14, QWORD PTR [rsp+48]
$LN3@EnableStuf:

; 676  : 	}		
; 677  : }

	add	rsp, 80					; 00000050H
	pop	r15
	ret	0
?EnableStuff@BerconGradient@@QEAAXXZ ENDP		; BerconGradient::EnableStuff
_TEXT	ENDS
; Function compile flags: /Ogtp
; File g:\dropbox\github\berconmaps\src\bercongradient.cpp
;	COMDAT ?limitRange@BerconGradient@@QEAAHAEAM@Z
_TEXT	SEGMENT
this$ = 8
d$ = 16
?limitRange@BerconGradient@@QEAAHAEAM@Z PROC		; BerconGradient::limitRange, COMDAT

; 1320 : 	d = (d - p_rangeMin) / (p_rangeMax - p_rangeMin);

	vmovss	xmm2, DWORD PTR [rcx+500]
	vmovss	xmm0, DWORD PTR [rdx]
	vmovss	xmm1, DWORD PTR [rcx+504]
	vsubss	xmm3, xmm0, xmm2
	vsubss	xmm2, xmm1, xmm2
	vdivss	xmm4, xmm3, xmm2
	vmovss	DWORD PTR [rdx], xmm4

; 1321 : 	switch (p_rangeLoop) {

	mov	r8d, DWORD PTR [rcx+508]
	test	r8d, r8d
	je	$LN4@limitRange
	sub	r8d, 1
	je	SHORT $LN5@limitRange
	sub	r8d, 1
	je	SHORT $LN7@limitRange
	cmp	r8d, 1
	jne	SHORT $LN13@limitRange
	vxorps	xmm0, xmm0, xmm0
$LN13@limitRange:

; 1325 : 		case 3: {if (d<0||d>1) return FALSE;}		

	xor	eax, eax

; 1326 : 	}
; 1327 : 	return FALSE;
; 1328 : }

	ret	0
$LN7@limitRange:
	vxorps	xmm0, xmm0, xmm0

; 1324 : 		case 2: {D_MIRR(d) return TRUE;}

	vcomiss	xmm0, xmm4
	jbe	SHORT $LN8@limitRange
	vxorps	xmm0, xmm4, DWORD PTR __xmm@80000000800000008000000080000000
	vmovss	DWORD PTR [rdx], xmm0
$LN8@limitRange:
	vmovss	xmm1, DWORD PTR [rdx]
	vcvttss2si eax, xmm1
	test	al, 1
	jne	SHORT $LN9@limitRange
	vxorps	xmm0, xmm0, xmm0
	vcvtsi2ss xmm0, xmm0, eax
	vsubss	xmm1, xmm1, xmm0
	vmovss	DWORD PTR [rdx], xmm1
	mov	eax, 1

; 1326 : 	}
; 1327 : 	return FALSE;
; 1328 : }

	ret	0
$LN9@limitRange:

; 1324 : 		case 2: {D_MIRR(d) return TRUE;}

	vmovss	xmm0, DWORD PTR __real@3f800000
	vsubss	xmm2, xmm0, xmm1
	vxorps	xmm1, xmm1, xmm1
	vcvtsi2ss xmm1, xmm1, eax
	vaddss	xmm2, xmm2, xmm1
	vmovss	DWORD PTR [rdx], xmm2
	mov	eax, 1

; 1326 : 	}
; 1327 : 	return FALSE;
; 1328 : }

	ret	0
$LN5@limitRange:

; 1323 : 		case 1: {D_LOOP(d) return TRUE;}

	vcvttss2si eax, xmm4
	vxorps	xmm0, xmm0, xmm0
	vcvtsi2ss xmm0, xmm0, eax
	vsubss	xmm2, xmm4, xmm0
	vxorps	xmm1, xmm1, xmm1
	vcomiss	xmm1, xmm2
	vmovss	DWORD PTR [rdx], xmm2
	jbe	SHORT $LN4@limitRange
	vaddss	xmm0, xmm2, DWORD PTR __real@3f800000
	vmovss	DWORD PTR [rdx], xmm0
$LN4@limitRange:

; 1322 : 		case 0: return TRUE; // Gradient handles the stretching by itself

	mov	eax, 1

; 1326 : 	}
; 1327 : 	return FALSE;
; 1328 : }

	ret	0
?limitRange@BerconGradient@@QEAAHAEAM@Z ENDP		; BerconGradient::limitRange
_TEXT	ENDS
; Function compile flags: /Ogtp
; File g:\dropbox\github\berconmaps\src\bercongradient.cpp
;	COMDAT ?seedRandomGen@BerconGradient@@QEAAXAEAVShadeContext@@@Z
_TEXT	SEGMENT
$T1 = 32
this$ = 64
sc$ = 72
?seedRandomGen@BerconGradient@@QEAAXAEAVShadeContext@@@Z PROC ; BerconGradient::seedRandomGen, COMDAT

; 1108 : void BerconGradient::seedRandomGen(ShadeContext& sc) {

$LN14:
	mov	QWORD PTR [rsp+24], rbp
	mov	QWORD PTR [rsp+32], rsi
	push	rdi
	sub	rsp, 48					; 00000030H

; 1109 : 	int seed = 1;
; 1110 : 	if (previewMatIDMode) {

	cmp	DWORD PTR [rcx+540], 0
	mov	rsi, rdx
	mov	rbp, rcx
	mov	edi, 1
	je	SHORT $LN2@seedRandom

; 1111 : 		seed = sc.mtlNum;

	mov	edi, DWORD PTR [rdx+28]

; 1112 : 	} else {

	jmp	$LN10@seedRandom
$LN2@seedRandom:

; 1113 : 		if (p_randMat) { 		

	cmp	DWORD PTR [rcx+488], 0
	je	SHORT $LN4@seedRandom

; 1114 : 			seed += sc.mtlNum;

	mov	edi, DWORD PTR [rdx+28]
	inc	edi
$LN4@seedRandom:

; 1115 : 		}
; 1116 : 		if (p_randObj) {

	cmp	DWORD PTR [rcx+484], 0
	mov	QWORD PTR [rsp+64], rbx
	je	SHORT $LN5@seedRandom

; 1117 : 			int hand = 0;
; 1118 : 			if (sc.Node())

	mov	rax, QWORD PTR [rdx]
	mov	rcx, rsi
	xor	ebx, ebx
	call	QWORD PTR [rax+72]
	test	rax, rax
	je	SHORT $LN6@seedRandom

; 1119 : 				hand = (int)sc.Node()->GetHandle();

	mov	rax, QWORD PTR [rsi]
	mov	rcx, rsi
	call	QWORD PTR [rax+72]
	mov	rcx, rax
	mov	rdx, QWORD PTR [rax]
	call	QWORD PTR [rdx+2600]
	mov	ebx, eax
$LN6@seedRandom:

; 1120 : 
; 1121 : 			seed += hand*(hand*hand*15731 + 789221);

	mov	ecx, ebx
	imul	ecx, ebx
	imul	edx, ecx, 15731				; 00003d73H
	add	edx, 789221				; 000c0ae5H
	imul	edx, ebx
	add	edi, edx
$LN5@seedRandom:

; 1122 : 		}
; 1123 : 		if (p_randPar) {

	cmp	DWORD PTR [rbp+492], 0
	je	SHORT $LN9@seedRandom

; 1124 : 			Object *ob = sc.GetEvalObject();		

	mov	rax, QWORD PTR [rsi]
	mov	rcx, rsi
	call	QWORD PTR [rax+80]
	mov	rbx, rax

; 1125 : 			if (ob && ob->IsParticleSystem()) {

	test	rax, rax
	je	SHORT $LN9@seedRandom
	mov	rdx, QWORD PTR [rax]
	mov	rcx, rax
	call	QWORD PTR [rdx+1896]
	test	eax, eax
	je	SHORT $LN9@seedRandom

; 1126 : 				ParticleObject *obj = (ParticleObject*)ob;
; 1127 : 				IChkMtlAPI* chkMtlAPI = static_cast<IChkMtlAPI*>(obj->GetInterface(I_NEWMTLINTERFACE));

	mov	r8, QWORD PTR [rbx]
	mov	edx, 4752				; 00001290H
	mov	rcx, rbx
	mov	QWORD PTR [rsp+72], r14
	call	QWORD PTR [r8+72]
	mov	r14, rax

; 1128 : 				if ((chkMtlAPI && chkMtlAPI->SupportsParticleIDbyFace())) {

	test	rax, rax
	je	SHORT $LN12@seedRandom
	mov	rdx, QWORD PTR [rax]
	mov	rcx, rax
	call	QWORD PTR [rdx]
	test	eax, eax
	je	SHORT $LN12@seedRandom

; 1129 : 					int id = chkMtlAPI->GetParticleFromFace(sc.FaceNumber());

	mov	rdx, QWORD PTR [rsi]
	mov	rcx, rsi
	mov	rbx, QWORD PTR [r14]
	call	QWORD PTR [rdx+96]
	mov	edx, eax
	mov	rcx, r14
	call	QWORD PTR [rbx+8]

; 1130 : 					seed += id*(id*id*571 + 789221);

	mov	ecx, eax
	imul	ecx, eax
	imul	edx, ecx, 571				; 0000023bH
	add	edx, 789221				; 000c0ae5H
	imul	edx, eax
	add	edi, edx
$LN12@seedRandom:
	mov	r14, QWORD PTR [rsp+72]
$LN9@seedRandom:

; 1131 : 				}			
; 1132 : 			}
; 1133 : 		}
; 1134 : 		if (p_randTile) {

	cmp	DWORD PTR [rbp+496], 0
	mov	rbx, QWORD PTR [rsp+64]
	je	SHORT $LN10@seedRandom

; 1135 : 			seed += (int)(sc.UVW(99).z);

	mov	rax, QWORD PTR [rsi]
	lea	rdx, QWORD PTR $T1[rsp]
	mov	r8d, 99					; 00000063H
	mov	rcx, rsi
	call	QWORD PTR [rax+296]
	vcvttss2si ecx, DWORD PTR [rax+8]
	add	edi, ecx
$LN10@seedRandom:

; 1136 : 		}
; 1137 : 	}
; 1138 : 
; 1139 : 	seed *= p_seed;

	imul	edi, DWORD PTR [rbp+476]

; 1140 : 	srand(seed*(seed*seed*15731 + 789221));	

	mov	eax, edi
	imul	eax, edi
	imul	ecx, eax, 15731				; 00003d73H
	add	ecx, 789221				; 000c0ae5H
	imul	ecx, edi

; 1141 : }

	mov	rbp, QWORD PTR [rsp+80]
	mov	rsi, QWORD PTR [rsp+88]
	add	rsp, 48					; 00000030H
	pop	rdi

; 1140 : 	srand(seed*(seed*seed*15731 + 789221));	

	rex_jmp	QWORD PTR __imp_srand
?seedRandomGen@BerconGradient@@QEAAXAEAVShadeContext@@@Z ENDP ; BerconGradient::seedRandomGen
_TEXT	ENDS
; Function compile flags: /Ogtp
; File c:\program files\autodesk\3ds max 2020 sdk\maxsdk\include\3dsmaxdlport.h
;	COMDAT ??$DLSetWindowLongPtr@H@@YAHPEAUHWND__@@HH@Z
_TEXT	SEGMENT
hWnd$ = 8
ptr$ = 16
n$ = 24
??$DLSetWindowLongPtr@H@@YAHPEAUHWND__@@HH@Z PROC	; DLSetWindowLongPtr<int>, COMDAT

; 101  : {

	mov	eax, r8d

; 102  : #if !defined( _WIN64 )
; 103  :    // SetWindowLongPtr() maps to SetWindowLong() in 32 bit land; react accordingly to keep
; 104  :    // the compiler happy, even with /Wp64.
; 105  :    return (Type)(static_cast<LONG_PTR>(::SetWindowLongPtr(hWnd, n, (LONG)((LONG_PTR)(ptr)))));
; 106  : #else
; 107  :    return (Type)(static_cast<LONG_PTR>(::SetWindowLongPtr(hWnd, n, (LONG_PTR)(ptr))));

	movsxd	r8, edx
	mov	edx, eax
	rex_jmp	QWORD PTR __imp_SetWindowLongPtrW
??$DLSetWindowLongPtr@H@@YAHPEAUHWND__@@HH@Z ENDP	; DLSetWindowLongPtr<int>
_TEXT	ENDS
; Function compile flags: /Ogtp
; File c:\program files\autodesk\3ds max 2020 sdk\maxsdk\include\3dsmaxdlport.h
;	COMDAT ??$DLSetWindowLongPtr@PEAVIGradient@@@@YAPEAVIGradient@@PEAUHWND__@@PEAV0@H@Z
_TEXT	SEGMENT
hWnd$ = 8
ptr$ = 16
n$ = 24
??$DLSetWindowLongPtr@PEAVIGradient@@@@YAPEAVIGradient@@PEAUHWND__@@PEAV0@H@Z PROC ; DLSetWindowLongPtr<IGradient * __ptr64>, COMDAT

; 101  : {

	mov	eax, r8d

; 102  : #if !defined( _WIN64 )
; 103  :    // SetWindowLongPtr() maps to SetWindowLong() in 32 bit land; react accordingly to keep
; 104  :    // the compiler happy, even with /Wp64.
; 105  :    return (Type)(static_cast<LONG_PTR>(::SetWindowLongPtr(hWnd, n, (LONG)((LONG_PTR)(ptr)))));
; 106  : #else
; 107  :    return (Type)(static_cast<LONG_PTR>(::SetWindowLongPtr(hWnd, n, (LONG_PTR)(ptr))));

	mov	r8, rdx
	mov	edx, eax
	rex_jmp	QWORD PTR __imp_SetWindowLongPtrW
??$DLSetWindowLongPtr@PEAVIGradient@@@@YAPEAVIGradient@@PEAUHWND__@@PEAV0@H@Z ENDP ; DLSetWindowLongPtr<IGradient * __ptr64>
_TEXT	ENDS
; Function compile flags: /Ogtp
; File g:\dropbox\github\berconmaps\src\igradient.h
; File c:\program files\autodesk\3ds max 2020 sdk\maxsdk\include\3dsmaxdlport.h
; File g:\dropbox\github\berconmaps\src\igradient.h
;	COMDAT ??_GIGradient@@UEAAPEAXI@Z
_TEXT	SEGMENT
$T1 = 32
this$ = 64
__flags$ = 72
??_GIGradient@@UEAAPEAXI@Z PROC				; IGradient::`scalar deleting destructor', COMDAT
$LN16:
	mov	QWORD PTR [rsp+8], rcx
	push	rdi
	sub	rsp, 48					; 00000030H
	mov	QWORD PTR $T1[rsp], -2
	mov	QWORD PTR [rsp+72], rbx
	mov	edi, edx
	mov	rbx, rcx

; 40   : 	~IGradient() {

	lea	rax, OFFSET FLAT:??_7IGradient@@6B@
	mov	QWORD PTR [rcx], rax
; File c:\program files\autodesk\3ds max 2020 sdk\maxsdk\include\3dsmaxdlport.h

; 107  :    return (Type)(static_cast<LONG_PTR>(::SetWindowLongPtr(hWnd, n, (LONG_PTR)(ptr))));

	xor	r8d, r8d
	lea	edx, QWORD PTR [r8-21]
	mov	rcx, QWORD PTR [rcx+8]
	call	QWORD PTR __imp_SetWindowLongPtrW
	npad	1
; File g:\dropbox\github\berconmaps\src\igradient.h

; 42   : 		DestroyWindow(hWndMain);

	mov	rcx, QWORD PTR [rbx+8]
	call	QWORD PTR __imp_DestroyWindow
	npad	1

; 43   : 		hWndMain = NULL;

	xor	eax, eax
	mov	QWORD PTR [rbx+8], rax

; 44   : 		gradient = NULL;

	mov	QWORD PTR [rbx+16], rax
	mov	rcx, rbx
	call	QWORD PTR __imp_??1InterfaceServer@@UEAA@XZ
	npad	1
	test	dil, 1
	je	SHORT $LN15@scalar
	mov	rcx, rbx
	test	dil, 4
	jne	SHORT $LN3@scalar
	call	QWORD PTR __imp_??3MaxHeapOperators@@SAXPEAX@Z
	npad	1
	jmp	SHORT $LN15@scalar
$LN3@scalar:
	mov	edx, 24
	call	?__global_delete@@YAXPEAX_K@Z		; __global_delete
	npad	1
$LN15@scalar:
	mov	rax, rbx
	mov	rbx, QWORD PTR [rsp+72]
	add	rsp, 48					; 00000030H
	pop	rdi
	ret	0
??_GIGradient@@UEAAPEAXI@Z ENDP				; IGradient::`scalar deleting destructor'
_TEXT	ENDS
;	COMDAT text$x
text$x	SEGMENT
$T1 = 32
this$ = 64
__flags$ = 72
?dtor$0@?0???_GIGradient@@UEAAPEAXI@Z@4HA PROC		; `IGradient::`scalar deleting destructor''::`1'::dtor$0
	mov	rcx, QWORD PTR this$[rdx]
	jmp	??1ICustomControl@@UEAA@XZ
?dtor$0@?0???_GIGradient@@UEAAPEAXI@Z@4HA ENDP		; `IGradient::`scalar deleting destructor''::`1'::dtor$0
$T1 = 32
this$ = 64
__flags$ = 72
?dtor$1@?0???_GIGradient@@UEAAPEAXI@Z@4HA PROC		; `IGradient::`scalar deleting destructor''::`1'::dtor$1
	mov	rcx, QWORD PTR this$[rdx]
	rex_jmp	QWORD PTR __imp_??1InterfaceServer@@UEAA@XZ
?dtor$1@?0???_GIGradient@@UEAAPEAXI@Z@4HA ENDP		; `IGradient::`scalar deleting destructor''::`1'::dtor$1
text$x	ENDS
; Function compile flags: /Ogtp
;	COMDAT text$x
text$x	SEGMENT
$T1 = 32
this$ = 64
__flags$ = 72
?dtor$0@?0???_GIGradient@@UEAAPEAXI@Z@4HA PROC		; `IGradient::`scalar deleting destructor''::`1'::dtor$0
	mov	rcx, QWORD PTR this$[rdx]
	jmp	??1ICustomControl@@UEAA@XZ
?dtor$0@?0???_GIGradient@@UEAAPEAXI@Z@4HA ENDP		; `IGradient::`scalar deleting destructor''::`1'::dtor$0
text$x	ENDS
; Function compile flags: /Ogtp
;	COMDAT text$x
text$x	SEGMENT
$T1 = 32
this$ = 64
__flags$ = 72
?dtor$1@?0???_GIGradient@@UEAAPEAXI@Z@4HA PROC		; `IGradient::`scalar deleting destructor''::`1'::dtor$1
	mov	rcx, QWORD PTR this$[rdx]
	rex_jmp	QWORD PTR __imp_??1InterfaceServer@@UEAA@XZ
?dtor$1@?0???_GIGradient@@UEAAPEAXI@Z@4HA ENDP		; `IGradient::`scalar deleting destructor''::`1'::dtor$1
text$x	ENDS
; Function compile flags: /Ogtp
; File g:\dropbox\github\berconmaps\src\igradient.h
;	COMDAT ?Execute@IGradient@@UEAA_JH_K00@Z
_TEXT	SEGMENT
this$ = 8
cmd$ = 16
arg1$ = 24
arg2$ = 32
arg3$ = 40
?Execute@IGradient@@UEAA_JH_K00@Z PROC			; IGradient::Execute, COMDAT

; 68   : 	INT_PTR Execute(int cmd, ULONG_PTR arg1=0, ULONG_PTR arg2=0, ULONG_PTR arg3=0) { return 0; }

	xor	eax, eax
	ret	0
?Execute@IGradient@@UEAA_JH_K00@Z ENDP			; IGradient::Execute
_TEXT	ENDS
; Function compile flags: /Ogtp
; File g:\dropbox\github\berconmaps\src\igradient.h
;	COMDAT ?SetTooltip@IGradient@@UEAAX_NPEB_W@Z
_TEXT	SEGMENT
this$ = 8
bEnable$ = 16
text$ = 24
?SetTooltip@IGradient@@UEAAX_NPEB_W@Z PROC		; IGradient::SetTooltip, COMDAT

; 66   : 	void SetTooltip(bool bEnable, const MCHAR* text) {}

	ret	0
?SetTooltip@IGradient@@UEAAX_NPEB_W@Z ENDP		; IGradient::SetTooltip
_TEXT	ENDS
; Function compile flags: /Ogtp
; File g:\dropbox\github\berconmaps\src\igradient.h
;	COMDAT ?GetHwnd@IGradient@@UEAAPEAUHWND__@@XZ
_TEXT	SEGMENT
this$ = 8
?GetHwnd@IGradient@@UEAAPEAUHWND__@@XZ PROC		; IGradient::GetHwnd, COMDAT

; 63   : 	HWND GetHwnd() { return hWndMain; }

	mov	rax, QWORD PTR [rcx+8]
	ret	0
?GetHwnd@IGradient@@UEAAPEAUHWND__@@XZ ENDP		; IGradient::GetHwnd
_TEXT	ENDS
; Function compile flags: /Ogtp
; File g:\dropbox\github\berconmaps\src\igradient.h
;	COMDAT ?Enable2@IGradient@@UEAAXH@Z
_TEXT	SEGMENT
this$ = 8
cmd$ = 16
?Enable2@IGradient@@UEAAXH@Z PROC			; IGradient::Enable2, COMDAT

; 61   : 	void Enable2(int cmd) {}

	ret	0
?Enable2@IGradient@@UEAAXH@Z ENDP			; IGradient::Enable2
_TEXT	ENDS
; Function compile flags: /Ogtp
; File g:\dropbox\github\berconmaps\src\igradient.h
;	COMDAT ?Enable@IGradient@@UEAAXH@Z
_TEXT	SEGMENT
this$ = 8
cmd$ = 16
?Enable@IGradient@@UEAAXH@Z PROC			; IGradient::Enable, COMDAT

; 59   : 	void Enable(int cmd) {}

	ret	0
?Enable@IGradient@@UEAAXH@Z ENDP			; IGradient::Enable
_TEXT	ENDS
; Function compile flags: /Ogtp
; File g:\dropbox\github\berconmaps\src\igradient.h
;	COMDAT ?IsEnabled@IGradient@@UEAAHXZ
_TEXT	SEGMENT
this$ = 8
?IsEnabled@IGradient@@UEAAHXZ PROC			; IGradient::IsEnabled, COMDAT

; 57   : 	int IsEnabled(){ return TRUE; }

	mov	eax, 1
	ret	0
?IsEnabled@IGradient@@UEAAHXZ ENDP			; IGradient::IsEnabled
_TEXT	ENDS
; Function compile flags: /Ogtp
; File g:\dropbox\github\berconmaps\src\igradient.h
;	COMDAT ?DeleteMe@IGradient@@QEAAXXZ
_TEXT	SEGMENT
this$ = 8
?DeleteMe@IGradient@@QEAAXXZ PROC			; IGradient::DeleteMe, COMDAT

; 55   : 	void DeleteMe() {delete this;}

	test	rcx, rcx
	je	SHORT $LN3@DeleteMe
	mov	rax, QWORD PTR [rcx]
	mov	edx, 1
	rex_jmp	QWORD PTR [rax]
$LN3@DeleteMe:
	ret	0
?DeleteMe@IGradient@@QEAAXXZ ENDP			; IGradient::DeleteMe
_TEXT	ENDS
; Function compile flags: /Ogtp
; File g:\dropbox\github\berconmaps\src\igradient.h
;	COMDAT ?Disable@IGradient@@UEAAXXZ
_TEXT	SEGMENT
this$ = 8
?Disable@IGradient@@UEAAXXZ PROC			; IGradient::Disable, COMDAT

; 53   : 	void Disable() {}

	ret	0
?Disable@IGradient@@UEAAXXZ ENDP			; IGradient::Disable
_TEXT	ENDS
; Function compile flags: /Ogtp
; File g:\dropbox\github\berconmaps\src\igradient.h
;	COMDAT ?setGradient@IGradient@@QEAAXPEAVGradientRamp@@@Z
_TEXT	SEGMENT
this$ = 8
r$ = 16
?setGradient@IGradient@@QEAAXPEAVGradientRamp@@@Z PROC	; IGradient::setGradient, COMDAT

; 47   : 	void setGradient(GradientRamp *r) { gradient = r; } 

	mov	QWORD PTR [rcx+16], rdx
	ret	0
?setGradient@IGradient@@QEAAXPEAVGradientRamp@@@Z ENDP	; IGradient::setGradient
_TEXT	ENDS
; Function compile flags: /Ogtp
; File g:\dropbox\github\berconmaps\src\igradient.h
; File c:\program files\autodesk\3ds max 2020 sdk\maxsdk\include\3dsmaxdlport.h
; File g:\dropbox\github\berconmaps\src\igradient.h
;	COMDAT ??1IGradient@@UEAA@XZ
_TEXT	SEGMENT
$T1 = 32
this$ = 64
??1IGradient@@UEAA@XZ PROC				; IGradient::~IGradient, COMDAT

; 40   : 	~IGradient() {

$LN9:
	mov	QWORD PTR [rsp+8], rcx
	push	rbx
	sub	rsp, 48					; 00000030H
	mov	QWORD PTR $T1[rsp], -2
	mov	rbx, rcx
	lea	rax, OFFSET FLAT:??_7IGradient@@6B@
	mov	QWORD PTR [rcx], rax
; File c:\program files\autodesk\3ds max 2020 sdk\maxsdk\include\3dsmaxdlport.h

; 107  :    return (Type)(static_cast<LONG_PTR>(::SetWindowLongPtr(hWnd, n, (LONG_PTR)(ptr))));

	xor	r8d, r8d
	lea	edx, QWORD PTR [r8-21]
	mov	rcx, QWORD PTR [rcx+8]
	call	QWORD PTR __imp_SetWindowLongPtrW
	npad	1
; File g:\dropbox\github\berconmaps\src\igradient.h

; 42   : 		DestroyWindow(hWndMain);

	mov	rcx, QWORD PTR [rbx+8]
	call	QWORD PTR __imp_DestroyWindow
	npad	1

; 43   : 		hWndMain = NULL;

	xor	eax, eax
	mov	QWORD PTR [rbx+8], rax

; 44   : 		gradient = NULL;

	mov	QWORD PTR [rbx+16], rax
	mov	rcx, rbx

; 45   : 	}

	add	rsp, 48					; 00000030H
	pop	rbx
	rex_jmp	QWORD PTR __imp_??1InterfaceServer@@UEAA@XZ
??1IGradient@@UEAA@XZ ENDP				; IGradient::~IGradient
_TEXT	ENDS
;	COMDAT text$x
text$x	SEGMENT
$T1 = 32
this$ = 64
?dtor$0@?0???1IGradient@@UEAA@XZ@4HA PROC		; `IGradient::~IGradient'::`1'::dtor$0
	mov	rcx, QWORD PTR this$[rdx]
	jmp	??1ICustomControl@@UEAA@XZ
?dtor$0@?0???1IGradient@@UEAA@XZ@4HA ENDP		; `IGradient::~IGradient'::`1'::dtor$0
$T1 = 32
this$ = 64
?dtor$1@?0???1IGradient@@UEAA@XZ@4HA PROC		; `IGradient::~IGradient'::`1'::dtor$1
	mov	rcx, QWORD PTR this$[rdx]
	rex_jmp	QWORD PTR __imp_??1InterfaceServer@@UEAA@XZ
?dtor$1@?0???1IGradient@@UEAA@XZ@4HA ENDP		; `IGradient::~IGradient'::`1'::dtor$1
text$x	ENDS
; Function compile flags: /Ogtp
;	COMDAT text$x
text$x	SEGMENT
$T1 = 32
this$ = 64
?dtor$0@?0???1IGradient@@UEAA@XZ@4HA PROC		; `IGradient::~IGradient'::`1'::dtor$0
	mov	rcx, QWORD PTR this$[rdx]
	jmp	??1ICustomControl@@UEAA@XZ
?dtor$0@?0???1IGradient@@UEAA@XZ@4HA ENDP		; `IGradient::~IGradient'::`1'::dtor$0
text$x	ENDS
; Function compile flags: /Ogtp
;	COMDAT text$x
text$x	SEGMENT
$T1 = 32
this$ = 64
?dtor$1@?0???1IGradient@@UEAA@XZ@4HA PROC		; `IGradient::~IGradient'::`1'::dtor$1
	mov	rcx, QWORD PTR this$[rdx]
	rex_jmp	QWORD PTR __imp_??1InterfaceServer@@UEAA@XZ
?dtor$1@?0???1IGradient@@UEAA@XZ@4HA ENDP		; `IGradient::~IGradient'::`1'::dtor$1
text$x	ENDS
; Function compile flags: /Ogtp
; File g:\dropbox\github\berconmaps\src\igradient.h
; File c:\program files\autodesk\3ds max 2020 sdk\maxsdk\include\3dsmaxdlport.h
; File g:\dropbox\github\berconmaps\src\igradient.h
;	COMDAT ??0IGradient@@QEAA@PEAUHWND__@@PEAVGradientRamp@@@Z
_TEXT	SEGMENT
$T1 = 32
this$ = 64
hwRamp$ = 72
r$ = 80
??0IGradient@@QEAA@PEAUHWND__@@PEAVGradientRamp@@@Z PROC ; IGradient::IGradient, COMDAT

; 33   : 	IGradient(HWND hwRamp, GradientRamp *r) {

$LN13:
	mov	QWORD PTR [rsp+8], rcx
	push	rbx
	sub	rsp, 48					; 00000030H
	mov	QWORD PTR $T1[rsp], -2
	mov	rax, rdx
	mov	rbx, rcx
	lea	rcx, OFFSET FLAT:??_7InterfaceServer@@6B@
	mov	QWORD PTR [rbx], rcx
	lea	rcx, OFFSET FLAT:??_7ICustomControl@@6B@
	mov	QWORD PTR [rbx], rcx
	lea	rcx, OFFSET FLAT:??_7IGradient@@6B@
	mov	QWORD PTR [rbx], rcx

; 34   : 		hWndMain = hwRamp;

	mov	QWORD PTR [rbx+8], rdx

; 35   : 		gradient = r;

	mov	QWORD PTR [rbx+16], r8
; File c:\program files\autodesk\3ds max 2020 sdk\maxsdk\include\3dsmaxdlport.h

; 107  :    return (Type)(static_cast<LONG_PTR>(::SetWindowLongPtr(hWnd, n, (LONG_PTR)(ptr))));

	mov	r8, rbx
	mov	edx, -21
	mov	rcx, rax
	call	QWORD PTR __imp_SetWindowLongPtrW
	npad	1
; File g:\dropbox\github\berconmaps\src\igradient.h

; 38   : 	}

	mov	rax, rbx
	add	rsp, 48					; 00000030H
	pop	rbx
	ret	0
??0IGradient@@QEAA@PEAUHWND__@@PEAVGradientRamp@@@Z ENDP ; IGradient::IGradient
_TEXT	ENDS
;	COMDAT text$x
text$x	SEGMENT
$T1 = 32
this$ = 64
hwRamp$ = 72
r$ = 80
?dtor$1@?0???0IGradient@@QEAA@PEAUHWND__@@PEAVGradientRamp@@@Z@4HA PROC ; `IGradient::IGradient'::`1'::dtor$1
	mov	rcx, QWORD PTR this$[rdx]
	rex_jmp	QWORD PTR __imp_??1InterfaceServer@@UEAA@XZ
?dtor$1@?0???0IGradient@@QEAA@PEAUHWND__@@PEAVGradientRamp@@@Z@4HA ENDP ; `IGradient::IGradient'::`1'::dtor$1
$T1 = 32
this$ = 64
hwRamp$ = 72
r$ = 80
?dtor$0@?0???0IGradient@@QEAA@PEAUHWND__@@PEAVGradientRamp@@@Z@4HA PROC ; `IGradient::IGradient'::`1'::dtor$0
	mov	rcx, QWORD PTR this$[rdx]
	jmp	??1ICustomControl@@UEAA@XZ
?dtor$0@?0???0IGradient@@QEAA@PEAUHWND__@@PEAVGradientRamp@@@Z@4HA ENDP ; `IGradient::IGradient'::`1'::dtor$0
text$x	ENDS
; Function compile flags: /Ogtp
;	COMDAT text$x
text$x	SEGMENT
$T1 = 32
this$ = 64
hwRamp$ = 72
r$ = 80
?dtor$1@?0???0IGradient@@QEAA@PEAUHWND__@@PEAVGradientRamp@@@Z@4HA PROC ; `IGradient::IGradient'::`1'::dtor$1
	mov	rcx, QWORD PTR this$[rdx]
	rex_jmp	QWORD PTR __imp_??1InterfaceServer@@UEAA@XZ
?dtor$1@?0???0IGradient@@QEAA@PEAUHWND__@@PEAVGradientRamp@@@Z@4HA ENDP ; `IGradient::IGradient'::`1'::dtor$1
text$x	ENDS
; Function compile flags: /Ogtp
;	COMDAT text$x
text$x	SEGMENT
$T1 = 32
this$ = 64
hwRamp$ = 72
r$ = 80
?dtor$0@?0???0IGradient@@QEAA@PEAUHWND__@@PEAVGradientRamp@@@Z@4HA PROC ; `IGradient::IGradient'::`1'::dtor$0
	mov	rcx, QWORD PTR this$[rdx]
	jmp	??1ICustomControl@@UEAA@XZ
?dtor$0@?0???0IGradient@@QEAA@PEAUHWND__@@PEAVGradientRamp@@@Z@4HA ENDP ; `IGradient::IGradient'::`1'::dtor$0
text$x	ENDS
; Function compile flags: /Ogtp
; File g:\dropbox\github\berconmaps\src\gradientramp.h
;	COMDAT ??_GGradientRamp@@QEAAPEAXI@Z
_TEXT	SEGMENT
this$ = 48
__flags$ = 56
??_GGradientRamp@@QEAAPEAXI@Z PROC			; GradientRamp::`scalar deleting destructor', COMDAT
$LN8:
	mov	QWORD PTR [rsp+8], rbx
	push	rdi
	sub	rsp, 32					; 00000020H
	mov	rdi, rcx
	mov	ebx, edx

; 73   : 		delete[] subtex;

	mov	rcx, QWORD PTR [rcx+24]
	call	??_V@YAXPEAX@Z				; operator delete[]

; 74   : 		delete[] position;

	mov	rcx, QWORD PTR [rdi+32]
	call	??_V@YAXPEAX@Z				; operator delete[]

; 75   : 		delete[] color;

	mov	rcx, QWORD PTR [rdi+40]
	call	QWORD PTR __imp_??_VMaxHeapOperators@@SAXPEAX@Z

; 76   : 		delete[] number;	

	mov	rcx, QWORD PTR [rdi+48]
	call	??_V@YAXPEAX@Z				; operator delete[]
	test	bl, 1
	je	SHORT $LN6@scalar
	mov	edx, 72					; 00000048H
	mov	rcx, rdi
	call	??3@YAXPEAX_K@Z				; operator delete
$LN6@scalar:
	mov	rax, rdi
	mov	rbx, QWORD PTR [rsp+48]
	add	rsp, 32					; 00000020H
	pop	rdi
	ret	0
??_GGradientRamp@@QEAAPEAXI@Z ENDP			; GradientRamp::`scalar deleting destructor'
_TEXT	ENDS
; Function compile flags: /Ogtp
; File g:\dropbox\github\berconmaps\src\gradientramp.h
;	COMDAT ?numKeys@GradientRamp@@QEAAHXZ
_TEXT	SEGMENT
this$ = 8
?numKeys@GradientRamp@@QEAAHXZ PROC			; GradientRamp::numKeys, COMDAT

; 107  : 	int numKeys() { return keys; }

	mov	eax, DWORD PTR [rcx+56]
	ret	0
?numKeys@GradientRamp@@QEAAHXZ ENDP			; GradientRamp::numKeys
_TEXT	ENDS
; Function compile flags: /Ogtp
; File g:\dropbox\github\berconmaps\src\gradientramp.h
;	COMDAT ??1GradientRamp@@QEAA@XZ
_TEXT	SEGMENT
this$ = 48
??1GradientRamp@@QEAA@XZ PROC				; GradientRamp::~GradientRamp, COMDAT

; 72   : 	~GradientRamp() {

$LN4:
	push	rbx
	sub	rsp, 32					; 00000020H
	mov	rbx, rcx

; 73   : 		delete[] subtex;

	mov	rcx, QWORD PTR [rcx+24]
	call	??_V@YAXPEAX@Z				; operator delete[]

; 74   : 		delete[] position;

	mov	rcx, QWORD PTR [rbx+32]
	call	??_V@YAXPEAX@Z				; operator delete[]

; 75   : 		delete[] color;

	mov	rcx, QWORD PTR [rbx+40]
	call	QWORD PTR __imp_??_VMaxHeapOperators@@SAXPEAX@Z

; 76   : 		delete[] number;	

	mov	rcx, QWORD PTR [rbx+48]

; 77   : 	}

	add	rsp, 32					; 00000020H
	pop	rbx

; 76   : 		delete[] number;	

	jmp	??_V@YAXPEAX@Z				; operator delete[]
??1GradientRamp@@QEAA@XZ ENDP				; GradientRamp::~GradientRamp
_TEXT	ENDS
; Function compile flags: /Ogtp
; File g:\dropbox\github\berconmaps\src\gradientramp.h
;	COMDAT ??0GradientRamp@@QEAA@PEAVGradientMap@@@Z
_TEXT	SEGMENT
this$ = 48
p$ = 56
??0GradientRamp@@QEAA@PEAVGradientMap@@@Z PROC		; GradientRamp::GradientRamp, COMDAT

; 58   : 	GradientRamp(GradientMap* p) {		

$LN4:
	push	rbx
	sub	rsp, 32					; 00000020H

; 59   : 		m_hWnd = NULL;

	xor	eax, eax

; 60   : 		parent = p;

	mov	QWORD PTR [rcx+8], rdx
	mov	QWORD PTR [rcx], rax
	mov	rbx, rcx

; 61   : 		selected = 0;

	mov	QWORD PTR [rcx+64], rax

; 62   : 		interpolation = 0;
; 63   : 		keys = 0;

	mov	DWORD PTR [rcx+56], eax

; 64   : 		subtex = NULL;

	mov	QWORD PTR [rcx+24], rax

; 65   : 		position = NULL;

	mov	QWORD PTR [rcx+32], rax

; 66   : 		color = NULL;

	mov	QWORD PTR [rcx+40], rax

; 67   : 		number = NULL;		

	mov	QWORD PTR [rcx+48], rax

; 68   : 		reset();

	call	?reset@GradientRamp@@QEAAXXZ		; GradientRamp::reset

; 69   : 		sort();		

	mov	rcx, rbx
	call	?sort@GradientRamp@@QEAAXXZ		; GradientRamp::sort

; 70   : 	}

	mov	rax, rbx
	add	rsp, 32					; 00000020H
	pop	rbx
	ret	0
??0GradientRamp@@QEAA@PEAVGradientMap@@@Z ENDP		; GradientRamp::GradientRamp
_TEXT	ENDS
; Function compile flags: /Ogtp
;	COMDAT ??0GradientMap@@QEAA@XZ
_TEXT	SEGMENT
this$ = 8
??0GradientMap@@QEAA@XZ PROC				; GradientMap::GradientMap, COMDAT
	lea	rax, OFFSET FLAT:??_7GradientMap@@6B@
	mov	QWORD PTR [rcx], rax
	mov	rax, rcx
	ret	0
??0GradientMap@@QEAA@XZ ENDP				; GradientMap::GradientMap
_TEXT	ENDS
; Function compile flags: /Ogtp
; File g:\dropbox\github\berconmaps\src\berconcommon.h
;	COMDAT ?map@BerconXYZ@@QEAAXHAEAVBitArray@@0@Z
_TEXT	SEGMENT
this$ = 8
subMtlNum$ = 16
mapreq$ = 24
bumpreq$ = 32
?map@BerconXYZ@@QEAAXHAEAVBitArray@@0@Z PROC		; BerconXYZ::map, COMDAT

; 354  : 	void map(int subMtlNum, BitArray& mapreq, BitArray& bumpreq) { if (mappingType==0 || mappingType==1) mapreq.Set(mappingChannel); }	

	cmp	DWORD PTR [rcx], 1
	ja	SHORT $LN2@map
	mov	edx, DWORD PTR [rcx+4]
	mov	rcx, r8
	jmp	?Set@BitArray@@QEAAXH@Z			; BitArray::Set
$LN2@map:
	ret	0
?map@BerconXYZ@@QEAAXHAEAVBitArray@@0@Z ENDP		; BerconXYZ::map
_TEXT	ENDS
; Function compile flags: /Ogtp
; File g:\dropbox\github\berconmaps\src\berconcommon.h
;	COMDAT ?req@BerconXYZ@@QEAAKXZ
_TEXT	SEGMENT
this$ = 8
?req@BerconXYZ@@QEAAKXZ PROC				; BerconXYZ::req, COMDAT

; 353  : 	ULONG req() { if (mappingType==0 || mappingType==1) return MTLREQ_UV; return 0; };

	xor	edx, edx
	mov	eax, 16
	cmp	DWORD PTR [rcx], 1
	cmova	eax, edx
	ret	0
?req@BerconXYZ@@QEAAKXZ ENDP				; BerconXYZ::req
_TEXT	ENDS
; Function compile flags: /Ogtp
; File g:\dropbox\github\berconmaps\src\berconcommon.h
;	COMDAT ??1BerconXYZ@@QEAA@XZ
_TEXT	SEGMENT
this$ = 8
??1BerconXYZ@@QEAA@XZ PROC				; BerconXYZ::~BerconXYZ, COMDAT

; 351  : 	~BerconXYZ() {}

	ret	0
??1BerconXYZ@@QEAA@XZ ENDP				; BerconXYZ::~BerconXYZ
_TEXT	ENDS
; Function compile flags: /Ogtp
; File g:\dropbox\github\berconmaps\src\berconcommon.h
; File c:\program files\autodesk\3ds max 2020 sdk\maxsdk\include\matrix3.h
; File g:\dropbox\github\berconmaps\src\berconcommon.h
; File c:\program files\autodesk\3ds max 2020 sdk\maxsdk\include\matrix3.h
; File g:\dropbox\github\berconmaps\src\berconcommon.h
;	COMDAT ??0BerconXYZ@@QEAA@XZ
_TEXT	SEGMENT
this$ = 48
??0BerconXYZ@@QEAA@XZ PROC				; BerconXYZ::BerconXYZ, COMDAT

; 350  : 	BerconXYZ() {offX=0; offY=0; offZ=0; mode2D = FALSE; update();}

$LN17:
	mov	QWORD PTR [rsp+8], rbx
	mov	QWORD PTR [rsp+16], rsi
	push	rdi
	sub	rsp, 32					; 00000020H
	mov	rsi, rcx

; 341  : 	bool variance;

	lea	rdi, QWORD PTR [rcx+120]
	mov	ebx, 3
	npad	5
$LL4@BerconXYZ:
	mov	rcx, rdi
	call	QWORD PTR __imp_??0Point3@@QEAA@XZ
	add	rdi, 12
	sub	rbx, 1
	jne	SHORT $LL4@BerconXYZ
; File c:\program files\autodesk\3ds max 2020 sdk\maxsdk\include\matrix3.h

; 172  :    Matrix3(){ flags = 0; }

	xor	eax, eax
; File g:\dropbox\github\berconmaps\src\berconcommon.h

; 350  : 	BerconXYZ() {offX=0; offY=0; offZ=0; mode2D = FALSE; update();}

	mov	rcx, rsi
; File c:\program files\autodesk\3ds max 2020 sdk\maxsdk\include\matrix3.h

; 172  :    Matrix3(){ flags = 0; }

	mov	DWORD PTR [rsi+204], eax
	mov	QWORD PTR [rsi+256], rax
; File g:\dropbox\github\berconmaps\src\berconcommon.h

; 350  : 	BerconXYZ() {offX=0; offY=0; offZ=0; mode2D = FALSE; update();}

	mov	QWORD PTR [rsi+8], rax
	mov	DWORD PTR [rsi+16], eax
	call	?update@BerconXYZ@@QEAAXXZ		; BerconXYZ::update
	mov	rbx, QWORD PTR [rsp+48]
	mov	rax, rsi
	mov	rsi, QWORD PTR [rsp+56]
	add	rsp, 32					; 00000020H
	pop	rdi
	ret	0
??0BerconXYZ@@QEAA@XZ ENDP				; BerconXYZ::BerconXYZ
_TEXT	ENDS
; Function compile flags: /Ogtp
; File c:\program files\autodesk\3ds max 2020 sdk\maxsdk\include\iparamm2.h
;	COMDAT ??_GBerconXYZDlgProc@@UEAAPEAXI@Z
_TEXT	SEGMENT
$T1 = 32
this$ = 64
__flags$ = 72
??_GBerconXYZDlgProc@@UEAAPEAXI@Z PROC			; BerconXYZDlgProc::`scalar deleting destructor', COMDAT
$LN13:
	mov	QWORD PTR [rsp+8], rcx
	push	rbx
	sub	rsp, 48					; 00000030H
	mov	QWORD PTR $T1[rsp], -2
	mov	rbx, rcx

; 59   : 		virtual ~ParamMap2UserDlgProc() { }

	lea	rax, OFFSET FLAT:??_7ParamMap2UserDlgProc@@6B@
	mov	QWORD PTR [rcx], rax
	test	dl, 1
	je	SHORT $LN12@scalar
	test	dl, 4
	jne	SHORT $LN3@scalar
	call	QWORD PTR __imp_??3MaxHeapOperators@@SAXPEAX@Z
	npad	1
	jmp	SHORT $LN12@scalar
$LN3@scalar:
	mov	edx, 16
	call	?__global_delete@@YAXPEAX_K@Z		; __global_delete
	npad	1
$LN12@scalar:
	mov	rax, rbx
	add	rsp, 48					; 00000030H
	pop	rbx
	ret	0
??_GBerconXYZDlgProc@@UEAAPEAXI@Z ENDP			; BerconXYZDlgProc::`scalar deleting destructor'
_TEXT	ENDS
;	COMDAT text$x
text$x	SEGMENT
$T1 = 32
this$ = 64
__flags$ = 72
?dtor$0@?0???_GBerconXYZDlgProc@@UEAAPEAXI@Z@4HA PROC	; `BerconXYZDlgProc::`scalar deleting destructor''::`1'::dtor$0
	mov	rcx, QWORD PTR this$[rdx]
	jmp	??1ParamMap2UserDlgProc@@UEAA@XZ	; ParamMap2UserDlgProc::~ParamMap2UserDlgProc
?dtor$0@?0???_GBerconXYZDlgProc@@UEAAPEAXI@Z@4HA ENDP	; `BerconXYZDlgProc::`scalar deleting destructor''::`1'::dtor$0
text$x	ENDS
; Function compile flags: /Ogtp
;	COMDAT text$x
text$x	SEGMENT
$T1 = 32
this$ = 64
__flags$ = 72
?dtor$0@?0???_GBerconXYZDlgProc@@UEAAPEAXI@Z@4HA PROC	; `BerconXYZDlgProc::`scalar deleting destructor''::`1'::dtor$0
	mov	rcx, QWORD PTR this$[rdx]
	jmp	??1ParamMap2UserDlgProc@@UEAA@XZ	; ParamMap2UserDlgProc::~ParamMap2UserDlgProc
?dtor$0@?0???_GBerconXYZDlgProc@@UEAAPEAXI@Z@4HA ENDP	; `BerconXYZDlgProc::`scalar deleting destructor''::`1'::dtor$0
text$x	ENDS
; Function compile flags: /Ogtp
; File c:\program files\autodesk\3ds max 2020 sdk\maxsdk\include\iparamm2.h
;	COMDAT ??1BerconXYZDlgProc@@UEAA@XZ
_TEXT	SEGMENT
$T1 = 0
this$ = 32
??1BerconXYZDlgProc@@UEAA@XZ PROC			; BerconXYZDlgProc::~BerconXYZDlgProc, COMDAT
$LN6:
	mov	QWORD PTR [rsp+8], rcx
	sub	rsp, 24
	mov	QWORD PTR $T1[rsp], -2

; 59   : 		virtual ~ParamMap2UserDlgProc() { }

	lea	rax, OFFSET FLAT:??_7ParamMap2UserDlgProc@@6B@
	mov	QWORD PTR [rcx], rax
	add	rsp, 24
	ret	0
??1BerconXYZDlgProc@@UEAA@XZ ENDP			; BerconXYZDlgProc::~BerconXYZDlgProc
_TEXT	ENDS
;	COMDAT text$x
text$x	SEGMENT
$T1 = 0
this$ = 32
?dtor$0@?0???1BerconXYZDlgProc@@UEAA@XZ@4HA PROC	; `BerconXYZDlgProc::~BerconXYZDlgProc'::`1'::dtor$0
	mov	rcx, QWORD PTR this$[rdx]
	jmp	??1ParamMap2UserDlgProc@@UEAA@XZ	; ParamMap2UserDlgProc::~ParamMap2UserDlgProc
?dtor$0@?0???1BerconXYZDlgProc@@UEAA@XZ@4HA ENDP	; `BerconXYZDlgProc::~BerconXYZDlgProc'::`1'::dtor$0
text$x	ENDS
; Function compile flags: /Ogtp
;	COMDAT text$x
text$x	SEGMENT
$T1 = 0
this$ = 32
?dtor$0@?0???1BerconXYZDlgProc@@UEAA@XZ@4HA PROC	; `BerconXYZDlgProc::~BerconXYZDlgProc'::`1'::dtor$0
	mov	rcx, QWORD PTR this$[rdx]
	jmp	??1ParamMap2UserDlgProc@@UEAA@XZ	; ParamMap2UserDlgProc::~ParamMap2UserDlgProc
?dtor$0@?0???1BerconXYZDlgProc@@UEAA@XZ@4HA ENDP	; `BerconXYZDlgProc::~BerconXYZDlgProc'::`1'::dtor$0
text$x	ENDS
; Function compile flags: /Ogtp
; File g:\dropbox\github\berconmaps\src\berconcommon.h
;	COMDAT ?SetThing@BerconXYZDlgProc@@UEAAXPEAVReferenceTarget@@@Z
_TEXT	SEGMENT
this$ = 8
m$ = 16
?SetThing@BerconXYZDlgProc@@UEAAXPEAVReferenceTarget@@@Z PROC ; BerconXYZDlgProc::SetThing, COMDAT

; 323  : 		void SetThing(ReferenceTarget *m) { reftarg = m; }

	mov	QWORD PTR [rcx+8], rdx
	ret	0
?SetThing@BerconXYZDlgProc@@UEAAXPEAVReferenceTarget@@@Z ENDP ; BerconXYZDlgProc::SetThing
_TEXT	ENDS
; Function compile flags: /Ogtp
; File g:\dropbox\github\berconmaps\src\berconcommon.h
;	COMDAT ?DeleteThis@BerconXYZDlgProc@@UEAAXXZ
_TEXT	SEGMENT
this$ = 8
?DeleteThis@BerconXYZDlgProc@@UEAAXXZ PROC		; BerconXYZDlgProc::DeleteThis, COMDAT

; 322  : 		void DeleteThis() {delete this;}

	test	rcx, rcx
	je	SHORT $LN3@DeleteThis
	mov	rax, QWORD PTR [rcx]
	mov	edx, 1
	rex_jmp	QWORD PTR [rax]
$LN3@DeleteThis:
	ret	0
?DeleteThis@BerconXYZDlgProc@@UEAAXXZ ENDP		; BerconXYZDlgProc::DeleteThis
_TEXT	ENDS
; Function compile flags: /Ogtp
; File g:\dropbox\github\berconmaps\src\berconcommon.h
;	COMDAT ?DlgProc@BerconXYZDlgProc@@UEAA_JHPEAVIParamMap2@@PEAUHWND__@@I_K_J@Z
_TEXT	SEGMENT
$T1 = 48
$T2 = 48
$T3 = 48
$T4 = 48
this$ = 96
t$ = 104
map$ = 112
hWnd$ = 120
curIndex$5 = 128
msg$ = 128
wParam$ = 136
lParam$ = 144
?DlgProc@BerconXYZDlgProc@@UEAA_JHPEAVIParamMap2@@PEAUHWND__@@I_K_J@Z PROC ; BerconXYZDlgProc::DlgProc, COMDAT

; 266  : 		INT_PTR DlgProc(TimeValue t,IParamMap2 *map,HWND hWnd,UINT msg,WPARAM wParam,LPARAM lParam) {

$LN9:
	mov	QWORD PTR [rsp+24], rbx
	push	rbp
	push	rsi
	push	r14
	sub	rsp, 64					; 00000040H

; 267  : 			HWND hwndMap;
; 268  : 			ICustButton* custButton;
; 269  : 			switch (msg) {

	mov	eax, DWORD PTR msg$[rsp]
	mov	rbp, r9
	mov	rsi, r8
	mov	r14d, edx
	cmp	eax, 24
	je	$LN5@DlgProc
	cmp	eax, 272				; 00000110H
	je	SHORT $LN4@DlgProc

; 316  : 					break;
; 317  : 				case WM_DESTROY:			
; 318  : 				default: return FALSE;

	xor	eax, eax

; 321  : 		}

	mov	rbx, QWORD PTR [rsp+112]
	add	rsp, 64					; 00000040H
	pop	r14
	pop	rsi
	pop	rbp
	ret	0
$LN4@DlgProc:

; 270  : 				case WM_INITDIALOG:
; 271  : 					custButton = GetICustButton(GetDlgItem(hWnd, IDC_LOCK));

	mov	edx, 1115				; 0000045bH
	mov	rcx, rbp
	call	QWORD PTR __imp_GetDlgItem
	mov	rcx, rax
	call	QWORD PTR __imp_?GetICustButton@@YAPEAVICustButton@@PEAUHWND__@@@Z

; 272  : 					custButton->SetText(_M("L"));

	lea	rdx, OFFSET FLAT:??_C@_13PHJMHGG@?$AAL?$AA?$AA@
	mov	rcx, rax
	mov	rbx, rax
	mov	r8, QWORD PTR [rax]
	call	QWORD PTR [r8+88]

; 273  : 					ReleaseICustButton(custButton);

	mov	rcx, rbx
	call	QWORD PTR __imp_?ReleaseICustButton@@YAXPEAVICustButton@@@Z

; 274  : 
; 275  : 					// UVW
; 276  : 					hwndMap = GetDlgItem(hWnd, IDC_TYPE);  

	mov	edx, 1018				; 000003faH
	mov	rcx, rbp
	call	QWORD PTR __imp_GetDlgItem

; 277  : 					SendMessage(hwndMap, CB_ADDSTRING, 0, (LPARAM)GetString(IDS_XYZ_UVW));

	mov	ecx, 217				; 000000d9H
	mov	rbx, rax
	call	?GetString@@YAPEA_WH@Z			; GetString
	mov	r9, rax
	xor	r8d, r8d
	mov	edx, 323				; 00000143H
	mov	rcx, rbx
	call	QWORD PTR __imp_SendMessageW

; 278  : 					SendMessage(hwndMap, CB_ADDSTRING, 0, (LPARAM)GetString(IDS_XYZ_UVW2));

	mov	ecx, 222				; 000000deH
	call	?GetString@@YAPEA_WH@Z			; GetString
	mov	r9, rax
	xor	r8d, r8d
	mov	edx, 323				; 00000143H
	mov	rcx, rbx
	call	QWORD PTR __imp_SendMessageW

; 279  : 					SendMessage(hwndMap, CB_ADDSTRING, 0, (LPARAM)GetString(IDS_XYZ_OBJ));

	mov	ecx, 218				; 000000daH
	call	?GetString@@YAPEA_WH@Z			; GetString
	mov	r9, rax
	xor	r8d, r8d
	mov	edx, 323				; 00000143H
	mov	rcx, rbx
	call	QWORD PTR __imp_SendMessageW

; 280  : 					SendMessage(hwndMap, CB_ADDSTRING, 0, (LPARAM)GetString(IDS_XYZ_WOR));

	mov	ecx, 219				; 000000dbH
	call	?GetString@@YAPEA_WH@Z			; GetString
	mov	r9, rax
	xor	r8d, r8d
	mov	edx, 323				; 00000143H
	mov	rcx, rbx
	call	QWORD PTR __imp_SendMessageW

; 281  : 					SendMessage(hwndMap, CB_ADDSTRING, 0, (LPARAM)GetString(IDS_XYZ_SCR));

	mov	ecx, 220				; 000000dcH
	call	?GetString@@YAPEA_WH@Z			; GetString
	mov	r9, rax
	xor	r8d, r8d
	mov	edx, 323				; 00000143H
	mov	rcx, rbx
	call	QWORD PTR __imp_SendMessageW

; 282  : 
; 283  : 					hwndMap = GetDlgItem(hWnd, IDC_TIL_X);  

	mov	edx, 1065				; 00000429H
	mov	rcx, rbp
	call	QWORD PTR __imp_GetDlgItem

; 284  : 					SendMessage(hwndMap, CB_ADDSTRING, 0, (LPARAM)GetString(IDS_LOOP_CONT));

	mov	ecx, 221				; 000000ddH
	mov	rbx, rax
	call	?GetString@@YAPEA_WH@Z			; GetString
	mov	r9, rax
	xor	r8d, r8d
	mov	edx, 323				; 00000143H
	mov	rcx, rbx
	call	QWORD PTR __imp_SendMessageW

; 285  : 					SendMessage(hwndMap, CB_ADDSTRING, 0, (LPARAM)GetString(IDS_LOOP_STRETCH));

	mov	ecx, 184				; 000000b8H
	call	?GetString@@YAPEA_WH@Z			; GetString
	mov	r9, rax
	xor	r8d, r8d
	mov	edx, 323				; 00000143H
	mov	rcx, rbx
	call	QWORD PTR __imp_SendMessageW

; 286  : 					SendMessage(hwndMap, CB_ADDSTRING, 0, (LPARAM)GetString(IDS_LOOP_TILE));

	mov	ecx, 185				; 000000b9H
	call	?GetString@@YAPEA_WH@Z			; GetString
	mov	r9, rax
	xor	r8d, r8d
	mov	edx, 323				; 00000143H
	mov	rcx, rbx
	call	QWORD PTR __imp_SendMessageW

; 287  : 					SendMessage(hwndMap, CB_ADDSTRING, 0, (LPARAM)GetString(IDS_LOOP_MIRROR));

	mov	ecx, 186				; 000000baH
	call	?GetString@@YAPEA_WH@Z			; GetString
	mov	r9, rax
	xor	r8d, r8d
	mov	edx, 323				; 00000143H
	mov	rcx, rbx
	call	QWORD PTR __imp_SendMessageW

; 288  : 					SendMessage(hwndMap, CB_ADDSTRING, 0, (LPARAM)GetString(IDS_LOOP_NONE));

	mov	ecx, 187				; 000000bbH
	call	?GetString@@YAPEA_WH@Z			; GetString
	mov	r9, rax
	xor	r8d, r8d
	mov	edx, 323				; 00000143H
	mov	rcx, rbx
	call	QWORD PTR __imp_SendMessageW

; 289  : 
; 290  : 					hwndMap = GetDlgItem(hWnd, IDC_TIL_Y);  

	mov	edx, 1066				; 0000042aH
	mov	rcx, rbp
	call	QWORD PTR __imp_GetDlgItem

; 291  : 					SendMessage(hwndMap, CB_ADDSTRING, 0, (LPARAM)GetString(IDS_LOOP_CONT));

	mov	ecx, 221				; 000000ddH
	mov	rbx, rax
	call	?GetString@@YAPEA_WH@Z			; GetString
	mov	r9, rax
	xor	r8d, r8d
	mov	edx, 323				; 00000143H
	mov	rcx, rbx
	call	QWORD PTR __imp_SendMessageW

; 292  : 					SendMessage(hwndMap, CB_ADDSTRING, 0, (LPARAM)GetString(IDS_LOOP_STRETCH));

	mov	ecx, 184				; 000000b8H
	call	?GetString@@YAPEA_WH@Z			; GetString
	mov	r9, rax
	xor	r8d, r8d
	mov	edx, 323				; 00000143H
	mov	rcx, rbx
	call	QWORD PTR __imp_SendMessageW

; 293  : 					SendMessage(hwndMap, CB_ADDSTRING, 0, (LPARAM)GetString(IDS_LOOP_TILE));

	mov	ecx, 185				; 000000b9H
	call	?GetString@@YAPEA_WH@Z			; GetString
	mov	r9, rax
	xor	r8d, r8d
	mov	edx, 323				; 00000143H
	mov	rcx, rbx
	call	QWORD PTR __imp_SendMessageW

; 294  : 					SendMessage(hwndMap, CB_ADDSTRING, 0, (LPARAM)GetString(IDS_LOOP_MIRROR));

	mov	ecx, 186				; 000000baH
	call	?GetString@@YAPEA_WH@Z			; GetString
	mov	r9, rax
	xor	r8d, r8d
	mov	edx, 323				; 00000143H
	mov	rcx, rbx
	call	QWORD PTR __imp_SendMessageW

; 295  : 					SendMessage(hwndMap, CB_ADDSTRING, 0, (LPARAM)GetString(IDS_LOOP_NONE));

	mov	ecx, 187				; 000000bbH
	call	?GetString@@YAPEA_WH@Z			; GetString
	mov	r9, rax
	xor	r8d, r8d
	mov	edx, 323				; 00000143H
	mov	rcx, rbx
	call	QWORD PTR __imp_SendMessageW

; 296  : 
; 297  : 					hwndMap = GetDlgItem(hWnd, IDC_TIL_Z);

	mov	edx, 1071				; 0000042fH
	mov	rcx, rbp
	call	QWORD PTR __imp_GetDlgItem

; 298  : 					SendMessage(hwndMap, CB_ADDSTRING, 0, (LPARAM)GetString(IDS_LOOP_CONT));

	mov	ecx, 221				; 000000ddH
	mov	rbx, rax
	call	?GetString@@YAPEA_WH@Z			; GetString
	mov	r9, rax
	xor	r8d, r8d
	mov	edx, 323				; 00000143H
	mov	rcx, rbx
	call	QWORD PTR __imp_SendMessageW

; 299  : 					SendMessage(hwndMap, CB_ADDSTRING, 0, (LPARAM)GetString(IDS_LOOP_STRETCH));

	mov	ecx, 184				; 000000b8H
	call	?GetString@@YAPEA_WH@Z			; GetString
	mov	r9, rax
	xor	r8d, r8d
	mov	edx, 323				; 00000143H
	mov	rcx, rbx
	call	QWORD PTR __imp_SendMessageW

; 300  : 					SendMessage(hwndMap, CB_ADDSTRING, 0, (LPARAM)GetString(IDS_LOOP_TILE));

	mov	ecx, 185				; 000000b9H
	call	?GetString@@YAPEA_WH@Z			; GetString
	mov	r9, rax
	xor	r8d, r8d
	mov	edx, 323				; 00000143H
	mov	rcx, rbx
	call	QWORD PTR __imp_SendMessageW

; 301  : 					SendMessage(hwndMap, CB_ADDSTRING, 0, (LPARAM)GetString(IDS_LOOP_MIRROR));

	mov	ecx, 186				; 000000baH
	call	?GetString@@YAPEA_WH@Z			; GetString
	mov	r9, rax
	xor	r8d, r8d
	mov	edx, 323				; 00000143H
	mov	rcx, rbx
	call	QWORD PTR __imp_SendMessageW

; 302  : 					SendMessage(hwndMap, CB_ADDSTRING, 0, (LPARAM)GetString(IDS_LOOP_NONE));

	mov	ecx, 187				; 000000bbH
	call	?GetString@@YAPEA_WH@Z			; GetString
	mov	r9, rax
	xor	r8d, r8d
	mov	edx, 323				; 00000143H
	mov	rcx, rbx
	call	QWORD PTR __imp_SendMessageW
$LN5@DlgProc:

; 303  : 
; 304  : 					// NO BREAK HERE, WE WANT TO UPDATE DROPDOWN VALUES TOO
; 305  : 				case WM_SHOWWINDOW: 
; 306  : 					// Set correct dropdown value
; 307  : 					int curIndex;
; 308  : 					map->GetParamBlock()->GetValue(xyz_map, t, curIndex, FOREVER);

	mov	rax, QWORD PTR [rsi]
	mov	rcx, rsi
	mov	QWORD PTR [rsp+96], rdi
	mov	QWORD PTR [rsp+104], r15
	call	QWORD PTR [rax+136]
	mov	edx, -2147483648			; ffffffff80000000H
	lea	rcx, QWORD PTR $T4[rsp]
	mov	r8d, 2147483647				; 7fffffffH
	mov	rbx, rax
	mov	rdi, QWORD PTR [rax]
	call	QWORD PTR __imp_??0Interval@@QEAA@HH@Z
	xor	r15d, r15d
	lea	r9, QWORD PTR curIndex$5[rsp]
	mov	DWORD PTR [rsp+40], r15d
	xor	edx, edx
	mov	r8d, r14d
	mov	QWORD PTR [rsp+32], rax
	mov	rcx, rbx
	call	QWORD PTR [rdi+1704]

; 309  : 					SendMessage(GetDlgItem(hWnd, IDC_TYPE), CB_SETCURSEL, (WPARAM)curIndex, 0);

	movsxd	rbx, DWORD PTR curIndex$5[rsp]
	mov	edx, 1018				; 000003faH
	mov	rcx, rbp
	call	QWORD PTR __imp_GetDlgItem
	xor	r9d, r9d
	mov	r8, rbx
	mov	rcx, rax
	mov	edx, 334				; 0000014eH
	call	QWORD PTR __imp_SendMessageW

; 310  : 					map->GetParamBlock()->GetValue(xyz_tile_x, t, curIndex, FOREVER);

	mov	rax, QWORD PTR [rsi]
	mov	rcx, rsi
	call	QWORD PTR [rax+136]
	mov	edx, -2147483648			; ffffffff80000000H
	lea	rcx, QWORD PTR $T3[rsp]
	mov	r8d, 2147483647				; 7fffffffH
	mov	rbx, rax
	mov	rdi, QWORD PTR [rax]
	call	QWORD PTR __imp_??0Interval@@QEAA@HH@Z
	lea	edx, QWORD PTR [r15+11]
	mov	DWORD PTR [rsp+40], r15d
	lea	r9, QWORD PTR curIndex$5[rsp]
	mov	QWORD PTR [rsp+32], rax
	mov	r8d, r14d
	mov	rcx, rbx
	call	QWORD PTR [rdi+1704]

; 311  : 					SendMessage(GetDlgItem(hWnd, IDC_TIL_X), CB_SETCURSEL, (WPARAM)curIndex, 0);

	movsxd	rbx, DWORD PTR curIndex$5[rsp]
	mov	edx, 1065				; 00000429H
	mov	rcx, rbp
	call	QWORD PTR __imp_GetDlgItem
	xor	r9d, r9d
	mov	r8, rbx
	mov	rcx, rax
	mov	edx, 334				; 0000014eH
	call	QWORD PTR __imp_SendMessageW

; 312  : 					map->GetParamBlock()->GetValue(xyz_tile_y, t, curIndex, FOREVER);

	mov	rax, QWORD PTR [rsi]
	mov	rcx, rsi
	call	QWORD PTR [rax+136]
	mov	edx, -2147483648			; ffffffff80000000H
	lea	rcx, QWORD PTR $T2[rsp]
	mov	r8d, 2147483647				; 7fffffffH
	mov	rbx, rax
	mov	rdi, QWORD PTR [rax]
	call	QWORD PTR __imp_??0Interval@@QEAA@HH@Z
	lea	edx, QWORD PTR [r15+12]
	mov	DWORD PTR [rsp+40], r15d
	lea	r9, QWORD PTR curIndex$5[rsp]
	mov	QWORD PTR [rsp+32], rax
	mov	r8d, r14d
	mov	rcx, rbx
	call	QWORD PTR [rdi+1704]

; 313  : 					SendMessage(GetDlgItem(hWnd, IDC_TIL_Y), CB_SETCURSEL, (WPARAM)curIndex, 0);

	movsxd	rbx, DWORD PTR curIndex$5[rsp]
	mov	edx, 1066				; 0000042aH
	mov	rcx, rbp
	call	QWORD PTR __imp_GetDlgItem
	xor	r9d, r9d
	mov	r8, rbx
	mov	rcx, rax
	mov	edx, 334				; 0000014eH
	call	QWORD PTR __imp_SendMessageW

; 314  : 					map->GetParamBlock()->GetValue(xyz_tile_z, t, curIndex, FOREVER);

	mov	rax, QWORD PTR [rsi]
	mov	rcx, rsi
	call	QWORD PTR [rax+136]
	mov	rdi, QWORD PTR [rax]
	lea	rcx, QWORD PTR $T1[rsp]
	mov	edx, -2147483648			; ffffffff80000000H
	mov	r8d, 2147483647				; 7fffffffH
	mov	rbx, rax
	call	QWORD PTR __imp_??0Interval@@QEAA@HH@Z
	lea	edx, QWORD PTR [r15+13]
	mov	DWORD PTR [rsp+40], r15d
	lea	r9, QWORD PTR curIndex$5[rsp]
	mov	QWORD PTR [rsp+32], rax
	mov	r8d, r14d
	mov	rcx, rbx
	call	QWORD PTR [rdi+1704]

; 315  : 					SendMessage(GetDlgItem(hWnd, IDC_TIL_Z), CB_SETCURSEL, (WPARAM)curIndex, 0);

	movsxd	rbx, DWORD PTR curIndex$5[rsp]
	mov	edx, 1071				; 0000042fH
	mov	rcx, rbp
	call	QWORD PTR __imp_GetDlgItem
	xor	r9d, r9d
	mov	r8, rbx
	mov	rcx, rax
	mov	edx, 334				; 0000014eH
	call	QWORD PTR __imp_SendMessageW
	mov	rdi, QWORD PTR [rsp+96]

; 319  : 			}
; 320  : 			return TRUE;

	lea	eax, QWORD PTR [r15+1]
	mov	r15, QWORD PTR [rsp+104]

; 321  : 		}

	mov	rbx, QWORD PTR [rsp+112]
	add	rsp, 64					; 00000040H
	pop	r14
	pop	rsi
	pop	rbp
	ret	0
?DlgProc@BerconXYZDlgProc@@UEAA_JHPEAVIParamMap2@@PEAUHWND__@@I_K_J@Z ENDP ; BerconXYZDlgProc::DlgProc
_TEXT	ENDS
; Function compile flags: /Ogtp
; File g:\dropbox\github\berconmaps\src\berconcommon.h
;	COMDAT ??0BerconXYZDlgProc@@QEAA@PEAVReferenceTarget@@@Z
_TEXT	SEGMENT
$T1 = 0
this$ = 32
m$ = 40
??0BerconXYZDlgProc@@QEAA@PEAVReferenceTarget@@@Z PROC	; BerconXYZDlgProc::BerconXYZDlgProc, COMDAT

; 265  : 		BerconXYZDlgProc(ReferenceTarget *m) {reftarg = m;}		

$LN6:
	mov	QWORD PTR [rsp+8], rcx
	sub	rsp, 24
	mov	QWORD PTR $T1[rsp], -2
	lea	rax, OFFSET FLAT:??_7ParamMap2UserDlgProc@@6B@
	mov	QWORD PTR [rcx], rax
	lea	rax, OFFSET FLAT:??_7BerconXYZDlgProc@@6B@
	mov	QWORD PTR [rcx], rax
	mov	QWORD PTR [rcx+8], rdx
	mov	rax, rcx
	add	rsp, 24
	ret	0
??0BerconXYZDlgProc@@QEAA@PEAVReferenceTarget@@@Z ENDP	; BerconXYZDlgProc::BerconXYZDlgProc
_TEXT	ENDS
;	COMDAT text$x
text$x	SEGMENT
$T1 = 0
this$ = 32
m$ = 40
?dtor$0@?0???0BerconXYZDlgProc@@QEAA@PEAVReferenceTarget@@@Z@4HA PROC ; `BerconXYZDlgProc::BerconXYZDlgProc'::`1'::dtor$0
	mov	rcx, QWORD PTR this$[rdx]
	jmp	??1ParamMap2UserDlgProc@@UEAA@XZ	; ParamMap2UserDlgProc::~ParamMap2UserDlgProc
?dtor$0@?0???0BerconXYZDlgProc@@QEAA@PEAVReferenceTarget@@@Z@4HA ENDP ; `BerconXYZDlgProc::BerconXYZDlgProc'::`1'::dtor$0
text$x	ENDS
; Function compile flags: /Ogtp
;	COMDAT text$x
text$x	SEGMENT
$T1 = 0
this$ = 32
m$ = 40
?dtor$0@?0???0BerconXYZDlgProc@@QEAA@PEAVReferenceTarget@@@Z@4HA PROC ; `BerconXYZDlgProc::BerconXYZDlgProc'::`1'::dtor$0
	mov	rcx, QWORD PTR this$[rdx]
	jmp	??1ParamMap2UserDlgProc@@UEAA@XZ	; ParamMap2UserDlgProc::~ParamMap2UserDlgProc
?dtor$0@?0???0BerconXYZDlgProc@@QEAA@PEAVReferenceTarget@@@Z@4HA ENDP ; `BerconXYZDlgProc::BerconXYZDlgProc'::`1'::dtor$0
text$x	ENDS
; Function compile flags: /Ogtp
;	COMDAT ??_GXYZ_Desc@@UEAAPEAXI@Z
_TEXT	SEGMENT
$T1 = 32
this$ = 64
__flags$ = 72
??_GXYZ_Desc@@UEAAPEAXI@Z PROC				; XYZ_Desc::`scalar deleting destructor', COMDAT
$LN11:
	mov	QWORD PTR [rsp+8], rcx
	push	rdi
	sub	rsp, 48					; 00000030H
	mov	QWORD PTR $T1[rsp], -2
	mov	QWORD PTR [rsp+72], rbx
	mov	edi, edx
	mov	rbx, rcx
	call	QWORD PTR __imp_??1ParamBlockDesc2@@UEAA@XZ
	npad	1
	test	dil, 1
	je	SHORT $LN10@scalar
	mov	rcx, rbx
	test	dil, 4
	jne	SHORT $LN3@scalar
	call	QWORD PTR __imp_??3MaxHeapOperators@@SAXPEAX@Z
	npad	1
	jmp	SHORT $LN10@scalar
$LN3@scalar:
	mov	edx, 160				; 000000a0H
	call	?__global_delete@@YAXPEAX_K@Z		; __global_delete
	npad	1
$LN10@scalar:
	mov	rax, rbx
	mov	rbx, QWORD PTR [rsp+72]
	add	rsp, 48					; 00000030H
	pop	rdi
	ret	0
??_GXYZ_Desc@@UEAAPEAXI@Z ENDP				; XYZ_Desc::`scalar deleting destructor'
_TEXT	ENDS
;	COMDAT text$x
text$x	SEGMENT
$T1 = 32
this$ = 64
__flags$ = 72
?dtor$0@?0???_GXYZ_Desc@@UEAAPEAXI@Z@4HA PROC		; `XYZ_Desc::`scalar deleting destructor''::`1'::dtor$0
	mov	rcx, QWORD PTR this$[rdx]
	rex_jmp	QWORD PTR __imp_??1ParamBlockDesc2@@UEAA@XZ
?dtor$0@?0???_GXYZ_Desc@@UEAAPEAXI@Z@4HA ENDP		; `XYZ_Desc::`scalar deleting destructor''::`1'::dtor$0
text$x	ENDS
; Function compile flags: /Ogtp
;	COMDAT text$x
text$x	SEGMENT
$T1 = 32
this$ = 64
__flags$ = 72
?dtor$0@?0???_GXYZ_Desc@@UEAAPEAXI@Z@4HA PROC		; `XYZ_Desc::`scalar deleting destructor''::`1'::dtor$0
	mov	rcx, QWORD PTR this$[rdx]
	rex_jmp	QWORD PTR __imp_??1ParamBlockDesc2@@UEAA@XZ
?dtor$0@?0???_GXYZ_Desc@@UEAAPEAXI@Z@4HA ENDP		; `XYZ_Desc::`scalar deleting destructor''::`1'::dtor$0
text$x	ENDS
; Function compile flags: /Ogtp
;	COMDAT ??1XYZ_Desc@@UEAA@XZ
_TEXT	SEGMENT
$T1 = 32
this$ = 64
??1XYZ_Desc@@UEAA@XZ PROC				; XYZ_Desc::~XYZ_Desc, COMDAT
$LN4:
	mov	QWORD PTR [rsp+8], rcx
	sub	rsp, 56					; 00000038H
	mov	QWORD PTR $T1[rsp], -2
	add	rsp, 56					; 00000038H
	rex_jmp	QWORD PTR __imp_??1ParamBlockDesc2@@UEAA@XZ
??1XYZ_Desc@@UEAA@XZ ENDP				; XYZ_Desc::~XYZ_Desc
_TEXT	ENDS
;	COMDAT text$x
text$x	SEGMENT
$T1 = 32
this$ = 64
?dtor$0@?0???1XYZ_Desc@@UEAA@XZ@4HA PROC		; `XYZ_Desc::~XYZ_Desc'::`1'::dtor$0
	mov	rcx, QWORD PTR this$[rdx]
	rex_jmp	QWORD PTR __imp_??1ParamBlockDesc2@@UEAA@XZ
?dtor$0@?0???1XYZ_Desc@@UEAA@XZ@4HA ENDP		; `XYZ_Desc::~XYZ_Desc'::`1'::dtor$0
text$x	ENDS
; Function compile flags: /Ogtp
;	COMDAT text$x
text$x	SEGMENT
$T1 = 32
this$ = 64
?dtor$0@?0???1XYZ_Desc@@UEAA@XZ@4HA PROC		; `XYZ_Desc::~XYZ_Desc'::`1'::dtor$0
	mov	rcx, QWORD PTR this$[rdx]
	rex_jmp	QWORD PTR __imp_??1ParamBlockDesc2@@UEAA@XZ
?dtor$0@?0???1XYZ_Desc@@UEAA@XZ@4HA ENDP		; `XYZ_Desc::~XYZ_Desc'::`1'::dtor$0
text$x	ENDS
; Function compile flags: /Ogtp
; File g:\dropbox\github\berconmaps\src\berconcommon.h
;	COMDAT ??0XYZ_Desc@@QEAA@PEAVClassDesc2@@HHHHHHH@Z
_TEXT	SEGMENT
this$ = 3728
pointer$ = 3736
ref$ = 3744
blkID$ = 3752
type$ = 3760
x$ = 3768
y$ = 3776
z$ = 3784
closed$ = 3792
??0XYZ_Desc@@QEAA@PEAVClassDesc2@@HHHHHHH@Z PROC	; XYZ_Desc::XYZ_Desc, COMDAT

; 256  : 	p_end) {}

$LN4:
	mov	r11, rsp
	mov	QWORD PTR [r11+8], rcx
	push	rbx
	sub	rsp, 3712				; 00000e80H
	mov	QWORD PTR [r11-24], -2
	mov	r10d, r9d
	mov	rbx, rcx

; 131  : 	XYZ_Desc(ClassDesc2* pointer, int ref, int blkID, int type, int x, int y, int z, int closed=1) : ParamBlockDesc2(blkID, _M("Mapping"),  0, pointer, 

	mov	r9d, 6
	mov	DWORD PTR [r11-32], -1073740800		; ffffffffc0000400H
	mov	DWORD PTR [r11-40], -1073740800		; ffffffffc0000400H
	vmovsd	xmm5, QWORD PTR __real@bff0000000000000
	vmovsd	QWORD PTR [r11-48], xmm5
	mov	DWORD PTR [r11-56], 1075		; 00000433H
	mov	DWORD PTR [r11-64], 1074		; 00000432H
	mov	DWORD PTR [r11-72], 1
	xor	ecx, ecx
	mov	QWORD PTR [r11-80], rcx
	mov	DWORD PTR [r11-88], -1073741821		; ffffffffc0000003H
	vmovsd	xmm3, QWORD PTR __real@412e848000000000
	vmovsd	QWORD PTR [r11-96], xmm3
	vxorpd	xmm4, xmm4, xmm4
	vmovsd	QWORD PTR [r11-104], xmm4
	mov	DWORD PTR [r11-112], -1073741822	; ffffffffc0000002H
	vmovsd	QWORD PTR [r11-120], xmm4
	mov	DWORD PTR [r11-128], -1073741824	; ffffffffc0000000H
	mov	DWORD PTR [rsp+3584], 1074		; 00000432H
	mov	DWORD PTR [rsp+3576], 1
	mov	QWORD PTR [r11-152], rcx
	lea	rax, OFFSET FLAT:??_C@_1BM@LCALCDFD@?$AAx?$AAy?$AAz?$AA_?$AAf?$AAi?$AAl?$AAt?$AAe?$AAr?$AAi?$AAn?$AAg?$AA?$AA@
	mov	QWORD PTR [r11-160], rax
	mov	DWORD PTR [rsp+3552], 28
	mov	DWORD PTR [rsp+3544], -1073740800	; ffffffffc0000400H
	mov	DWORD PTR [rsp+3536], 1115		; 0000045bH
	mov	DWORD PTR [r11-192], r9d
	mov	DWORD PTR [rsp+3520], -1073741821	; ffffffffc0000003H
	mov	DWORD PTR [rsp+3512], 1
	mov	DWORD PTR [rsp+3504], -1073741824	; ffffffffc0000000H
	mov	DWORD PTR [rsp+3496], 1115		; 0000045bH
	mov	DWORD PTR [rsp+3488], 1
	mov	DWORD PTR [rsp+3480], 4
	lea	rax, OFFSET FLAT:??_C@_1BC@JCCAEAIN@?$AAx?$AAy?$AAz?$AA_?$AAl?$AAo?$AAc?$AAk?$AA?$AA@
	mov	QWORD PTR [r11-248], rax
	mov	DWORD PTR [rsp+3464], 27
	mov	DWORD PTR [rsp+3456], -1073740800	; ffffffffc0000400H
	vmovsd	QWORD PTR [rsp+3448], xmm5
	mov	DWORD PTR [rsp+3440], 1113		; 00000459H
	mov	DWORD PTR [rsp+3432], 1112		; 00000458H
	mov	DWORD PTR [rsp+3424], 1
	mov	QWORD PTR [r11-304], rcx
	mov	DWORD PTR [rsp+3408], -1073741821	; ffffffffc0000003H
	vmovsd	QWORD PTR [rsp+3400], xmm3
	vmovsd	QWORD PTR [rsp+3392], xmm4
	mov	DWORD PTR [rsp+3384], -1073741822	; ffffffffc0000002H
	vmovsd	QWORD PTR [rsp+3376], xmm4
	mov	DWORD PTR [rsp+3368], -1073741824	; ffffffffc0000000H
	mov	DWORD PTR [rsp+3360], 1112		; 00000458H
	mov	DWORD PTR [rsp+3352], 1
	mov	QWORD PTR [r11-376], rcx
	lea	rax, OFFSET FLAT:??_C@_1BK@FLPLJMAJ@?$AAx?$AAy?$AAz?$AA_?$AAa?$AAn?$AAg?$AAl?$AAe?$AA_?$AAz?$AA2?$AA?$AA@
	mov	QWORD PTR [r11-384], rax
	mov	DWORD PTR [rsp+3328], 22
	mov	DWORD PTR [rsp+3320], -1073740800	; ffffffffc0000400H
	vmovsd	QWORD PTR [rsp+3312], xmm5
	mov	DWORD PTR [rsp+3304], 1106		; 00000452H
	mov	DWORD PTR [rsp+3296], 1105		; 00000451H
	mov	DWORD PTR [rsp+3288], 1
	mov	QWORD PTR [r11-440], rcx
	mov	DWORD PTR [rsp+3272], -1073741821	; ffffffffc0000003H
	vmovsd	QWORD PTR [rsp+3264], xmm3
	vmovsd	QWORD PTR [rsp+3256], xmm4
	mov	DWORD PTR [rsp+3248], -1073741822	; ffffffffc0000002H
	vmovsd	QWORD PTR [rsp+3240], xmm4
	mov	DWORD PTR [rsp+3232], -1073741824	; ffffffffc0000000H
	mov	DWORD PTR [rsp+3224], 1105		; 00000451H
	mov	DWORD PTR [rsp+3216], 1
	mov	QWORD PTR [r11-512], rcx
	lea	rax, OFFSET FLAT:??_C@_1BK@NNGPOOKH@?$AAx?$AAy?$AAz?$AA_?$AAa?$AAn?$AAg?$AAl?$AAe?$AA_?$AAy?$AA2?$AA?$AA@
	mov	QWORD PTR [r11-520], rax
	mov	DWORD PTR [rsp+3192], 21
	mov	DWORD PTR [rsp+3184], -1073740800	; ffffffffc0000400H
	vmovsd	QWORD PTR [rsp+3176], xmm5
	mov	DWORD PTR [rsp+3168], 1099		; 0000044bH
	mov	DWORD PTR [rsp+3160], 1098		; 0000044aH
	mov	DWORD PTR [rsp+3152], 1
	mov	QWORD PTR [r11-576], rcx
	mov	DWORD PTR [rsp+3136], -1073741821	; ffffffffc0000003H
	vmovsd	QWORD PTR [rsp+3128], xmm3
	vmovsd	QWORD PTR [rsp+3120], xmm4
	mov	DWORD PTR [rsp+3112], -1073741822	; ffffffffc0000002H
	vmovsd	QWORD PTR [rsp+3104], xmm4
	mov	DWORD PTR [rsp+3096], -1073741824	; ffffffffc0000000H
	mov	DWORD PTR [rsp+3088], 1098		; 0000044aH
	mov	DWORD PTR [rsp+3080], 1
	mov	QWORD PTR [r11-648], rcx
	lea	rax, OFFSET FLAT:??_C@_1BK@BGDDDNAC@?$AAx?$AAy?$AAz?$AA_?$AAa?$AAn?$AAg?$AAl?$AAe?$AA_?$AAx?$AA2?$AA?$AA@
	mov	QWORD PTR [r11-656], rax
	mov	DWORD PTR [rsp+3056], 20
	mov	DWORD PTR [rsp+3048], -1073740800	; ffffffffc0000400H
	vmovsd	QWORD PTR [rsp+3040], xmm5
	mov	DWORD PTR [rsp+3032], 1111		; 00000457H
	mov	DWORD PTR [rsp+3024], 1110		; 00000456H
	mov	DWORD PTR [rsp+3016], 1
	mov	QWORD PTR [r11-712], rcx
	mov	DWORD PTR [rsp+3000], -1073741821	; ffffffffc0000003H
	vmovsd	QWORD PTR [rsp+2992], xmm3
	vmovsd	QWORD PTR [rsp+2984], xmm4
	mov	DWORD PTR [rsp+2976], -1073741822	; ffffffffc0000002H
	vmovsd	QWORD PTR [rsp+2968], xmm4
	mov	DWORD PTR [rsp+2960], -1073741824	; ffffffffc0000000H
	mov	DWORD PTR [rsp+2952], 1110		; 00000456H
	mov	DWORD PTR [rsp+2944], 1
	mov	QWORD PTR [r11-784], rcx
	lea	rax, OFFSET FLAT:??_C@_1BI@MHJCJGME@?$AAx?$AAy?$AAz?$AA_?$AAs?$AAi?$AAz?$AAe?$AA_?$AAz?$AA2?$AA?$AA@
	mov	QWORD PTR [r11-792], rax
	mov	DWORD PTR [rsp+2920], 19
	mov	DWORD PTR [rsp+2912], -1073740800	; ffffffffc0000400H
	vmovsd	QWORD PTR [rsp+2904], xmm5
	mov	DWORD PTR [rsp+2896], 1104		; 00000450H
	mov	DWORD PTR [rsp+2888], 1103		; 0000044fH
	mov	DWORD PTR [rsp+2880], 1
	mov	QWORD PTR [r11-848], rcx
	mov	DWORD PTR [rsp+2864], -1073741821	; ffffffffc0000003H
	vmovsd	QWORD PTR [rsp+2856], xmm3
	vmovsd	QWORD PTR [rsp+2848], xmm4
	mov	DWORD PTR [rsp+2840], -1073741822	; ffffffffc0000002H
	vmovsd	QWORD PTR [rsp+2832], xmm4
	mov	DWORD PTR [rsp+2824], -1073741824	; ffffffffc0000000H
	mov	DWORD PTR [rsp+2816], 1103		; 0000044fH
	mov	DWORD PTR [rsp+2808], 1
	mov	QWORD PTR [r11-920], rcx
	lea	rax, OFFSET FLAT:??_C@_1BI@EBAGOEGK@?$AAx?$AAy?$AAz?$AA_?$AAs?$AAi?$AAz?$AAe?$AA_?$AAy?$AA2?$AA?$AA@
	mov	QWORD PTR [r11-928], rax
	mov	DWORD PTR [rsp+2784], 18
	mov	DWORD PTR [rsp+2776], -1073740800	; ffffffffc0000400H
	vmovsd	QWORD PTR [rsp+2768], xmm5
	mov	DWORD PTR [rsp+2760], 1097		; 00000449H
	mov	DWORD PTR [rsp+2752], 1096		; 00000448H
	mov	DWORD PTR [rsp+2744], 1
	mov	QWORD PTR [r11-984], rcx
	mov	DWORD PTR [rsp+2728], -1073741821	; ffffffffc0000003H
	vmovsd	QWORD PTR [rsp+2720], xmm3
	vmovsd	QWORD PTR [rsp+2712], xmm4
	mov	DWORD PTR [rsp+2704], -1073741822	; ffffffffc0000002H
	vmovsd	QWORD PTR [rsp+2696], xmm4
	mov	DWORD PTR [rsp+2688], -1073741824	; ffffffffc0000000H
	mov	DWORD PTR [rsp+2680], 1096		; 00000448H
	mov	DWORD PTR [rsp+2672], 1
	mov	QWORD PTR [r11-1056], rcx
	lea	rax, OFFSET FLAT:??_C@_1BI@IKFKDHMP@?$AAx?$AAy?$AAz?$AA_?$AAs?$AAi?$AAz?$AAe?$AA_?$AAx?$AA2?$AA?$AA@
	mov	QWORD PTR [r11-1064], rax
	mov	DWORD PTR [rsp+2648], 17
	mov	DWORD PTR [rsp+2640], -1073740800	; ffffffffc0000400H
	vmovsd	QWORD PTR [rsp+2632], xmm5
	mov	DWORD PTR [rsp+2624], 1109		; 00000455H
	mov	DWORD PTR [rsp+2616], 1108		; 00000454H
	mov	DWORD PTR [rsp+2608], 1
	mov	QWORD PTR [r11-1120], rcx
	mov	DWORD PTR [rsp+2592], -1073741821	; ffffffffc0000003H
	vmovsd	QWORD PTR [rsp+2584], xmm3
	vmovsd	QWORD PTR [rsp+2576], xmm4
	mov	DWORD PTR [rsp+2568], -1073741822	; ffffffffc0000002H
	vmovsd	QWORD PTR [rsp+2560], xmm4
	mov	DWORD PTR [rsp+2552], -1073741824	; ffffffffc0000000H
	mov	DWORD PTR [rsp+2544], 1108		; 00000454H
	mov	DWORD PTR [rsp+2536], 1
	mov	QWORD PTR [r11-1192], rcx
	lea	rax, OFFSET FLAT:??_C@_1BM@HJOOPID@?$AAx?$AAy?$AAz?$AA_?$AAo?$AAf?$AAf?$AAs?$AAe?$AAt?$AA_?$AAz?$AA2?$AA?$AA@
	mov	QWORD PTR [r11-1200], rax
	mov	DWORD PTR [rsp+2512], 16
	mov	DWORD PTR [rsp+2504], -1073740800	; ffffffffc0000400H
	vmovsd	QWORD PTR [rsp+2496], xmm5
	mov	DWORD PTR [rsp+2488], 1102		; 0000044eH
	mov	DWORD PTR [rsp+2480], 1101		; 0000044dH
	mov	DWORD PTR [rsp+2472], 1
	mov	QWORD PTR [r11-1256], rcx
	mov	DWORD PTR [rsp+2456], -1073741821	; ffffffffc0000003H
	vmovsd	QWORD PTR [rsp+2448], xmm3
	vmovsd	QWORD PTR [rsp+2440], xmm4
	mov	DWORD PTR [rsp+2432], -1073741822	; ffffffffc0000002H
	vmovsd	QWORD PTR [rsp+2424], xmm4
	mov	DWORD PTR [rsp+2416], -1073741824	; ffffffffc0000000H
	mov	DWORD PTR [rsp+2408], 1101		; 0000044dH
	mov	DWORD PTR [rsp+2400], 1
	mov	QWORD PTR [r11-1328], rcx
	lea	rax, OFFSET FLAT:??_C@_1BM@IBAKJNCN@?$AAx?$AAy?$AAz?$AA_?$AAo?$AAf?$AAf?$AAs?$AAe?$AAt?$AA_?$AAy?$AA2?$AA?$AA@
	mov	QWORD PTR [r11-1336], rax
	mov	DWORD PTR [rsp+2376], 15
	mov	DWORD PTR [rsp+2368], -1073740800	; ffffffffc0000400H
	vmovsd	QWORD PTR [rsp+2360], xmm5
	mov	DWORD PTR [rsp+2352], 1095		; 00000447H
	mov	DWORD PTR [rsp+2344], 1094		; 00000446H
	mov	DWORD PTR [rsp+2336], 1
	mov	QWORD PTR [r11-1392], rcx
	mov	DWORD PTR [rsp+2320], -1073741821	; ffffffffc0000003H
	vmovsd	QWORD PTR [rsp+2312], xmm3
	vmovsd	QWORD PTR [rsp+2304], xmm4
	mov	DWORD PTR [rsp+2296], -1073741822	; ffffffffc0000002H
	vmovsd	QWORD PTR [rsp+2288], xmm4
	mov	DWORD PTR [rsp+2280], -1073741824	; ffffffffc0000000H
	mov	DWORD PTR [rsp+2272], 1094		; 00000446H
	mov	DWORD PTR [rsp+2264], 1
	mov	QWORD PTR [r11-1464], rcx
	lea	rax, OFFSET FLAT:??_C@_1BM@EKFGEOII@?$AAx?$AAy?$AAz?$AA_?$AAo?$AAf?$AAf?$AAs?$AAe?$AAt?$AA_?$AAx?$AA2?$AA?$AA@
	mov	QWORD PTR [r11-1472], rax
	mov	DWORD PTR [rsp+2240], 14
	mov	DWORD PTR [rsp+2232], -1073740800	; ffffffffc0000400H
	mov	DWORD PTR [rsp+2224], 1034		; 0000040aH
	mov	DWORD PTR [rsp+2216], 2
	mov	DWORD PTR [rsp+2208], -1073741821	; ffffffffc0000003H
	mov	QWORD PTR [r11-1520], rcx
	mov	DWORD PTR [rsp+2192], -1073741824	; ffffffffc0000000H
	mov	DWORD PTR [rsp+2184], 166		; 000000a6H
	mov	DWORD PTR [rsp+2176], 1
	mov	DWORD PTR [rsp+2168], 4
	lea	rax, OFFSET FLAT:??_C@_1BE@PALBIMHK@?$AAr?$AAa?$AAn?$AAd?$AAB?$AAy?$AAP?$AAa?$AAr?$AA?$AA@
	mov	QWORD PTR [r11-1560], rax
	mov	DWORD PTR [rsp+2152], 26
	mov	DWORD PTR [rsp+2144], -1073740800	; ffffffffc0000400H
	mov	DWORD PTR [rsp+2136], 1033		; 00000409H
	mov	DWORD PTR [rsp+2128], 2
	mov	DWORD PTR [rsp+2120], -1073741821	; ffffffffc0000003H
	mov	DWORD PTR [rsp+2112], 1
	mov	DWORD PTR [rsp+2104], -1073741824	; ffffffffc0000000H
	mov	DWORD PTR [rsp+2096], 165		; 000000a5H
	mov	DWORD PTR [rsp+2088], 1
	mov	DWORD PTR [rsp+2080], 4
	lea	rax, OFFSET FLAT:??_C@_1BE@EGBDKCCD@?$AAr?$AAa?$AAn?$AAd?$AAB?$AAy?$AAO?$AAb?$AAj?$AA?$AA@
	mov	QWORD PTR [r11-1648], rax
	mov	DWORD PTR [rsp+2064], 25
	mov	DWORD PTR [rsp+2056], -1073740800	; ffffffffc0000400H
	mov	DWORD PTR [rsp+2048], 1051		; 0000041bH
	mov	DWORD PTR [rsp+2040], 2
	mov	DWORD PTR [rsp+2032], -1073741821	; ffffffffc0000003H
	mov	QWORD PTR [r11-1696], rcx
	mov	DWORD PTR [rsp+2016], -1073741824	; ffffffffc0000000H
	mov	DWORD PTR [rsp+2008], 164		; 000000a4H
	mov	DWORD PTR [rsp+2000], 1
	mov	DWORD PTR [rsp+1992], 4
	lea	rax, OFFSET FLAT:??_C@_1BE@DCGEPHFM@?$AAr?$AAa?$AAn?$AAd?$AAB?$AAy?$AAM?$AAa?$AAt?$AA?$AA@
	mov	QWORD PTR [r11-1736], rax
	mov	DWORD PTR [rsp+1976], 24
	mov	DWORD PTR [rsp+1968], -1073740800	; ffffffffc0000400H
	vmovsd	QWORD PTR [rsp+1960], xmm5
	mov	DWORD PTR [rsp+1952], 1017		; 000003f9H
	mov	DWORD PTR [rsp+1944], 1015		; 000003f7H
	mov	QWORD PTR [r11-1784], rcx
	mov	QWORD PTR [r11-1792], rcx
	mov	DWORD PTR [rsp+1920], -1073741821	; ffffffffc0000003H
	mov	DWORD PTR [rsp+1912], 99999		; 0001869fH
	mov	DWORD PTR [rsp+1904], 1
	mov	DWORD PTR [rsp+1896], -1073741822	; ffffffffc0000002H
	mov	DWORD PTR [rsp+1888], 12345		; 00003039H
	mov	DWORD PTR [rsp+1880], -1073741824	; ffffffffc0000000H
	mov	DWORD PTR [rsp+1872], 50		; 00000032H
	mov	DWORD PTR [rsp+1864], 1
	mov	DWORD PTR [rsp+1856], 1
	lea	rax, OFFSET FLAT:??_C@_19HFHNPJHA@?$AAs?$AAe?$AAe?$AAd?$AA?$AA@
	mov	QWORD PTR [r11-1872], rax
	mov	DWORD PTR [rsp+1840], 23
	mov	DWORD PTR [rsp+1832], -1073740800	; ffffffffc0000400H
	mov	QWORD PTR [r11-1896], rcx
	mov	DWORD PTR [rsp+1816], 1071		; 0000042fH
	mov	DWORD PTR [rsp+1808], 13
	mov	DWORD PTR [rsp+1800], -1073741821	; ffffffffc0000003H
	mov	eax, DWORD PTR z$[rsp]
	mov	DWORD PTR [rsp+1792], eax
	mov	DWORD PTR [rsp+1784], -1073741824	; ffffffffc0000000H
	mov	DWORD PTR [rsp+1776], 1071		; 0000042fH
	mov	DWORD PTR [rsp+1768], 1
	mov	DWORD PTR [rsp+1760], 1
	lea	rax, OFFSET FLAT:??_C@_1BG@EDCBABDD@?$AAx?$AAy?$AAz?$AA_?$AAt?$AAi?$AAl?$AAe?$AA_?$AAz?$AA?$AA@
	mov	QWORD PTR [r11-1968], rax
	mov	DWORD PTR [rsp+1744], 13
	mov	DWORD PTR [rsp+1736], -1073740800	; ffffffffc0000400H
	mov	QWORD PTR [r11-1992], rcx
	mov	DWORD PTR [rsp+1720], 1066		; 0000042aH
	mov	DWORD PTR [rsp+1712], 13
	mov	DWORD PTR [rsp+1704], -1073741821	; ffffffffc0000003H
	mov	eax, DWORD PTR y$[rsp]
	mov	DWORD PTR [rsp+1696], eax
	mov	DWORD PTR [rsp+1688], -1073741824	; ffffffffc0000000H
	mov	DWORD PTR [rsp+1680], 1066		; 0000042aH
	mov	DWORD PTR [rsp+1672], 1
	mov	DWORD PTR [rsp+1664], 1
	lea	rax, OFFSET FLAT:??_C@_1BG@FBJEKONN@?$AAx?$AAy?$AAz?$AA_?$AAt?$AAi?$AAl?$AAe?$AA_?$AAy?$AA?$AA@
	mov	QWORD PTR [r11-2064], rax
	mov	DWORD PTR [rsp+1648], 12
	mov	DWORD PTR [rsp+1640], -1073740800	; ffffffffc0000400H
	mov	QWORD PTR [r11-2088], rcx
	mov	DWORD PTR [rsp+1624], 1065		; 00000429H
	mov	DWORD PTR [rsp+1616], 13
	mov	DWORD PTR [rsp+1608], -1073741821	; ffffffffc0000003H
	mov	eax, DWORD PTR x$[rsp]
	mov	DWORD PTR [rsp+1600], eax
	mov	DWORD PTR [rsp+1592], -1073741824	; ffffffffc0000000H
	mov	DWORD PTR [rsp+1584], 1065		; 00000429H
	mov	DWORD PTR [rsp+1576], 1
	mov	DWORD PTR [rsp+1568], 1
	lea	rax, OFFSET FLAT:??_C@_1BG@OJCIMJLI@?$AAx?$AAy?$AAz?$AA_?$AAt?$AAi?$AAl?$AAe?$AA_?$AAx?$AA?$AA@
	mov	QWORD PTR [r11-2160], rax
	mov	DWORD PTR [rsp+1552], 11
	mov	DWORD PTR [rsp+1544], -1073740800	; ffffffffc0000400H
	vmovsd	QWORD PTR [rsp+1536], xmm5
	mov	DWORD PTR [rsp+1528], 1070		; 0000042eH
	mov	DWORD PTR [rsp+1520], 1069		; 0000042dH
	mov	DWORD PTR [rsp+1512], 1
	mov	QWORD PTR [r11-2216], rcx
	mov	DWORD PTR [rsp+1496], -1073741821	; ffffffffc0000003H
	vmovsd	QWORD PTR [rsp+1488], xmm3
	vmovsd	xmm2, QWORD PTR __real@c12e848000000000
	vmovsd	QWORD PTR [rsp+1480], xmm2
	mov	DWORD PTR [rsp+1472], -1073741822	; ffffffffc0000002H
	vmovsd	QWORD PTR [rsp+1464], xmm4
	mov	DWORD PTR [rsp+1456], -1073741824	; ffffffffc0000000H
	mov	DWORD PTR [rsp+1448], 1069		; 0000042dH
	mov	DWORD PTR [rsp+1440], 1
	mov	QWORD PTR [r11-2288], rcx
	lea	rax, OFFSET FLAT:??_C@_1BI@LALGELMD@?$AAx?$AAy?$AAz?$AA_?$AAa?$AAn?$AAg?$AAl?$AAe?$AA_?$AAz?$AA?$AA@
	mov	QWORD PTR [r11-2296], rax
	mov	DWORD PTR [rsp+1416], 10
	mov	DWORD PTR [rsp+1408], -1073740800	; ffffffffc0000400H
	vmovsd	QWORD PTR [rsp+1400], xmm5
	mov	DWORD PTR [rsp+1392], 1062		; 00000426H
	mov	DWORD PTR [rsp+1384], 1061		; 00000425H
	mov	DWORD PTR [rsp+1376], 1
	mov	QWORD PTR [r11-2352], rcx
	mov	DWORD PTR [rsp+1360], -1073741821	; ffffffffc0000003H
	vmovsd	QWORD PTR [rsp+1352], xmm3
	vmovsd	QWORD PTR [rsp+1344], xmm2
	mov	DWORD PTR [rsp+1336], -1073741822	; ffffffffc0000002H
	vmovsd	QWORD PTR [rsp+1328], xmm4
	mov	DWORD PTR [rsp+1320], -1073741824	; ffffffffc0000000H
	mov	DWORD PTR [rsp+1312], 1061		; 00000425H
	mov	DWORD PTR [rsp+1304], 1
	mov	QWORD PTR [r11-2424], rcx
	lea	rax, OFFSET FLAT:??_C@_1BI@KCADOECN@?$AAx?$AAy?$AAz?$AA_?$AAa?$AAn?$AAg?$AAl?$AAe?$AA_?$AAy?$AA?$AA@
	mov	QWORD PTR [r11-2432], rax
	mov	DWORD PTR [rsp+1280], 9
	mov	DWORD PTR [rsp+1272], -1073740800	; ffffffffc0000400H
	vmovsd	QWORD PTR [rsp+1264], xmm5
	mov	DWORD PTR [rsp+1256], 1058		; 00000422H
	mov	DWORD PTR [rsp+1248], 1057		; 00000421H
	mov	DWORD PTR [rsp+1240], 1
	mov	QWORD PTR [r11-2488], rcx
	mov	DWORD PTR [rsp+1224], -1073741821	; ffffffffc0000003H
	vmovsd	QWORD PTR [rsp+1216], xmm3
	vmovsd	QWORD PTR [rsp+1208], xmm2
	mov	DWORD PTR [rsp+1200], -1073741822	; ffffffffc0000002H
	vmovsd	QWORD PTR [rsp+1192], xmm4
	mov	DWORD PTR [rsp+1184], -1073741824	; ffffffffc0000000H
	mov	DWORD PTR [rsp+1176], 1057		; 00000421H
	mov	DWORD PTR [rsp+1168], 1
	mov	QWORD PTR [r11-2560], rcx
	lea	rax, OFFSET FLAT:??_C@_1BI@BKLPIDEI@?$AAx?$AAy?$AAz?$AA_?$AAa?$AAn?$AAg?$AAl?$AAe?$AA_?$AAx?$AA?$AA@
	mov	QWORD PTR [r11-2568], rax
	mov	DWORD PTR [rsp+1144], 8
	mov	DWORD PTR [rsp+1136], -1073740800	; ffffffffc0000400H
	vmovsd	QWORD PTR [rsp+1128], xmm5
	mov	DWORD PTR [rsp+1120], 1068		; 0000042cH
	mov	DWORD PTR [rsp+1112], 1067		; 0000042bH
	mov	DWORD PTR [rsp+1104], 1
	mov	QWORD PTR [r11-2624], rcx
	mov	DWORD PTR [rsp+1088], -1073741821	; ffffffffc0000003H
	vmovsd	QWORD PTR [rsp+1080], xmm3
	vmovsd	xmm1, QWORD PTR __real@3f1a36e2e0000000
	vmovsd	QWORD PTR [rsp+1072], xmm1
	mov	DWORD PTR [rsp+1064], -1073741822	; ffffffffc0000002H
	vmovsd	xmm0, QWORD PTR __real@3ff0000000000000
	vmovsd	QWORD PTR [rsp+1056], xmm0
	mov	DWORD PTR [rsp+1048], -1073741824	; ffffffffc0000000H
	mov	DWORD PTR [rsp+1040], 1067		; 0000042bH
	mov	DWORD PTR [rsp+1032], 1
	mov	QWORD PTR [r11-2696], rcx
	lea	rax, OFFSET FLAT:??_C@_1BG@MFMFKFM@?$AAx?$AAy?$AAz?$AA_?$AAs?$AAi?$AAz?$AAe?$AA_?$AAz?$AA?$AA@
	mov	QWORD PTR [r11-2704], rax
	mov	DWORD PTR [rsp+1008], 7
	mov	DWORD PTR [rsp+1000], -1073740800	; ffffffffc0000400H
	vmovsd	QWORD PTR [rsp+992], xmm5
	mov	DWORD PTR [rsp+984], 1060		; 00000424H
	mov	DWORD PTR [rsp+976], 1059		; 00000423H
	mov	DWORD PTR [rsp+968], 1
	mov	QWORD PTR [r11-2760], rcx
	mov	DWORD PTR [rsp+952], -1073741821	; ffffffffc0000003H
	vmovsd	QWORD PTR [rsp+944], xmm3
	vmovsd	QWORD PTR [rsp+936], xmm1
	mov	DWORD PTR [rsp+928], -1073741822	; ffffffffc0000002H
	vmovsd	QWORD PTR [rsp+920], xmm0
	mov	DWORD PTR [rsp+912], -1073741824	; ffffffffc0000000H
	mov	DWORD PTR [rsp+904], 1059		; 00000423H
	mov	DWORD PTR [rsp+896], 1
	mov	QWORD PTR [r11-2832], rcx
	lea	rax, OFFSET FLAT:??_C@_1BG@BOOJPFLC@?$AAx?$AAy?$AAz?$AA_?$AAs?$AAi?$AAz?$AAe?$AA_?$AAy?$AA?$AA@
	mov	QWORD PTR [r11-2840], rax
	mov	DWORD PTR [r11-2848], r9d
	mov	DWORD PTR [rsp+864], -1073740800	; ffffffffc0000400H
	vmovsd	QWORD PTR [rsp+856], xmm5
	mov	DWORD PTR [rsp+848], 1056		; 00000420H
	mov	DWORD PTR [rsp+840], 1055		; 0000041fH
	mov	DWORD PTR [rsp+832], 1
	mov	QWORD PTR [r11-2896], rcx
	mov	DWORD PTR [rsp+816], -1073741821	; ffffffffc0000003H
	vmovsd	QWORD PTR [rsp+808], xmm3
	vmovsd	QWORD PTR [rsp+800], xmm1
	mov	DWORD PTR [rsp+792], -1073741822	; ffffffffc0000002H
	vmovsd	QWORD PTR [rsp+784], xmm0
	mov	DWORD PTR [rsp+776], -1073741824	; ffffffffc0000000H
	mov	DWORD PTR [rsp+768], 1055		; 0000041fH
	mov	DWORD PTR [rsp+760], 1
	mov	QWORD PTR [r11-2968], rcx
	lea	rax, OFFSET FLAT:??_C@_1BG@KGFFJCNH@?$AAx?$AAy?$AAz?$AA_?$AAs?$AAi?$AAz?$AAe?$AA_?$AAx?$AA?$AA@
	mov	QWORD PTR [r11-2976], rax
	mov	DWORD PTR [rsp+736], 5
	mov	DWORD PTR [rsp+728], -1073740800	; ffffffffc0000400H
	vmovsd	QWORD PTR [rsp+720], xmm5
	mov	DWORD PTR [rsp+712], 1064		; 00000428H
	mov	DWORD PTR [rsp+704], 1063		; 00000427H
	mov	DWORD PTR [rsp+696], 1
	mov	QWORD PTR [r11-3032], rcx
	mov	DWORD PTR [rsp+680], -1073741821	; ffffffffc0000003H
	vmovsd	QWORD PTR [rsp+672], xmm3
	vmovsd	QWORD PTR [rsp+664], xmm2
	mov	DWORD PTR [rsp+656], -1073741822	; ffffffffc0000002H
	vmovsd	QWORD PTR [rsp+648], xmm4
	mov	DWORD PTR [rsp+640], -1073741824	; ffffffffc0000000H
	mov	DWORD PTR [rsp+632], 1063		; 00000427H
	mov	DWORD PTR [rsp+624], 1
	mov	QWORD PTR [r11-3104], rcx
	lea	rax, OFFSET FLAT:??_C@_1BK@HPJLBIGD@?$AAx?$AAy?$AAz?$AA_?$AAo?$AAf?$AAf?$AAs?$AAe?$AAt?$AA_?$AAz?$AA?$AA@
	mov	QWORD PTR [r11-3112], rax
	mov	DWORD PTR [rsp+600], 4
	mov	DWORD PTR [rsp+592], -1073740800	; ffffffffc0000400H
	vmovsd	QWORD PTR [rsp+584], xmm5
	mov	DWORD PTR [rsp+576], 1054		; 0000041eH
	mov	DWORD PTR [rsp+568], 1053		; 0000041dH
	mov	DWORD PTR [rsp+560], 1
	mov	QWORD PTR [r11-3168], rcx
	mov	DWORD PTR [rsp+544], -1073741821	; ffffffffc0000003H
	vmovsd	QWORD PTR [rsp+536], xmm3
	vmovsd	QWORD PTR [rsp+528], xmm2
	mov	DWORD PTR [rsp+520], -1073741822	; ffffffffc0000002H
	vmovsd	QWORD PTR [rsp+512], xmm4
	mov	DWORD PTR [rsp+504], -1073741824	; ffffffffc0000000H
	mov	DWORD PTR [rsp+496], 1053		; 0000041dH
	mov	DWORD PTR [rsp+488], 1
	mov	QWORD PTR [r11-3240], rcx
	lea	rax, OFFSET FLAT:??_C@_1BK@GNCOLHIN@?$AAx?$AAy?$AAz?$AA_?$AAo?$AAf?$AAf?$AAs?$AAe?$AAt?$AA_?$AAy?$AA?$AA@
	mov	QWORD PTR [r11-3248], rax
	mov	DWORD PTR [rsp+464], 3
	mov	DWORD PTR [rsp+456], -1073740800	; ffffffffc0000400H
	vmovsd	QWORD PTR [rsp+448], xmm5
	mov	DWORD PTR [rsp+440], 1073		; 00000431H
	mov	DWORD PTR [rsp+432], 1072		; 00000430H
	mov	DWORD PTR [rsp+424], 1
	mov	QWORD PTR [r11-3304], rcx
	mov	DWORD PTR [rsp+408], -1073741821	; ffffffffc0000003H
	vmovsd	QWORD PTR [rsp+400], xmm3
	vmovsd	QWORD PTR [rsp+392], xmm2
	mov	DWORD PTR [rsp+384], -1073741822	; ffffffffc0000002H
	vmovsd	QWORD PTR [rsp+376], xmm4
	mov	DWORD PTR [rsp+368], -1073741824	; ffffffffc0000000H
	mov	DWORD PTR [rsp+360], 1072		; 00000430H
	mov	DWORD PTR [rsp+352], 1
	mov	QWORD PTR [r11-3376], rcx
	lea	rax, OFFSET FLAT:??_C@_1BK@NFJCNAOI@?$AAx?$AAy?$AAz?$AA_?$AAo?$AAf?$AAf?$AAs?$AAe?$AAt?$AA_?$AAx?$AA?$AA@
	mov	QWORD PTR [r11-3384], rax
	mov	DWORD PTR [rsp+328], 2
	mov	DWORD PTR [rsp+320], -1073740800	; ffffffffc0000400H
	vmovsd	QWORD PTR [rsp+312], xmm5
	mov	DWORD PTR [rsp+304], 1511		; 000005e7H
	mov	DWORD PTR [rsp+296], 1510		; 000005e6H
	mov	QWORD PTR [r11-3432], rcx
	mov	QWORD PTR [r11-3440], rcx
	mov	DWORD PTR [rsp+272], -1073741821	; ffffffffc0000003H
	mov	DWORD PTR [rsp+264], 100		; 00000064H
	mov	QWORD PTR [r11-3464], rcx
	mov	DWORD PTR [rsp+248], -1073741822	; ffffffffc0000002H
	mov	DWORD PTR [rsp+240], 1
	mov	DWORD PTR [rsp+232], -1073741824	; ffffffffc0000000H
	mov	DWORD PTR [rsp+224], 50			; 00000032H
	mov	DWORD PTR [rsp+216], 1
	mov	DWORD PTR [rsp+208], 1
	lea	rax, OFFSET FLAT:??_C@_1BC@BDPIEDCA@?$AAx?$AAy?$AAz?$AA_?$AAc?$AAh?$AAa?$AAn?$AA?$AA@
	mov	QWORD PTR [r11-3520], rax
	mov	DWORD PTR [rsp+192], 1
	mov	DWORD PTR [rsp+184], -1073740800	; ffffffffc0000400H
	mov	QWORD PTR [r11-3544], rcx
	mov	DWORD PTR [rsp+168], 1018		; 000003faH
	mov	DWORD PTR [rsp+160], 13
	mov	DWORD PTR [rsp+152], -1073741821	; ffffffffc0000003H
	mov	eax, DWORD PTR type$[rsp]
	mov	DWORD PTR [rsp+144], eax
	mov	DWORD PTR [rsp+136], -1073741824	; ffffffffc0000000H
	mov	DWORD PTR [rsp+128], 216		; 000000d8H
	mov	DWORD PTR [rsp+120], 1
	mov	DWORD PTR [rsp+112], 1
	lea	rax, OFFSET FLAT:??_C@_1BA@JOBDKJKA@?$AAx?$AAy?$AAz?$AA_?$AAm?$AAa?$AAp?$AA?$AA@
	mov	QWORD PTR [rsp+104], rax
	mov	QWORD PTR [rsp+96], rcx
	mov	QWORD PTR [rsp+88], rcx
	mov	eax, DWORD PTR closed$[rsp]
	mov	DWORD PTR [rsp+80], eax
	mov	QWORD PTR [rsp+72], rcx
	mov	DWORD PTR [rsp+64], 216			; 000000d8H
	mov	DWORD PTR [rsp+56], 112			; 00000070H
	mov	DWORD PTR [rsp+48], r8d
	mov	WORD PTR [rsp+40], r9w
	mov	QWORD PTR [rsp+32], rdx
	xor	r9d, r9d
	lea	r8, OFFSET FLAT:??_C@_1BA@KMAKHADK@?$AAM?$AAa?$AAp?$AAp?$AAi?$AAn?$AAg?$AA?$AA@
	movsx	edx, r10w
	mov	rcx, rbx
	call	QWORD PTR __imp_??0ParamBlockDesc2@@QEAA@FPEB_W_JPEAVClassDesc2@@GZZ
	npad	1

; 256  : 	p_end) {}

	lea	rax, OFFSET FLAT:??_7XYZ_Desc@@6B@
	mov	QWORD PTR [rbx], rax
	mov	rax, rbx
	add	rsp, 3712				; 00000e80H
	pop	rbx
	ret	0
??0XYZ_Desc@@QEAA@PEAVClassDesc2@@HHHHHHH@Z ENDP	; XYZ_Desc::XYZ_Desc
_TEXT	ENDS
;	COMDAT text$x
text$x	SEGMENT
this$ = 3728
pointer$ = 3736
ref$ = 3744
blkID$ = 3752
type$ = 3760
x$ = 3768
y$ = 3776
z$ = 3784
closed$ = 3792
?dtor$0@?0???0XYZ_Desc@@QEAA@PEAVClassDesc2@@HHHHHHH@Z@4HA PROC ; `XYZ_Desc::XYZ_Desc'::`1'::dtor$0
	mov	rcx, QWORD PTR this$[rdx]
	rex_jmp	QWORD PTR __imp_??1ParamBlockDesc2@@UEAA@XZ
?dtor$0@?0???0XYZ_Desc@@QEAA@PEAVClassDesc2@@HHHHHHH@Z@4HA ENDP ; `XYZ_Desc::XYZ_Desc'::`1'::dtor$0
text$x	ENDS
; Function compile flags: /Ogtp
;	COMDAT text$x
text$x	SEGMENT
this$ = 3728
pointer$ = 3736
ref$ = 3744
blkID$ = 3752
type$ = 3760
x$ = 3768
y$ = 3776
z$ = 3784
closed$ = 3792
?dtor$0@?0???0XYZ_Desc@@QEAA@PEAVClassDesc2@@HHHHHHH@Z@4HA PROC ; `XYZ_Desc::XYZ_Desc'::`1'::dtor$0
	mov	rcx, QWORD PTR this$[rdx]
	rex_jmp	QWORD PTR __imp_??1ParamBlockDesc2@@UEAA@XZ
?dtor$0@?0???0XYZ_Desc@@QEAA@PEAVClassDesc2@@HHHHHHH@Z@4HA ENDP ; `XYZ_Desc::XYZ_Desc'::`1'::dtor$0
text$x	ENDS
; Function compile flags: /Ogtp
;	COMDAT ??0ResourceMakerCallback@@QEAA@XZ
_TEXT	SEGMENT
this$ = 8
??0ResourceMakerCallback@@QEAA@XZ PROC			; ResourceMakerCallback::ResourceMakerCallback, COMDAT
	lea	rax, OFFSET FLAT:??_7ResourceMakerCallback@@6B@
	mov	QWORD PTR [rcx], rax
	mov	rax, rcx
	ret	0
??0ResourceMakerCallback@@QEAA@XZ ENDP			; ResourceMakerCallback::ResourceMakerCallback
_TEXT	ENDS
; Function compile flags: /Ogtp
; File c:\program files\autodesk\3ds max 2020 sdk\maxsdk\include\icurvctl.h
;	COMDAT ?GetInterface@ResourceMakerCallback@@UEAAPEAXK@Z
_TEXT	SEGMENT
this$ = 8
id$ = 16
?GetInterface@ResourceMakerCallback@@UEAAPEAXK@Z PROC	; ResourceMakerCallback::GetInterface, COMDAT

; 770  : 	virtual void* GetInterface(ULONG id) {return NULL;}

	xor	eax, eax
	ret	0
?GetInterface@ResourceMakerCallback@@UEAAPEAXK@Z ENDP	; ResourceMakerCallback::GetInterface
_TEXT	ENDS
; Function compile flags: /Ogtp
; File c:\program files\autodesk\3ds max 2020 sdk\maxsdk\include\icurvctl.h
;	COMDAT ?NewCurveCreatedCallback@ResourceMakerCallback@@UEAAXHPEAVICurveCtl@@@Z
_TEXT	SEGMENT
this$ = 8
curvenum$ = 16
pCCtl$ = 24
?NewCurveCreatedCallback@ResourceMakerCallback@@UEAAXHPEAVICurveCtl@@@Z PROC ; ResourceMakerCallback::NewCurveCreatedCallback, COMDAT

; 768  : 	virtual void NewCurveCreatedCallback(int curvenum, ICurveCtl *pCCtl){}

	ret	0
?NewCurveCreatedCallback@ResourceMakerCallback@@UEAAXHPEAVICurveCtl@@@Z ENDP ; ResourceMakerCallback::NewCurveCreatedCallback
_TEXT	ENDS
; Function compile flags: /Ogtp
; File c:\program files\autodesk\3ds max 2020 sdk\maxsdk\include\icurvctl.h
;	COMDAT ?ResetCallback@ResourceMakerCallback@@UEAAXHPEAVICurveCtl@@@Z
_TEXT	SEGMENT
this$ = 8
curvenum$ = 16
pCCtl$ = 24
?ResetCallback@ResourceMakerCallback@@UEAAXHPEAVICurveCtl@@@Z PROC ; ResourceMakerCallback::ResetCallback, COMDAT

; 756  : 	virtual void ResetCallback(int curvenum, ICurveCtl *pCCtl){}

	ret	0
?ResetCallback@ResourceMakerCallback@@UEAAXHPEAVICurveCtl@@@Z ENDP ; ResourceMakerCallback::ResetCallback
_TEXT	ENDS
; Function compile flags: /Ogtp
; File c:\program files\autodesk\3ds max 2020 sdk\maxsdk\include\icurvctl.h
;	COMDAT ?GetToolTip@ResourceMakerCallback@@UEAAHHAEAVWStr@@PEAVICurveCtl@@@Z
_TEXT	SEGMENT
this$ = 8
iButton$ = 16
ToolTip$ = 24
pCCtl$ = 32
?GetToolTip@ResourceMakerCallback@@UEAAHHAEAVWStr@@PEAVICurveCtl@@@Z PROC ; ResourceMakerCallback::GetToolTip, COMDAT

; 744  : 	virtual BOOL GetToolTip(int iButton, MSTR &ToolTip,ICurveCtl *pCCtl){return FALSE;}

	xor	eax, eax
	ret	0
?GetToolTip@ResourceMakerCallback@@UEAAHHAEAVWStr@@PEAVICurveCtl@@@Z ENDP ; ResourceMakerCallback::GetToolTip
_TEXT	ENDS
; Function compile flags: /Ogtp
; File c:\program files\autodesk\3ds max 2020 sdk\maxsdk\include\icurvctl.h
;	COMDAT ?SetCustomImageList@ResourceMakerCallback@@UEAAHAEAPEAU_IMAGELIST@@PEAVICurveCtl@@@Z
_TEXT	SEGMENT
this$ = 8
hCTools$ = 16
pCCtl$ = 24
?SetCustomImageList@ResourceMakerCallback@@UEAAHAEAPEAU_IMAGELIST@@PEAVICurveCtl@@@Z PROC ; ResourceMakerCallback::SetCustomImageList, COMDAT

; 721  : 	virtual BOOL SetCustomImageList(HIMAGELIST& hCTools, ICurveCtl* pCCtl){return FALSE;} 

	xor	eax, eax
	ret	0
?SetCustomImageList@ResourceMakerCallback@@UEAAHAEAPEAU_IMAGELIST@@PEAVICurveCtl@@@Z ENDP ; ResourceMakerCallback::SetCustomImageList
_TEXT	ENDS
; Function compile flags: /Ogtp
; File c:\program files\autodesk\3ds max 2020 sdk\maxsdk\include\iparamm2.h
;	COMDAT ??_GParamMap2UserDlgProc@@UEAAPEAXI@Z
_TEXT	SEGMENT
this$ = 48
__flags$ = 56
??_GParamMap2UserDlgProc@@UEAAPEAXI@Z PROC		; ParamMap2UserDlgProc::`scalar deleting destructor', COMDAT
$LN11:
	push	rbx
	sub	rsp, 32					; 00000020H

; 59   : 		virtual ~ParamMap2UserDlgProc() { }

	lea	rax, OFFSET FLAT:??_7ParamMap2UserDlgProc@@6B@
	mov	rbx, rcx
	mov	QWORD PTR [rcx], rax
	test	dl, 1
	je	SHORT $LN9@scalar
	test	dl, 4
	jne	SHORT $LN3@scalar
	call	QWORD PTR __imp_??3MaxHeapOperators@@SAXPEAX@Z
	mov	rax, rbx
	add	rsp, 32					; 00000020H
	pop	rbx
	ret	0
$LN3@scalar:
	mov	edx, 8
	call	?__global_delete@@YAXPEAX_K@Z		; __global_delete
$LN9@scalar:
	mov	rax, rbx
	add	rsp, 32					; 00000020H
	pop	rbx
	ret	0
??_GParamMap2UserDlgProc@@UEAAPEAXI@Z ENDP		; ParamMap2UserDlgProc::`scalar deleting destructor'
_TEXT	ENDS
; Function compile flags: /Ogtp
;	COMDAT ??0ParamMap2UserDlgProc@@QEAA@XZ
_TEXT	SEGMENT
this$ = 8
??0ParamMap2UserDlgProc@@QEAA@XZ PROC			; ParamMap2UserDlgProc::ParamMap2UserDlgProc, COMDAT
	lea	rax, OFFSET FLAT:??_7ParamMap2UserDlgProc@@6B@
	mov	QWORD PTR [rcx], rax
	mov	rax, rcx
	ret	0
??0ParamMap2UserDlgProc@@QEAA@XZ ENDP			; ParamMap2UserDlgProc::ParamMap2UserDlgProc
_TEXT	ENDS
; Function compile flags: /Ogtp
; File c:\program files\autodesk\3ds max 2020 sdk\maxsdk\include\iparamm2.h
;	COMDAT ?Update@ParamMap2UserDlgProc@@UEAAXHAEAVInterval@@PEAVIParamMap2@@@Z
_TEXT	SEGMENT
this$ = 8
t$ = 16
valid$ = 24
pmap$ = 32
?Update@ParamMap2UserDlgProc@@UEAAXHAEAVInterval@@PEAVIParamMap2@@@Z PROC ; ParamMap2UserDlgProc::Update, COMDAT

; 89   : 		virtual void Update(TimeValue t, Interval& valid, IParamMap2* pmap) { this->Update(t); }

	mov	rax, QWORD PTR [rcx]
	rex_jmp	QWORD PTR [rax+40]
?Update@ParamMap2UserDlgProc@@UEAAXHAEAVInterval@@PEAVIParamMap2@@@Z ENDP ; ParamMap2UserDlgProc::Update
_TEXT	ENDS
; Function compile flags: /Ogtp
; File c:\program files\autodesk\3ds max 2020 sdk\maxsdk\include\iparamm2.h
;	COMDAT ?SetParamBlock@ParamMap2UserDlgProc@@UEAAXPEAVIParamBlock2@@@Z
_TEXT	SEGMENT
this$ = 8
pb$ = 16
?SetParamBlock@ParamMap2UserDlgProc@@UEAAXPEAVIParamBlock2@@@Z PROC ; ParamMap2UserDlgProc::SetParamBlock, COMDAT

; 76   : 		virtual void SetParamBlock(IParamBlock2 *pb) { }

	ret	0
?SetParamBlock@ParamMap2UserDlgProc@@UEAAXPEAVIParamBlock2@@@Z ENDP ; ParamMap2UserDlgProc::SetParamBlock
_TEXT	ENDS
; Function compile flags: /Ogtp
; File c:\program files\autodesk\3ds max 2020 sdk\maxsdk\include\iparamm2.h
;	COMDAT ?Update@ParamMap2UserDlgProc@@UEAAXH@Z
_TEXT	SEGMENT
this$ = 8
t$ = 16
?Update@ParamMap2UserDlgProc@@UEAAXH@Z PROC		; ParamMap2UserDlgProc::Update, COMDAT

; 75   : 		virtual void Update(TimeValue t) { }

	ret	0
?Update@ParamMap2UserDlgProc@@UEAAXH@Z ENDP		; ParamMap2UserDlgProc::Update
_TEXT	ENDS
; Function compile flags: /Ogtp
; File c:\program files\autodesk\3ds max 2020 sdk\maxsdk\include\iparamm2.h
;	COMDAT ?SetThing@ParamMap2UserDlgProc@@UEAAXPEAVReferenceTarget@@@Z
_TEXT	SEGMENT
this$ = 8
m$ = 16
?SetThing@ParamMap2UserDlgProc@@UEAAXPEAVReferenceTarget@@@Z PROC ; ParamMap2UserDlgProc::SetThing, COMDAT

; 74   : 		virtual void SetThing(ReferenceTarget *m) { }

	ret	0
?SetThing@ParamMap2UserDlgProc@@UEAAXPEAVReferenceTarget@@@Z ENDP ; ParamMap2UserDlgProc::SetThing
_TEXT	ENDS
; Function compile flags: /Ogtp
; File c:\program files\autodesk\3ds max 2020 sdk\maxsdk\include\iparamm2.h
;	COMDAT ??1ParamMap2UserDlgProc@@UEAA@XZ
_TEXT	SEGMENT
this$ = 8
??1ParamMap2UserDlgProc@@UEAA@XZ PROC			; ParamMap2UserDlgProc::~ParamMap2UserDlgProc, COMDAT

; 59   : 		virtual ~ParamMap2UserDlgProc() { }

	lea	rax, OFFSET FLAT:??_7ParamMap2UserDlgProc@@6B@
	mov	QWORD PTR [rcx], rax
	ret	0
??1ParamMap2UserDlgProc@@UEAA@XZ ENDP			; ParamMap2UserDlgProc::~ParamMap2UserDlgProc
_TEXT	ENDS
; Function compile flags: /Ogtp
; File c:\program files\autodesk\3ds max 2020 sdk\maxsdk\include\iparamb2.h
;	COMDAT ?SetUserDlgProc@ParamBlockDesc2@@QEAAXPEAVParamMap2UserDlgProc@@@Z
_TEXT	SEGMENT
this$ = 8
proc$ = 16
?SetUserDlgProc@ParamBlockDesc2@@QEAAXPEAVParamMap2UserDlgProc@@@Z PROC ; ParamBlockDesc2::SetUserDlgProc, COMDAT

; 4077 : 	inline void		SetUserDlgProc(ParamMap2UserDlgProc* proc=NULL) { SetUserDlgProc(0, proc); }

	mov	r8, rdx
	xor	edx, edx
	rex_jmp	QWORD PTR __imp_?SetUserDlgProc@ParamBlockDesc2@@QEAAXFPEAVParamMap2UserDlgProc@@@Z
?SetUserDlgProc@ParamBlockDesc2@@QEAAXPEAVParamMap2UserDlgProc@@@Z ENDP ; ParamBlockDesc2::SetUserDlgProc
_TEXT	ENDS
; Function compile flags: /Ogtp
; File c:\program files\autodesk\3ds max 2020 sdk\maxsdk\include\iparamb2.inline.h
;	COMDAT ?CreateQtWidget@ClassDesc2@@UEAAPEAVQMaxParamBlockWidget@MaxSDK@@AEAVReferenceMaker@@AEAVIParamBlock2@@FAEAVWStr@@AEAH3AEAVClass_ID@@@Z
_TEXT	SEGMENT
this$ = 8
owner$ = 16
paramBlock$ = 24
paramMapID$ = 32
rollupTitle$ = 40
rollupFlags$ = 48
rollupCategory$ = 56
__formal$ = 64
?CreateQtWidget@ClassDesc2@@UEAAPEAVQMaxParamBlockWidget@MaxSDK@@AEAVReferenceMaker@@AEAVIParamBlock2@@FAEAVWStr@@AEAH3AEAVClass_ID@@@Z PROC ; ClassDesc2::CreateQtWidget, COMDAT

; 306  :     // Default implementation calls the method above, ignoring the tabID parameter.
; 307  :     // This method only needs to be implemented in plugins with a Qt-based UI that add a Qt widget to the Render Settings dialog.
; 308  :     return CreateQtWidget(owner, paramBlock, paramMapID, rollupTitle, rollupFlags, rollupCategory);

	mov	r10, QWORD PTR [rcx]
	rex_jmp	QWORD PTR [r10+408]
?CreateQtWidget@ClassDesc2@@UEAAPEAVQMaxParamBlockWidget@MaxSDK@@AEAVReferenceMaker@@AEAVIParamBlock2@@FAEAVWStr@@AEAH3AEAVClass_ID@@@Z ENDP ; ClassDesc2::CreateQtWidget
_TEXT	ENDS
; Function compile flags: /Ogtp
; File c:\program files\autodesk\3ds max 2020 sdk\maxsdk\include\iparamb2.inline.h
;	COMDAT ?CreateQtWidget@ClassDesc2@@UEAAPEAVQMaxParamBlockWidget@MaxSDK@@AEAVReferenceMaker@@AEAVIParamBlock2@@FAEAVWStr@@AEAH3@Z
_TEXT	SEGMENT
this$ = 8
__formal$ = 16
__formal$ = 24
__formal$ = 32
__formal$ = 40
__formal$ = 48
__formal$ = 56
?CreateQtWidget@ClassDesc2@@UEAAPEAVQMaxParamBlockWidget@MaxSDK@@AEAVReferenceMaker@@AEAVIParamBlock2@@FAEAVWStr@@AEAH3@Z PROC ; ClassDesc2::CreateQtWidget, COMDAT

; 291  :     // Default implementation returns null.
; 292  :     // This method only needs to be implemented in plugins with a Qt-based UI that add a Qt widget to any dialog except the Render Settings dialog.
; 293  :     return nullptr;

	xor	eax, eax

; 294  : }

	ret	0
?CreateQtWidget@ClassDesc2@@UEAAPEAVQMaxParamBlockWidget@MaxSDK@@AEAVReferenceMaker@@AEAVIParamBlock2@@FAEAVWStr@@AEAH3@Z ENDP ; ClassDesc2::CreateQtWidget
_TEXT	ENDS
; Function compile flags: /Ogtp
; File c:\program files\autodesk\3ds max 2020 sdk\maxsdk\include\iparamb2.h
;	COMDAT ?SetUserDlgProc@ClassDesc2@@UEAA_NPEAVParamBlockDesc2@@PEAVParamMap2UserDlgProc@@@Z
_TEXT	SEGMENT
this$ = 8
pbd$ = 16
proc$ = 24
?SetUserDlgProc@ClassDesc2@@UEAA_NPEAVParamBlockDesc2@@PEAVParamMap2UserDlgProc@@@Z PROC ; ClassDesc2::SetUserDlgProc, COMDAT

; 2655 : 	inline bool SetUserDlgProc(ParamBlockDesc2* pbd, ParamMap2UserDlgProc* proc=NULL) { return SetUserDlgProc(pbd, 0, proc); }

	mov	r9, r8
	xor	r8d, r8d
	rex_jmp	QWORD PTR __imp_?SetUserDlgProc@ClassDesc2@@QEAA_NPEAVParamBlockDesc2@@FPEAVParamMap2UserDlgProc@@@Z
?SetUserDlgProc@ClassDesc2@@UEAA_NPEAVParamBlockDesc2@@PEAVParamMap2UserDlgProc@@@Z ENDP ; ClassDesc2::SetUserDlgProc
_TEXT	ENDS
; Function compile flags: /Ogtp
; File c:\program files\autodesk\3ds max 2020 sdk\maxsdk\include\mesh.h
; File c:\program files\autodesk\3ds max 2020 sdk\maxsdk\include\tab.h
; File c:\program files\autodesk\3ds max 2020 sdk\maxsdk\include\mesh.h
;	COMDAT ??0VertexNormalsControl@@QEAA@XZ
_TEXT	SEGMENT
$T1 = 0
this$ = 32
??0VertexNormalsControl@@QEAA@XZ PROC			; VertexNormalsControl::VertexNormalsControl, COMDAT

; 2949 : 	DllExport VertexNormalsControl () : mUseFaceAngles(true) { }

$LN6:
	mov	QWORD PTR [rsp+8], rcx
	sub	rsp, 24
	mov	QWORD PTR $T1[rsp], -2
	mov	BYTE PTR [rcx], 1
; File c:\program files\autodesk\3ds max 2020 sdk\maxsdk\include\tab.h

; 187  : 		{

	lea	rax, OFFSET FLAT:??_7?$Tab@PEAVVertexNormalsCallback@@@@6B@
	mov	QWORD PTR [rcx+8], rax

; 186  : 		Tab() : th(NULL)

	mov	QWORD PTR [rcx+16], 0
; File c:\program files\autodesk\3ds max 2020 sdk\maxsdk\include\mesh.h

; 2949 : 	DllExport VertexNormalsControl () : mUseFaceAngles(true) { }

	mov	rax, rcx
	add	rsp, 24
	ret	0
??0VertexNormalsControl@@QEAA@XZ ENDP			; VertexNormalsControl::VertexNormalsControl
_TEXT	ENDS
;	COMDAT text$x
text$x	SEGMENT
$T1 = 0
this$ = 32
?dtor$0@?0???0VertexNormalsControl@@QEAA@XZ@4HA PROC	; `VertexNormalsControl::VertexNormalsControl'::`1'::dtor$0
	mov	rcx, QWORD PTR this$[rdx]
	add	rcx, 8
	jmp	??1?$Tab@PEAVVertexNormalsCallback@@@@UEAA@XZ ; Tab<VertexNormalsCallback * __ptr64>::~Tab<VertexNormalsCallback * __ptr64>
?dtor$0@?0???0VertexNormalsControl@@QEAA@XZ@4HA ENDP	; `VertexNormalsControl::VertexNormalsControl'::`1'::dtor$0
text$x	ENDS
; Function compile flags: /Ogtp
;	COMDAT text$x
text$x	SEGMENT
$T1 = 0
this$ = 32
?dtor$0@?0???0VertexNormalsControl@@QEAA@XZ@4HA PROC	; `VertexNormalsControl::VertexNormalsControl'::`1'::dtor$0
	mov	rcx, QWORD PTR this$[rdx]
	add	rcx, 8
	jmp	??1?$Tab@PEAVVertexNormalsCallback@@@@UEAA@XZ ; Tab<VertexNormalsCallback * __ptr64>::~Tab<VertexNormalsCallback * __ptr64>
?dtor$0@?0???0VertexNormalsControl@@QEAA@XZ@4HA ENDP	; `VertexNormalsControl::VertexNormalsControl'::`1'::dtor$0
text$x	ENDS
; Function compile flags: /Ogtp
; File c:\program files\autodesk\3ds max 2020 sdk\maxsdk\include\tab.h
;	COMDAT ??_G?$Tab@PEAVVertexNormalsCallback@@@@UEAAPEAXI@Z
_TEXT	SEGMENT
$T1 = 32
this$ = 64
__flags$ = 72
??_G?$Tab@PEAVVertexNormalsCallback@@@@UEAAPEAXI@Z PROC	; Tab<VertexNormalsCallback * __ptr64>::`scalar deleting destructor', COMDAT
$LN10:
	push	rdi
	sub	rsp, 48					; 00000030H
	mov	QWORD PTR $T1[rsp], -2
	mov	QWORD PTR [rsp+64], rbx
	mov	edi, edx
	mov	rbx, rcx

; 204  : 		virtual ~Tab() {

	lea	rax, OFFSET FLAT:??_7?$Tab@PEAVVertexNormalsCallback@@@@6B@
	mov	QWORD PTR [rcx], rax

; 205  : 			zfree((void**)&th);

	add	rcx, 8
	call	QWORD PTR __imp_?zfree@@YAXPEAPEAX@Z
	npad	1
	test	dil, 1
	je	SHORT $LN9@scalar
	mov	rcx, rbx
	test	dil, 4
	jne	SHORT $LN3@scalar
	call	QWORD PTR __imp_??3MaxHeapOperators@@SAXPEAX@Z
	npad	1
	jmp	SHORT $LN9@scalar
$LN3@scalar:
	mov	edx, 16
	call	?__global_delete@@YAXPEAX_K@Z		; __global_delete
	npad	1
$LN9@scalar:
	mov	rax, rbx
	mov	rbx, QWORD PTR [rsp+64]
	add	rsp, 48					; 00000030H
	pop	rdi
	ret	0
??_G?$Tab@PEAVVertexNormalsCallback@@@@UEAAPEAXI@Z ENDP	; Tab<VertexNormalsCallback * __ptr64>::`scalar deleting destructor'
_TEXT	ENDS
; Function compile flags: /Ogtp
; File c:\program files\autodesk\3ds max 2020 sdk\maxsdk\include\tab.h
;	COMDAT ??1?$Tab@PEAVVertexNormalsCallback@@@@UEAA@XZ
_TEXT	SEGMENT
$T1 = 32
this$ = 64
??1?$Tab@PEAVVertexNormalsCallback@@@@UEAA@XZ PROC	; Tab<VertexNormalsCallback * __ptr64>::~Tab<VertexNormalsCallback * __ptr64>, COMDAT

; 204  : 		virtual ~Tab() {

$LN3:
	sub	rsp, 56					; 00000038H
	mov	QWORD PTR $T1[rsp], -2
	lea	rax, OFFSET FLAT:??_7?$Tab@PEAVVertexNormalsCallback@@@@6B@
	mov	QWORD PTR [rcx], rax

; 205  : 			zfree((void**)&th);

	add	rcx, 8
	call	QWORD PTR __imp_?zfree@@YAXPEAPEAX@Z
	npad	1

; 206  : 		}

	add	rsp, 56					; 00000038H
	ret	0
??1?$Tab@PEAVVertexNormalsCallback@@@@UEAA@XZ ENDP	; Tab<VertexNormalsCallback * __ptr64>::~Tab<VertexNormalsCallback * __ptr64>
_TEXT	ENDS
; Function compile flags: /Ogtp
; File c:\program files\autodesk\3ds max 2020 sdk\maxsdk\include\tab.h
;	COMDAT ??0?$Tab@PEAVVertexNormalsCallback@@@@QEAA@XZ
_TEXT	SEGMENT
this$ = 8
??0?$Tab@PEAVVertexNormalsCallback@@@@QEAA@XZ PROC	; Tab<VertexNormalsCallback * __ptr64>::Tab<VertexNormalsCallback * __ptr64>, COMDAT

; 187  : 		{

	lea	rax, OFFSET FLAT:??_7?$Tab@PEAVVertexNormalsCallback@@@@6B@

; 186  : 		Tab() : th(NULL)

	mov	QWORD PTR [rcx+8], 0
	mov	QWORD PTR [rcx], rax

; 188  : 			ADSK_MAXSDK_IS_PLAIN_OLD_DATA_TYPE(T);
; 189  : 		}

	mov	rax, rcx
	ret	0
??0?$Tab@PEAVVertexNormalsCallback@@@@QEAA@XZ ENDP	; Tab<VertexNormalsCallback * __ptr64>::Tab<VertexNormalsCallback * __ptr64>
_TEXT	ENDS
; Function compile flags: /Ogtp
;	COMDAT ??1Texmap@@UEAA@XZ
_TEXT	SEGMENT
$T1 = 32
this$ = 64
??1Texmap@@UEAA@XZ PROC					; Texmap::~Texmap, COMDAT
$LN4:
	mov	QWORD PTR [rsp+8], rcx
	sub	rsp, 56					; 00000038H
	mov	QWORD PTR $T1[rsp], -2
	add	rsp, 56					; 00000038H
	rex_jmp	QWORD PTR __imp_??1MtlBase@@UEAA@XZ
??1Texmap@@UEAA@XZ ENDP					; Texmap::~Texmap
_TEXT	ENDS
;	COMDAT text$x
text$x	SEGMENT
$T1 = 32
this$ = 64
?dtor$0@?0???1Texmap@@UEAA@XZ@4HA PROC			; `Texmap::~Texmap'::`1'::dtor$0
	mov	rcx, QWORD PTR this$[rdx]
	rex_jmp	QWORD PTR __imp_??1MtlBase@@UEAA@XZ
?dtor$0@?0???1Texmap@@UEAA@XZ@4HA ENDP			; `Texmap::~Texmap'::`1'::dtor$0
text$x	ENDS
; Function compile flags: /Ogtp
;	COMDAT text$x
text$x	SEGMENT
$T1 = 32
this$ = 64
?dtor$0@?0???1Texmap@@UEAA@XZ@4HA PROC			; `Texmap::~Texmap'::`1'::dtor$0
	mov	rcx, QWORD PTR this$[rdx]
	rex_jmp	QWORD PTR __imp_??1MtlBase@@UEAA@XZ
?dtor$0@?0???1Texmap@@UEAA@XZ@4HA ENDP			; `Texmap::~Texmap'::`1'::dtor$0
text$x	ENDS
; Function compile flags: /Ogtp
; File c:\program files\autodesk\3ds max 2020 sdk\maxsdk\include\materials\texmap.h
;	COMDAT ?IsHighDynamicRange@Texmap@@UEBAHXZ
_TEXT	SEGMENT
this$ = 8
?IsHighDynamicRange@Texmap@@UEBAHXZ PROC		; Texmap::IsHighDynamicRange, COMDAT

; 483  : 			virtual int IsHighDynamicRange( ) const { return false; }

	xor	eax, eax
	ret	0
?IsHighDynamicRange@Texmap@@UEBAHXZ ENDP		; Texmap::IsHighDynamicRange
_TEXT	ENDS
; Function compile flags: /Ogtp
; File c:\program files\autodesk\3ds max 2020 sdk\maxsdk\include\materials\texmap.h
;	COMDAT ?LoadMapFiles@Texmap@@UEAAHH@Z
_TEXT	SEGMENT
this$ = 8
t$ = 16
?LoadMapFiles@Texmap@@UEAAHH@Z PROC			; Texmap::LoadMapFiles, COMDAT

; 450  : 			virtual int LoadMapFiles(TimeValue t) { return 1; } 

	mov	eax, 1
	ret	0
?LoadMapFiles@Texmap@@UEAAHH@Z ENDP			; Texmap::LoadMapFiles
_TEXT	ENDS
; Function compile flags: /Ogtp
; File c:\program files\autodesk\3ds max 2020 sdk\maxsdk\include\materials\texmap.h
;	COMDAT ?IsLocalOutputMeaningful@Texmap@@UEAA_NAEAVShadeContext@@@Z
_TEXT	SEGMENT
this$ = 8
sc$ = 16
?IsLocalOutputMeaningful@Texmap@@UEAA_NAEAVShadeContext@@@Z PROC ; Texmap::IsLocalOutputMeaningful, COMDAT

; 364  : 			virtual bool IsLocalOutputMeaningful( ShadeContext& sc ) { return false; }

	xor	al, al
	ret	0
?IsLocalOutputMeaningful@Texmap@@UEAA_NAEAVShadeContext@@@Z ENDP ; Texmap::IsLocalOutputMeaningful
_TEXT	ENDS
; Function compile flags: /Ogtp
; File c:\program files\autodesk\3ds max 2020 sdk\maxsdk\include\materials\texmap.h
;	COMDAT ?SetOutputLevel@Texmap@@UEAAXHM@Z
_TEXT	SEGMENT
this$ = 8
t$ = 16
v$ = 24
?SetOutputLevel@Texmap@@UEAAXHM@Z PROC			; Texmap::SetOutputLevel, COMDAT

; 338  : 			virtual void SetOutputLevel(TimeValue t, float v) {}

	ret	0
?SetOutputLevel@Texmap@@UEAAXHM@Z ENDP			; Texmap::SetOutputLevel
_TEXT	ENDS
; Function compile flags: /Ogtp
; File c:\program files\autodesk\3ds max 2020 sdk\maxsdk\include\materials\texmap.h
;	COMDAT ?GetTheXYZGen@Texmap@@UEAAPEAVXYZGen@@XZ
_TEXT	SEGMENT
this$ = 8
?GetTheXYZGen@Texmap@@UEAAPEAVXYZGen@@XZ PROC		; Texmap::GetTheXYZGen, COMDAT

; 317  : 			virtual XYZGen *GetTheXYZGen() { return NULL; } // maps with a XYZGen should implement this

	xor	eax, eax
	ret	0
?GetTheXYZGen@Texmap@@UEAAPEAVXYZGen@@XZ ENDP		; Texmap::GetTheXYZGen
_TEXT	ENDS
; Function compile flags: /Ogtp
; File c:\program files\autodesk\3ds max 2020 sdk\maxsdk\include\materials\texmap.h
;	COMDAT ?GetTheUVGen@Texmap@@UEAAPEAVUVGen@@XZ
_TEXT	SEGMENT
this$ = 8
?GetTheUVGen@Texmap@@UEAAPEAVUVGen@@XZ PROC		; Texmap::GetTheUVGen, COMDAT

; 312  : 			virtual UVGen *GetTheUVGen() { return NULL; }  // maps with a UVGen should implement this

	xor	eax, eax
	ret	0
?GetTheUVGen@Texmap@@UEAAPEAVUVGen@@XZ ENDP		; Texmap::GetTheUVGen
_TEXT	ENDS
; Function compile flags: /Ogtp
; File c:\program files\autodesk\3ds max 2020 sdk\maxsdk\include\materials\texmap.h
;	COMDAT ?MapSlotType@Texmap@@UEAAHH@Z
_TEXT	SEGMENT
this$ = 8
i$ = 16
?MapSlotType@Texmap@@UEAAHH@Z PROC			; Texmap::MapSlotType, COMDAT

; 303  : 			virtual int MapSlotType(int i) { return defaultSlotType; }

	mov	eax, DWORD PTR [rcx+20]
	ret	0
?MapSlotType@Texmap@@UEAAHH@Z ENDP			; Texmap::MapSlotType
_TEXT	ENDS
; Function compile flags: /Ogtp
; File c:\program files\autodesk\3ds max 2020 sdk\maxsdk\include\materials\texmap.h
;	COMDAT ?InitSlotType@Texmap@@UEAAXH@Z
_TEXT	SEGMENT
this$ = 8
sType$ = 16
?InitSlotType@Texmap@@UEAAXH@Z PROC			; Texmap::InitSlotType, COMDAT

; 302  : 			virtual void InitSlotType(int sType) { defaultSlotType = sType; }          

	mov	DWORD PTR [rcx+92], edx
	ret	0
?InitSlotType@Texmap@@UEAAXH@Z ENDP			; Texmap::InitSlotType
_TEXT	ENDS
; Function compile flags: /Ogtp
; File c:\program files\autodesk\3ds max 2020 sdk\maxsdk\include\materials\texmap.h
;	COMDAT ?GetMapChannel@Texmap@@UEAAHXZ
_TEXT	SEGMENT
this$ = 8
?GetMapChannel@Texmap@@UEAAHXZ PROC			; Texmap::GetMapChannel, COMDAT

; 287  : 			virtual int GetMapChannel () { return 1; }   // only relevant if above returns UVWSRC_EXPLICIT

	mov	eax, 1
	ret	0
?GetMapChannel@Texmap@@UEAAHXZ ENDP			; Texmap::GetMapChannel
_TEXT	ENDS
; Function compile flags: /Ogtp
; File c:\program files\autodesk\3ds max 2020 sdk\maxsdk\include\materials\texmap.h
;	COMDAT ?GetUVWSource@Texmap@@UEAAHXZ
_TEXT	SEGMENT
this$ = 8
?GetUVWSource@Texmap@@UEAAHXZ PROC			; Texmap::GetUVWSource, COMDAT

; 281  : 			virtual int GetUVWSource() { return UVWSRC_EXPLICIT; }

	xor	eax, eax
	ret	0
?GetUVWSource@Texmap@@UEAAHXZ ENDP			; Texmap::GetUVWSource
_TEXT	ENDS
; Function compile flags: /Ogtp
; File c:\program files\autodesk\3ds max 2020 sdk\maxsdk\include\materials\texmap.h
;	COMDAT ?GetTextureTiling@Texmap@@UEAAHXZ
_TEXT	SEGMENT
this$ = 8
?GetTextureTiling@Texmap@@UEAAHXZ PROC			; Texmap::GetTextureTiling, COMDAT

; 256  : 			virtual int GetTextureTiling() { return  U_WRAP|V_WRAP; }

	mov	eax, 3
	ret	0
?GetTextureTiling@Texmap@@UEAAHXZ ENDP			; Texmap::GetTextureTiling
_TEXT	ENDS
; Function compile flags: /Ogtp
; File c:\program files\autodesk\3ds max 2020 sdk\maxsdk\include\materials\texmap.h
;	COMDAT ?GetUVTransform@Texmap@@UEAAXAEAVMatrix3@@@Z
_TEXT	SEGMENT
this$ = 8
uvtrans$ = 16
?GetUVTransform@Texmap@@UEAAXAEAVMatrix3@@@Z PROC	; Texmap::GetUVTransform, COMDAT

; 247  : 			virtual  void GetUVTransform(Matrix3 &uvtrans) { uvtrans.IdentityMatrix(); }

	mov	rcx, rdx
	rex_jmp	QWORD PTR __imp_?IdentityMatrix@Matrix3@@QEAAXXZ
?GetUVTransform@Texmap@@UEAAXAEAVMatrix3@@@Z ENDP	; Texmap::GetUVTransform
_TEXT	ENDS
; Function compile flags: /Ogtp
; File c:\program files\autodesk\3ds max 2020 sdk\maxsdk\include\materials\texmap.h
;	COMDAT ?HandleOwnViewPerturb@Texmap@@UEAAHXZ
_TEXT	SEGMENT
this$ = 8
?HandleOwnViewPerturb@Texmap@@UEAAHXZ PROC		; Texmap::HandleOwnViewPerturb, COMDAT

; 207  : 			virtual BOOL HandleOwnViewPerturb() { return FALSE; }

	xor	eax, eax
	ret	0
?HandleOwnViewPerturb@Texmap@@UEAAHXZ ENDP		; Texmap::HandleOwnViewPerturb
_TEXT	ENDS
; Function compile flags: /Ogtp
;	COMDAT ??_GICustomControl@@UEAAPEAXI@Z
_TEXT	SEGMENT
$T1 = 32
this$ = 64
__flags$ = 72
??_GICustomControl@@UEAAPEAXI@Z PROC			; ICustomControl::`scalar deleting destructor', COMDAT
$LN11:
	mov	QWORD PTR [rsp+8], rcx
	push	rdi
	sub	rsp, 48					; 00000030H
	mov	QWORD PTR $T1[rsp], -2
	mov	QWORD PTR [rsp+72], rbx
	mov	edi, edx
	mov	rbx, rcx
	call	QWORD PTR __imp_??1InterfaceServer@@UEAA@XZ
	npad	1
	test	dil, 1
	je	SHORT $LN10@scalar
	mov	rcx, rbx
	test	dil, 4
	jne	SHORT $LN3@scalar
	call	QWORD PTR __imp_??3MaxHeapOperators@@SAXPEAX@Z
	npad	1
	jmp	SHORT $LN10@scalar
$LN3@scalar:
	mov	edx, 8
	call	?__global_delete@@YAXPEAX_K@Z		; __global_delete
	npad	1
$LN10@scalar:
	mov	rax, rbx
	mov	rbx, QWORD PTR [rsp+72]
	add	rsp, 48					; 00000030H
	pop	rdi
	ret	0
??_GICustomControl@@UEAAPEAXI@Z ENDP			; ICustomControl::`scalar deleting destructor'
_TEXT	ENDS
;	COMDAT text$x
text$x	SEGMENT
$T1 = 32
this$ = 64
__flags$ = 72
?dtor$0@?0???_GICustomControl@@UEAAPEAXI@Z@4HA PROC	; `ICustomControl::`scalar deleting destructor''::`1'::dtor$0
	mov	rcx, QWORD PTR this$[rdx]
	rex_jmp	QWORD PTR __imp_??1InterfaceServer@@UEAA@XZ
?dtor$0@?0???_GICustomControl@@UEAAPEAXI@Z@4HA ENDP	; `ICustomControl::`scalar deleting destructor''::`1'::dtor$0
text$x	ENDS
; Function compile flags: /Ogtp
;	COMDAT text$x
text$x	SEGMENT
$T1 = 32
this$ = 64
__flags$ = 72
?dtor$0@?0???_GICustomControl@@UEAAPEAXI@Z@4HA PROC	; `ICustomControl::`scalar deleting destructor''::`1'::dtor$0
	mov	rcx, QWORD PTR this$[rdx]
	rex_jmp	QWORD PTR __imp_??1InterfaceServer@@UEAA@XZ
?dtor$0@?0???_GICustomControl@@UEAAPEAXI@Z@4HA ENDP	; `ICustomControl::`scalar deleting destructor''::`1'::dtor$0
text$x	ENDS
; Function compile flags: /Ogtp
;	COMDAT ??1ICustomControl@@UEAA@XZ
_TEXT	SEGMENT
$T1 = 32
this$ = 64
??1ICustomControl@@UEAA@XZ PROC				; ICustomControl::~ICustomControl, COMDAT
$LN4:
	mov	QWORD PTR [rsp+8], rcx
	sub	rsp, 56					; 00000038H
	mov	QWORD PTR $T1[rsp], -2
	add	rsp, 56					; 00000038H
	rex_jmp	QWORD PTR __imp_??1InterfaceServer@@UEAA@XZ
??1ICustomControl@@UEAA@XZ ENDP				; ICustomControl::~ICustomControl
_TEXT	ENDS
;	COMDAT text$x
text$x	SEGMENT
$T1 = 32
this$ = 64
?dtor$0@?0???1ICustomControl@@UEAA@XZ@4HA PROC		; `ICustomControl::~ICustomControl'::`1'::dtor$0
	mov	rcx, QWORD PTR this$[rdx]
	rex_jmp	QWORD PTR __imp_??1InterfaceServer@@UEAA@XZ
?dtor$0@?0???1ICustomControl@@UEAA@XZ@4HA ENDP		; `ICustomControl::~ICustomControl'::`1'::dtor$0
text$x	ENDS
; Function compile flags: /Ogtp
;	COMDAT text$x
text$x	SEGMENT
$T1 = 32
this$ = 64
?dtor$0@?0???1ICustomControl@@UEAA@XZ@4HA PROC		; `ICustomControl::~ICustomControl'::`1'::dtor$0
	mov	rcx, QWORD PTR this$[rdx]
	rex_jmp	QWORD PTR __imp_??1InterfaceServer@@UEAA@XZ
?dtor$0@?0???1ICustomControl@@UEAA@XZ@4HA ENDP		; `ICustomControl::~ICustomControl'::`1'::dtor$0
text$x	ENDS
; Function compile flags: /Ogtp
;	COMDAT ??0ICustomControl@@QEAA@XZ
_TEXT	SEGMENT
$T1 = 0
this$ = 32
??0ICustomControl@@QEAA@XZ PROC				; ICustomControl::ICustomControl, COMDAT
$LN6:
	mov	QWORD PTR [rsp+8], rcx
	sub	rsp, 24
	mov	QWORD PTR $T1[rsp], -2
	lea	rax, OFFSET FLAT:??_7InterfaceServer@@6B@
	mov	QWORD PTR [rcx], rax
	lea	rax, OFFSET FLAT:??_7ICustomControl@@6B@
	mov	QWORD PTR [rcx], rax
	mov	rax, rcx
	add	rsp, 24
	ret	0
??0ICustomControl@@QEAA@XZ ENDP				; ICustomControl::ICustomControl
_TEXT	ENDS
;	COMDAT text$x
text$x	SEGMENT
$T1 = 0
this$ = 32
?dtor$0@?0???0ICustomControl@@QEAA@XZ@4HA PROC		; `ICustomControl::ICustomControl'::`1'::dtor$0
	mov	rcx, QWORD PTR this$[rdx]
	rex_jmp	QWORD PTR __imp_??1InterfaceServer@@UEAA@XZ
?dtor$0@?0???0ICustomControl@@QEAA@XZ@4HA ENDP		; `ICustomControl::ICustomControl'::`1'::dtor$0
text$x	ENDS
; Function compile flags: /Ogtp
;	COMDAT text$x
text$x	SEGMENT
$T1 = 0
this$ = 32
?dtor$0@?0???0ICustomControl@@QEAA@XZ@4HA PROC		; `ICustomControl::ICustomControl'::`1'::dtor$0
	mov	rcx, QWORD PTR this$[rdx]
	rex_jmp	QWORD PTR __imp_??1InterfaceServer@@UEAA@XZ
?dtor$0@?0???0ICustomControl@@QEAA@XZ@4HA ENDP		; `ICustomControl::ICustomControl'::`1'::dtor$0
text$x	ENDS
; Function compile flags: /Ogtp
; File c:\program files\autodesk\3ds max 2020 sdk\maxsdk\include\custcont.h
;	COMDAT ?Execute@ICustomControl@@UEAA_JH_K00@Z
_TEXT	SEGMENT
this$ = 8
cmd$ = 16
arg1$ = 24
arg2$ = 32
arg3$ = 40
?Execute@ICustomControl@@UEAA_JH_K00@Z PROC		; ICustomControl::Execute, COMDAT

; 407  : 		virtual INT_PTR Execute(int cmd, ULONG_PTR arg1=0, ULONG_PTR arg2=0, ULONG_PTR arg3=0) { return 0; }

	xor	eax, eax
	ret	0
?Execute@ICustomControl@@UEAA_JH_K00@Z ENDP		; ICustomControl::Execute
_TEXT	ENDS
; Function compile flags: /Ogtp
; File c:\program files\autodesk\3ds max 2020 sdk\maxsdk\include\materials\mtlbase.h
;	COMDAT ?GetTransparencyHint@MtlBase@@UEAAHHAEAVInterval@@@Z
_TEXT	SEGMENT
this$ = 8
t$ = 16
valid$ = 24
?GetTransparencyHint@MtlBase@@UEAAHHAEAVInterval@@@Z PROC ; MtlBase::GetTransparencyHint, COMDAT

; 752  : 			virtual BOOL GetTransparencyHint(TimeValue t, Interval& valid) { return TRUE; }

	mov	eax, 1
	ret	0
?GetTransparencyHint@MtlBase@@UEAAHHAEAVInterval@@@Z ENDP ; MtlBase::GetTransparencyHint
_TEXT	ENDS
; Function compile flags: /Ogtp
; File c:\program files\autodesk\3ds max 2020 sdk\maxsdk\include\materials\mtlbase.h
;	COMDAT ?GetRefTarget@MtlBase@@UEAAPEAVReferenceTarget@@XZ
_TEXT	SEGMENT
this$ = 8
?GetRefTarget@MtlBase@@UEAAPEAVReferenceTarget@@XZ PROC	; MtlBase::GetRefTarget, COMDAT

; 738  : 			virtual ReferenceTarget *GetRefTarget(){return this;}

	lea	rax, QWORD PTR [rcx-72]
	ret	0
?GetRefTarget@MtlBase@@UEAAPEAVReferenceTarget@@XZ ENDP	; MtlBase::GetRefTarget
_TEXT	ENDS
; Function compile flags: /Ogtp
; File c:\program files\autodesk\3ds max 2020 sdk\maxsdk\include\materials\mtlbase.h
; File c:\program files\autodesk\3ds max 2020 sdk\maxsdk\include\maxtypes.h
; File c:\program files\autodesk\3ds max 2020 sdk\maxsdk\include\materials\mtlbase.h
; File c:\program files\autodesk\3ds max 2020 sdk\maxsdk\include\maxtypes.h
; File c:\program files\autodesk\3ds max 2020 sdk\maxsdk\include\materials\mtlbase.h
;	COMDAT ?GetInterface@MtlBase@@UEAAPEAVBaseInterface@@VInterface_ID@@@Z
_TEXT	SEGMENT
$T1 = 32
this$ = 64
id$ = 72
?GetInterface@MtlBase@@UEAAPEAVBaseInterface@@VInterface_ID@@@Z PROC ; MtlBase::GetInterface, COMDAT

; 737  :             virtual BaseInterface *GetInterface(Interface_ID id) { return ReferenceTarget::GetInterface(id); }

$LN6:
	sub	rsp, 56					; 00000038H
; File c:\program files\autodesk\3ds max 2020 sdk\maxsdk\include\maxtypes.h

; 215  : 	Interface_ID(const Interface_ID& iid) { a = iid.a; b = iid.b;	}

	mov	eax, DWORD PTR [rdx]
	mov	DWORD PTR $T1[rsp], eax
	mov	eax, DWORD PTR [rdx+4]
; File c:\program files\autodesk\3ds max 2020 sdk\maxsdk\include\materials\mtlbase.h

; 737  :             virtual BaseInterface *GetInterface(Interface_ID id) { return ReferenceTarget::GetInterface(id); }

	lea	rdx, QWORD PTR $T1[rsp]
; File c:\program files\autodesk\3ds max 2020 sdk\maxsdk\include\maxtypes.h

; 215  : 	Interface_ID(const Interface_ID& iid) { a = iid.a; b = iid.b;	}

	mov	DWORD PTR $T1[rsp+4], eax
; File c:\program files\autodesk\3ds max 2020 sdk\maxsdk\include\materials\mtlbase.h

; 737  :             virtual BaseInterface *GetInterface(Interface_ID id) { return ReferenceTarget::GetInterface(id); }

	call	QWORD PTR __imp_?GetInterface@ReferenceTarget@@UEAAPEAVBaseInterface@@VInterface_ID@@@Z
	add	rsp, 56					; 00000038H
	ret	0
?GetInterface@MtlBase@@UEAAPEAVBaseInterface@@VInterface_ID@@@Z ENDP ; MtlBase::GetInterface
_TEXT	ENDS
; Function compile flags: /Ogtp
; File c:\program files\autodesk\3ds max 2020 sdk\maxsdk\include\materials\mtlbase.h
;	COMDAT ?SetupGfxMultiMaps@MtlBase@@UEAAXHPEAVMaterial@@AEAVMtlMakerCallback@@@Z
_TEXT	SEGMENT
this$ = 8
t$ = 16
mtl$ = 24
cb$ = 32
?SetupGfxMultiMaps@MtlBase@@UEAAXHPEAVMaterial@@AEAVMtlMakerCallback@@@Z PROC ; MtlBase::SetupGfxMultiMaps, COMDAT

; 732  : 			virtual void SetupGfxMultiMaps(TimeValue t, Material *mtl, MtlMakerCallback &cb) {}

	ret	0
?SetupGfxMultiMaps@MtlBase@@UEAAXHPEAVMaterial@@AEAVMtlMakerCallback@@@Z ENDP ; MtlBase::SetupGfxMultiMaps
_TEXT	ENDS
; Function compile flags: /Ogtp
; File c:\program files\autodesk\3ds max 2020 sdk\maxsdk\include\materials\mtlbase.h
;	COMDAT ?SupportsMultiMapsInViewport@MtlBase@@UEAAHXZ
_TEXT	SEGMENT
this$ = 8
?SupportsMultiMapsInViewport@MtlBase@@UEAAHXZ PROC	; MtlBase::SupportsMultiMapsInViewport, COMDAT

; 702  : 			virtual BOOL SupportsMultiMapsInViewport() { return FALSE; }

	xor	eax, eax
	ret	0
?SupportsMultiMapsInViewport@MtlBase@@UEAAHXZ ENDP	; MtlBase::SupportsMultiMapsInViewport
_TEXT	ENDS
; Function compile flags: /Ogtp
; File c:\program files\autodesk\3ds max 2020 sdk\maxsdk\include\materials\mtlbase.h
;	COMDAT ?IsMultiMtl@MtlBase@@UEAAHXZ
_TEXT	SEGMENT
this$ = 8
?IsMultiMtl@MtlBase@@UEAAHXZ PROC			; MtlBase::IsMultiMtl, COMDAT

; 368  : 			virtual  BOOL IsMultiMtl() { return FALSE; }

	xor	eax, eax
	ret	0
?IsMultiMtl@MtlBase@@UEAAHXZ ENDP			; MtlBase::IsMultiMtl
_TEXT	ENDS
; Function compile flags: /Ogtp
; File c:\program files\autodesk\3ds max 2020 sdk\maxsdk\include\materials\mtlbase.h
;	COMDAT ?LocalMappingsRequired@MtlBase@@UEAAXHAEAVBitArray@@0@Z
_TEXT	SEGMENT
this$ = 8
subMtlNum$ = 16
mapreq$ = 24
bumpreq$ = 32
?LocalMappingsRequired@MtlBase@@UEAAXHAEAVBitArray@@0@Z PROC ; MtlBase::LocalMappingsRequired, COMDAT

; 350  : 			virtual void LocalMappingsRequired(int subMtlNum, BitArray & mapreq, BitArray &bumpreq) {  }

	ret	0
?LocalMappingsRequired@MtlBase@@UEAAXHAEAVBitArray@@0@Z ENDP ; MtlBase::LocalMappingsRequired
_TEXT	ENDS
; Function compile flags: /Ogtp
; File c:\program files\autodesk\3ds max 2020 sdk\maxsdk\include\materials\mtlbase.h
;	COMDAT ?BuildMaps@MtlBase@@UEAAHHAEAVRenderMapsContext@@@Z
_TEXT	SEGMENT
this$ = 8
t$ = 16
rmc$ = 24
?BuildMaps@MtlBase@@UEAAHHAEAVRenderMapsContext@@@Z PROC ; MtlBase::BuildMaps, COMDAT

; 258  : 			virtual int BuildMaps(TimeValue t, RenderMapsContext &rmc) { return 1; }

	mov	eax, 1
	ret	0
?BuildMaps@MtlBase@@UEAAHHAEAVRenderMapsContext@@@Z ENDP ; MtlBase::BuildMaps
_TEXT	ENDS
; Function compile flags: /Ogtp
; File c:\program files\autodesk\3ds max 2020 sdk\maxsdk\include\materials\isubmap.h
;	COMDAT ?SubTexmapOn@ISubMap@@UEAAHH@Z
_TEXT	SEGMENT
this$ = 8
i$ = 16
?SubTexmapOn@ISubMap@@UEAAHH@Z PROC			; ISubMap::SubTexmapOn, COMDAT

; 99   : 	virtual int SubTexmapOn(int i) { return 1; } 

	mov	eax, 1
	ret	0
?SubTexmapOn@ISubMap@@UEAAHH@Z ENDP			; ISubMap::SubTexmapOn
_TEXT	ENDS
; Function compile flags: /Ogtp
; File c:\program files\autodesk\3ds max 2020 sdk\maxsdk\include\acolor.h
;	COMDAT ?Intens@@YAMAEBVAColor@@@Z
_TEXT	SEGMENT
c$ = 8
?Intens@@YAMAEBVAColor@@@Z PROC				; Intens, COMDAT

; 334  : static inline float Intens(const AColor& c) {   return (c.r+c.g+c.b)/3.0f; }

	vmovss	xmm0, DWORD PTR [rcx+4]
	vaddss	xmm1, xmm0, DWORD PTR [rcx]
	vaddss	xmm2, xmm1, DWORD PTR [rcx+8]
	vdivss	xmm0, xmm2, DWORD PTR __real@40400000
	ret	0
?Intens@@YAMAEBVAColor@@@Z ENDP				; Intens
_TEXT	ENDS
; Function compile flags: /Ogtp
; File c:\program files\autodesk\3ds max 2020 sdk\maxsdk\include\acolor.h
;	COMDAT ??0AColor@@QEAA@MMMM@Z
_TEXT	SEGMENT
this$ = 8
R$ = 16
G$ = 24
B$ = 32
A$ = 40
??0AColor@@QEAA@MMMM@Z PROC				; AColor::AColor, COMDAT

; 44   : 	AColor(float R, float G, float B, float A=1.0f)  { r = R; g = G; b = B; a = A; }

	vmovss	xmm0, DWORD PTR A$[rsp]
	vmovss	DWORD PTR [rcx+12], xmm0
	vmovss	DWORD PTR [rcx], xmm1
	vmovss	DWORD PTR [rcx+4], xmm2
	vmovss	DWORD PTR [rcx+8], xmm3
	mov	rax, rcx
	ret	0
??0AColor@@QEAA@MMMM@Z ENDP				; AColor::AColor
_TEXT	ENDS
; Function compile flags: /Ogtp
; File c:\program files\autodesk\3ds max 2020 sdk\maxsdk\include\acolor.h
;	COMDAT ??0AColor@@QEAA@XZ
_TEXT	SEGMENT
this$ = 8
??0AColor@@QEAA@XZ PROC					; AColor::AColor, COMDAT

; 41   : 	AColor()  {}

	mov	rax, rcx
	ret	0
??0AColor@@QEAA@XZ ENDP					; AColor::AColor
_TEXT	ENDS
; Function compile flags: /Ogtp
; File c:\program files\autodesk\3ds max 2020 sdk\maxsdk\include\color.h
;	COMDAT ?Intens@@YAMAEBVColor@@@Z
_TEXT	SEGMENT
c$ = 8
?Intens@@YAMAEBVColor@@@Z PROC				; Intens, COMDAT

; 577  : static inline float Intens(const Color& c) { return (c.r+c.g+c.b)/3.0f; }

	vmovss	xmm0, DWORD PTR [rcx+4]
	vaddss	xmm1, xmm0, DWORD PTR [rcx]
	vaddss	xmm2, xmm1, DWORD PTR [rcx+8]
	vdivss	xmm0, xmm2, DWORD PTR __real@40400000
	ret	0
?Intens@@YAMAEBVColor@@@Z ENDP				; Intens
_TEXT	ENDS
; Function compile flags: /Ogtp
; File c:\program files\autodesk\3ds max 2020 sdk\maxsdk\include\color.h
;	COMDAT ??0Color@@QEAA@NNN@Z
_TEXT	SEGMENT
this$ = 8
R$ = 16
G$ = 24
B$ = 32
??0Color@@QEAA@NNN@Z PROC				; Color::Color, COMDAT

; 103  : 	Color(double R, double G, double B) { r = (float)R; g = (float)G; b = (float)B; }

	vcvtsd2ss xmm0, xmm1, xmm1
	vmovss	DWORD PTR [rcx], xmm0
	vcvtsd2ss xmm0, xmm3, xmm3
	vcvtsd2ss xmm1, xmm2, xmm2
	vmovss	DWORD PTR [rcx+8], xmm0
	vmovss	DWORD PTR [rcx+4], xmm1
	mov	rax, rcx
	ret	0
??0Color@@QEAA@NNN@Z ENDP				; Color::Color
_TEXT	ENDS
; Function compile flags: /Ogtp
; File c:\program files\autodesk\3ds max 2020 sdk\maxsdk\include\color.h
;	COMDAT ??0Color@@QEAA@MMM@Z
_TEXT	SEGMENT
this$ = 8
R$ = 16
G$ = 24
B$ = 32
??0Color@@QEAA@MMM@Z PROC				; Color::Color, COMDAT

; 93   : 	Color(float R, float G, float B)  { r = R; g = G; b = B;  }

	vmovss	DWORD PTR [rcx], xmm1
	vmovss	DWORD PTR [rcx+4], xmm2
	vmovss	DWORD PTR [rcx+8], xmm3
	mov	rax, rcx
	ret	0
??0Color@@QEAA@MMM@Z ENDP				; Color::Color
_TEXT	ENDS
; Function compile flags: /Ogtp
; File c:\program files\autodesk\3ds max 2020 sdk\maxsdk\include\bitarray.h
;	COMDAT ?BitMask@BitArray@@AEBA_KH@Z
_TEXT	SEGMENT
this$ = 8
i$ = 16
?BitMask@BitArray@@AEBA_KH@Z PROC			; BitArray::BitMask, COMDAT

; 516  : 	{ return (i < kMAX_LOCALBITS) ? (DWORD_PTR(1) << i) : DWORD_PTR(0); }

	cmp	edx, 64					; 00000040H
	jge	SHORT $LN3@BitMask
	mov	eax, edx
	mov	ecx, 1
	shlx	rax, rcx, rax
	ret	0
$LN3@BitMask:
	xor	eax, eax
	ret	0
?BitMask@BitArray@@AEBA_KH@Z ENDP			; BitArray::BitMask
_TEXT	ENDS
; Function compile flags: /Ogtp
; File c:\program files\autodesk\3ds max 2020 sdk\maxsdk\include\bitarray.h
;	COMDAT ?UseLocalBits@BitArray@@AEBA_NXZ
_TEXT	SEGMENT
this$ = 8
?UseLocalBits@BitArray@@AEBA_NXZ PROC			; BitArray::UseLocalBits, COMDAT

; 510  : 	inline bool UseLocalBits() const { return numBits <= kMAX_LOCALBITS; }

	cmp	DWORD PTR [rcx+8], 64			; 00000040H
	setle	al
	ret	0
?UseLocalBits@BitArray@@AEBA_NXZ ENDP			; BitArray::UseLocalBits
_TEXT	ENDS
; Function compile flags: /Ogtp
; File c:\program files\autodesk\3ds max 2020 sdk\maxsdk\include\bitarray.h
;	COMDAT ?Set@BitArray@@QEAAXH@Z
_TEXT	SEGMENT
this$ = 48
i$ = 56
?Set@BitArray@@QEAAXH@Z PROC				; BitArray::Set, COMDAT

; 290  : 	{

$LN19:
	mov	QWORD PTR [rsp+8], rbx
	push	rdi
	sub	rsp, 32					; 00000020H
	movsxd	rbx, edx
	mov	rdi, rcx

; 291  : 		DbgAssert(i>-1 && i<numBits);

	cmp	ebx, -1
	jle	SHORT $LN6@Set
	cmp	ebx, DWORD PTR [rcx+8]
	jl	SHORT $LN7@Set
$LN6@Set:
	lea	r9, OFFSET FLAT:??_C@_1CE@GBNPOKPK@?$AAi?$AA?$DO?$AA?9?$AA1?$AA?5?$AA?$CG?$AA?$CG?$AA?5?$AAi?$AA?$DM?$AAn?$AAu?$AAm?$AAB?$AAi?$AAt?$AAs?$AA?$AA@
	mov	ecx, 291				; 00000123H
	lea	r8, OFFSET FLAT:??_C@_1BM@HADNIIA@?$AAB?$AAi?$AAt?$AAA?$AAr?$AAr?$AAa?$AAy?$AA?3?$AA?3?$AAS?$AAe?$AAt?$AA?$AA@
	lea	rdx, OFFSET FLAT:??_C@_1IK@POEJJLJB@?$AAc?$AA?3?$AA?2?$AAp?$AAr?$AAo?$AAg?$AAr?$AAa?$AAm?$AA?5?$AAf?$AAi?$AAl?$AAe?$AAs?$AA?2?$AAa?$AAu?$AAt?$AAo?$AAd?$AAe?$AAs?$AAk?$AA?2?$AA3?$AAd?$AAs?$AA?5?$AAm?$AAa@
	call	QWORD PTR __imp_?assert1@@YAHHPEB_W00@Z
$LN7@Set:

; 292  : 		if ((i > -1) && (i < numBits))

	cmp	ebx, -1
	jle	SHORT $LN4@Set
	mov	eax, DWORD PTR [rdi+8]
	cmp	ebx, eax
	jge	SHORT $LN4@Set

; 510  : 	inline bool UseLocalBits() const { return numBits <= kMAX_LOCALBITS; }

	cmp	eax, 64					; 00000040H

; 293  : 		{
; 294  : 			if (UseLocalBits())

	jg	SHORT $LN3@Set

; 516  : 	{ return (i < kMAX_LOCALBITS) ? (DWORD_PTR(1) << i) : DWORD_PTR(0); }

	cmp	ebx, 64					; 00000040H
	jge	SHORT $LN12@Set
	mov	eax, ebx
	mov	ecx, 1
	shlx	rcx, rcx, rax

; 295  : 			{
; 296  : 				localBits |= BitMask(i);

	or	QWORD PTR [rdi], rcx

; 301  : 			}
; 302  : 		}
; 303  : 	}

	mov	rbx, QWORD PTR [rsp+48]
	add	rsp, 32					; 00000020H
	pop	rdi
	ret	0
$LN12@Set:

; 516  : 	{ return (i < kMAX_LOCALBITS) ? (DWORD_PTR(1) << i) : DWORD_PTR(0); }

	xor	ecx, ecx

; 295  : 			{
; 296  : 				localBits |= BitMask(i);

	or	QWORD PTR [rdi], rcx

; 301  : 			}
; 302  : 		}
; 303  : 	}

	mov	rbx, QWORD PTR [rsp+48]
	add	rsp, 32					; 00000020H
	pop	rdi
	ret	0
$LN3@Set:

; 297  : 			}
; 298  : 			else
; 299  : 			{
; 300  : 				bits[i>>NSHIFT] |= BitMask(i&BITS_PER_DWORD_PTR_MASK);

	mov	rax, QWORD PTR [rdi]
	mov	rcx, rbx
	sar	rcx, 6
	lea	rdx, QWORD PTR [rax+rcx*8]
	mov	ecx, ebx
	mov	rax, QWORD PTR [rdx]
	and	ecx, 63					; 0000003fH
	bts	rax, rcx
	mov	QWORD PTR [rdx], rax
$LN4@Set:

; 301  : 			}
; 302  : 		}
; 303  : 	}

	mov	rbx, QWORD PTR [rsp+48]
	add	rsp, 32					; 00000020H
	pop	rdi
	ret	0
?Set@BitArray@@QEAAXH@Z ENDP				; BitArray::Set
_TEXT	ENDS
; Function compile flags: /Ogtp
; File c:\program files\autodesk\3ds max 2020 sdk\maxsdk\include\matrix3.h
;	COMDAT ?GetTrans@Matrix3@@QEBAAEBVPoint3@@XZ
_TEXT	SEGMENT
this$ = 8
?GetTrans@Matrix3@@QEBAAEBVPoint3@@XZ PROC		; Matrix3::GetTrans, COMDAT

; 118  :    const Point3& operator[](int i) const { return((Point3&)(*m[i])); }

	lea	rax, QWORD PTR [rcx+36]

; 308  :    const Point3& GetTrans() const { return (*this)[kTrans]; }

	ret	0
?GetTrans@Matrix3@@QEBAAEBVPoint3@@XZ ENDP		; Matrix3::GetTrans
_TEXT	ENDS
; Function compile flags: /Ogtp
; File c:\program files\autodesk\3ds max 2020 sdk\maxsdk\include\matrix3.h
; File c:\program files\autodesk\3ds max 2020 sdk\maxsdk\include\point3.h
; File c:\program files\autodesk\3ds max 2020 sdk\maxsdk\include\matrix3.h
;	COMDAT ?GetRow@Matrix3@@QEBA?AVPoint3@@H@Z
_TEXT	SEGMENT
this$ = 8
__$ReturnUdt$ = 16
i$ = 24
?GetRow@Matrix3@@QEBA?AVPoint3@@H@Z PROC		; Matrix3::GetRow, COMDAT

; 118  :    const Point3& operator[](int i) const { return((Point3&)(*m[i])); }

	movsxd	rax, r8d
	lea	r8, QWORD PTR [rax+rax*2]
; File c:\program files\autodesk\3ds max 2020 sdk\maxsdk\include\point3.h

; 85   : 		x = a.x;

	mov	eax, DWORD PTR [rcx+r8*4]
	mov	DWORD PTR [rdx], eax

; 86   : 		y = a.y;

	mov	eax, DWORD PTR [rcx+r8*4+4]
	mov	DWORD PTR [rdx+4], eax

; 87   : 		z = a.z;

	mov	eax, DWORD PTR [rcx+r8*4+8]
	mov	DWORD PTR [rdx+8], eax
; File c:\program files\autodesk\3ds max 2020 sdk\maxsdk\include\matrix3.h

; 260  :    Point3 GetRow(int i) const { return (*this)[i]; }

	mov	rax, rdx
	ret	0
?GetRow@Matrix3@@QEBA?AVPoint3@@H@Z ENDP		; Matrix3::GetRow
_TEXT	ENDS
; Function compile flags: /Ogtp
; File c:\program files\autodesk\3ds max 2020 sdk\maxsdk\include\matrix3.h
;	COMDAT ??0Matrix3@@QEAA@XZ
_TEXT	SEGMENT
this$ = 8
??0Matrix3@@QEAA@XZ PROC				; Matrix3::Matrix3, COMDAT

; 172  :    Matrix3(){ flags = 0; }

	mov	DWORD PTR [rcx+48], 0
	mov	rax, rcx
	ret	0
??0Matrix3@@QEAA@XZ ENDP				; Matrix3::Matrix3
_TEXT	ENDS
; Function compile flags: /Ogtp
; File c:\program files\autodesk\3ds max 2020 sdk\maxsdk\include\matrix3.h
;	COMDAT ??AMatrix3@@QEBAAEBVPoint3@@H@Z
_TEXT	SEGMENT
this$ = 8
i$ = 16
??AMatrix3@@QEBAAEBVPoint3@@H@Z PROC			; Matrix3::operator[], COMDAT

; 118  :    const Point3& operator[](int i) const { return((Point3&)(*m[i])); }

	movsxd	rax, edx
	lea	rdx, QWORD PTR [rax+rax*2]
	lea	rax, QWORD PTR [rcx+rdx*4]
	ret	0
??AMatrix3@@QEBAAEBVPoint3@@H@Z ENDP			; Matrix3::operator[]
_TEXT	ENDS
; Function compile flags: /Ogtp
; File c:\program files\autodesk\3ds max 2020 sdk\maxsdk\include\point3.h
;	COMDAT ?DotProd@@YAMAEBVPoint3@@0@Z
_TEXT	SEGMENT
a$ = 8
b$ = 16
?DotProd@@YAMAEBVPoint3@@0@Z PROC			; DotProd, COMDAT

; 354  : __forceinline float DotProd(const Point3& a, const Point3& b) { return (a.x * b.x + a.y * b.y + a.z * b.z); }

	vmovss	xmm0, DWORD PTR [rcx+4]
	vmulss	xmm3, xmm0, DWORD PTR [rdx+4]
	vmovss	xmm1, DWORD PTR [rcx]
	vmovss	xmm0, DWORD PTR [rcx+8]
	vmulss	xmm2, xmm1, DWORD PTR [rdx]
	vmulss	xmm1, xmm0, DWORD PTR [rdx+8]
	vaddss	xmm4, xmm3, xmm2
	vaddss	xmm0, xmm4, xmm1
	ret	0
?DotProd@@YAMAEBVPoint3@@0@Z ENDP			; DotProd
_TEXT	ENDS
; Function compile flags: /Ogtp
; File c:\program files\autodesk\3ds max 2020 sdk\maxsdk\include\point3.h
;	COMDAT ??D@YA?AVPoint3@@AEBV0@M@Z
_TEXT	SEGMENT
__$ReturnUdt$ = 8
a$ = 16
f$ = 24
??D@YA?AVPoint3@@AEBV0@M@Z PROC				; operator*, COMDAT

; 335  : __forceinline Point3 operator*(const Point3& a, float f) { return (Point3(a.x * f, a.y * f, a.z * f)); }

	vmulss	xmm0, xmm2, DWORD PTR [rdx]
	vmulss	xmm1, xmm2, DWORD PTR [rdx+4]

; 67   : 		x = X;

	vmovss	DWORD PTR [rcx], xmm0

; 335  : __forceinline Point3 operator*(const Point3& a, float f) { return (Point3(a.x * f, a.y * f, a.z * f)); }

	vmulss	xmm0, xmm2, DWORD PTR [rdx+8]

; 69   : 		z = Z;

	vmovss	DWORD PTR [rcx+8], xmm0
	vmovss	DWORD PTR [rcx+4], xmm1

; 335  : __forceinline Point3 operator*(const Point3& a, float f) { return (Point3(a.x * f, a.y * f, a.z * f)); }

	mov	rax, rcx
	ret	0
??D@YA?AVPoint3@@AEBV0@M@Z ENDP				; operator*
_TEXT	ENDS
; Function compile flags: /Ogtp
; File c:\program files\autodesk\3ds max 2020 sdk\maxsdk\include\plugapi.h
;	COMDAT ?Execute@ClassDesc@@UEAA_JH_K00@Z
_TEXT	SEGMENT
this$ = 8
cmd$ = 16
arg1$ = 24
arg2$ = 32
arg3$ = 40
?Execute@ClassDesc@@UEAA_JH_K00@Z PROC			; ClassDesc::Execute, COMDAT

; 1449 : 		virtual INT_PTR Execute(int cmd, ULONG_PTR arg1=0, ULONG_PTR arg2=0, ULONG_PTR arg3=0) { return 0; }

	xor	eax, eax
	ret	0
?Execute@ClassDesc@@UEAA_JH_K00@Z ENDP			; ClassDesc::Execute
_TEXT	ENDS
; Function compile flags: /Ogtp
; File c:\program files\autodesk\3ds max 2020 sdk\maxsdk\include\plugapi.h
; File c:\program files\autodesk\3ds max 2020 sdk\maxsdk\include\maxtypes.h
; File c:\program files\autodesk\3ds max 2020 sdk\maxsdk\include\plugapi.h
;	COMDAT ?SubClassID@ClassDesc@@UEAA?AVClass_ID@@XZ
_TEXT	SEGMENT
this$ = 8
__$ReturnUdt$ = 16
?SubClassID@ClassDesc@@UEAA?AVClass_ID@@XZ PROC		; ClassDesc::SubClassID, COMDAT
; File c:\program files\autodesk\3ds max 2020 sdk\maxsdk\include\maxtypes.h

; 145  : 	Class_ID() { a = b = 0xffffffff; }

	mov	QWORD PTR [rdx], -1
; File c:\program files\autodesk\3ds max 2020 sdk\maxsdk\include\plugapi.h

; 1435 : 		virtual Class_ID		SubClassID() { return Class_ID(); }

	mov	rax, rdx
	ret	0
?SubClassID@ClassDesc@@UEAA?AVClass_ID@@XZ ENDP		; ClassDesc::SubClassID
_TEXT	ENDS
; Function compile flags: /Ogtp
; File c:\program files\autodesk\3ds max 2020 sdk\maxsdk\include\plugapi.h
; File c:\program files\autodesk\3ds max 2020 sdk\maxsdk\include\tab.h
; File c:\program files\autodesk\3ds max 2020 sdk\maxsdk\include\plugapi.h
;	COMDAT ?ClearInterfaces@ClassDesc@@UEAAXXZ
_TEXT	SEGMENT
this$ = 8
?ClearInterfaces@ClassDesc@@UEAAXXZ PROC		; ClassDesc::ClearInterfaces, COMDAT
; File c:\program files\autodesk\3ds max 2020 sdk\maxsdk\include\tab.h

; 233  : 			if (th) {

	mov	rax, QWORD PTR [rcx+16]
	test	rax, rax
	je	SHORT $LN4@ClearInter

; 234  : 				th->count = 0; 

	mov	DWORD PTR [rax], 0
$LN4@ClearInter:
; File c:\program files\autodesk\3ds max 2020 sdk\maxsdk\include\plugapi.h

; 1426 : 		virtual void			ClearInterfaces() { interfaces.ZeroCount(); }

	ret	0
?ClearInterfaces@ClassDesc@@UEAAXXZ ENDP		; ClassDesc::ClearInterfaces
_TEXT	ENDS
; Function compile flags: /Ogtp
; File c:\program files\autodesk\3ds max 2020 sdk\maxsdk\include\plugapi.h
;	COMDAT ?GetInterfaceAt@ClassDesc@@UEAAPEAVFPInterface@@H@Z
_TEXT	SEGMENT
this$ = 48
i$ = 56
?GetInterfaceAt@ClassDesc@@UEAAPEAVFPInterface@@H@Z PROC ; ClassDesc::GetInterfaceAt, COMDAT

; 1409 : 		virtual FPInterface*	GetInterfaceAt(int i) { return interfaces[i]; }

$LN4:
	sub	rsp, 40					; 00000028H
	movsxd	rdx, edx
	add	rcx, 8
	call	??A?$Tab@PEAVFPInterface@@@@QEBAAEAPEAVFPInterface@@_J@Z ; Tab<FPInterface * __ptr64>::operator[]
	mov	rax, QWORD PTR [rax]
	add	rsp, 40					; 00000028H
	ret	0
?GetInterfaceAt@ClassDesc@@UEAAPEAVFPInterface@@H@Z ENDP ; ClassDesc::GetInterfaceAt
_TEXT	ENDS
; Function compile flags: /Ogtp
; File c:\program files\autodesk\3ds max 2020 sdk\maxsdk\include\plugapi.h
; File c:\program files\autodesk\3ds max 2020 sdk\maxsdk\include\tab.h
; File c:\program files\autodesk\3ds max 2020 sdk\maxsdk\include\plugapi.h
;	COMDAT ?NumInterfaces@ClassDesc@@UEAAHXZ
_TEXT	SEGMENT
this$ = 8
?NumInterfaces@ClassDesc@@UEAAHXZ PROC			; ClassDesc::NumInterfaces, COMDAT
; File c:\program files\autodesk\3ds max 2020 sdk\maxsdk\include\tab.h

; 221  : 			if (th) {

	mov	rax, QWORD PTR [rcx+16]
	test	rax, rax
	je	SHORT $LN4@NumInterfa
; File c:\program files\autodesk\3ds max 2020 sdk\maxsdk\include\plugapi.h

; 1406 : 		virtual int				NumInterfaces() { return interfaces.Count(); }

	mov	eax, DWORD PTR [rax]
	ret	0
$LN4@NumInterfa:
	ret	0
?NumInterfaces@ClassDesc@@UEAAHXZ ENDP			; ClassDesc::NumInterfaces
_TEXT	ENDS
; Function compile flags: /Ogtp
; File c:\program files\autodesk\3ds max 2020 sdk\maxsdk\include\plugapi.h
;	COMDAT ?DrawRepresentation@ClassDesc@@UEAA_NKPEAUHDC__@@AEAVBox2@@@Z
_TEXT	SEGMENT
this$ = 8
bkColor$ = 16
hDC$ = 24
rect$ = 32
?DrawRepresentation@ClassDesc@@UEAA_NKPEAUHDC__@@AEAVBox2@@@Z PROC ; ClassDesc::DrawRepresentation, COMDAT

; 1400 : 		virtual bool DrawRepresentation(COLORREF bkColor, HDC hDC, Rect& rect) { return FALSE; }

	xor	al, al
	ret	0
?DrawRepresentation@ClassDesc@@UEAA_NKPEAUHDC__@@AEAVBox2@@@Z ENDP ; ClassDesc::DrawRepresentation
_TEXT	ENDS
; Function compile flags: /Ogtp
; File c:\program files\autodesk\3ds max 2020 sdk\maxsdk\include\plugapi.h
;	COMDAT ?GetUserDlgProc@ClassDesc@@UEAAPEAVParamMap2UserDlgProc@@PEAVParamBlockDesc2@@@Z
_TEXT	SEGMENT
this$ = 8
pbd$ = 16
?GetUserDlgProc@ClassDesc@@UEAAPEAVParamMap2UserDlgProc@@PEAVParamBlockDesc2@@@Z PROC ; ClassDesc::GetUserDlgProc, COMDAT

; 1388 : 		virtual ParamMap2UserDlgProc* GetUserDlgProc(ParamBlockDesc2* pbd) { return NULL; }

	xor	eax, eax
	ret	0
?GetUserDlgProc@ClassDesc@@UEAAPEAVParamMap2UserDlgProc@@PEAVParamBlockDesc2@@@Z ENDP ; ClassDesc::GetUserDlgProc
_TEXT	ENDS
; Function compile flags: /Ogtp
; File c:\program files\autodesk\3ds max 2020 sdk\maxsdk\include\plugapi.h
;	COMDAT ?GetParamMap@ClassDesc@@UEAAPEAVIParamMap2@@PEAVParamBlockDesc2@@@Z
_TEXT	SEGMENT
this$ = 8
pbd$ = 16
?GetParamMap@ClassDesc@@UEAAPEAVIParamMap2@@PEAVParamBlockDesc2@@@Z PROC ; ClassDesc::GetParamMap, COMDAT

; 1371 : 		virtual IParamMap2*		GetParamMap(ParamBlockDesc2* pbd) { return NULL; }

	xor	eax, eax
	ret	0
?GetParamMap@ClassDesc@@UEAAPEAVIParamMap2@@PEAVParamBlockDesc2@@@Z ENDP ; ClassDesc::GetParamMap
_TEXT	ENDS
; Function compile flags: /Ogtp
; File c:\program files\autodesk\3ds max 2020 sdk\maxsdk\include\plugapi.h
;	COMDAT ?UseOnlyInternalNameForMAXScriptExposure@ClassDesc@@UEAA_NXZ
_TEXT	SEGMENT
this$ = 8
?UseOnlyInternalNameForMAXScriptExposure@ClassDesc@@UEAA_NXZ PROC ; ClassDesc::UseOnlyInternalNameForMAXScriptExposure, COMDAT

; 1289 : 		virtual bool			UseOnlyInternalNameForMAXScriptExposure() { return false; }

	xor	al, al
	ret	0
?UseOnlyInternalNameForMAXScriptExposure@ClassDesc@@UEAA_NXZ ENDP ; ClassDesc::UseOnlyInternalNameForMAXScriptExposure
_TEXT	ENDS
; Function compile flags: /Ogtp
; File c:\program files\autodesk\3ds max 2020 sdk\maxsdk\include\plugapi.h
;	COMDAT ?InitialRollupPageState@ClassDesc@@UEAAKXZ
_TEXT	SEGMENT
this$ = 8
?InitialRollupPageState@ClassDesc@@UEAAKXZ PROC		; ClassDesc::InitialRollupPageState, COMDAT

; 1278 : 		virtual DWORD			InitialRollupPageState() { return 0x7fffffff; }

	mov	eax, 2147483647				; 7fffffffH
	ret	0
?InitialRollupPageState@ClassDesc@@UEAAKXZ ENDP		; ClassDesc::InitialRollupPageState
_TEXT	ENDS
; Function compile flags: /Ogtp
; File c:\program files\autodesk\3ds max 2020 sdk\maxsdk\include\plugapi.h
;	COMDAT ?Load@ClassDesc@@UEAA?AW4IOResult@@PEAVILoad@@@Z
_TEXT	SEGMENT
this$ = 8
iload$ = 16
?Load@ClassDesc@@UEAA?AW4IOResult@@PEAVILoad@@@Z PROC	; ClassDesc::Load, COMDAT

; 1263 : 		virtual IOResult 		Load(ILoad *iload) { return IO_OK; }

	xor	eax, eax
	ret	0
?Load@ClassDesc@@UEAA?AW4IOResult@@PEAVILoad@@@Z ENDP	; ClassDesc::Load
_TEXT	ENDS
; Function compile flags: /Ogtp
; File c:\program files\autodesk\3ds max 2020 sdk\maxsdk\include\plugapi.h
;	COMDAT ?Save@ClassDesc@@UEAA?AW4IOResult@@PEAVISave@@@Z
_TEXT	SEGMENT
this$ = 8
isave$ = 16
?Save@ClassDesc@@UEAA?AW4IOResult@@PEAVISave@@@Z PROC	; ClassDesc::Save, COMDAT

; 1256 : 		virtual IOResult 		Save(ISave *isave) { return IO_OK; }

	xor	eax, eax
	ret	0
?Save@ClassDesc@@UEAA?AW4IOResult@@PEAVISave@@@Z ENDP	; ClassDesc::Save
_TEXT	ENDS
; Function compile flags: /Ogtp
; File c:\program files\autodesk\3ds max 2020 sdk\maxsdk\include\plugapi.h
;	COMDAT ?NeedsToSave@ClassDesc@@UEAAHXZ
_TEXT	SEGMENT
this$ = 8
?NeedsToSave@ClassDesc@@UEAAHXZ PROC			; ClassDesc::NeedsToSave, COMDAT

; 1250 : 		virtual BOOL			NeedsToSave() { return FALSE; }

	xor	eax, eax
	ret	0
?NeedsToSave@ClassDesc@@UEAAHXZ ENDP			; ClassDesc::NeedsToSave
_TEXT	ENDS
; Function compile flags: /Ogtp
; File c:\program files\autodesk\3ds max 2020 sdk\maxsdk\include\plugapi.h
;	COMDAT ?CreateManipulator@ClassDesc@@UEAAPEAVManipulator@@PEAVINode@@@Z
_TEXT	SEGMENT
this$ = 8
pNode$ = 16
?CreateManipulator@ClassDesc@@UEAAPEAVManipulator@@PEAVINode@@@Z PROC ; ClassDesc::CreateManipulator, COMDAT

; 1241 : 		virtual Manipulator* CreateManipulator(INode* pNode) {return NULL;}

	xor	eax, eax
	ret	0
?CreateManipulator@ClassDesc@@UEAAPEAVManipulator@@PEAVINode@@@Z ENDP ; ClassDesc::CreateManipulator
_TEXT	ENDS
; Function compile flags: /Ogtp
; File c:\program files\autodesk\3ds max 2020 sdk\maxsdk\include\plugapi.h
;	COMDAT ?CreateManipulator@ClassDesc@@UEAAPEAVManipulator@@PEAVReferenceTarget@@PEAVINode@@@Z
_TEXT	SEGMENT
this$ = 8
hTarget$ = 16
pNode$ = 24
?CreateManipulator@ClassDesc@@UEAAPEAVManipulator@@PEAVReferenceTarget@@PEAVINode@@@Z PROC ; ClassDesc::CreateManipulator, COMDAT

; 1233 : 			INode* pNode) { return NULL; }

	xor	eax, eax
	ret	0
?CreateManipulator@ClassDesc@@UEAAPEAVManipulator@@PEAVReferenceTarget@@PEAVINode@@@Z ENDP ; ClassDesc::CreateManipulator
_TEXT	ENDS
; Function compile flags: /Ogtp
; File c:\program files\autodesk\3ds max 2020 sdk\maxsdk\include\plugapi.h
;	COMDAT ?CanManipulateNode@ClassDesc@@UEAAHPEAVINode@@@Z
_TEXT	SEGMENT
this$ = 8
pNode$ = 16
?CanManipulateNode@ClassDesc@@UEAAHPEAVINode@@@Z PROC	; ClassDesc::CanManipulateNode, COMDAT

; 1215 : 		virtual BOOL CanManipulateNode(INode* pNode) { return FALSE; }

	xor	eax, eax
	ret	0
?CanManipulateNode@ClassDesc@@UEAAHPEAVINode@@@Z ENDP	; ClassDesc::CanManipulateNode
_TEXT	ENDS
; Function compile flags: /Ogtp
; File c:\program files\autodesk\3ds max 2020 sdk\maxsdk\include\plugapi.h
;	COMDAT ?CanManipulate@ClassDesc@@UEAAHPEAVReferenceTarget@@@Z
_TEXT	SEGMENT
this$ = 8
hTarget$ = 16
?CanManipulate@ClassDesc@@UEAAHPEAVReferenceTarget@@@Z PROC ; ClassDesc::CanManipulate, COMDAT

; 1208 : 		virtual BOOL CanManipulate(ReferenceTarget* hTarget) { return FALSE; }

	xor	eax, eax
	ret	0
?CanManipulate@ClassDesc@@UEAAHPEAVReferenceTarget@@@Z ENDP ; ClassDesc::CanManipulate
_TEXT	ENDS
; Function compile flags: /Ogtp
; File c:\program files\autodesk\3ds max 2020 sdk\maxsdk\include\plugapi.h
;	COMDAT ?IsManipulator@ClassDesc@@UEAAHXZ
_TEXT	SEGMENT
this$ = 8
?IsManipulator@ClassDesc@@UEAAHXZ PROC			; ClassDesc::IsManipulator, COMDAT

; 1199 : 		virtual BOOL IsManipulator() { return FALSE; }

	xor	eax, eax
	ret	0
?IsManipulator@ClassDesc@@UEAAHXZ ENDP			; ClassDesc::IsManipulator
_TEXT	ENDS
; Function compile flags: /Ogtp
; File c:\program files\autodesk\3ds max 2020 sdk\maxsdk\include\plugapi.h
;	COMDAT ?GetActionTable@ClassDesc@@UEAAPEAVActionTable@@H@Z
_TEXT	SEGMENT
this$ = 8
i$ = 16
?GetActionTable@ClassDesc@@UEAAPEAVActionTable@@H@Z PROC ; ClassDesc::GetActionTable, COMDAT

; 1192 : 		virtual ActionTable* GetActionTable(int i) { return NULL; }

	xor	eax, eax
	ret	0
?GetActionTable@ClassDesc@@UEAAPEAVActionTable@@H@Z ENDP ; ClassDesc::GetActionTable
_TEXT	ENDS
; Function compile flags: /Ogtp
; File c:\program files\autodesk\3ds max 2020 sdk\maxsdk\include\plugapi.h
;	COMDAT ?NumActionTables@ClassDesc@@UEAAHXZ
_TEXT	SEGMENT
this$ = 8
?NumActionTables@ClassDesc@@UEAAHXZ PROC		; ClassDesc::NumActionTables, COMDAT

; 1185 : 		virtual int NumActionTables() { return 0; }

	xor	eax, eax
	ret	0
?NumActionTables@ClassDesc@@UEAAHXZ ENDP		; ClassDesc::NumActionTables
_TEXT	ENDS
; Function compile flags: /Ogtp
; File c:\program files\autodesk\3ds max 2020 sdk\maxsdk\include\plugapi.h
;	COMDAT ?EditClassParams@ClassDesc@@UEAAXPEAUHWND__@@@Z
_TEXT	SEGMENT
this$ = 8
hParent$ = 16
?EditClassParams@ClassDesc@@UEAAXPEAUHWND__@@@Z PROC	; ClassDesc::EditClassParams, COMDAT

; 1160 : 		virtual void			EditClassParams(HWND hParent) {}

	ret	0
?EditClassParams@ClassDesc@@UEAAXPEAUHWND__@@@Z ENDP	; ClassDesc::EditClassParams
_TEXT	ENDS
; Function compile flags: /Ogtp
; File c:\program files\autodesk\3ds max 2020 sdk\maxsdk\include\plugapi.h
;	COMDAT ?HasClassParams@ClassDesc@@UEAAHXZ
_TEXT	SEGMENT
this$ = 8
?HasClassParams@ClassDesc@@UEAAHXZ PROC			; ClassDesc::HasClassParams, COMDAT

; 1153 : 		virtual BOOL			HasClassParams() {return FALSE;}

	xor	eax, eax
	ret	0
?HasClassParams@ClassDesc@@UEAAHXZ ENDP			; ClassDesc::HasClassParams
_TEXT	ENDS
; Function compile flags: /Ogtp
; File c:\program files\autodesk\3ds max 2020 sdk\maxsdk\include\plugapi.h
;	COMDAT ?OkToCreate@ClassDesc@@UEAAHPEAVInterface@@@Z
_TEXT	SEGMENT
this$ = 8
i$ = 16
?OkToCreate@ClassDesc@@UEAAHPEAVInterface@@@Z PROC	; ClassDesc::OkToCreate, COMDAT

; 1077 : 		virtual BOOL			OkToCreate(Interface *i) { return TRUE; }	// return FALSE to disable create button

	mov	eax, 1
	ret	0
?OkToCreate@ClassDesc@@UEAAHPEAVInterface@@@Z ENDP	; ClassDesc::OkToCreate
_TEXT	ENDS
; Function compile flags: /Ogtp
; File c:\program files\autodesk\3ds max 2020 sdk\maxsdk\include\plugapi.h
;	COMDAT ?EndCreate@ClassDesc@@UEAAHPEAVInterface@@@Z
_TEXT	SEGMENT
this$ = 8
i$ = 16
?EndCreate@ClassDesc@@UEAAHPEAVInterface@@@Z PROC	; ClassDesc::EndCreate, COMDAT

; 1044 : 		virtual int 			EndCreate(Interface *i) {return 0;};

	xor	eax, eax
	ret	0
?EndCreate@ClassDesc@@UEAAHPEAVInterface@@@Z ENDP	; ClassDesc::EndCreate
_TEXT	ENDS
; Function compile flags: /Ogtp
; File c:\program files\autodesk\3ds max 2020 sdk\maxsdk\include\plugapi.h
;	COMDAT ?BeginCreate@ClassDesc@@UEAAHPEAVInterface@@@Z
_TEXT	SEGMENT
this$ = 8
i$ = 16
?BeginCreate@ClassDesc@@UEAAHPEAVInterface@@@Z PROC	; ClassDesc::BeginCreate, COMDAT

; 1034 : 		virtual	int 			BeginCreate(Interface *i) {return 0;}

	xor	eax, eax
	ret	0
?BeginCreate@ClassDesc@@UEAAHPEAVInterface@@@Z ENDP	; ClassDesc::BeginCreate
_TEXT	ENDS
; Function compile flags: /Ogtp
; File c:\program files\autodesk\3ds max 2020 sdk\maxsdk\include\tab.h
;	COMDAT ??A?$Tab@PEAVFPInterface@@@@QEBAAEAPEAVFPInterface@@_J@Z
_TEXT	SEGMENT
$T1 = 32
$T2 = 40
this$ = 80
i$ = 88
??A?$Tab@PEAVFPInterface@@@@QEBAAEAPEAVFPInterface@@_J@Z PROC ; Tab<FPInterface * __ptr64>::operator[], COMDAT

; 357  : 		T& operator[](const INT_PTR i) const {

$LN13:
	push	rdi
	sub	rsp, 64					; 00000040H
	mov	QWORD PTR $T1[rsp], -2
	mov	QWORD PTR [rsp+80], rbx
	mov	rbx, rdx
	mov	rdi, rcx

; 358  : 			DbgAssert(th);

	cmp	QWORD PTR [rcx+8], 0
	jne	SHORT $LN5@operator
	lea	r9, OFFSET FLAT:??_C@_15CABMMOGH@?$AAt?$AAh?$AA?$AA@
	lea	r8, OFFSET FLAT:??_C@_1EM@PJAEPBLB@?$AAT?$AAa?$AAb?$AA?$DM?$AAc?$AAl?$AAa?$AAs?$AAs?$AA?5?$AAF?$AAP?$AAI?$AAn?$AAt?$AAe?$AAr?$AAf?$AAa?$AAc?$AAe?$AA?5?$AA?$CK?$AA?$DO?$AA?3?$AA?3?$AAo?$AAp?$AAe?$AAr?$AAa?$AAt@
	lea	rdx, OFFSET FLAT:??_C@_1IA@CBFEGJCG@?$AAc?$AA?3?$AA?2?$AAp?$AAr?$AAo?$AAg?$AAr?$AAa?$AAm?$AA?5?$AAf?$AAi?$AAl?$AAe?$AAs?$AA?2?$AAa?$AAu?$AAt?$AAo?$AAd?$AAe?$AAs?$AAk?$AA?2?$AA3?$AAd?$AAs?$AA?5?$AAm?$AAa@
	mov	ecx, 358				; 00000166H
	call	QWORD PTR __imp_?assert1@@YAHHPEB_W00@Z
$LN5@operator:

; 359  : 			DbgAssert(i >= 0);

	test	rbx, rbx
	jns	SHORT $LN6@operator
	lea	r9, OFFSET FLAT:??_C@_1O@ILILCEBJ@?$AAi?$AA?5?$AA?$DO?$AA?$DN?$AA?5?$AA0?$AA?$AA@
	lea	r8, OFFSET FLAT:??_C@_1EM@PJAEPBLB@?$AAT?$AAa?$AAb?$AA?$DM?$AAc?$AAl?$AAa?$AAs?$AAs?$AA?5?$AAF?$AAP?$AAI?$AAn?$AAt?$AAe?$AAr?$AAf?$AAa?$AAc?$AAe?$AA?5?$AA?$CK?$AA?$DO?$AA?3?$AA?3?$AAo?$AAp?$AAe?$AAr?$AAa?$AAt@
	lea	rdx, OFFSET FLAT:??_C@_1IA@CBFEGJCG@?$AAc?$AA?3?$AA?2?$AAp?$AAr?$AAo?$AAg?$AAr?$AAa?$AAm?$AA?5?$AAf?$AAi?$AAl?$AAe?$AAs?$AA?2?$AAa?$AAu?$AAt?$AAo?$AAd?$AAe?$AAs?$AAk?$AA?2?$AA3?$AAd?$AAs?$AA?5?$AAm?$AAa@
	mov	ecx, 359				; 00000167H
	call	QWORD PTR __imp_?assert1@@YAHHPEB_W00@Z
$LN6@operator:

; 360  : 			DbgAssert(th && i < th->count);

	mov	rax, QWORD PTR [rdi+8]
	test	rax, rax
	je	SHORT $LN7@operator
	movsxd	rax, DWORD PTR [rax]
	cmp	rbx, rax
	jl	SHORT $LN8@operator
$LN7@operator:
	lea	r9, OFFSET FLAT:??_C@_1CI@OKLGNBMM@?$AAt?$AAh?$AA?5?$AA?$CG?$AA?$CG?$AA?5?$AAi?$AA?5?$AA?$DM?$AA?5?$AAt?$AAh?$AA?9?$AA?$DO?$AAc?$AAo?$AAu?$AAn?$AAt?$AA?$AA@
	lea	r8, OFFSET FLAT:??_C@_1EM@PJAEPBLB@?$AAT?$AAa?$AAb?$AA?$DM?$AAc?$AAl?$AAa?$AAs?$AAs?$AA?5?$AAF?$AAP?$AAI?$AAn?$AAt?$AAe?$AAr?$AAf?$AAa?$AAc?$AAe?$AA?5?$AA?$CK?$AA?$DO?$AA?3?$AA?3?$AAo?$AAp?$AAe?$AAr?$AAa?$AAt@
	lea	rdx, OFFSET FLAT:??_C@_1IA@CBFEGJCG@?$AAc?$AA?3?$AA?2?$AAp?$AAr?$AAo?$AAg?$AAr?$AAa?$AAm?$AA?5?$AAf?$AAi?$AAl?$AAe?$AAs?$AA?2?$AAa?$AAu?$AAt?$AAo?$AAd?$AAe?$AAs?$AAk?$AA?2?$AA3?$AAd?$AAs?$AA?5?$AAm?$AAa@
	mov	ecx, 360				; 00000168H
	call	QWORD PTR __imp_?assert1@@YAHHPEB_W00@Z
$LN8@operator:

; 361  : 			if (!th || i < 0 || (i >= th->count))

	mov	rcx, QWORD PTR [rdi+8]
	test	rcx, rcx
	je	SHORT $LN3@operator
	test	rbx, rbx
	js	SHORT $LN3@operator
	movsxd	rax, DWORD PTR [rcx]
	cmp	rbx, rax
	jge	SHORT $LN3@operator

; 364  : 			}
; 365  : 			
; 366  : 			return (th->data[i]); 

	lea	rax, QWORD PTR [rbx+1]
	lea	rax, QWORD PTR [rcx+rax*8]
	jmp	SHORT $LN4@operator
$LN3@operator:

; 95   : 				: MaxSDK::Util::OutOfRangeException(message)

	lea	rdx, OFFSET FLAT:??_C@_1GI@NLEIFPEJ@?$AAI?$AAn?$AAv?$AAa?$AAl?$AAi?$AAd?$AA?5?$AAi?$AAn?$AAd?$AAe?$AAx?$AA?5?$AAp?$AAa?$AAs?$AAs?$AAe?$AAd?$AA?5?$AAi?$AAn?$AAt?$AAo?$AA?5?$AAa?$AA?5?$AAM?$AAa?$AAx?$AA?5@
	lea	rcx, QWORD PTR $T2[rsp]
	call	QWORD PTR __imp_??0OutOfRangeException@Util@MaxSDK@@QEAA@PEB_W@Z
	npad	1

; 96   : 			{

	lea	rax, OFFSET FLAT:??_7TabOutOfRangeException@Util@MaxSDK@@6B@
	mov	QWORD PTR $T2[rsp], rax

; 362  : 			{
; 363  : 				throw MaxSDK::Util::TabOutOfRangeException(_M("Invalid index passed into a Max SDK Tab::operator[]"));

	lea	rdx, OFFSET FLAT:_TI4?AVTabOutOfRangeException@Util@MaxSDK@@
	lea	rcx, QWORD PTR $T2[rsp]
	call	_CxxThrowException
	int	3
$LN4@operator:

; 367  : 		}

	mov	rbx, QWORD PTR [rsp+80]
	add	rsp, 64					; 00000040H
	pop	rdi
	ret	0
$LN12@operator:
??A?$Tab@PEAVFPInterface@@@@QEBAAEAPEAVFPInterface@@_J@Z ENDP ; Tab<FPInterface * __ptr64>::operator[]
_TEXT	ENDS
;	COMDAT text$x
text$x	SEGMENT
$T1 = 32
$T2 = 40
this$ = 80
i$ = 88
?dtor$0@?0???A?$Tab@PEAVFPInterface@@@@QEBAAEAPEAVFPInterface@@_J@Z@4HA PROC ; `Tab<FPInterface * __ptr64>::operator[]'::`1'::dtor$0
	lea	rcx, QWORD PTR $T2[rdx]
	rex_jmp	QWORD PTR __imp_??1OutOfRangeException@Util@MaxSDK@@UEAA@XZ
?dtor$0@?0???A?$Tab@PEAVFPInterface@@@@QEBAAEAPEAVFPInterface@@_J@Z@4HA ENDP ; `Tab<FPInterface * __ptr64>::operator[]'::`1'::dtor$0
text$x	ENDS
; Function compile flags: /Ogtp
;	COMDAT text$x
text$x	SEGMENT
$T1 = 32
$T2 = 40
this$ = 80
i$ = 88
?dtor$0@?0???A?$Tab@PEAVFPInterface@@@@QEBAAEAPEAVFPInterface@@_J@Z@4HA PROC ; `Tab<FPInterface * __ptr64>::operator[]'::`1'::dtor$0
	lea	rcx, QWORD PTR $T2[rdx]
	rex_jmp	QWORD PTR __imp_??1OutOfRangeException@Util@MaxSDK@@UEAA@XZ
?dtor$0@?0???A?$Tab@PEAVFPInterface@@@@QEBAAEAPEAVFPInterface@@_J@Z@4HA ENDP ; `Tab<FPInterface * __ptr64>::operator[]'::`1'::dtor$0
text$x	ENDS
; Function compile flags: /Ogtp
; File c:\program files\autodesk\3ds max 2020 sdk\maxsdk\include\tab.h
;	COMDAT ?ZeroCount@?$Tab@PEAVFPInterface@@@@QEAAXXZ
_TEXT	SEGMENT
this$ = 8
?ZeroCount@?$Tab@PEAVFPInterface@@@@QEAAXXZ PROC	; Tab<FPInterface * __ptr64>::ZeroCount, COMDAT

; 233  : 			if (th) {

	mov	rax, QWORD PTR [rcx+8]
	test	rax, rax
	je	SHORT $LN2@ZeroCount

; 234  : 				th->count = 0; 

	mov	DWORD PTR [rax], 0
$LN2@ZeroCount:

; 235  : 			}
; 236  : 		}

	ret	0
?ZeroCount@?$Tab@PEAVFPInterface@@@@QEAAXXZ ENDP	; Tab<FPInterface * __ptr64>::ZeroCount
_TEXT	ENDS
; Function compile flags: /Ogtp
; File c:\program files\autodesk\3ds max 2020 sdk\maxsdk\include\tab.h
;	COMDAT ?Count@?$Tab@PEAVFPInterface@@@@QEBAHXZ
_TEXT	SEGMENT
this$ = 8
?Count@?$Tab@PEAVFPInterface@@@@QEBAHXZ PROC		; Tab<FPInterface * __ptr64>::Count, COMDAT

; 221  : 			if (th) {

	mov	rax, QWORD PTR [rcx+8]
	test	rax, rax
	je	SHORT $LN2@Count

; 222  : 				return (th->count); 

	mov	eax, DWORD PTR [rax]

; 223  : 			}
; 224  : 			return 0; 
; 225  : 		}  

	ret	0
$LN2@Count:
	ret	0
?Count@?$Tab@PEAVFPInterface@@@@QEBAHXZ ENDP		; Tab<FPInterface * __ptr64>::Count
_TEXT	ENDS
; Function compile flags: /Ogtp
; File c:\program files\autodesk\3ds max 2020 sdk\maxsdk\include\ref.h
;	COMDAT ?NotifyTarget@ReferenceTarget@@UEAAXHPEAVReferenceMaker@@@Z
_TEXT	SEGMENT
this$ = 8
message$ = 16
hMaker$ = 24
?NotifyTarget@ReferenceTarget@@UEAAXHPEAVReferenceMaker@@@Z PROC ; ReferenceTarget::NotifyTarget, COMDAT

; 2187 : 		virtual void NotifyTarget(int message, ReferenceMaker* hMaker) { UNUSED_PARAM(message); UNUSED_PARAM(hMaker); }

	ret	0
?NotifyTarget@ReferenceTarget@@UEAAXHPEAVReferenceMaker@@@Z ENDP ; ReferenceTarget::NotifyTarget
_TEXT	ENDS
; Function compile flags: /Ogtp
; File c:\program files\autodesk\3ds max 2020 sdk\maxsdk\include\ref.h
;	COMDAT ?NotifyForeground@ReferenceTarget@@UEAAXH@Z
_TEXT	SEGMENT
$T1 = 80
this$ = 80
t$ = 88
?NotifyForeground@ReferenceTarget@@UEAAXH@Z PROC	; ReferenceTarget::NotifyForeground, COMDAT

; 2176 : 		virtual void NotifyForeground(TimeValue t) {

$LN4:
	mov	QWORD PTR [rsp+16], rbx
	push	rdi
	sub	rsp, 64					; 00000040H

; 2177 : 			NotifyDependents(Interval(t,t),PART_PUT_IN_FG,REFMSG_FLAGDEPENDENTS);

	mov	rbx, QWORD PTR [rcx]
	mov	rdi, rcx
	lea	rcx, QWORD PTR $T1[rsp]
	mov	r8d, edx
	call	QWORD PTR __imp_??0Interval@@QEAA@HH@Z
	mov	rdx, rax
	mov	rcx, rdi
	xor	eax, eax
	mov	DWORD PTR [rsp+56], eax
	mov	QWORD PTR [rsp+48], rax
	mov	DWORD PTR [rsp+40], 1
	lea	r9d, QWORD PTR [rax+112]
	mov	DWORD PTR [rsp+32], -16			; fffffff0H
	lea	r8d, QWORD PTR [rax+1]
	call	QWORD PTR [rbx+1200]

; 2178 : 		}

	mov	rbx, QWORD PTR [rsp+88]
	add	rsp, 64					; 00000040H
	pop	rdi
	ret	0
?NotifyForeground@ReferenceTarget@@UEAAXH@Z ENDP	; ReferenceTarget::NotifyForeground
_TEXT	ENDS
; Function compile flags: /Ogtp
; File c:\program files\autodesk\3ds max 2020 sdk\maxsdk\include\ref.h
;	COMDAT ?RefDeletedUndoRedo@ReferenceTarget@@UEAAXXZ
_TEXT	SEGMENT
this$ = 8
?RefDeletedUndoRedo@ReferenceTarget@@UEAAXXZ PROC	; ReferenceTarget::RefDeletedUndoRedo, COMDAT

; 1992 : 		virtual void RefDeletedUndoRedo() {}

	ret	0
?RefDeletedUndoRedo@ReferenceTarget@@UEAAXXZ ENDP	; ReferenceTarget::RefDeletedUndoRedo
_TEXT	ENDS
; Function compile flags: /Ogtp
; File c:\program files\autodesk\3ds max 2020 sdk\maxsdk\include\ref.h
;	COMDAT ?RefDeleted@ReferenceTarget@@UEAAXXZ
_TEXT	SEGMENT
this$ = 8
?RefDeleted@ReferenceTarget@@UEAAXXZ PROC		; ReferenceTarget::RefDeleted, COMDAT

; 1983 : 		virtual void RefDeleted() {}

	ret	0
?RefDeleted@ReferenceTarget@@UEAAXXZ ENDP		; ReferenceTarget::RefDeleted
_TEXT	ENDS
; Function compile flags: /Ogtp
; File c:\program files\autodesk\3ds max 2020 sdk\maxsdk\include\ref.h
;	COMDAT ?RefAddedUndoRedo@ReferenceTarget@@UEAAXPEAVReferenceMaker@@@Z
_TEXT	SEGMENT
this$ = 8
rm$ = 16
?RefAddedUndoRedo@ReferenceTarget@@UEAAXPEAVReferenceMaker@@@Z PROC ; ReferenceTarget::RefAddedUndoRedo, COMDAT

; 1972 : 		virtual void RefAddedUndoRedo(RefMakerHandle rm) { UNUSED_PARAM(rm); }

	ret	0
?RefAddedUndoRedo@ReferenceTarget@@UEAAXPEAVReferenceMaker@@@Z ENDP ; ReferenceTarget::RefAddedUndoRedo
_TEXT	ENDS
; Function compile flags: /Ogtp
; File c:\program files\autodesk\3ds max 2020 sdk\maxsdk\include\ref.h
;	COMDAT ?IsRefTarget@ReferenceTarget@@UEAAHXZ
_TEXT	SEGMENT
this$ = 8
?IsRefTarget@ReferenceTarget@@UEAAHXZ PROC		; ReferenceTarget::IsRefTarget, COMDAT

; 1911 : 		virtual BOOL IsRefTarget() { return TRUE; }

	mov	eax, 1
	ret	0
?IsRefTarget@ReferenceTarget@@UEAAHXZ ENDP		; ReferenceTarget::IsRefTarget
_TEXT	ENDS
; Function compile flags: /Ogtp
; File c:\program files\autodesk\3ds max 2020 sdk\maxsdk\include\ref.h
;	COMDAT ?ShouldPersistWeakRef@ReferenceMaker@@UEAAHPEAVReferenceTarget@@@Z
_TEXT	SEGMENT
this$ = 8
rtarg$ = 16
?ShouldPersistWeakRef@ReferenceMaker@@UEAAHPEAVReferenceTarget@@@Z PROC ; ReferenceMaker::ShouldPersistWeakRef, COMDAT

; 1701 : 		virtual BOOL ShouldPersistWeakRef(RefTargetHandle rtarg) { UNUSED_PARAM(rtarg); return FALSE; }

	xor	eax, eax
	ret	0
?ShouldPersistWeakRef@ReferenceMaker@@UEAAHPEAVReferenceTarget@@@Z ENDP ; ReferenceMaker::ShouldPersistWeakRef
_TEXT	ENDS
; Function compile flags: /Ogtp
; File c:\program files\autodesk\3ds max 2020 sdk\maxsdk\include\ref.h
;	COMDAT ?IsRealDependency@ReferenceMaker@@UEAAHPEAVReferenceTarget@@@Z
_TEXT	SEGMENT
this$ = 8
rtarg$ = 16
?IsRealDependency@ReferenceMaker@@UEAAHPEAVReferenceTarget@@@Z PROC ; ReferenceMaker::IsRealDependency, COMDAT

; 1676 : 		virtual BOOL IsRealDependency(ReferenceTarget *rtarg) { UNUSED_PARAM(rtarg); return TRUE;}

	mov	eax, 1
	ret	0
?IsRealDependency@ReferenceMaker@@UEAAHPEAVReferenceTarget@@@Z ENDP ; ReferenceMaker::IsRealDependency
_TEXT	ENDS
; Function compile flags: /Ogtp
; File c:\program files\autodesk\3ds max 2020 sdk\maxsdk\include\ref.h
;	COMDAT ?IsRefMaker@ReferenceMaker@@UEAAHXZ
_TEXT	SEGMENT
this$ = 8
?IsRefMaker@ReferenceMaker@@UEAAHXZ PROC		; ReferenceMaker::IsRefMaker, COMDAT

; 1657 : 		virtual BOOL IsRefMaker() { return TRUE; }

	mov	eax, 1
	ret	0
?IsRefMaker@ReferenceMaker@@UEAAHXZ ENDP		; ReferenceMaker::IsRefMaker
_TEXT	ENDS
; Function compile flags: /Ogtp
; File c:\program files\autodesk\3ds max 2020 sdk\maxsdk\include\ref.h
;	COMDAT ?NotifyDependents@ReferenceMaker@@EEAA?AW4RefResult@@AEBVInterval@@_KIKHPEAVReferenceTarget@@@Z
_TEXT	SEGMENT
this$ = 48
changeInt$ = 56
partID$ = 64
message$ = 72
sclass$ = 80
propagate$ = 88
hTarg$ = 96
?NotifyDependents@ReferenceMaker@@EEAA?AW4RefResult@@AEBVInterval@@_KIKHPEAVReferenceTarget@@@Z PROC ; ReferenceMaker::NotifyDependents, COMDAT

; 1390 : 		{

$LN5:
	sub	rsp, 40					; 00000028H

; 1391 : 			UNUSED_PARAM(changeInt); UNUSED_PARAM(partID);
; 1392 : 			UNUSED_PARAM(message); UNUSED_PARAM(sclass);
; 1393 : 			UNUSED_PARAM(propagate); UNUSED_PARAM(hTarg);
; 1394 : 			DbgAssert(false);

	lea	r9, OFFSET FLAT:??_C@_1M@HLGKFCJM@?$AAf?$AAa?$AAl?$AAs?$AAe?$AA?$AA@
	mov	ecx, 1394				; 00000572H
	lea	r8, OFFSET FLAT:??_C@_1EC@POJFJEHG@?$AAR?$AAe?$AAf?$AAe?$AAr?$AAe?$AAn?$AAc?$AAe?$AAM?$AAa?$AAk?$AAe?$AAr?$AA?3?$AA?3?$AAN?$AAo?$AAt?$AAi?$AAf?$AAy?$AAD?$AAe?$AAp?$AAe?$AAn?$AAd?$AAe?$AAn?$AAt?$AAs@
	lea	rdx, OFFSET FLAT:??_C@_1IA@EDMIGCEG@?$AAc?$AA?3?$AA?2?$AAp?$AAr?$AAo?$AAg?$AAr?$AAa?$AAm?$AA?5?$AAf?$AAi?$AAl?$AAe?$AAs?$AA?2?$AAa?$AAu?$AAt?$AAo?$AAd?$AAe?$AAs?$AAk?$AA?2?$AA3?$AAd?$AAs?$AA?5?$AAm?$AAa@
	call	QWORD PTR __imp_?assert1@@YAHHPEB_W00@Z

; 1395 : 			return REF_FAIL;

	xor	eax, eax

; 1396 : 		};

	add	rsp, 40					; 00000028H
	ret	0
?NotifyDependents@ReferenceMaker@@EEAA?AW4RefResult@@AEBVInterval@@_KIKHPEAVReferenceTarget@@@Z ENDP ; ReferenceMaker::NotifyDependents
_TEXT	ENDS
; Function compile flags: /Ogtp
; File c:\program files\autodesk\3ds max 2020 sdk\maxsdk\include\ref.h
;	COMDAT ?RemapRefOnLoad@ReferenceMaker@@UEAAHH@Z
_TEXT	SEGMENT
this$ = 8
iref$ = 16
?RemapRefOnLoad@ReferenceMaker@@UEAAHH@Z PROC		; ReferenceMaker::RemapRefOnLoad, COMDAT

; 1356 : 		virtual int RemapRefOnLoad(int iref) { return iref; }

	mov	eax, edx
	ret	0
?RemapRefOnLoad@ReferenceMaker@@UEAAHH@Z ENDP		; ReferenceMaker::RemapRefOnLoad
_TEXT	ENDS
; Function compile flags: /Ogtp
; File c:\program files\autodesk\3ds max 2020 sdk\maxsdk\include\ref.h
;	COMDAT ?CanTransferReference@ReferenceMaker@@UEAAHH@Z
_TEXT	SEGMENT
this$ = 8
i$ = 16
?CanTransferReference@ReferenceMaker@@UEAAHH@Z PROC	; ReferenceMaker::CanTransferReference, COMDAT

; 1257 : 		virtual BOOL CanTransferReference(int i) { UNUSED_PARAM(i); return TRUE; }

	mov	eax, 1
	ret	0
?CanTransferReference@ReferenceMaker@@UEAAHH@Z ENDP	; ReferenceMaker::CanTransferReference
_TEXT	ENDS
; Function compile flags: /Ogtp
; File c:\program files\autodesk\3ds max 2020 sdk\maxsdk\include\animatable.h
;	COMDAT ?GetMacroRecorderName@Animatable@@UEAA_N_NAEAVWStr@@@Z
_TEXT	SEGMENT
this$ = 8
used_as_rhs_value$ = 16
objectSpecifiedName$ = 24
?GetMacroRecorderName@Animatable@@UEAA_N_NAEAVWStr@@@Z PROC ; Animatable::GetMacroRecorderName, COMDAT

; 2982 : 		virtual bool GetMacroRecorderName(bool used_as_rhs_value, MSTR &objectSpecifiedName) { return false; }

	xor	al, al
	ret	0
?GetMacroRecorderName@Animatable@@UEAA_N_NAEAVWStr@@@Z ENDP ; Animatable::GetMacroRecorderName
_TEXT	ENDS
; Function compile flags: /Ogtp
; File c:\program files\autodesk\3ds max 2020 sdk\maxsdk\include\animatable.h
;	COMDAT ?IsParamBlockDesc2Used@Animatable@@UEAA_NPEAVParamBlockDesc2@@@Z
_TEXT	SEGMENT
this$ = 8
desc$ = 16
?IsParamBlockDesc2Used@Animatable@@UEAA_NPEAVParamBlockDesc2@@@Z PROC ; Animatable::IsParamBlockDesc2Used, COMDAT

; 2971 : 		virtual bool IsParamBlockDesc2Used(ParamBlockDesc2 * desc) { return true; }

	mov	al, 1
	ret	0
?IsParamBlockDesc2Used@Animatable@@UEAA_NPEAVParamBlockDesc2@@@Z ENDP ; Animatable::IsParamBlockDesc2Used
_TEXT	ENDS
; Function compile flags: /Ogtp
; File c:\program files\autodesk\3ds max 2020 sdk\maxsdk\include\animatable.h
; File c:\program files\autodesk\3ds max 2020 sdk\maxsdk\include\maxtypes.h
; File c:\program files\autodesk\3ds max 2020 sdk\maxsdk\include\animatable.h
; File c:\program files\autodesk\3ds max 2020 sdk\maxsdk\include\maxtypes.h
; File c:\program files\autodesk\3ds max 2020 sdk\maxsdk\include\animatable.h
;	COMDAT ?IsSubClassOf@Animatable@@UEAAHVClass_ID@@@Z
_TEXT	SEGMENT
$T1 = 48
this$ = 48
classID$ = 56
?IsSubClassOf@Animatable@@UEAAHVClass_ID@@@Z PROC	; Animatable::IsSubClassOf, COMDAT

; 2286 : 		virtual BOOL IsSubClassOf(Class_ID classID) {

$LN8:
	push	rbx
	sub	rsp, 32					; 00000020H

; 2287 : 			return (classID == ClassID());

	mov	rax, QWORD PTR [rcx]
	mov	rbx, rdx
	lea	rdx, QWORD PTR $T1[rsp]
	call	QWORD PTR [rax+40]
; File c:\program files\autodesk\3ds max 2020 sdk\maxsdk\include\maxtypes.h

; 170  : 	bool operator==(const Class_ID& cid) const { return ((a == cid.a) && (b == cid.b)); }

	mov	ecx, DWORD PTR [rax]
	cmp	DWORD PTR [rbx], ecx
	jne	SHORT $LN5@IsSubClass
	mov	eax, DWORD PTR [rax+4]
	cmp	DWORD PTR [rbx+4], eax
	jne	SHORT $LN5@IsSubClass
	mov	eax, 1
; File c:\program files\autodesk\3ds max 2020 sdk\maxsdk\include\animatable.h

; 2288 : 		}

	add	rsp, 32					; 00000020H
	pop	rbx
	ret	0
$LN5@IsSubClass:
; File c:\program files\autodesk\3ds max 2020 sdk\maxsdk\include\maxtypes.h

; 170  : 	bool operator==(const Class_ID& cid) const { return ((a == cid.a) && (b == cid.b)); }

	xor	eax, eax
; File c:\program files\autodesk\3ds max 2020 sdk\maxsdk\include\animatable.h

; 2287 : 			return (classID == ClassID());

	movzx	eax, al

; 2288 : 		}

	add	rsp, 32					; 00000020H
	pop	rbx
	ret	0
?IsSubClassOf@Animatable@@UEAAHVClass_ID@@@Z ENDP	; Animatable::IsSubClassOf
_TEXT	ENDS
; Function compile flags: /Ogtp
; File c:\program files\autodesk\3ds max 2020 sdk\maxsdk\include\animatable.h
;	COMDAT ?GetSystemNodes@Animatable@@UEAAXAEAVINodeTab@@W4SysNodeContext@@@Z
_TEXT	SEGMENT
this$ = 8
nodes$ = 16
Context$ = 24
?GetSystemNodes@Animatable@@UEAAXAEAVINodeTab@@W4SysNodeContext@@@Z PROC ; Animatable::GetSystemNodes, COMDAT

; 2266 : 		virtual void GetSystemNodes(INodeTab &nodes, SysNodeContext Context) {}

	ret	0
?GetSystemNodes@Animatable@@UEAAXAEAVINodeTab@@W4SysNodeContext@@@Z ENDP ; Animatable::GetSystemNodes
_TEXT	ENDS
; Function compile flags: /Ogtp
; File c:\program files\autodesk\3ds max 2020 sdk\maxsdk\include\animatable.h
;	COMDAT ?FreeAllBitmaps@Animatable@@UEAAXXZ
_TEXT	SEGMENT
this$ = 8
?FreeAllBitmaps@Animatable@@UEAAXXZ PROC		; Animatable::FreeAllBitmaps, COMDAT

; 2238 : 		virtual void FreeAllBitmaps() {}

	ret	0
?FreeAllBitmaps@Animatable@@UEAAXXZ ENDP		; Animatable::FreeAllBitmaps
_TEXT	ENDS
; Function compile flags: /Ogtp
; File c:\program files\autodesk\3ds max 2020 sdk\maxsdk\include\animatable.h
;	COMDAT ?SelectSubAnim@Animatable@@UEAAHH@Z
_TEXT	SEGMENT
this$ = 8
subNum$ = 16
?SelectSubAnim@Animatable@@UEAAHH@Z PROC		; Animatable::SelectSubAnim, COMDAT

; 2164 : 		virtual BOOL SelectSubAnim(int subNum) { return FALSE; }

	xor	eax, eax
	ret	0
?SelectSubAnim@Animatable@@UEAAHH@Z ENDP		; Animatable::SelectSubAnim
_TEXT	ENDS
; Function compile flags: /Ogtp
; File c:\program files\autodesk\3ds max 2020 sdk\maxsdk\include\animatable.h
;	COMDAT ?TrackViewWinProc@Animatable@@UEAA_JPEAUHWND__@@I_K_J@Z
_TEXT	SEGMENT
this$ = 8
hwnd$ = 16
message$ = 24
wParam$ = 32
lParam$ = 40
?TrackViewWinProc@Animatable@@UEAA_JPEAUHWND__@@I_K_J@Z PROC ; Animatable::TrackViewWinProc, COMDAT

; 2147 : 			LPARAM lParam ) { return 0;}

	xor	eax, eax
	ret	0
?TrackViewWinProc@Animatable@@UEAA_JPEAUHWND__@@I_K_J@Z ENDP ; Animatable::TrackViewWinProc
_TEXT	ENDS
; Function compile flags: /Ogtp
; File c:\program files\autodesk\3ds max 2020 sdk\maxsdk\include\animatable.h
;	COMDAT ?GetParamDimension@Animatable@@UEAAPEAVParamDimension@@H@Z
_TEXT	SEGMENT
this$ = 8
i$ = 16
?GetParamDimension@Animatable@@UEAAPEAVParamDimension@@H@Z PROC ; Animatable::GetParamDimension, COMDAT

; 2138 : 		virtual ParamDimension* GetParamDimension(int i) { return defaultDim; }

	mov	rax, QWORD PTR __imp_?defaultDim@@3PEAVParamDimension@@EA
	mov	rax, QWORD PTR [rax]
	ret	0
?GetParamDimension@Animatable@@UEAAPEAVParamDimension@@H@Z ENDP ; Animatable::GetParamDimension
_TEXT	ENDS
; Function compile flags: /Ogtp
; File c:\program files\autodesk\3ds max 2020 sdk\maxsdk\include\animatable.h
;	COMDAT ?GetSubFCurveExtents@Animatable@@UEAAHHPEAVParamDimensionBase@@AEAM1K@Z
_TEXT	SEGMENT
this$ = 8
subNum$ = 16
dim$ = 24
min$ = 32
max$ = 40
flags$ = 48
?GetSubFCurveExtents@Animatable@@UEAAHHPEAVParamDimensionBase@@AEAM1K@Z PROC ; Animatable::GetSubFCurveExtents, COMDAT

; 2129 : 			DWORD flags) { return 0; }

	xor	eax, eax
	ret	0
?GetSubFCurveExtents@Animatable@@UEAAHHPEAVParamDimensionBase@@AEAM1K@Z ENDP ; Animatable::GetSubFCurveExtents
_TEXT	ENDS
; Function compile flags: /Ogtp
; File c:\program files\autodesk\3ds max 2020 sdk\maxsdk\include\animatable.h
;	COMDAT ?GetFCurveExtents@Animatable@@UEAAHPEAVParamDimensionBase@@AEAM1K@Z
_TEXT	SEGMENT
this$ = 8
dim$ = 16
min$ = 24
max$ = 32
flags$ = 40
?GetFCurveExtents@Animatable@@UEAAHPEAVParamDimensionBase@@AEAM1K@Z PROC ; Animatable::GetFCurveExtents, COMDAT

; 2098 : 			DWORD flags) { return 0; }

	xor	eax, eax
	ret	0
?GetFCurveExtents@Animatable@@UEAAHPEAVParamDimensionBase@@AEAM1K@Z ENDP ; Animatable::GetFCurveExtents
_TEXT	ENDS
; Function compile flags: /Ogtp
; File c:\program files\autodesk\3ds max 2020 sdk\maxsdk\include\animatable.h
;	COMDAT ?TrackParamsType@Animatable@@UEAAHXZ
_TEXT	SEGMENT
this$ = 8
?TrackParamsType@Animatable@@UEAAHXZ PROC		; Animatable::TrackParamsType, COMDAT

; 2070 : 		virtual int TrackParamsType() {return TRACKPARAMS_NONE;}

	xor	eax, eax
	ret	0
?TrackParamsType@Animatable@@UEAAHXZ ENDP		; Animatable::TrackParamsType
_TEXT	ENDS
; Function compile flags: /Ogtp
; File c:\program files\autodesk\3ds max 2020 sdk\maxsdk\include\animatable.h
;	COMDAT ?EditTrackParams@Animatable@@UEAAXHPEAVParamDimensionBase@@PEB_WPEAUHWND__@@PEAVIObjParam@@K@Z
_TEXT	SEGMENT
this$ = 8
t$ = 16
dim$ = 24
pname$ = 32
hParent$ = 40
ip$ = 48
flags$ = 56
?EditTrackParams@Animatable@@UEAAXHPEAVParamDimensionBase@@PEB_WPEAUHWND__@@PEAVIObjParam@@K@Z PROC ; Animatable::EditTrackParams, COMDAT

; 2049 : 			DWORD flags) {}

	ret	0
?EditTrackParams@Animatable@@UEAAXHPEAVParamDimensionBase@@PEB_WPEAUHWND__@@PEAVIObjParam@@K@Z ENDP ; Animatable::EditTrackParams
_TEXT	ENDS
; Function compile flags: /Ogtp
; File c:\program files\autodesk\3ds max 2020 sdk\maxsdk\include\animatable.h
;	COMDAT ?HitTestSubFCurves@Animatable@@UEAAHHPEAVParamDimensionBase@@AEAV?$Tab@VTrackHitRecord@@@@AEAVBox2@@2MHMHK@Z
_TEXT	SEGMENT
this$ = 8
subNum$ = 16
dim$ = 24
hits$ = 32
rcHit$ = 40
rcGraph$ = 48
tzoom$ = 56
tscroll$ = 64
vzoom$ = 72
vscroll$ = 80
flags$ = 88
?HitTestSubFCurves@Animatable@@UEAAHHPEAVParamDimensionBase@@AEAV?$Tab@VTrackHitRecord@@@@AEAVBox2@@2MHMHK@Z PROC ; Animatable::HitTestSubFCurves, COMDAT

; 2014 : 			DWORD flags ) { return HITCURVE_NONE; }

	mov	eax, 4
	ret	0
?HitTestSubFCurves@Animatable@@UEAAHHPEAVParamDimensionBase@@AEAV?$Tab@VTrackHitRecord@@@@AEAVBox2@@2MHMHK@Z ENDP ; Animatable::HitTestSubFCurves
_TEXT	ENDS
; Function compile flags: /Ogtp
; File c:\program files\autodesk\3ds max 2020 sdk\maxsdk\include\animatable.h
;	COMDAT ?PaintSubFCurves@Animatable@@UEAAHHPEAVParamDimensionBase@@PEAUHDC__@@AEAVBox2@@2MHMHK@Z
_TEXT	SEGMENT
this$ = 8
subNum$ = 16
dim$ = 24
hdc$ = 32
rcGraph$ = 40
rcPaint$ = 48
tzoom$ = 56
tscroll$ = 64
vzoom$ = 72
vscroll$ = 80
flags$ = 88
?PaintSubFCurves@Animatable@@UEAAHHPEAVParamDimensionBase@@PEAUHDC__@@AEAVBox2@@2MHMHK@Z PROC ; Animatable::PaintSubFCurves, COMDAT

; 1960 : 			DWORD flags ) { return 0; }

	xor	eax, eax
	ret	0
?PaintSubFCurves@Animatable@@UEAAHHPEAVParamDimensionBase@@PEAUHDC__@@AEAVBox2@@2MHMHK@Z ENDP ; Animatable::PaintSubFCurves
_TEXT	ENDS
; Function compile flags: /Ogtp
; File c:\program files\autodesk\3ds max 2020 sdk\maxsdk\include\animatable.h
;	COMDAT ?HitTestFCurves@Animatable@@UEAAHPEAVParamDimensionBase@@AEAV?$Tab@VTrackHitRecord@@@@AEAVBox2@@2MHMHK@Z
_TEXT	SEGMENT
this$ = 8
dim$ = 16
hits$ = 24
rcHit$ = 32
rcGraph$ = 40
tzoom$ = 48
tscroll$ = 56
vzoom$ = 64
vscroll$ = 72
flags$ = 80
?HitTestFCurves@Animatable@@UEAAHPEAVParamDimensionBase@@AEAV?$Tab@VTrackHitRecord@@@@AEAVBox2@@2MHMHK@Z PROC ; Animatable::HitTestFCurves, COMDAT

; 1913 : 			DWORD flags ) { return HITCURVE_NONE; }

	mov	eax, 4
	ret	0
?HitTestFCurves@Animatable@@UEAAHPEAVParamDimensionBase@@AEAV?$Tab@VTrackHitRecord@@@@AEAVBox2@@2MHMHK@Z ENDP ; Animatable::HitTestFCurves
_TEXT	ENDS
; Function compile flags: /Ogtp
; File c:\program files\autodesk\3ds max 2020 sdk\maxsdk\include\animatable.h
;	COMDAT ?PaintFCurves@Animatable@@UEAAHPEAVParamDimensionBase@@PEAUHDC__@@AEAVBox2@@2MHMHK@Z
_TEXT	SEGMENT
this$ = 8
dim$ = 16
hdc$ = 24
rcGraph$ = 32
rcPaint$ = 40
tzoom$ = 48
tscroll$ = 56
vzoom$ = 64
vscroll$ = 72
flags$ = 80
?PaintFCurves@Animatable@@UEAAHPEAVParamDimensionBase@@PEAUHDC__@@AEAVBox2@@2MHMHK@Z PROC ; Animatable::PaintFCurves, COMDAT

; 1859 : 			DWORD flags ) { return 0; }

	xor	eax, eax
	ret	0
?PaintFCurves@Animatable@@UEAAHPEAVParamDimensionBase@@PEAUHDC__@@AEAVBox2@@2MHMHK@Z ENDP ; Animatable::PaintFCurves
_TEXT	ENDS
; Function compile flags: /Ogtp
; File c:\program files\autodesk\3ds max 2020 sdk\maxsdk\include\animatable.h
;	COMDAT ?PaintSubTrack@Animatable@@UEAAHHPEAVParamDimensionBase@@PEAUHDC__@@AEAVBox2@@2MHK@Z
_TEXT	SEGMENT
this$ = 8
subNum$ = 16
dim$ = 24
hdc$ = 32
rcTrack$ = 40
rcPaint$ = 48
zoom$ = 56
scroll$ = 64
flags$ = 72
?PaintSubTrack@Animatable@@UEAAHHPEAVParamDimensionBase@@PEAUHDC__@@AEAVBox2@@2MHK@Z PROC ; Animatable::PaintSubTrack, COMDAT

; 1812 : 			DWORD flags) {return TRACK_DORANGE;}

	mov	eax, 2
	ret	0
?PaintSubTrack@Animatable@@UEAAHHPEAVParamDimensionBase@@PEAUHDC__@@AEAVBox2@@2MHK@Z ENDP ; Animatable::PaintSubTrack
_TEXT	ENDS
; Function compile flags: /Ogtp
; File c:\program files\autodesk\3ds max 2020 sdk\maxsdk\include\animatable.h
;	COMDAT ?PaintTrack@Animatable@@UEAAHPEAVParamDimensionBase@@PEAUHDC__@@AEAVBox2@@2MHK@Z
_TEXT	SEGMENT
this$ = 8
dim$ = 16
hdc$ = 24
rcTrack$ = 32
rcPaint$ = 40
zoom$ = 48
scroll$ = 56
flags$ = 64
?PaintTrack@Animatable@@UEAAHPEAVParamDimensionBase@@PEAUHDC__@@AEAVBox2@@2MHK@Z PROC ; Animatable::PaintTrack, COMDAT

; 1777 : 			DWORD flags ) { return TRACK_DORANGE; }

	mov	eax, 2
	ret	0
?PaintTrack@Animatable@@UEAAHPEAVParamDimensionBase@@PEAUHDC__@@AEAVBox2@@2MHK@Z ENDP ; Animatable::PaintTrack
_TEXT	ENDS
; Function compile flags: /Ogtp
; File c:\program files\autodesk\3ds max 2020 sdk\maxsdk\include\animatable.h
;	COMDAT ?HitTestTrack@Animatable@@UEAAHAEAV?$Tab@VTrackHitRecord@@@@AEAVBox2@@1MHK@Z
_TEXT	SEGMENT
this$ = 8
hits$ = 16
rcHit$ = 24
rcTrack$ = 32
zoom$ = 40
scroll$ = 48
flags$ = 56
?HitTestTrack@Animatable@@UEAAHAEAV?$Tab@VTrackHitRecord@@@@AEAVBox2@@1MHK@Z PROC ; Animatable::HitTestTrack, COMDAT

; 1737 : 			DWORD flags ) { return TRACK_DORANGE; }

	mov	eax, 2
	ret	0
?HitTestTrack@Animatable@@UEAAHAEAV?$Tab@VTrackHitRecord@@@@AEAVBox2@@1MHK@Z ENDP ; Animatable::HitTestTrack
_TEXT	ENDS
; Function compile flags: /Ogtp
; File c:\program files\autodesk\3ds max 2020 sdk\maxsdk\include\animatable.h
;	COMDAT ?GetTrackVSpace@Animatable@@UEAAHH@Z
_TEXT	SEGMENT
this$ = 8
lineHeight$ = 16
?GetTrackVSpace@Animatable@@UEAAHH@Z PROC		; Animatable::GetTrackVSpace, COMDAT

; 1695 : 		virtual int GetTrackVSpace( int lineHeight ) { return 1; }

	mov	eax, 1
	ret	0
?GetTrackVSpace@Animatable@@UEAAHH@Z ENDP		; Animatable::GetTrackVSpace
_TEXT	ENDS
; Function compile flags: /Ogtp
; File c:\program files\autodesk\3ds max 2020 sdk\maxsdk\include\animatable.h
;	COMDAT ?PasteSubTrack@Animatable@@UEAAXHPEAVTrackClipObject@@VInterval@@K@Z
_TEXT	SEGMENT
this$ = 8
subNum$ = 16
cobj$ = 24
iv$ = 32
flags$ = 40
?PasteSubTrack@Animatable@@UEAAXHPEAVTrackClipObject@@VInterval@@K@Z PROC ; Animatable::PasteSubTrack, COMDAT

; 1686 : 		virtual void PasteSubTrack(int subNum, TrackClipObject *cobj, Interval iv, DWORD flags) {}

	ret	0
?PasteSubTrack@Animatable@@UEAAXHPEAVTrackClipObject@@VInterval@@K@Z ENDP ; Animatable::PasteSubTrack
_TEXT	ENDS
; Function compile flags: /Ogtp
; File c:\program files\autodesk\3ds max 2020 sdk\maxsdk\include\animatable.h
;	COMDAT ?CopySubTrack@Animatable@@UEAAPEAVTrackClipObject@@HVInterval@@K@Z
_TEXT	SEGMENT
this$ = 8
subNum$ = 16
iv$ = 24
flags$ = 32
?CopySubTrack@Animatable@@UEAAPEAVTrackClipObject@@HVInterval@@K@Z PROC ; Animatable::CopySubTrack, COMDAT

; 1673 : 		virtual TrackClipObject *CopySubTrack(int subNum, Interval iv, DWORD flags) { return NULL; }

	xor	eax, eax
	ret	0
?CopySubTrack@Animatable@@UEAAPEAVTrackClipObject@@HVInterval@@K@Z ENDP ; Animatable::CopySubTrack
_TEXT	ENDS
; Function compile flags: /Ogtp
; File c:\program files\autodesk\3ds max 2020 sdk\maxsdk\include\animatable.h
;	COMDAT ?CanPasteSubTrack@Animatable@@UEAAHHPEAVTrackClipObject@@VInterval@@K@Z
_TEXT	SEGMENT
this$ = 8
subNum$ = 16
cobj$ = 24
iv$ = 32
flags$ = 40
?CanPasteSubTrack@Animatable@@UEAAHHPEAVTrackClipObject@@VInterval@@K@Z PROC ; Animatable::CanPasteSubTrack, COMDAT

; 1658 : 		virtual BOOL CanPasteSubTrack(int subNum,TrackClipObject *cobj, Interval iv, DWORD flags) { return FALSE; }

	xor	eax, eax
	ret	0
?CanPasteSubTrack@Animatable@@UEAAHHPEAVTrackClipObject@@VInterval@@K@Z ENDP ; Animatable::CanPasteSubTrack
_TEXT	ENDS
; Function compile flags: /Ogtp
; File c:\program files\autodesk\3ds max 2020 sdk\maxsdk\include\animatable.h
;	COMDAT ?CanCopySubTrack@Animatable@@UEAAHHVInterval@@K@Z
_TEXT	SEGMENT
this$ = 8
subNum$ = 16
iv$ = 24
flags$ = 32
?CanCopySubTrack@Animatable@@UEAAHHVInterval@@K@Z PROC	; Animatable::CanCopySubTrack, COMDAT

; 1638 : 		virtual BOOL CanCopySubTrack(int subNum, Interval iv, DWORD flags) { return FALSE; }

	xor	eax, eax
	ret	0
?CanCopySubTrack@Animatable@@UEAAHHVInterval@@K@Z ENDP	; Animatable::CanCopySubTrack
_TEXT	ENDS
; Function compile flags: /Ogtp
; File c:\program files\autodesk\3ds max 2020 sdk\maxsdk\include\animatable.h
;	COMDAT ?PasteTrack@Animatable@@UEAAXPEAVTrackClipObject@@VInterval@@K@Z
_TEXT	SEGMENT
this$ = 8
cobj$ = 16
iv$ = 24
flags$ = 32
?PasteTrack@Animatable@@UEAAXPEAVTrackClipObject@@VInterval@@K@Z PROC ; Animatable::PasteTrack, COMDAT

; 1616 : 		virtual void PasteTrack(TrackClipObject *cobj, Interval iv, DWORD flags) {}

	ret	0
?PasteTrack@Animatable@@UEAAXPEAVTrackClipObject@@VInterval@@K@Z ENDP ; Animatable::PasteTrack
_TEXT	ENDS
; Function compile flags: /Ogtp
; File c:\program files\autodesk\3ds max 2020 sdk\maxsdk\include\animatable.h
;	COMDAT ?CopyTrack@Animatable@@UEAAPEAVTrackClipObject@@VInterval@@K@Z
_TEXT	SEGMENT
this$ = 8
iv$ = 16
flags$ = 24
?CopyTrack@Animatable@@UEAAPEAVTrackClipObject@@VInterval@@K@Z PROC ; Animatable::CopyTrack, COMDAT

; 1607 : 		virtual TrackClipObject *CopyTrack(Interval iv, DWORD flags) { return NULL; }

	xor	eax, eax
	ret	0
?CopyTrack@Animatable@@UEAAPEAVTrackClipObject@@VInterval@@K@Z ENDP ; Animatable::CopyTrack
_TEXT	ENDS
; Function compile flags: /Ogtp
; File c:\program files\autodesk\3ds max 2020 sdk\maxsdk\include\animatable.h
;	COMDAT ?CanPasteTrack@Animatable@@UEAAHPEAVTrackClipObject@@VInterval@@K@Z
_TEXT	SEGMENT
this$ = 8
cobj$ = 16
iv$ = 24
flags$ = 32
?CanPasteTrack@Animatable@@UEAAHPEAVTrackClipObject@@VInterval@@K@Z PROC ; Animatable::CanPasteTrack, COMDAT

; 1595 : 		virtual BOOL CanPasteTrack(TrackClipObject *cobj, Interval iv, DWORD flags) { return FALSE; }

	xor	eax, eax
	ret	0
?CanPasteTrack@Animatable@@UEAAHPEAVTrackClipObject@@VInterval@@K@Z ENDP ; Animatable::CanPasteTrack
_TEXT	ENDS
; Function compile flags: /Ogtp
; File c:\program files\autodesk\3ds max 2020 sdk\maxsdk\include\animatable.h
;	COMDAT ?CanCopyTrack@Animatable@@UEAAHVInterval@@K@Z
_TEXT	SEGMENT
this$ = 8
iv$ = 16
flags$ = 24
?CanCopyTrack@Animatable@@UEAAHVInterval@@K@Z PROC	; Animatable::CanCopyTrack, COMDAT

; 1583 : 		virtual BOOL CanCopyTrack(Interval iv, DWORD flags) { return FALSE; }

	xor	eax, eax
	ret	0
?CanCopyTrack@Animatable@@UEAAHVInterval@@K@Z ENDP	; Animatable::CanCopyTrack
_TEXT	ENDS
; Function compile flags: /Ogtp
; File c:\program files\autodesk\3ds max 2020 sdk\maxsdk\include\animatable.h
;	COMDAT ?RevertSetKeyBuffer@Animatable@@UEAAXXZ
_TEXT	SEGMENT
this$ = 8
?RevertSetKeyBuffer@Animatable@@UEAAXXZ PROC		; Animatable::RevertSetKeyBuffer, COMDAT

; 1558 : 		virtual void RevertSetKeyBuffer() {}

	ret	0
?RevertSetKeyBuffer@Animatable@@UEAAXXZ ENDP		; Animatable::RevertSetKeyBuffer
_TEXT	ENDS
; Function compile flags: /Ogtp
; File c:\program files\autodesk\3ds max 2020 sdk\maxsdk\include\animatable.h
;	COMDAT ?CommitSetKeyBuffer@Animatable@@UEAAXH@Z
_TEXT	SEGMENT
this$ = 8
t$ = 16
?CommitSetKeyBuffer@Animatable@@UEAAXH@Z PROC		; Animatable::CommitSetKeyBuffer, COMDAT

; 1539 : 		virtual void CommitSetKeyBuffer(TimeValue t) {}

	ret	0
?CommitSetKeyBuffer@Animatable@@UEAAXH@Z ENDP		; Animatable::CommitSetKeyBuffer
_TEXT	ENDS
; Function compile flags: /Ogtp
; File c:\program files\autodesk\3ds max 2020 sdk\maxsdk\include\animatable.h
;	COMDAT ?SetKeyBufferPresent@Animatable@@UEAAHXZ
_TEXT	SEGMENT
this$ = 8
?SetKeyBufferPresent@Animatable@@UEAAHXZ PROC		; Animatable::SetKeyBufferPresent, COMDAT

; 1518 : 		virtual BOOL SetKeyBufferPresent() { return FALSE; }

	xor	eax, eax
	ret	0
?SetKeyBufferPresent@Animatable@@UEAAHXZ ENDP		; Animatable::SetKeyBufferPresent
_TEXT	ENDS
; Function compile flags: /Ogtp
; File c:\program files\autodesk\3ds max 2020 sdk\maxsdk\include\animatable.h
;	COMDAT ?AdjustTangents@Animatable@@UEAAXVTrackHitRecord@@PEAVParamDimensionBase@@MMK@Z
_TEXT	SEGMENT
this$ = 8
hit$ = 16
dim$ = 24
angle$ = 32
length$ = 40
flags$ = 48
?AdjustTangents@Animatable@@UEAAXVTrackHitRecord@@PEAVParamDimensionBase@@MMK@Z PROC ; Animatable::AdjustTangents, COMDAT

; 1489 : 			DWORD flags) {};

	ret	0
?AdjustTangents@Animatable@@UEAAXVTrackHitRecord@@PEAVParamDimensionBase@@MMK@Z ENDP ; Animatable::AdjustTangents
_TEXT	ENDS
; Function compile flags: /Ogtp
; File c:\program files\autodesk\3ds max 2020 sdk\maxsdk\include\animatable.h
;	COMDAT ?AdjustTangents@Animatable@@UEAAXVTrackHitRecord@@PEAVParamDimensionBase@@AEAVBox2@@MHMHHHK@Z
_TEXT	SEGMENT
this$ = 8
hit$ = 16
dim$ = 24
rcGraph$ = 32
tzoom$ = 40
tscroll$ = 48
vzoom$ = 56
vscroll$ = 64
dx$ = 72
dy$ = 80
flags$ = 88
?AdjustTangents@Animatable@@UEAAXVTrackHitRecord@@PEAVParamDimensionBase@@AEAVBox2@@MHMHHHK@Z PROC ; Animatable::AdjustTangents, COMDAT

; 1466 : 			DWORD flags) {};

	ret	0
?AdjustTangents@Animatable@@UEAAXVTrackHitRecord@@PEAVParamDimensionBase@@AEAVBox2@@MHMHHHK@Z ENDP ; Animatable::AdjustTangents
_TEXT	ENDS
; Function compile flags: /Ogtp
; File c:\program files\autodesk\3ds max 2020 sdk\maxsdk\include\animatable.h
;	COMDAT ?SetSelKeyCoordsExpr@Animatable@@UEAAHPEAVParamDimension@@PEB_W1K@Z
_TEXT	SEGMENT
this$ = 8
dim$ = 16
timeExpr$ = 24
valExpr$ = 32
flags$ = 40
?SetSelKeyCoordsExpr@Animatable@@UEAAHPEAVParamDimension@@PEB_W1K@Z PROC ; Animatable::SetSelKeyCoordsExpr, COMDAT

; 1430 : 				return KEYCOORDS_EXPR_UNSUPPORTED;

	xor	eax, eax

; 1431 : 		}

	ret	0
?SetSelKeyCoordsExpr@Animatable@@UEAAHPEAVParamDimension@@PEB_W1K@Z ENDP ; Animatable::SetSelKeyCoordsExpr
_TEXT	ENDS
; Function compile flags: /Ogtp
; File c:\program files\autodesk\3ds max 2020 sdk\maxsdk\include\animatable.h
;	COMDAT ?SetSelKeyCoords@Animatable@@UEAAXHMK@Z
_TEXT	SEGMENT
this$ = 8
t$ = 16
val$ = 24
flags$ = 32
?SetSelKeyCoords@Animatable@@UEAAXHMK@Z PROC		; Animatable::SetSelKeyCoords, COMDAT

; 1386 : 		virtual void SetSelKeyCoords(TimeValue t, float val,DWORD flags) {}

	ret	0
?SetSelKeyCoords@Animatable@@UEAAXHMK@Z ENDP		; Animatable::SetSelKeyCoords
_TEXT	ENDS
; Function compile flags: /Ogtp
; File c:\program files\autodesk\3ds max 2020 sdk\maxsdk\include\animatable.h
;	COMDAT ?GetSelKeyCoords@Animatable@@UEAAHAEAHAEAMK@Z
_TEXT	SEGMENT
this$ = 8
t$ = 16
val$ = 24
flags$ = 32
?GetSelKeyCoords@Animatable@@UEAAHAEAHAEAMK@Z PROC	; Animatable::GetSelKeyCoords, COMDAT

; 1372 : 			return KEYS_NONESELECTED; 

	mov	eax, 1

; 1373 : 		}

	ret	0
?GetSelKeyCoords@Animatable@@UEAAHAEAHAEAMK@Z ENDP	; Animatable::GetSelKeyCoords
_TEXT	ENDS
; Function compile flags: /Ogtp
; File c:\program files\autodesk\3ds max 2020 sdk\maxsdk\include\animatable.h
;	COMDAT ?IsSubCurveSelected@Animatable@@UEAAHH@Z
_TEXT	SEGMENT
this$ = 8
subNum$ = 16
?IsSubCurveSelected@Animatable@@UEAAHH@Z PROC		; Animatable::IsSubCurveSelected, COMDAT

; 1344 : 		virtual BOOL IsSubCurveSelected(int subNum) { return FALSE; }

	xor	eax, eax
	ret	0
?IsSubCurveSelected@Animatable@@UEAAHH@Z ENDP		; Animatable::IsSubCurveSelected
_TEXT	ENDS
; Function compile flags: /Ogtp
; File c:\program files\autodesk\3ds max 2020 sdk\maxsdk\include\animatable.h
;	COMDAT ?IsCurveSelected@Animatable@@UEAAHXZ
_TEXT	SEGMENT
this$ = 8
?IsCurveSelected@Animatable@@UEAAHXZ PROC		; Animatable::IsCurveSelected, COMDAT

; 1339 : 		virtual BOOL IsCurveSelected() { return FALSE; }		

	xor	eax, eax
	ret	0
?IsCurveSelected@Animatable@@UEAAHXZ ENDP		; Animatable::IsCurveSelected
_TEXT	ENDS
; Function compile flags: /Ogtp
; File c:\program files\autodesk\3ds max 2020 sdk\maxsdk\include\animatable.h
;	COMDAT ?SelectCurve@Animatable@@UEAAXH@Z
_TEXT	SEGMENT
this$ = 8
sel$ = 16
?SelectCurve@Animatable@@UEAAXH@Z PROC			; Animatable::SelectCurve, COMDAT

; 1334 : 		virtual void SelectCurve(BOOL sel) {}

	ret	0
?SelectCurve@Animatable@@UEAAXH@Z ENDP			; Animatable::SelectCurve
_TEXT	ENDS
; Function compile flags: /Ogtp
; File c:\program files\autodesk\3ds max 2020 sdk\maxsdk\include\animatable.h
;	COMDAT ?ScaleKeyValues@Animatable@@UEAAXPEAVParamDimensionBase@@MMK@Z
_TEXT	SEGMENT
this$ = 8
dim$ = 16
origin$ = 24
scale$ = 32
flags$ = 40
?ScaleKeyValues@Animatable@@UEAAXPEAVParamDimensionBase@@MMK@Z PROC ; Animatable::ScaleKeyValues, COMDAT

; 1327 : 			DWORD flags) {}

	ret	0
?ScaleKeyValues@Animatable@@UEAAXPEAVParamDimensionBase@@MMK@Z ENDP ; Animatable::ScaleKeyValues
_TEXT	ENDS
; Function compile flags: /Ogtp
; File c:\program files\autodesk\3ds max 2020 sdk\maxsdk\include\animatable.h
;	COMDAT ?MoveKeys@Animatable@@UEAAXPEAVParamDimensionBase@@MK@Z
_TEXT	SEGMENT
this$ = 8
dim$ = 16
delta$ = 24
flags$ = 32
?MoveKeys@Animatable@@UEAAXPEAVParamDimensionBase@@MK@Z PROC ; Animatable::MoveKeys, COMDAT

; 1281 : 		virtual void MoveKeys(ParamDimensionBase *dim, float delta, DWORD flags) {}  

	ret	0
?MoveKeys@Animatable@@UEAAXPEAVParamDimensionBase@@MK@Z ENDP ; Animatable::MoveKeys
_TEXT	ENDS
; Function compile flags: /Ogtp
; File c:\program files\autodesk\3ds max 2020 sdk\maxsdk\include\animatable.h
;	COMDAT ?AddNewKey@Animatable@@UEAAXHK@Z
_TEXT	SEGMENT
this$ = 8
t$ = 16
flags$ = 24
?AddNewKey@Animatable@@UEAAXHK@Z PROC			; Animatable::AddNewKey, COMDAT

; 1257 : 		virtual void AddNewKey(TimeValue t, DWORD flags) {}

	ret	0
?AddNewKey@Animatable@@UEAAXHK@Z ENDP			; Animatable::AddNewKey
_TEXT	ENDS
; Function compile flags: /Ogtp
; File c:\program files\autodesk\3ds max 2020 sdk\maxsdk\include\animatable.h
;	COMDAT ?CloneSelectedKeys@Animatable@@UEAAXH@Z
_TEXT	SEGMENT
this$ = 8
offset$ = 16
?CloneSelectedKeys@Animatable@@UEAAXH@Z PROC		; Animatable::CloneSelectedKeys, COMDAT

; 1245 : 		virtual void CloneSelectedKeys(BOOL offset = FALSE) {}   

	ret	0
?CloneSelectedKeys@Animatable@@UEAAXH@Z ENDP		; Animatable::CloneSelectedKeys
_TEXT	ENDS
; Function compile flags: /Ogtp
; File c:\program files\autodesk\3ds max 2020 sdk\maxsdk\include\animatable.h
;	COMDAT ?NumSelKeys@Animatable@@UEAAHXZ
_TEXT	SEGMENT
this$ = 8
?NumSelKeys@Animatable@@UEAAHXZ PROC			; Animatable::NumSelKeys, COMDAT

; 1239 : 		virtual int NumSelKeys() { return 0; }

	xor	eax, eax
	ret	0
?NumSelKeys@Animatable@@UEAAHXZ ENDP			; Animatable::NumSelKeys
_TEXT	ENDS
; Function compile flags: /Ogtp
; File c:\program files\autodesk\3ds max 2020 sdk\maxsdk\include\animatable.h
;	COMDAT ?GetFlagKeyIndex@Animatable@@UEAAHXZ
_TEXT	SEGMENT
this$ = 8
?GetFlagKeyIndex@Animatable@@UEAAHXZ PROC		; Animatable::GetFlagKeyIndex, COMDAT

; 1235 : 		virtual int GetFlagKeyIndex() { return -1; } 

	or	eax, -1
	ret	0
?GetFlagKeyIndex@Animatable@@UEAAHXZ ENDP		; Animatable::GetFlagKeyIndex
_TEXT	ENDS
; Function compile flags: /Ogtp
; File c:\program files\autodesk\3ds max 2020 sdk\maxsdk\include\animatable.h
;	COMDAT ?FlagKey@Animatable@@UEAAXVTrackHitRecord@@@Z
_TEXT	SEGMENT
this$ = 8
hit$ = 16
?FlagKey@Animatable@@UEAAXVTrackHitRecord@@@Z PROC	; Animatable::FlagKey, COMDAT

; 1227 : 		virtual void FlagKey(TrackHitRecord hit) {}

	ret	0
?FlagKey@Animatable@@UEAAXVTrackHitRecord@@@Z ENDP	; Animatable::FlagKey
_TEXT	ENDS
; Function compile flags: /Ogtp
; File c:\program files\autodesk\3ds max 2020 sdk\maxsdk\include\animatable.h
;	COMDAT ?IsKeySelected@Animatable@@UEAAHH@Z
_TEXT	SEGMENT
this$ = 8
i$ = 16
?IsKeySelected@Animatable@@UEAAHH@Z PROC		; Animatable::IsKeySelected, COMDAT

; 1207 : 		virtual BOOL IsKeySelected(int i) { return FALSE; }

	xor	eax, eax
	ret	0
?IsKeySelected@Animatable@@UEAAHH@Z ENDP		; Animatable::IsKeySelected
_TEXT	ENDS
; Function compile flags: /Ogtp
; File c:\program files\autodesk\3ds max 2020 sdk\maxsdk\include\animatable.h
;	COMDAT ?SelectKeyByIndex@Animatable@@UEAAXHH@Z
_TEXT	SEGMENT
this$ = 8
i$ = 16
sel$ = 24
?SelectKeyByIndex@Animatable@@UEAAXHH@Z PROC		; Animatable::SelectKeyByIndex, COMDAT

; 1201 : 		virtual void SelectKeyByIndex(int i, BOOL sel) {}

	ret	0
?SelectKeyByIndex@Animatable@@UEAAXHH@Z ENDP		; Animatable::SelectKeyByIndex
_TEXT	ENDS
; Function compile flags: /Ogtp
; File c:\program files\autodesk\3ds max 2020 sdk\maxsdk\include\animatable.h
;	COMDAT ?SelectSubCurve@Animatable@@UEAAXHH@Z
_TEXT	SEGMENT
this$ = 8
subNum$ = 16
sel$ = 24
?SelectSubCurve@Animatable@@UEAAXHH@Z PROC		; Animatable::SelectSubCurve, COMDAT

; 1192 : 		virtual void SelectSubCurve(int subNum, BOOL sel) {}

	ret	0
?SelectSubCurve@Animatable@@UEAAXHH@Z ENDP		; Animatable::SelectSubCurve
_TEXT	ENDS
; Function compile flags: /Ogtp
; File c:\program files\autodesk\3ds max 2020 sdk\maxsdk\include\animatable.h
;	COMDAT ?SelectSubKeys@Animatable@@UEAAXHAEAV?$Tab@VTrackHitRecord@@@@K@Z
_TEXT	SEGMENT
this$ = 8
subNum$ = 16
sel$ = 24
flags$ = 32
?SelectSubKeys@Animatable@@UEAAXHAEAV?$Tab@VTrackHitRecord@@@@K@Z PROC ; Animatable::SelectSubKeys, COMDAT

; 1183 : 		virtual void SelectSubKeys(int subNum, TrackHitTab& sel, DWORD flags) {} 

	ret	0
?SelectSubKeys@Animatable@@UEAAXHAEAV?$Tab@VTrackHitRecord@@@@K@Z ENDP ; Animatable::SelectSubKeys
_TEXT	ENDS
; Function compile flags: /Ogtp
; File c:\program files\autodesk\3ds max 2020 sdk\maxsdk\include\animatable.h
;	COMDAT ?SelectKeys@Animatable@@UEAAXAEAV?$Tab@VTrackHitRecord@@@@K@Z
_TEXT	SEGMENT
this$ = 8
sel$ = 16
flags$ = 24
?SelectKeys@Animatable@@UEAAXAEAV?$Tab@VTrackHitRecord@@@@K@Z PROC ; Animatable::SelectKeys, COMDAT

; 1160 : 		virtual void SelectKeys(TrackHitTab& sel, DWORD flags) {}

	ret	0
?SelectKeys@Animatable@@UEAAXAEAV?$Tab@VTrackHitRecord@@@@K@Z ENDP ; Animatable::SelectKeys
_TEXT	ENDS
; Function compile flags: /Ogtp
; File c:\program files\autodesk\3ds max 2020 sdk\maxsdk\include\animatable.h
;	COMDAT ?DeleteKeyByIndex@Animatable@@UEAAXH@Z
_TEXT	SEGMENT
this$ = 8
index$ = 16
?DeleteKeyByIndex@Animatable@@UEAAXH@Z PROC		; Animatable::DeleteKeyByIndex, COMDAT

; 1144 : 		virtual void DeleteKeyByIndex(int index) {}

	ret	0
?DeleteKeyByIndex@Animatable@@UEAAXH@Z ENDP		; Animatable::DeleteKeyByIndex
_TEXT	ENDS
; Function compile flags: /Ogtp
; File c:\program files\autodesk\3ds max 2020 sdk\maxsdk\include\animatable.h
;	COMDAT ?DeleteKeys@Animatable@@UEAAXK@Z
_TEXT	SEGMENT
this$ = 8
flags$ = 16
?DeleteKeys@Animatable@@UEAAXK@Z PROC			; Animatable::DeleteKeys, COMDAT

; 1139 : 		virtual void DeleteKeys(DWORD flags) {}

	ret	0
?DeleteKeys@Animatable@@UEAAXK@Z ENDP			; Animatable::DeleteKeys
_TEXT	ENDS
; Function compile flags: /Ogtp
; File c:\program files\autodesk\3ds max 2020 sdk\maxsdk\include\animatable.h
;	COMDAT ?SupportTimeOperations@Animatable@@UEAAHXZ
_TEXT	SEGMENT
this$ = 8
?SupportTimeOperations@Animatable@@UEAAHXZ PROC		; Animatable::SupportTimeOperations, COMDAT

; 1107 : 		virtual BOOL SupportTimeOperations() { return FALSE; }

	xor	eax, eax
	ret	0
?SupportTimeOperations@Animatable@@UEAAHXZ ENDP		; Animatable::SupportTimeOperations
_TEXT	ENDS
; Function compile flags: /Ogtp
; File c:\program files\autodesk\3ds max 2020 sdk\maxsdk\include\animatable.h
;	COMDAT ?InsertTime@Animatable@@UEAAXHH@Z
_TEXT	SEGMENT
this$ = 8
ins$ = 16
amount$ = 24
?InsertTime@Animatable@@UEAAXHH@Z PROC			; Animatable::InsertTime, COMDAT

; 1097 : 		virtual void InsertTime(TimeValue ins, TimeValue amount) {}

	ret	0
?InsertTime@Animatable@@UEAAXHH@Z ENDP			; Animatable::InsertTime
_TEXT	ENDS
; Function compile flags: /Ogtp
; File c:\program files\autodesk\3ds max 2020 sdk\maxsdk\include\animatable.h
;	COMDAT ?ScaleTime@Animatable@@UEAAXVInterval@@M@Z
_TEXT	SEGMENT
this$ = 8
iv$ = 16
s$ = 24
?ScaleTime@Animatable@@UEAAXVInterval@@M@Z PROC		; Animatable::ScaleTime, COMDAT

; 1087 : 		virtual void ScaleTime(Interval iv, float s) {}

	ret	0
?ScaleTime@Animatable@@UEAAXVInterval@@M@Z ENDP		; Animatable::ScaleTime
_TEXT	ENDS
; Function compile flags: /Ogtp
; File c:\program files\autodesk\3ds max 2020 sdk\maxsdk\include\animatable.h
;	COMDAT ?ReverseTime@Animatable@@UEAAXVInterval@@K@Z
_TEXT	SEGMENT
this$ = 8
iv$ = 16
flags$ = 24
?ReverseTime@Animatable@@UEAAXVInterval@@K@Z PROC	; Animatable::ReverseTime, COMDAT

; 1077 : 		virtual void ReverseTime(Interval iv, DWORD flags) {}

	ret	0
?ReverseTime@Animatable@@UEAAXVInterval@@K@Z ENDP	; Animatable::ReverseTime
_TEXT	ENDS
; Function compile flags: /Ogtp
; File c:\program files\autodesk\3ds max 2020 sdk\maxsdk\include\animatable.h
;	COMDAT ?DeleteTime@Animatable@@UEAAXVInterval@@K@Z
_TEXT	SEGMENT
this$ = 8
iv$ = 16
flags$ = 24
?DeleteTime@Animatable@@UEAAXVInterval@@K@Z PROC	; Animatable::DeleteTime, COMDAT

; 1061 : 		virtual void DeleteTime(Interval iv, DWORD flags) {}

	ret	0
?DeleteTime@Animatable@@UEAAXVInterval@@K@Z ENDP	; Animatable::DeleteTime
_TEXT	ENDS
; Function compile flags: /Ogtp
; File c:\program files\autodesk\3ds max 2020 sdk\maxsdk\include\animatable.h
;	COMDAT ?EditTimeRange@Animatable@@UEAAXVInterval@@K@Z
_TEXT	SEGMENT
this$ = 8
range$ = 16
flags$ = 24
?EditTimeRange@Animatable@@UEAAXVInterval@@K@Z PROC	; Animatable::EditTimeRange, COMDAT

; 1049 : 		virtual void EditTimeRange(Interval range, DWORD flags) {};

	ret	0
?EditTimeRange@Animatable@@UEAAXVInterval@@K@Z ENDP	; Animatable::EditTimeRange
_TEXT	ENDS
; Function compile flags: /Ogtp
; File c:\program files\autodesk\3ds max 2020 sdk\maxsdk\include\animatable.h
;	COMDAT ?GetKeySelState@Animatable@@UEAAHAEAVBitArray@@VInterval@@K@Z
_TEXT	SEGMENT
this$ = 8
sel$ = 16
range$ = 24
flags$ = 32
?GetKeySelState@Animatable@@UEAAHAEAVBitArray@@VInterval@@K@Z PROC ; Animatable::GetKeySelState, COMDAT

; 931  : 		virtual int GetKeySelState(BitArray& sel, Interval range, DWORD flags) { return 0; }

	xor	eax, eax
	ret	0
?GetKeySelState@Animatable@@UEAAHAEAVBitArray@@VInterval@@K@Z ENDP ; Animatable::GetKeySelState
_TEXT	ENDS
; Function compile flags: /Ogtp
; File c:\program files\autodesk\3ds max 2020 sdk\maxsdk\include\animatable.h
;	COMDAT ?GetKeyTimes@Animatable@@UEAAHAEAV?$Tab@H@@VInterval@@K@Z
_TEXT	SEGMENT
this$ = 8
times$ = 16
range$ = 24
flags$ = 32
?GetKeyTimes@Animatable@@UEAAHAEAV?$Tab@H@@VInterval@@K@Z PROC ; Animatable::GetKeyTimes, COMDAT

; 913  : 		virtual int GetKeyTimes(Tab<TimeValue>& times, Interval range, DWORD flags) { return 0; }		

	xor	eax, eax
	ret	0
?GetKeyTimes@Animatable@@UEAAHAEAV?$Tab@H@@VInterval@@K@Z ENDP ; Animatable::GetKeyTimes
_TEXT	ENDS
; Function compile flags: /Ogtp
; File c:\program files\autodesk\3ds max 2020 sdk\maxsdk\include\animatable.h
;	COMDAT ?IsKeyAtTime@Animatable@@UEAAHHK@Z
_TEXT	SEGMENT
this$ = 8
t$ = 16
flags$ = 24
?IsKeyAtTime@Animatable@@UEAAHHK@Z PROC			; Animatable::IsKeyAtTime, COMDAT

; 888  : 		virtual BOOL IsKeyAtTime(TimeValue t, DWORD flags) { return FALSE; }

	xor	eax, eax
	ret	0
?IsKeyAtTime@Animatable@@UEAAHHK@Z ENDP			; Animatable::IsKeyAtTime
_TEXT	ENDS
; Function compile flags: /Ogtp
; File c:\program files\autodesk\3ds max 2020 sdk\maxsdk\include\animatable.h
;	COMDAT ?DeleteKeyAtTime@Animatable@@UEAAXH@Z
_TEXT	SEGMENT
this$ = 8
t$ = 16
?DeleteKeyAtTime@Animatable@@UEAAXH@Z PROC		; Animatable::DeleteKeyAtTime, COMDAT

; 878  : 		virtual void DeleteKeyAtTime(TimeValue t) {}

	ret	0
?DeleteKeyAtTime@Animatable@@UEAAXH@Z ENDP		; Animatable::DeleteKeyAtTime
_TEXT	ENDS
; Function compile flags: /Ogtp
; File c:\program files\autodesk\3ds max 2020 sdk\maxsdk\include\animatable.h
;	COMDAT ?CopyKeysFromTime@Animatable@@UEAAXHHK@Z
_TEXT	SEGMENT
this$ = 8
src$ = 16
dst$ = 24
flags$ = 32
?CopyKeysFromTime@Animatable@@UEAAXHHK@Z PROC		; Animatable::CopyKeysFromTime, COMDAT

; 873  : 		virtual void CopyKeysFromTime(TimeValue src, TimeValue dst, DWORD flags) {} 

	ret	0
?CopyKeysFromTime@Animatable@@UEAAXHHK@Z ENDP		; Animatable::CopyKeysFromTime
_TEXT	ENDS
; Function compile flags: /Ogtp
; File c:\program files\autodesk\3ds max 2020 sdk\maxsdk\include\animatable.h
;	COMDAT ?GetNextKeyTime@Animatable@@UEAAHHKAEAH@Z
_TEXT	SEGMENT
this$ = 8
t$ = 16
flags$ = 24
nt$ = 32
?GetNextKeyTime@Animatable@@UEAAHHKAEAH@Z PROC		; Animatable::GetNextKeyTime, COMDAT

; 862  : 		virtual BOOL GetNextKeyTime(TimeValue t, DWORD flags, TimeValue &nt) { return FALSE; }

	xor	eax, eax
	ret	0
?GetNextKeyTime@Animatable@@UEAAHHKAEAH@Z ENDP		; Animatable::GetNextKeyTime
_TEXT	ENDS
; Function compile flags: /Ogtp
; File c:\program files\autodesk\3ds max 2020 sdk\maxsdk\include\animatable.h
;	COMDAT ?GetKeyIndex@Animatable@@UEAAHH@Z
_TEXT	SEGMENT
this$ = 8
t$ = 16
?GetKeyIndex@Animatable@@UEAAHH@Z PROC			; Animatable::GetKeyIndex, COMDAT

; 841  : 		virtual int GetKeyIndex(TimeValue t) { return -1; }

	or	eax, -1
	ret	0
?GetKeyIndex@Animatable@@UEAAHH@Z ENDP			; Animatable::GetKeyIndex
_TEXT	ENDS
; Function compile flags: /Ogtp
; File c:\program files\autodesk\3ds max 2020 sdk\maxsdk\include\animatable.h
;	COMDAT ?GetKeyTime@Animatable@@UEAAHH@Z
_TEXT	SEGMENT
this$ = 8
index$ = 16
?GetKeyTime@Animatable@@UEAAHH@Z PROC			; Animatable::GetKeyTime, COMDAT

; 835  : 		virtual TimeValue GetKeyTime(int index) { return 0; }

	xor	eax, eax
	ret	0
?GetKeyTime@Animatable@@UEAAHH@Z ENDP			; Animatable::GetKeyTime
_TEXT	ENDS
; Function compile flags: /Ogtp
; File c:\program files\autodesk\3ds max 2020 sdk\maxsdk\include\animatable.h
;	COMDAT ?NumKeys@Animatable@@UEAAHXZ
_TEXT	SEGMENT
this$ = 8
?NumKeys@Animatable@@UEAAHXZ PROC			; Animatable::NumKeys, COMDAT

; 830  : 		virtual int NumKeys() { return NOT_KEYFRAMEABLE; }

	or	eax, -1
	ret	0
?NumKeys@Animatable@@UEAAHXZ ENDP			; Animatable::NumKeys
_TEXT	ENDS
; Function compile flags: /Ogtp
; File c:\program files\autodesk\3ds max 2020 sdk\maxsdk\include\animatable.h
;	COMDAT ?EditTrack@Animatable@@UEAAXXZ
_TEXT	SEGMENT
this$ = 8
?EditTrack@Animatable@@UEAAXXZ PROC			; Animatable::EditTrack, COMDAT

; 821  : 		virtual void EditTrack() { assert(0); } 

	lea	r9, OFFSET FLAT:??_C@_13COJANIEC@?$AA0?$AA?$AA@
	mov	ecx, 821				; 00000335H
	lea	r8, OFFSET FLAT:??_C@_1CM@HBLCKHLG@?$AAA?$AAn?$AAi?$AAm?$AAa?$AAt?$AAa?$AAb?$AAl?$AAe?$AA?3?$AA?3?$AAE?$AAd?$AAi?$AAt?$AAT?$AAr?$AAa?$AAc?$AAk?$AA?$AA@
	lea	rdx, OFFSET FLAT:??_C@_1IO@OMAAFOOI@?$AAc?$AA?3?$AA?2?$AAp?$AAr?$AAo?$AAg?$AAr?$AAa?$AAm?$AA?5?$AAf?$AAi?$AAl?$AAe?$AAs?$AA?2?$AAa?$AAu?$AAt?$AAo?$AAd?$AAe?$AAs?$AAk?$AA?2?$AA3?$AAd?$AAs?$AA?5?$AAm?$AAa@
	rex_jmp	QWORD PTR __imp_?assert1@@YAHHPEB_W00@Z
?EditTrack@Animatable@@UEAAXXZ ENDP			; Animatable::EditTrack
_TEXT	ENDS
; Function compile flags: /Ogtp
; File c:\program files\autodesk\3ds max 2020 sdk\maxsdk\include\animatable.h
;	COMDAT ?ChildAnim@Animatable@@UEAAPEAV1@H@Z
_TEXT	SEGMENT
this$ = 8
i$ = 16
?ChildAnim@Animatable@@UEAAPEAV1@H@Z PROC		; Animatable::ChildAnim, COMDAT

; 757  : 		virtual Animatable* ChildAnim(int i) { return NULL; } 

	xor	eax, eax
	ret	0
?ChildAnim@Animatable@@UEAAPEAV1@H@Z ENDP		; Animatable::ChildAnim
_TEXT	ENDS
; Function compile flags: /Ogtp
; File c:\program files\autodesk\3ds max 2020 sdk\maxsdk\include\animatable.h
;	COMDAT ?NumChildren@Animatable@@UEAAHXZ
_TEXT	SEGMENT
this$ = 8
?NumChildren@Animatable@@UEAAHXZ PROC			; Animatable::NumChildren, COMDAT

; 754  : 		virtual	int NumChildren() { return 0; }   

	xor	eax, eax
	ret	0
?NumChildren@Animatable@@UEAAHXZ ENDP			; Animatable::NumChildren
_TEXT	ENDS
; Function compile flags: /Ogtp
; File c:\program files\autodesk\3ds max 2020 sdk\maxsdk\include\animatable.h
;	COMDAT ?CanMakeUnique@Animatable@@UEAAHXZ
_TEXT	SEGMENT
this$ = 8
?CanMakeUnique@Animatable@@UEAAHXZ PROC			; Animatable::CanMakeUnique, COMDAT

; 749  : 		virtual BOOL CanMakeUnique() { return TRUE; }

	mov	eax, 1
	ret	0
?CanMakeUnique@Animatable@@UEAAHXZ ENDP			; Animatable::CanMakeUnique
_TEXT	ENDS
; Function compile flags: /Ogtp
; File c:\program files\autodesk\3ds max 2020 sdk\maxsdk\include\animatable.h
;	COMDAT ?CanCopyAnim@Animatable@@UEAAHXZ
_TEXT	SEGMENT
this$ = 8
?CanCopyAnim@Animatable@@UEAAHXZ PROC			; Animatable::CanCopyAnim, COMDAT

; 739  : 		virtual BOOL CanCopyAnim() { return TRUE; }

	mov	eax, 1
	ret	0
?CanCopyAnim@Animatable@@UEAAHXZ ENDP			; Animatable::CanCopyAnim
_TEXT	ENDS
; Function compile flags: /Ogtp
; File c:\program files\autodesk\3ds max 2020 sdk\maxsdk\include\animatable.h
;	COMDAT ?GetSubAnimCurveColor@Animatable@@UEAAKH@Z
_TEXT	SEGMENT
this$ = 8
subNum$ = 16
?GetSubAnimCurveColor@Animatable@@UEAAKH@Z PROC		; Animatable::GetSubAnimCurveColor, COMDAT

; 713  : 		virtual DWORD GetSubAnimCurveColor(int subNum) { return PAINTCURVE_GENCOLOR; }

	mov	eax, 16
	ret	0
?GetSubAnimCurveColor@Animatable@@UEAAKH@Z ENDP		; Animatable::GetSubAnimCurveColor
_TEXT	ENDS
; Function compile flags: /Ogtp
; File c:\program files\autodesk\3ds max 2020 sdk\maxsdk\include\animatable.h
;	COMDAT ?DeleteSubAnim@Animatable@@UEAAXH@Z
_TEXT	SEGMENT
this$ = 8
i$ = 16
?DeleteSubAnim@Animatable@@UEAAXH@Z PROC		; Animatable::DeleteSubAnim, COMDAT

; 698  : 		virtual void DeleteSubAnim(int i) {}

	ret	0
?DeleteSubAnim@Animatable@@UEAAXH@Z ENDP		; Animatable::DeleteSubAnim
_TEXT	ENDS
; Function compile flags: /Ogtp
; File c:\program files\autodesk\3ds max 2020 sdk\maxsdk\include\animatable.h
;	COMDAT ?CanDeleteSubAnim@Animatable@@UEAAHH@Z
_TEXT	SEGMENT
this$ = 8
i$ = 16
?CanDeleteSubAnim@Animatable@@UEAAHH@Z PROC		; Animatable::CanDeleteSubAnim, COMDAT

; 692  : 		virtual BOOL CanDeleteSubAnim(int i) { return FALSE; }

	xor	eax, eax
	ret	0
?CanDeleteSubAnim@Animatable@@UEAAHH@Z ENDP		; Animatable::CanDeleteSubAnim
_TEXT	ENDS
; Function compile flags: /Ogtp
; File c:\program files\autodesk\3ds max 2020 sdk\maxsdk\include\animatable.h
;	COMDAT ?CanAssignController@Animatable@@UEAAHH@Z
_TEXT	SEGMENT
this$ = 8
subAnim$ = 16
?CanAssignController@Animatable@@UEAAHH@Z PROC		; Animatable::CanAssignController, COMDAT

; 674  : 		virtual BOOL CanAssignController(int subAnim) { return TRUE; }

	mov	eax, 1
	ret	0
?CanAssignController@Animatable@@UEAAHH@Z ENDP		; Animatable::CanAssignController
_TEXT	ENDS
; Function compile flags: /Ogtp
; File c:\program files\autodesk\3ds max 2020 sdk\maxsdk\include\animatable.h
;	COMDAT ?AssignController@Animatable@@UEAAHPEAV1@H@Z
_TEXT	SEGMENT
this$ = 8
control$ = 16
subAnim$ = 24
?AssignController@Animatable@@UEAAHPEAV1@H@Z PROC	; Animatable::AssignController, COMDAT

; 664  : 		virtual BOOL AssignController(Animatable *control,int subAnim) { return FALSE; }

	xor	eax, eax
	ret	0
?AssignController@Animatable@@UEAAHPEAV1@H@Z ENDP	; Animatable::AssignController
_TEXT	ENDS
; Function compile flags: /Ogtp
; File c:\program files\autodesk\3ds max 2020 sdk\maxsdk\include\animatable.h
;	COMDAT ?InvisibleProperty@Animatable@@UEAAHXZ
_TEXT	SEGMENT
this$ = 8
?InvisibleProperty@Animatable@@UEAAHXZ PROC		; Animatable::InvisibleProperty, COMDAT

; 653  : 		virtual BOOL InvisibleProperty() { return FALSE; } 

	xor	eax, eax
	ret	0
?InvisibleProperty@Animatable@@UEAAHXZ ENDP		; Animatable::InvisibleProperty
_TEXT	ENDS
; Function compile flags: /Ogtp
; File c:\program files\autodesk\3ds max 2020 sdk\maxsdk\include\animatable.h
;	COMDAT ?BypassPropertyLevel@Animatable@@UEAAHXZ
_TEXT	SEGMENT
this$ = 8
?BypassPropertyLevel@Animatable@@UEAAHXZ PROC		; Animatable::BypassPropertyLevel, COMDAT

; 645  : 		virtual BOOL BypassPropertyLevel() { return FALSE; } 

	xor	eax, eax
	ret	0
?BypassPropertyLevel@Animatable@@UEAAHXZ ENDP		; Animatable::BypassPropertyLevel
_TEXT	ENDS
; Function compile flags: /Ogtp
; File c:\program files\autodesk\3ds max 2020 sdk\maxsdk\include\animatable.h
;	COMDAT ?BypassTrackBar@Animatable@@UEAAHXZ
_TEXT	SEGMENT
this$ = 8
?BypassTrackBar@Animatable@@UEAAHXZ PROC		; Animatable::BypassTrackBar, COMDAT

; 636  : 		virtual BOOL BypassTrackBar() { return BypassTreeView(); } 

	mov	rax, QWORD PTR [rcx]
	rex_jmp	QWORD PTR [rax+128]
?BypassTrackBar@Animatable@@UEAAHXZ ENDP		; Animatable::BypassTrackBar
_TEXT	ENDS
; Function compile flags: /Ogtp
; File c:\program files\autodesk\3ds max 2020 sdk\maxsdk\include\animatable.h
;	COMDAT ?BypassTreeView@Animatable@@UEAAHXZ
_TEXT	SEGMENT
this$ = 8
?BypassTreeView@Animatable@@UEAAHXZ PROC		; Animatable::BypassTreeView, COMDAT

; 626  : 		virtual BOOL BypassTreeView() { return FALSE; } 

	xor	eax, eax
	ret	0
?BypassTreeView@Animatable@@UEAAHXZ ENDP		; Animatable::BypassTreeView
_TEXT	ENDS
; Function compile flags: /Ogtp
; File c:\program files\autodesk\3ds max 2020 sdk\maxsdk\include\animatable.h
;	COMDAT ?EndEditParams@Animatable@@UEAAXPEAVIObjParam@@KPEAV1@@Z
_TEXT	SEGMENT
this$ = 8
ip$ = 16
flags$ = 24
next$ = 32
?EndEditParams@Animatable@@UEAAXPEAVIObjParam@@KPEAV1@@Z PROC ; Animatable::EndEditParams, COMDAT

; 414  : 		virtual void EndEditParams(IObjParam *ip, ULONG flags, Animatable *next = NULL) {} 

	ret	0
?EndEditParams@Animatable@@UEAAXPEAVIObjParam@@KPEAV1@@Z ENDP ; Animatable::EndEditParams
_TEXT	ENDS
; Function compile flags: /Ogtp
; File c:\program files\autodesk\3ds max 2020 sdk\maxsdk\include\animatable.h
;	COMDAT ?BeginEditParams@Animatable@@UEAAXPEAVIObjParam@@KPEAV1@@Z
_TEXT	SEGMENT
this$ = 8
ip$ = 16
flags$ = 24
prev$ = 32
?BeginEditParams@Animatable@@UEAAXPEAVIObjParam@@KPEAV1@@Z PROC ; Animatable::BeginEditParams, COMDAT

; 395  : 		virtual void BeginEditParams(IObjParam *ip, ULONG flags, Animatable *prev = NULL) {} 

	ret	0
?BeginEditParams@Animatable@@UEAAXPEAVIObjParam@@KPEAV1@@Z ENDP ; Animatable::BeginEditParams
_TEXT	ENDS
; Function compile flags: /Ogtp
; File c:\program files\autodesk\3ds max 2020 sdk\maxsdk\include\animatable.h
;	COMDAT ?FreeCaches@Animatable@@UEAAXXZ
_TEXT	SEGMENT
this$ = 8
?FreeCaches@Animatable@@UEAAXXZ PROC			; Animatable::FreeCaches, COMDAT

; 353  : 		virtual void FreeCaches() {}

	ret	0
?FreeCaches@Animatable@@UEAAXXZ ENDP			; Animatable::FreeCaches
_TEXT	ENDS
; Function compile flags: /Ogtp
; File c:\program files\autodesk\3ds max 2020 sdk\maxsdk\include\interval.h
;	COMDAT ??_4Interval@@QEAAAEAV0@V0@@Z
_TEXT	SEGMENT
$T1 = 48
this$ = 48
i$ = 56
??_4Interval@@QEAAAEAV0@V0@@Z PROC			; Interval::operator&=, COMDAT

; 155  : 		Interval& operator&=(const Interval i) { return (*this = (*this&i)); }

$LN4:
	push	rbx
	sub	rsp, 32					; 00000020H
	mov	r8, rdx
	mov	rbx, rcx
	lea	rdx, QWORD PTR $T1[rsp]
	call	QWORD PTR __imp_??IInterval@@QEBA?AV0@V0@@Z
	mov	rdx, QWORD PTR [rax]
	mov	rax, rbx
	mov	QWORD PTR [rbx], rdx
	add	rsp, 32					; 00000020H
	pop	rbx
	ret	0
??_4Interval@@QEAAAEAV0@V0@@Z ENDP			; Interval::operator&=
_TEXT	ENDS
; Function compile flags: /Ogtp
; File c:\program files\autodesk\3ds max 2020 sdk\maxsdk\include\interval.h
;	COMDAT ?SetInfinite@Interval@@QEAAXXZ
_TEXT	SEGMENT
this$ = 8
?SetInfinite@Interval@@QEAAXXZ PROC			; Interval::SetInfinite, COMDAT

; 130  : 		void SetInfinite() { start = TIME_NegInfinity; end = TIME_PosInfinity; }

	mov	DWORD PTR [rcx], -2147483648		; ffffffff80000000H
	mov	DWORD PTR [rcx+4], 2147483647		; 7fffffffH
	ret	0
?SetInfinite@Interval@@QEAAXXZ ENDP			; Interval::SetInfinite
_TEXT	ENDS
; Function compile flags: /Ogtp
; File c:\program files\autodesk\3ds max 2020 sdk\maxsdk\include\interval.h
;	COMDAT ?SetEmpty@Interval@@QEAAXXZ
_TEXT	SEGMENT
this$ = 8
?SetEmpty@Interval@@QEAAXXZ PROC			; Interval::SetEmpty, COMDAT

; 126  : 		void SetEmpty() { start = TIME_NegInfinity; end = TIME_NegInfinity; }

	mov	DWORD PTR [rcx], -2147483648		; ffffffff80000000H
	mov	DWORD PTR [rcx+4], -2147483648		; ffffffff80000000H
	ret	0
?SetEmpty@Interval@@QEAAXXZ ENDP			; Interval::SetEmpty
_TEXT	ENDS
; Function compile flags: /Ogtp
; File c:\program files\autodesk\3ds max 2020 sdk\maxsdk\include\interval.h
;	COMDAT ??0Interval@@QEAA@XZ
_TEXT	SEGMENT
this$ = 8
??0Interval@@QEAA@XZ PROC				; Interval::Interval, COMDAT

; 126  : 		void SetEmpty() { start = TIME_NegInfinity; end = TIME_NegInfinity; }

	mov	DWORD PTR [rcx], -2147483648		; ffffffff80000000H

; 58   : 		Interval() { SetEmpty(); } 

	mov	rax, rcx

; 126  : 		void SetEmpty() { start = TIME_NegInfinity; end = TIME_NegInfinity; }

	mov	DWORD PTR [rcx+4], -2147483648		; ffffffff80000000H

; 58   : 		Interval() { SetEmpty(); } 

	ret	0
??0Interval@@QEAA@XZ ENDP				; Interval::Interval
_TEXT	ENDS
; Function compile flags: /Ogtp
; File c:\program files\autodesk\3ds max 2020 sdk\maxsdk\include\assetmanagement\assetid.h
;	COMDAT ??__EkInvalidId@AssetManagement@MaxSDK@@YAXXZ
text$di	SEGMENT
??__EkInvalidId@AssetManagement@MaxSDK@@YAXXZ PROC	; MaxSDK::AssetManagement::`dynamic initializer for 'kInvalidId'', COMDAT

; 29   : 			AssetId() { *static_cast<GUID*>(this) = CLSID_NULL; }

	vmovups	xmm0, XMMWORD PTR GUID_NULL
	vmovups	XMMWORD PTR ?kInvalidId@AssetManagement@MaxSDK@@3UAssetId@12@A, xmm0

; 32   : 		static AssetId kInvalidId;

	ret	0
??__EkInvalidId@AssetManagement@MaxSDK@@YAXXZ ENDP	; MaxSDK::AssetManagement::`dynamic initializer for 'kInvalidId''
text$di	ENDS
; Function compile flags: /Ogtp
; File c:\program files\autodesk\3ds max 2020 sdk\maxsdk\include\assetmanagement\assetid.h
;	COMDAT ??0AssetId@AssetManagement@MaxSDK@@QEAA@XZ
_TEXT	SEGMENT
this$ = 8
??0AssetId@AssetManagement@MaxSDK@@QEAA@XZ PROC		; MaxSDK::AssetManagement::AssetId::AssetId, COMDAT

; 29   : 			AssetId() { *static_cast<GUID*>(this) = CLSID_NULL; }

	vmovups	xmm0, XMMWORD PTR GUID_NULL
	vmovups	XMMWORD PTR [rcx], xmm0
	mov	rax, rcx
	ret	0
??0AssetId@AssetManagement@MaxSDK@@QEAA@XZ ENDP		; MaxSDK::AssetManagement::AssetId::AssetId
_TEXT	ENDS
; Function compile flags: /Ogtp
;	COMDAT ??_GInterfaceServer@@UEAAPEAXI@Z
_TEXT	SEGMENT
this$ = 48
__flags$ = 56
??_GInterfaceServer@@UEAAPEAXI@Z PROC			; InterfaceServer::`scalar deleting destructor', COMDAT
$LN9:
	mov	QWORD PTR [rsp+8], rbx
	push	rdi
	sub	rsp, 32					; 00000020H
	mov	edi, edx
	mov	rbx, rcx
	call	QWORD PTR __imp_??1InterfaceServer@@UEAA@XZ
	test	dil, 1
	je	SHORT $LN7@scalar
	mov	rcx, rbx
	test	dil, 4
	jne	SHORT $LN3@scalar
	call	QWORD PTR __imp_??3MaxHeapOperators@@SAXPEAX@Z
	mov	rax, rbx
	mov	rbx, QWORD PTR [rsp+48]
	add	rsp, 32					; 00000020H
	pop	rdi
	ret	0
$LN3@scalar:
	mov	edx, 8
	call	?__global_delete@@YAXPEAX_K@Z		; __global_delete
$LN7@scalar:
	mov	rax, rbx
	mov	rbx, QWORD PTR [rsp+48]
	add	rsp, 32					; 00000020H
	pop	rdi
	ret	0
??_GInterfaceServer@@UEAAPEAXI@Z ENDP			; InterfaceServer::`scalar deleting destructor'
_TEXT	ENDS
; Function compile flags: /Ogtp
;	COMDAT ??0InterfaceServer@@QEAA@XZ
_TEXT	SEGMENT
this$ = 8
??0InterfaceServer@@QEAA@XZ PROC			; InterfaceServer::InterfaceServer, COMDAT
	lea	rax, OFFSET FLAT:??_7InterfaceServer@@6B@
	mov	QWORD PTR [rcx], rax
	mov	rax, rcx
	ret	0
??0InterfaceServer@@QEAA@XZ ENDP			; InterfaceServer::InterfaceServer
_TEXT	ENDS
; Function compile flags: /Ogtp
;	COMDAT ??_GTabOutOfRangeException@Util@MaxSDK@@UEAAPEAXI@Z
_TEXT	SEGMENT
$T1 = 32
this$ = 64
__flags$ = 72
??_GTabOutOfRangeException@Util@MaxSDK@@UEAAPEAXI@Z PROC ; MaxSDK::Util::TabOutOfRangeException::`scalar deleting destructor', COMDAT
$LN14:
	mov	QWORD PTR [rsp+8], rcx
	push	rdi
	sub	rsp, 48					; 00000030H
	mov	QWORD PTR $T1[rsp], -2
	mov	QWORD PTR [rsp+72], rbx
	mov	edi, edx
	mov	rbx, rcx
	call	QWORD PTR __imp_??1Exception@Util@MaxSDK@@UEAA@XZ
	npad	1
	test	dil, 1
	je	SHORT $LN13@scalar
	mov	rcx, rbx
	test	dil, 4
	jne	SHORT $LN3@scalar
	call	QWORD PTR __imp_??3MaxHeapOperators@@SAXPEAX@Z
	npad	1
	jmp	SHORT $LN13@scalar
$LN3@scalar:
	mov	edx, 16
	call	?__global_delete@@YAXPEAX_K@Z		; __global_delete
	npad	1
$LN13@scalar:
	mov	rax, rbx
	mov	rbx, QWORD PTR [rsp+72]
	add	rsp, 48					; 00000030H
	pop	rdi
	ret	0
??_GTabOutOfRangeException@Util@MaxSDK@@UEAAPEAXI@Z ENDP ; MaxSDK::Util::TabOutOfRangeException::`scalar deleting destructor'
_TEXT	ENDS
;	COMDAT text$x
text$x	SEGMENT
$T1 = 32
this$ = 64
__flags$ = 72
?dtor$0@?0???_GTabOutOfRangeException@Util@MaxSDK@@UEAAPEAXI@Z@4HA PROC ; `MaxSDK::Util::TabOutOfRangeException::`scalar deleting destructor''::`1'::dtor$0
	mov	rcx, QWORD PTR this$[rdx]
	rex_jmp	QWORD PTR __imp_??1OutOfRangeException@Util@MaxSDK@@UEAA@XZ
?dtor$0@?0???_GTabOutOfRangeException@Util@MaxSDK@@UEAAPEAXI@Z@4HA ENDP ; `MaxSDK::Util::TabOutOfRangeException::`scalar deleting destructor''::`1'::dtor$0
$T1 = 32
this$ = 64
__flags$ = 72
?dtor$1@?0???_GTabOutOfRangeException@Util@MaxSDK@@UEAAPEAXI@Z@4HA PROC ; `MaxSDK::Util::TabOutOfRangeException::`scalar deleting destructor''::`1'::dtor$1
	mov	rcx, QWORD PTR this$[rdx]
	rex_jmp	QWORD PTR __imp_??1Exception@Util@MaxSDK@@UEAA@XZ
?dtor$1@?0???_GTabOutOfRangeException@Util@MaxSDK@@UEAAPEAXI@Z@4HA ENDP ; `MaxSDK::Util::TabOutOfRangeException::`scalar deleting destructor''::`1'::dtor$1
text$x	ENDS
; Function compile flags: /Ogtp
;	COMDAT text$x
text$x	SEGMENT
$T1 = 32
this$ = 64
__flags$ = 72
?dtor$0@?0???_GTabOutOfRangeException@Util@MaxSDK@@UEAAPEAXI@Z@4HA PROC ; `MaxSDK::Util::TabOutOfRangeException::`scalar deleting destructor''::`1'::dtor$0
	mov	rcx, QWORD PTR this$[rdx]
	rex_jmp	QWORD PTR __imp_??1OutOfRangeException@Util@MaxSDK@@UEAA@XZ
?dtor$0@?0???_GTabOutOfRangeException@Util@MaxSDK@@UEAAPEAXI@Z@4HA ENDP ; `MaxSDK::Util::TabOutOfRangeException::`scalar deleting destructor''::`1'::dtor$0
text$x	ENDS
; Function compile flags: /Ogtp
;	COMDAT text$x
text$x	SEGMENT
$T1 = 32
this$ = 64
__flags$ = 72
?dtor$1@?0???_GTabOutOfRangeException@Util@MaxSDK@@UEAAPEAXI@Z@4HA PROC ; `MaxSDK::Util::TabOutOfRangeException::`scalar deleting destructor''::`1'::dtor$1
	mov	rcx, QWORD PTR this$[rdx]
	rex_jmp	QWORD PTR __imp_??1Exception@Util@MaxSDK@@UEAA@XZ
?dtor$1@?0???_GTabOutOfRangeException@Util@MaxSDK@@UEAAPEAXI@Z@4HA ENDP ; `MaxSDK::Util::TabOutOfRangeException::`scalar deleting destructor''::`1'::dtor$1
text$x	ENDS
; Function compile flags: /Ogtp
;	COMDAT ??0TabOutOfRangeException@Util@MaxSDK@@QEAA@AEBV012@@Z
_TEXT	SEGMENT
$T1 = 32
this$ = 64
__that$ = 72
??0TabOutOfRangeException@Util@MaxSDK@@QEAA@AEBV012@@Z PROC ; MaxSDK::Util::TabOutOfRangeException::TabOutOfRangeException, COMDAT
$LN7:
	mov	QWORD PTR [rsp+8], rcx
	push	rbx
	sub	rsp, 48					; 00000030H
	mov	QWORD PTR $T1[rsp], -2
	mov	rbx, rcx
	call	QWORD PTR __imp_??0Exception@Util@MaxSDK@@QEAA@AEBV012@@Z
	npad	1
	mov	rax, QWORD PTR __imp_??_7OutOfRangeException@Util@MaxSDK@@6B@
	mov	QWORD PTR [rbx], rax
	lea	rax, OFFSET FLAT:??_7TabOutOfRangeException@Util@MaxSDK@@6B@
	mov	QWORD PTR [rbx], rax
	mov	rax, rbx
	add	rsp, 48					; 00000030H
	pop	rbx
	ret	0
??0TabOutOfRangeException@Util@MaxSDK@@QEAA@AEBV012@@Z ENDP ; MaxSDK::Util::TabOutOfRangeException::TabOutOfRangeException
_TEXT	ENDS
;	COMDAT text$x
text$x	SEGMENT
$T1 = 32
this$ = 64
__that$ = 72
?dtor$1@?0???0TabOutOfRangeException@Util@MaxSDK@@QEAA@AEBV012@@Z@4HA PROC ; `MaxSDK::Util::TabOutOfRangeException::TabOutOfRangeException'::`1'::dtor$1
	mov	rcx, QWORD PTR this$[rdx]
	rex_jmp	QWORD PTR __imp_??1Exception@Util@MaxSDK@@UEAA@XZ
?dtor$1@?0???0TabOutOfRangeException@Util@MaxSDK@@QEAA@AEBV012@@Z@4HA ENDP ; `MaxSDK::Util::TabOutOfRangeException::TabOutOfRangeException'::`1'::dtor$1
$T1 = 32
this$ = 64
__that$ = 72
?dtor$0@?0???0TabOutOfRangeException@Util@MaxSDK@@QEAA@AEBV012@@Z@4HA PROC ; `MaxSDK::Util::TabOutOfRangeException::TabOutOfRangeException'::`1'::dtor$0
	mov	rcx, QWORD PTR this$[rdx]
	rex_jmp	QWORD PTR __imp_??1OutOfRangeException@Util@MaxSDK@@UEAA@XZ
?dtor$0@?0???0TabOutOfRangeException@Util@MaxSDK@@QEAA@AEBV012@@Z@4HA ENDP ; `MaxSDK::Util::TabOutOfRangeException::TabOutOfRangeException'::`1'::dtor$0
text$x	ENDS
; Function compile flags: /Ogtp
;	COMDAT text$x
text$x	SEGMENT
$T1 = 32
this$ = 64
__that$ = 72
?dtor$1@?0???0TabOutOfRangeException@Util@MaxSDK@@QEAA@AEBV012@@Z@4HA PROC ; `MaxSDK::Util::TabOutOfRangeException::TabOutOfRangeException'::`1'::dtor$1
	mov	rcx, QWORD PTR this$[rdx]
	rex_jmp	QWORD PTR __imp_??1Exception@Util@MaxSDK@@UEAA@XZ
?dtor$1@?0???0TabOutOfRangeException@Util@MaxSDK@@QEAA@AEBV012@@Z@4HA ENDP ; `MaxSDK::Util::TabOutOfRangeException::TabOutOfRangeException'::`1'::dtor$1
text$x	ENDS
; Function compile flags: /Ogtp
;	COMDAT text$x
text$x	SEGMENT
$T1 = 32
this$ = 64
__that$ = 72
?dtor$0@?0???0TabOutOfRangeException@Util@MaxSDK@@QEAA@AEBV012@@Z@4HA PROC ; `MaxSDK::Util::TabOutOfRangeException::TabOutOfRangeException'::`1'::dtor$0
	mov	rcx, QWORD PTR this$[rdx]
	rex_jmp	QWORD PTR __imp_??1OutOfRangeException@Util@MaxSDK@@UEAA@XZ
?dtor$0@?0???0TabOutOfRangeException@Util@MaxSDK@@QEAA@AEBV012@@Z@4HA ENDP ; `MaxSDK::Util::TabOutOfRangeException::TabOutOfRangeException'::`1'::dtor$0
text$x	ENDS
; Function compile flags: /Ogtp
;	COMDAT ??1TabOutOfRangeException@Util@MaxSDK@@UEAA@XZ
_TEXT	SEGMENT
$T1 = 32
this$ = 64
??1TabOutOfRangeException@Util@MaxSDK@@UEAA@XZ PROC	; MaxSDK::Util::TabOutOfRangeException::~TabOutOfRangeException, COMDAT
$LN7:
	mov	QWORD PTR [rsp+8], rcx
	sub	rsp, 56					; 00000038H
	mov	QWORD PTR $T1[rsp], -2
	add	rsp, 56					; 00000038H
	rex_jmp	QWORD PTR __imp_??1Exception@Util@MaxSDK@@UEAA@XZ
??1TabOutOfRangeException@Util@MaxSDK@@UEAA@XZ ENDP	; MaxSDK::Util::TabOutOfRangeException::~TabOutOfRangeException
_TEXT	ENDS
;	COMDAT text$x
text$x	SEGMENT
$T1 = 32
this$ = 64
?dtor$0@?0???1TabOutOfRangeException@Util@MaxSDK@@UEAA@XZ@4HA PROC ; `MaxSDK::Util::TabOutOfRangeException::~TabOutOfRangeException'::`1'::dtor$0
	mov	rcx, QWORD PTR this$[rdx]
	rex_jmp	QWORD PTR __imp_??1OutOfRangeException@Util@MaxSDK@@UEAA@XZ
?dtor$0@?0???1TabOutOfRangeException@Util@MaxSDK@@UEAA@XZ@4HA ENDP ; `MaxSDK::Util::TabOutOfRangeException::~TabOutOfRangeException'::`1'::dtor$0
$T1 = 32
this$ = 64
?dtor$1@?0???1TabOutOfRangeException@Util@MaxSDK@@UEAA@XZ@4HA PROC ; `MaxSDK::Util::TabOutOfRangeException::~TabOutOfRangeException'::`1'::dtor$1
	mov	rcx, QWORD PTR this$[rdx]
	rex_jmp	QWORD PTR __imp_??1Exception@Util@MaxSDK@@UEAA@XZ
?dtor$1@?0???1TabOutOfRangeException@Util@MaxSDK@@UEAA@XZ@4HA ENDP ; `MaxSDK::Util::TabOutOfRangeException::~TabOutOfRangeException'::`1'::dtor$1
text$x	ENDS
; Function compile flags: /Ogtp
;	COMDAT text$x
text$x	SEGMENT
$T1 = 32
this$ = 64
?dtor$0@?0???1TabOutOfRangeException@Util@MaxSDK@@UEAA@XZ@4HA PROC ; `MaxSDK::Util::TabOutOfRangeException::~TabOutOfRangeException'::`1'::dtor$0
	mov	rcx, QWORD PTR this$[rdx]
	rex_jmp	QWORD PTR __imp_??1OutOfRangeException@Util@MaxSDK@@UEAA@XZ
?dtor$0@?0???1TabOutOfRangeException@Util@MaxSDK@@UEAA@XZ@4HA ENDP ; `MaxSDK::Util::TabOutOfRangeException::~TabOutOfRangeException'::`1'::dtor$0
text$x	ENDS
; Function compile flags: /Ogtp
;	COMDAT text$x
text$x	SEGMENT
$T1 = 32
this$ = 64
?dtor$1@?0???1TabOutOfRangeException@Util@MaxSDK@@UEAA@XZ@4HA PROC ; `MaxSDK::Util::TabOutOfRangeException::~TabOutOfRangeException'::`1'::dtor$1
	mov	rcx, QWORD PTR this$[rdx]
	rex_jmp	QWORD PTR __imp_??1Exception@Util@MaxSDK@@UEAA@XZ
?dtor$1@?0???1TabOutOfRangeException@Util@MaxSDK@@UEAA@XZ@4HA ENDP ; `MaxSDK::Util::TabOutOfRangeException::~TabOutOfRangeException'::`1'::dtor$1
text$x	ENDS
; Function compile flags: /Ogtp
; File c:\program files\autodesk\3ds max 2020 sdk\maxsdk\include\tab.h
;	COMDAT ?What@TabOutOfRangeException@Util@MaxSDK@@UEBAPEB_WXZ
_TEXT	SEGMENT
this$ = 8
?What@TabOutOfRangeException@Util@MaxSDK@@UEBAPEB_WXZ PROC ; MaxSDK::Util::TabOutOfRangeException::What, COMDAT

; 100  : 				return (mMessage) ? mMessage : _M("MaxSDK::Util::TabOutOfRangeException");

	mov	rdx, QWORD PTR [rcx+8]
	lea	rax, OFFSET FLAT:??_C@_1EK@FOLBONAG@?$AAM?$AAa?$AAx?$AAS?$AAD?$AAK?$AA?3?$AA?3?$AAU?$AAt?$AAi?$AAl?$AA?3?$AA?3?$AAT?$AAa?$AAb?$AAO?$AAu?$AAt?$AAO?$AAf?$AAR?$AAa?$AAn?$AAg?$AAe?$AAE?$AAx?$AAc?$AAe?$AAp@
	test	rdx, rdx
	cmovne	rax, rdx

; 101  : 			}

	ret	0
?What@TabOutOfRangeException@Util@MaxSDK@@UEBAPEB_WXZ ENDP ; MaxSDK::Util::TabOutOfRangeException::What
_TEXT	ENDS
; Function compile flags: /Ogtp
; File c:\program files\autodesk\3ds max 2020 sdk\maxsdk\include\tab.h
;	COMDAT ??0TabOutOfRangeException@Util@MaxSDK@@QEAA@PEB_W@Z
_TEXT	SEGMENT
$T1 = 32
this$ = 64
message$ = 72
??0TabOutOfRangeException@Util@MaxSDK@@QEAA@PEB_W@Z PROC ; MaxSDK::Util::TabOutOfRangeException::TabOutOfRangeException, COMDAT

; 96   : 			{

$LN4:
	mov	QWORD PTR [rsp+8], rcx
	push	rbx
	sub	rsp, 48					; 00000030H
	mov	QWORD PTR $T1[rsp], -2
	mov	rbx, rcx

; 95   : 				: MaxSDK::Util::OutOfRangeException(message)

	call	QWORD PTR __imp_??0OutOfRangeException@Util@MaxSDK@@QEAA@PEB_W@Z
	npad	1

; 96   : 			{

	lea	rax, OFFSET FLAT:??_7TabOutOfRangeException@Util@MaxSDK@@6B@
	mov	QWORD PTR [rbx], rax

; 97   : 			}

	mov	rax, rbx
	add	rsp, 48					; 00000030H
	pop	rbx
	ret	0
??0TabOutOfRangeException@Util@MaxSDK@@QEAA@PEB_W@Z ENDP ; MaxSDK::Util::TabOutOfRangeException::TabOutOfRangeException
_TEXT	ENDS
;	COMDAT text$x
text$x	SEGMENT
$T1 = 32
this$ = 64
message$ = 72
?dtor$0@?0???0TabOutOfRangeException@Util@MaxSDK@@QEAA@PEB_W@Z@4HA PROC ; `MaxSDK::Util::TabOutOfRangeException::TabOutOfRangeException'::`1'::dtor$0
	mov	rcx, QWORD PTR this$[rdx]
	rex_jmp	QWORD PTR __imp_??1OutOfRangeException@Util@MaxSDK@@UEAA@XZ
?dtor$0@?0???0TabOutOfRangeException@Util@MaxSDK@@QEAA@PEB_W@Z@4HA ENDP ; `MaxSDK::Util::TabOutOfRangeException::TabOutOfRangeException'::`1'::dtor$0
text$x	ENDS
; Function compile flags: /Ogtp
;	COMDAT text$x
text$x	SEGMENT
$T1 = 32
this$ = 64
message$ = 72
?dtor$0@?0???0TabOutOfRangeException@Util@MaxSDK@@QEAA@PEB_W@Z@4HA PROC ; `MaxSDK::Util::TabOutOfRangeException::TabOutOfRangeException'::`1'::dtor$0
	mov	rcx, QWORD PTR this$[rdx]
	rex_jmp	QWORD PTR __imp_??1OutOfRangeException@Util@MaxSDK@@UEAA@XZ
?dtor$0@?0???0TabOutOfRangeException@Util@MaxSDK@@QEAA@PEB_W@Z@4HA ENDP ; `MaxSDK::Util::TabOutOfRangeException::TabOutOfRangeException'::`1'::dtor$0
text$x	ENDS
; Function compile flags: /Ogtp
; File c:\program files\autodesk\3ds max 2020 sdk\maxsdk\include\maxtypes.h
;	COMDAT ??0Interface_ID@@QEAA@AEBV0@@Z
_TEXT	SEGMENT
this$ = 8
iid$ = 16
??0Interface_ID@@QEAA@AEBV0@@Z PROC			; Interface_ID::Interface_ID, COMDAT

; 215  : 	Interface_ID(const Interface_ID& iid) { a = iid.a; b = iid.b;	}

	mov	eax, DWORD PTR [rdx]
	mov	DWORD PTR [rcx], eax
	mov	eax, DWORD PTR [rdx+4]
	mov	DWORD PTR [rcx+4], eax
	mov	rax, rcx
	ret	0
??0Interface_ID@@QEAA@AEBV0@@Z ENDP			; Interface_ID::Interface_ID
_TEXT	ENDS
; Function compile flags: /Ogtp
; File c:\program files\autodesk\3ds max 2020 sdk\maxsdk\include\maxtypes.h
;	COMDAT ??8Class_ID@@QEBA_NAEBV0@@Z
_TEXT	SEGMENT
this$ = 8
cid$ = 16
??8Class_ID@@QEBA_NAEBV0@@Z PROC			; Class_ID::operator==, COMDAT

; 170  : 	bool operator==(const Class_ID& cid) const { return ((a == cid.a) && (b == cid.b)); }

	mov	eax, DWORD PTR [rdx]
	cmp	DWORD PTR [rcx], eax
	jne	SHORT $LN3@operator
	mov	eax, DWORD PTR [rdx+4]
	cmp	DWORD PTR [rcx+4], eax
	jne	SHORT $LN3@operator
	mov	al, 1
	ret	0
$LN3@operator:
	xor	al, al
	ret	0
??8Class_ID@@QEBA_NAEBV0@@Z ENDP			; Class_ID::operator==
_TEXT	ENDS
; Function compile flags: /Ogtp
; File c:\program files\autodesk\3ds max 2020 sdk\maxsdk\include\maxtypes.h
;	COMDAT ??0Class_ID@@QEAA@KK@Z
_TEXT	SEGMENT
this$ = 8
aa$ = 16
bb$ = 24
??0Class_ID@@QEAA@KK@Z PROC				; Class_ID::Class_ID, COMDAT

; 160  : 	Class_ID(ulong aa, ulong bb) { a = aa; b = bb; }

	mov	DWORD PTR [rcx], edx
	mov	rax, rcx
	mov	DWORD PTR [rcx+4], r8d
	ret	0
??0Class_ID@@QEAA@KK@Z ENDP				; Class_ID::Class_ID
_TEXT	ENDS
; Function compile flags: /Ogtp
; File c:\program files\autodesk\3ds max 2020 sdk\maxsdk\include\maxtypes.h
;	COMDAT ??0Class_ID@@QEAA@XZ
_TEXT	SEGMENT
this$ = 8
??0Class_ID@@QEAA@XZ PROC				; Class_ID::Class_ID, COMDAT

; 145  : 	Class_ID() { a = b = 0xffffffff; }

	mov	QWORD PTR [rcx], -1
	mov	rax, rcx
	ret	0
??0Class_ID@@QEAA@XZ ENDP				; Class_ID::Class_ID
_TEXT	ENDS
; Function compile flags: /Ogtp
; File c:\program files (x86)\microsoft visual studio 14.0\vc\include\cmath
;	COMDAT ?sqrt@@YAMM@Z
_TEXT	SEGMENT
_Xx$ = 48
?sqrt@@YAMM@Z PROC					; sqrt, COMDAT

; 304  : 	{

$LN4:
	sub	rsp, 40					; 00000028H

; 305  : 	return (_CSTD sqrtf(_Xx));

	call	sqrtf

; 306  : 	}

	add	rsp, 40					; 00000028H
	ret	0
?sqrt@@YAMM@Z ENDP					; sqrt
_TEXT	ENDS
; Function compile flags: /Ogtp
; File c:\program files (x86)\microsoft visual studio 14.0\vc\include\cmath
; File c:\program files (x86)\windows kits\10\include\10.0.10586.0\ucrt\math.h
; File c:\program files (x86)\microsoft visual studio 14.0\vc\include\cmath
;	COMDAT ?fabs@@YAMM@Z
_TEXT	SEGMENT
_Xx$ = 8
?fabs@@YAMM@Z PROC					; fabs, COMDAT
; File c:\program files (x86)\windows kits\10\include\10.0.10586.0\ucrt\math.h

; 671  :         return (float)fabs(_X);

	vcvtss2sd xmm1, xmm0, xmm0
	vandpd	xmm1, xmm1, QWORD PTR __xmm@7fffffffffffffff7fffffffffffffff
	vcvtsd2ss xmm0, xmm1, xmm1
; File c:\program files (x86)\microsoft visual studio 14.0\vc\include\cmath

; 124  : 	}

	ret	0
?fabs@@YAMM@Z ENDP					; fabs
_TEXT	ENDS
; Function compile flags: /Ogtp
; File c:\program files (x86)\microsoft visual studio 14.0\vc\include\cmath
;	COMDAT ?acos@@YAMM@Z
_TEXT	SEGMENT
_Xx$ = 48
?acos@@YAMM@Z PROC					; acos, COMDAT

; 36   : 	{

$LN4:
	sub	rsp, 40					; 00000028H

; 37   : 	return (_CSTD acosf(_Xx));

	call	acosf

; 38   : 	}

	add	rsp, 40					; 00000028H
	ret	0
?acos@@YAMM@Z ENDP					; acos
_TEXT	ENDS
; Function compile flags: /Ogtp
; File c:\program files (x86)\windows kits\10\include\10.0.10586.0\ucrt\math.h
;	COMDAT fabsf
_TEXT	SEGMENT
_X$ = 8
fabsf	PROC						; COMDAT

; 671  :         return (float)fabs(_X);

	vcvtss2sd xmm1, xmm0, xmm0
	vandpd	xmm1, xmm1, QWORD PTR __xmm@7fffffffffffffff7fffffffffffffff
	vcvtsd2ss xmm0, xmm1, xmm1

; 672  :     }

	ret	0
fabsf	ENDP
_TEXT	ENDS
; Function compile flags: /Ogtp
; File g:\dropbox\github\berconmaps\src\bercongradient.cpp
;	COMDAT ?__empty_global_delete@@YAXPEAX_K@Z
_TEXT	SEGMENT
__formal$ = 8
__formal$ = 16
?__empty_global_delete@@YAXPEAX_K@Z PROC		; __empty_global_delete, COMDAT

	ret	0
?__empty_global_delete@@YAXPEAX_K@Z ENDP		; __empty_global_delete
_TEXT	ENDS
; Function compile flags: /Ogtp
; File g:\dropbox\github\berconmaps\src\bercongradient.cpp
;	COMDAT ?__empty_global_delete@@YAXPEAX@Z
_TEXT	SEGMENT
__formal$ = 8
?__empty_global_delete@@YAXPEAX@Z PROC			; __empty_global_delete, COMDAT

	ret	0
?__empty_global_delete@@YAXPEAX@Z ENDP			; __empty_global_delete
_TEXT	ENDS
; Function compile flags: /Ogtp
;	COMDAT ??_H@YAXPEAX_K1P6APEAX0@Z@Z
_TEXT	SEGMENT
__t$ = 48
__s$ = 56
__n$ = 64
__f$ = 72
??_H@YAXPEAX_K1P6APEAX0@Z@Z PROC			; `vector constructor iterator', COMDAT
$LN12:
	test	r8, r8
	je	SHORT $LN10@vector
	mov	QWORD PTR [rsp+8], rbx
	mov	QWORD PTR [rsp+16], rbp
	mov	QWORD PTR [rsp+24], rsi
	push	rdi
	sub	rsp, 32					; 00000020H
	mov	rsi, r9
	mov	rbx, r8
	mov	rbp, rdx
	mov	rdi, rcx
$LL2@vector:
	mov	rcx, rdi
	call	rsi
	add	rdi, rbp
	sub	rbx, 1
	jne	SHORT $LL2@vector
	mov	rbx, QWORD PTR [rsp+48]
	mov	rbp, QWORD PTR [rsp+56]
	mov	rsi, QWORD PTR [rsp+64]
	add	rsp, 32					; 00000020H
	pop	rdi
$LN10@vector:
	ret	0
??_H@YAXPEAX_K1P6APEAX0@Z@Z ENDP			; `vector constructor iterator'
_TEXT	ENDS
END
