 BerconMaps_2020_64_AVX2

 Timestamp is 5ce5e881 (Wed May 22 20:25:37 2019)

 Preferred load address is 0000000180000000

 Start         Length     Name                   Class
 0001:00000000 00007a70H .text$di                CODE
 0001:00007a70 00021e10H .text$mn                CODE
 0001:00029880 00000020H .text$mn$00             CODE
 0001:000298a0 00000b70H .text$x                 CODE
 0001:0002a410 000001dfH .text$yd                CODE
 0002:00000000 000008a8H .idata$5                DATA
 0002:000008a8 00000010H .00cfg                  DATA
 0002:000008b8 00000008H .CRT$XCA                DATA
 0002:000008c0 000000f8H .CRT$XCU                DATA
 0002:000009b8 00000008H .CRT$XCZ                DATA
 0002:000009c0 00000008H .CRT$XIA                DATA
 0002:000009c8 00000008H .CRT$XIZ                DATA
 0002:000009d0 00000008H .CRT$XPA                DATA
 0002:000009d8 00000008H .CRT$XPZ                DATA
 0002:000009e0 00000008H .CRT$XTA                DATA
 0002:000009e8 00000018H .CRT$XTZ                DATA
 0002:000009f0 00000000H .gfids$y                DATA
 0002:00000a00 00006450H .rdata                  DATA
 0002:00006e50 00002244H .rdata$r                DATA
 0002:00009094 000002b4H .rdata$zzzdbg           DATA
 0002:00009348 00000008H .rtc$IAA                DATA
 0002:00009350 00000008H .rtc$IZZ                DATA
 0002:00009358 00000008H .rtc$TAA                DATA
 0002:00009360 00000010H .rtc$TZZ                DATA
 0002:00009370 00003938H .xdata                  DATA
 0002:0000cca8 000001d8H .xdata$x                DATA
 0002:0000ce80 00000104H .edata                  DATA
 0002:0000cf84 00000118H .idata$2                DATA
 0002:0000d09c 00000014H .idata$3                DATA
 0002:0000d0b0 000008a8H .idata$4                DATA
 0002:0000d958 00002c5aH .idata$6                DATA
 0003:00000000 00000730H .data                   DATA
 0003:00000730 00000a60H .data$r                 DATA
 0003:00001190 00000d98H .bss                    DATA
 0004:00000000 00001d10H .pdata                  DATA
 0005:00000000 000009b0H .rsrc$01                DATA
 0005:000009b0 00019ae8H .rsrc$02                DATA

  Address         Publics by Value              Rva+Base               Lib:Object

 0000:00000000       __volatile_metadata        0000000000000000     <absolute>
 0000:00000000       __guard_iat_count          0000000000000000     <absolute>
 0000:00000000       __guard_longjmp_count      0000000000000000     <absolute>
 0000:00000000       ___safe_se_handler_count   0000000000000000     <absolute>
 0000:00000000       __dynamic_value_reloc_table 0000000000000000     <absolute>
 0000:00000000       __hybrid_code_map          0000000000000000     <absolute>
 0000:00000000       __guard_iat_table          0000000000000000     <absolute>
 0000:00000000       __guard_longjmp_table      0000000000000000     <absolute>
 0000:00000000       __enclave_config           0000000000000000     <absolute>
 0000:00000000       ___safe_se_handler_table   0000000000000000     <absolute>
 0000:00000000       __guard_fids_count         0000000000000000     <absolute>
 0000:00000000       __guard_fids_table         0000000000000000     <absolute>
 0000:00000000       __hybrid_code_map_count    0000000000000000     <absolute>
 0000:00000000       __hybrid_auxiliary_iat     0000000000000000     <absolute>
 0000:00000100       __guard_flags              0000000000000100     <absolute>
 0000:00000000       __ImageBase                0000000180000000     <linker-defined>
 0001:00007a70       ??_EXYZ_Desc@@UEAAPEAXI@Z  0000000180008a70 f i BerconDistortion.obj
 0001:00007a70       ??_GXYZ_Desc@@UEAAPEAXI@Z  0000000180008a70 f i BerconDistortion.obj
 0001:00007ae0       ?SupportTexDisplay@BerconGradient@@UEAAHXZ 0000000180008ae0 f i BerconGradient.obj
 0001:00007ae0       ?SupportTexDisplay@BerconDistortion@@UEAAHXZ 0000000180008ae0 f i BerconDistortion.obj
 0001:00007ae0       _get_startup_argv_mode     0000000180008ae0 f i MSVCRT:argv_mode.obj
 0001:00007ae0       ?BuildMaps@MtlBase@@UEAAHHAEAVRenderMapsContext@@@Z 0000000180008ae0 f i BerconDistortion.obj
 0001:00007ae0       ?GetTrackVSpace@Animatable@@UEAAHH@Z 0000000180008ae0 f i BerconDistortion.obj
 0001:00007ae0       ?IsPublic@BerconDistortionClassDesc@@UEAAHXZ 0000000180008ae0 f i BerconDistortion.obj
 0001:00007ae0       ?SupportTexDisplay@BerconNoise@@UEAAHXZ 0000000180008ae0 f i BerconNoise.obj
 0001:00007ae0       ?IsPublic@BerconGradientClassDesc@@UEAAHXZ 0000000180008ae0 f i BerconGradient.obj
 0001:00007ae0       ?CanCopyAnim@Animatable@@UEAAHXZ 0000000180008ae0 f i BerconDistortion.obj
 0001:00007ae0       ?LibInitialize@@YAHXZ      0000000180008ae0 f i DllEntry.obj
 0001:00007ae0       ?IsEnabled@IGradient@@UEAAHXZ 0000000180008ae0 f i BerconGradient.obj
 0001:00007ae0       ?IsPublic@BerconTileClassDesc@@UEAAHXZ 0000000180008ae0 f i BerconTile.obj
 0001:00007ae0       ?SubTexmapOn@ISubMap@@UEAAHH@Z 0000000180008ae0 f i BerconDistortion.obj
 0001:00007ae0       ?SupportTexDisplay@BerconWood@@UEAAHXZ 0000000180008ae0 f i BerconWood.obj
 0001:00007ae0       ?GetTransparencyHint@MtlBase@@UEAAHHAEAVInterval@@@Z 0000000180008ae0 f i BerconDistortion.obj
 0001:00007ae0       ?CanMakeUnique@Animatable@@UEAAHXZ 0000000180008ae0 f i BerconDistortion.obj
 0001:00007ae0       ?CanAssignController@Animatable@@UEAAHH@Z 0000000180008ae0 f i BerconDistortion.obj
 0001:00007ae0       ?GetMapChannel@Texmap@@UEAAHXZ 0000000180008ae0 f i BerconDistortion.obj
 0001:00007ae0       ?NumSubs@BerconTile@@UEAAHXZ 0000000180008ae0 f i BerconTile.obj
 0001:00007ae0       ?NumSubs@BerconNoise@@UEAAHXZ 0000000180008ae0 f i BerconNoise.obj
 0001:00007ae0       ?IsPublic@BerconNoiseClassDesc@@UEAAHXZ 0000000180008ae0 f i BerconNoise.obj
 0001:00007ae0       ?LoadMapFiles@Texmap@@UEAAHH@Z 0000000180008ae0 f i BerconDistortion.obj
 0001:00007ae0       ?IsPublic@BerconWoodClassDesc@@UEAAHXZ 0000000180008ae0 f i BerconWood.obj
 0001:00007ae0       ?SupportTexDisplay@BerconTile@@UEAAHXZ 0000000180008ae0 f i BerconTile.obj
 0001:00007ae0       ?CanTransferReference@ReferenceMaker@@UEAAHH@Z 0000000180008ae0 f i BerconDistortion.obj
 0001:00007ae0       ?IsRefMaker@ReferenceMaker@@UEAAHXZ 0000000180008ae0 f i BerconDistortion.obj
 0001:00007ae0       ?IsRefTarget@ReferenceTarget@@UEAAHXZ 0000000180008ae0 f i BerconDistortion.obj
 0001:00007ae0       ?IsRealDependency@ReferenceMaker@@UEAAHPEAVReferenceTarget@@@Z 0000000180008ae0 f i BerconDistortion.obj
 0001:00007ae0       ?GetSelKeyCoords@Animatable@@UEAAHAEAHAEAMK@Z 0000000180008ae0 f i BerconDistortion.obj
 0001:00007ae0       ?LibShutdown@@YAHXZ        0000000180008ae0 f i DllEntry.obj
 0001:00007ae0       ?OkToCreate@ClassDesc@@UEAAHPEAVInterface@@@Z 0000000180008ae0 f i BerconDistortion.obj
 0001:00007ae0       ?NumSubs@BerconWood@@UEAAHXZ 0000000180008ae0 f i BerconWood.obj
 0001:00007af0       ?Create@BerconDistortionClassDesc@@UEAAPEAXH@Z 0000000180008af0 f i BerconDistortion.obj
 0001:00007b30       ?ClassName@BerconDistortionClassDesc@@UEAAPEB_WXZ 0000000180008b30 f i BerconDistortion.obj
 0001:00007b40       ?SuperClassID@BerconWood@@UEAAKXZ 0000000180008b40 f i BerconWood.obj
 0001:00007b40       ?SuperClassID@BerconDistortion@@UEAAKXZ 0000000180008b40 f i BerconDistortion.obj
 0001:00007b40       ?SuperClassID@BerconTileClassDesc@@UEAAKXZ 0000000180008b40 f i BerconTile.obj
 0001:00007b40       ?SuperClassID@BerconDistortionClassDesc@@UEAAKXZ 0000000180008b40 f i BerconDistortion.obj
 0001:00007b40       ?SuperClassID@BerconTile@@UEAAKXZ 0000000180008b40 f i BerconTile.obj
 0001:00007b40       ?SuperClassID@BerconNoise@@UEAAKXZ 0000000180008b40 f i BerconNoise.obj
 0001:00007b40       ?SuperClassID@BerconGradient@@UEAAKXZ 0000000180008b40 f i BerconGradient.obj
 0001:00007b40       ?SuperClassID@BerconGradientClassDesc@@UEAAKXZ 0000000180008b40 f i BerconGradient.obj
 0001:00007b40       ?SuperClassID@BerconNoiseClassDesc@@UEAAKXZ 0000000180008b40 f i BerconNoise.obj
 0001:00007b40       ?SuperClassID@BerconWoodClassDesc@@UEAAKXZ 0000000180008b40 f i BerconWood.obj
 0001:00007b50       ?ClassID@BerconDistortionClassDesc@@UEAA?AVClass_ID@@XZ 0000000180008b50 f i BerconDistortion.obj
 0001:00007b50       ?ClassID@BerconDistortion@@UEAA?AVClass_ID@@XZ 0000000180008b50 f i BerconDistortion.obj
 0001:00007b70       ?Category@BerconWoodClassDesc@@UEAAPEB_WXZ 0000000180008b70 f i BerconWood.obj
 0001:00007b70       ?Category@BerconNoiseClassDesc@@UEAAPEB_WXZ 0000000180008b70 f i BerconNoise.obj
 0001:00007b70       ?Category@BerconDistortionClassDesc@@UEAAPEB_WXZ 0000000180008b70 f i BerconDistortion.obj
 0001:00007b70       ?Category@BerconGradientClassDesc@@UEAAPEB_WXZ 0000000180008b70 f i BerconGradient.obj
 0001:00007b70       ?Category@BerconTileClassDesc@@UEAAPEB_WXZ 0000000180008b70 f i BerconTile.obj
 0001:00007b80       ?InternalName@BerconDistortionClassDesc@@UEAAPEB_WXZ 0000000180008b80 f i BerconDistortion.obj
 0001:00007b90       ?HInstance@BerconGradientClassDesc@@UEAAPEAUHINSTANCE__@@XZ 0000000180008b90 f i BerconGradient.obj
 0001:00007b90       ?HInstance@BerconNoiseClassDesc@@UEAAPEAUHINSTANCE__@@XZ 0000000180008b90 f i BerconNoise.obj
 0001:00007b90       ?HInstance@BerconTileClassDesc@@UEAAPEAUHINSTANCE__@@XZ 0000000180008b90 f i BerconTile.obj
 0001:00007b90       ?HInstance@BerconWoodClassDesc@@UEAAPEAUHINSTANCE__@@XZ 0000000180008b90 f i BerconWood.obj
 0001:00007b90       ?HInstance@BerconDistortionClassDesc@@UEAAPEAUHINSTANCE__@@XZ 0000000180008b90 f i BerconDistortion.obj
 0001:00007ba0       ??_EBerconDistortionClassDesc@@UEAAPEAXI@Z 0000000180008ba0 f i BerconDistortion.obj
 0001:00007ba0       ??_GBerconDistortionClassDesc@@UEAAPEAXI@Z 0000000180008ba0 f i BerconDistortion.obj
 0001:00007c10       ?SetUserDlgProc@ClassDesc2@@UEAA_NPEAVParamBlockDesc2@@PEAVParamMap2UserDlgProc@@@Z 0000000180008c10 f i BerconDistortion.obj
 0001:00007c20       ?GetParamMap@ClassDesc@@UEAAPEAVIParamMap2@@PEAVParamBlockDesc2@@@Z 0000000180008c20 f i BerconDistortion.obj
 0001:00007c20       ?IsCurveSelected@Animatable@@UEAAHXZ 0000000180008c20 f i BerconDistortion.obj
 0001:00007c20       ?SetCustomImageList@ResourceMakerCallback@@UEAAHAEAPEAU_IMAGELIST@@PEAVICurveCtl@@@Z 0000000180008c20 f i BerconGradient.obj
 0001:00007c20       ?TrackParamsType@Animatable@@UEAAHXZ 0000000180008c20 f i BerconDistortion.obj
 0001:00007c20       ?PaintFCurves@Animatable@@UEAAHPEAVParamDimensionBase@@PEAUHDC__@@AEAVBox2@@2MHMHK@Z 0000000180008c20 f i BerconDistortion.obj
 0001:00007c20       ?Node@ShadeContext@@UEAAPEAVINode@@XZ 0000000180008c20 f i BerconDistortion.obj
 0001:00007c20       ?CreateManipulator@ClassDesc@@UEAAPEAVManipulator@@PEAVINode@@@Z 0000000180008c20 f i BerconDistortion.obj
 0001:00007c20       ?BypassPropertyLevel@Animatable@@UEAAHXZ 0000000180008c20 f i BerconDistortion.obj
 0001:00007c20       ?CanPasteSubTrack@Animatable@@UEAAHHPEAVTrackClipObject@@VInterval@@K@Z 0000000180008c20 f i BerconDistortion.obj
 0001:00007c20       ?CanPasteTrack@Animatable@@UEAAHPEAVTrackClipObject@@VInterval@@K@Z 0000000180008c20 f i BerconDistortion.obj
 0001:00007c20       ?IsHighDynamicRange@Texmap@@UEBAHXZ 0000000180008c20 f i BerconDistortion.obj
 0001:00007c20       ?GetTheUVGen@Texmap@@UEAAPEAVUVGen@@XZ 0000000180008c20 f i BerconDistortion.obj
 0001:00007c20       ?Antialias@ShadeContext@@UEAAHXZ 0000000180008c20 f i BerconDistortion.obj
 0001:00007c20       ?GetToolTip@ResourceMakerCallback@@UEAAHHAEAVWStr@@PEAVICurveCtl@@@Z 0000000180008c20 f i BerconGradient.obj
 0001:00007c20       ?Execute@RenderGlobalContext@@UEAA_JH_K00@Z 0000000180008c20 f i BerconDistortion.obj
 0001:00007c20       ?CopySubTrack@Animatable@@UEAAPEAVTrackClipObject@@HVInterval@@K@Z 0000000180008c20 f i BerconDistortion.obj
 0001:00007c20       ?CanManipulateNode@ClassDesc@@UEAAHPEAVINode@@@Z 0000000180008c20 f i BerconDistortion.obj
 0001:00007c20       ?NumChildren@Animatable@@UEAAHXZ 0000000180008c20 f i BerconDistortion.obj
 0001:00007c20       _is_c_termination_complete 0000000180008c20 f i MSVCRT:ucrt_stubs.obj
 0001:00007c20       ?Load@ClassDesc@@UEAA?AW4IOResult@@PEAVILoad@@@Z 0000000180008c20 f i BerconDistortion.obj
 0001:00007c20       ?GetEvalObject@ShadeContext@@UEAAPEAVObject@@XZ 0000000180008c20 f i BerconDistortion.obj
 0001:00007c20       ?GetCache@ShadeContext@@UEAAHPEAVTexmap@@AEAM@Z 0000000180008c20 f i BerconDistortion.obj
 0001:00007c20       ?RenderEnd@Animatable@@UEAAHH@Z 0000000180008c20 f i BerconDistortion.obj
 0001:00007c20       ?SetSelKeyCoordsExpr@Animatable@@UEAAHPEAVParamDimension@@PEB_W1K@Z 0000000180008c20 f i BerconDistortion.obj
 0001:00007c20       ?CreateQtWidget@ClassDesc2@@UEAAPEAVQMaxParamBlockWidget@MaxSDK@@AEAVReferenceMaker@@AEAVIParamBlock2@@FAEAVWStr@@AEAH3@Z 0000000180008c20 f i BerconDistortion.obj
 0001:00007c20       ?GetNextKeyTime@Animatable@@UEAAHHKAEAH@Z 0000000180008c20 f i BerconDistortion.obj
 0001:00007c20       ?NumSelKeys@Animatable@@UEAAHXZ 0000000180008c20 f i BerconDistortion.obj
 0001:00007c20       ?ShouldPersistWeakRef@ReferenceMaker@@UEAAHPEAVReferenceTarget@@@Z 0000000180008c20 f i BerconDistortion.obj
 0001:00007c20       ?CopyTrack@Animatable@@UEAAPEAVTrackClipObject@@VInterval@@K@Z 0000000180008c20 f i BerconDistortion.obj
 0001:00007c20       ?IsKeySelected@Animatable@@UEAAHH@Z 0000000180008c20 f i BerconDistortion.obj
 0001:00007c20       ?Execute@ClassDesc@@UEAA_JH_K00@Z 0000000180008c20 f i BerconDistortion.obj
 0001:00007c20       ?BumpBasisVectors@ShadeContext@@UEAAHQEAVPoint3@@HH@Z 0000000180008c20 f i BerconDistortion.obj
 0001:00007c20       ?AssignController@Animatable@@UEAAHPEAV1@H@Z 0000000180008c20 f i BerconDistortion.obj
 0001:00007c20       ?GetTheXYZGen@Texmap@@UEAAPEAVXYZGen@@XZ 0000000180008c20 f i BerconDistortion.obj
 0001:00007c20       ?IsSubCurveSelected@Animatable@@UEAAHH@Z 0000000180008c20 f i BerconDistortion.obj
 0001:00007c20       ?IsKeyAtTime@Animatable@@UEAAHHK@Z 0000000180008c20 f i BerconDistortion.obj
 0001:00007c20       ?Execute@IGradient@@UEAA_JH_K00@Z 0000000180008c20 f i BerconGradient.obj
 0001:00007c20       ?InvisibleProperty@Animatable@@UEAAHXZ 0000000180008c20 f i BerconDistortion.obj
 0001:00007c20       ?Execute@ShadeContext@@UEAA_JH_K00@Z 0000000180008c20 f i BerconDistortion.obj
 0001:00007c20       ?BeginCreate@ClassDesc@@UEAAHPEAVInterface@@@Z 0000000180008c20 f i BerconDistortion.obj
 0001:00007c20       ?RenderBegin@Animatable@@UEAAHHK@Z 0000000180008c20 f i BerconDistortion.obj
 0001:00007c20       ?DebugFile@RenderGlobalContext@@UEAAPEAU_iobuf@@XZ 0000000180008c20 f i BerconDistortion.obj
 0001:00007c20       ?GetActionTable@ClassDesc@@UEAAPEAVActionTable@@H@Z 0000000180008c20 f i BerconDistortion.obj
 0001:00007c20       ?IsMultiMtl@MtlBase@@UEAAHXZ 0000000180008c20 f i BerconDistortion.obj
 0001:00007c20       ?GetAAFilterKernel@RenderGlobalContext@@UEAAPEAVFilterKernel@@XZ 0000000180008c20 f i BerconDistortion.obj
 0001:00007c20       ?GetKeySelState@Animatable@@UEAAHAEAVBitArray@@VInterval@@K@Z 0000000180008c20 f i BerconDistortion.obj
 0001:00007c20       ?CanManipulate@ClassDesc@@UEAAHPEAVReferenceTarget@@@Z 0000000180008c20 f i BerconDistortion.obj
 0001:00007c20       ?GetUserDlgProc@ClassDesc@@UEAAPEAVParamMap2UserDlgProc@@PEAVParamBlockDesc2@@@Z 0000000180008c20 f i BerconDistortion.obj
 0001:00007c20       ?GetCache@ShadeContext@@UEAAHPEAVTexmap@@AEAVPoint3@@@Z 0000000180008c20 f i BerconDistortion.obj
 0001:00007c20       ?EndCreate@ClassDesc@@UEAAHPEAVInterface@@@Z 0000000180008c20 f i BerconDistortion.obj
 0001:00007c20       ?SetDlgThing@BerconDistortion@@UEAAHPEAVParamDlg@@@Z 0000000180008c20 f i BerconDistortion.obj
 0001:00007c20       ?GetNSuperSample@ShadeContext@@UEAAHXZ 0000000180008c20 f i BerconDistortion.obj
 0001:00007c20       ?HandleOwnViewPerturb@Texmap@@UEAAHXZ 0000000180008c20 f i BerconDistortion.obj
 0001:00007c20       ?SupportsMultiMapsInViewport@MtlBase@@UEAAHXZ 0000000180008c20 f i BerconDistortion.obj
 0001:00007c20       __scrt_stub_for_is_c_termination_complete 0000000180008c20 f i MSVCRT:ucrt_stubs.obj
 0001:00007c20       ?NumActionTables@ClassDesc@@UEAAHXZ 0000000180008c20 f i BerconDistortion.obj
 0001:00007c20       ?NumRenderInstances@RenderGlobalContext@@UEAAHXZ 0000000180008c20 f i BerconDistortion.obj
 0001:00007c20       ?PaintSubFCurves@Animatable@@UEAAHHPEAVParamDimensionBase@@PEAUHDC__@@AEAVBox2@@2MHMHK@Z 0000000180008c20 f i BerconDistortion.obj
 0001:00007c20       ?DebugFile@BerconSC@@UEAAPEAU_iobuf@@XZ 0000000180008c20 f i BerconDistortion.obj
 0001:00007c20       ?SelectSubAnim@Animatable@@UEAAHH@Z 0000000180008c20 f i BerconDistortion.obj
 0001:00007c20       ?GetRenderInstance@RenderGlobalContext@@UEAAPEAVRenderInstance@@H@Z 0000000180008c20 f i BerconDistortion.obj
 0001:00007c20       ?CanDeleteSubAnim@Animatable@@UEAAHH@Z 0000000180008c20 f i BerconDistortion.obj
 0001:00007c20       ?CanCopySubTrack@Animatable@@UEAAHHVInterval@@K@Z 0000000180008c20 f i BerconDistortion.obj
 0001:00007c20       ?GetTheXYZGen@BerconNoise@@UEAAPEAVXYZGen@@XZ 0000000180008c20 f i BerconNoise.obj
 0001:00007c20       ?Save@ClassDesc@@UEAA?AW4IOResult@@PEAVISave@@@Z 0000000180008c20 f i BerconDistortion.obj
 0001:00007c20       ?GetSubFCurveExtents@Animatable@@UEAAHHPEAVParamDimensionBase@@AEAM1K@Z 0000000180008c20 f i BerconDistortion.obj
 0001:00007c20       ?SupportTimeOperations@Animatable@@UEAAHXZ 0000000180008c20 f i BerconDistortion.obj
 0001:00007c20       ?GetViewParams@RenderGlobalContext@@UEAAPEAVViewParams@@XZ 0000000180008c20 f i BerconDistortion.obj
 0001:00007c20       ?TrackViewWinProc@Animatable@@UEAA_JPEAUHWND__@@I_K_J@Z 0000000180008c20 f i BerconDistortion.obj
 0001:00007c20       ?GetUVWSource@Texmap@@UEAAHXZ 0000000180008c20 f i BerconDistortion.obj
 0001:00007c20       ?NeedsToSave@ClassDesc@@UEAAHXZ 0000000180008c20 f i BerconDistortion.obj
 0001:00007c20       ?GetKeyTime@Animatable@@UEAAHH@Z 0000000180008c20 f i BerconDistortion.obj
 0001:00007c20       ?IsSuperSampleOn@ShadeContext@@UEAAHXZ 0000000180008c20 f i BerconDistortion.obj
 0001:00007c20       ?IsManipulator@ClassDesc@@UEAAHXZ 0000000180008c20 f i BerconDistortion.obj
 0001:00007c20       ?ChildAnim@Animatable@@UEAAPEAV1@H@Z 0000000180008c20 f i BerconDistortion.obj
 0001:00007c20       ?SetKeyBufferPresent@Animatable@@UEAAHXZ 0000000180008c20 f i BerconDistortion.obj
 0001:00007c20       ?BypassTreeView@Animatable@@UEAAHXZ 0000000180008c20 f i BerconDistortion.obj
 0001:00007c20       ?ProjType@ShadeContext@@UEAAHXZ 0000000180008c20 f i BerconDistortion.obj
 0001:00007c20       ?DebugFile@ShadeContext@@UEAAPEAU_iobuf@@XZ 0000000180008c20 f i BerconDistortion.obj
 0001:00007c20       ?Execute@ICustomControl@@UEAA_JH_K00@Z 0000000180008c20 f i BerconGradient.obj
 0001:00007c20       ?CreateManipulator@ClassDesc@@UEAAPEAVManipulator@@PEAVReferenceTarget@@PEAVINode@@@Z 0000000180008c20 f i BerconDistortion.obj
 0001:00007c20       ?GetFCurveExtents@Animatable@@UEAAHPEAVParamDimensionBase@@AEAM1K@Z 0000000180008c20 f i BerconDistortion.obj
 0001:00007c20       ?IntersectWorld@RenderGlobalContext@@UEAAHAEAVRay@@HAEAUISect@@AEAVISectList@@H@Z 0000000180008c20 f i BerconDistortion.obj
 0001:00007c20       ?GetKeyTimes@Animatable@@UEAAHAEAV?$Tab@H@@VInterval@@K@Z 0000000180008c20 f i BerconDistortion.obj
 0001:00007c20       ?HasClassParams@ClassDesc@@UEAAHXZ 0000000180008c20 f i BerconDistortion.obj
 0001:00007c20       ?GetCache@ShadeContext@@UEAAHPEAVTexmap@@AEAVAColor@@@Z 0000000180008c20 f i BerconDistortion.obj
 0001:00007c20       ?IsTextureSuperSampleOn@ShadeContext@@UEAAHXZ 0000000180008c20 f i BerconDistortion.obj
 0001:00007c20       ?CanCopyTrack@Animatable@@UEAAHVInterval@@K@Z 0000000180008c20 f i BerconDistortion.obj
 0001:00007c30       ?CreateQtWidget@ClassDesc2@@UEAAPEAVQMaxParamBlockWidget@MaxSDK@@AEAVReferenceMaker@@AEAVIParamBlock2@@FAEAVWStr@@AEAH3AEAVClass_ID@@@Z 0000000180008c30 f i BerconDistortion.obj
 0001:00007c40       ?DeleteKeyAtTime@Animatable@@UEAAXH@Z 0000000180008c40 f i BerconDistortion.obj
 0001:00007c40       ?GetSystemNodes@Animatable@@UEAAXAEAVINodeTab@@W4SysNodeContext@@@Z 0000000180008c40 f i BerconDistortion.obj
 0001:00007c40       ?CopyKeysFromTime@Animatable@@UEAAXHHK@Z 0000000180008c40 f i BerconDistortion.obj
 0001:00007c40       ?FreeCaches@Animatable@@UEAAXXZ 0000000180008c40 f i BerconDistortion.obj
 0001:00007c40       ?SelectSubKeys@Animatable@@UEAAXHAEAV?$Tab@VTrackHitRecord@@@@K@Z 0000000180008c40 f i BerconDistortion.obj
 0001:00007c40       ?TossCache@ShadeContext@@UEAAXPEAVTexmap@@@Z 0000000180008c40 f i BerconDistortion.obj
 0001:00007c40       ?AdjustTangents@Animatable@@UEAAXVTrackHitRecord@@PEAVParamDimensionBase@@MMK@Z 0000000180008c40 f i BerconDistortion.obj
 0001:00007c40       ?DeleteTime@Animatable@@UEAAXVInterval@@K@Z 0000000180008c40 f i BerconDistortion.obj
 0001:00007c40       ?SetNormal@ShadeContext@@UEAAXVPoint3@@@Z 0000000180008c40 f i BerconDistortion.obj
 0001:00007c40       ?RefDeletedUndoRedo@ReferenceTarget@@UEAAXXZ 0000000180008c40 f i BerconDistortion.obj
 0001:00007c40       ?Disable@IGradient@@UEAAXXZ 0000000180008c40 f i BerconGradient.obj
 0001:00007c40       ?ResetCallback@ResourceMakerCallback@@UEAAXHPEAVICurveCtl@@@Z 0000000180008c40 f i BerconGradient.obj
 0001:00007c40       ?CommitSetKeyBuffer@Animatable@@UEAAXH@Z 0000000180008c40 f i BerconDistortion.obj
 0001:00007c40       ?Enable@IGradient@@UEAAXH@Z 0000000180008c40 f i BerconGradient.obj
 0001:00007c40       ?BeginEditParams@Animatable@@UEAAXPEAVIObjParam@@KPEAV1@@Z 0000000180008c40 f i BerconDistortion.obj
 0001:00007c40       ?IntersectRay@RenderGlobalContext@@UEAAXPEAVRenderInstance@@AEAVRay@@AEAUISect@@AEAVISectList@@H@Z 0000000180008c40 f i BerconDistortion.obj
 0001:00007c40       ?SetThing@ParamMap2UserDlgProc@@UEAAXPEAVReferenceTarget@@@Z 0000000180008c40 f i BerconDistortion.obj
 0001:00007c40       ?DeleteSubAnim@Animatable@@UEAAXH@Z 0000000180008c40 f i BerconDistortion.obj
 0001:00007c40       ?RefAddedUndoRedo@ReferenceTarget@@UEAAXPEAVReferenceMaker@@@Z 0000000180008c40 f i BerconDistortion.obj
 0001:00007c40       ?DP@ShadeContext@@UEAAXAEAVPoint3@@0@Z 0000000180008c40 f i BerconDistortion.obj
 0001:00007c40       ?__global_delete@@YAXPEAX_K@Z 0000000180008c40 f i BerconDistortion.obj
 0001:00007c40       ?__empty_global_delete@@YAXPEAX_K@Z 0000000180008c40 f i BerconDistortion.obj
 0001:00007c40       ?EditTimeRange@Animatable@@UEAAXVInterval@@K@Z 0000000180008c40 f i BerconDistortion.obj
 0001:00007c40       ?CloneSelectedKeys@Animatable@@UEAAXH@Z 0000000180008c40 f i BerconDistortion.obj
 0001:00007c40       ?MoveKeys@Animatable@@UEAAXPEAVParamDimensionBase@@MK@Z 0000000180008c40 f i BerconDistortion.obj
 0001:00007c40       ?ScaleTime@Animatable@@UEAAXVInterval@@M@Z 0000000180008c40 f i BerconDistortion.obj
 0001:00007c40       ?PasteSubTrack@Animatable@@UEAAXHPEAVTrackClipObject@@VInterval@@K@Z 0000000180008c40 f i BerconDistortion.obj
 0001:00007c40       ?SetParamBlock@ParamMap2UserDlgProc@@UEAAXPEAVIParamBlock2@@@Z 0000000180008c40 f i BerconDistortion.obj
 0001:00007c40       ?SetTooltip@IGradient@@UEAAX_NPEB_W@Z 0000000180008c40 f i BerconGradient.obj
 0001:00007c40       ?SetSelKeyCoords@Animatable@@UEAAXHMK@Z 0000000180008c40 f i BerconDistortion.obj
 0001:00007c40       ?InsertTime@Animatable@@UEAAXHH@Z 0000000180008c40 f i BerconDistortion.obj
 0001:00007c40       ?LocalMappingsRequired@MtlBase@@UEAAXHAEAVBitArray@@0@Z 0000000180008c40 f i BerconDistortion.obj
 0001:00007c40       ?SelectCurve@Animatable@@UEAAXH@Z 0000000180008c40 f i BerconDistortion.obj
 0001:00007c40       ?PutCache@ShadeContext@@UEAAXPEAVTexmap@@M@Z 0000000180008c40 f i BerconDistortion.obj
 0001:00007c40       _guard_check_icall_nop     0000000180008c40 f i MSVCRT:guard_support.obj
 0001:00007c40       ?Update@ParamMap2UserDlgProc@@UEAAXH@Z 0000000180008c40 f i BerconDistortion.obj
 0001:00007c40       ?FlagKey@Animatable@@UEAAXVTrackHitRecord@@@Z 0000000180008c40 f i BerconDistortion.obj
 0001:00007c40       ?AdjustTangents@Animatable@@UEAAXVTrackHitRecord@@PEAVParamDimensionBase@@AEAVBox2@@MHMHHHK@Z 0000000180008c40 f i BerconDistortion.obj
 0001:00007c40       ?DeleteKeyByIndex@Animatable@@UEAAXH@Z 0000000180008c40 f i BerconDistortion.obj
 0001:00007c40       ?Enable2@IGradient@@UEAAXH@Z 0000000180008c40 f i BerconGradient.obj
 0001:00007c40       ?FreeAllBitmaps@Animatable@@UEAAXXZ 0000000180008c40 f i BerconDistortion.obj
 0001:00007c40       ?ScaleKeyValues@Animatable@@UEAAXPEAVParamDimensionBase@@MMK@Z 0000000180008c40 f i BerconDistortion.obj
 0001:00007c40       ?EditTrackParams@Animatable@@UEAAXHPEAVParamDimensionBase@@PEB_WPEAUHWND__@@PEAVIObjParam@@K@Z 0000000180008c40 f i BerconDistortion.obj
 0001:00007c40       ?AddNewKey@Animatable@@UEAAXHK@Z 0000000180008c40 f i BerconDistortion.obj
 0001:00007c40       ?SelectKeyByIndex@Animatable@@UEAAXHH@Z 0000000180008c40 f i BerconDistortion.obj
 0001:00007c40       ?RefDeleted@ReferenceTarget@@UEAAXXZ 0000000180008c40 f i BerconDistortion.obj
 0001:00007c40       ?ReverseTime@Animatable@@UEAAXVInterval@@K@Z 0000000180008c40 f i BerconDistortion.obj
 0001:00007c40       ?EndEditParams@Animatable@@UEAAXPEAVIObjParam@@KPEAV1@@Z 0000000180008c40 f i BerconDistortion.obj
 0001:00007c40       ?PasteTrack@Animatable@@UEAAXPEAVTrackClipObject@@VInterval@@K@Z 0000000180008c40 f i BerconDistortion.obj
 0001:00007c40       ?SetupGfxMultiMaps@MtlBase@@UEAAXHPEAVMaterial@@AEAVMtlMakerCallback@@@Z 0000000180008c40 f i BerconDistortion.obj
 0001:00007c40       ?PutCache@ShadeContext@@UEAAXPEAVTexmap@@AEBVAColor@@@Z 0000000180008c40 f i BerconDistortion.obj
 0001:00007c40       ?NewCurveCreatedCallback@ResourceMakerCallback@@UEAAXHPEAVICurveCtl@@@Z 0000000180008c40 f i BerconGradient.obj
 0001:00007c40       ?EditClassParams@ClassDesc@@UEAAXPEAUHWND__@@@Z 0000000180008c40 f i BerconDistortion.obj
 0001:00007c40       ?SelectKeys@Animatable@@UEAAXAEAV?$Tab@VTrackHitRecord@@@@K@Z 0000000180008c40 f i BerconDistortion.obj
 0001:00007c40       ?NotifyTarget@ReferenceTarget@@UEAAXHPEAVReferenceMaker@@@Z 0000000180008c40 f i BerconDistortion.obj
 0001:00007c40       ?PutCache@ShadeContext@@UEAAXPEAVTexmap@@AEBVPoint3@@@Z 0000000180008c40 f i BerconDistortion.obj
 0001:00007c40       ?SelectSubCurve@Animatable@@UEAAXHH@Z 0000000180008c40 f i BerconDistortion.obj
 0001:00007c40       ?DeleteKeys@Animatable@@UEAAXK@Z 0000000180008c40 f i BerconDistortion.obj
 0001:00007c40       ?SetIOR@ShadeContext@@UEAAXM@Z 0000000180008c40 f i BerconDistortion.obj
 0001:00007c40       ?RevertSetKeyBuffer@Animatable@@UEAAXXZ 0000000180008c40 f i BerconDistortion.obj
 0001:00007c40       ?SetOutputLevel@Texmap@@UEAAXHM@Z 0000000180008c40 f i BerconDistortion.obj
 0001:00007c50       ?InitialRollupPageState@ClassDesc@@UEAAKXZ 0000000180008c50 f i BerconDistortion.obj
 0001:00007c60       ?IsLocalOutputMeaningful@Texmap@@UEAA_NAEAVShadeContext@@@Z 0000000180008c60 f i BerconDistortion.obj
 0001:00007c60       ?UseOnlyInternalNameForMAXScriptExposure@ClassDesc@@UEAA_NXZ 0000000180008c60 f i BerconDistortion.obj
 0001:00007c60       ?DrawRepresentation@ClassDesc@@UEAA_NKPEAUHDC__@@AEAVBox2@@@Z 0000000180008c60 f i BerconDistortion.obj
 0001:00007c60       ?GetMacroRecorderName@Animatable@@UEAA_N_NAEAVWStr@@@Z 0000000180008c60 f i BerconDistortion.obj
 0001:00007c70       ?NumInterfaces@ClassDesc@@UEAAHXZ 0000000180008c70 f i BerconDistortion.obj
 0001:00007c80       ?GetInterfaceAt@ClassDesc@@UEAAPEAVFPInterface@@H@Z 0000000180008c80 f i BerconDistortion.obj
 0001:00007d60       ?ClearInterfaces@ClassDesc@@UEAAXXZ 0000000180008d60 f i BerconDistortion.obj
 0001:00007d70       ?SubClassID@ClassDesc@@UEAA?AVClass_ID@@XZ 0000000180008d70 f i BerconDistortion.obj
 0001:00007d80       ?What@TabOutOfRangeException@Util@MaxSDK@@UEBAPEB_WXZ 0000000180008d80 f i BerconDistortion.obj
 0001:00007da0       ??1TabOutOfRangeException@Util@MaxSDK@@UEAA@XZ 0000000180008da0 f i BerconDistortion.obj
 0001:00007dc0       ??0TabOutOfRangeException@Util@MaxSDK@@QEAA@AEBV012@@Z 0000000180008dc0 f i BerconDistortion.obj
 0001:00007e00       ??_GTabOutOfRangeException@Util@MaxSDK@@UEAAPEAXI@Z 0000000180008e00 f i BerconDistortion.obj
 0001:00007e00       ??_ETabOutOfRangeException@Util@MaxSDK@@UEAAPEAXI@Z 0000000180008e00 f i BerconDistortion.obj
 0001:00007e70       ??0BerconDistortion@@QEAA@XZ 0000000180008e70 f   BerconDistortion.obj
 0001:00008030       ??0BerconSC@@QEAA@QEAVShadeContext@@@Z 0000000180009030 f i BerconDistortion.obj
 0001:00008210       ??0TabOutOfRangeException@Util@MaxSDK@@QEAA@PEB_W@Z 0000000180009210 f i BerconDistortion.obj
 0001:00008240       ??0VertexNormalsControl@@QEAA@XZ 0000000180009240 f i BerconDistortion.obj
 0001:00008270       ??0XYZ_Desc@@QEAA@PEAVClassDesc2@@HHHHHHH@Z 0000000180009270 f i BerconDistortion.obj
 0001:00009540       ??1?$Tab@PEAVBaseInterface@@@@UEAA@XZ 000000018000a540 f i BerconDistortion.obj
 0001:00009570       ??1?$Tab@PEAVVertexNormalsCallback@@@@UEAA@XZ 000000018000a570 f i BerconDistortion.obj
 0001:000095a0       ??1BerconSC@@UEAA@XZ       000000018000a5a0 f i BerconDistortion.obj
 0001:000095f0       ??1ParamMap2UserDlgProc@@UEAA@XZ 000000018000a5f0 f i BerconDistortion.obj
 0001:00009600       ??1ShadeOutput@@UEAA@XZ    000000018000a600 f i BerconDistortion.obj
 0001:00009600       ??1RenderGlobalContext@@UEAA@XZ 000000018000a600 f i BerconDistortion.obj
 0001:00009620       ??1ShadeContext@@UEAA@XZ   000000018000a620 f i BerconDistortion.obj
 0001:00009660       ??1Texmap@@UEAA@XZ         000000018000a660 f i BerconDistortion.obj
 0001:00009680       ??_EBerconDistortion@@WEI@EAAPEAXI@Z 000000018000a680 f i BerconDistortion.obj
 0001:0000968c       ??_EBerconSC@@WCJA@EAAPEAXI@Z 000000018000a68c f i BerconDistortion.obj
 0001:000096a0       ??_G?$Tab@PEAVBaseInterface@@@@UEAAPEAXI@Z 000000018000a6a0 f i BerconDistortion.obj
 0001:000096a0       ??_E?$Tab@PEAVBaseInterface@@@@UEAAPEAXI@Z 000000018000a6a0 f i BerconDistortion.obj
 0001:00009710       ??_G?$Tab@PEAVVertexNormalsCallback@@@@UEAAPEAXI@Z 000000018000a710 f i BerconDistortion.obj
 0001:00009710       ??_E?$Tab@PEAVVertexNormalsCallback@@@@UEAAPEAXI@Z 000000018000a710 f i BerconDistortion.obj
 0001:00009780       ??_GBaseInterfaceServer@@UEAAPEAXI@Z 000000018000a780 f i BerconDistortion.obj
 0001:00009780       ??_EBaseInterfaceServer@@UEAAPEAXI@Z 000000018000a780 f i BerconDistortion.obj
 0001:000097d0       ??_EBerconDistortion@@UEAAPEAXI@Z 000000018000a7d0 f i BerconDistortion.obj
 0001:000097d0       ??_GBerconDistortion@@UEAAPEAXI@Z 000000018000a7d0 f i BerconDistortion.obj
 0001:00009870       ??_EBerconSC@@UEAAPEAXI@Z  000000018000a870 f i BerconDistortion.obj
 0001:00009870       ??_GBerconSC@@UEAAPEAXI@Z  000000018000a870 f i BerconDistortion.obj
 0001:00009900       ??_EBerconXYZDlgProc@@UEAAPEAXI@Z 000000018000a900 f i BerconDistortion.obj
 0001:00009900       ??_GBerconWoodDlgProc@@UEAAPEAXI@Z 000000018000a900 f i BerconWood.obj
 0001:00009900       ??_EBerconWoodDlgProc@@UEAAPEAXI@Z 000000018000a900 f i BerconWood.obj
 0001:00009900       ??_GBerconXYZDlgProc@@UEAAPEAXI@Z 000000018000a900 f i BerconDistortion.obj
 0001:00009900       ??_EBerconNoiseDlgProc@@UEAAPEAXI@Z 000000018000a900 f i BerconNoise.obj
 0001:00009900       ??_GBerconNoiseDlgProc@@UEAAPEAXI@Z 000000018000a900 f i BerconNoise.obj
 0001:00009900       ??_GBerconTileDlgProc@@UEAAPEAXI@Z 000000018000a900 f i BerconTile.obj
 0001:00009900       ??_EBerconTileDlgProc@@UEAAPEAXI@Z 000000018000a900 f i BerconTile.obj
 0001:00009950       ??_GInterfaceServer@@UEAAPEAXI@Z 000000018000a950 f i BerconDistortion.obj
 0001:00009950       ??_EInterfaceServer@@UEAAPEAXI@Z 000000018000a950 f i BerconDistortion.obj
 0001:000099a0       ??_GParamMap2UserDlgProc@@UEAAPEAXI@Z 000000018000a9a0 f i BerconDistortion.obj
 0001:000099a0       ??_EParamMap2UserDlgProc@@UEAAPEAXI@Z 000000018000a9a0 f i BerconDistortion.obj
 0001:000099e0       ??_ERenderGlobalContext@@UEAAPEAXI@Z 000000018000a9e0 f i BerconDistortion.obj
 0001:000099e0       ??_GRenderGlobalContext@@UEAAPEAXI@Z 000000018000a9e0 f i BerconDistortion.obj
 0001:00009a50       ??_GShadeContext@@UEAAPEAXI@Z 000000018000aa50 f i BerconDistortion.obj
 0001:00009a50       ??_EShadeContext@@UEAAPEAXI@Z 000000018000aa50 f i BerconDistortion.obj
 0001:00009ad0       ??_GShadeOutput@@UEAAPEAXI@Z 000000018000aad0 f i BerconDistortion.obj
 0001:00009ad0       ??_EShadeOutput@@UEAAPEAXI@Z 000000018000aad0 f i BerconDistortion.obj
 0001:00009b40       ?ActivateTexDisplay@BerconDistortion@@UEAAXH@Z 000000018000ab40 f i BerconDistortion.obj
 0001:00009b70       ?Antialias@BerconSC@@UEAAHXZ 000000018000ab70 f i BerconDistortion.obj
 0001:00009b80       ?BarycentricCoords@BerconSC@@UEAA?AVPoint3@@XZ 000000018000ab80 f i BerconDistortion.obj
 0001:00009ba0       ?BarycentricCoords@ShadeContext@@UEAA?AVPoint3@@XZ 000000018000aba0 f i BerconDistortion.obj
 0001:00009bb0       ?BumpBasisVectors@BerconSC@@UEAAHQEAVPoint3@@HH@Z 000000018000abb0 f i BerconDistortion.obj
 0001:00009bd0       ?BypassTrackBar@Animatable@@UEAAHXZ 000000018000abd0 f i BerconDistortion.obj
 0001:00009be0       ?CamFarRange@BerconSC@@UEAAMXZ 000000018000abe0 f i BerconDistortion.obj
 0001:00009c00       ?CamNearRange@ShadeContext@@UEAAMXZ 000000018000ac00 f i BerconDistortion.obj
 0001:00009c00       ?RayConeAngle@ShadeContext@@UEAAMXZ 000000018000ac00 f i BerconDistortion.obj
 0001:00009c00       ?CamFarRange@ShadeContext@@UEAAMXZ 000000018000ac00 f i BerconDistortion.obj
 0001:00009c00       ?GetAAFilterSize@RenderGlobalContext@@UEAAMXZ 000000018000ac00 f i BerconDistortion.obj
 0001:00009c00       ?Curve@ShadeContext@@UEAAMXZ 000000018000ac00 f i BerconDistortion.obj
 0001:00009c10       ?CamNearRange@BerconSC@@UEAAMXZ 000000018000ac10 f i BerconDistortion.obj
 0001:00009c30       ?CamPos@BerconSC@@UEAA?AVPoint3@@XZ 000000018000ac30 f i BerconDistortion.obj
 0001:00009c60       ?ClassID@BerconSC@@UEAA?AVClass_ID@@XZ 000000018000ac60 f i BerconDistortion.obj
 0001:00009c80       ?ClassID@ShadeContext@@UEAA?AVClass_ID@@XZ 000000018000ac80 f i BerconDistortion.obj
 0001:00009c80       ?SurfacePtScreen@ShadeContext@@UEAA?AVPoint2@@XZ 000000018000ac80 f i BerconDistortion.obj
 0001:00009c90       ?Clone@BerconDistortion@@UEAAPEAVReferenceTarget@@AEAVRemapDir@@@Z 000000018000ac90 f   BerconDistortion.obj
 0001:00009dc0       ?CreateParamDlg@BerconDistortion@@UEAAPEAVParamDlg@@PEAUHWND__@@PEAVIMtlParams@@@Z 000000018000adc0 f   BerconDistortion.obj
 0001:00009e40       ?CurTime@BerconSC@@UEAAHXZ 000000018000ae40 f i BerconDistortion.obj
 0001:00009e50       ?Curve@BerconSC@@UEAAMXZ   000000018000ae50 f i BerconDistortion.obj
 0001:00009e70       ?DP@BerconSC@@UEAA?AVPoint3@@XZ 000000018000ae70 f i BerconDistortion.obj
 0001:00009ea0       ?DP@BerconSC@@UEAAXAEAVPoint3@@0@Z 000000018000aea0 f i BerconDistortion.obj
 0001:00009ec0       ?DPObj@BerconSC@@UEAA?AVPoint3@@XZ 000000018000aec0 f i BerconDistortion.obj
 0001:00009ef0       ?DPObjRelBox@BerconSC@@UEAA?AVPoint3@@XZ 000000018000aef0 f i BerconDistortion.obj
 0001:00009f20       ?DPdUVW@BerconSC@@UEAAXQEAVPoint3@@H@Z 000000018000af20 f i BerconDistortion.obj
 0001:00009f40       ?DUVW@BerconSC@@UEAA?AVPoint3@@H@Z 000000018000af40 f i BerconDistortion.obj
 0001:00009f64       ?DebugFile@BerconSC@@WCJA@EAAPEAU_iobuf@@XZ 000000018000af64 f i BerconDistortion.obj
 0001:00009f70       ?DeleteThis@BerconTileDlgProc@@UEAAXXZ 000000018000af70 f i BerconTile.obj
 0001:00009f70       ?DeleteThis@BerconNoiseDlgProc@@UEAAXXZ 000000018000af70 f i BerconNoise.obj
 0001:00009f70       ?DeleteThis@BerconWoodDlgProc@@UEAAXXZ 000000018000af70 f i BerconWood.obj
 0001:00009f70       ?DeleteThis@BerconNoise@@UEAAXXZ 000000018000af70 f i BerconNoise.obj
 0001:00009f70       ?DeleteThis@BerconXYZDlgProc@@UEAAXXZ 000000018000af70 f i BerconDistortion.obj
 0001:00009f70       ?DeleteThis@BerconDistortion@@UEAAXXZ 000000018000af70 f i BerconDistortion.obj
 0001:00009f70       ?DeleteThis@BerconGradientDlgProc@@UEAAXXZ 000000018000af70 f i BerconGradient.obj
 0001:00009f70       ?DeleteThis@BerconWood@@UEAAXXZ 000000018000af70 f i BerconWood.obj
 0001:00009f70       ?DeleteThis@BerconGradient@@UEAAXXZ 000000018000af70 f i BerconGradient.obj
 0001:00009f70       ?DeleteThis@BerconTile@@UEAAXXZ 000000018000af70 f i BerconTile.obj
 0001:00009f90       ?DiffuseIllum@BerconSC@@UEAA?AVColor@@XZ 000000018000af90 f i BerconDistortion.obj
 0001:00009fc0       ?DlgProc@BerconXYZDlgProc@@UEAA_JHPEAVIParamMap2@@PEAUHWND__@@I_K_J@Z 000000018000afc0 f i BerconDistortion.obj
 0001:0000a4d0       ?EditTrack@Animatable@@UEAAXXZ 000000018000b4d0 f i BerconDistortion.obj
 0001:0000a500       ?EvalColor@BerconDistortion@@UEAA?AVAColor@@AEAVShadeContext@@@Z 000000018000b500 f   BerconDistortion.obj
 0001:0000a680       ?EvalEnvironMap@BerconSC@@UEAA?AVAColor@@PEAVTexmap@@VPoint3@@@Z 000000018000b680 f i BerconDistortion.obj
 0001:0000a6d0       ?EvalGlobalEnvironMap@BerconSC@@UEAA?AVAColor@@VPoint3@@@Z 000000018000b6d0 f i BerconDistortion.obj
 0001:0000a720       ?EvalGlobalEnvironMap@RenderGlobalContext@@UEAA?AVAColor@@AEAVShadeContext@@AEAVRay@@H@Z 000000018000b720 f i BerconDistortion.obj
 0001:0000a740       ?EvalGlobalEnvironMap@ShadeContext@@UEAA?AVAColor@@VPoint3@@@Z 000000018000b740 f i BerconDistortion.obj
 0001:0000a750       ?EvalMono@BerconDistortion@@UEAAMAEAVShadeContext@@@Z 000000018000b750 f   BerconDistortion.obj
 0001:0000a8d0       ?EvalNormalPerturb@BerconDistortion@@UEAA?AVPoint3@@AEAVShadeContext@@@Z 000000018000b8d0 f   BerconDistortion.obj
 0001:0000aa50       ?Execute@BerconSC@@UEAA_JH_K00@Z 000000018000ba50 f i BerconDistortion.obj
 0001:0000aa64       ?Execute@BerconSC@@WCJA@EAA_JH_K00@Z 000000018000ba64 f i BerconDistortion.obj
 0001:0000aa70       ?FaceNumber@BerconSC@@UEAAHXZ 000000018000ba70 f i BerconDistortion.obj
 0001:0000aa80       ?GNormal@BerconSC@@UEAA?AVPoint3@@XZ 000000018000ba80 f i BerconDistortion.obj
 0001:0000aab0       ?GetActiveTexHandle@BerconDistortion@@UEAA_KHAEAVTexHandleMaker@@@Z 000000018000bab0 f   BerconDistortion.obj
 0001:0000ab70       ?GetBGColor@BerconSC@@UEAAXAEAVColor@@0H@Z 000000018000bb70 f i BerconDistortion.obj
 0001:0000ab90       ?GetBerconDistortionDesc@@YAPEAVClassDesc2@@XZ 000000018000bb90 f   BerconDistortion.obj
 0001:0000aba0       ?GetCache@BerconSC@@UEAAHPEAVTexmap@@AEAM@Z 000000018000bba0 f i BerconDistortion.obj
 0001:0000abc0       ?GetCache@BerconSC@@UEAAHPEAVTexmap@@AEAVAColor@@@Z 000000018000bbc0 f i BerconDistortion.obj
 0001:0000abe0       ?GetCache@BerconSC@@UEAAHPEAVTexmap@@AEAVPoint3@@@Z 000000018000bbe0 f i BerconDistortion.obj
 0001:0000ac00       ?GetClassName@BerconDistortion@@UEAAXAEAVWStr@@@Z 000000018000bc00 f i BerconDistortion.obj
 0001:0000ac30       ?GetEvalObject@BerconSC@@UEAAPEAVObject@@XZ 000000018000bc30 f i BerconDistortion.obj
 0001:0000ac40       ?NumKeys@Animatable@@UEAAHXZ 000000018000bc40 f i BerconDistortion.obj
 0001:0000ac40       ?NodeID@ShadeContext@@UEAAHXZ 000000018000bc40 f i BerconDistortion.obj
 0001:0000ac40       ?GetFlagKeyIndex@Animatable@@UEAAHXZ 000000018000bc40 f i BerconDistortion.obj
 0001:0000ac40       ?GetKeyIndex@Animatable@@UEAAHH@Z 000000018000bc40 f i BerconDistortion.obj
 0001:0000ac50       ?GetIOR@BerconSC@@UEAAMXZ  000000018000bc50 f i BerconDistortion.obj
 0001:0000ac70       ?GetIOR@ShadeContext@@UEAAMXZ 000000018000bc70 f i BerconDistortion.obj
 0001:0000ac70       ?GetSampleSizeScale@ShadeContext@@UEAAMXZ 000000018000bc70 f i BerconDistortion.obj
 0001:0000ac80       ?GetInterface@MtlBase@@UEAAPEAVBaseInterface@@VInterface_ID@@@Z 000000018000bc80 f i BerconDistortion.obj
 0001:0000acb0       ?GetNSuperSample@BerconSC@@UEAAHXZ 000000018000bcb0 f i BerconDistortion.obj
 0001:0000acd0       ?GetParamBlock@BerconDistortion@@UEAAPEAVIParamBlock2@@H@Z 000000018000bcd0 f i BerconDistortion.obj
 0001:0000acf0       ?GetParamBlockByID@BerconDistortion@@UEAAPEAVIParamBlock2@@F@Z 000000018000bcf0 f i BerconDistortion.obj
 0001:0000ad40       ?GetParamDimension@Animatable@@UEAAPEAVParamDimension@@H@Z 000000018000bd40 f i BerconDistortion.obj
 0001:0000ad50       ?GetRefTarget@MtlBase@@UEAAPEAVReferenceTarget@@XZ 000000018000bd50 f i BerconDistortion.obj
 0001:0000ad60       ?SubAnim@BerconDistortion@@UEAAPEAVAnimatable@@H@Z 000000018000bd60 f   BerconDistortion.obj
 0001:0000ad60       ?GetReference@BerconDistortion@@UEAAPEAVReferenceTarget@@H@Z 000000018000bd60 f   BerconDistortion.obj
 0001:0000ad90       ?GetRenderElement@BerconSC@@UEAAPEAVIRenderElement@@H@Z 000000018000bd90 f i BerconDistortion.obj
 0001:0000adb0       ?GetRenderElement@ShadeContext@@UEAAPEAVIRenderElement@@H@Z 000000018000bdb0 f i BerconDistortion.obj
 0001:0000add0       ?GetSampleSizeScale@BerconSC@@UEAAMXZ 000000018000bdd0 f i BerconDistortion.obj
 0001:0000adf0       ?GetSubAnimCurveColor@Animatable@@UEAAKH@Z 000000018000bdf0 f i BerconDistortion.obj
 0001:0000ae00       ?GetSubTexmap@BerconDistortion@@UEAAPEAVTexmap@@H@Z 000000018000be00 f i BerconDistortion.obj
 0001:0000ae10       ?GetSubTexmapSlotName@BerconDistortion@@UEAA?AVWStr@@H@Z 000000018000be10 f   BerconDistortion.obj
 0001:0000aea0       ?GetTextureTiling@Texmap@@UEAAHXZ 000000018000bea0 f i BerconDistortion.obj
 0001:0000aea0       ?NumParamBlocks@BerconWood@@UEAAHXZ 000000018000bea0 f i BerconWood.obj
 0001:0000aea0       ?NumSubTexmaps@BerconDistortion@@UEAAHXZ 000000018000bea0 f i BerconDistortion.obj
 0001:0000aea0       ?NumParamBlocks@BerconTile@@UEAAHXZ 000000018000bea0 f i BerconTile.obj
 0001:0000aea0       ?NumParamBlocks@BerconNoise@@UEAAHXZ 000000018000bea0 f i BerconNoise.obj
 0001:0000aeb0       ?GetUVTransform@Texmap@@UEAAXAEAVMatrix3@@@Z 000000018000beb0 f i BerconDistortion.obj
 0001:0000aec0       ?HitTestSubFCurves@Animatable@@UEAAHHPEAVParamDimensionBase@@AEAV?$Tab@VTrackHitRecord@@@@AEAVBox2@@2MHMHK@Z 000000018000bec0 f i BerconDistortion.obj
 0001:0000aec0       ?HitTestFCurves@Animatable@@UEAAHPEAVParamDimensionBase@@AEAV?$Tab@VTrackHitRecord@@@@AEAVBox2@@2MHMHK@Z 000000018000bec0 f i BerconDistortion.obj
 0001:0000aed0       ?HitTestTrack@Animatable@@UEAAHAEAV?$Tab@VTrackHitRecord@@@@AEAVBox2@@1MHK@Z 000000018000bed0 f i BerconDistortion.obj
 0001:0000aed0       ?NumParamBlocks@BerconGradient@@UEAAHXZ 000000018000bed0 f i BerconGradient.obj
 0001:0000aed0       ?PaintSubTrack@Animatable@@UEAAHHPEAVParamDimensionBase@@PEAUHDC__@@AEAVBox2@@2MHK@Z 000000018000bed0 f i BerconDistortion.obj
 0001:0000aed0       ?PaintTrack@Animatable@@UEAAHPEAVParamDimensionBase@@PEAUHDC__@@AEAVBox2@@2MHK@Z 000000018000bed0 f i BerconDistortion.obj
 0001:0000aed0       ?NumParamBlocks@BerconDistortion@@UEAAHXZ 000000018000bed0 f i BerconDistortion.obj
 0001:0000aee0       ?InMtlEditor@BerconSC@@UEAAHXZ 000000018000bee0 f i BerconDistortion.obj
 0001:0000aef0       ?InitSlotType@Texmap@@UEAAXH@Z 000000018000bef0 f i BerconDistortion.obj
 0001:0000af00       __acrt_uninitialize        000000018000bf00 f i MSVCRT:ucrt_stubs.obj
 0001:0000af00       __scrt_stub_for_acrt_thread_attach 000000018000bf00 f i MSVCRT:ucrt_stubs.obj
 0001:0000af00       __acrt_uninitialize_critical 000000018000bf00 f i MSVCRT:ucrt_stubs.obj
 0001:0000af00       __acrt_thread_attach       000000018000bf00 f i MSVCRT:ucrt_stubs.obj
 0001:0000af00       __scrt_stub_for_acrt_uninitialize 000000018000bf00 f i MSVCRT:ucrt_stubs.obj
 0001:0000af00       __vcrt_initialize          000000018000bf00 f i MSVCRT:ucrt_stubs.obj
 0001:0000af00       __acrt_initialize          000000018000bf00 f i MSVCRT:ucrt_stubs.obj
 0001:0000af00       __vcrt_thread_attach       000000018000bf00 f i MSVCRT:ucrt_stubs.obj
 0001:0000af00       __scrt_stub_for_acrt_initialize 000000018000bf00 f i MSVCRT:ucrt_stubs.obj
 0001:0000af00       __scrt_stub_for_acrt_thread_detach 000000018000bf00 f i MSVCRT:ucrt_stubs.obj
 0001:0000af00       __vcrt_thread_detach       000000018000bf00 f i MSVCRT:ucrt_stubs.obj
 0001:0000af00       __scrt_stub_for_acrt_uninitialize_critical 000000018000bf00 f i MSVCRT:ucrt_stubs.obj
 0001:0000af00       ?IsParamBlockDesc2Used@Animatable@@UEAA_NPEAVParamBlockDesc2@@@Z 000000018000bf00 f i BerconDistortion.obj
 0001:0000af00       __acrt_thread_detach       000000018000bf00 f i MSVCRT:ucrt_stubs.obj
 0001:0000af00       __vcrt_uninitialize_critical 000000018000bf00 f i MSVCRT:ucrt_stubs.obj
 0001:0000af00       __vcrt_uninitialize        000000018000bf00 f i MSVCRT:ucrt_stubs.obj
 0001:0000af10       ?IsPhysicalSpace@BerconSC@@UEBAPEAVToneOperator@@XZ 000000018000bf10 f i BerconDistortion.obj
 0001:0000af10       ?ScaledToRGB@BerconSC@@UEBAPEAVToneOperator@@M@Z 000000018000bf10 f i BerconDistortion.obj
 0001:0000af10       ?ScaleRGB@BerconSC@@UEBAPEAVToneOperator@@M@Z 000000018000bf10 f i BerconDistortion.obj
 0001:0000af10       ?ScaledToRGB@BerconSC@@UEBAPEAVToneOperator@@XZ 000000018000bf10 f i BerconDistortion.obj
 0001:0000af40       ?IsSubClassOf@Animatable@@UEAAHVClass_ID@@@Z 000000018000bf40 f i BerconDistortion.obj
 0001:0000af80       ?IsSuperSampleOn@BerconSC@@UEAAHXZ 000000018000bf80 f i BerconDistortion.obj
 0001:0000afa0       ?IsTextureSuperSampleOn@BerconSC@@UEAAHXZ 000000018000bfa0 f i BerconDistortion.obj
 0001:0000afc0       ?Light@BerconSC@@UEAAPEAVLightDesc@@H@Z 000000018000bfc0 f i BerconDistortion.obj
 0001:0000afd0       ?LocalRequirements@BerconDistortion@@UEAAKH@Z 000000018000bfd0 f i BerconDistortion.obj
 0001:0000aff0       ?MapSlotType@Texmap@@UEAAHH@Z 000000018000bff0 f i BerconDistortion.obj
 0001:0000b000       ?MappingsRequired@BerconDistortion@@UEAAXHAEAVBitArray@@0@Z 000000018000c000 f i BerconDistortion.obj
 0001:0000b020       ?NRenderElements@BerconSC@@UEAAHXZ 000000018000c020 f i BerconDistortion.obj
 0001:0000b040       ?NRenderElements@ShadeContext@@UEAAHXZ 000000018000c040 f i BerconDistortion.obj
 0001:0000b060       ?Node@BerconSC@@UEAAPEAVINode@@XZ 000000018000c060 f i BerconDistortion.obj
 0001:0000b070       ?NodeID@BerconSC@@UEAAHXZ  000000018000c070 f i BerconDistortion.obj
 0001:0000b080       ?Normal@BerconSC@@UEAA?AVPoint3@@XZ 000000018000c080 f i BerconDistortion.obj
 0001:0000b0a0       ?NotifyDependents@ReferenceMaker@@EEAA?AW4RefResult@@AEBVInterval@@_KIKHPEAVReferenceTarget@@@Z 000000018000c0a0 f i BerconDistortion.obj
 0001:0000b0d0       ?NotifyForeground@ReferenceTarget@@UEAAXH@Z 000000018000c0d0 f i BerconDistortion.obj
 0001:0000b130       ?NotifyRefChanged@BerconDistortion@@UEAA?AW4RefResult@@AEBVInterval@@PEAVReferenceTarget@@AEA_KIH@Z 000000018000c130 f   BerconDistortion.obj
 0001:0000b1d0       ?NumSubs@BerconDistortion@@UEAAHXZ 000000018000c1d0 f i BerconDistortion.obj
 0001:0000b1d0       ?NumRefs@BerconDistortion@@UEAAHXZ 000000018000c1d0 f i BerconDistortion.obj
 0001:0000b1d0       ?LibNumberClasses@@YAHXZ   000000018000c1d0 f i DllEntry.obj
 0001:0000b1e0       ?ObjectBox@BerconSC@@UEAA?AVBox3@@XZ 000000018000c1e0 f i BerconDistortion.obj
 0001:0000b210       ?OrigNormal@BerconSC@@UEAA?AVPoint3@@XZ 000000018000c210 f i BerconDistortion.obj
 0001:0000b230       ?OrigNormal@ShadeContext@@UEAA?AVPoint3@@XZ 000000018000c230 f i BerconDistortion.obj
 0001:0000b250       ?OrigView@BerconSC@@UEAA?AVPoint3@@XZ 000000018000c250 f i BerconDistortion.obj
 0001:0000b280       ?OrigView@ShadeContext@@UEAA?AVPoint3@@XZ 000000018000c280 f i BerconDistortion.obj
 0001:0000b2a0       ?P@BerconSC@@UEAA?AVPoint3@@XZ 000000018000c2a0 f i BerconDistortion.obj
 0001:0000b310       ?PObj@BerconSC@@UEAA?AVPoint3@@XZ 000000018000c310 f i BerconDistortion.obj
 0001:0000b380       ?PObjRelBox@BerconSC@@UEAA?AVPoint3@@XZ 000000018000c380 f i BerconDistortion.obj
 0001:0000b3b0       ?PointFrom@BerconSC@@UEAA?AVPoint3@@AEBV2@W4RefFrame@@@Z 000000018000c3b0 f i BerconDistortion.obj
 0001:0000b3e0       ?PointTo@BerconSC@@UEAA?AVPoint3@@AEBV2@W4RefFrame@@@Z 000000018000c3e0 f i BerconDistortion.obj
 0001:0000b410       ?ProjType@BerconSC@@UEAAHXZ 000000018000c410 f i BerconDistortion.obj
 0001:0000b420       ?PutCache@BerconSC@@UEAAXPEAVTexmap@@AEBVAColor@@@Z 000000018000c420 f i BerconDistortion.obj
 0001:0000b440       ?PutCache@BerconSC@@UEAAXPEAVTexmap@@AEBVPoint3@@@Z 000000018000c440 f i BerconDistortion.obj
 0001:0000b460       ?PutCache@BerconSC@@UEAAXPEAVTexmap@@M@Z 000000018000c460 f i BerconDistortion.obj
 0001:0000b480       ?RayConeAngle@BerconSC@@UEAAMXZ 000000018000c480 f i BerconDistortion.obj
 0001:0000b4a0       ?RayDiam@BerconSC@@UEAAMXZ 000000018000c4a0 f i BerconDistortion.obj
 0001:0000b4c0       ?RayDiam@ShadeContext@@UEAAMXZ 000000018000c4c0 f i BerconDistortion.obj
 0001:0000b4e0       ?ReflectVector@BerconSC@@UEAA?AVPoint3@@XZ 000000018000c4e0 f i BerconDistortion.obj
 0001:0000b510       ?RefractVector@BerconSC@@UEAA?AVPoint3@@M@Z 000000018000c510 f i BerconDistortion.obj
 0001:0000b540       ?RemapRefOnLoad@ReferenceMaker@@UEAAHH@Z 000000018000c540 f i BerconDistortion.obj
 0001:0000b540       ?SubNumToRefNum@BerconNoise@@UEAAHH@Z 000000018000c540 f i BerconNoise.obj
 0001:0000b540       ?SubNumToRefNum@BerconTile@@UEAAHH@Z 000000018000c540 f i BerconTile.obj
 0001:0000b540       ?SubNumToRefNum@BerconGradient@@UEAAHH@Z 000000018000c540 f i BerconGradient.obj
 0001:0000b540       ?SubNumToRefNum@BerconWood@@UEAAHH@Z 000000018000c540 f i BerconWood.obj
 0001:0000b540       ?SubNumToRefNum@BerconDistortion@@UEAAHH@Z 000000018000c540 f i BerconDistortion.obj
 0001:0000b550       ?Reset@BerconDistortion@@UEAAXXZ 000000018000c550 f   BerconDistortion.obj
 0001:0000b5d0       ?ScreenCoord@BerconSC@@UEAA?AVIPoint2@@XZ 000000018000c5d0 f i BerconDistortion.obj
 0001:0000b600       ?ScreenUV@BerconSC@@UEAAXAEAVPoint2@@0@Z 000000018000c600 f i BerconDistortion.obj
 0001:0000b650       ?Set@BitArray@@QEAAXH@Z    000000018000c650 f i BerconDistortion.obj
 0001:0000b6f0       ?SetGBufferID@BerconSC@@UEAAXH@Z 000000018000c6f0 f i BerconDistortion.obj
 0001:0000b710       ?SetGBufferID@ShadeContext@@UEAAXH@Z 000000018000c710 f i BerconDistortion.obj
 0001:0000b720       ?SetIOR@BerconSC@@UEAAXM@Z 000000018000c720 f i BerconDistortion.obj
 0001:0000b740       ?SetNormal@BerconSC@@UEAAXVPoint3@@@Z 000000018000c740 f i BerconDistortion.obj
 0001:0000b780       ?SetReference@BerconDistortion@@EEAAXHPEAVReferenceTarget@@@Z 000000018000c780 f   BerconDistortion.obj
 0001:0000b7b0       ?SetSubTexmap@BerconDistortion@@UEAAXHPEAVTexmap@@@Z 000000018000c7b0 f   BerconDistortion.obj
 0001:0000b830       ?SetThing@BerconXYZDlgProc@@UEAAXPEAVReferenceTarget@@@Z 000000018000c830 f i BerconDistortion.obj
 0001:0000b840       ?SetView@BerconSC@@UEAAXVPoint3@@@Z 000000018000c840 f i BerconDistortion.obj
 0001:0000b880       ?SubAnimName@BerconDistortion@@UEAA?AVWStr@@H@Z 000000018000c880 f   BerconDistortion.obj
 0001:0000b900       ?SurfacePtScreen@BerconSC@@UEAA?AVPoint2@@XZ 000000018000c900 f i BerconDistortion.obj
 0001:0000b930       ?TossCache@BerconSC@@UEAAXPEAVTexmap@@@Z 000000018000c930 f i BerconDistortion.obj
 0001:0000b950       ?UVW@BerconSC@@UEAA?AVPoint3@@H@Z 000000018000c950 f i BerconDistortion.obj
 0001:0000ba30       ?UVWNormal@BerconSC@@UEAA?AVPoint3@@H@Z 000000018000ca30 f i BerconDistortion.obj
 0001:0000ba60       ?UVWNormal@ShadeContext@@UEAA?AVPoint3@@H@Z 000000018000ca60 f i BerconDistortion.obj
 0001:0000ba70       ?Update@BerconDistortion@@UEAAXHAEAVInterval@@@Z 000000018000ca70 f   BerconDistortion.obj
 0001:0000bb90       ?Update@ParamMap2UserDlgProc@@UEAAXHAEAVInterval@@PEAVIParamMap2@@@Z 000000018000cb90 f i BerconDistortion.obj
 0001:0000bba0       ?V@BerconSC@@UEAA?AVPoint3@@XZ 000000018000cba0 f i BerconDistortion.obj
 0001:0000bbd0       ?Validity@BerconDistortion@@UEAA?AVInterval@@H@Z 000000018000cbd0 f   BerconDistortion.obj
 0001:0000bc20       ?VectorFrom@BerconSC@@UEAA?AVPoint3@@AEBV2@W4RefFrame@@@Z 000000018000cc20 f i BerconDistortion.obj
 0001:0000bc50       ?VectorFromNoScale@BerconSC@@UEAA?AVPoint3@@AEBV2@W4RefFrame@@@Z 000000018000cc50 f i BerconDistortion.obj
 0001:0000bc80       ?VectorTo@BerconSC@@UEAA?AVPoint3@@AEBV2@W4RefFrame@@@Z 000000018000cc80 f i BerconDistortion.obj
 0001:0000bcb0       ?VectorToNoScale@BerconSC@@UEAA?AVPoint3@@AEBV2@W4RefFrame@@@Z 000000018000ccb0 f i BerconDistortion.obj
 0001:0000bce0       ?getDistVector@BerconDistortion@@QEAA?AVPoint3@@AEAVShadeContext@@@Z 000000018000cce0 f   BerconDistortion.obj
 0001:0000bdd0       ?Create@BerconGradientClassDesc@@UEAAPEAXH@Z 000000018000cdd0 f i BerconGradient.obj
 0001:0000be10       ?ClassName@BerconGradientClassDesc@@UEAAPEB_WXZ 000000018000ce10 f i BerconGradient.obj
 0001:0000be20       ?ClassID@BerconGradientClassDesc@@UEAA?AVClass_ID@@XZ 000000018000ce20 f i BerconGradient.obj
 0001:0000be20       ?ClassID@BerconGradient@@UEAA?AVClass_ID@@XZ 000000018000ce20 f i BerconGradient.obj
 0001:0000be40       ?InternalName@BerconGradientClassDesc@@UEAAPEB_WXZ 000000018000ce40 f i BerconGradient.obj
 0001:0000be50       ??_GBerconGradientClassDesc@@UEAAPEAXI@Z 000000018000ce50 f i BerconGradient.obj
 0001:0000be50       ??_EBerconNoiseClassDesc@@UEAAPEAXI@Z 000000018000ce50 f i BerconNoise.obj
 0001:0000be50       ??_EBerconWoodClassDesc@@UEAAPEAXI@Z 000000018000ce50 f i BerconWood.obj
 0001:0000be50       ??_GBerconWoodClassDesc@@UEAAPEAXI@Z 000000018000ce50 f i BerconWood.obj
 0001:0000be50       ??_GBerconNoiseClassDesc@@UEAAPEAXI@Z 000000018000ce50 f i BerconNoise.obj
 0001:0000be50       ??_EBerconGradientClassDesc@@UEAAPEAXI@Z 000000018000ce50 f i BerconGradient.obj
 0001:0000bec0       ??0BerconGradient@@QEAA@XZ 000000018000cec0 f   BerconGradient.obj
 0001:0000c090       ??1ICustomControl@@UEAA@XZ 000000018000d090 f i BerconGradient.obj
 0001:0000c0b0       ??_EBerconGradient@@WEI@EAAPEAXI@Z 000000018000d0b0 f i BerconGradient.obj
 0001:0000c0c0       ??_GBerconGradient@@UEAAPEAXI@Z 000000018000d0c0 f i BerconGradient.obj
 0001:0000c0c0       ??_EBerconGradient@@UEAAPEAXI@Z 000000018000d0c0 f i BerconGradient.obj
 0001:0000c1d0       ??_GBerconGradientDlgProc@@UEAAPEAXI@Z 000000018000d1d0 f i BerconGradient.obj
 0001:0000c1d0       ??_EBerconGradientDlgProc@@UEAAPEAXI@Z 000000018000d1d0 f i BerconGradient.obj
 0001:0000c220       ??_GICustomControl@@UEAAPEAXI@Z 000000018000d220 f i BerconGradient.obj
 0001:0000c220       ??_EICustomControl@@UEAAPEAXI@Z 000000018000d220 f i BerconGradient.obj
 0001:0000c290       ??_EIGradient@@UEAAPEAXI@Z 000000018000d290 f i BerconGradient.obj
 0001:0000c290       ??_GIGradient@@UEAAPEAXI@Z 000000018000d290 f i BerconGradient.obj
 0001:0000c330       ?ActivateTexDisplay@BerconGradient@@UEAAXH@Z 000000018000d330 f i BerconGradient.obj
 0001:0000c360       ?Clone@BerconGradient@@UEAAPEAVReferenceTarget@@AEAVRemapDir@@@Z 000000018000d360 f   BerconGradient.obj
 0001:0000c510       ?CreateParamDlg@BerconGradient@@UEAAPEAVParamDlg@@PEAUHWND__@@PEAVIMtlParams@@@Z 000000018000d510 f   BerconGradient.obj
 0001:0000c620       ?DiscardTexHandle@BerconGradient@@QEAAXXZ 000000018000d620 f i BerconGradient.obj
 0001:0000c650       ?DlgProc@BerconGradientDlgProc@@UEAA_JHPEAVIParamMap2@@PEAUHWND__@@I_K_J@Z 000000018000d650 f   BerconGradient.obj
 0001:0000d3c0       ?EnableStuff@BerconGradient@@QEAAXXZ 000000018000e3c0 f   BerconGradient.obj
 0001:0000d720       ?EvalColor@BerconGradient@@UEAA?AVAColor@@AEAVShadeContext@@@Z 000000018000e720 f   BerconGradient.obj
 0001:0000d8f0       ?EvalMono@BerconNoise@@UEAAMAEAVShadeContext@@@Z 000000018000e8f0 f   BerconNoise.obj
 0001:0000d8f0       ?EvalMono@BerconTile@@UEAAMAEAVShadeContext@@@Z 000000018000e8f0 f   BerconTile.obj
 0001:0000d8f0       ?EvalMono@BerconWood@@UEAAMAEAVShadeContext@@@Z 000000018000e8f0 f   BerconWood.obj
 0001:0000d8f0       ?EvalMono@BerconGradient@@UEAAMAEAVShadeContext@@@Z 000000018000e8f0 f   BerconGradient.obj
 0001:0000d920       ?EvalNormalPerturb@BerconGradient@@UEAA?AVPoint3@@AEAVShadeContext@@@Z 000000018000e920 f   BerconGradient.obj
 0001:0000ddf0       ?GetActiveTexHandle@BerconGradient@@UEAA_KHAEAVTexHandleMaker@@@Z 000000018000edf0 f   BerconGradient.obj
 0001:0000deb0       ?GetBerconGradientDesc@@YAPEAVClassDesc2@@XZ 000000018000eeb0 f   BerconGradient.obj
 0001:0000dec0       ?GetClassName@BerconGradient@@UEAAXAEAVWStr@@@Z 000000018000eec0 f i BerconGradient.obj
 0001:0000def0       ?GetHwnd@IGradient@@UEAAPEAUHWND__@@XZ 000000018000eef0 f i BerconGradient.obj
 0001:0000df00       ?GetInterface@BerconWood@@UEAAPEAXK@Z 000000018000ef00 f i BerconWood.obj
 0001:0000df00       ?GetInterface@BerconTile@@UEAAPEAXK@Z 000000018000ef00 f i BerconTile.obj
 0001:0000df00       ?GetInterface@BerconNoise@@UEAAPEAXK@Z 000000018000ef00 f i BerconNoise.obj
 0001:0000df00       ?GetInterface@BerconGradient@@UEAAPEAXK@Z 000000018000ef00 f i BerconGradient.obj
 0001:0000df08       ?GetInterface@BerconTile@@WJI@EAAPEAXK@Z 000000018000ef08 f i BerconTile.obj
 0001:0000df08       ?GetInterface@BerconGradient@@WJI@EAAPEAXK@Z 000000018000ef08 f i BerconGradient.obj
 0001:0000df08       ?GetInterface@BerconWood@@WJI@EAAPEAXK@Z 000000018000ef08 f i BerconWood.obj
 0001:0000df08       ?GetInterface@BerconNoise@@WJI@EAAPEAXK@Z 000000018000ef08 f i BerconNoise.obj
 0001:0000df20       ?GetParamBlock@BerconGradient@@UEAAPEAVIParamBlock2@@H@Z 000000018000ef20 f i BerconGradient.obj
 0001:0000df40       ?GetParamBlockByID@BerconGradient@@UEAAPEAVIParamBlock2@@F@Z 000000018000ef40 f i BerconGradient.obj
 0001:0000dfb0       ?GetReference@BerconGradient@@UEAAPEAVReferenceTarget@@H@Z 000000018000efb0 f   BerconGradient.obj
 0001:0000e040       ?GetSubTexmap@BerconGradient@@UEAAPEAVTexmap@@H@Z 000000018000f040 f   BerconGradient.obj
 0001:0000e080       ?GetSubTexmapSlotName@BerconGradient@@UEAA?AVWStr@@H@Z 000000018000f080 f   BerconGradient.obj
 0001:0000e140       ?LocalRequirements@BerconGradient@@UEAAKH@Z 000000018000f140 f i BerconGradient.obj
 0001:0000e160       ?MappingsRequired@BerconGradient@@UEAAXHAEAVBitArray@@0@Z 000000018000f160 f i BerconGradient.obj
 0001:0000e180       ?NotifyRefChanged@BerconGradient@@UEAA?AW4RefResult@@AEBVInterval@@PEAVReferenceTarget@@AEA_KIH@Z 000000018000f180 f   BerconGradient.obj
 0001:0000e280       ?NumRefs@BerconGradient@@UEAAHXZ 000000018000f280 f   BerconGradient.obj
 0001:0000e280       ?NumSubs@BerconGradient@@UEAAHXZ 000000018000f280 f   BerconGradient.obj
 0001:0000e290       ?NumSubTexmaps@BerconGradient@@UEAAHXZ 000000018000f290 f i BerconGradient.obj
 0001:0000e2a0       ?RenderBegin@BerconGradient@@UEAAHHK@Z 000000018000f2a0 f i BerconGradient.obj
 0001:0000e2c0       ?RenderEnd@BerconGradient@@UEAAHH@Z 000000018000f2c0 f i BerconGradient.obj
 0001:0000e2d0       ?Reset@BerconGradient@@UEAAXXZ 000000018000f2d0 f   BerconGradient.obj
 0001:0000e5c0       ?SetDlgThing@BerconGradient@@UEAAHPEAVParamDlg@@@Z 000000018000f5c0 f   BerconGradient.obj
 0001:0000e600       ?SetReference@BerconGradient@@EEAAXHPEAVReferenceTarget@@@Z 000000018000f600 f   BerconGradient.obj
 0001:0000e790       ?SetSubTexmap@BerconGradient@@UEAAXHPEAVTexmap@@@Z 000000018000f790 f   BerconGradient.obj
 0001:0000e820       ?SetThing@BerconGradientDlgProc@@UEAAXPEAVReferenceTarget@@@Z 000000018000f820 f i BerconGradient.obj
 0001:0000e8d0       ?SubAnim@BerconGradient@@UEAAPEAVAnimatable@@H@Z 000000018000f8d0 f   BerconGradient.obj
 0001:0000e960       ?SubAnimName@BerconGradient@@UEAA?AVWStr@@H@Z 000000018000f960 f   BerconGradient.obj
 0001:0000e9f0       ?Update@BerconGradient@@UEAAXHAEAVInterval@@@Z 000000018000f9f0 f   BerconGradient.obj
 0001:0000f110       ?Validity@BerconGradient@@UEAA?AVInterval@@H@Z 0000000180010110 f   BerconGradient.obj
 0001:0000f160       ?countKeys@BerconGradient@@QEAAHXZ 0000000180010160 f   BerconGradient.obj
 0001:0000f200       ?getGradientValue@BerconGradient@@QEAAMAEAVShadeContext@@@Z 0000000180010200 f   BerconGradient.obj
 0001:0000f660       ?getGradientValueDist@BerconGradient@@QEAAMAEAVShadeContext@@@Z 0000000180010660 f   BerconGradient.obj
 0001:0000f9f0       ?getGradientValueNormal@BerconGradient@@QEAAMAEAVShadeContext@@@Z 00000001800109f0 f   BerconGradient.obj
 0001:0000fdc0       ?getGradientValueUVW@BerconGradient@@QEAAMVPoint3@@@Z 0000000180010dc0 f   BerconGradient.obj
 0001:00010140       ?gradAddKey@BerconGradient@@UEAAXM@Z 0000000180011140 f   BerconGradient.obj
 0001:00010250       ?gradDelKey@BerconGradient@@UEAAXH@Z 0000000180011250 f   BerconGradient.obj
 0001:00010330       ?gradMoveKey@BerconGradient@@UEAAXHM@Z 0000000180011330 f   BerconGradient.obj
 0001:00010400       ?gradReset@BerconGradient@@UEAAXXZ 0000000180011400 f i BerconGradient.obj
 0001:00010410       ?gradSelKey@BerconGradient@@UEAAXXZ 0000000180011410 f   BerconGradient.obj
 0001:000104c0       ?keyNumChanged@BerconGradient@@QEAAXH@Z 00000001800114c0 f   BerconGradient.obj
 0001:00010550       ?keyPosChanged@BerconGradient@@QEAAXM@Z 0000000180011550 f   BerconGradient.obj
 0001:00010620       ?limitRange@BerconGradient@@QEAAHAEAM@Z 0000000180011620 f   BerconGradient.obj
 0001:000106f0       ?resetKeys@BerconGradient@@QEAAXXZ 00000001800116f0 f   BerconGradient.obj
 0001:000107f0       ?Create@BerconTileClassDesc@@UEAAPEAXH@Z 00000001800117f0 f i BerconTile.obj
 0001:00010830       ?ClassName@BerconTileClassDesc@@UEAAPEB_WXZ 0000000180011830 f i BerconTile.obj
 0001:00010840       ?ClassID@BerconTile@@UEAA?AVClass_ID@@XZ 0000000180011840 f i BerconTile.obj
 0001:00010840       ?ClassID@BerconTileClassDesc@@UEAA?AVClass_ID@@XZ 0000000180011840 f i BerconTile.obj
 0001:00010860       ?InternalName@BerconTileClassDesc@@UEAAPEB_WXZ 0000000180011860 f i BerconTile.obj
 0001:00010870       ??_GBerconTileClassDesc@@UEAAPEAXI@Z 0000000180011870 f i BerconTile.obj
 0001:00010870       ??_EBerconTileClassDesc@@UEAAPEAXI@Z 0000000180011870 f i BerconTile.obj
 0001:000108e0       ??0BerconTile@@QEAA@XZ     00000001800118e0 f   BerconTile.obj
 0001:00010bb0       ??1?$basic_string@_WU?$char_traits@_W@std@@V?$allocator@_W@2@@std@@QEAA@XZ 0000000180011bb0 f i BerconTile.obj
 0001:00010bd0       ??1?$vector@MV?$allocator@M@std@@@std@@QEAA@XZ 0000000180011bd0 f i BerconTile.obj
 0001:00010c40       ??1?$vector@VTileRow@@V?$allocator@VTileRow@@@std@@@std@@QEAA@XZ 0000000180011c40 f i BerconTile.obj
 0001:00010cf0       ??1TilePattern@@QEAA@XZ    0000000180011cf0 f i BerconTile.obj
 0001:00010d20       ??_EBerconTile@@WEI@EAAPEAXI@Z 0000000180011d20 f i BerconTile.obj
 0001:00010d30       ??_EBerconTile@@UEAAPEAXI@Z 0000000180011d30 f i BerconTile.obj
 0001:00010d30       ??_GBerconTile@@UEAAPEAXI@Z 0000000180011d30 f i BerconTile.obj
 0001:00010e10       ?ActivateTexDisplay@BerconTile@@UEAAXH@Z 0000000180011e10 f i BerconTile.obj
 0001:00010e40       ?Clone@BerconTile@@UEAAPEAVReferenceTarget@@AEAVRemapDir@@@Z 0000000180011e40 f   BerconTile.obj
 0001:00010fc0       ?CreateParamDlg@BerconTile@@UEAAPEAVParamDlg@@PEAUHWND__@@PEAVIMtlParams@@@Z 0000000180011fc0 f   BerconTile.obj
 0001:000110e0       ?DiscardTexHandle@BerconTile@@QEAAXXZ 00000001800120e0 f i BerconTile.obj
 0001:00011110       ?DlgProc@BerconTileDlgProc@@UEAA_JHPEAVIParamMap2@@PEAUHWND__@@I_K_J@Z 0000000180012110 f   BerconTile.obj
 0001:000116f0       ?EnableStuff@BerconTile@@QEAAXH@Z 00000001800126f0 f   BerconTile.obj
 0001:00011b60       ?EvalColor@BerconTile@@UEAA?AVAColor@@AEAVShadeContext@@@Z 0000000180012b60 f   BerconTile.obj
 0001:000120e0       ?EvalNormalPerturb@BerconTile@@UEAA?AVPoint3@@AEAVShadeContext@@@Z 00000001800130e0 f   BerconTile.obj
 0001:000129e0       ?EvalParameters@BerconTile@@QEAA?AVTileParam@@AEAVShadeContext@@@Z 00000001800139e0 f   BerconTile.obj
 0001:00012ae0       ?GetActiveTexHandle@BerconTile@@UEAA_KHAEAVTexHandleMaker@@@Z 0000000180013ae0 f   BerconTile.obj
 0001:00012ba0       ?GetBerconTileDesc@@YAPEAVClassDesc2@@XZ 0000000180013ba0 f   BerconTile.obj
 0001:00012bb0       ?GetClassName@BerconTile@@UEAAXAEAVWStr@@@Z 0000000180013bb0 f i BerconTile.obj
 0001:00012be0       ?GetParamBlock@BerconTile@@UEAAPEAVIParamBlock2@@H@Z 0000000180013be0 f i BerconTile.obj
 0001:00012c10       ?GetParamBlockByID@BerconTile@@UEAAPEAVIParamBlock2@@F@Z 0000000180013c10 f i BerconTile.obj
 0001:00012cb0       ?GetReference@BerconTile@@UEAAPEAVReferenceTarget@@H@Z 0000000180013cb0 f   BerconTile.obj
 0001:00012cb0       ?SubAnim@BerconTile@@UEAAPEAVAnimatable@@H@Z 0000000180013cb0 f   BerconTile.obj
 0001:00012d00       ?GetSubTexmap@BerconTile@@UEAAPEAVTexmap@@H@Z 0000000180013d00 f i BerconTile.obj
 0001:00012d10       ?GetSubTexmapSlotName@BerconTile@@UEAA?AVWStr@@H@Z 0000000180013d10 f   BerconTile.obj
 0001:00012e00       ?LocalRequirements@BerconTile@@UEAAKH@Z 0000000180013e00 f i BerconTile.obj
 0001:00012e20       ?MappingsRequired@BerconTile@@UEAAXHAEAVBitArray@@0@Z 0000000180013e20 f i BerconTile.obj
 0001:00012e40       ?NotifyRefChanged@BerconTile@@UEAA?AW4RefResult@@AEBVInterval@@PEAVReferenceTarget@@AEA_KIH@Z 0000000180013e40 f   BerconTile.obj
 0001:00012f30       ?NumRefs@BerconTile@@UEAAHXZ 0000000180013f30 f i BerconTile.obj
 0001:00012f40       ?NumSubTexmaps@BerconTile@@UEAAHXZ 0000000180013f40 f i BerconTile.obj
 0001:00012f50       ?Reset@BerconTile@@UEAAXXZ 0000000180013f50 f   BerconTile.obj
 0001:00013590       ?SetDlgThing@BerconTile@@UEAAHPEAVParamDlg@@@Z 0000000180014590 f   BerconTile.obj
 0001:000135d0       ?SetReference@BerconTile@@EEAAXHPEAVReferenceTarget@@@Z 00000001800145d0 f   BerconTile.obj
 0001:00013620       ?SetSubTexmap@BerconTile@@UEAAXHPEAVTexmap@@@Z 0000000180014620 f   BerconTile.obj
 0001:00013710       ?SetThing@BerconTileDlgProc@@UEAAXPEAVReferenceTarget@@@Z 0000000180014710 f i BerconTile.obj
 0001:00013740       ?SubAnimName@BerconTile@@UEAA?AVWStr@@H@Z 0000000180014740 f   BerconTile.obj
 0001:000137e0       ?Update@BerconTile@@UEAAXHAEAVInterval@@@Z 00000001800147e0 f   BerconTile.obj
 0001:00014180       ?Validity@BerconTile@@UEAA?AVInterval@@H@Z 0000000180015180 f   BerconTile.obj
 0001:000141d0       ?_Tidy_deallocate@?$basic_string@_WU?$char_traits@_W@std@@V?$allocator@_W@2@@std@@QEAAXXZ 00000001800151d0 f i BerconTile.obj
 0001:00014240       ?_Xlen@?$basic_string@_WU?$char_traits@_W@std@@V?$allocator@_W@2@@std@@SAXXZ 0000000180015240 f i BerconTile.obj
 0001:00014260       ?allocate@?$allocator@_W@std@@QEAAPEA_W_K@Z 0000000180015260 f i BerconTile.obj
 0001:000142e0       ?assign@?$basic_string@_WU?$char_traits@_W@std@@V?$allocator@_W@2@@std@@QEAAAEAV12@QEB_W_K@Z 00000001800152e0 f i BerconTile.obj
 0001:00014410       ?getColor@BerconTile@@QEAA?AVAColor@@AEAVShadeContext@@H@Z 0000000180015410 f i BerconTile.obj
 0001:000144b0       ?getDistVector@BerconTile@@QEAA?AVPoint3@@AEAVShadeContext@@@Z 00000001800154b0 f   BerconTile.obj
 0001:000145d0       ?getFloat@BerconTile@@QEAAMAEAVShadeContext@@H@Z 00000001800155d0 f i BerconTile.obj
 0001:00014620       ?getNormal@BerconTile@@QEAA?AVPoint3@@AEAVShadeContext@@H@Z 0000000180015620 f i BerconTile.obj
 0001:000147d0       ?Create@BerconWoodClassDesc@@UEAAPEAXH@Z 00000001800157d0 f i BerconWood.obj
 0001:00014810       ?ClassName@BerconWoodClassDesc@@UEAAPEB_WXZ 0000000180015810 f i BerconWood.obj
 0001:00014820       ?ClassID@BerconWoodClassDesc@@UEAA?AVClass_ID@@XZ 0000000180015820 f i BerconWood.obj
 0001:00014820       ?ClassID@BerconWood@@UEAA?AVClass_ID@@XZ 0000000180015820 f i BerconWood.obj
 0001:00014840       ?InternalName@BerconWoodClassDesc@@UEAAPEB_WXZ 0000000180015840 f i BerconWood.obj
 0001:00014850       ??0BerconWood@@QEAA@XZ     0000000180015850 f   BerconWood.obj
 0001:00014a24       ??_EBerconWood@@WEI@EAAPEAXI@Z 0000000180015a24 f i BerconWood.obj
 0001:00014a30       ??_GBerconWood@@UEAAPEAXI@Z 0000000180015a30 f i BerconWood.obj
 0001:00014a30       ??_EBerconWood@@UEAAPEAXI@Z 0000000180015a30 f i BerconWood.obj
 0001:00014ae0       ?ActivateTexDisplay@BerconWood@@UEAAXH@Z 0000000180015ae0 f i BerconWood.obj
 0001:00014b10       ?Clone@BerconWood@@UEAAPEAVReferenceTarget@@AEAVRemapDir@@@Z 0000000180015b10 f   BerconWood.obj
 0001:00014c90       ?CreateParamDlg@BerconWood@@UEAAPEAVParamDlg@@PEAUHWND__@@PEAVIMtlParams@@@Z 0000000180015c90 f   BerconWood.obj
 0001:00014d90       ?DiscardTexHandle@BerconWood@@QEAAXXZ 0000000180015d90 f i BerconWood.obj
 0001:00014dc0       ?DlgProc@BerconWoodDlgProc@@UEAA_JHPEAVIParamMap2@@PEAUHWND__@@I_K_J@Z 0000000180015dc0 f   BerconWood.obj
 0001:00014f40       ?EnableStuff@BerconWood@@QEAAXXZ 0000000180015f40 f   BerconWood.obj
 0001:000150f0       ?EvalColor@BerconWood@@UEAA?AVAColor@@AEAVShadeContext@@@Z 00000001800160f0 f   BerconWood.obj
 0001:00015740       ?EvalNormalPerturb@BerconWood@@UEAA?AVPoint3@@AEAVShadeContext@@@Z 0000000180016740 f   BerconWood.obj
 0001:000160e0       ?EvalParameters@BerconWood@@QEAA?AVWoodParam@@AEAVShadeContext@@@Z 00000001800170e0 f   BerconWood.obj
 0001:000164d0       ?GetActiveTexHandle@BerconWood@@UEAA_KHAEAVTexHandleMaker@@@Z 00000001800174d0 f   BerconWood.obj
 0001:00016590       ?GetBerconWoodDesc@@YAPEAVClassDesc2@@XZ 0000000180017590 f   BerconWood.obj
 0001:000165a0       ?GetClassName@BerconWood@@UEAAXAEAVWStr@@@Z 00000001800175a0 f i BerconWood.obj
 0001:000165d0       ?GetParamBlock@BerconWood@@UEAAPEAVIParamBlock2@@H@Z 00000001800175d0 f i BerconWood.obj
 0001:00016600       ?GetParamBlockByID@BerconWood@@UEAAPEAVIParamBlock2@@F@Z 0000000180017600 f i BerconWood.obj
 0001:000166a0       ?GetReference@BerconWood@@UEAAPEAVReferenceTarget@@H@Z 00000001800176a0 f   BerconWood.obj
 0001:000166a0       ?SubAnim@BerconWood@@UEAAPEAVAnimatable@@H@Z 00000001800176a0 f   BerconWood.obj
 0001:000166f0       ?GetSubTexmap@BerconWood@@UEAAPEAVTexmap@@H@Z 00000001800176f0 f i BerconWood.obj
 0001:00016700       ?GetSubTexmapSlotName@BerconWood@@UEAA?AVWStr@@H@Z 0000000180017700 f   BerconWood.obj
 0001:00016930       ?LocalRequirements@BerconWood@@UEAAKH@Z 0000000180017930 f i BerconWood.obj
 0001:00016950       ?MappingsRequired@BerconWood@@UEAAXHAEAVBitArray@@0@Z 0000000180017950 f i BerconWood.obj
 0001:00016970       ?NotifyRefChanged@BerconWood@@UEAA?AW4RefResult@@AEBVInterval@@PEAVReferenceTarget@@AEA_KIH@Z 0000000180017970 f   BerconWood.obj
 0001:00016a60       ?NumRefs@BerconWood@@UEAAHXZ 0000000180017a60 f i BerconWood.obj
 0001:00016a70       ?NumSubTexmaps@BerconWood@@UEAAHXZ 0000000180017a70 f i BerconWood.obj
 0001:00016a80       ?Reset@BerconWood@@UEAAXXZ 0000000180017a80 f   BerconWood.obj
 0001:00016fc0       ?SetDlgThing@BerconWood@@UEAAHPEAVParamDlg@@@Z 0000000180017fc0 f   BerconWood.obj
 0001:00017000       ?SetReference@BerconWood@@EEAAXHPEAVReferenceTarget@@@Z 0000000180018000 f   BerconWood.obj
 0001:00017050       ?SetSubTexmap@BerconWood@@UEAAXHPEAVTexmap@@@Z 0000000180018050 f   BerconWood.obj
 0001:00017140       ?SetThing@BerconWoodDlgProc@@UEAAXPEAVReferenceTarget@@@Z 0000000180018140 f i BerconWood.obj
 0001:00017150       ?SubAnimName@BerconWood@@UEAA?AVWStr@@H@Z 0000000180018150 f   BerconWood.obj
 0001:00017240       ?Update@BerconWood@@UEAAXHAEAVInterval@@@Z 0000000180018240 f   BerconWood.obj
 0001:000179b0       ?Validity@BerconWood@@UEAA?AVInterval@@H@Z 00000001800189b0 f   BerconWood.obj
 0001:00017a00       ?applyDistortion@BerconWood@@QEAAXAEAVShadeContext@@AEAVPoint3@@@Z 0000000180018a00 f   BerconWood.obj
 0001:00017b20       ?GetString@@YAPEA_WH@Z     0000000180018b20 f   DllEntry.obj
 0001:00017b70       ?LibClassDesc@@YAPEAVClassDesc@@H@Z 0000000180018b70 f   DllEntry.obj
 0001:00017be0       ?LibDescription@@YAPEB_WXZ 0000000180018be0 f   DllEntry.obj
 0001:00017c30       ?LibVersion@@YAKXZ         0000000180018c30 f   DllEntry.obj
 0001:00017c40       CommctrlIsolationAwarePrivatetRgCebPnQQeRff_pbZPgYQP_QYY 0000000180018c40 f i DllEntry.obj
 0001:00017d10       DllMain                    0000000180018d10 f   DllEntry.obj
 0001:00017d70       IsolationAwareInitCommonControls 0000000180018d70 f i DllEntry.obj
 0001:00017e60       IsolationAwarePrivatenPgViNgRzlnPgpgk 0000000180018e60 f i DllEntry.obj
 0001:00017ef0       IsolationAwarePrivatezlybNQyVOeNelJ 0000000180018ef0 f i DllEntry.obj
 0001:00017f00       WinbaseIsolationAwarePrivatetRgzlnPgpgk 0000000180018f00 f i DllEntry.obj
 0001:000180e0       ?EnableStuff@BerconXYZ@@AEAAXPEAVIParamBlock2@@H@Z 00000001800190e0 f   BerconCommon.obj
 0001:000183b0       ?get@BerconXYZ@@AEAAHAEAVShadeContext@@AEAVPoint3@@11VMatrix3@@PEAH@Z 00000001800193b0 f   BerconCommon.obj
 0001:00018840       ?get@BerconXYZ@@AEAAHAEAVShadeContext@@AEAVPoint3@@VMatrix3@@PEAH@Z 0000000180019840 f   BerconCommon.obj
 0001:00018ac0       ?get@BerconXYZ@@QEAAHAEAVShadeContext@@AEAVPoint3@@11@Z 0000000180019ac0 f   BerconCommon.obj
 0001:00018ba0       ?get@BerconXYZ@@QEAAHAEAVShadeContext@@AEAVPoint3@@11PEAV3@@Z 0000000180019ba0 f   BerconCommon.obj
 0001:00018f30       ?get@BerconXYZ@@QEAAHAEAVShadeContext@@AEAVPoint3@@@Z 0000000180019f30 f   BerconCommon.obj
 0001:00018ff0       ?get@BerconXYZ@@QEAAHAEAVShadeContext@@AEAVPoint3@@PEAV3@@Z 0000000180019ff0 f   BerconCommon.obj
 0001:00019360       ?getBasis@BerconXYZ@@AEAAXVMatrix3@@PEAVPoint3@@@Z 000000018001a360 f   BerconCommon.obj
 0001:00019500       ?random@BerconXYZ@@AEAA?AVMatrix3@@AEAVShadeContext@@PEAV2@@Z 000000018001a500 f   BerconCommon.obj
 0001:00019920       ?reset@BerconXYZ@@QEAAXPEAVIParamBlock2@@AEAVInterval@@HHHH@Z 000000018001a920 f   BerconCommon.obj
 0001:00019ec0       ?update@BerconXYZ@@QEAAXPEAVIParamBlock2@@HAEAVInterval@@@Z 000000018001aec0 f   BerconCommon.obj
 0001:0001a680       ?update@BerconXYZ@@QEAAXXZ 000000018001b680 f   BerconCommon.obj
 0001:0001a820       ?Create@BerconNoiseClassDesc@@UEAAPEAXH@Z 000000018001b820 f i BerconNoise.obj
 0001:0001a860       ?ClassName@BerconNoiseClassDesc@@UEAAPEB_WXZ 000000018001b860 f i BerconNoise.obj
 0001:0001a870       ?ClassID@BerconNoise@@UEAA?AVClass_ID@@XZ 000000018001b870 f i BerconNoise.obj
 0001:0001a870       ?ClassID@BerconNoiseClassDesc@@UEAA?AVClass_ID@@XZ 000000018001b870 f i BerconNoise.obj
 0001:0001a890       ?InternalName@BerconNoiseClassDesc@@UEAAPEB_WXZ 000000018001b890 f i BerconNoise.obj
 0001:0001a8a0       ??0BerconNoise@@QEAA@XZ    000000018001b8a0 f   BerconNoise.obj
 0001:0001ab04       ??_EBerconNoise@@WEI@EAAPEAXI@Z 000000018001bb04 f i BerconNoise.obj
 0001:0001ab10       ??_EBerconNoise@@UEAAPEAXI@Z 000000018001bb10 f i BerconNoise.obj
 0001:0001ab10       ??_GBerconNoise@@UEAAPEAXI@Z 000000018001bb10 f i BerconNoise.obj
 0001:0001abc0       ?ActivateTexDisplay@BerconNoise@@UEAAXH@Z 000000018001bbc0 f i BerconNoise.obj
 0001:0001abf0       ?Clone@BerconNoise@@UEAAPEAVReferenceTarget@@AEAVRemapDir@@@Z 000000018001bbf0 f   BerconNoise.obj
 0001:0001ad90       ?CreateParamDlg@BerconNoise@@UEAAPEAVParamDlg@@PEAUHWND__@@PEAVIMtlParams@@@Z 000000018001bd90 f   BerconNoise.obj
 0001:0001ae90       ?DiscardTexHandle@BerconNoise@@QEAAXXZ 000000018001be90 f i BerconNoise.obj
 0001:0001aec0       ?DlgProc@BerconNoiseDlgProc@@UEAA_JHPEAVIParamMap2@@PEAUHWND__@@I_K_J@Z 000000018001bec0 f   BerconNoise.obj
 0001:0001b3f0       ?EnableStuff@BerconNoise@@QEAAXXZ 000000018001c3f0 f   BerconNoise.obj
 0001:0001b710       ?EvalColor@BerconNoise@@UEAA?AVAColor@@AEAVShadeContext@@@Z 000000018001c710 f   BerconNoise.obj
 0001:0001bbc0       ?EvalNormalPerturb@BerconNoise@@UEAA?AVPoint3@@AEAVShadeContext@@@Z 000000018001cbc0 f   BerconNoise.obj
 0001:0001c130       ?EvalParameters@BerconNoise@@QEAA?AVNoiseParams@@PEAVShadeContext@@@Z 000000018001d130 f   BerconNoise.obj
 0001:0001c520       ?GetActiveTexHandle@BerconNoise@@UEAA_KHAEAVTexHandleMaker@@@Z 000000018001d520 f   BerconNoise.obj
 0001:0001c5e0       ?GetBerconNoiseDesc@@YAPEAVClassDesc2@@XZ 000000018001d5e0 f   BerconNoise.obj
 0001:0001c5f0       ?GetClassName@BerconNoise@@UEAAXAEAVWStr@@@Z 000000018001d5f0 f i BerconNoise.obj
 0001:0001c620       ?GetParamBlock@BerconNoise@@UEAAPEAVIParamBlock2@@H@Z 000000018001d620 f i BerconNoise.obj
 0001:0001c650       ?GetParamBlockByID@BerconNoise@@UEAAPEAVIParamBlock2@@F@Z 000000018001d650 f i BerconNoise.obj
 0001:0001c6f0       ?SubAnim@BerconNoise@@UEAAPEAVAnimatable@@H@Z 000000018001d6f0 f   BerconNoise.obj
 0001:0001c6f0       ?GetReference@BerconNoise@@UEAAPEAVReferenceTarget@@H@Z 000000018001d6f0 f   BerconNoise.obj
 0001:0001c740       ?GetSubTexmap@BerconNoise@@UEAAPEAVTexmap@@H@Z 000000018001d740 f i BerconNoise.obj
 0001:0001c750       ?GetSubTexmapSlotName@BerconNoise@@UEAA?AVWStr@@H@Z 000000018001d750 f   BerconNoise.obj
 0001:0001c930       ?LocalRequirements@BerconNoise@@UEAAKH@Z 000000018001d930 f i BerconNoise.obj
 0001:0001c950       ?MappingsRequired@BerconNoise@@UEAAXHAEAVBitArray@@0@Z 000000018001d950 f i BerconNoise.obj
 0001:0001c970       ?NotifyRefChanged@BerconNoise@@UEAA?AW4RefResult@@AEBVInterval@@PEAVReferenceTarget@@AEA_KIH@Z 000000018001d970 f   BerconNoise.obj
 0001:0001ca70       ?NumRefs@BerconNoise@@UEAAHXZ 000000018001da70 f i BerconNoise.obj
 0001:0001ca80       ?NumSubTexmaps@BerconNoise@@UEAAHXZ 000000018001da80 f i BerconNoise.obj
 0001:0001ca90       ?Reset@BerconNoise@@UEAAXXZ 000000018001da90 f   BerconNoise.obj
 0001:0001cf50       ?SetDlgThing@BerconNoise@@UEAAHPEAVParamDlg@@@Z 000000018001df50 f   BerconNoise.obj
 0001:0001cf90       ?SetReference@BerconNoise@@EEAAXHPEAVReferenceTarget@@@Z 000000018001df90 f   BerconNoise.obj
 0001:0001cfe0       ?SetSubTexmap@BerconNoise@@UEAAXHPEAVTexmap@@@Z 000000018001dfe0 f   BerconNoise.obj
 0001:0001d0b0       ?SetThing@BerconNoiseDlgProc@@UEAAXPEAVReferenceTarget@@@Z 000000018001e0b0 f i BerconNoise.obj
 0001:0001d0c0       ?SubAnimName@BerconNoise@@UEAA?AVWStr@@H@Z 000000018001e0c0 f   BerconNoise.obj
 0001:0001d1b0       ?Update@BerconNoise@@UEAAXHAEAVInterval@@@Z 000000018001e1b0 f   BerconNoise.obj
 0001:0001d840       ?Validity@BerconNoise@@UEAA?AVInterval@@H@Z 000000018001e840 f   BerconNoise.obj
 0001:0001d890       ?applyDistortion@BerconNoise@@QEAAXAEAVShadeContext@@AEAVPoint3@@@Z 000000018001e890 f   BerconNoise.obj
 0001:0001d9b0       ?fBm@Fractal@@SAMVPoint3@@AEAVNoiseParams@@@Z 000000018001e9b0 f   fractal.obj
 0001:0001db30       ?fBm@Fractal@@SAMVPoint3@@MAEAVNoiseParams@@@Z 000000018001eb30 f   fractal.obj
 0001:0001dcd0       ?fBmTurb@Fractal@@SAMVPoint3@@AEAVNoiseParams@@@Z 000000018001ecd0 f   fractal.obj
 0001:0001de70       ?fBmTurb@Fractal@@SAMVPoint3@@MAEAVNoiseParams@@@Z 000000018001ee70 f   fractal.obj
 0001:0001e040       ?fractal@Fractal@@SAMVPoint3@@AEAVNoiseParams@@@Z 000000018001f040 f   fractal.obj
 0001:0001e170       ?fractal@Fractal@@SAMVPoint3@@MAEAVNoiseParams@@@Z 000000018001f170 f   fractal.obj
 0001:0001e2c0       ?grain@Fractal@@SAMVPoint3@@MM@Z 000000018001f2c0 f   fractal.obj
 0001:0001e3f0       ?heteroTerrain@Fractal@@SAMVPoint3@@AEAVNoiseParams@@@Z 000000018001f3f0 f   fractal.obj
 0001:0001e5a0       ?hybridMultiFractal@Fractal@@SAMVPoint3@@AEAVNoiseParams@@@Z 000000018001f5a0 f   fractal.obj
 0001:0001e7b0       ?hybridMultiFractal@Fractal@@SAMVPoint3@@MAEAVNoiseParams@@@Z 000000018001f7b0 f   fractal.obj
 0001:0001e9f0       ?ridgedMultiFractal@Fractal@@SAMVPoint3@@AEAVNoiseParams@@@Z 000000018001f9f0 f   fractal.obj
 0001:0001eba0       ?ridgedMultiFractal@Fractal@@SAMVPoint3@@MAEAVNoiseParams@@@Z 000000018001fba0 f   fractal.obj
 0001:0001ed70       ?turbulence@Fractal@@SAMVPoint3@@AEAVNoiseParams@@@Z 000000018001fd70 f   fractal.obj
 0001:0001eed0       ?turbulence@Fractal@@SAMVPoint3@@MAEAVNoiseParams@@@Z 000000018001fed0 f   fractal.obj
 0001:0001f050       ?addKey@GradientRamp@@QEAAXHMVAColor@@PEAVTexmap@@@Z 0000000180020050 f   GradientRamp.obj
 0001:0001f280       ?dragging@GradientRamp@@QEAAXHH_N00@Z 0000000180020280 f   GradientRamp.obj
 0001:0001f2f0       ?getBump@GradientRamp@@QEAA?AVPoint3@@MV2@AEAVShadeContext@@@Z 00000001800202f0 f   GradientRamp.obj
 0001:0001f670       ?getColor@GradientRamp@@QEAA?AVAColor@@M@Z 0000000180020670 f   GradientRamp.obj
 0001:0001f870       ?getColor@GradientRamp@@QEAA?AVAColor@@MAEAVShadeContext@@@Z 0000000180020870 f   GradientRamp.obj
 0001:0001fbf0       ?getSubtex@GradientRamp@@QEAAPEAVTexmap@@H@Z 0000000180020bf0 f   GradientRamp.obj
 0001:0001fc90       ?interpolate@GradientRamp@@QEAAMMMM@Z 0000000180020c90 f   GradientRamp.obj
 0001:0001fcf0       ?invalidate@GradientRamp@@QEAAXXZ 0000000180020cf0 f   GradientRamp.obj
 0001:0001fd10       ?leftDown@GradientRamp@@QEAAXHH_N00@Z 0000000180020d10 f   GradientRamp.obj
 0001:0001fda0       ?leftUp@GradientRamp@@QEAAXHH_N00@Z 0000000180020da0 f   GradientRamp.obj
 0001:0001fed0       ?paint@GradientRamp@@QEAAXPEAUHDC__@@@Z 0000000180020ed0 f   GradientRamp.obj
 0001:00020360       ?popup@GradientRamp@@QEAAXHHH@Z 0000000180021360 f   GradientRamp.obj
 0001:000204a0       ?reset@GradientRamp@@QEAAXXZ 00000001800214a0 f   GradientRamp.obj
 0001:00020560       ?setHWND@GradientRamp@@QEAAXPEAUHWND__@@@Z 0000000180021560 f   GradientRamp.obj
 0001:000205a0       ?setSubtex@GradientRamp@@QEAAXHPEAVTexmap@@@Z 00000001800215a0 f   GradientRamp.obj
 0001:000205f0       ?setSubtex@GradientRamp@@QEAAXPEAVTexmap@@@Z 00000001800215f0 f   GradientRamp.obj
 0001:00020650       ?sort@GradientRamp@@QEAAXXZ 0000000180021650 f   GradientRamp.obj
 0001:00020760       ?GradientProc@IGradient@@SA_JPEAUHWND__@@I_K_J@Z 0000000180021760 f   IGradient.obj
 0001:000209e0       ?InitGradientControls@@YAXXZ 00000001800219e0 f   IGradient.obj
 0001:00020a60       IsolationAwareRegisterClassExW 0000000180021a60 f i IGradient.obj
 0001:00020b90       ?alterUVW@Noise@@SAXAEAVPoint3@@H@Z 0000000180021b90 f   noise.obj
 0001:00020c10       ?f@Fractal@@SAMVPoint3@@AEAVNoiseParams@@@Z 0000000180021c10 f i noise.obj
 0001:00020e40       ?f@Fractal@@SAMVPoint3@@MAEAVNoiseParams@@@Z 0000000180021e40 f i noise.obj
 0001:000210c0       ?limitedNoise@Noise@@SAMVPoint3@@00AEAVNoiseParams@@@Z 00000001800220c0 f   noise.obj
 0001:00021180       ?limitedNoise@Noise@@SAMVPoint3@@AEAVNoiseParams@@@Z 0000000180022180 f   noise.obj
 0001:00021200       ?noise@Noise@@SAMVPoint3@@AEAVNoiseParams@@@Z 0000000180022200 f   noise.obj
 0001:00021310       ?noise@Noise@@SAMVPoint3@@MAEAVNoiseParams@@@Z 0000000180022310 f   noise.obj
 0001:00021440       ?wood@Noise@@SAMVPoint3@@00AEAV2@VWoodParam@@@Z 0000000180022440 f   noise.obj
 0001:00021a30       ?wood@Noise@@SAMVPoint3@@AEAV2@AEAVWoodParam@@@Z 0000000180022a30 f   noise.obj
 0001:00021df0       ?worleyWrapper@Noise@@SAMVPoint3@@AEAVNoiseParams@@@Z 0000000180022df0 f   noise.obj
 0001:00021f90       ?fnoise2D@Perlin@@SAMMMM@Z 0000000180022f90 f   perlin.obj
 0001:00022010       ?fnoise3D@Perlin@@SAMMMMM@Z 0000000180023010 f   perlin.obj
 0001:000220b0       ?fnoise4D@Perlin@@SAMMMMMM@Z 00000001800230b0 f   perlin.obj
 0001:00022170       ?fsnoise2D@Perlin@@SAMMMM@Z 0000000180023170 f   perlin.obj
 0001:000221f0       ?fsnoise3D@Perlin@@SAMMMMM@Z 00000001800231f0 f   perlin.obj
 0001:00022290       ?fsnoise4D@Perlin@@SAMMMMMM@Z 0000000180023290 f   perlin.obj
 0001:00022350       ?grad@Perlin@@CAMHMM@Z     0000000180023350 f   perlin.obj
 0001:000223b0       ?grad@Perlin@@CAMHMMM@Z    00000001800233b0 f   perlin.obj
 0001:00022450       ?grad@Perlin@@CAMHMMMM@Z   0000000180023450 f   perlin.obj
 0001:000224f0       ?noise@Perlin@@SAMMM@Z     00000001800234f0 f   perlin.obj
 0001:000227b0       ?noise@Perlin@@SAMMMM@Z    00000001800237b0 f   perlin.obj
 0001:00022b10       ?noise@Perlin@@SAMMMMM@Z   0000000180023b10 f   perlin.obj
 0001:00023180       ?point@Perlin@@CAMMMMHHH@Z 0000000180024180 f i perlin.obj
 0001:00023220       ?point@Perlin@@CAMMMMMHHHH@Z 0000000180024220 f i perlin.obj
 0001:000232e0       ?snoise@Perlin@@SAMM@Z     00000001800242e0 f   perlin.obj
 0001:000233c0       ?snoise@Perlin@@SAMMM@Z    00000001800243c0 f   perlin.obj
 0001:00023650       ?snoise@Perlin@@SAMMMM@Z   0000000180024650 f   perlin.obj
 0001:00023930       ?snoise@Perlin@@SAMMMMM@Z  0000000180024930 f   perlin.obj
 0001:00023db0       ??$_Emplace_reallocate@AEBM@?$vector@MV?$allocator@M@std@@@std@@QEAAPEAMQEAMAEBM@Z 0000000180024db0 f i tile.obj
 0001:00023db0       ??$_Emplace_reallocate@M@?$vector@MV?$allocator@M@std@@@std@@QEAAPEAMQEAM$$QEAM@Z 0000000180024db0 f i tile.obj
 0001:00023ec0       ??$_Emplace_reallocate@AEBVTileRow@@@?$vector@VTileRow@@V?$allocator@VTileRow@@@std@@@std@@QEAAPEAVTileRow@@QEAV2@AEBV2@@Z 0000000180024ec0 f i tile.obj
 0001:000240e0       ??$_Emplace_reallocate@V?$basic_string@_WU?$char_traits@_W@std@@V?$allocator@_W@2@@std@@@?$vector@V?$basic_string@_WU?$char_traits@_W@std@@V?$allocator@_W@2@@std@@V?$allocator@V?$basic_string@_WU?$char_traits@_W@std@@V?$allocator@_W@2@@std@@@2@@std@@QEAAPEAV?$basic_string@_WU?$char_traits@_W@std@@V?$allocator@_W@2@@1@QEAV21@$$QEAV21@@Z 00000001800250e0 f i tile.obj
 0001:00024490       ??$_Uninitialized_move@PEAVTileRow@@PEAV1@V?$allocator@VTileRow@@@std@@@std@@YAPEAVTileRow@@QEAV1@0PEAV1@AEAV?$allocator@VTileRow@@@0@@Z 0000000180025490 f i tile.obj
 0001:00024530       ??0?$basic_stringbuf@_WU?$char_traits@_W@std@@V?$allocator@_W@2@@std@@QEAA@AEBV?$basic_string@_WU?$char_traits@_W@std@@V?$allocator@_W@2@@1@H@Z 0000000180025530 f i tile.obj
 0001:000246a0       ??0?$vector@MV?$allocator@M@std@@@std@@QEAA@AEBV01@@Z 00000001800256a0 f i tile.obj
 0001:00024750       ??1?$_Uninitialized_backout_al@PEAV?$basic_string@_WU?$char_traits@_W@std@@V?$allocator@_W@2@@std@@V?$allocator@V?$basic_string@_WU?$char_traits@_W@std@@V?$allocator@_W@2@@std@@@2@@std@@QEAA@XZ 0000000180025750 f i tile.obj
 0001:00024790       ??1?$_Uninitialized_backout_al@PEAVTileRow@@V?$allocator@VTileRow@@@std@@@std@@QEAA@XZ 0000000180025790 f i tile.obj
 0001:000247e0       ??1?$basic_stringbuf@_WU?$char_traits@_W@std@@V?$allocator@_W@2@@std@@UEAA@XZ 00000001800257e0 f i tile.obj
 0001:000248b0       ??1?$vector@V?$basic_string@_WU?$char_traits@_W@std@@V?$allocator@_W@2@@std@@V?$allocator@V?$basic_string@_WU?$char_traits@_W@std@@V?$allocator@_W@2@@std@@@2@@std@@QEAA@XZ 00000001800258b0 f i tile.obj
 0001:00024950       ??1TileRow@@QEAA@XZ        0000000180025950 f i tile.obj
 0001:00024970       ??_D?$basic_stringstream@_WU?$char_traits@_W@std@@V?$allocator@_W@2@@std@@QEAAXXZ 0000000180025970 f i tile.obj
 0001:000249fc       ??_E?$basic_stringstream@_WU?$char_traits@_W@std@@V?$allocator@_W@2@@std@@$4PPPPPPPM@A@EAAPEAXI@Z 00000001800259fc f i tile.obj
 0001:00024a10       ??_G?$basic_stringbuf@_WU?$char_traits@_W@std@@V?$allocator@_W@2@@std@@UEAAPEAXI@Z 0000000180025a10 f i tile.obj
 0001:00024a10       ??_E?$basic_stringbuf@_WU?$char_traits@_W@std@@V?$allocator@_W@2@@std@@UEAAPEAXI@Z 0000000180025a10 f i tile.obj
 0001:00024a50       ??_E?$basic_stringstream@_WU?$char_traits@_W@std@@V?$allocator@_W@2@@std@@UEAAPEAXI@Z 0000000180025a50 f i tile.obj
 0001:00024a50       ??_G?$basic_stringstream@_WU?$char_traits@_W@std@@V?$allocator@_W@2@@std@@UEAAPEAXI@Z 0000000180025a50 f i tile.obj
 0001:00024a90       ?_Change_array@?$vector@MV?$allocator@M@std@@@std@@AEAAXQEAM_K1@Z 0000000180025a90 f i tile.obj
 0001:00024b20       ?_Destroy@?$vector@V?$basic_string@_WU?$char_traits@_W@std@@V?$allocator@_W@2@@std@@V?$allocator@V?$basic_string@_WU?$char_traits@_W@std@@V?$allocator@_W@2@@std@@@2@@std@@AEAAXPEAV?$basic_string@_WU?$char_traits@_W@std@@V?$allocator@_W@2@@2@0@Z 0000000180025b20 f i tile.obj
 0001:00024b60       ?_Destroy@?$vector@VTileRow@@V?$allocator@VTileRow@@@std@@@std@@AEAAXPEAVTileRow@@0@Z 0000000180025b60 f i tile.obj
 0001:00024bb0       ?_Tidy@?$vector@MV?$allocator@M@std@@@std@@AEAAXXZ 0000000180025bb0 f i tile.obj
 0001:00024c10       ?_Xlength@?$vector@MV?$allocator@M@std@@@std@@CAXXZ 0000000180025c10 f i tile.obj
 0001:00024c10       ?_Xlength@?$vector@V?$basic_string@_WU?$char_traits@_W@std@@V?$allocator@_W@2@@std@@V?$allocator@V?$basic_string@_WU?$char_traits@_W@std@@V?$allocator@_W@2@@std@@@2@@std@@CAXXZ 0000000180025c10 f i tile.obj
 0001:00024c10       ?_Xlength@?$vector@VTileRow@@V?$allocator@VTileRow@@@std@@@std@@CAXXZ 0000000180025c10 f i tile.obj
 0001:00024c30       ?_Xran@?$_String_val@U?$_Simple_types@_W@std@@@std@@SAXXZ 0000000180025c30 f i tile.obj
 0001:00024c50       ?allocate@?$allocator@M@std@@QEAAPEAM_K@Z 0000000180025c50 f i tile.obj
 0001:00024cd0       ?corner@Tile@@CA?AVTilePoint@@MMMMAEAVTileParam@@@Z 0000000180025cd0 f   tile.obj
 0001:00024f90       ?deallocate@?$allocator@M@std@@QEAAXQEAM_K@Z 0000000180025f90 f i tile.obj
 0001:00024fe0       ?deallocate@?$allocator@V?$basic_string@_WU?$char_traits@_W@std@@V?$allocator@_W@2@@std@@@std@@QEAAXQEAV?$basic_string@_WU?$char_traits@_W@std@@V?$allocator@_W@2@@2@_K@Z 0000000180025fe0 f i tile.obj
 0001:00024fe0       ?deallocate@?$allocator@VTileRow@@@std@@QEAAXQEAVTileRow@@_K@Z 0000000180025fe0 f i tile.obj
 0001:00025030       ?deallocate@?$allocator@_W@std@@QEAAXQEA_W_K@Z 0000000180026030 f i tile.obj
 0001:00025070       ?draw@Tile@@SA?AVTilePoint@@VPoint3@@AEAVTileParam@@@Z 0000000180026070 f   tile.obj
 0001:00025410       ?drawTile@Tile@@CA?AVTilePoint@@VPoint3@@QEAMAEAVTileParam@@HH@Z 0000000180026410 f   tile.obj
 0001:00025a10       ?edgeBlur@Tile@@CAMMMH@Z   0000000180026a10 f   tile.obj
 0001:00025a60       ?find_first_not_of@?$basic_string@_WU?$char_traits@_W@std@@V?$allocator@_W@2@@std@@QEBA_KAEBV12@_K@Z 0000000180026a60 f i tile.obj
 0001:00025b90       ?find_first_of@?$basic_string@_WU?$char_traits@_W@std@@V?$allocator@_W@2@@std@@QEBA_KAEBV12@_K@Z 0000000180026b90 f i tile.obj
 0001:00025cd0       ?overflow@?$basic_stringbuf@_WU?$char_traits@_W@std@@V?$allocator@_W@2@@std@@MEAAGG@Z 0000000180026cd0 f i tile.obj
 0001:00026780       ?pbackfail@?$basic_stringbuf@_WU?$char_traits@_W@std@@V?$allocator@_W@2@@std@@MEAAGG@Z 0000000180027780 f i tile.obj
 0001:00026b40       ?seekoff@?$basic_stringbuf@_WU?$char_traits@_W@std@@V?$allocator@_W@2@@std@@MEAA?AV?$fpos@U_Mbstatet@@@2@_JHH@Z 0000000180027b40 f i tile.obj
 0001:00026ca0       ?seekpos@?$basic_stringbuf@_WU?$char_traits@_W@std@@V?$allocator@_W@2@@std@@MEAA?AV?$fpos@U_Mbstatet@@@2@V32@H@Z 0000000180027ca0 f i tile.obj
 0001:00026da0       ?setPattern@TilePattern@@QEAAXV?$basic_string@_WU?$char_traits@_W@std@@V?$allocator@_W@2@@std@@@Z 0000000180027da0 f   tile.obj
 0001:00026f20       ?setPreset@TilePattern@@QEAAXH@Z 0000000180027f20 f   tile.obj
 0001:00027530       ?underflow@?$basic_stringbuf@_WU?$char_traits@_W@std@@V?$allocator@_W@2@@std@@MEAAGXZ 0000000180028530 f i tile.obj
 0001:000275a0       ?uvMapping@Tile@@CAXAEAVTilePoint@@VPoint3@@QEAMAEAVTileParam@@H@Z 00000001800285a0 f   tile.obj
 0001:00027ab0       ?add@Worley@@CAXJJJQEBNHPEANH@Z 0000000180028ab0 f   worley.obj
 0001:00027ed0       ?noise@Worley@@SAXQEBNHPEANH@Z 0000000180028ed0 f   worley.obj
 0001:000286a0       ?smooth@@YAMM@Z            00000001800296a0 f   commonMath.obj
 0001:000286c0       ?smooth@@YAMMMM@Z          00000001800296c0 f   commonMath.obj
 0001:000286fd       ?GetRsrcString@ClassDesc@@UEAAPEB_W_J@Z 00000001800296fd f   core:core.dll
 0001:00028703       ?GetInterface@ClassDesc@@UEAAPEAVFPInterface@@PEB_W@Z 0000000180029703 f   core:core.dll
 0001:00028709       ?GetInterface@ClassDesc@@UEAAPEAVFPInterface@@VInterface_ID@@@Z 0000000180029709 f   core:core.dll
 0001:0002870f       ?AddInterface@ClassDesc@@UEAAXPEAVFPInterface@@@Z 000000018002970f f   core:core.dll
 0001:00028715       ?AutoDelete@ReferenceTarget@@UEAA?AW4RefResult@@XZ 0000000180029715 f   core:core.dll
 0001:0002871b       ?BaseClone@MtlBase@@UEAAXPEAVReferenceTarget@@0AEAVRemapDir@@@Z 000000018002971b f   core:core.dll
 0001:00028721       ?CreatePStamp@MtlBase@@UEAAPEAVPStamp@@HH@Z 0000000180029721 f   core:core.dll
 0001:00028727       ?DeleteAllRefsToMe@ReferenceTarget@@UEAA?AW4RefResult@@XZ 0000000180029727 f   core:core.dll
 0001:0002872d       ?DiffuseIllum@ShadeContext@@UEAA?AVColor@@XZ 000000018002972d f   core:core.dll
 0001:00028733       ?DiscardPStamp@MtlBase@@UEAAXH@Z 0000000180029733 f   core:core.dll
 0001:00028739       ?DoEnumDependentsImpl@ReferenceTarget@@MEAAHPEAVDependentEnumProc@@@Z 0000000180029739 f   core:core.dll
 0001:0002873f       ?EnumAuxFiles@MtlBase@@UEAAXAEAVAssetEnumCallback@@K@Z 000000018002973f f   core:core.dll
 0001:00028745       ?EvalEnvironMap@ShadeContext@@UEAA?AVAColor@@PEAVTexmap@@VPoint3@@@Z 0000000180029745 f   core:core.dll
 0001:0002874b       ?GetFullName@MtlBase@@UEAA?AVWStr@@XZ 000000018002974b f   core:core.dll
 0001:00028751       ?GetInterface@MtlBase@@UEAAPEAXK@Z 0000000180029751 f   core:core.dll
 0001:00028757       ?GetPStamp@MtlBase@@UEAAPEAVPStamp@@H@Z 0000000180029757 f   core:core.dll
 0001:0002875d       ?GetProperty@MtlBase@@UEAAPEAXK@Z 000000018002975d f   core:core.dll
 0001:00028763       ?GetTimeRange@Animatable@@UEAA?AVInterval@@K@Z 0000000180029763 f   core:core.dll
 0001:00028769       ?GetVPDisplayDIB@Texmap@@UEAAPEAUtagBITMAPINFO@@HAEAVTexHandleMaker@@AEAVInterval@@HHH@Z 0000000180029769 f   core:core.dll
 0001:0002876f       ?IsAnimated@Animatable@@UEAAHXZ 000000018002976f f   core:core.dll
 0001:00028775       ?IsOutputMeaningful@Texmap@@UEAA_NAEAVShadeContext@@@Z 0000000180029775 f   core:core.dll
 0001:0002877b       ?Load@MtlBase@@UEAA?AW4IOResult@@PEAVILoad@@@Z 000000018002977b f   core:core.dll
 0001:00028781       ?MapKeys@Animatable@@UEAAXPEAVTimeMap@@K@Z 0000000180029781 f   core:core.dll
 0001:00028787       ?MouseCycleCompleted@Animatable@@UEAAXH@Z 0000000180029787 f   core:core.dll
 0001:0002878d       ?MouseCycleStarted@Animatable@@UEAAXH@Z 000000018002978d f   core:core.dll
 0001:00028793       ?NodeName@Animatable@@UEAA?AVWStr@@XZ 0000000180029793 f   core:core.dll
 0001:00028799       ?NotifyDependents@ReferenceTarget@@UEAA?AW4RefResult@@AEBVInterval@@_KIKHPEAV1@W4NotifyDependentsOption@@@Z 0000000180029799 f   core:core.dll
 0001:0002879f       ?RefAdded@Texmap@@UEAAXPEAVReferenceMaker@@@Z 000000018002979f f   core:core.dll
 0001:000287a5       ?ReleaseInterface@Animatable@@UEAAXKPEAX@Z 00000001800297a5 f   core:core.dll
 0001:000287ab       ?RenderBitmap@Texmap@@UEAAXHPEAVBitmap@@MH@Z 00000001800297ab f   core:core.dll
 0001:000287b1       ?Requirements@MtlBase@@UEAAKH@Z 00000001800297b1 f   core:core.dll
 0001:000287b7       ?RescaleWorldUnits@ReferenceMaker@@UEAAXM@Z 00000001800297b7 f   core:core.dll
 0001:000287bd       ?Save@MtlBase@@UEAA?AW4IOResult@@PEAVISave@@@Z 00000001800297bd f   core:core.dll
 0001:000287c3       ?SaveEnum@ReferenceMaker@@UEAAXAEAVSaveEnumProc@@H@Z 00000001800297c3 f   core:core.dll
 0001:000287c9       ?SetProperty@MtlBase@@UEAAHKPEAX@Z 00000001800297c9 f   core:core.dll
 0001:000287cf       ?SpecifySaveReferences@ReferenceMaker@@UEAA_NAEAVReferenceSaveManager@@@Z 00000001800297cf f   core:core.dll
 0001:000287d5       ?SubAnimCommitSetKeyBuffer@Animatable@@UEAAXHH@Z 00000001800297d5 f   core:core.dll
 0001:000287db       ?SubAnimRevertSetKeyBuffer@Animatable@@UEAAXH@Z 00000001800297db f   core:core.dll
 0001:000287e1       ?SubAnimSetKeyBufferPresent@Animatable@@UEAAHH@Z 00000001800297e1 f   core:core.dll
 0001:000287e7       ?SvCanConcludeLink@Animatable@@UEAA_NPEAVIGraphObjectManager@@PEAVIGraphNode@@1@Z 00000001800297e7 f   core:core.dll
 0001:000287ed       ?SvCanDetach@Animatable@@UEAA_NPEAVIGraphObjectManager@@PEAVIGraphNode@@@Z 00000001800297ed f   core:core.dll
 0001:000287f3       ?SvCanDetachRel@Animatable@@UEAA_NPEAVIGraphObjectManager@@PEAVIGraphNode@@H1@Z 00000001800297f3 f   core:core.dll
 0001:000287f9       ?SvCanInitiateLink@Animatable@@UEAA_NPEAVIGraphObjectManager@@PEAVIGraphNode@@@Z 00000001800297f9 f   core:core.dll
 0001:000287ff       ?SvCanRemoveThis@Animatable@@UEAA_NPEAVIGraphObjectManager@@PEAVIGraphNode@@@Z 00000001800297ff f   core:core.dll
 0001:00028805       ?SvCanSelect@MtlBase@@UEAA_NPEAVIGraphObjectManager@@PEAVIGraphNode@@@Z 0000000180029805 f   core:core.dll
 0001:0002880b       ?SvCanSetName@MtlBase@@UEAA_NPEAVIGraphObjectManager@@PEAVIGraphNode@@@Z 000000018002980b f   core:core.dll
 0001:00028811       ?SvDetach@Animatable@@UEAA_NPEAVIGraphObjectManager@@PEAVIGraphNode@@@Z 0000000180029811 f   core:core.dll
 0001:00028817       ?SvDetachRel@Animatable@@UEAA_NPEAVIGraphObjectManager@@PEAVIGraphNode@@H1@Z 0000000180029817 f   core:core.dll
 0001:0002881d       ?SvEditProperties@Animatable@@UEAA_NPEAVIGraphObjectManager@@PEAVIGraphNode@@@Z 000000018002981d f   core:core.dll
 0001:00028823       ?SvGetMultiSelectCallback@MtlBase@@UEAAPEAVMultiSelectCallback@@PEAVIGraphObjectManager@@PEAVIGraphNode@@@Z 0000000180029823 f   core:core.dll
 0001:00028829       ?SvGetName@MtlBase@@UEAA?AVWStr@@PEAVIGraphObjectManager@@PEAVIGraphNode@@_N@Z 0000000180029829 f   core:core.dll
 0001:0002882f       ?SvGetRefTip@Animatable@@UEAA?AVWStr@@PEAVIGraphObjectManager@@PEAVIGraphNode@@1@Z 000000018002982f f   core:core.dll
 0001:00028835       ?SvGetRelTip@Animatable@@UEAA?AVWStr@@PEAVIGraphObjectManager@@PEAVIGraphNode@@H1@Z 0000000180029835 f   core:core.dll
 0001:0002883b       ?SvGetSwatchColor@Animatable@@UEAAKPEAVIGraphObjectManager@@PEAVIGraphNode@@@Z 000000018002983b f   core:core.dll
 0001:00028841       ?SvGetTip@Animatable@@UEAA?AVWStr@@PEAVIGraphObjectManager@@PEAVIGraphNode@@@Z 0000000180029841 f   core:core.dll
 0001:00028847       ?SvHandleDoubleClick@MtlBase@@UEAA_NPEAVIGraphObjectManager@@PEAVIGraphNode@@@Z 0000000180029847 f   core:core.dll
 0001:0002884d       ?SvHandleRelDoubleClick@Animatable@@UEAA_NPEAVIGraphObjectManager@@PEAVIGraphNode@@H1@Z 000000018002984d f   core:core.dll
 0001:00028853       ?SvHighlightColor@MtlBase@@UEAAKPEAVIGraphObjectManager@@PEAVIGraphNode@@@Z 0000000180029853 f   core:core.dll
 0001:00028859       ?SvIsHighlighted@Animatable@@UEAA_NPEAVIGraphObjectManager@@PEAVIGraphNode@@@Z 0000000180029859 f   core:core.dll
 0001:0002885f       ?SvIsInactive@Animatable@@UEAA_NPEAVIGraphObjectManager@@PEAVIGraphNode@@@Z 000000018002985f f   core:core.dll
 0001:00028865       ?SvIsSelected@MtlBase@@UEAA_NPEAVIGraphObjectManager@@PEAVIGraphNode@@@Z 0000000180029865 f   core:core.dll
 0001:0002886b       ?SvLinkChild@Animatable@@UEAA_NPEAVIGraphObjectManager@@PEAVIGraphNode@@1@Z 000000018002986b f   core:core.dll
 0001:00028871       ?SvRemoveThis@Animatable@@UEAA_NPEAVIGraphObjectManager@@PEAVIGraphNode@@@Z 0000000180029871 f   core:core.dll
 0001:00028877       ?SvSetName@MtlBase@@UEAA_NPEAVIGraphObjectManager@@PEAVIGraphNode@@AEBVWStr@@@Z 0000000180029877 f   core:core.dll
 0001:0002887d       ?SvTraverseAnimGraph@Texmap@@UEAA?AVSvGraphNodeReference@@PEAVIGraphObjectManager@@PEAVAnimatable@@HK@Z 000000018002987d f   core:core.dll
 0001:00028883       ?VectorFromNoScale@ShadeContext@@UEAA?AVPoint3@@AEBV2@W4RefFrame@@@Z 0000000180029883 f   core:core.dll
 0001:00028889       ?VectorToNoScale@ShadeContext@@UEAA?AVPoint3@@AEBV2@W4RefFrame@@@Z 0000000180029889 f   core:core.dll
 0001:0002888f       ??0OutOfRangeException@Util@MaxSDK@@QEAA@AEBV012@@Z 000000018002988f f   maxutil:maxutil.dll
 0001:00028895       ??0Exception@Util@MaxSDK@@QEAA@AEBV012@@Z 0000000180029895 f   maxutil:maxutil.dll
 0001:0002889b       ?GetInterface@BaseInterfaceServer@@UEAAPEAVBaseInterface@@VInterface_ID@@@Z 000000018002989b f   maxutil:maxutil.dll
 0001:000288a1       ?NumInterfaces@BaseInterfaceServer@@UEBAHXZ 00000001800298a1 f   maxutil:maxutil.dll
 0001:000288a7       ?GetInterfaceAt@BaseInterfaceServer@@UEBAPEAVBaseInterface@@H@Z 00000001800298a7 f   maxutil:maxutil.dll
 0001:000288ad       ?GetInterface@InterfaceServer@@UEAAPEAVBaseInterface@@VInterface_ID@@@Z 00000001800298ad f   maxutil:maxutil.dll
 0001:000288b3       ?NumParamBlockDescs@ClassDesc2@@UEAAHXZ 00000001800298b3 f   Paramblk2:ParamBlk2.dll
 0001:000288b9       ?GetParamBlockDesc@ClassDesc2@@UEAAPEAVParamBlockDesc2@@H@Z 00000001800298b9 f   Paramblk2:ParamBlk2.dll
 0001:000288bf       ?NumParamMaps@ClassDesc2@@UEAAHXZ 00000001800298bf f   Paramblk2:ParamBlk2.dll
 0001:000288c5       ?GetParamMap@ClassDesc2@@UEAAPEAVIParamMap2@@H@Z 00000001800298c5 f   Paramblk2:ParamBlk2.dll
 0001:000288cb       ?ResetClassParams@ClassDesc2@@UEAAXH@Z 00000001800298cb f   Paramblk2:ParamBlk2.dll
 0001:000288d1       ?GetParamBlockDescByID@ClassDesc2@@UEAAPEAVParamBlockDesc2@@F@Z 00000001800298d1 f   Paramblk2:ParamBlk2.dll
 0001:000288d7       ?AddParamBlockDesc@ClassDesc2@@UEAAXPEAVParamBlockDesc2@@@Z 00000001800298d7 f   Paramblk2:ParamBlk2.dll
 0001:000288dd       ?BeginEditParams@ClassDesc2@@UEAAXPEAVIObjParam@@PEAVReferenceMaker@@KPEAVAnimatable@@@Z 00000001800298dd f   Paramblk2:ParamBlk2.dll
 0001:000288e3       ?EndEditParams@ClassDesc2@@UEAAXPEAVIObjParam@@PEAVReferenceMaker@@KPEAVAnimatable@@@Z 00000001800298e3 f   Paramblk2:ParamBlk2.dll
 0001:000288e9       ?InvalidateUI@ClassDesc2@@UEAAXPEAVParamBlockDesc2@@@Z 00000001800298e9 f   Paramblk2:ParamBlk2.dll
 0001:000288ef       ?MakeAutoParamBlocks@ClassDesc2@@UEAAXPEAVReferenceMaker@@@Z 00000001800298ef f   Paramblk2:ParamBlk2.dll
 0001:000288f5       ?_Xlength_error@std@@YAXPEBD@Z 00000001800298f5 f   msvcprt:MSVCP140.dll
 0001:000288fb       ?_Xbad_alloc@std@@YAXXZ    00000001800298fb f   msvcprt:MSVCP140.dll
 0001:00028901       ?_Xout_of_range@std@@YAXPEBD@Z 0000000180029901 f   msvcprt:MSVCP140.dll
 0001:00028907       ?_Lock@?$basic_streambuf@_WU?$char_traits@_W@std@@@std@@UEAAXXZ 0000000180029907 f   msvcprt:MSVCP140.dll
 0001:0002890d       ?_Unlock@?$basic_streambuf@_WU?$char_traits@_W@std@@@std@@UEAAXXZ 000000018002990d f   msvcprt:MSVCP140.dll
 0001:00028913       ?imbue@?$basic_streambuf@_WU?$char_traits@_W@std@@@std@@MEAAXAEBVlocale@2@@Z 0000000180029913 f   msvcprt:MSVCP140.dll
 0001:00028919       ?setbuf@?$basic_streambuf@_WU?$char_traits@_W@std@@@std@@MEAAPEAV12@PEA_W_J@Z 0000000180029919 f   msvcprt:MSVCP140.dll
 0001:0002891f       ?showmanyc@?$basic_streambuf@_WU?$char_traits@_W@std@@@std@@MEAA_JXZ 000000018002991f f   msvcprt:MSVCP140.dll
 0001:00028925       ?sync@?$basic_streambuf@_WU?$char_traits@_W@std@@@std@@MEAAHXZ 0000000180029925 f   msvcprt:MSVCP140.dll
 0001:0002892b       ?uflow@?$basic_streambuf@_WU?$char_traits@_W@std@@@std@@MEAAGXZ 000000018002992b f   msvcprt:MSVCP140.dll
 0001:00028931       ?xsgetn@?$basic_streambuf@_WU?$char_traits@_W@std@@@std@@MEAA_JPEA_W_J@Z 0000000180029931 f   msvcprt:MSVCP140.dll
 0001:00028937       ?xsputn@?$basic_streambuf@_WU?$char_traits@_W@std@@@std@@MEAA_JPEB_W_J@Z 0000000180029937 f   msvcprt:MSVCP140.dll
 0001:00028940       ??_Gtype_info@@UEAAPEAXI@Z 0000000180029940 f i MSVCRT:std_type_info_static.obj
 0001:00028940       ??_Etype_info@@UEAAPEAXI@Z 0000000180029940 f i MSVCRT:std_type_info_static.obj
 0001:0002896c       __scrt_acquire_startup_lock 000000018002996c f   MSVCRT:utility.obj
 0001:000289a8       __scrt_dllmain_after_initialize_c 00000001800299a8 f   MSVCRT:utility.obj
 0001:000289dc       __scrt_dllmain_before_initialize_c 00000001800299dc f   MSVCRT:utility.obj
 0001:000289f4       __scrt_dllmain_crt_thread_attach 00000001800299f4 f   MSVCRT:utility.obj
 0001:00028a1c       __scrt_dllmain_crt_thread_detach 0000000180029a1c f   MSVCRT:utility.obj
 0001:00028a34       __scrt_dllmain_exception_filter 0000000180029a34 f   MSVCRT:utility.obj
 0001:00028a94       __scrt_dllmain_uninitialize_c 0000000180029a94 f   MSVCRT:utility.obj
 0001:00028ac4       __scrt_dllmain_uninitialize_critical 0000000180029ac4 f   MSVCRT:utility.obj
 0001:00028ad8       __scrt_initialize_crt      0000000180029ad8 f   MSVCRT:utility.obj
 0001:00028b24       __scrt_initialize_onexit_tables 0000000180029b24 f   MSVCRT:utility.obj
 0001:00028bfc       __scrt_is_nonwritable_in_current_image 0000000180029bfc f   MSVCRT:utility.obj
 0001:00028c98       __scrt_release_startup_lock 0000000180029c98 f   MSVCRT:utility.obj
 0001:00028cbc       __scrt_uninitialize_crt    0000000180029cbc f   MSVCRT:utility.obj
 0001:00028ce8       _onexit                    0000000180029ce8 f   MSVCRT:utility.obj
 0001:00028d38       atexit                     0000000180029d38 f   MSVCRT:utility.obj
 0001:00028d50       ??2@YAPEAX_K@Z             0000000180029d50 f   MSVCRT:new_scalar.obj
 0001:00028d8c       ??3@YAXPEAX_K@Z            0000000180029d8c f   MSVCRT:delete_scalar_size.obj
 0001:00028d8c       ??_V@YAXPEAX@Z             0000000180029d8c f   MSVCRT:delete_array.obj
 0001:00028db0       _alloca_probe              0000000180029db0 f   MSVCRT:chkstk.obj
 0001:00028db0       __chkstk                   0000000180029db0 f   MSVCRT:chkstk.obj
 0001:00028e04       ??_U@YAPEAX_K@Z            0000000180029e04 f   MSVCRT:new_array.obj
 0001:0002913c       _DllMainCRTStartup         000000018002a13c f   MSVCRT:dll_dllmain.obj
 0001:0002917c       __isa_available_init       000000018002a17c f   MSVCRT:cpu_disp.obj
 0001:00029338       __scrt_is_ucrt_dll_in_use  000000018002a338 f   MSVCRT:ucrt_detection.obj
 0001:00029344       __crt_debugger_hook        000000018002a344 f   MSVCRT:utility_desktop.obj
 0001:0002934c       __scrt_fastfail            000000018002a34c f   MSVCRT:utility_desktop.obj
 0001:00029498       ??0bad_alloc@std@@QEAA@AEBV01@@Z 000000018002a498 f i MSVCRT:throw_bad_alloc.obj
 0001:000294d8       ??0bad_alloc@std@@QEAA@XZ  000000018002a4d8 f i MSVCRT:throw_bad_alloc.obj
 0001:000294f8       ??0bad_array_new_length@std@@QEAA@AEBV01@@Z 000000018002a4f8 f i MSVCRT:throw_bad_alloc.obj
 0001:00029538       ??0bad_array_new_length@std@@QEAA@XZ 000000018002a538 f i MSVCRT:throw_bad_alloc.obj
 0001:00029558       ??0exception@std@@QEAA@AEBV01@@Z 000000018002a558 f i MSVCRT:throw_bad_alloc.obj
 0001:00029590       ??1bad_array_new_length@std@@UEAA@XZ 000000018002a590 f i MSVCRT:throw_bad_alloc.obj
 0001:00029590       ??1bad_alloc@std@@UEAA@XZ  000000018002a590 f i MSVCRT:throw_bad_alloc.obj
 0001:000295a4       ??_Gexception@std@@UEAAPEAXI@Z 000000018002a5a4 f i MSVCRT:throw_bad_alloc.obj
 0001:000295a4       ??_Ebad_array_new_length@std@@UEAAPEAXI@Z 000000018002a5a4 f i MSVCRT:throw_bad_alloc.obj
 0001:000295a4       ??_Gbad_alloc@std@@UEAAPEAXI@Z 000000018002a5a4 f i MSVCRT:throw_bad_alloc.obj
 0001:000295a4       ??_Gbad_array_new_length@std@@UEAAPEAXI@Z 000000018002a5a4 f i MSVCRT:throw_bad_alloc.obj
 0001:000295a4       ??_Eexception@std@@UEAAPEAXI@Z 000000018002a5a4 f i MSVCRT:throw_bad_alloc.obj
 0001:000295a4       ??_Ebad_alloc@std@@UEAAPEAXI@Z 000000018002a5a4 f i MSVCRT:throw_bad_alloc.obj
 0001:000295e8       ?__scrt_throw_std_bad_alloc@@YAXXZ 000000018002a5e8 f   MSVCRT:throw_bad_alloc.obj
 0001:00029608       ?__scrt_throw_std_bad_array_new_length@@YAXXZ 000000018002a608 f   MSVCRT:throw_bad_alloc.obj
 0001:00029628       ?what@exception@std@@UEBAPEBDXZ 000000018002a628 f i MSVCRT:throw_bad_alloc.obj
 0001:0002963c       ??3@YAXPEAX@Z              000000018002a63c f   MSVCRT:delete_scalar.obj
 0001:00029644       __security_init_cookie     000000018002a644 f   MSVCRT:gs_support.obj
 0001:000296f0       ?__scrt_initialize_type_info@@YAXXZ 000000018002a6f0 f   MSVCRT:tncleanup.obj
 0001:00029700       ?__scrt_uninitialize_type_info@@YAXXZ 000000018002a700 f   MSVCRT:tncleanup.obj
 0001:0002970c       __local_stdio_printf_options 000000018002a70c f i MSVCRT:default_local_stdio_options.obj
 0001:00029714       __local_stdio_scanf_options 000000018002a714 f i MSVCRT:default_local_stdio_options.obj
 0001:0002971c       __scrt_initialize_default_local_stdio_options 000000018002a71c f   MSVCRT:default_local_stdio_options.obj
 0001:00029738       __scrt_get_dyn_tls_init_callback 000000018002a738 f   MSVCRT:dyn_tls_init.obj
 0001:00029740       _RTC_Initialize            000000018002a740 f   MSVCRT:initsect.obj
 0001:0002977c       _RTC_Terminate             000000018002a77c f   MSVCRT:initsect.obj
 0001:000297c0       _purecall                  000000018002a7c0 f   vcruntime:VCRUNTIME140.dll
 0001:000297c6       _CxxThrowException         000000018002a7c6 f   vcruntime:VCRUNTIME140.dll
 0001:000297cc       __CxxFrameHandler3         000000018002a7cc f   vcruntime:VCRUNTIME140.dll
 0001:000297d2       memcpy                     000000018002a7d2 f   vcruntime:VCRUNTIME140.dll
 0001:000297d8       memmove                    000000018002a7d8 f   vcruntime:VCRUNTIME140.dll
 0001:000297de       __C_specific_handler       000000018002a7de f   vcruntime:VCRUNTIME140.dll
 0001:000297e4       memset                     000000018002a7e4 f   vcruntime:VCRUNTIME140.dll
 0001:000297ea       __std_exception_copy       000000018002a7ea f   vcruntime:VCRUNTIME140.dll
 0001:000297f0       __std_exception_destroy    000000018002a7f0 f   vcruntime:VCRUNTIME140.dll
 0001:000297f6       __std_type_info_destroy_list 000000018002a7f6 f   vcruntime:VCRUNTIME140.dll
 0001:000297fc       acosf                      000000018002a7fc f   ucrt:api-ms-win-crt-math-l1-1-0.dll
 0001:00029802       sqrtf                      000000018002a802 f   ucrt:api-ms-win-crt-math-l1-1-0.dll
 0001:00029808       powf                       000000018002a808 f   ucrt:api-ms-win-crt-math-l1-1-0.dll
 0001:0002980e       cosf                       000000018002a80e f   ucrt:api-ms-win-crt-math-l1-1-0.dll
 0001:00029814       sinf                       000000018002a814 f   ucrt:api-ms-win-crt-math-l1-1-0.dll
 0001:0002981a       fmodf                      000000018002a81a f   ucrt:api-ms-win-crt-math-l1-1-0.dll
 0001:00029820       sqrt                       000000018002a820 f   ucrt:api-ms-win-crt-math-l1-1-0.dll
 0001:00029826       _seh_filter_dll            000000018002a826 f   ucrt:api-ms-win-crt-runtime-l1-1-0.dll
 0001:0002982c       _configure_narrow_argv     000000018002a82c f   ucrt:api-ms-win-crt-runtime-l1-1-0.dll
 0001:00029832       _initialize_narrow_environment 000000018002a832 f   ucrt:api-ms-win-crt-runtime-l1-1-0.dll
 0001:00029838       _initialize_onexit_table   000000018002a838 f   ucrt:api-ms-win-crt-runtime-l1-1-0.dll
 0001:0002983e       _register_onexit_function  000000018002a83e f   ucrt:api-ms-win-crt-runtime-l1-1-0.dll
 0001:00029844       _execute_onexit_table      000000018002a844 f   ucrt:api-ms-win-crt-runtime-l1-1-0.dll
 0001:0002984a       _crt_atexit                000000018002a84a f   ucrt:api-ms-win-crt-runtime-l1-1-0.dll
 0001:00029850       _cexit                     000000018002a850 f   ucrt:api-ms-win-crt-runtime-l1-1-0.dll
 0001:00029856       _callnewh                  000000018002a856 f   ucrt:api-ms-win-crt-heap-l1-1-0.dll
 0001:0002985c       malloc                     000000018002a85c f   ucrt:api-ms-win-crt-heap-l1-1-0.dll
 0001:00029862       _initterm                  000000018002a862 f   ucrt:api-ms-win-crt-runtime-l1-1-0.dll
 0001:00029868       _initterm_e                000000018002a868 f   ucrt:api-ms-win-crt-runtime-l1-1-0.dll
 0001:0002986e       free                       000000018002a86e f   ucrt:api-ms-win-crt-heap-l1-1-0.dll
 0001:00029874       IsProcessorFeaturePresent  000000018002a874 f   kernel32:KERNEL32.dll
 0001:00029890       _guard_dispatch_icall_nop  000000018002a890 f   MSVCRT:guard_dispatch.obj
 0002:00000000       __imp_SelectObject         000000018002c000     gdi32:GDI32.dll
 0002:00000008       __imp_GetStockObject       000000018002c008     gdi32:GDI32.dll
 0002:00000010       __imp_SetPixel             000000018002c010     gdi32:GDI32.dll
 0002:00000018       __imp_DeleteObject         000000018002c018     gdi32:GDI32.dll
 0002:00000020       __imp_DeleteDC             000000018002c020     gdi32:GDI32.dll
 0002:00000028       __imp_CreateSolidBrush     000000018002c028     gdi32:GDI32.dll
 0002:00000030       __imp_CreateCompatibleDC   000000018002c030     gdi32:GDI32.dll
 0002:00000038       __imp_CreateCompatibleBitmap 000000018002c038     gdi32:GDI32.dll
 0002:00000040       __imp_BitBlt               000000018002c040     gdi32:GDI32.dll
 0002:00000048       \177GDI32_NULL_THUNK_DATA  000000018002c048     gdi32:GDI32.dll
 0002:00000050       __imp_IsDebuggerPresent    000000018002c050     kernel32:KERNEL32.dll
 0002:00000058       __imp_RtlVirtualUnwind     000000018002c058     kernel32:KERNEL32.dll
 0002:00000060       __imp_RtlLookupFunctionEntry 000000018002c060     kernel32:KERNEL32.dll
 0002:00000068       __imp_RtlCaptureContext    000000018002c068     kernel32:KERNEL32.dll
 0002:00000070       __imp_OutputDebugStringA   000000018002c070     kernel32:KERNEL32.dll
 0002:00000078       __imp_GetLastError         000000018002c078     kernel32:KERNEL32.dll
 0002:00000080       __imp_SetLastError         000000018002c080     kernel32:KERNEL32.dll
 0002:00000088       __imp_DisableThreadLibraryCalls 000000018002c088     kernel32:KERNEL32.dll
 0002:00000090       __imp_GetModuleFileNameW   000000018002c090     kernel32:KERNEL32.dll
 0002:00000098       __imp_UnhandledExceptionFilter 000000018002c098     kernel32:KERNEL32.dll
 0002:000000a0       __imp_GetProcAddress       000000018002c0a0     kernel32:KERNEL32.dll
 0002:000000a8       __imp_LoadLibraryW         000000018002c0a8     kernel32:KERNEL32.dll
 0002:000000b0       __imp_CreateActCtxW        000000018002c0b0     kernel32:KERNEL32.dll
 0002:000000b8       __imp_ActivateActCtx       000000018002c0b8     kernel32:KERNEL32.dll
 0002:000000c0       __imp_DeactivateActCtx     000000018002c0c0     kernel32:KERNEL32.dll
 0002:000000c8       __imp_FindActCtxSectionStringW 000000018002c0c8     kernel32:KERNEL32.dll
 0002:000000d0       __imp_QueryActCtxW         000000018002c0d0     kernel32:KERNEL32.dll
 0002:000000d8       __imp_TlsGetValue          000000018002c0d8     kernel32:KERNEL32.dll
 0002:000000e0       __imp_SetUnhandledExceptionFilter 000000018002c0e0     kernel32:KERNEL32.dll
 0002:000000e8       __imp_IsProcessorFeaturePresent 000000018002c0e8     kernel32:KERNEL32.dll
 0002:000000f0       __imp_QueryPerformanceCounter 000000018002c0f0     kernel32:KERNEL32.dll
 0002:000000f8       __imp_GetCurrentProcessId  000000018002c0f8     kernel32:KERNEL32.dll
 0002:00000100       __imp_InitializeSListHead  000000018002c100     kernel32:KERNEL32.dll
 0002:00000108       __imp_GetCurrentThreadId   000000018002c108     kernel32:KERNEL32.dll
 0002:00000110       __imp_GetSystemTimeAsFileTime 000000018002c110     kernel32:KERNEL32.dll
 0002:00000118       __imp_GetModuleHandleExW   000000018002c118     kernel32:KERNEL32.dll
 0002:00000120       \177KERNEL32_NULL_THUNK_DATA 000000018002c120     kernel32:KERNEL32.dll
 0002:00000128       __imp_?thread_locals_index@@3HA 000000018002c128     Maxscrpt:MAXScrpt.dll
 0002:00000130       \177MAXScrpt_NULL_THUNK_DATA 000000018002c130     Maxscrpt:MAXScrpt.dll
 0002:00000138       __imp_??1ios_base@std@@UEAA@XZ 000000018002c138     msvcprt:MSVCP140.dll
 0002:00000140       __imp_?_Ios_base_dtor@ios_base@std@@CAXPEAV12@@Z 000000018002c140     msvcprt:MSVCP140.dll
 0002:00000148       __imp_??0?$basic_streambuf@_WU?$char_traits@_W@std@@@std@@IEAA@XZ 000000018002c148     msvcprt:MSVCP140.dll
 0002:00000150       __imp_??1?$basic_streambuf@_WU?$char_traits@_W@std@@@std@@UEAA@XZ 000000018002c150     msvcprt:MSVCP140.dll
 0002:00000158       __imp_?_Pninc@?$basic_streambuf@_WU?$char_traits@_W@std@@@std@@IEAAPEA_WXZ 000000018002c158     msvcprt:MSVCP140.dll
 0002:00000160       __imp_??1?$basic_ios@_WU?$char_traits@_W@std@@@std@@UEAA@XZ 000000018002c160     msvcprt:MSVCP140.dll
 0002:00000168       __imp_??0?$basic_ios@_WU?$char_traits@_W@std@@@std@@IEAA@XZ 000000018002c168     msvcprt:MSVCP140.dll
 0002:00000170       __imp_??5?$basic_istream@_WU?$char_traits@_W@std@@@std@@QEAAAEAV01@AEAN@Z 000000018002c170     msvcprt:MSVCP140.dll
 0002:00000178       __imp_?_Xout_of_range@std@@YAXPEBD@Z 000000018002c178     msvcprt:MSVCP140.dll
 0002:00000180       __imp_??0?$basic_iostream@_WU?$char_traits@_W@std@@@std@@QEAA@PEAV?$basic_streambuf@_WU?$char_traits@_W@std@@@1@@Z 000000018002c180     msvcprt:MSVCP140.dll
 0002:00000188       __imp_?_Xbad_alloc@std@@YAXXZ 000000018002c188     msvcprt:MSVCP140.dll
 0002:00000190       __imp_?_Lock@?$basic_streambuf@_WU?$char_traits@_W@std@@@std@@UEAAXXZ 000000018002c190     msvcprt:MSVCP140.dll
 0002:00000198       __imp_?_Unlock@?$basic_streambuf@_WU?$char_traits@_W@std@@@std@@UEAAXXZ 000000018002c198     msvcprt:MSVCP140.dll
 0002:000001a0       __imp_?imbue@?$basic_streambuf@_WU?$char_traits@_W@std@@@std@@MEAAXAEBVlocale@2@@Z 000000018002c1a0     msvcprt:MSVCP140.dll
 0002:000001a8       __imp_?setbuf@?$basic_streambuf@_WU?$char_traits@_W@std@@@std@@MEAAPEAV12@PEA_W_J@Z 000000018002c1a8     msvcprt:MSVCP140.dll
 0002:000001b0       __imp_?showmanyc@?$basic_streambuf@_WU?$char_traits@_W@std@@@std@@MEAA_JXZ 000000018002c1b0     msvcprt:MSVCP140.dll
 0002:000001b8       __imp_?sync@?$basic_streambuf@_WU?$char_traits@_W@std@@@std@@MEAAHXZ 000000018002c1b8     msvcprt:MSVCP140.dll
 0002:000001c0       __imp_?uflow@?$basic_streambuf@_WU?$char_traits@_W@std@@@std@@MEAAGXZ 000000018002c1c0     msvcprt:MSVCP140.dll
 0002:000001c8       __imp_?xsgetn@?$basic_streambuf@_WU?$char_traits@_W@std@@@std@@MEAA_JPEA_W_J@Z 000000018002c1c8     msvcprt:MSVCP140.dll
 0002:000001d0       __imp_?xsputn@?$basic_streambuf@_WU?$char_traits@_W@std@@@std@@MEAA_JPEB_W_J@Z 000000018002c1d0     msvcprt:MSVCP140.dll
 0002:000001d8       __imp_??_7ios_base@std@@6B@ 000000018002c1d8     msvcprt:MSVCP140.dll
 0002:000001e0       __imp_??_7?$basic_ios@_WU?$char_traits@_W@std@@@std@@6B@ 000000018002c1e0     msvcprt:MSVCP140.dll
 0002:000001e8       __imp_??1?$basic_iostream@_WU?$char_traits@_W@std@@@std@@UEAA@XZ 000000018002c1e8     msvcprt:MSVCP140.dll
 0002:000001f0       __imp_?_Xlength_error@std@@YAXPEBD@Z 000000018002c1f0     msvcprt:MSVCP140.dll
 0002:000001f8       \177MSVCP140_NULL_THUNK_DATA 000000018002c1f8     msvcprt:MSVCP140.dll
 0002:00000200       __imp_??0ParamBlockDesc2@@QEAA@FPEB_W_JPEAVClassDesc2@@GZZ 000000018002c200     Paramblk2:ParamBlk2.dll
 0002:00000208       __imp_?CreateParamDlgs@ClassDesc2@@QEAAPEAVIAutoMParamDlg@@PEAUHWND__@@PEAVIMtlParams@@PEAVReferenceTarget@@@Z 000000018002c208     Paramblk2:ParamBlk2.dll
 0002:00000210       __imp_?SetUserDlgProc@ClassDesc2@@QEAA_NPEAVParamBlockDesc2@@FPEAVParamMap2UserDlgProc@@@Z 000000018002c210     Paramblk2:ParamBlk2.dll
 0002:00000218       __imp_?InvalidateUI@ClassDesc2@@QEAAXPEAVParamBlockDesc2@@FH@Z 000000018002c218     Paramblk2:ParamBlk2.dll
 0002:00000220       __imp_??1ClassDesc2@@UEAA@XZ 000000018002c220     Paramblk2:ParamBlk2.dll
 0002:00000228       __imp_??0ClassDesc2@@QEAA@XZ 000000018002c228     Paramblk2:ParamBlk2.dll
 0002:00000230       __imp_?MakeAutoParamBlocks@ClassDesc2@@UEAAXPEAVReferenceMaker@@@Z 000000018002c230     Paramblk2:ParamBlk2.dll
 0002:00000238       __imp_?InvalidateUI@ClassDesc2@@UEAAXPEAVParamBlockDesc2@@@Z 000000018002c238     Paramblk2:ParamBlk2.dll
 0002:00000240       __imp_??1ParamBlockDesc2@@UEAA@XZ 000000018002c240     Paramblk2:ParamBlk2.dll
 0002:00000248       __imp_?BeginEditParams@ClassDesc2@@UEAAXPEAVIObjParam@@PEAVReferenceMaker@@KPEAVAnimatable@@@Z 000000018002c248     Paramblk2:ParamBlk2.dll
 0002:00000250       __imp_?AddParamBlockDesc@ClassDesc2@@UEAAXPEAVParamBlockDesc2@@@Z 000000018002c250     Paramblk2:ParamBlk2.dll
 0002:00000258       __imp_?GetParamBlockDescByID@ClassDesc2@@UEAAPEAVParamBlockDesc2@@F@Z 000000018002c258     Paramblk2:ParamBlk2.dll
 0002:00000260       __imp_?ResetClassParams@ClassDesc2@@UEAAXH@Z 000000018002c260     Paramblk2:ParamBlk2.dll
 0002:00000268       __imp_?GetParamMap@ClassDesc2@@UEAAPEAVIParamMap2@@H@Z 000000018002c268     Paramblk2:ParamBlk2.dll
 0002:00000270       __imp_?NumParamMaps@ClassDesc2@@UEAAHXZ 000000018002c270     Paramblk2:ParamBlk2.dll
 0002:00000278       __imp_?GetParamBlockDesc@ClassDesc2@@UEAAPEAVParamBlockDesc2@@H@Z 000000018002c278     Paramblk2:ParamBlk2.dll
 0002:00000280       __imp_?NumParamBlockDescs@ClassDesc2@@UEAAHXZ 000000018002c280     Paramblk2:ParamBlk2.dll
 0002:00000288       __imp_?EndEditParams@ClassDesc2@@UEAAXPEAVIObjParam@@PEAVReferenceMaker@@KPEAVAnimatable@@@Z 000000018002c288     Paramblk2:ParamBlk2.dll
 0002:00000290       __imp_?SetUserDlgProc@ParamBlockDesc2@@QEAAXFPEAVParamMap2UserDlgProc@@@Z 000000018002c290     Paramblk2:ParamBlk2.dll
 0002:00000298       \177ParamBlk2_NULL_THUNK_DATA 000000018002c298     Paramblk2:ParamBlk2.dll
 0002:000002a0       __imp_SendMessageW         000000018002c2a0     user32:USER32.dll
 0002:000002a8       __imp_GetDlgItem           000000018002c2a8     user32:USER32.dll
 0002:000002b0       __imp_DestroyWindow        000000018002c2b0     user32:USER32.dll
 0002:000002b8       __imp_SetWindowLongPtrW    000000018002c2b8     user32:USER32.dll
 0002:000002c0       __imp_LoadStringW          000000018002c2c0     user32:USER32.dll
 0002:000002c8       __imp_InvalidateRect       000000018002c2c8     user32:USER32.dll
 0002:000002d0       __imp_GetWindowRect        000000018002c2d0     user32:USER32.dll
 0002:000002d8       __imp_LoadCursorW          000000018002c2d8     user32:USER32.dll
 0002:000002e0       __imp_GetWindowLongPtrW    000000018002c2e0     user32:USER32.dll
 0002:000002e8       __imp_GetCursorPos         000000018002c2e8     user32:USER32.dll
 0002:000002f0       __imp_EndPaint             000000018002c2f0     user32:USER32.dll
 0002:000002f8       __imp_BeginPaint           000000018002c2f8     user32:USER32.dll
 0002:00000300       __imp_TrackPopupMenuEx     000000018002c300     user32:USER32.dll
 0002:00000308       __imp_GetSubMenu           000000018002c308     user32:USER32.dll
 0002:00000310       __imp_GetKeyState          000000018002c310     user32:USER32.dll
 0002:00000318       __imp_RegisterClassExW     000000018002c318     user32:USER32.dll
 0002:00000320       __imp_DefWindowProcW       000000018002c320     user32:USER32.dll
 0002:00000328       __imp_FillRect             000000018002c328     user32:USER32.dll
 0002:00000330       __imp_LoadMenuW            000000018002c330     user32:USER32.dll
 0002:00000338       \177USER32_NULL_THUNK_DATA 000000018002c338     user32:USER32.dll
 0002:00000340       __imp___CxxFrameHandler3   000000018002c340     vcruntime:VCRUNTIME140.dll
 0002:00000348       __imp__purecall            000000018002c348     vcruntime:VCRUNTIME140.dll
 0002:00000350       __imp_memmove              000000018002c350     vcruntime:VCRUNTIME140.dll
 0002:00000358       __imp___C_specific_handler 000000018002c358     vcruntime:VCRUNTIME140.dll
 0002:00000360       __imp_memset               000000018002c360     vcruntime:VCRUNTIME140.dll
 0002:00000368       __imp_memcpy               000000018002c368     vcruntime:VCRUNTIME140.dll
 0002:00000370       __imp__CxxThrowException   000000018002c370     vcruntime:VCRUNTIME140.dll
 0002:00000378       __imp___std_exception_copy 000000018002c378     vcruntime:VCRUNTIME140.dll
 0002:00000380       __imp___std_exception_destroy 000000018002c380     vcruntime:VCRUNTIME140.dll
 0002:00000388       __imp___std_type_info_destroy_list 000000018002c388     vcruntime:VCRUNTIME140.dll
 0002:00000390       \177VCRUNTIME140_NULL_THUNK_DATA 000000018002c390     vcruntime:VCRUNTIME140.dll
 0002:00000398       __imp__callnewh            000000018002c398     ucrt:api-ms-win-crt-heap-l1-1-0.dll
 0002:000003a0       __imp_free                 000000018002c3a0     ucrt:api-ms-win-crt-heap-l1-1-0.dll
 0002:000003a8       __imp_malloc               000000018002c3a8     ucrt:api-ms-win-crt-heap-l1-1-0.dll
 0002:000003b0       \177api-ms-win-crt-heap-l1-1-0_NULL_THUNK_DATA 000000018002c3b0     ucrt:api-ms-win-crt-heap-l1-1-0.dll
 0002:000003b8       __imp_acosf                000000018002c3b8     ucrt:api-ms-win-crt-math-l1-1-0.dll
 0002:000003c0       __imp_sqrtf                000000018002c3c0     ucrt:api-ms-win-crt-math-l1-1-0.dll
 0002:000003c8       __imp_sqrt                 000000018002c3c8     ucrt:api-ms-win-crt-math-l1-1-0.dll
 0002:000003d0       __imp_fmodf                000000018002c3d0     ucrt:api-ms-win-crt-math-l1-1-0.dll
 0002:000003d8       __imp_sinf                 000000018002c3d8     ucrt:api-ms-win-crt-math-l1-1-0.dll
 0002:000003e0       __imp_cosf                 000000018002c3e0     ucrt:api-ms-win-crt-math-l1-1-0.dll
 0002:000003e8       __imp_powf                 000000018002c3e8     ucrt:api-ms-win-crt-math-l1-1-0.dll
 0002:000003f0       \177api-ms-win-crt-math-l1-1-0_NULL_THUNK_DATA 000000018002c3f0     ucrt:api-ms-win-crt-math-l1-1-0.dll
 0002:000003f8       __imp__configure_narrow_argv 000000018002c3f8     ucrt:api-ms-win-crt-runtime-l1-1-0.dll
 0002:00000400       __imp__initialize_narrow_environment 000000018002c400     ucrt:api-ms-win-crt-runtime-l1-1-0.dll
 0002:00000408       __imp__seh_filter_dll      000000018002c408     ucrt:api-ms-win-crt-runtime-l1-1-0.dll
 0002:00000410       __imp__invalid_parameter_noinfo_noreturn 000000018002c410     ucrt:api-ms-win-crt-runtime-l1-1-0.dll
 0002:00000418       __imp__initialize_onexit_table 000000018002c418     ucrt:api-ms-win-crt-runtime-l1-1-0.dll
 0002:00000420       __imp__cexit               000000018002c420     ucrt:api-ms-win-crt-runtime-l1-1-0.dll
 0002:00000428       __imp__register_onexit_function 000000018002c428     ucrt:api-ms-win-crt-runtime-l1-1-0.dll
 0002:00000430       __imp__execute_onexit_table 000000018002c430     ucrt:api-ms-win-crt-runtime-l1-1-0.dll
 0002:00000438       __imp__initterm_e          000000018002c438     ucrt:api-ms-win-crt-runtime-l1-1-0.dll
 0002:00000440       __imp__initterm            000000018002c440     ucrt:api-ms-win-crt-runtime-l1-1-0.dll
 0002:00000448       __imp__crt_atexit          000000018002c448     ucrt:api-ms-win-crt-runtime-l1-1-0.dll
 0002:00000450       \177api-ms-win-crt-runtime-l1-1-0_NULL_THUNK_DATA 000000018002c450     ucrt:api-ms-win-crt-runtime-l1-1-0.dll
 0002:00000458       __imp_srand                000000018002c458     ucrt:api-ms-win-crt-utility-l1-1-0.dll
 0002:00000460       __imp_rand                 000000018002c460     ucrt:api-ms-win-crt-utility-l1-1-0.dll
 0002:00000468       \177api-ms-win-crt-utility-l1-1-0_NULL_THUNK_DATA 000000018002c468     ucrt:api-ms-win-crt-utility-l1-1-0.dll
 0002:00000470       __imp_?SvIsSelected@MtlBase@@UEAA_NPEAVIGraphObjectManager@@PEAVIGraphNode@@@Z 000000018002c470     core:core.dll
 0002:00000478       __imp_?SvIsInactive@Animatable@@UEAA_NPEAVIGraphObjectManager@@PEAVIGraphNode@@@Z 000000018002c478     core:core.dll
 0002:00000480       __imp_?SvIsHighlighted@Animatable@@UEAA_NPEAVIGraphObjectManager@@PEAVIGraphNode@@@Z 000000018002c480     core:core.dll
 0002:00000488       __imp_?SvHighlightColor@MtlBase@@UEAAKPEAVIGraphObjectManager@@PEAVIGraphNode@@@Z 000000018002c488     core:core.dll
 0002:00000490       __imp_?SvHandleRelDoubleClick@Animatable@@UEAA_NPEAVIGraphObjectManager@@PEAVIGraphNode@@H1@Z 000000018002c490     core:core.dll
 0002:00000498       __imp_?SvHandleDoubleClick@MtlBase@@UEAA_NPEAVIGraphObjectManager@@PEAVIGraphNode@@@Z 000000018002c498     core:core.dll
 0002:000004a0       __imp_?SvGetTip@Animatable@@UEAA?AVWStr@@PEAVIGraphObjectManager@@PEAVIGraphNode@@@Z 000000018002c4a0     core:core.dll
 0002:000004a8       __imp_?SvGetSwatchColor@Animatable@@UEAAKPEAVIGraphObjectManager@@PEAVIGraphNode@@@Z 000000018002c4a8     core:core.dll
 0002:000004b0       __imp_?SvGetRelTip@Animatable@@UEAA?AVWStr@@PEAVIGraphObjectManager@@PEAVIGraphNode@@H1@Z 000000018002c4b0     core:core.dll
 0002:000004b8       __imp_?SvGetRefTip@Animatable@@UEAA?AVWStr@@PEAVIGraphObjectManager@@PEAVIGraphNode@@1@Z 000000018002c4b8     core:core.dll
 0002:000004c0       __imp_?VectorFromNoScale@ShadeContext@@UEAA?AVPoint3@@AEBV2@W4RefFrame@@@Z 000000018002c4c0     core:core.dll
 0002:000004c8       __imp_?SvGetName@MtlBase@@UEAA?AVWStr@@PEAVIGraphObjectManager@@PEAVIGraphNode@@_N@Z 000000018002c4c8     core:core.dll
 0002:000004d0       __imp_?SvGetMultiSelectCallback@MtlBase@@UEAAPEAVMultiSelectCallback@@PEAVIGraphObjectManager@@PEAVIGraphNode@@@Z 000000018002c4d0     core:core.dll
 0002:000004d8       __imp_?ReleaseICustEdit@@YAXPEAVICustEdit@@@Z 000000018002c4d8     core:core.dll
 0002:000004e0       __imp_?SvDetachRel@Animatable@@UEAA_NPEAVIGraphObjectManager@@PEAVIGraphNode@@H1@Z 000000018002c4e0     core:core.dll
 0002:000004e8       __imp_?SvRemoveThis@Animatable@@UEAA_NPEAVIGraphObjectManager@@PEAVIGraphNode@@@Z 000000018002c4e8     core:core.dll
 0002:000004f0       __imp_?SvCanSetName@MtlBase@@UEAA_NPEAVIGraphObjectManager@@PEAVIGraphNode@@@Z 000000018002c4f0     core:core.dll
 0002:000004f8       __imp_?SvCanSelect@MtlBase@@UEAA_NPEAVIGraphObjectManager@@PEAVIGraphNode@@@Z 000000018002c4f8     core:core.dll
 0002:00000500       __imp_?SvCanRemoveThis@Animatable@@UEAA_NPEAVIGraphObjectManager@@PEAVIGraphNode@@@Z 000000018002c500     core:core.dll
 0002:00000508       __imp_?SvCanInitiateLink@Animatable@@UEAA_NPEAVIGraphObjectManager@@PEAVIGraphNode@@@Z 000000018002c508     core:core.dll
 0002:00000510       __imp_?SvCanDetachRel@Animatable@@UEAA_NPEAVIGraphObjectManager@@PEAVIGraphNode@@H1@Z 000000018002c510     core:core.dll
 0002:00000518       __imp_?SvCanDetach@Animatable@@UEAA_NPEAVIGraphObjectManager@@PEAVIGraphNode@@@Z 000000018002c518     core:core.dll
 0002:00000520       __imp_?SvCanConcludeLink@Animatable@@UEAA_NPEAVIGraphObjectManager@@PEAVIGraphNode@@1@Z 000000018002c520     core:core.dll
 0002:00000528       __imp_?SubAnimSetKeyBufferPresent@Animatable@@UEAAHH@Z 000000018002c528     core:core.dll
 0002:00000530       __imp_?SubAnimRevertSetKeyBuffer@Animatable@@UEAAXH@Z 000000018002c530     core:core.dll
 0002:00000538       __imp_?SubAnimCommitSetKeyBuffer@Animatable@@UEAAXHH@Z 000000018002c538     core:core.dll
 0002:00000540       __imp_?GetNewDefaultTextureOutput@@YAPEAVTextureOutput@@XZ 000000018002c540     core:core.dll
 0002:00000548       __imp_?VectorToNoScale@ShadeContext@@UEAA?AVPoint3@@AEBV2@W4RefFrame@@@Z 000000018002c548     core:core.dll
 0002:00000550       __imp_?defaultDim@@3PEAVParamDimension@@EA 000000018002c550     core:core.dll
 0002:00000558       __imp_?GetCOREInterface@@YAPEAVInterface@@XZ 000000018002c558     core:core.dll
 0002:00000560       __imp_?GetICustEdit@@YAPEAVICustEdit@@PEAUHWND__@@@Z 000000018002c560     core:core.dll
 0002:00000568       __imp_?SvLinkChild@Animatable@@UEAA_NPEAVIGraphObjectManager@@PEAVIGraphNode@@1@Z 000000018002c568     core:core.dll
 0002:00000570       __imp_?SvSetName@MtlBase@@UEAA_NPEAVIGraphObjectManager@@PEAVIGraphNode@@AEBVWStr@@@Z 000000018002c570     core:core.dll
 0002:00000578       __imp_?SvDetach@Animatable@@UEAA_NPEAVIGraphObjectManager@@PEAVIGraphNode@@@Z 000000018002c578     core:core.dll
 0002:00000580       __imp_?SvTraverseAnimGraph@Texmap@@UEAA?AVSvGraphNodeReference@@PEAVIGraphObjectManager@@PEAVAnimatable@@HK@Z 000000018002c580     core:core.dll
 0002:00000588       __imp_??4MtlBase@@QEAAAEAV0@AEBV0@@Z 000000018002c588     core:core.dll
 0002:00000590       __imp_??1MtlBase@@UEAA@XZ  000000018002c590     core:core.dll
 0002:00000598       __imp_?ReleaseISpinner@@YAXPEAVISpinnerControl@@@Z 000000018002c598     core:core.dll
 0002:000005a0       __imp_?GetSubTexmapTVName@ISubMap@@QEAA?AVWStr@@H@Z 000000018002c5a0     core:core.dll
 0002:000005a8       __imp_?GetInterface@ReferenceTarget@@UEAAPEAVBaseInterface@@VInterface_ID@@@Z 000000018002c5a8     core:core.dll
 0002:000005b0       __imp_?DeleteReference@ReferenceMaker@@QEAA?AW4RefResult@@H@Z 000000018002c5b0     core:core.dll
 0002:000005b8       __imp_?ReplaceReference@ReferenceMaker@@QEAA?AW4RefResult@@HPEAVReferenceTarget@@H@Z 000000018002c5b8     core:core.dll
 0002:000005c0       __imp_??IInterval@@QEBA?AV0@V0@@Z 000000018002c5c0     core:core.dll
 0002:000005c8       __imp_?InInterval@Interval@@QEBAHH@Z 000000018002c5c8     core:core.dll
 0002:000005d0       __imp_??0Interval@@QEAA@HH@Z 000000018002c5d0     core:core.dll
 0002:000005d8       __imp_?TEXMAP_CAT_3D@@3PA_WA 000000018002c5d8     core:core.dll
 0002:000005e0       __imp_?SpecifySaveReferences@ReferenceMaker@@UEAA_NAEAVReferenceSaveManager@@@Z 000000018002c5e0     core:core.dll
 0002:000005e8       __imp_?SetProperty@MtlBase@@UEAAHKPEAX@Z 000000018002c5e8     core:core.dll
 0002:000005f0       __imp_?SaveEnum@ReferenceMaker@@UEAAXAEAVSaveEnumProc@@H@Z 000000018002c5f0     core:core.dll
 0002:000005f8       __imp_?Save@MtlBase@@UEAA?AW4IOResult@@PEAVISave@@@Z 000000018002c5f8     core:core.dll
 0002:00000600       __imp_?RescaleWorldUnits@ReferenceMaker@@UEAAXM@Z 000000018002c600     core:core.dll
 0002:00000608       __imp_?Requirements@MtlBase@@UEAAKH@Z 000000018002c608     core:core.dll
 0002:00000610       __imp_?RenderBitmap@Texmap@@UEAAXHPEAVBitmap@@MH@Z 000000018002c610     core:core.dll
 0002:00000618       __imp_?ReleaseInterface@Animatable@@UEAAXKPEAX@Z 000000018002c618     core:core.dll
 0002:00000620       __imp_?RefAdded@Texmap@@UEAAXPEAVReferenceMaker@@@Z 000000018002c620     core:core.dll
 0002:00000628       __imp_?NotifyDependents@ReferenceTarget@@UEAA?AW4RefResult@@AEBVInterval@@_KIKHPEAV1@W4NotifyDependentsOption@@@Z 000000018002c628     core:core.dll
 0002:00000630       __imp_?NodeName@Animatable@@UEAA?AVWStr@@XZ 000000018002c630     core:core.dll
 0002:00000638       __imp_?MouseCycleStarted@Animatable@@UEAAXH@Z 000000018002c638     core:core.dll
 0002:00000640       __imp_?MouseCycleCompleted@Animatable@@UEAAXH@Z 000000018002c640     core:core.dll
 0002:00000648       __imp_?MapKeys@Animatable@@UEAAXPEAVTimeMap@@K@Z 000000018002c648     core:core.dll
 0002:00000650       __imp_?Load@MtlBase@@UEAA?AW4IOResult@@PEAVILoad@@@Z 000000018002c650     core:core.dll
 0002:00000658       __imp_?IsOutputMeaningful@Texmap@@UEAA_NAEAVShadeContext@@@Z 000000018002c658     core:core.dll
 0002:00000660       __imp_?IsAnimated@Animatable@@UEAAHXZ 000000018002c660     core:core.dll
 0002:00000668       __imp_?GetVPDisplayDIB@Texmap@@UEAAPEAUtagBITMAPINFO@@HAEAVTexHandleMaker@@AEAVInterval@@HHH@Z 000000018002c668     core:core.dll
 0002:00000670       __imp_?GetTimeRange@Animatable@@UEAA?AVInterval@@K@Z 000000018002c670     core:core.dll
 0002:00000678       __imp_?GetProperty@MtlBase@@UEAAPEAXK@Z 000000018002c678     core:core.dll
 0002:00000680       __imp_?GetPStamp@MtlBase@@UEAAPEAVPStamp@@H@Z 000000018002c680     core:core.dll
 0002:00000688       __imp_?GetInterface@MtlBase@@UEAAPEAXK@Z 000000018002c688     core:core.dll
 0002:00000690       __imp_?GetFullName@MtlBase@@UEAA?AVWStr@@XZ 000000018002c690     core:core.dll
 0002:00000698       __imp_?EvalEnvironMap@ShadeContext@@UEAA?AVAColor@@PEAVTexmap@@VPoint3@@@Z 000000018002c698     core:core.dll
 0002:000006a0       __imp_?EnumAuxFiles@MtlBase@@UEAAXAEAVAssetEnumCallback@@K@Z 000000018002c6a0     core:core.dll
 0002:000006a8       __imp_?DoEnumDependentsImpl@ReferenceTarget@@MEAAHPEAVDependentEnumProc@@@Z 000000018002c6a8     core:core.dll
 0002:000006b0       __imp_?DiscardPStamp@MtlBase@@UEAAXH@Z 000000018002c6b0     core:core.dll
 0002:000006b8       __imp_?DiffuseIllum@ShadeContext@@UEAA?AVColor@@XZ 000000018002c6b8     core:core.dll
 0002:000006c0       __imp_?DeleteAllRefsToMe@ReferenceTarget@@UEAA?AW4RefResult@@XZ 000000018002c6c0     core:core.dll
 0002:000006c8       __imp_?CreatePStamp@MtlBase@@UEAAPEAVPStamp@@HH@Z 000000018002c6c8     core:core.dll
 0002:000006d0       __imp_?BaseClone@MtlBase@@UEAAXPEAVReferenceTarget@@0AEAVRemapDir@@@Z 000000018002c6d0     core:core.dll
 0002:000006d8       __imp_?AutoDelete@ReferenceTarget@@UEAA?AW4RefResult@@XZ 000000018002c6d8     core:core.dll
 0002:000006e0       __imp_??0Texmap@@QEAA@XZ   000000018002c6e0     core:core.dll
 0002:000006e8       __imp_?ReleaseICustButton@@YAXPEAVICustButton@@@Z 000000018002c6e8     core:core.dll
 0002:000006f0       __imp_?GetICustButton@@YAPEAVICustButton@@PEAUHWND__@@@Z 000000018002c6f0     core:core.dll
 0002:000006f8       __imp_?AddInterface@ClassDesc@@UEAAXPEAVFPInterface@@@Z 000000018002c6f8     core:core.dll
 0002:00000700       __imp_?GetInterface@ClassDesc@@UEAAPEAVFPInterface@@VInterface_ID@@@Z 000000018002c700     core:core.dll
 0002:00000708       __imp_?GetInterface@ClassDesc@@UEAAPEAVFPInterface@@PEB_W@Z 000000018002c708     core:core.dll
 0002:00000710       __imp_?threshold@@YAMMMM@Z 000000018002c710     core:core.dll
 0002:00000718       __imp_?SetupUniverseSpinner@@YAPEAVISpinnerControl@@PEAUHWND__@@HHMMMM@Z 000000018002c718     core:core.dll
 0002:00000720       __imp_?SetupFloatSpinner@@YAPEAVISpinnerControl@@PEAUHWND__@@HHMMMM@Z 000000018002c720     core:core.dll
 0002:00000728       __imp_?SvEditProperties@Animatable@@UEAA_NPEAVIGraphObjectManager@@PEAVIGraphNode@@@Z 000000018002c728     core:core.dll
 0002:00000730       __imp_?GetRsrcString@ClassDesc@@UEAAPEB_W_J@Z 000000018002c730     core:core.dll
 0002:00000738       \177core_NULL_THUNK_DATA   000000018002c738     core:core.dll
 0002:00000740       __imp_??0Point3@@QEAA@XZ   000000018002c740     geom:geom.dll
 0002:00000748       __imp_?IdentityMatrix@Matrix3@@QEAAXXZ 000000018002c748     geom:geom.dll
 0002:00000750       __imp_??APoint3@@QEAAAEAMH@Z 000000018002c750     geom:geom.dll
 0002:00000758       __imp_??GPoint3@@QEBA?AV0@XZ 000000018002c758     geom:geom.dll
 0002:00000760       __imp_?Normalize@@YA?AVPoint3@@AEBV1@@Z 000000018002c760     geom:geom.dll
 0002:00000768       __imp_?FNormalize@@YA?AVPoint3@@AEBV1@@Z 000000018002c768     geom:geom.dll
 0002:00000770       __imp_??0Point3@@QEAA@MMM@Z 000000018002c770     geom:geom.dll
 0002:00000778       __imp_?ClampMinMax@Color@@QEAAXXZ 000000018002c778     geom:geom.dll
 0002:00000780       __imp_??TPoint3@@QEBA?AV0@AEBV0@@Z 000000018002c780     geom:geom.dll
 0002:00000788       __imp_??D@YA?AVPoint3@@AEBVMatrix3@@AEBV0@@Z 000000018002c788     geom:geom.dll
 0002:00000790       __imp_?VectorTransform@@YA?AVPoint3@@AEBVMatrix3@@AEBV1@@Z 000000018002c790     geom:geom.dll
 0002:00000798       __imp_?Translate@Matrix3@@QEAAXAEBVPoint3@@@Z 000000018002c798     geom:geom.dll
 0002:000007a0       __imp_?RotateX@Matrix3@@QEAAXM@Z 000000018002c7a0     geom:geom.dll
 0002:000007a8       __imp_?RotateY@Matrix3@@QEAAXM@Z 000000018002c7a8     geom:geom.dll
 0002:000007b0       __imp_?RotateZ@Matrix3@@QEAAXM@Z 000000018002c7b0     geom:geom.dll
 0002:000007b8       __imp_?Scale@Matrix3@@QEAAXAEBVPoint3@@H@Z 000000018002c7b8     geom:geom.dll
 0002:000007c0       __imp_?Invert@Matrix3@@QEAAXXZ 000000018002c7c0     geom:geom.dll
 0002:000007c8       __imp_?Length@Point3@@QEBAMXZ 000000018002c7c8     geom:geom.dll
 0002:000007d0       __imp_?Length@@YAMAEBVPoint3@@@Z 000000018002c7d0     geom:geom.dll
 0002:000007d8       \177geom_NULL_THUNK_DATA   000000018002c7d8     geom:geom.dll
 0002:000007e0       __imp_?GetInterfaceAt@BaseInterfaceServer@@UEBAPEAVBaseInterface@@H@Z 000000018002c7e0     maxutil:maxutil.dll
 0002:000007e8       __imp_??0OutOfRangeException@Util@MaxSDK@@QEAA@AEBV012@@Z 000000018002c7e8     maxutil:maxutil.dll
 0002:000007f0       __imp_?GetInterface@BaseInterfaceServer@@UEAAPEAVBaseInterface@@VInterface_ID@@@Z 000000018002c7f0     maxutil:maxutil.dll
 0002:000007f8       __imp_?NumInterfaces@BaseInterfaceServer@@UEBAHXZ 000000018002c7f8     maxutil:maxutil.dll
 0002:00000800       __imp_??2MaxHeapOperators@@SAPEAX_K@Z 000000018002c800     maxutil:maxutil.dll
 0002:00000808       __imp_??3MaxHeapOperators@@SAXPEAX@Z 000000018002c808     maxutil:maxutil.dll
 0002:00000810       __imp_??1Exception@Util@MaxSDK@@UEAA@XZ 000000018002c810     maxutil:maxutil.dll
 0002:00000818       __imp_??0OutOfRangeException@Util@MaxSDK@@QEAA@PEB_W@Z 000000018002c818     maxutil:maxutil.dll
 0002:00000820       __imp_??1OutOfRangeException@Util@MaxSDK@@UEAA@XZ 000000018002c820     maxutil:maxutil.dll
 0002:00000828       __imp_?assert1@@YAHHPEB_W00@Z 000000018002c828     maxutil:maxutil.dll
 0002:00000830       __imp_?zfree@@YAXPEAPEAX@Z 000000018002c830     maxutil:maxutil.dll
 0002:00000838       __imp_??1InterfaceServer@@UEAA@XZ 000000018002c838     maxutil:maxutil.dll
 0002:00000840       __imp_??1BaseInterfaceServer@@UEAA@XZ 000000018002c840     maxutil:maxutil.dll
 0002:00000848       __imp_??0WStr@@QEAA@PEB_W@Z 000000018002c848     maxutil:maxutil.dll
 0002:00000850       __imp_??1WStr@@QEAA@XZ     000000018002c850     maxutil:maxutil.dll
 0002:00000858       __imp_??4WStr@@QEAAAEAV0@PEB_W@Z 000000018002c858     maxutil:maxutil.dll
 0002:00000860       __imp_?GetInterface@InterfaceServer@@UEAAPEAVBaseInterface@@VInterface_ID@@@Z 000000018002c860     maxutil:maxutil.dll
 0002:00000868       __imp_??_7OutOfRangeException@Util@MaxSDK@@6B@ 000000018002c868     maxutil:maxutil.dll
 0002:00000870       __imp_??_VMaxHeapOperators@@SAXPEAX@Z 000000018002c870     maxutil:maxutil.dll
 0002:00000878       __imp_??0WStr@@QEAA@XZ     000000018002c878     maxutil:maxutil.dll
 0002:00000880       __imp_??0WStr@@QEAA@AEBV0@@Z 000000018002c880     maxutil:maxutil.dll
 0002:00000888       __imp_??_UMaxHeapOperators@@SAPEAX_K@Z 000000018002c888     maxutil:maxutil.dll
 0002:00000890       __imp_?UseLanguagePackLocale@Util@MaxSDK@@YAXPEAUHINSTANCE__@@@Z 000000018002c890     maxutil:maxutil.dll
 0002:00000898       __imp_??0Exception@Util@MaxSDK@@QEAA@AEBV012@@Z 000000018002c898     maxutil:maxutil.dll
 0002:000008a0       \177maxutil_NULL_THUNK_DATA 000000018002c8a0     maxutil:maxutil.dll
 0002:000008a8       __guard_check_icall_fptr   000000018002c8a8     MSVCRT:guard_support.obj
 0002:000008b0       __guard_dispatch_icall_fptr 000000018002c8b0     MSVCRT:guard_support.obj
 0002:000008b8       __xc_a                     000000018002c8b8     MSVCRT:initializers.obj
 0002:000009b8       __xc_z                     000000018002c9b8     MSVCRT:initializers.obj
 0002:000009c0       __xi_a                     000000018002c9c0     MSVCRT:initializers.obj
 0002:000009c8       __xi_z                     000000018002c9c8     MSVCRT:initializers.obj
 0002:000009d0       __xp_a                     000000018002c9d0     MSVCRT:initializers.obj
 0002:000009d8       __xp_z                     000000018002c9d8     MSVCRT:initializers.obj
 0002:000009e0       __xt_a                     000000018002c9e0     MSVCRT:initializers.obj
 0002:000009e8       __xt_z                     000000018002c9e8     MSVCRT:initializers.obj
 0002:00000a08       ??_7XYZ_Desc@@6B@          000000018002ca08     BerconDistortion.obj
 0002:00000a28       ??_C@_1BM@LCALCDFD@?$AAx?$AAy?$AAz?$AA_?$AAf?$AAi?$AAl?$AAt?$AAe?$AAr?$AAi?$AAn?$AAg@ 000000018002ca28     BerconDistortion.obj
 0002:00000a48       ??_C@_1BC@JCCAEAIN@?$AAx?$AAy?$AAz?$AA_?$AAl?$AAo?$AAc?$AAk@ 000000018002ca48     BerconDistortion.obj
 0002:00000a60       ??_C@_1BK@FLPLJMAJ@?$AAx?$AAy?$AAz?$AA_?$AAa?$AAn?$AAg?$AAl?$AAe?$AA_?$AAz?$AA2@ 000000018002ca60     BerconDistortion.obj
 0002:00000a80       ??_C@_1BK@NNGPOOKH@?$AAx?$AAy?$AAz?$AA_?$AAa?$AAn?$AAg?$AAl?$AAe?$AA_?$AAy?$AA2@ 000000018002ca80     BerconDistortion.obj
 0002:00000aa0       ??_C@_1BK@BGDDDNAC@?$AAx?$AAy?$AAz?$AA_?$AAa?$AAn?$AAg?$AAl?$AAe?$AA_?$AAx?$AA2@ 000000018002caa0     BerconDistortion.obj
 0002:00000ac0       ??_C@_1BI@MHJCJGME@?$AAx?$AAy?$AAz?$AA_?$AAs?$AAi?$AAz?$AAe?$AA_?$AAz?$AA2@ 000000018002cac0     BerconDistortion.obj
 0002:00000ad8       ??_C@_1BI@EBAGOEGK@?$AAx?$AAy?$AAz?$AA_?$AAs?$AAi?$AAz?$AAe?$AA_?$AAy?$AA2@ 000000018002cad8     BerconDistortion.obj
 0002:00000af0       ??_C@_1BI@IKFKDHMP@?$AAx?$AAy?$AAz?$AA_?$AAs?$AAi?$AAz?$AAe?$AA_?$AAx?$AA2@ 000000018002caf0     BerconDistortion.obj
 0002:00000b08       ??_C@_1BM@HJOOPID@?$AAx?$AAy?$AAz?$AA_?$AAo?$AAf?$AAf?$AAs?$AAe?$AAt?$AA_?$AAz?$AA2@ 000000018002cb08     BerconDistortion.obj
 0002:00000b28       ??_C@_1BM@IBAKJNCN@?$AAx?$AAy?$AAz?$AA_?$AAo?$AAf?$AAf?$AAs?$AAe?$AAt?$AA_?$AAy?$AA2@ 000000018002cb28     BerconDistortion.obj
 0002:00000b48       ??_C@_1BM@EKFGEOII@?$AAx?$AAy?$AAz?$AA_?$AAo?$AAf?$AAf?$AAs?$AAe?$AAt?$AA_?$AAx?$AA2@ 000000018002cb48     BerconDistortion.obj
 0002:00000b68       ??_C@_1BE@PALBIMHK@?$AAr?$AAa?$AAn?$AAd?$AAB?$AAy?$AAP?$AAa?$AAr@ 000000018002cb68     BerconDistortion.obj
 0002:00000b80       ??_C@_1BE@EGBDKCCD@?$AAr?$AAa?$AAn?$AAd?$AAB?$AAy?$AAO?$AAb?$AAj@ 000000018002cb80     BerconDistortion.obj
 0002:00000b98       ??_C@_1BE@DCGEPHFM@?$AAr?$AAa?$AAn?$AAd?$AAB?$AAy?$AAM?$AAa?$AAt@ 000000018002cb98     BerconDistortion.obj
 0002:00000bb0       ??_C@_19HFHNPJHA@?$AAs?$AAe?$AAe?$AAd@ 000000018002cbb0     BerconDistortion.obj
 0002:00000bc0       ??_C@_1BG@EDCBABDD@?$AAx?$AAy?$AAz?$AA_?$AAt?$AAi?$AAl?$AAe?$AA_?$AAz@ 000000018002cbc0     BerconDistortion.obj
 0002:00000bd8       ??_C@_1BG@FBJEKONN@?$AAx?$AAy?$AAz?$AA_?$AAt?$AAi?$AAl?$AAe?$AA_?$AAy@ 000000018002cbd8     BerconDistortion.obj
 0002:00000bf0       ??_C@_1BG@OJCIMJLI@?$AAx?$AAy?$AAz?$AA_?$AAt?$AAi?$AAl?$AAe?$AA_?$AAx@ 000000018002cbf0     BerconDistortion.obj
 0002:00000c08       ??_C@_1BI@LALGELMD@?$AAx?$AAy?$AAz?$AA_?$AAa?$AAn?$AAg?$AAl?$AAe?$AA_?$AAz@ 000000018002cc08     BerconDistortion.obj
 0002:00000c20       ??_C@_1BI@KCADOECN@?$AAx?$AAy?$AAz?$AA_?$AAa?$AAn?$AAg?$AAl?$AAe?$AA_?$AAy@ 000000018002cc20     BerconDistortion.obj
 0002:00000c38       ??_C@_1BI@BKLPIDEI@?$AAx?$AAy?$AAz?$AA_?$AAa?$AAn?$AAg?$AAl?$AAe?$AA_?$AAx@ 000000018002cc38     BerconDistortion.obj
 0002:00000c50       ??_C@_1BG@MFMFKFM@?$AAx?$AAy?$AAz?$AA_?$AAs?$AAi?$AAz?$AAe?$AA_?$AAz@ 000000018002cc50     BerconDistortion.obj
 0002:00000c68       ??_C@_1BG@BOOJPFLC@?$AAx?$AAy?$AAz?$AA_?$AAs?$AAi?$AAz?$AAe?$AA_?$AAy@ 000000018002cc68     BerconDistortion.obj
 0002:00000c80       ??_C@_1BG@KGFFJCNH@?$AAx?$AAy?$AAz?$AA_?$AAs?$AAi?$AAz?$AAe?$AA_?$AAx@ 000000018002cc80     BerconDistortion.obj
 0002:00000c98       ??_C@_1BK@HPJLBIGD@?$AAx?$AAy?$AAz?$AA_?$AAo?$AAf?$AAf?$AAs?$AAe?$AAt?$AA_?$AAz@ 000000018002cc98     BerconDistortion.obj
 0002:00000cb8       ??_C@_1BK@GNCOLHIN@?$AAx?$AAy?$AAz?$AA_?$AAo?$AAf?$AAf?$AAs?$AAe?$AAt?$AA_?$AAy@ 000000018002ccb8     BerconDistortion.obj
 0002:00000cd8       ??_C@_1BK@NFJCNAOI@?$AAx?$AAy?$AAz?$AA_?$AAo?$AAf?$AAf?$AAs?$AAe?$AAt?$AA_?$AAx@ 000000018002ccd8     BerconDistortion.obj
 0002:00000cf8       ??_C@_1BC@BDPIEDCA@?$AAx?$AAy?$AAz?$AA_?$AAc?$AAh?$AAa?$AAn@ 000000018002ccf8     BerconDistortion.obj
 0002:00000d10       ??_C@_1BA@JOBDKJKA@?$AAx?$AAy?$AAz?$AA_?$AAm?$AAa?$AAp@ 000000018002cd10     BerconDistortion.obj
 0002:00000d20       ??_C@_1BA@KMAKHADK@?$AAM?$AAa?$AAp?$AAp?$AAi?$AAn?$AAg@ 000000018002cd20     BerconDistortion.obj
 0002:00000d38       ??_7BerconDistortionClassDesc@@6B@ 000000018002cd38     BerconDistortion.obj
 0002:00000ed8       ??_C@_1BM@IANNOHHL@?$AAB?$AAe?$AAr?$AAc?$AAo?$AAn?$AAM?$AAa?$AAp?$AAp?$AAi?$AAn?$AAg@ 000000018002ced8     BerconDistortion.obj
 0002:00000ef8       ??_C@_1BM@HCNKLGAJ@?$AAu?$AAs?$AAe?$AAD?$AAi?$AAs?$AAt?$AAo?$AAr?$AAt?$AAi?$AAo?$AAn@ 000000018002cef8     BerconDistortion.obj
 0002:00000f18       ??_C@_1BM@DKGEJKPL@?$AAd?$AAi?$AAs?$AAt?$AAo?$AAr?$AAt?$AAi?$AAo?$AAn?$AAS?$AAt?$AAr@ 000000018002cf18     BerconDistortion.obj
 0002:00000f38       ??_C@_19HFCNIFIH@?$AAm?$AAa?$AAp?$AA2@ 000000018002cf38     BerconDistortion.obj
 0002:00000f48       ??_C@_19GHJICKGJ@?$AAm?$AAa?$AAp?$AA1@ 000000018002cf48     BerconDistortion.obj
 0002:00000f58       ??_C@_19MNJBOCOC@?$AAm?$AAa?$AAp?$AA3@ 000000018002cf58     BerconDistortion.obj
 0002:00000f68       ??_C@_1O@FEMBPDGM@?$AAp?$AAa?$AAr?$AAa?$AAm?$AAs@ 000000018002cf68     BerconDistortion.obj
 0002:00000f78       ??_C@_15CABMMOGH@?$AAt?$AAh@ 000000018002cf78     BerconDistortion.obj
 0002:00000f80       ??_C@_1IA@CBFEGJCG@?$AAc?$AA?3?$AA?2?$AAp?$AAr?$AAo?$AAg?$AAr?$AAa?$AAm?$AA?5?$AAf?$AAi?$AAl?$AAe@ 000000018002cf80     BerconDistortion.obj
 0002:00001000       ??_C@_1CI@OKLGNBMM@?$AAt?$AAh?$AA?5?$AA?$CG?$AA?$CG?$AA?5?$AAi?$AA?5?$AA?$DM?$AA?5?$AAt?$AAh?$AA?9?$AA?$DO?$AAc@ 000000018002d000     BerconDistortion.obj
 0002:00001030       ??_C@_1GI@NLEIFPEJ@?$AAI?$AAn?$AAv?$AAa?$AAl?$AAi?$AAd?$AA?5?$AAi?$AAn?$AAd?$AAe?$AAx?$AA?5?$AAp@ 000000018002d030     BerconDistortion.obj
 0002:000010a0       ??_C@_1EM@PJAEPBLB@?$AAT?$AAa?$AAb?$AA?$DM?$AAc?$AAl?$AAa?$AAs?$AAs?$AA?5?$AAF?$AAP?$AAI?$AAn?$AAt@ 000000018002d0a0     BerconDistortion.obj
 0002:000010f0       ??_C@_1O@ILILCEBJ@?$AAi?$AA?5?$AA?$DO?$AA?$DN?$AA?5?$AA0@ 000000018002d0f0     BerconDistortion.obj
 0002:00001108       ??_7TabOutOfRangeException@Util@MaxSDK@@6B@ 000000018002d108     BerconDistortion.obj
 0002:00001120       ??_C@_1EK@FOLBONAG@?$AAM?$AAa?$AAx?$AAS?$AAD?$AAK?$AA?3?$AA?3?$AAU?$AAt?$AAi?$AAl?$AA?3?$AA?3?$AAT@ 000000018002d120     BerconDistortion.obj
 0002:000016f0       ??_7InterfaceServer@@6B@   000000018002d6f0     BerconDistortion.obj
 0002:00001708       ??_7?$Tab@PEAVBaseInterface@@@@6B@ 000000018002d708     BerconDistortion.obj
 0002:00001718       ??_7BaseInterfaceServer@@6B@ 000000018002d718     BerconDistortion.obj
 0002:00001738       ??_C@_11LOCGONAA@@         000000018002d738     BerconDistortion.obj
 0002:0000173c       ??_C@_13COJANIEC@?$AA0@    000000018002d73c     BerconDistortion.obj
 0002:00001740       ??_C@_1CM@HBLCKHLG@?$AAA?$AAn?$AAi?$AAm?$AAa?$AAt?$AAa?$AAb?$AAl?$AAe?$AA?3?$AA?3?$AAE?$AAd?$AAi@ 000000018002d740     BerconDistortion.obj
 0002:00001770       ??_C@_1IO@OMAAFOOI@?$AAc?$AA?3?$AA?2?$AAp?$AAr?$AAo?$AAg?$AAr?$AAa?$AAm?$AA?5?$AAf?$AAi?$AAl?$AAe@ 000000018002d770     BerconDistortion.obj
 0002:00001800       ??_C@_1M@HLGKFCJM@?$AAf?$AAa?$AAl?$AAs?$AAe@ 000000018002d800     BerconDistortion.obj
 0002:00001810       ??_C@_1EC@POJFJEHG@?$AAR?$AAe?$AAf?$AAe?$AAr?$AAe?$AAn?$AAc?$AAe?$AAM?$AAa?$AAk?$AAe?$AAr?$AA?3@ 000000018002d810     BerconDistortion.obj
 0002:00001860       ??_C@_1IA@EDMIGCEG@?$AAc?$AA?3?$AA?2?$AAp?$AAr?$AAo?$AAg?$AAr?$AAa?$AAm?$AA?5?$AAf?$AAi?$AAl?$AAe@ 000000018002d860     BerconDistortion.obj
 0002:000018e0       ??_C@_1IK@POEJJLJB@?$AAc?$AA?3?$AA?2?$AAp?$AAr?$AAo?$AAg?$AAr?$AAa?$AAm?$AA?5?$AAf?$AAi?$AAl?$AAe@ 000000018002d8e0     BerconDistortion.obj
 0002:00001970       ??_C@_1CE@GBNPOKPK@?$AAi?$AA?$DO?$AA?9?$AA1?$AA?5?$AA?$CG?$AA?$CG?$AA?5?$AAi?$AA?$DM?$AAn?$AAu?$AAm?$AAB?$AAi@ 000000018002d970     BerconDistortion.obj
 0002:00001998       ??_C@_1BM@HADNIIA@?$AAB?$AAi?$AAt?$AAA?$AAr?$AAr?$AAa?$AAy?$AA?3?$AA?3?$AAS?$AAe?$AAt@ 000000018002d998     BerconDistortion.obj
 0002:000019c0       ??_7RenderGlobalContext@@6B@ 000000018002d9c0     BerconDistortion.obj
 0002:00001a38       ??_7ShadeOutput@@6B@       000000018002da38     BerconDistortion.obj
 0002:00001a60       ??_7ShadeContext@@6B@      000000018002da60     BerconDistortion.obj
 0002:00001ca8       ??_7?$Tab@PEAVVertexNormalsCallback@@@@6B@ 000000018002dca8     BerconDistortion.obj
 0002:00001cb8       ??_7ParamMap2UserDlgProc@@6B@ 000000018002dcb8     BerconDistortion.obj
 0002:00001cf8       ??_7BerconSC@@6BShadeContext@@@ 000000018002dcf8     BerconDistortion.obj
 0002:00001f60       ??_7BerconSC@@6BRenderGlobalContext@@@ 000000018002df60     BerconDistortion.obj
 0002:00001fd8       ??_7BerconXYZDlgProc@@6B@  000000018002dfd8     BerconDistortion.obj
 0002:00002010       ??_C@_13PHJMHGG@?$AAL@     000000018002e010     BerconDistortion.obj
 0002:00002020       ??_7BerconDistortion@@6BReferenceTarget@@@ 000000018002e020     BerconDistortion.obj
 0002:00002698       ??_7BerconDistortion@@6BISubMap@@@ 000000018002e698     BerconDistortion.obj
 0002:000026e0       __real@3f1a36e2e0000000    000000018002e6e0     BerconDistortion.obj
 0002:000026e8       __real@3f50624de0000000    000000018002e6e8     BerconDistortion.obj
 0002:000026f0       __real@3f800000            000000018002e6f0     BerconDistortion.obj
 0002:000026f8       __real@3fb99999a0000000    000000018002e6f8     BerconDistortion.obj
 0002:00002700       __real@3ff0000000000000    000000018002e700     BerconDistortion.obj
 0002:00002708       __real@408f400000000000    000000018002e708     BerconDistortion.obj
 0002:00002710       __real@412e848000000000    000000018002e710     BerconDistortion.obj
 0002:00002718       __real@bff0000000000000    000000018002e718     BerconDistortion.obj
 0002:00002720       __real@c12e848000000000    000000018002e720     BerconDistortion.obj
 0002:00002730       ??_7BerconGradientClassDesc@@6B@ 000000018002e730     BerconGradient.obj
 0002:000028d0       ??_C@_1BO@EFFEGJBE@?$AAB?$AAe?$AAr?$AAc?$AAo?$AAn?$AAG?$AAr?$AAa?$AAd?$AAi?$AAe?$AAn?$AAt@ 000000018002e8d0     BerconGradient.obj
 0002:000028f0       ??_C@_1O@KEKEFEMI@?$AAo?$AAu?$AAt?$AAp?$AAu?$AAt@ 000000018002e8f0     BerconGradient.obj
 0002:00002900       ??_C@_1M@IFKEOPKH@?$AAd?$AAi?$AAs?$AAO?$AAn@ 000000018002e900     BerconGradient.obj
 0002:00002910       ??_C@_1O@JJJMDNON@?$AAd?$AAi?$AAs?$AAS?$AAt?$AAr@ 000000018002e910     BerconGradient.obj
 0002:00002920       ??_C@_1O@DEGOAFKO@?$AAd?$AAi?$AAs?$AAT?$AAe?$AAx@ 000000018002e920     BerconGradient.obj
 0002:00002930       ??_C@_17DDAFIGMA@?$AAI?$AAO?$AAR@ 000000018002e930     BerconGradient.obj
 0002:00002938       ??_C@_1BO@EBFBJNKF@?$AAn?$AAo?$AAr?$AAm?$AAa?$AAl?$AAF?$AAu?$AAn?$AAc?$AAt?$AAi?$AAo?$AAn@ 000000018002e938     BerconGradient.obj
 0002:00002958       ??_C@_1BG@EJCJNKBN@?$AAn?$AAo?$AAr?$AAm?$AAa?$AAl?$AAT?$AAy?$AAp?$AAe@ 000000018002e958     BerconGradient.obj
 0002:00002970       ??_C@_1BI@JFBEDJBF@?$AAg?$AAr?$AAa?$AAd?$AAi?$AAe?$AAn?$AAt?$AAU?$AAV?$AAW@ 000000018002e970     BerconGradient.obj
 0002:00002988       ??_C@_1BE@KCENDKIA@?$AAr?$AAa?$AAn?$AAg?$AAe?$AAL?$AAo?$AAo?$AAp@ 000000018002e988     BerconGradient.obj
 0002:000029a0       ??_C@_1BC@DAIIMAMF@?$AAr?$AAa?$AAn?$AAg?$AAe?$AAM?$AAa?$AAx@ 000000018002e9a0     BerconGradient.obj
 0002:000029b8       ??_C@_1BC@KJKJEKOL@?$AAr?$AAa?$AAn?$AAg?$AAe?$AAM?$AAi?$AAn@ 000000018002e9b8     BerconGradient.obj
 0002:000029d0       ??_C@_1BG@NOPEHBND@?$AAr?$AAa?$AAn?$AAd?$AAB?$AAy?$AAT?$AAi?$AAl?$AAe@ 000000018002e9d0     BerconGradient.obj
 0002:000029e8       ??_C@_1BA@NAHOMGAH@?$AAr?$AAe?$AAv?$AAe?$AAr?$AAs?$AAe@ 000000018002e9e8     BerconGradient.obj
 0002:000029f8       ??_C@_1BM@LCNPDDBK@?$AAi?$AAn?$AAt?$AAe?$AAr?$AAp?$AAo?$AAl?$AAa?$AAt?$AAi?$AAo?$AAn@ 000000018002e9f8     BerconGradient.obj
 0002:00002a18       ??_C@_19FHBCDCCA@?$AAt?$AAy?$AAp?$AAe@ 000000018002ea18     BerconGradient.obj
 0002:00002a28       ??_C@_1O@HIEMLHIM@?$AAk?$AAe?$AAy?$AAC?$AAo?$AAl@ 000000018002ea28     BerconGradient.obj
 0002:00002a38       ??_C@_1O@ICACMGIN@?$AAk?$AAe?$AAy?$AAP?$AAo?$AAs@ 000000018002ea38     BerconGradient.obj
 0002:00002a48       ??_C@_1O@PJLIOEMF@?$AAk?$AAe?$AAy?$AAN?$AAu?$AAm@ 000000018002ea48     BerconGradient.obj
 0002:00002a58       ??_C@_1O@HANCGMBA@?$AAk?$AAe?$AAy?$AAT?$AAe?$AAx@ 000000018002ea58     BerconGradient.obj
 0002:00002a68       ??_C@_1BE@LCHIGCIO@?$AAp?$AAo?$AAs?$AAi?$AAt?$AAi?$AAo?$AAn?$AAs@ 000000018002ea68     BerconGradient.obj
 0002:00002a80       ??_C@_1O@HJEOCKOC@?$AAc?$AAo?$AAl?$AAo?$AAr?$AAs@ 000000018002ea80     BerconGradient.obj
 0002:00002a90       ??_C@_1BA@FLPLBKI@?$AAs?$AAu?$AAb?$AAm?$AAa?$AAp?$AAs@ 000000018002ea90     BerconGradient.obj
 0002:00002aa0       ??_C@_19EFANFLCA@?$AAn?$AAo?$AAd?$AAe@ 000000018002eaa0     BerconGradient.obj
 0002:00002ab0       ??_C@_1O@HHADDHBD@?$AAm?$AAa?$AAp?$AAT?$AAe?$AAx@ 000000018002eab0     BerconGradient.obj
 0002:00002d48       ??_7ICustomControl@@6B@    000000018002ed48     BerconGradient.obj
 0002:00002d98       ??_7IGradient@@6B@         000000018002ed98     BerconGradient.obj
 0002:00002de8       ??_7BerconGradient@@6BReferenceTarget@@@ 000000018002ede8     BerconGradient.obj
 0002:00003460       ??_7BerconGradient@@6BISubMap@@@ 000000018002f460     BerconGradient.obj
 0002:000034b0       ??_7BerconGradient@@6BGradientMap@@@ 000000018002f4b0     BerconGradient.obj
 0002:000034e0       ??_7BerconGradient@@6BResourceMakerCallback@@@ 000000018002f4e0     BerconGradient.obj
 0002:00003510       ??_7BerconGradientDlgProc@@6B@ 000000018002f510     BerconGradient.obj
 0002:00003548       __real@3a83126f            000000018002f548     BerconGradient.obj
 0002:0000354c       __real@3d4ccccd            000000018002f54c     BerconGradient.obj
 0002:00003550       __real@3f000000            000000018002f550     BerconGradient.obj
 0002:00003554       __real@3fc90fdb            000000018002f554     BerconGradient.obj
 0002:00003558       __real@3fcccccd            000000018002f558     BerconGradient.obj
 0002:00003560       __real@3fe921fb54442d18    000000018002f560     BerconGradient.obj
 0002:00003568       __real@3ff99999a0000000    000000018002f568     BerconGradient.obj
 0002:00003570       __real@40000000            000000018002f570     BerconGradient.obj
 0002:00003574       __real@40400000            000000018002f574     BerconGradient.obj
 0002:00003578       __real@40490fdb            000000018002f578     BerconGradient.obj
 0002:0000357c       __real@40800000            000000018002f57c     BerconGradient.obj
 0002:00003580       __real@40dfffc000000000    000000018002f580     BerconGradient.obj
 0002:00003590       __xmm@3f800000000000000000000000000000 000000018002f590     BerconGradient.obj
 0002:000035a0       __xmm@3f8000003f8000003f8000003f800000 000000018002f5a0     BerconGradient.obj
 0002:000035b0       __xmm@7fffffffffffffff7fffffffffffffff 000000018002f5b0     BerconGradient.obj
 0002:000035c0       __xmm@80000000800000008000000080000000 000000018002f5c0     BerconGradient.obj
 0002:000035d8       ??_7BerconTileClassDesc@@6B@ 000000018002f5d8     BerconTile.obj
 0002:00003778       ??_C@_1BG@HMMMJDJP@?$AAB?$AAe?$AAr?$AAc?$AAo?$AAn?$AAT?$AAi?$AAl?$AAe@ 000000018002f778     BerconTile.obj
 0002:00003790       ??_C@_0O@FNOCONJB@0?01?01?1?45?0?45?01@ 000000018002f790     BerconTile.obj
 0002:000037a0       ??_C@_1BA@GHEKA@?$AAp?$AAa?$AAt?$AAt?$AAe?$AAr?$AAn@ 000000018002f7a0     BerconTile.obj
 0002:000037b0       ??_C@_1O@GJMACMBA@?$AAO?$AAu?$AAt?$AAp?$AAu?$AAt@ 000000018002f7b0     BerconTile.obj
 0002:000037c0       ??_C@_19OIPKLNDO@?$AAm?$AAa?$AAp?$AA5@ 000000018002f7c0     BerconTile.obj
 0002:000037d0       ??_C@_19FAEGNKFL@?$AAm?$AAa?$AAp?$AA4@ 000000018002f7d0     BerconTile.obj
 0002:000037e0       ??_C@_1CE@KGONNDMM@?$AAp?$AAb?$AA_?$AAc?$AAe?$AAn?$AAt?$AAe?$AAr?$AA_?$AAc?$AAh?$AAa?$AAn?$AAn@ 000000018002f7e0     BerconTile.obj
 0002:00003808       ??_C@_1BE@KFDCNPHK@?$AAp?$AAb?$AA_?$AAc?$AAe?$AAn?$AAt?$AAe?$AAr@ 000000018002f808     BerconTile.obj
 0002:00003820       ??_C@_1BC@JKBCBDFD@?$AAp?$AAb?$AA_?$AAr?$AAa?$AAn?$AAd?$AAZ@ 000000018002f820     BerconTile.obj
 0002:00003838       ??_C@_1BC@OAMFKIBK@?$AAp?$AAb?$AA_?$AAf?$AAl?$AAi?$AAp?$AAY@ 000000018002f838     BerconTile.obj
 0002:00003850       ??_C@_1BC@FIHJMPHP@?$AAp?$AAb?$AA_?$AAf?$AAl?$AAi?$AAp?$AAX@ 000000018002f850     BerconTile.obj
 0002:00003868       ??_C@_1BG@GBOMCGBN@?$AAp?$AAb?$AA_?$AAr?$AAa?$AAn?$AAd?$AAR?$AAo?$AAt@ 000000018002f868     BerconTile.obj
 0002:00003880       ??_C@_1M@PGIICPFG@?$AAr?$AAo?$AAt?$AAU?$AAV@ 000000018002f880     BerconTile.obj
 0002:00003890       ??_C@_1BA@EPCJNCFF@?$AAp?$AAb?$AA_?$AAl?$AAo?$AAc?$AAk@ 000000018002f890     BerconTile.obj
 0002:000038a0       ??_C@_1BE@IECCMELL@?$AAp?$AAb?$AA_?$AAr?$AAa?$AAn?$AAd?$AAS?$AAY@ 000000018002f8a0     BerconTile.obj
 0002:000038b8       ??_C@_1BE@DMJOKDNO@?$AAp?$AAb?$AA_?$AAr?$AAa?$AAn?$AAd?$AAS?$AAX@ 000000018002f8b8     BerconTile.obj
 0002:000038d0       ??_C@_1BC@IIKHLMLN@?$AAp?$AAb?$AA_?$AAr?$AAa?$AAn?$AAd?$AAY@ 000000018002f8d0     BerconTile.obj
 0002:000038e8       ??_C@_1BC@DABLNLNI@?$AAp?$AAb?$AA_?$AAr?$AAa?$AAn?$AAd?$AAX@ 000000018002f8e8     BerconTile.obj
 0002:00003900       ??_C@_1BE@PLDFGEPA@?$AAu?$AAv?$AAC?$AAh?$AAa?$AAn?$AAn?$AAe?$AAl@ 000000018002f900     BerconTile.obj
 0002:00003918       ??_C@_1M@BCIHGDJC@?$AAm?$AAa?$AAp?$AAU?$AAV@ 000000018002f918     BerconTile.obj
 0002:00003928       ??_C@_1BA@MGBNNBHC@?$AAp?$AAb?$AA_?$AAa?$AAu?$AAt?$AAo@ 000000018002f928     BerconTile.obj
 0002:00003938       ??_C@_1BC@PELPKLOA@?$AAr?$AAo?$AAu?$AAn?$AAd?$AAR?$AAa?$AAd@ 000000018002f938     BerconTile.obj
 0002:00003950       ??_C@_1BC@BEGFKCGJ@?$AAp?$AAb?$AA_?$AAr?$AAo?$AAu?$AAn?$AAd@ 000000018002f950     BerconTile.obj
 0002:00003968       ??_C@_1BE@HNGKBEO@?$AAs?$AAo?$AAf?$AAt?$AAe?$AAn?$AAR?$AAa?$AAd@ 000000018002f968     BerconTile.obj
 0002:00003980       ??_C@_1O@JFKPBGFL@?$AAs?$AAo?$AAf?$AAt?$AAe?$AAn@ 000000018002f980     BerconTile.obj
 0002:00003990       ??_C@_1BI@LCGFGJLK@?$AAe?$AAd?$AAg?$AAe?$AAh?$AAe?$AAi?$AAg?$AAh?$AAt?$AA2@ 000000018002f990     BerconTile.obj
 0002:000039a8       ??_C@_1BG@MDDEDAID@?$AAe?$AAd?$AAg?$AAe?$AAW?$AAi?$AAd?$AAt?$AAh?$AA2@ 000000018002f9a8     BerconTile.obj
 0002:000039c0       ??_C@_1BI@IMJDDJBI@?$AAt?$AAi?$AAl?$AAe?$AAh?$AAe?$AAi?$AAg?$AAh?$AAt?$AA2@ 000000018002f9c0     BerconTile.obj
 0002:000039d8       ??_C@_1BG@DGGNGLMB@?$AAt?$AAi?$AAl?$AAe?$AAW?$AAi?$AAd?$AAt?$AAh?$AA2@ 000000018002f9d8     BerconTile.obj
 0002:000039f0       ??_C@_1BG@ICMJDHNJ@?$AAe?$AAd?$AAg?$AAe?$AAh?$AAe?$AAi?$AAg?$AAh?$AAt@ 000000018002f9f0     BerconTile.obj
 0002:00003a08       ??_C@_1BE@ILJAGNND@?$AAe?$AAd?$AAg?$AAe?$AAW?$AAi?$AAd?$AAt?$AAh@ 000000018002fa08     BerconTile.obj
 0002:00003a20       ??_C@_1BG@HHJAGMJL@?$AAt?$AAi?$AAl?$AAe?$AAh?$AAe?$AAi?$AAg?$AAh?$AAt@ 000000018002fa20     BerconTile.obj
 0002:00003a38       ??_C@_1BE@KHEBBJOG@?$AAt?$AAi?$AAl?$AAe?$AAW?$AAi?$AAd?$AAt?$AAh@ 000000018002fa38     BerconTile.obj
 0002:00003a50       ??_C@_19GIOODLBE@?$AAs?$AAi?$AAz?$AAe@ 000000018002fa50     BerconTile.obj
 0002:00003a60       ??_C@_1M@OIINANNN@?$AAs?$AAt?$AAy?$AAl?$AAe@ 000000018002fa60     BerconTile.obj
 0002:00003a70       ??_C@_1BC@EIDKFDNH@?$AAl?$AAo?$AAc?$AAk?$AAE?$AAd?$AAg?$AAe@ 000000018002fa70     BerconTile.obj
 0002:00003a88       ??_C@_1BI@KDPPAPEG@?$AAm?$AAa?$AAp?$AA3?$AAE?$AAn?$AAa?$AAb?$AAl?$AAe?$AAd@ 000000018002fa88     BerconTile.obj
 0002:00003aa0       ??_C@_1BI@EMKNLJKH@?$AAm?$AAa?$AAp?$AA2?$AAE?$AAn?$AAa?$AAb?$AAl?$AAe?$AAd@ 000000018002faa0     BerconTile.obj
 0002:00003ab8       ??_C@_1BI@KGCLGEMF@?$AAm?$AAa?$AAp?$AA1?$AAE?$AAn?$AAa?$AAb?$AAl?$AAe?$AAd@ 000000018002fab8     BerconTile.obj
 0002:00003ad0       ??_C@_1O@OCFKHCNP@?$AAc?$AAo?$AAl?$AAo?$AAr?$AA3@ 000000018002fad0     BerconTile.obj
 0002:00003ae0       ??_C@_1O@FKOGBFLK@?$AAc?$AAo?$AAl?$AAo?$AAr?$AA2@ 000000018002fae0     BerconTile.obj
 0002:00003af0       ??_C@_1O@EIFDLKFE@?$AAc?$AAo?$AAl?$AAo?$AAr?$AA1@ 000000018002faf0     BerconTile.obj
 0002:00003b00       ??_C@_1BK@BOMFFBEI@?$AAb?$AAm?$AAa?$AAp?$AA2?$AAE?$AAn?$AAa?$AAb?$AAl?$AAe?$AAd@ 000000018002fb00     BerconTile.obj
 0002:00003b20       ??_C@_1M@CJBLNJAJ@?$AAb?$AAm?$AAa?$AAp?$AA2@ 000000018002fb20     BerconTile.obj
 0002:00003b30       ??_C@_1BK@PEEDIMCK@?$AAb?$AAm?$AAa?$AAp?$AA1?$AAE?$AAn?$AAa?$AAb?$AAl?$AAe?$AAd@ 000000018002fb30     BerconTile.obj
 0002:00003b50       ??_C@_1M@DLKOHGOH@?$AAb?$AAm?$AAa?$AAp?$AA1@ 000000018002fb50     BerconTile.obj
 0002:00003e30       ??_C@_1BE@CFDJOJFP@?$AAf?$AA?5?$AA?$CB?$AA?$DN?$AA?5?$AA0?$AA?4?$AA0?$AAf@ 000000018002fe30     BerconTile.obj
 0002:00003e50       ??_C@_1IG@JJKCGENH@?$AAc?$AA?3?$AA?2?$AAp?$AAr?$AAo?$AAg?$AAr?$AAa?$AAm?$AA?5?$AAf?$AAi?$AAl?$AAe@ 000000018002fe50     BerconTile.obj
 0002:00003ed8       ??_C@_1CI@HCOGDKGH@?$AAP?$AAo?$AAi?$AAn?$AAt?$AA3?$AA?3?$AA?3?$AAo?$AAp?$AAe?$AAr?$AAa?$AAt?$AAo@ 000000018002fed8     BerconTile.obj
 0002:00003f08       ??_7BerconTile@@6BReferenceTarget@@@ 000000018002ff08     BerconTile.obj
 0002:00004580       ??_7BerconTile@@6BISubMap@@@ 0000000180030580     BerconTile.obj
 0002:000045d0       ??_7BerconTile@@6B@        00000001800305d0     BerconTile.obj
 0002:00004600       ??_7BerconTileDlgProc@@6B@ 0000000180030600     BerconTile.obj
 0002:00004638       ??_C@_1BM@FKDFOLKD@?$AA0?$AA?0?$AA1?$AA?0?$AA1?$AA?1?$AA?4?$AA5?$AA?0?$AA?4?$AA5?$AA?0?$AA1@ 0000000180030638     BerconTile.obj
 0002:00004658       ??_C@_0BA@JFNIOLAK@string?5too?5long@ 0000000180030658     BerconTile.obj
 0002:00004668       __real@38d1b717            0000000180030668     BerconTile.obj
 0002:0000466c       __real@3c8efa35            000000018003066c     BerconTile.obj
 0002:00004670       __real@3dcccccd            0000000180030670     BerconTile.obj
 0002:00004678       __real@3fd3333340000000    0000000180030678     BerconTile.obj
 0002:00004680       __real@4000000000000000    0000000180030680     BerconTile.obj
 0002:00004688       __real@4010000000000000    0000000180030688     BerconTile.obj
 0002:00004690       __real@4039000000000000    0000000180030690     BerconTile.obj
 0002:00004698       __real@4059000000000000    0000000180030698     BerconTile.obj
 0002:000046a0       __real@4066800000000000    00000001800306a0     BerconTile.obj
 0002:000046a8       __real@43340000            00000001800306a8     BerconTile.obj
 0002:000046ac       __real@49742400            00000001800306ac     BerconTile.obj
 0002:000046b0       __real@bf000000            00000001800306b0     BerconTile.obj
 0002:000046b4       __real@c9742400            00000001800306b4     BerconTile.obj
 0002:000046c0       __xmm@42c8000042c800004348000043480000 00000001800306c0     BerconTile.obj
 0002:000046d8       ??_7BerconWoodClassDesc@@6B@ 00000001800306d8     BerconWood.obj
 0002:00004878       ??_C@_1BG@GPLMDENA@?$AAB?$AAe?$AAr?$AAc?$AAo?$AAn?$AAW?$AAo?$AAo?$AAd@ 0000000180030878     BerconWood.obj
 0002:00004890       ??_C@_1BA@BCHLBBAP@?$AAs?$AAa?$AAm?$AAp?$AAl?$AAe?$AAs@ 0000000180030890     BerconWood.obj
 0002:000048a0       ??_C@_19CCFLBDDD@?$AAs?$AAk?$AAe?$AAw@ 00000001800308a0     BerconWood.obj
 0002:000048b0       ??_C@_1BG@IBLEJHEI@?$AAr?$AAa?$AAn?$AAd?$AAo?$AAm?$AAS?$AAe?$AAe?$AAd@ 00000001800308b0     BerconWood.obj
 0002:000048c8       ??_C@_1BM@MHGPDJM@?$AAg?$AAa?$AAi?$AAn?$AAV?$AAa?$AAr?$AAi?$AAa?$AAt?$AAi?$AAo?$AAn@ 00000001800308c8     BerconWood.obj
 0002:000048e8       ??_C@_1BO@ECPLJFCD@?$AAw?$AAi?$AAd?$AAt?$AAh?$AAV?$AAa?$AAr?$AAi?$AAa?$AAt?$AAi?$AAo?$AAn@ 00000001800308e8     BerconWood.obj
 0002:00004908       ??_C@_1BE@GJBNEGJB@?$AAg?$AAr?$AAa?$AAi?$AAn?$AAL?$AAo?$AAc?$AAk@ 0000000180030908     BerconWood.obj
 0002:00004920       ??_C@_1BE@HAHMKGEE@?$AAg?$AAr?$AAa?$AAi?$AAn?$AAF?$AAr?$AAe?$AAq@ 0000000180030920     BerconWood.obj
 0002:00004938       ??_C@_1BC@CHOMLLBM@?$AAg?$AAr?$AAa?$AAi?$AAn?$AAS?$AAt?$AAr@ 0000000180030938     BerconWood.obj
 0002:00004950       ??_C@_1BC@BKNHLGGL@?$AAa?$AAn?$AAg?$AAl?$AAe?$AAR?$AAa?$AAd@ 0000000180030950     BerconWood.obj
 0002:00004968       ??_C@_1BE@GAKFLNAE@?$AAa?$AAn?$AAg?$AAl?$AAe?$AAF?$AAr?$AAe?$AAq@ 0000000180030968     BerconWood.obj
 0002:00004980       ??_C@_1BC@PABECNJO@?$AAa?$AAn?$AAg?$AAl?$AAe?$AAS?$AAt?$AAr@ 0000000180030980     BerconWood.obj
 0002:00004998       ??_C@_1BA@JLDBLEIA@?$AAr?$AAa?$AAd?$AAi?$AAa?$AAl?$AAZ@ 0000000180030998     BerconWood.obj
 0002:000049a8       ??_C@_1BG@BKHLNMEC@?$AAr?$AAa?$AAd?$AAi?$AAa?$AAl?$AAF?$AAr?$AAe?$AAq@ 00000001800309a8     BerconWood.obj
 0002:000049c0       ??_C@_1BE@MAEEJBGC@?$AAr?$AAa?$AAd?$AAi?$AAa?$AAl?$AAS?$AAt?$AAr@ 00000001800309c0     BerconWood.obj
 0002:000049d8       ??_C@_1BE@PAGLOPGC@?$AAt?$AAr?$AAu?$AAn?$AAk?$AAF?$AAr?$AAe?$AAq@ 00000001800309d8     BerconWood.obj
 0002:000049f0       ??_C@_1BC@OGGKLNK@?$AAt?$AAr?$AAu?$AAn?$AAk?$AAS?$AAt?$AAr@ 00000001800309f0     BerconWood.obj
 0002:00004a08       ??_C@_1BC@PCCOIOPC@?$AAw?$AAo?$AAo?$AAd?$AAT?$AAy?$AAp?$AAe@ 0000000180030a08     BerconWood.obj
 0002:00004a20       ??_C@_1BE@OPFLOLOL@?$AAt?$AAr?$AAe?$AAs?$AAh?$AAH?$AAi?$AAg?$AAh@ 0000000180030a20     BerconWood.obj
 0002:00004a38       ??_C@_1BC@OKAAOBEK@?$AAt?$AAr?$AAe?$AAs?$AAh?$AAL?$AAo?$AAw@ 0000000180030a38     BerconWood.obj
 0002:00004a50       ??_C@_1BM@LKPLBAOF@?$AAb?$AAm?$AAa?$AAp?$AA1?$AA6?$AAE?$AAn?$AAa?$AAb?$AAl?$AAe?$AAd@ 0000000180030a50     BerconWood.obj
 0002:00004a70       ??_C@_1O@HNBJCNPB@?$AAb?$AAm?$AAa?$AAp?$AA1?$AA6@ 0000000180030a70     BerconWood.obj
 0002:00004a80       ??_C@_1BM@FAHNMNIH@?$AAb?$AAm?$AAa?$AAp?$AA1?$AA5?$AAE?$AAn?$AAa?$AAb?$AAl?$AAe?$AAd@ 0000000180030a80     BerconWood.obj
 0002:00004aa0       ??_C@_1O@GPKMICBP@?$AAb?$AAm?$AAa?$AAp?$AA1?$AA5@ 0000000180030aa0     BerconWood.obj
 0002:00004ab0       ??_C@_1BM@LPCPHLGG@?$AAb?$AAm?$AAa?$AAp?$AA1?$AA4?$AAE?$AAn?$AAa?$AAb?$AAl?$AAe?$AAd@ 0000000180030ab0     BerconWood.obj
 0002:00004ad0       ??_C@_1O@NHBAOFHK@?$AAb?$AAm?$AAa?$AAp?$AA1?$AA4@ 0000000180030ad0     BerconWood.obj
 0002:00004ae0       ??_C@_1BM@FOABHBAC@?$AAb?$AAm?$AAa?$AAp?$AA1?$AA3?$AAE?$AAn?$AAa?$AAb?$AAl?$AAe?$AAd@ 0000000180030ae0     BerconWood.obj
 0002:00004b00       ??_C@_1O@EKMHNNMD@?$AAb?$AAm?$AAa?$AAp?$AA1?$AA3@ 0000000180030b00     BerconWood.obj
 0002:00004b10       ??_C@_1BM@LBFDMHOD@?$AAb?$AAm?$AAa?$AAp?$AA1?$AA2?$AAE?$AAn?$AAa?$AAb?$AAl?$AAe?$AAd@ 0000000180030b10     BerconWood.obj
 0002:00004b30       ??_C@_1O@PCHLLKKG@?$AAb?$AAm?$AAa?$AAp?$AA1?$AA2@ 0000000180030b30     BerconWood.obj
 0002:00004b40       ??_C@_1BM@FLNFBKIB@?$AAb?$AAm?$AAa?$AAp?$AA1?$AA1?$AAE?$AAn?$AAa?$AAb?$AAl?$AAe?$AAd@ 0000000180030b40     BerconWood.obj
 0002:00004b60       ??_C@_1O@OAMOBFEI@?$AAb?$AAm?$AAa?$AAp?$AA1?$AA1@ 0000000180030b60     BerconWood.obj
 0002:00004b70       ??_C@_1BM@LEIHKMGA@?$AAb?$AAm?$AAa?$AAp?$AA1?$AA0?$AAE?$AAn?$AAa?$AAb?$AAl?$AAe?$AAd@ 0000000180030b70     BerconWood.obj
 0002:00004b90       ??_C@_1O@FIHCHCCN@?$AAb?$AAm?$AAa?$AAp?$AA1?$AA0@ 0000000180030b90     BerconWood.obj
 0002:00004ba0       ??_C@_1BK@ODBCCCCG@?$AAb?$AAm?$AAa?$AAp?$AA9?$AAE?$AAn?$AAa?$AAb?$AAl?$AAe?$AAd@ 0000000180030ba0     BerconWood.obj
 0002:00004bc0       ??_C@_1M@POBKFOAI@?$AAb?$AAm?$AAa?$AAp?$AA9@ 0000000180030bc0     BerconWood.obj
 0002:00004bd0       ??_C@_1BK@MEAJEMH@?$AAb?$AAm?$AAa?$AAp?$AA8?$AAE?$AAn?$AAa?$AAb?$AAl?$AAe?$AAd@ 0000000180030bd0     BerconWood.obj
 0002:00004bf0       ??_C@_1M@EGKGDJGN@?$AAb?$AAm?$AAa?$AAp?$AA8@ 0000000180030bf0     BerconWood.obj
 0002:00004c00       ??_C@_1BK@PKDPDAKP@?$AAb?$AAm?$AAa?$AAp?$AA7?$AAE?$AAn?$AAa?$AAb?$AAl?$AAe?$AAd@ 0000000180030c00     BerconWood.obj
 0002:00004c20       ??_C@_1M@BOMFCJDL@?$AAb?$AAm?$AAa?$AAp?$AA7@ 0000000180030c20     BerconWood.obj
 0002:00004c30       ??_C@_1BK@BFGNIGEO@?$AAb?$AAm?$AAa?$AAp?$AA6?$AAE?$AAn?$AAa?$AAb?$AAl?$AAe?$AAd@ 0000000180030c30     BerconWood.obj
 0002:00004c50       ??_C@_1M@KGHJEOFO@?$AAb?$AAm?$AAa?$AAp?$AA6@ 0000000180030c50     BerconWood.obj
 0002:00004c60       ??_C@_1BK@PPOLFLCM@?$AAb?$AAm?$AAa?$AAp?$AA5?$AAE?$AAn?$AAa?$AAb?$AAl?$AAe?$AAd@ 0000000180030c60     BerconWood.obj
 0002:00004c80       ??_C@_1M@LEMMOBLA@?$AAb?$AAm?$AAa?$AAp?$AA5@ 0000000180030c80     BerconWood.obj
 0002:00004c90       ??_C@_1BK@BALJONMN@?$AAb?$AAm?$AAa?$AAp?$AA4?$AAE?$AAn?$AAa?$AAb?$AAl?$AAe?$AAd@ 0000000180030c90     BerconWood.obj
 0002:00004cb0       ??_C@_1M@MHAIGNF@?$AAb?$AAm?$AAa?$AAp?$AA4@ 0000000180030cb0     BerconWood.obj
 0002:00004cc0       ??_C@_1BK@PBJHOHKJ@?$AAb?$AAm?$AAa?$AAp?$AA3?$AAE?$AAn?$AAa?$AAb?$AAl?$AAe?$AAd@ 0000000180030cc0     BerconWood.obj
 0002:00004ce0       ??_C@_1M@JBKHLOGM@?$AAb?$AAm?$AAa?$AAp?$AA3@ 0000000180030ce0     BerconWood.obj
 0002:00004e88       ??_7BerconWood@@6BReferenceTarget@@@ 0000000180030e88     BerconWood.obj
 0002:00005500       ??_7BerconWood@@6BISubMap@@@ 0000000180031500     BerconWood.obj
 0002:00005550       ??_7BerconWood@@6B@        0000000180031550     BerconWood.obj
 0002:00005580       ??_7BerconWoodDlgProc@@6B@ 0000000180031580     BerconWood.obj
 0002:000055b8       __real@3c23d70a            00000001800315b8     BerconWood.obj
 0002:000055bc       __real@3d23d70a            00000001800315bc     BerconWood.obj
 0002:000055c0       __real@3e4ccccd            00000001800315c0     BerconWood.obj
 0002:000055c4       __real@3e78d4fe            00000001800315c4     BerconWood.obj
 0002:000055c8       __real@3e800000            00000001800315c8     BerconWood.obj
 0002:000055cc       __real@3e99999a            00000001800315cc     BerconWood.obj
 0002:000055d0       __real@3eac8b44            00000001800315d0     BerconWood.obj
 0002:000055d4       __real@3ec8b439            00000001800315d4     BerconWood.obj
 0002:000055d8       __real@3f0c8b44            00000001800315d8     BerconWood.obj
 0002:000055dc       __real@3f116873            00000001800315dc     BerconWood.obj
 0002:000055e0       __real@3f400000            00000001800315e0     BerconWood.obj
 0002:000055e4       __real@3f449ba6            00000001800315e4     BerconWood.obj
 0002:000055e8       __real@3f50624dd2f1a9fc    00000001800315e8     BerconWood.obj
 0002:000055f0       __real@3f847ae140000000    00000001800315f0     BerconWood.obj
 0002:000055f8       __real@3fa47ae140000000    00000001800315f8     BerconWood.obj
 0002:00005600       __real@3fc99999a0000000    0000000180031600     BerconWood.obj
 0002:00005608       __real@3fd0000000000000    0000000180031608     BerconWood.obj
 0002:00005610       __real@3fe0000000000000    0000000180031610     BerconWood.obj
 0002:00005618       __real@3fe8000000000000    0000000180031618     BerconWood.obj
 0002:00005620       __real@4008000000000000    0000000180031620     BerconWood.obj
 0002:00005628       __real@4014000000000000    0000000180031628     BerconWood.obj
 0002:00005630       __real@4028b0a3e0000000    0000000180031630     BerconWood.obj
 0002:00005638       __real@402e000000000000    0000000180031638     BerconWood.obj
 0002:00005640       __real@40a00000            0000000180031640     BerconWood.obj
 0002:00005644       __real@4145851f            0000000180031644     BerconWood.obj
 0002:00005648       __real@41700000            0000000180031648     BerconWood.obj
 0002:00005650       ??_C@_1BK@BFMCNHEO@?$AAC?$AAo?$AAm?$AAc?$AAt?$AAl?$AA3?$AA2?$AA?4?$AAd?$AAl?$AAl@ 0000000180031650     DllEntry.obj
 0002:00005670       ?debugString@?4??IsolationAwarePrivatenPgViNgRzlnPgpgk@@9@4QBDB 0000000180031670     DllEntry.obj
 0002:000056b0       ??_C@_0BD@KDNHKDOA@InitCommonControls@ 00000001800316b0     DllEntry.obj
 0002:000056c8       ?c@?1??CommctrlIsolationAwarePrivatetRgCebPnQQeRff_pbZPgYQP_QYY@@9@4UIsolationAwarePrivate_pBAFGnAG_zBqHyr_vAsB@@B 00000001800316c8     DllEntry.obj
 0002:000056d8       ??_C@_1BK@JEDIBDND@?$AAL?$AAi?$AAb?$AAC?$AAl?$AAa?$AAs?$AAs?$AAD?$AAe?$AAs?$AAc@ 00000001800316d8     DllEntry.obj
 0002:00005700       ??_C@_1FM@FHBPLIJN@?$AAg?$AA?3?$AA?2?$AAd?$AAr?$AAo?$AAp?$AAb?$AAo?$AAx?$AA?2?$AAg?$AAi?$AAt?$AAh@ 0000000180031700     DllEntry.obj
 0002:0000575c       __real@46fffe00            000000018003175c     BerconCommon.obj
 0002:00005768       ??_7BerconNoiseClassDesc@@6B@ 0000000180031768     BerconNoise.obj
 0002:00005908       ??_C@_1BI@OFHJLFOO@?$AAB?$AAe?$AAr?$AAc?$AAo?$AAn?$AAN?$AAo?$AAi?$AAs?$AAe@ 0000000180031908     BerconNoise.obj
 0002:00005920       ??_C@_1BM@NGCAEKNK@?$AAU?$AAV?$AAW?$AAd?$AAi?$AAs?$AAt?$AAo?$AAr?$AAt?$AAi?$AAo?$AAn@ 0000000180031920     BerconNoise.obj
 0002:00005940       ??_C@_1CE@MPOFFPKF@?$AAf?$AAr?$AAa?$AAc?$AAt?$AAa?$AAl?$AAL?$AAa?$AAc?$AAu?$AAn?$AAa?$AAr?$AAi@ 0000000180031940     BerconNoise.obj
 0002:00005968       ??_C@_1BC@KFPODIIO@?$AAf?$AAr?$AAa?$AAc?$AAt?$AAa?$AAl?$AAH@ 0000000180031968     BerconNoise.obj
 0002:00005980       ??_C@_1BM@HCLHIJIH@?$AAf?$AAr?$AAa?$AAc?$AAt?$AAa?$AAl?$AAO?$AAf?$AAf?$AAs?$AAe?$AAt@ 0000000180031980     BerconNoise.obj
 0002:000059a0       ??_C@_1BI@BFKJFNPK@?$AAf?$AAr?$AAa?$AAc?$AAt?$AAa?$AAl?$AAG?$AAa?$AAi?$AAn@ 00000001800319a0     BerconNoise.obj
 0002:000059b8       ??_C@_1O@FNHNBIHH@?$AAl?$AAe?$AAv?$AAe?$AAl?$AAs@ 00000001800319b8     BerconNoise.obj
 0002:000059c8       ??_C@_1BI@IFLGJJNN@?$AAf?$AAr?$AAa?$AAc?$AAt?$AAa?$AAl?$AAT?$AAy?$AAp?$AAe@ 00000001800319c8     BerconNoise.obj
 0002:000059e0       ??_C@_1BK@IIBHKCH@?$AAw?$AAo?$AAr?$AAl?$AAe?$AAy?$AAS?$AAp?$AAr?$AAe?$AAa?$AAd@ 00000001800319e0     BerconNoise.obj
 0002:00005a00       ??_C@_17JKAADOJI@?$AAw?$AAF?$AA4@ 0000000180031a00     BerconNoise.obj
 0002:00005a08       ??_C@_17HNHAGCB@?$AAw?$AAF?$AA3@ 0000000180031a08     BerconNoise.obj
 0002:00005a10       ??_C@_17LPGLGBEE@?$AAw?$AAF?$AA2@ 0000000180031a10     BerconNoise.obj
 0002:00005a18       ??_C@_17KNNOMOKK@?$AAw?$AAF?$AA1@ 0000000180031a18     BerconNoise.obj
 0002:00005a20       ??_C@_1BO@KFPLBLON@?$AAw?$AAo?$AAr?$AAl?$AAe?$AAy?$AAD?$AAi?$AAs?$AAt?$AAa?$AAn?$AAc?$AAe@ 0000000180031a20     BerconNoise.obj
 0002:00005a40       ??_C@_1BO@FFCIKJO@?$AAn?$AAo?$AAi?$AAs?$AAe?$AA_?$AAf?$AAu?$AAn?$AAc?$AAt?$AAi?$AAo?$AAn@ 0000000180031a40     BerconNoise.obj
 0002:00005a60       ??_C@_1M@PPFPCEJL@?$AAp?$AAh?$AAa?$AAs?$AAe@ 0000000180031a60     BerconNoise.obj
 0002:00005a70       ??_C@_1BM@FDGPINOP@?$AAt?$AAh?$AAr?$AAe?$AAs?$AAh?$AAo?$AAl?$AAd?$AAH?$AAi?$AAg?$AAh@ 0000000180031a70     BerconNoise.obj
 0002:00005a90       ??_C@_1BK@GHPMGGPJ@?$AAt?$AAh?$AAr?$AAe?$AAs?$AAh?$AAo?$AAl?$AAd?$AAL?$AAo?$AAw@ 0000000180031a90     BerconNoise.obj
 0002:00005c48       ??_7BerconNoise@@6BReferenceTarget@@@ 0000000180031c48     BerconNoise.obj
 0002:000062c0       ??_7BerconNoise@@6BISubMap@@@ 00000001800322c0     BerconNoise.obj
 0002:00006310       ??_7BerconNoise@@6B@       0000000180032310     BerconNoise.obj
 0002:00006340       ??_7BerconNoiseDlgProc@@6B@ 0000000180032340     BerconNoise.obj
 0002:00006378       ??_C@_1CG@JEPHKPPG@?$AAB?$AAe?$AAr?$AAc?$AAo?$AAn?$AAN?$AAo?$AAi?$AAs?$AAe?$AA?3?$AA?3?$AAR?$AAe@ 0000000180032378     BerconNoise.obj
 0002:000063a0       ??_C@_1GC@JFMJJLAB@?$AAg?$AA?3?$AA?2?$AAd?$AAr?$AAo?$AAp?$AAb?$AAo?$AAx?$AA?2?$AAg?$AAi?$AAt?$AAh@ 00000001800323a0     BerconNoise.obj
 0002:00006408       __real@4034000000000000    0000000180032408     BerconNoise.obj
 0002:00006410       __real@41c80000            0000000180032410     BerconNoise.obj
 0002:00006418       __real@c08f400000000000    0000000180032418     BerconNoise.obj
 0002:00006420       __real@bf800000            0000000180032420     fractal.obj
 0002:00006450       __real@437f0000            0000000180032450     GradientRamp.obj
 0002:00006458       ??_C@_1BK@CABEKACK@?$AAC?$AAu?$AAs?$AAt?$AAG?$AAr?$AAa?$AAd?$AAi?$AAe?$AAn?$AAt@ 0000000180032458     IGradient.obj
 0002:00006474       __real@00000000            0000000180032474     noise.obj
 0002:00006478       __real@3f900000            0000000180032478     noise.obj
 0002:0000647c       __real@4049999a            000000018003247c     noise.obj
 0002:00006480       __real@40b00000            0000000180032480     noise.obj
 0002:00006484       __real@40e33333            0000000180032484     noise.obj
 0002:00006488       __real@4129999a            0000000180032488     noise.obj
 0002:0000648c       __real@439d1127            000000018003248c     noise.obj
 0002:00006490       __real@b8d1b717            0000000180032490     noise.obj
 0002:00006494       __real@3e0d8369            0000000180032494     perlin.obj
 0002:00006498       __real@3e2aaaab            0000000180032498     perlin.obj
 0002:0000649c       __real@3e58658c            000000018003249c     perlin.obj
 0002:000064a0       __real@3e8d8369            00000001800324a0     perlin.obj
 0002:000064a4       __real@3e9e377a            00000001800324a4     perlin.obj
 0002:000064a8       __real@3eaaaaab            00000001800324a8     perlin.obj
 0002:000064ac       __real@3ebb67ae            00000001800324ac     perlin.obj
 0002:000064b0       __real@3eca4588            00000001800324b0     perlin.obj
 0002:000064b4       __real@3ed4451e            00000001800324b4     perlin.obj
 0002:000064b8       __real@3ed8658c            00000001800324b8     perlin.obj
 0002:000064bc       __real@3ee4f92e            00000001800324bc     perlin.obj
 0002:000064c0       __real@3f01cac1            00000001800324c0     perlin.obj
 0002:000064c4       __real@3f19999a            00000001800324c4     perlin.obj
 0002:000064c8       __real@3f5eb852            00000001800324c8     perlin.obj
 0002:000064cc       __real@3f6f9db2            00000001800324cc     perlin.obj
 0002:000064d0       __real@3f7ff972            00000001800324d0     perlin.obj
 0002:000064d4       __real@3f99999a            00000001800324d4     perlin.obj
 0002:000064d8       __real@400ccccd            00000001800324d8     perlin.obj
 0002:000064dc       __real@40c00000            00000001800324dc     perlin.obj
 0002:000064e0       __real@41200000            00000001800324e0     perlin.obj
 0002:000064e4       __real@41d80000            00000001800324e4     perlin.obj
 0002:000064e8       __real@42000000            00000001800324e8     perlin.obj
 0002:000064ec       __real@42200000            00000001800324ec     perlin.obj
 0002:000064f0       __real@c0000000            00000001800324f0     perlin.obj
 0002:000067a0       ??_C@_13CGOKJPIL@?$AA?1@   00000001800327a0     tile.obj
 0002:000067a8       ??_C@_1BA@HLCPMHKJ@?$AA0?$AA?0?$AA?5?$AA1?$AA?0?$AA?5?$AA1@ 00000001800327a8     tile.obj
 0002:000067b8       ??_C@_1CI@MGOLCOH@?$AA0?$AA?0?$AA?5?$AA1?$AA?0?$AA?5?$AA1?$AA?5?$AA?1?$AA?5?$AA0?$AA?4?$AA5?$AA?0?$AA?5@ 00000001800327b8     tile.obj
 0002:000067e0       ??_C@_1HM@KFKBNDNL@?$AA?4?$AA2?$AA5?$AA?0?$AA?5?$AA1?$AA?0?$AA?5?$AA1?$AA?0?$AA?5?$AA?4?$AA5?$AA?5?$AA?1@ 00000001800327e0     tile.obj
 0002:00006860       ??_C@_1HG@LGFFBGEF@?$AA?4?$AA2?$AA5?$AA?0?$AA?5?$AA1?$AA?0?$AA?5?$AA?4?$AA5?$AA?5?$AA?1?$AA?5?$AA?9?$AA?4@ 0000000180032860     tile.obj
 0002:000068d8       ??_C@_1DI@OGPGLDJP@?$AA0?$AA?0?$AA?5?$AA1?$AA?0?$AA?5?$AA1?$AA?0?$AA?5?$AA?4?$AA5?$AA?5?$AA?1?$AA?5?$AA?4@ 00000001800328d8     tile.obj
 0002:00006910       ??_C@_1EG@NKHPAEJM@?$AA0?$AA?0?$AA?5?$AA1?$AA?0?$AA?5?$AA1?$AA?0?$AA?5?$AA1?$AA?0?$AA?5?$AA?4?$AA5?$AA?5@ 0000000180032910     tile.obj
 0002:00006960       ??_C@_1FC@MFPKJHBG@?$AA0?$AA?0?$AA?5?$AA1?$AA?0?$AA?5?$AA1?$AA?0?$AA?5?$AA1?$AA?0?$AA?5?$AA1?$AA?0?$AA?5@ 0000000180032960     tile.obj
 0002:000069b8       ??_C@_1CK@FBIPLABB@?$AA?4?$AA2?$AA5?$AA?0?$AA?5?$AA1?$AA?0?$AA?5?$AA?4?$AA5?$AA?5?$AA?1?$AA?5?$AA0?$AA?0@ 00000001800329b8     tile.obj
 0002:000069f0       ??_C@_1FC@LEIJMHNO@?$AA0?$AA?0?$AA1?$AA?0?$AA1?$AA?5?$AA?1?$AA?5?$AA?9?$AA?4?$AA2?$AA5?$AA?0?$AA1?$AA?0@ 00000001800329f0     tile.obj
 0002:00006a50       ??_C@_1FC@DKDGEDND@?$AA0?$AA?0?$AA1?$AA?0?$AA?4?$AA5?$AA?5?$AA?1?$AA?5?$AA?9?$AA?4?$AA2?$AA5?$AA?0?$AA1@ 0000000180032a50     tile.obj
 0002:00006ab0       ??_7?$basic_stringbuf@_WU?$char_traits@_W@std@@V?$allocator@_W@2@@std@@6B@ 0000000180032ab0     tile.obj
 0002:00006b30       ??_7?$basic_stringstream@_WU?$char_traits@_W@std@@V?$allocator@_W@2@@std@@6B@ 0000000180032b30     tile.obj
 0002:00006b38       ??_8?$basic_stringstream@_WU?$char_traits@_W@std@@V?$allocator@_W@2@@std@@7B?$basic_istream@_WU?$char_traits@_W@std@@@1@@ 0000000180032b38     tile.obj
 0002:00006b40       ??_8?$basic_stringstream@_WU?$char_traits@_W@std@@V?$allocator@_W@2@@std@@7B?$basic_ostream@_WU?$char_traits@_W@std@@@1@@ 0000000180032b40     tile.obj
 0002:00006b48       ??_C@_13DEFPDAGF@?$AA?0@   0000000180032b48     tile.obj
 0002:00006b50       ??_C@_0BI@CFPLBAOH@invalid?5string?5position@ 0000000180032b50     tile.obj
 0002:00006b68       ??_C@_0BD@OLBABOEK@vector?$DMT?$DO?5too?5long@ 0000000180032b68     tile.obj
 0002:00006b7c       __real@3dfcb924            0000000180032b7c     tile.obj
 0002:00006b80       __real@3f490fdb            0000000180032b80     tile.obj
 0002:00006b84       __real@3f9d70a4            0000000180032b84     tile.obj
 0002:00006b88       __real@3fa9999a            0000000180032b88     tile.obj
 0002:00006b8c       __real@3fb504f3            0000000180032b8c     tile.obj
 0002:00006b90       __real@403f666666666666    0000000180032b90     tile.obj
 0002:00006b98       __real@4048f5c3            0000000180032b98     tile.obj
 0002:00006b9c       __real@4096cbe4            0000000180032b9c     tile.obj
 0002:00006ba0       __real@41fb4c0b            0000000180032ba0     tile.obj
 0002:00006ba4       __real@5f800000            0000000180032ba4     tile.obj
 0002:00006bb0       __xmm@00000000000000070000000000000000 0000000180032bb0     tile.obj
 0002:00006bc0       __xmm@7fffffff7fffffff7fffffff7fffffff 0000000180032bc0     tile.obj
 0002:00006bd0       ??_C@_1BI@OJGKOPLH@?$AAW?$AAo?$AAr?$AAl?$AAe?$AAy?$AA?3?$AA?3?$AAa?$AAd?$AAd@ 0000000180032bd0     worley.obj
 0002:00006bf0       ??_C@_1FI@FFHMBLAK@?$AAg?$AA?3?$AA?2?$AAd?$AAr?$AAo?$AAp?$AAb?$AAo?$AAx?$AA?2?$AAg?$AAi?$AAt?$AAh@ 0000000180032bf0     worley.obj
 0002:00006c48       __real@3df0000000000000    0000000180032c48     worley.obj
 0002:00006c50       __real@3fd97b4a2339c0ec    0000000180032c50     worley.obj
 0002:00006c58       __real@400417ca3f5539e6    0000000180032c58     worley.obj
 0002:00006c60       __ymm@400417ca3f5539e6400417ca3f5539e6400417ca3f5539e6400417ca3f5539e6 0000000180032c60     worley.obj
 0002:00006c80       GUID_NULL                  0000000180032c80     uuid:cguid_i.obj
 0002:00006c98       ??_7type_info@@6B@         0000000180032c98     MSVCRT:std_type_info_static.obj
 0002:00006ca0       _pDefaultRawDllMain        0000000180032ca0     MSVCRT:dll_dllmain.obj
 0002:00006ca0       _pRawDllMain               0000000180032ca0     MSVCRT:dll_dllmain.obj
 0002:00006cb0       ??_7exception@std@@6B@     0000000180032cb0     MSVCRT:throw_bad_alloc.obj
 0002:00006cc0       ??_C@_0BC@EOODALEL@Unknown?5exception@ 0000000180032cc0     MSVCRT:throw_bad_alloc.obj
 0002:00006ce0       ??_7bad_alloc@std@@6B@     0000000180032ce0     MSVCRT:throw_bad_alloc.obj
 0002:00006cf0       ??_C@_0P@GHFPNOJB@bad?5allocation@ 0000000180032cf0     MSVCRT:throw_bad_alloc.obj
 0002:00006d08       ??_7bad_array_new_length@std@@6B@ 0000000180032d08     MSVCRT:throw_bad_alloc.obj
 0002:00006d18       ??_C@_0BF@KINCDENJ@bad?5array?5new?5length@ 0000000180032d18     MSVCRT:throw_bad_alloc.obj
 0002:00006d50       _load_config_used          0000000180032d50     MSVCRT:loadcfg.obj
 0002:00006e50       ??_R4TabOutOfRangeException@Util@MaxSDK@@6B@ 0000000180032e50     BerconDistortion.obj
 0002:00006e78       ??_R3TabOutOfRangeException@Util@MaxSDK@@8 0000000180032e78     BerconDistortion.obj
 0002:00006e90       ??_R2TabOutOfRangeException@Util@MaxSDK@@8 0000000180032e90     BerconDistortion.obj
 0002:00006eb8       ??_R1A@?0A@EA@TabOutOfRangeException@Util@MaxSDK@@8 0000000180032eb8     BerconDistortion.obj
 0002:00006ee0       ??_R1A@?0A@EA@OutOfRangeException@Util@MaxSDK@@8 0000000180032ee0     BerconDistortion.obj
 0002:00006f08       ??_R3OutOfRangeException@Util@MaxSDK@@8 0000000180032f08     BerconDistortion.obj
 0002:00006f20       ??_R2OutOfRangeException@Util@MaxSDK@@8 0000000180032f20     BerconDistortion.obj
 0002:00006f40       ??_R1A@?0A@EA@Exception@Util@MaxSDK@@8 0000000180032f40     BerconDistortion.obj
 0002:00006f68       ??_R3Exception@Util@MaxSDK@@8 0000000180032f68     BerconDistortion.obj
 0002:00006f80       ??_R2Exception@Util@MaxSDK@@8 0000000180032f80     BerconDistortion.obj
 0002:00006f98       ??_R17?0A@EA@MaxHeapOperators@@8 0000000180032f98     BerconDistortion.obj
 0002:00006fc0       ??_R3MaxHeapOperators@@8   0000000180032fc0     BerconDistortion.obj
 0002:00006fd8       ??_R2MaxHeapOperators@@8   0000000180032fd8     BerconDistortion.obj
 0002:00006fe8       ??_R1A@?0A@EA@MaxHeapOperators@@8 0000000180032fe8     BerconDistortion.obj
 0002:00007010       ??_R3InterfaceServer@@8    0000000180033010     BerconDistortion.obj
 0002:00007028       ??_R2InterfaceServer@@8    0000000180033028     BerconDistortion.obj
 0002:00007040       ??_R1A@?0A@EA@InterfaceServer@@8 0000000180033040     BerconDistortion.obj
 0002:00007068       ??_R3BaseInterfaceServer@@8 0000000180033068     BerconDistortion.obj
 0002:00007080       ??_R2BaseInterfaceServer@@8 0000000180033080     BerconDistortion.obj
 0002:000070a0       ??_R1A@?0A@EA@BaseInterfaceServer@@8 00000001800330a0     BerconDistortion.obj
 0002:000070c8       ??_R3ClassDesc@@8          00000001800330c8     BerconDistortion.obj
 0002:000070e0       ??_R2ClassDesc@@8          00000001800330e0     BerconDistortion.obj
 0002:000070f8       ??_R1A@?0A@EA@ClassDesc@@8 00000001800330f8     BerconDistortion.obj
 0002:00007120       ??_R17?0A@EC@MaxHeapOperators@@8 0000000180033120     BerconDistortion.obj
 0002:00007148       ??_R3Noncopyable@Util@MaxSDK@@8 0000000180033148     BerconDistortion.obj
 0002:00007160       ??_R2Noncopyable@Util@MaxSDK@@8 0000000180033160     BerconDistortion.obj
 0002:00007178       ??_R1A@?0A@EA@Noncopyable@Util@MaxSDK@@8 0000000180033178     BerconDistortion.obj
 0002:000071a0       ??_R4XYZ_Desc@@6B@         00000001800331a0     BerconDistortion.obj
 0002:000071c8       ??_R3XYZ_Desc@@8           00000001800331c8     BerconDistortion.obj
 0002:000071e0       ??_R2XYZ_Desc@@8           00000001800331e0     BerconDistortion.obj
 0002:00007220       ??_R1A@?0A@EA@XYZ_Desc@@8  0000000180033220     BerconDistortion.obj
 0002:00007248       ??_R1A@?0A@EA@ParamBlockDesc2@@8 0000000180033248     BerconDistortion.obj
 0002:00007270       ??_R3ParamBlockDesc2@@8    0000000180033270     BerconDistortion.obj
 0002:00007288       ??_R2ParamBlockDesc2@@8    0000000180033288     BerconDistortion.obj
 0002:000072c0       ??_R1BJ@?0A@EA@Noncopyable@Util@MaxSDK@@8 00000001800332c0     BerconDistortion.obj
 0002:000072e8       ??_R1BJ@?0A@EC@MaxHeapOperators@@8 00000001800332e8     BerconDistortion.obj
 0002:00007310       ??_R4BerconDistortionClassDesc@@6B@ 0000000180033310     BerconDistortion.obj
 0002:00007338       ??_R3BerconDistortionClassDesc@@8 0000000180033338     BerconDistortion.obj
 0002:00007350       ??_R2BerconDistortionClassDesc@@8 0000000180033350     BerconDistortion.obj
 0002:00007378       ??_R1A@?0A@EA@BerconDistortionClassDesc@@8 0000000180033378     BerconDistortion.obj
 0002:000073a0       ??_R1A@?0A@EA@ClassDesc2@@8 00000001800333a0     BerconDistortion.obj
 0002:000073c8       ??_R3ClassDesc2@@8         00000001800333c8     BerconDistortion.obj
 0002:000073e0       ??_R2ClassDesc2@@8         00000001800333e0     BerconDistortion.obj
 0002:00007400       ??_R4InterfaceServer@@6B@  0000000180033400     BerconDistortion.obj
 0002:00007428       ??_R4BaseInterfaceServer@@6B@ 0000000180033428     BerconDistortion.obj
 0002:00007450       ??_R4?$Tab@PEAVBaseInterface@@@@6B@ 0000000180033450     BerconDistortion.obj
 0002:00007478       ??_R3?$Tab@PEAVBaseInterface@@@@8 0000000180033478     BerconDistortion.obj
 0002:00007490       ??_R2?$Tab@PEAVBaseInterface@@@@8 0000000180033490     BerconDistortion.obj
 0002:000074a8       ??_R1A@?0A@EA@?$Tab@PEAVBaseInterface@@@@8 00000001800334a8     BerconDistortion.obj
 0002:000074d0       ??_R1A@?0A@EA@ReferenceTarget@@8 00000001800334d0     BerconDistortion.obj
 0002:000074f8       ??_R3ReferenceTarget@@8    00000001800334f8     BerconDistortion.obj
 0002:00007510       ??_R2ReferenceTarget@@8    0000000180033510     BerconDistortion.obj
 0002:00007550       ??_R1A@?0A@EA@ReferenceMaker@@8 0000000180033550     BerconDistortion.obj
 0002:00007578       ??_R3ReferenceMaker@@8     0000000180033578     BerconDistortion.obj
 0002:00007590       ??_R2ReferenceMaker@@8     0000000180033590     BerconDistortion.obj
 0002:000075c8       ??_R1A@?0A@EA@Animatable@@8 00000001800335c8     BerconDistortion.obj
 0002:000075f0       ??_R3Animatable@@8         00000001800335f0     BerconDistortion.obj
 0002:00007608       ??_R2Animatable@@8         0000000180033608     BerconDistortion.obj
 0002:00007638       ??_R18?0A@EA@Noncopyable@Util@MaxSDK@@8 0000000180033638     BerconDistortion.obj
 0002:00007660       ??_R18?0A@EC@MaxHeapOperators@@8 0000000180033660     BerconDistortion.obj
 0002:00007688       ??_R1A@?0A@EC@InterfaceServer@@8 0000000180033688     BerconDistortion.obj
 0002:000076b0       ??_R1FA@?0A@EC@MaxHeapOperators@@8 00000001800336b0     BerconDistortion.obj
 0002:000076d8       ??_R4ParamMap2UserDlgProc@@6B@ 00000001800336d8     BerconDistortion.obj
 0002:00007700       ??_R3ParamMap2UserDlgProc@@8 0000000180033700     BerconDistortion.obj
 0002:00007718       ??_R2ParamMap2UserDlgProc@@8 0000000180033718     BerconDistortion.obj
 0002:00007730       ??_R1A@?0A@EA@ParamMap2UserDlgProc@@8 0000000180033730     BerconDistortion.obj
 0002:00007758       ??_R4ShadeContext@@6B@     0000000180033758     BerconDistortion.obj
 0002:00007780       ??_R3ShadeContext@@8       0000000180033780     BerconDistortion.obj
 0002:00007798       ??_R2ShadeContext@@8       0000000180033798     BerconDistortion.obj
 0002:000077b8       ??_R1A@?0A@EA@ShadeContext@@8 00000001800337b8     BerconDistortion.obj
 0002:000077e0       ??_R4RenderGlobalContext@@6B@ 00000001800337e0     BerconDistortion.obj
 0002:00007808       ??_R3RenderGlobalContext@@8 0000000180033808     BerconDistortion.obj
 0002:00007820       ??_R2RenderGlobalContext@@8 0000000180033820     BerconDistortion.obj
 0002:00007848       ??_R1A@?0A@EA@RenderGlobalContext@@8 0000000180033848     BerconDistortion.obj
 0002:00007870       ??_R4ShadeOutput@@6B@      0000000180033870     BerconDistortion.obj
 0002:00007898       ??_R3ShadeOutput@@8        0000000180033898     BerconDistortion.obj
 0002:000078b0       ??_R2ShadeOutput@@8        00000001800338b0     BerconDistortion.obj
 0002:000078d8       ??_R1A@?0A@EA@ShadeOutput@@8 00000001800338d8     BerconDistortion.obj
 0002:00007900       ??_R3ISubMap@@8            0000000180033900     BerconDistortion.obj
 0002:00007918       ??_R2ISubMap@@8            0000000180033918     BerconDistortion.obj
 0002:00007930       ??_R1A@?0A@EA@ISubMap@@8   0000000180033930     BerconDistortion.obj
 0002:00007958       ??_R4?$Tab@PEAVVertexNormalsCallback@@@@6B@ 0000000180033958     BerconDistortion.obj
 0002:00007980       ??_R3?$Tab@PEAVVertexNormalsCallback@@@@8 0000000180033980     BerconDistortion.obj
 0002:00007998       ??_R2?$Tab@PEAVVertexNormalsCallback@@@@8 0000000180033998     BerconDistortion.obj
 0002:000079b0       ??_R1A@?0A@EA@?$Tab@PEAVVertexNormalsCallback@@@@8 00000001800339b0     BerconDistortion.obj
 0002:000079d8       ??_R4BerconSC@@6BShadeContext@@@ 00000001800339d8     BerconDistortion.obj
 0002:00007a00       ??_R3BerconSC@@8           0000000180033a00     BerconDistortion.obj
 0002:00007a20       ??_R2BerconSC@@8           0000000180033a20     BerconDistortion.obj
 0002:00007a68       ??_R1A@?0A@EA@BerconSC@@8  0000000180033a68     BerconDistortion.obj
 0002:00007a90       ??_R1CJA@?0A@EA@RenderGlobalContext@@8 0000000180033a90     BerconDistortion.obj
 0002:00007ab8       ??_R1CJA@?0A@EA@BaseInterfaceServer@@8 0000000180033ab8     BerconDistortion.obj
 0002:00007ae0       ??_R1CJA@?0A@EC@InterfaceServer@@8 0000000180033ae0     BerconDistortion.obj
 0002:00007b08       ??_R1CJI@?0A@EC@MaxHeapOperators@@8 0000000180033b08     BerconDistortion.obj
 0002:00007b30       ??_R4BerconSC@@6BRenderGlobalContext@@@ 0000000180033b30     BerconDistortion.obj
 0002:00007b58       ??_R4BerconXYZDlgProc@@6B@ 0000000180033b58     BerconDistortion.obj
 0002:00007b80       ??_R3BerconXYZDlgProc@@8   0000000180033b80     BerconDistortion.obj
 0002:00007b98       ??_R2BerconXYZDlgProc@@8   0000000180033b98     BerconDistortion.obj
 0002:00007bb8       ??_R1A@?0A@EA@BerconXYZDlgProc@@8 0000000180033bb8     BerconDistortion.obj
 0002:00007be0       ??_R4BerconDistortion@@6BReferenceTarget@@@ 0000000180033be0     BerconDistortion.obj
 0002:00007c08       ??_R3BerconDistortion@@8   0000000180033c08     BerconDistortion.obj
 0002:00007c20       ??_R2BerconDistortion@@8   0000000180033c20     BerconDistortion.obj
 0002:00007c88       ??_R1A@?0A@EA@BerconDistortion@@8 0000000180033c88     BerconDistortion.obj
 0002:00007cb0       ??_R1A@?0A@EA@Texmap@@8    0000000180033cb0     BerconDistortion.obj
 0002:00007cd8       ??_R3Texmap@@8             0000000180033cd8     BerconDistortion.obj
 0002:00007cf0       ??_R2Texmap@@8             0000000180033cf0     BerconDistortion.obj
 0002:00007d50       ??_R1A@?0A@EA@MtlBase@@8   0000000180033d50     BerconDistortion.obj
 0002:00007d78       ??_R3MtlBase@@8            0000000180033d78     BerconDistortion.obj
 0002:00007d90       ??_R2MtlBase@@8            0000000180033d90     BerconDistortion.obj
 0002:00007de8       ??_R1EI@?0A@EA@ISubMap@@8  0000000180033de8     BerconDistortion.obj
 0002:00007e10       ??_R4BerconDistortion@@6BISubMap@@@ 0000000180033e10     BerconDistortion.obj
 0002:00007e38       ??_R4BerconGradientClassDesc@@6B@ 0000000180033e38     BerconGradient.obj
 0002:00007e60       ??_R3BerconGradientClassDesc@@8 0000000180033e60     BerconGradient.obj
 0002:00007e78       ??_R2BerconGradientClassDesc@@8 0000000180033e78     BerconGradient.obj
 0002:00007ea0       ??_R1A@?0A@EA@BerconGradientClassDesc@@8 0000000180033ea0     BerconGradient.obj
 0002:00007ec8       ??_R4ICustomControl@@6B@   0000000180033ec8     BerconGradient.obj
 0002:00007ef0       ??_R3ICustomControl@@8     0000000180033ef0     BerconGradient.obj
 0002:00007f08       ??_R2ICustomControl@@8     0000000180033f08     BerconGradient.obj
 0002:00007f28       ??_R1A@?0A@EA@ICustomControl@@8 0000000180033f28     BerconGradient.obj
 0002:00007f50       ??_R3ResourceMakerCallback@@8 0000000180033f50     BerconGradient.obj
 0002:00007f68       ??_R2ResourceMakerCallback@@8 0000000180033f68     BerconGradient.obj
 0002:00007f80       ??_R1A@?0A@EA@ResourceMakerCallback@@8 0000000180033f80     BerconGradient.obj
 0002:00007fa8       ??_R3GradientMap@@8        0000000180033fa8     BerconGradient.obj
 0002:00007fc0       ??_R2GradientMap@@8        0000000180033fc0     BerconGradient.obj
 0002:00007fd0       ??_R1A@?0A@EA@GradientMap@@8 0000000180033fd0     BerconGradient.obj
 0002:00007ff8       ??_R4IGradient@@6B@        0000000180033ff8     BerconGradient.obj
 0002:00008020       ??_R3IGradient@@8          0000000180034020     BerconGradient.obj
 0002:00008038       ??_R2IGradient@@8          0000000180034038     BerconGradient.obj
 0002:00008060       ??_R1A@?0A@EA@IGradient@@8 0000000180034060     BerconGradient.obj
 0002:00008088       ??_R4BerconGradient@@6BReferenceTarget@@@ 0000000180034088     BerconGradient.obj
 0002:000080b0       ??_R3BerconGradient@@8     00000001800340b0     BerconGradient.obj
 0002:000080d0       ??_R2BerconGradient@@8     00000001800340d0     BerconGradient.obj
 0002:00008150       ??_R1A@?0A@EA@BerconGradient@@8 0000000180034150     BerconGradient.obj
 0002:00008178       ??_R1JA@?0A@EA@GradientMap@@8 0000000180034178     BerconGradient.obj
 0002:000081a0       ??_R1JI@?0A@EA@ResourceMakerCallback@@8 00000001800341a0     BerconGradient.obj
 0002:000081c8       ??_R1KA@?0A@EC@MaxHeapOperators@@8 00000001800341c8     BerconGradient.obj
 0002:000081f0       ??_R4BerconGradient@@6BISubMap@@@ 00000001800341f0     BerconGradient.obj
 0002:00008218       ??_R4BerconGradient@@6BGradientMap@@@ 0000000180034218     BerconGradient.obj
 0002:00008240       ??_R4BerconGradient@@6BResourceMakerCallback@@@ 0000000180034240     BerconGradient.obj
 0002:00008268       ??_R4BerconGradientDlgProc@@6B@ 0000000180034268     BerconGradient.obj
 0002:00008290       ??_R3BerconGradientDlgProc@@8 0000000180034290     BerconGradient.obj
 0002:000082a8       ??_R2BerconGradientDlgProc@@8 00000001800342a8     BerconGradient.obj
 0002:000082c8       ??_R1A@?0A@EA@BerconGradientDlgProc@@8 00000001800342c8     BerconGradient.obj
 0002:000082f0       ??_R4BerconTileClassDesc@@6B@ 00000001800342f0     BerconTile.obj
 0002:00008318       ??_R3BerconTileClassDesc@@8 0000000180034318     BerconTile.obj
 0002:00008330       ??_R2BerconTileClassDesc@@8 0000000180034330     BerconTile.obj
 0002:00008358       ??_R1A@?0A@EA@BerconTileClassDesc@@8 0000000180034358     BerconTile.obj
 0002:00008380       ??_R4BerconTile@@6BReferenceTarget@@@ 0000000180034380     BerconTile.obj
 0002:000083a8       ??_R3BerconTile@@8         00000001800343a8     BerconTile.obj
 0002:000083c0       ??_R2BerconTile@@8         00000001800343c0     BerconTile.obj
 0002:00008438       ??_R1A@?0A@EA@BerconTile@@8 0000000180034438     BerconTile.obj
 0002:00008460       ??_R4BerconTile@@6BISubMap@@@ 0000000180034460     BerconTile.obj
 0002:00008488       ??_R4BerconTile@@6B@       0000000180034488     BerconTile.obj
 0002:000084b0       ??_R4BerconTileDlgProc@@6B@ 00000001800344b0     BerconTile.obj
 0002:000084d8       ??_R3BerconTileDlgProc@@8  00000001800344d8     BerconTile.obj
 0002:000084f0       ??_R2BerconTileDlgProc@@8  00000001800344f0     BerconTile.obj
 0002:00008510       ??_R1A@?0A@EA@BerconTileDlgProc@@8 0000000180034510     BerconTile.obj
 0002:00008538       ??_R4BerconWoodClassDesc@@6B@ 0000000180034538     BerconWood.obj
 0002:00008560       ??_R3BerconWoodClassDesc@@8 0000000180034560     BerconWood.obj
 0002:00008578       ??_R2BerconWoodClassDesc@@8 0000000180034578     BerconWood.obj
 0002:000085a0       ??_R1A@?0A@EA@BerconWoodClassDesc@@8 00000001800345a0     BerconWood.obj
 0002:000085c8       ??_R4BerconWood@@6BReferenceTarget@@@ 00000001800345c8     BerconWood.obj
 0002:000085f0       ??_R3BerconWood@@8         00000001800345f0     BerconWood.obj
 0002:00008610       ??_R2BerconWood@@8         0000000180034610     BerconWood.obj
 0002:00008688       ??_R1A@?0A@EA@BerconWood@@8 0000000180034688     BerconWood.obj
 0002:000086b0       ??_R4BerconWood@@6BISubMap@@@ 00000001800346b0     BerconWood.obj
 0002:000086d8       ??_R4BerconWood@@6B@       00000001800346d8     BerconWood.obj
 0002:00008700       ??_R4BerconWoodDlgProc@@6B@ 0000000180034700     BerconWood.obj
 0002:00008728       ??_R3BerconWoodDlgProc@@8  0000000180034728     BerconWood.obj
 0002:00008740       ??_R2BerconWoodDlgProc@@8  0000000180034740     BerconWood.obj
 0002:00008760       ??_R1A@?0A@EA@BerconWoodDlgProc@@8 0000000180034760     BerconWood.obj
 0002:00008788       ??_R4BerconNoiseClassDesc@@6B@ 0000000180034788     BerconNoise.obj
 0002:000087b0       ??_R3BerconNoiseClassDesc@@8 00000001800347b0     BerconNoise.obj
 0002:000087c8       ??_R2BerconNoiseClassDesc@@8 00000001800347c8     BerconNoise.obj
 0002:000087f0       ??_R1A@?0A@EA@BerconNoiseClassDesc@@8 00000001800347f0     BerconNoise.obj
 0002:00008818       ??_R4BerconNoise@@6BReferenceTarget@@@ 0000000180034818     BerconNoise.obj
 0002:00008840       ??_R3BerconNoise@@8        0000000180034840     BerconNoise.obj
 0002:00008860       ??_R2BerconNoise@@8        0000000180034860     BerconNoise.obj
 0002:000088d8       ??_R1A@?0A@EA@BerconNoise@@8 00000001800348d8     BerconNoise.obj
 0002:00008900       ??_R4BerconNoise@@6BISubMap@@@ 0000000180034900     BerconNoise.obj
 0002:00008928       ??_R4BerconNoise@@6B@      0000000180034928     BerconNoise.obj
 0002:00008950       ??_R4BerconNoiseDlgProc@@6B@ 0000000180034950     BerconNoise.obj
 0002:00008978       ??_R3BerconNoiseDlgProc@@8 0000000180034978     BerconNoise.obj
 0002:00008990       ??_R2BerconNoiseDlgProc@@8 0000000180034990     BerconNoise.obj
 0002:000089b0       ??_R1A@?0A@EA@BerconNoiseDlgProc@@8 00000001800349b0     BerconNoise.obj
 0002:000089d8       ??_R4?$basic_stringbuf@_WU?$char_traits@_W@std@@V?$allocator@_W@2@@std@@6B@ 00000001800349d8     tile.obj
 0002:00008a00       ??_R3?$basic_stringbuf@_WU?$char_traits@_W@std@@V?$allocator@_W@2@@std@@8 0000000180034a00     tile.obj
 0002:00008a18       ??_R2?$basic_stringbuf@_WU?$char_traits@_W@std@@V?$allocator@_W@2@@std@@8 0000000180034a18     tile.obj
 0002:00008a30       ??_R1A@?0A@EA@?$basic_stringbuf@_WU?$char_traits@_W@std@@V?$allocator@_W@2@@std@@8 0000000180034a30     tile.obj
 0002:00008a58       ??_R1A@?0A@EA@?$basic_streambuf@_WU?$char_traits@_W@std@@@std@@8 0000000180034a58     tile.obj
 0002:00008a80       ??_R3?$basic_streambuf@_WU?$char_traits@_W@std@@@std@@8 0000000180034a80     tile.obj
 0002:00008a98       ??_R2?$basic_streambuf@_WU?$char_traits@_W@std@@@std@@8 0000000180034a98     tile.obj
 0002:00008aa8       ??_R4?$basic_stringstream@_WU?$char_traits@_W@std@@V?$allocator@_W@2@@std@@6B@ 0000000180034aa8     tile.obj
 0002:00008ad0       ??_R3?$basic_stringstream@_WU?$char_traits@_W@std@@V?$allocator@_W@2@@std@@8 0000000180034ad0     tile.obj
 0002:00008af0       ??_R2?$basic_stringstream@_WU?$char_traits@_W@std@@V?$allocator@_W@2@@std@@8 0000000180034af0     tile.obj
 0002:00008b48       ??_R1A@?0A@EA@?$basic_stringstream@_WU?$char_traits@_W@std@@V?$allocator@_W@2@@std@@8 0000000180034b48     tile.obj
 0002:00008b70       ??_R1A@?0A@EA@?$basic_iostream@_WU?$char_traits@_W@std@@@std@@8 0000000180034b70     tile.obj
 0002:00008b98       ??_R3?$basic_iostream@_WU?$char_traits@_W@std@@@std@@8 0000000180034b98     tile.obj
 0002:00008bb0       ??_R2?$basic_iostream@_WU?$char_traits@_W@std@@@std@@8 0000000180034bb0     tile.obj
 0002:00008c00       ??_R1A@?0A@EA@?$basic_istream@_WU?$char_traits@_W@std@@@std@@8 0000000180034c00     tile.obj
 0002:00008c28       ??_R3?$basic_istream@_WU?$char_traits@_W@std@@@std@@8 0000000180034c28     tile.obj
 0002:00008c40       ??_R2?$basic_istream@_WU?$char_traits@_W@std@@@std@@8 0000000180034c40     tile.obj
 0002:00008c68       ??_R1A@A@3FA@?$basic_ios@_WU?$char_traits@_W@std@@@std@@8 0000000180034c68     tile.obj
 0002:00008c90       ??_R3?$basic_ios@_WU?$char_traits@_W@std@@@std@@8 0000000180034c90     tile.obj
 0002:00008ca8       ??_R2?$basic_ios@_WU?$char_traits@_W@std@@@std@@8 0000000180034ca8     tile.obj
 0002:00008cc8       ??_R1A@?0A@EA@?$basic_ios@_WU?$char_traits@_W@std@@@std@@8 0000000180034cc8     tile.obj
 0002:00008cf0       ??_R1A@?0A@EA@ios_base@std@@8 0000000180034cf0     tile.obj
 0002:00008d18       ??_R3ios_base@std@@8       0000000180034d18     tile.obj
 0002:00008d30       ??_R2ios_base@std@@8       0000000180034d30     tile.obj
 0002:00008d48       ??_R17?0A@EA@?$_Iosb@H@std@@8 0000000180034d48     tile.obj
 0002:00008d70       ??_R3?$_Iosb@H@std@@8      0000000180034d70     tile.obj
 0002:00008d88       ??_R2?$_Iosb@H@std@@8      0000000180034d88     tile.obj
 0002:00008d98       ??_R1A@?0A@EA@?$_Iosb@H@std@@8 0000000180034d98     tile.obj
 0002:00008dc0       ??_R1A@A@3EA@ios_base@std@@8 0000000180034dc0     tile.obj
 0002:00008de8       ??_R17A@3EA@?$_Iosb@H@std@@8 0000000180034de8     tile.obj
 0002:00008e10       ??_R1BA@?0A@EA@?$basic_ostream@_WU?$char_traits@_W@std@@@std@@8 0000000180034e10     tile.obj
 0002:00008e38       ??_R3?$basic_ostream@_WU?$char_traits@_W@std@@@std@@8 0000000180034e38     tile.obj
 0002:00008e50       ??_R2?$basic_ostream@_WU?$char_traits@_W@std@@@std@@8 0000000180034e50     tile.obj
 0002:00008e78       ??_R1A@?0A@EA@?$basic_ostream@_WU?$char_traits@_W@std@@@std@@8 0000000180034e78     tile.obj
 0002:00008ea0       ??_R4type_info@@6B@        0000000180034ea0     MSVCRT:std_type_info_static.obj
 0002:00008ec8       ??_R3type_info@@8          0000000180034ec8     MSVCRT:std_type_info_static.obj
 0002:00008ee0       ??_R2type_info@@8          0000000180034ee0     MSVCRT:std_type_info_static.obj
 0002:00008ef0       ??_R1A@?0A@EA@type_info@@8 0000000180034ef0     MSVCRT:std_type_info_static.obj
 0002:00008f18       ??_R4exception@std@@6B@    0000000180034f18     MSVCRT:throw_bad_alloc.obj
 0002:00008f40       ??_R3exception@std@@8      0000000180034f40     MSVCRT:throw_bad_alloc.obj
 0002:00008f58       ??_R2exception@std@@8      0000000180034f58     MSVCRT:throw_bad_alloc.obj
 0002:00008f68       ??_R1A@?0A@EA@exception@std@@8 0000000180034f68     MSVCRT:throw_bad_alloc.obj
 0002:00008f90       ??_R4bad_alloc@std@@6B@    0000000180034f90     MSVCRT:throw_bad_alloc.obj
 0002:00008fb8       ??_R3bad_alloc@std@@8      0000000180034fb8     MSVCRT:throw_bad_alloc.obj
 0002:00008fd0       ??_R2bad_alloc@std@@8      0000000180034fd0     MSVCRT:throw_bad_alloc.obj
 0002:00008fe8       ??_R1A@?0A@EA@bad_alloc@std@@8 0000000180034fe8     MSVCRT:throw_bad_alloc.obj
 0002:00009010       ??_R4bad_array_new_length@std@@6B@ 0000000180035010     MSVCRT:throw_bad_alloc.obj
 0002:00009038       ??_R3bad_array_new_length@std@@8 0000000180035038     MSVCRT:throw_bad_alloc.obj
 0002:00009050       ??_R2bad_array_new_length@std@@8 0000000180035050     MSVCRT:throw_bad_alloc.obj
 0002:00009070       ??_R1A@?0A@EA@bad_array_new_length@std@@8 0000000180035070     MSVCRT:throw_bad_alloc.obj
 0002:00009348       __rtc_iaa                  0000000180035348     MSVCRT:initsect.obj
 0002:00009350       __rtc_izz                  0000000180035350     MSVCRT:initsect.obj
 0002:00009358       __rtc_taa                  0000000180035358     MSVCRT:initsect.obj
 0002:00009360       __rtc_tzz                  0000000180035360     MSVCRT:initsect.obj
 0002:0000cca8       _TI4?AVTabOutOfRangeException@Util@MaxSDK@@ 0000000180038ca8     BerconDistortion.obj
 0002:0000ccc8       _CTA4?AVTabOutOfRangeException@Util@MaxSDK@@ 0000000180038cc8     BerconDistortion.obj
 0002:0000ccf0       _CT??_R0?AVTabOutOfRangeException@Util@MaxSDK@@@8??0TabOutOfRangeException@Util@MaxSDK@@QEAA@AEBV012@@Z16 0000000180038cf0     BerconDistortion.obj
 0002:0000cd18       _CT??_R0?AVOutOfRangeException@Util@MaxSDK@@@8??0OutOfRangeException@Util@MaxSDK@@QEAA@AEBV012@@Z16 0000000180038d18     BerconDistortion.obj
 0002:0000cd40       _CT??_R0?AVException@Util@MaxSDK@@@8??0Exception@Util@MaxSDK@@QEAA@AEBV012@@Z16 0000000180038d40     BerconDistortion.obj
 0002:0000cd68       _CT??_R0?AVMaxHeapOperators@@@818 0000000180038d68     BerconDistortion.obj
 0002:0000cd90       _TI2?AVbad_alloc@std@@     0000000180038d90     MSVCRT:throw_bad_alloc.obj
 0002:0000cdb0       _CTA2?AVbad_alloc@std@@    0000000180038db0     MSVCRT:throw_bad_alloc.obj
 0002:0000cdc8       _CT??_R0?AVbad_alloc@std@@@8??0bad_alloc@std@@QEAA@AEBV01@@Z24 0000000180038dc8     MSVCRT:throw_bad_alloc.obj
 0002:0000cdf0       _CT??_R0?AVexception@std@@@8??0exception@std@@QEAA@AEBV01@@Z24 0000000180038df0     MSVCRT:throw_bad_alloc.obj
 0002:0000ce18       _TI3?AVbad_array_new_length@std@@ 0000000180038e18     MSVCRT:throw_bad_alloc.obj
 0002:0000ce38       _CTA3?AVbad_array_new_length@std@@ 0000000180038e38     MSVCRT:throw_bad_alloc.obj
 0002:0000ce58       _CT??_R0?AVbad_array_new_length@std@@@8??0bad_array_new_length@std@@QEAA@AEBV01@@Z24 0000000180038e58     MSVCRT:throw_bad_alloc.obj
 0002:0000cf84       __IMPORT_DESCRIPTOR_core   0000000180038f84     core:core.dll
 0002:0000cf98       __IMPORT_DESCRIPTOR_geom   0000000180038f98     geom:geom.dll
 0002:0000cfac       __IMPORT_DESCRIPTOR_MAXScrpt 0000000180038fac     Maxscrpt:MAXScrpt.dll
 0002:0000cfc0       __IMPORT_DESCRIPTOR_maxutil 0000000180038fc0     maxutil:maxutil.dll
 0002:0000cfd4       __IMPORT_DESCRIPTOR_ParamBlk2 0000000180038fd4     Paramblk2:ParamBlk2.dll
 0002:0000cfe8       __IMPORT_DESCRIPTOR_KERNEL32 0000000180038fe8     kernel32:KERNEL32.dll
 0002:0000cffc       __IMPORT_DESCRIPTOR_USER32 0000000180038ffc     user32:USER32.dll
 0002:0000d010       __IMPORT_DESCRIPTOR_GDI32  0000000180039010     gdi32:GDI32.dll
 0002:0000d024       __IMPORT_DESCRIPTOR_MSVCP140 0000000180039024     msvcprt:MSVCP140.dll
 0002:0000d038       __IMPORT_DESCRIPTOR_VCRUNTIME140 0000000180039038     vcruntime:VCRUNTIME140.dll
 0002:0000d04c       __IMPORT_DESCRIPTOR_api-ms-win-crt-utility-l1-1-0 000000018003904c     ucrt:api-ms-win-crt-utility-l1-1-0.dll
 0002:0000d060       __IMPORT_DESCRIPTOR_api-ms-win-crt-math-l1-1-0 0000000180039060     ucrt:api-ms-win-crt-math-l1-1-0.dll
 0002:0000d074       __IMPORT_DESCRIPTOR_api-ms-win-crt-runtime-l1-1-0 0000000180039074     ucrt:api-ms-win-crt-runtime-l1-1-0.dll
 0002:0000d088       __IMPORT_DESCRIPTOR_api-ms-win-crt-heap-l1-1-0 0000000180039088     ucrt:api-ms-win-crt-heap-l1-1-0.dll
 0002:0000d09c       __NULL_IMPORT_DESCRIPTOR   000000018003909c     core:core.dll
 0003:00000000       WinbaseIsolationAwarePrivateT_UnPgpgk 000000018003d000     BerconDistortion.obj
 0003:000006f8       __scrt_native_dllmain_reason 000000018003d6f8     MSVCRT:utility.obj
 0003:000006fc       _fltused                   000000018003d6fc     MSVCRT:fltused.obj
 0003:00000700       __isa_available            000000018003d700     MSVCRT:cpu_disp.obj
 0003:00000704       __isa_enabled              000000018003d704     MSVCRT:cpu_disp.obj
 0003:00000708       __memcpy_nt_iters          000000018003d708     MSVCRT:cpu_disp.obj
 0003:00000710       __security_cookie_complement 000000018003d710     MSVCRT:gs_cookie.obj
 0003:00000718       __security_cookie          000000018003d718     MSVCRT:gs_cookie.obj
 0003:00000720       __scrt_ucrt_dll_is_in_use  000000018003d720     MSVCRT:ucrt_stubs.obj
 0003:00000730       ??_R0?AVTabOutOfRangeException@Util@MaxSDK@@@8 000000018003d730     BerconDistortion.obj
 0003:00000770       ??_R0?AVOutOfRangeException@Util@MaxSDK@@@8 000000018003d770     BerconDistortion.obj
 0003:000007a8       ??_R0?AVException@Util@MaxSDK@@@8 000000018003d7a8     BerconDistortion.obj
 0003:000007d8       ??_R0?AVInterfaceServer@@@8 000000018003d7d8     BerconDistortion.obj
 0003:00000800       ??_R0?AVBaseInterfaceServer@@@8 000000018003d800     BerconDistortion.obj
 0003:00000830       ??_R0?AVClassDesc@@@8      000000018003d830     BerconDistortion.obj
 0003:00000850       ??_R0?AVNoncopyable@Util@MaxSDK@@@8 000000018003d850     BerconDistortion.obj
 0003:00000880       ??_R0?AVXYZ_Desc@@@8       000000018003d880     BerconDistortion.obj
 0003:000008a0       ??_R0?AVParamBlockDesc2@@@8 000000018003d8a0     BerconDistortion.obj
 0003:000008c8       ??_R0?AVBerconDistortionClassDesc@@@8 000000018003d8c8     BerconDistortion.obj
 0003:000008f8       ??_R0?AVClassDesc2@@@8     000000018003d8f8     BerconDistortion.obj
 0003:00000920       ??_R0?AVMaxHeapOperators@@@8 000000018003d920     BerconDistortion.obj
 0003:00000948       ??_R0?AV?$Tab@PEAVBaseInterface@@@@@8 000000018003d948     BerconDistortion.obj
 0003:00000978       ??_R0?AVReferenceTarget@@@8 000000018003d978     BerconDistortion.obj
 0003:000009a0       ??_R0?AVReferenceMaker@@@8 000000018003d9a0     BerconDistortion.obj
 0003:000009c8       ??_R0?AVAnimatable@@@8     000000018003d9c8     BerconDistortion.obj
 0003:000009f0       ??_R0?AVParamMap2UserDlgProc@@@8 000000018003d9f0     BerconDistortion.obj
 0003:00000a20       ??_R0?AVShadeContext@@@8   000000018003da20     BerconDistortion.obj
 0003:00000a48       ??_R0?AVRenderGlobalContext@@@8 000000018003da48     BerconDistortion.obj
 0003:00000a78       ??_R0?AVShadeOutput@@@8    000000018003da78     BerconDistortion.obj
 0003:00000aa0       ??_R0?AVISubMap@@@8        000000018003daa0     BerconDistortion.obj
 0003:00000ac0       ??_R0?AV?$Tab@PEAVVertexNormalsCallback@@@@@8 000000018003dac0     BerconDistortion.obj
 0003:00000af8       ??_R0?AVBerconSC@@@8       000000018003daf8     BerconDistortion.obj
 0003:00000b18       ??_R0?AVBerconXYZDlgProc@@@8 000000018003db18     BerconDistortion.obj
 0003:00000b40       ??_R0?AVBerconDistortion@@@8 000000018003db40     BerconDistortion.obj
 0003:00000b68       ??_R0?AVTexmap@@@8         000000018003db68     BerconDistortion.obj
 0003:00000b88       ??_R0?AVMtlBase@@@8        000000018003db88     BerconDistortion.obj
 0003:00000ba8       ??_R0?AVBerconGradientClassDesc@@@8 000000018003dba8     BerconGradient.obj
 0003:00000bd8       ??_R0?AVICustomControl@@@8 000000018003dbd8     BerconGradient.obj
 0003:00000c00       ??_R0?AVResourceMakerCallback@@@8 000000018003dc00     BerconGradient.obj
 0003:00000c30       ??_R0?AVGradientMap@@@8    000000018003dc30     BerconGradient.obj
 0003:00000c58       ??_R0?AVIGradient@@@8      000000018003dc58     BerconGradient.obj
 0003:00000c78       ??_R0?AVBerconGradient@@@8 000000018003dc78     BerconGradient.obj
 0003:00000ca0       ??_R0?AVBerconGradientDlgProc@@@8 000000018003dca0     BerconGradient.obj
 0003:00000cd0       ??_R0?AVBerconTileClassDesc@@@8 000000018003dcd0     BerconTile.obj
 0003:00000d00       ??_R0?AVBerconTile@@@8     000000018003dd00     BerconTile.obj
 0003:00000d28       ??_R0?AVBerconTileDlgProc@@@8 000000018003dd28     BerconTile.obj
 0003:00000d50       ??_R0?AVBerconWoodClassDesc@@@8 000000018003dd50     BerconWood.obj
 0003:00000d80       ??_R0?AVBerconWood@@@8     000000018003dd80     BerconWood.obj
 0003:00000da8       ??_R0?AVBerconWoodDlgProc@@@8 000000018003dda8     BerconWood.obj
 0003:00000dd0       ??_R0?AVBerconNoiseClassDesc@@@8 000000018003ddd0     BerconNoise.obj
 0003:00000e00       ??_R0?AVBerconNoise@@@8    000000018003de00     BerconNoise.obj
 0003:00000e28       ??_R0?AVBerconNoiseDlgProc@@@8 000000018003de28     BerconNoise.obj
 0003:00000e60       ??_R0?AV?$basic_stringbuf@_WU?$char_traits@_W@std@@V?$allocator@_W@2@@std@@@8 000000018003de60     tile.obj
 0003:00000ec0       ??_R0?AV?$basic_streambuf@_WU?$char_traits@_W@std@@@std@@@8 000000018003dec0     tile.obj
 0003:00000f10       ??_R0?AV?$basic_stringstream@_WU?$char_traits@_W@std@@V?$allocator@_W@2@@std@@@8 000000018003df10     tile.obj
 0003:00000f70       ??_R0?AV?$basic_iostream@_WU?$char_traits@_W@std@@@std@@@8 000000018003df70     tile.obj
 0003:00000fc0       ??_R0?AV?$basic_istream@_WU?$char_traits@_W@std@@@std@@@8 000000018003dfc0     tile.obj
 0003:00001010       ??_R0?AV?$basic_ios@_WU?$char_traits@_W@std@@@std@@@8 000000018003e010     tile.obj
 0003:00001050       ??_R0?AVios_base@std@@@8   000000018003e050     tile.obj
 0003:00001078       ??_R0?AV?$_Iosb@H@std@@@8  000000018003e078     tile.obj
 0003:000010a0       ??_R0?AV?$basic_ostream@_WU?$char_traits@_W@std@@@std@@@8 000000018003e0a0     tile.obj
 0003:000010e8       ??_R0?AVtype_info@@@8      000000018003e0e8     MSVCRT:std_type_info_static.obj
 0003:00001108       ??_R0?AVbad_alloc@std@@@8  000000018003e108     MSVCRT:throw_bad_alloc.obj
 0003:00001130       ??_R0?AVexception@std@@@8  000000018003e130     MSVCRT:throw_bad_alloc.obj
 0003:00001158       ??_R0?AVbad_array_new_length@std@@@8 000000018003e158     MSVCRT:throw_bad_alloc.obj
 0003:00001190       IsolationAwarePrivateT_SqbjaYRiRY 000000018003e190     BerconDistortion.obj
 0003:00001194       IsolationAwarePrivateT_SAbnPgpgk 000000018003e194     BerconDistortion.obj
 0003:00001198       WinbaseIsolationAwarePrivateT_SpeRNgRQnPgpgk 000000018003e198     BerconDistortion.obj
 0003:0000119c       WinbaseIsolationAwarePrivateT_SpYRNahcpNYYRQ 000000018003e19c     BerconDistortion.obj
 0003:00001340       ?texoutDlg@BerconGradient@@2PEAVParamDlg@@EA 000000018003e340     BerconGradient.obj
 0003:000014f0       ?texoutDlg@BerconTile@@2PEAVParamDlg@@EA 000000018003e4f0     BerconTile.obj
 0003:00001740       ?texoutDlg@BerconWood@@2PEAVParamDlg@@EA 000000018003e740     BerconWood.obj
 0003:000019a0       ?controlsInit@@3HA         000000018003e9a0     DllEntry.obj
 0003:000019a8       ?hInstance@@3PEAUHINSTANCE__@@EA 000000018003e9a8     DllEntry.obj
 0003:000019c0       ?s_pfn@?1??IsolationAwareInitCommonControls@@9@4P6AXXZEA 000000018003e9c0     DllEntry.obj
 0003:000019c8       ?m@?1??CommctrlIsolationAwarePrivatetRgCebPnQQeRff_pbZPgYQP_QYY@@9@4UIsolationAwarePrivate_zHGnoyr_zBqHyr_vAsB@@A 000000018003e9c8     DllEntry.obj
 0003:00001be0       ?texoutDlg@BerconNoise@@2PEAVParamDlg@@EA 000000018003ebe0     BerconNoise.obj
 0003:00001ea0       __scrt_current_native_startup_state 000000018003eea0     MSVCRT:utility.obj
 0003:00001ea8       __scrt_native_startup_lock 000000018003eea8     MSVCRT:utility.obj
 0003:00001eec       __favor                    000000018003eeec     MSVCRT:cpu_disp.obj
 0003:00001ef0       __scrt_debugger_hook_flag  000000018003eef0     MSVCRT:utility_desktop.obj
 0003:00001f00       ?__type_info_root_node@@3U__type_info_node@@A 000000018003ef00     MSVCRT:tncleanup.obj
 0003:00001f10       ?_OptionsStorage@?1??__local_stdio_printf_options@@9@4_KA 000000018003ef10     MSVCRT:default_local_stdio_options.obj
 0003:00001f18       ?_OptionsStorage@?1??__local_stdio_scanf_options@@9@4_KA 000000018003ef18     MSVCRT:default_local_stdio_options.obj
 0003:00001f20       __dyn_tls_init_callback    000000018003ef20     <common>

 entry point at        0001:0002913c

 Static symbols

 0001:00000000       ??__EBerconDistortionDesc@@YAXXZ 0000000180001000 f   BerconDistortion.obj
 0001:00000040       ??__EBerconDistortion_param_blk@@YAXXZ 0000000180001040 f   BerconDistortion.obj
 0001:00000380       ??__EkInvalidId@AssetManagement@MaxSDK@@YAXXZ 0000000180001380 f   BerconDistortion.obj
 0001:000003a0       ??__Exyz_blk@@YAXXZ        00000001800013a0 f   BerconDistortion.obj
 0001:00000400       ??__EBerconGradientDesc@@YAXXZ 0000000180001400 f   BerconGradient.obj
 0001:00000440       ??__Egradientmap_param_blk@@YAXXZ 0000000180001440 f   BerconGradient.obj
 0001:000012b0       ??__EkInvalidId@AssetManagement@MaxSDK@@YAXXZ 00000001800022b0 f   BerconGradient.obj
 0001:000012d0       ??__Exyz_blk@@YAXXZ        00000001800022d0 f   BerconGradient.obj
 0001:00001330       ??__EBerconMap_param_blk@@YAXXZ 0000000180002330 f   BerconTile.obj
 0001:00001590       ??__EBerconTileDesc@@YAXXZ 0000000180002590 f   BerconTile.obj
 0001:000015d0       ??__EBerconTile_param_blk@@YAXXZ 00000001800025d0 f   BerconTile.obj
 0001:00003080       ??__EkInvalidId@AssetManagement@MaxSDK@@YAXXZ 0000000180004080 f   BerconTile.obj
 0001:000030a0       ??__Exyz_blk@@YAXXZ        00000001800040a0 f   BerconTile.obj
 0001:000030f0       ??__EBerconMap_param_blk@@YAXXZ 00000001800040f0 f   BerconWood.obj
 0001:000041e0       ??__EBerconWoodDesc@@YAXXZ 00000001800051e0 f   BerconWood.obj
 0001:00004220       ??__EBerconWood_param_blk@@YAXXZ 0000000180005220 f   BerconWood.obj
 0001:00005810       ??__EkInvalidId@AssetManagement@MaxSDK@@YAXXZ 0000000180006810 f   BerconWood.obj
 0001:00005830       ??__Exyz_blk@@YAXXZ        0000000180006830 f   BerconWood.obj
 0001:00005880       ??__EkInvalidId@AssetManagement@MaxSDK@@YAXXZ 0000000180006880 f   DllEntry.obj
 0001:000058a0       ??__EkInvalidId@AssetManagement@MaxSDK@@YAXXZ 00000001800068a0 f   BerconCommon.obj
 0001:000058c0       ??__EBerconMap_param_blk@@YAXXZ 00000001800068c0 f   BerconNoise.obj
 0001:00006790       ??__EBerconNoiseDesc@@YAXXZ 0000000180007790 f   BerconNoise.obj
 0001:000067d0       ??__Eberconnoise_param_blk@@YAXXZ 00000001800077d0 f   BerconNoise.obj
 0001:00007940       ??__EkInvalidId@AssetManagement@MaxSDK@@YAXXZ 0000000180008940 f   BerconNoise.obj
 0001:00007960       ??__Exyz_blk@@YAXXZ        0000000180008960 f   BerconNoise.obj
 0001:000079b0       ??__EkInvalidId@AssetManagement@MaxSDK@@YAXXZ 00000001800089b0 f   fractal.obj
 0001:000079d0       ??__EkInvalidId@AssetManagement@MaxSDK@@YAXXZ 00000001800089d0 f   GradientRamp.obj
 0001:000079f0       ??__EkInvalidId@AssetManagement@MaxSDK@@YAXXZ 00000001800089f0 f   IGradient.obj
 0001:00007a10       ??__EkInvalidId@AssetManagement@MaxSDK@@YAXXZ 0000000180008a10 f   noise.obj
 0001:00007a30       ??__EkInvalidId@AssetManagement@MaxSDK@@YAXXZ 0000000180008a30 f   tile.obj
 0001:00007a50       ??__EkInvalidId@AssetManagement@MaxSDK@@YAXXZ 0000000180008a50 f   commonMath.obj
 0001:0000e018       $LN17                      000000018000f018     BerconGradient.obj
 0001:0000e768       $LN21                      000000018000f768     BerconGradient.obj
 0001:0000e938       $LN17                      000000018000f938     BerconGradient.obj
 0001:0000f640       $LN51                      0000000180010640     BerconGradient.obj
 0001:0000f9b8       $LN45                      00000001800109b8     BerconGradient.obj
 0001:0000fd88       $LN45                      0000000180010d88     BerconGradient.obj
 0001:00010114       $LN69                      0000000180011114     BerconGradient.obj
 0001:00012de4       $LN15                      0000000180013de4     BerconTile.obj
 0001:00014690       ?setSpinnerType@@YAXPEAVIParamMap2@@HHHHH_N@Z 0000000180015690 f   BerconCommon.obj
 0001:00014690       ?setSpinnerType@@YAXPEAVIParamMap2@@HHHHH_N@Z 0000000180015690 f   BerconTile.obj
 0001:000168d4       $LN29                      00000001800178d4     BerconWood.obj
 0001:00017204       $LN15                      0000000180018204     BerconWood.obj
 0001:00017220       $LN14                      0000000180018220     BerconWood.obj
 0001:00019cd0       ?tiling@@YAHHAEAM@Z        000000018001acd0 f   BerconCommon.obj
 0001:00019dc0       ?tiling@@YAHHAEAMAEAH@Z    000000018001adc0 f   BerconCommon.obj
 0001:0001c8e4       $LN26                      000000018001d8e4     BerconNoise.obj
 0001:0001d174       $LN15                      000000018001e174     BerconNoise.obj
 0001:0001d190       $LN14                      000000018001e190     BerconNoise.obj
 0001:00020e04       $LN44                      0000000180021e04     noise.obj
 0001:00020e24       $LN43                      0000000180021e24     noise.obj
 0001:00021080       $LN44                      0000000180022080     noise.obj
 0001:000210a0       $LN43                      00000001800220a0     noise.obj
 0001:000212e8       $LN15                      00000001800222e8     noise.obj
 0001:0002141c       $LN15                      000000018002241c     noise.obj
 0001:00025e80       ?parsePattern@@YAHV?$basic_string@_WU?$char_traits@_W@std@@V?$allocator@_W@2@@std@@PEAVTilePattern@@@Z 0000000180026e80 f   tile.obj
 0001:000267e0       ?rowcol@@YAHAEAM0AEAHMMAEAV?$vector@MV?$allocator@M@std@@@std@@MMM@Z 00000001800277e0 f   tile.obj
 0001:0002716c       $LN265                     000000018002816c     tile.obj
 0001:000271a0       ?tokenize@@YAXAEBV?$basic_string@_WU?$char_traits@_W@std@@V?$allocator@_W@2@@std@@AEAV?$vector@V?$basic_string@_WU?$char_traits@_W@std@@V?$allocator@_W@2@@std@@V?$allocator@V?$basic_string@_WU?$char_traits@_W@std@@V?$allocator@_W@2@@std@@@2@@2@0@Z 00000001800281a0 f   tile.obj
 0001:00027eb8       $LN54                      0000000180028eb8     worley.obj
 0001:00028da0       $$000000                   0000000180029da0     MSVCRT:chkstk.obj
 0001:00028e0c       ?dllmain_crt_dispatch@@YAHQEAUHINSTANCE__@@KQEAX@Z 0000000180029e0c f   MSVCRT:dll_dllmain.obj
 0001:00028e5c       ?dllmain_crt_process_attach@@YAHQEAUHINSTANCE__@@QEAX@Z 0000000180029e5c f   MSVCRT:dll_dllmain.obj
 0001:00028f78       ?dllmain_crt_process_detach@@YAH_N@Z 0000000180029f78 f   MSVCRT:dll_dllmain.obj
 0001:00029008       ?dllmain_dispatch@@YAHQEAUHINSTANCE__@@KQEAX@Z 000000018002a008 f   MSVCRT:dll_dllmain.obj
 0001:00029880       $$000000                   000000018002a880     MSVCRT:guard_dispatch.obj
 0001:000298a0       ?dtor$0@?0???0BerconDistortion@@QEAA@XZ@4HA 000000018002a8a0 f   BerconDistortion.obj
 0001:000298b0       ?dtor$0@?0???0BerconSC@@QEAA@QEAVShadeContext@@@Z@4HA 000000018002a8b0 f   BerconDistortion.obj
 0001:000298c0       ?dtor$1@?0???0BerconSC@@QEAA@QEAVShadeContext@@@Z@4HA 000000018002a8c0 f   BerconDistortion.obj
 0001:000298e0       ?dtor$2@?0???0BerconSC@@QEAA@QEAVShadeContext@@@Z@4HA 000000018002a8e0 f   BerconDistortion.obj
 0001:000298f0       ?dtor$3@?0???0BerconSC@@QEAA@QEAVShadeContext@@@Z@4HA 000000018002a8f0 f   BerconDistortion.obj
 0001:00029900       ?dtor$7@?0???0BerconSC@@QEAA@QEAVShadeContext@@@Z@4HA 000000018002a900 f   BerconDistortion.obj
 0001:00029900       ?dtor$4@?0???0BerconSC@@QEAA@QEAVShadeContext@@@Z@4HA 000000018002a900 f   BerconDistortion.obj
 0001:00029910       ?dtor$5@?0???0BerconSC@@QEAA@QEAVShadeContext@@@Z@4HA 000000018002a910 f   BerconDistortion.obj
 0001:00029910       ?dtor$8@?0???0BerconSC@@QEAA@QEAVShadeContext@@@Z@4HA 000000018002a910 f   BerconDistortion.obj
 0001:00029920       ?dtor$9@?0???0BerconSC@@QEAA@QEAVShadeContext@@@Z@4HA 000000018002a920 f   BerconDistortion.obj
 0001:00029920       ?dtor$6@?0???0BerconSC@@QEAA@QEAVShadeContext@@@Z@4HA 000000018002a920 f   BerconDistortion.obj
 0001:00029930       ?dtor$0@?0???1TabOutOfRangeException@Util@MaxSDK@@UEAA@XZ@4HA 000000018002a930 f   BerconDistortion.obj
 0001:00029930       ?dtor$0@?0???0TabOutOfRangeException@Util@MaxSDK@@QEAA@AEBV012@@Z@4HA 000000018002a930 f   BerconDistortion.obj
 0001:00029930       ?dtor$0@?0???0TabOutOfRangeException@Util@MaxSDK@@QEAA@PEB_W@Z@4HA 000000018002a930 f   BerconDistortion.obj
 0001:00029930       ?dtor$0@?0???_GTabOutOfRangeException@Util@MaxSDK@@UEAAPEAXI@Z@4HA 000000018002a930 f   BerconDistortion.obj
 0001:00029940       ?dtor$1@?0???0TabOutOfRangeException@Util@MaxSDK@@QEAA@AEBV012@@Z@4HA 000000018002a940 f   BerconDistortion.obj
 0001:00029940       ?dtor$1@?0???_GTabOutOfRangeException@Util@MaxSDK@@UEAAPEAXI@Z@4HA 000000018002a940 f   BerconDistortion.obj
 0001:00029940       ?dtor$1@?0???1TabOutOfRangeException@Util@MaxSDK@@UEAA@XZ@4HA 000000018002a940 f   BerconDistortion.obj
 0001:00029950       ?dtor$0@?0???0VertexNormalsControl@@QEAA@XZ@4HA 000000018002a950 f   BerconDistortion.obj
 0001:00029960       ?dtor$0@?0???0XYZ_Desc@@QEAA@PEAVClassDesc2@@HHHHHHH@Z@4HA 000000018002a960 f   BerconDistortion.obj
 0001:00029970       ?dtor$0@?0???1BerconSC@@UEAA@XZ@4HA 000000018002a970 f   BerconDistortion.obj
 0001:00029970       ?dtor$0@?0???_GBerconSC@@UEAAPEAXI@Z@4HA 000000018002a970 f   BerconDistortion.obj
 0001:00029980       ?dtor$1@?0???_GBerconSC@@UEAAPEAXI@Z@4HA 000000018002a980 f   BerconDistortion.obj
 0001:00029980       ?dtor$1@?0???1BerconSC@@UEAA@XZ@4HA 000000018002a980 f   BerconDistortion.obj
 0001:000299a0       ?dtor$2@?0???1ShadeContext@@UEAA@XZ@4HA 000000018002a9a0 f   BerconDistortion.obj
 0001:000299a0       ?dtor$2@?0???1BerconSC@@UEAA@XZ@4HA 000000018002a9a0 f   BerconDistortion.obj
 0001:000299a0       ?dtor$5@?0???1BerconSC@@UEAA@XZ@4HA 000000018002a9a0 f   BerconDistortion.obj
 0001:000299b0       ?dtor$0@?0???1ICustomControl@@UEAA@XZ@4HA 000000018002a9b0 f   BerconGradient.obj
 0001:000299b0       ?dtor$0@?0???1ShadeContext@@UEAA@XZ@4HA 000000018002a9b0 f   BerconDistortion.obj
 0001:000299b0       ?dtor$0@?0???_GICustomControl@@UEAAPEAXI@Z@4HA 000000018002a9b0 f   BerconGradient.obj
 0001:000299b0       ?dtor$0@?0???_GShadeContext@@UEAAPEAXI@Z@4HA 000000018002a9b0 f   BerconDistortion.obj
 0001:000299b0       ?dtor$3@?0???1BerconSC@@UEAA@XZ@4HA 000000018002a9b0 f   BerconDistortion.obj
 0001:000299b0       ?dtor$3@?0???_GBerconSC@@UEAAPEAXI@Z@4HA 000000018002a9b0 f   BerconDistortion.obj
 0001:000299b0       ?dtor$1@?0???_GIGradient@@UEAAPEAXI@Z@4HA 000000018002a9b0 f   BerconGradient.obj
 0001:000299c0       ?dtor$4@?0???_GBerconSC@@UEAAPEAXI@Z@4HA 000000018002a9c0 f   BerconDistortion.obj
 0001:000299c0       ?dtor$1@?0???1ShadeContext@@UEAA@XZ@4HA 000000018002a9c0 f   BerconDistortion.obj
 0001:000299c0       ?dtor$4@?0???1BerconSC@@UEAA@XZ@4HA 000000018002a9c0 f   BerconDistortion.obj
 0001:000299c0       ?dtor$1@?0???_GShadeContext@@UEAAPEAXI@Z@4HA 000000018002a9c0 f   BerconDistortion.obj
 0001:000299d0       ?dtor$0@?0???_GRenderGlobalContext@@UEAAPEAXI@Z@4HA 000000018002a9d0 f   BerconDistortion.obj
 0001:000299d0       ?dtor$0@?0???1ShadeOutput@@UEAA@XZ@4HA 000000018002a9d0 f   BerconDistortion.obj
 0001:000299d0       ?dtor$0@?0???1RenderGlobalContext@@UEAA@XZ@4HA 000000018002a9d0 f   BerconDistortion.obj
 0001:000299d0       ?dtor$0@?0???_GShadeOutput@@UEAAPEAXI@Z@4HA 000000018002a9d0 f   BerconDistortion.obj
 0001:000299e0       ?dtor$1@?0???_GBerconDistortion@@UEAAPEAXI@Z@4HA 000000018002a9e0 f   BerconDistortion.obj
 0001:000299e0       ?dtor$1@?0???_GBerconNoise@@UEAAPEAXI@Z@4HA 000000018002a9e0 f   BerconNoise.obj
 0001:000299e0       ?dtor$4@?0???_GBerconTile@@UEAAPEAXI@Z@4HA 000000018002a9e0 f   BerconTile.obj
 0001:000299e0       ?dtor$1@?0???_GBerconWood@@UEAAPEAXI@Z@4HA 000000018002a9e0 f   BerconWood.obj
 0001:000299e0       ?dtor$0@?0???1Texmap@@UEAA@XZ@4HA 000000018002a9e0 f   BerconDistortion.obj
 0001:000299e0       ?dtor$1@?0???_GBerconGradient@@UEAAPEAXI@Z@4HA 000000018002a9e0 f   BerconGradient.obj
 0001:000299f0       ?dtor$0@?0???_GBerconTile@@UEAAPEAXI@Z@4HA 000000018002a9f0 f   BerconTile.obj
 0001:000299f0       ?dtor$0@?0???_GBerconGradient@@UEAAPEAXI@Z@4HA 000000018002a9f0 f   BerconGradient.obj
 0001:000299f0       ?dtor$0@?0???_GBerconNoise@@UEAAPEAXI@Z@4HA 000000018002a9f0 f   BerconNoise.obj
 0001:000299f0       ?dtor$0@?0???_GBerconDistortion@@UEAAPEAXI@Z@4HA 000000018002a9f0 f   BerconDistortion.obj
 0001:000299f0       ?dtor$0@?0???_GBerconWood@@UEAAPEAXI@Z@4HA 000000018002a9f0 f   BerconWood.obj
 0001:00029a00       ?dtor$0@?0???_GBerconGradientClassDesc@@UEAAPEAXI@Z@4HA 000000018002aa00 f   BerconGradient.obj
 0001:00029a00       ?dtor$0@?0???_GBerconWoodClassDesc@@UEAAPEAXI@Z@4HA 000000018002aa00 f   BerconWood.obj
 0001:00029a00       ?dtor$0@?0???_GBerconNoiseClassDesc@@UEAAPEAXI@Z@4HA 000000018002aa00 f   BerconNoise.obj
 0001:00029a00       ?dtor$0@?0???_GBerconTileClassDesc@@UEAAPEAXI@Z@4HA 000000018002aa00 f   BerconTile.obj
 0001:00029a00       ?dtor$0@?0???_GBerconDistortionClassDesc@@UEAAPEAXI@Z@4HA 000000018002aa00 f   BerconDistortion.obj
 0001:00029a10       ?dtor$2@?0???_GShadeContext@@UEAAPEAXI@Z@4HA 000000018002aa10 f   BerconDistortion.obj
 0001:00029a10       ?dtor$2@?0???_GBerconSC@@UEAAPEAXI@Z@4HA 000000018002aa10 f   BerconDistortion.obj
 0001:00029a10       ?dtor$5@?0???_GBerconSC@@UEAAPEAXI@Z@4HA 000000018002aa10 f   BerconDistortion.obj
 0001:00029a20       ?dtor$2@?0??CreateParamDlg@BerconGradient@@UEAAPEAVParamDlg@@PEAUHWND__@@PEAVIMtlParams@@@Z@4HA 000000018002aa20 f   BerconGradient.obj
 0001:00029a20       ?dtor$2@?0??CreateParamDlg@BerconWood@@UEAAPEAVParamDlg@@PEAUHWND__@@PEAVIMtlParams@@@Z@4HA 000000018002aa20 f   BerconWood.obj
 0001:00029a20       ?dtor$0@?0???_GBerconGradientDlgProc@@UEAAPEAXI@Z@4HA 000000018002aa20 f   BerconGradient.obj
 0001:00029a20       ?dtor$0@?0???_GBerconTileDlgProc@@UEAAPEAXI@Z@4HA 000000018002aa20 f   BerconTile.obj
 0001:00029a20       ?dtor$3@?0??CreateParamDlg@BerconTile@@UEAAPEAVParamDlg@@PEAUHWND__@@PEAVIMtlParams@@@Z@4HA 000000018002aa20 f   BerconTile.obj
 0001:00029a20       ?dtor$3@?0??CreateParamDlg@BerconNoise@@UEAAPEAVParamDlg@@PEAUHWND__@@PEAVIMtlParams@@@Z@4HA 000000018002aa20 f   BerconNoise.obj
 0001:00029a20       ?dtor$0@?0???_GBerconXYZDlgProc@@UEAAPEAXI@Z@4HA 000000018002aa20 f   BerconDistortion.obj
 0001:00029a20       ?dtor$3@?0??CreateParamDlg@BerconGradient@@UEAAPEAVParamDlg@@PEAUHWND__@@PEAVIMtlParams@@@Z@4HA 000000018002aa20 f   BerconGradient.obj
 0001:00029a20       ?dtor$2@?0??CreateParamDlg@BerconTile@@UEAAPEAVParamDlg@@PEAUHWND__@@PEAVIMtlParams@@@Z@4HA 000000018002aa20 f   BerconTile.obj
 0001:00029a20       ?dtor$0@?0???_GBerconWoodDlgProc@@UEAAPEAXI@Z@4HA 000000018002aa20 f   BerconWood.obj
 0001:00029a20       ?dtor$2@?0??CreateParamDlg@BerconNoise@@UEAAPEAVParamDlg@@PEAUHWND__@@PEAVIMtlParams@@@Z@4HA 000000018002aa20 f   BerconNoise.obj
 0001:00029a20       ?dtor$3@?0??CreateParamDlg@BerconWood@@UEAAPEAVParamDlg@@PEAUHWND__@@PEAVIMtlParams@@@Z@4HA 000000018002aa20 f   BerconWood.obj
 0001:00029a20       ?dtor$0@?0???_GBerconNoiseDlgProc@@UEAAPEAXI@Z@4HA 000000018002aa20 f   BerconNoise.obj
 0001:00029a30       ?dtor$0@?0???_GXYZ_Desc@@UEAAPEAXI@Z@4HA 000000018002aa30 f   BerconDistortion.obj
 0001:00029a40       ?dtor$0@?0???__FBerconDistortionDesc@@YAXXZ@4HA 000000018002aa40 f   BerconDistortion.obj
 0001:00029a40       ?dtor$0@?0???__EBerconDistortionDesc@@YAXXZ@4HA 000000018002aa40 f   BerconDistortion.obj
 0001:00029a50       ?dtor$0@?0???__Fxyz_blk@@YAXXZ@4HA 000000018002aa50 f   BerconDistortion.obj
 0001:00029a60       ?dtor$0@?0??Clone@BerconNoise@@UEAAPEAVReferenceTarget@@AEAVRemapDir@@@Z@4HA 000000018002aa60 f   BerconNoise.obj
 0001:00029a60       ?dtor$0@?0??Clone@BerconDistortion@@UEAAPEAVReferenceTarget@@AEAVRemapDir@@@Z@4HA 000000018002aa60 f   BerconDistortion.obj
 0001:00029a60       ?dtor$0@?0??Clone@BerconTile@@UEAAPEAVReferenceTarget@@AEAVRemapDir@@@Z@4HA 000000018002aa60 f   BerconTile.obj
 0001:00029a60       ?dtor$0@?0??Clone@BerconWood@@UEAAPEAVReferenceTarget@@AEAVRemapDir@@@Z@4HA 000000018002aa60 f   BerconWood.obj
 0001:00029a70       ?dtor$0@?0??Create@BerconNoiseClassDesc@@UEAAPEAXH@Z@4HA 000000018002aa70 f   BerconNoise.obj
 0001:00029a70       ?dtor$0@?0??Create@BerconDistortionClassDesc@@UEAAPEAXH@Z@4HA 000000018002aa70 f   BerconDistortion.obj
 0001:00029a70       ?dtor$0@?0??Create@BerconWoodClassDesc@@UEAAPEAXH@Z@4HA 000000018002aa70 f   BerconWood.obj
 0001:00029a70       ?dtor$0@?0??Create@BerconTileClassDesc@@UEAAPEAXH@Z@4HA 000000018002aa70 f   BerconTile.obj
 0001:00029a70       ?dtor$0@?0??Create@BerconGradientClassDesc@@UEAAPEAXH@Z@4HA 000000018002aa70 f   BerconGradient.obj
 0001:00029a70       ?dtor$0@?0??Clone@BerconGradient@@UEAAPEAVReferenceTarget@@AEAVRemapDir@@@Z@4HA 000000018002aa70 f   BerconGradient.obj
 0001:00029a80       ?dtor$0@?0??CreateParamDlg@BerconDistortion@@UEAAPEAVParamDlg@@PEAUHWND__@@PEAVIMtlParams@@@Z@4HA 000000018002aa80 f   BerconDistortion.obj
 0001:00029a90       ?dtor$1@?0??CreateParamDlg@BerconDistortion@@UEAAPEAVParamDlg@@PEAUHWND__@@PEAVIMtlParams@@@Z@4HA 000000018002aa90 f   BerconDistortion.obj
 0001:00029aa0       ?dtor$0@?0??EvalNormalPerturb@BerconDistortion@@UEAA?AVPoint3@@AEAVShadeContext@@@Z@4HA 000000018002aaa0 f   BerconDistortion.obj
 0001:00029aa0       ?dtor$0@?0??EvalMono@BerconDistortion@@UEAAMAEAVShadeContext@@@Z@4HA 000000018002aaa0 f   BerconDistortion.obj
 0001:00029aa0       ?dtor$0@?0??EvalColor@BerconDistortion@@UEAA?AVAColor@@AEAVShadeContext@@@Z@4HA 000000018002aaa0 f   BerconDistortion.obj
 0001:00029ab0       ?dtor$1@?0??EvalNormalPerturb@BerconDistortion@@UEAA?AVPoint3@@AEAVShadeContext@@@Z@4HA 000000018002aab0 f   BerconDistortion.obj
 0001:00029ab0       ?dtor$1@?0??EvalMono@BerconDistortion@@UEAAMAEAVShadeContext@@@Z@4HA 000000018002aab0 f   BerconDistortion.obj
 0001:00029ab0       ?dtor$1@?0??EvalColor@BerconDistortion@@UEAA?AVAColor@@AEAVShadeContext@@@Z@4HA 000000018002aab0 f   BerconDistortion.obj
 0001:00029ac0       ?dtor$2@?0??EvalMono@BerconDistortion@@UEAAMAEAVShadeContext@@@Z@4HA 000000018002aac0 f   BerconDistortion.obj
 0001:00029ac0       ?dtor$2@?0??EvalColor@BerconDistortion@@UEAA?AVAColor@@AEAVShadeContext@@@Z@4HA 000000018002aac0 f   BerconDistortion.obj
 0001:00029ac0       ?dtor$2@?0??EvalNormalPerturb@BerconDistortion@@UEAA?AVPoint3@@AEAVShadeContext@@@Z@4HA 000000018002aac0 f   BerconDistortion.obj
 0001:00029ae0       ?dtor$6@?0??EvalColor@BerconDistortion@@UEAA?AVAColor@@AEAVShadeContext@@@Z@4HA 000000018002aae0 f   BerconDistortion.obj
 0001:00029ae0       ?dtor$6@?0??EvalMono@BerconDistortion@@UEAAMAEAVShadeContext@@@Z@4HA 000000018002aae0 f   BerconDistortion.obj
 0001:00029ae0       ?dtor$6@?0??EvalNormalPerturb@BerconDistortion@@UEAA?AVPoint3@@AEAVShadeContext@@@Z@4HA 000000018002aae0 f   BerconDistortion.obj
 0001:00029ae0       ?dtor$3@?0??EvalMono@BerconDistortion@@UEAAMAEAVShadeContext@@@Z@4HA 000000018002aae0 f   BerconDistortion.obj
 0001:00029ae0       ?dtor$3@?0??EvalNormalPerturb@BerconDistortion@@UEAA?AVPoint3@@AEAVShadeContext@@@Z@4HA 000000018002aae0 f   BerconDistortion.obj
 0001:00029ae0       ?dtor$3@?0??EvalColor@BerconDistortion@@UEAA?AVAColor@@AEAVShadeContext@@@Z@4HA 000000018002aae0 f   BerconDistortion.obj
 0001:00029af0       ?dtor$4@?0??EvalNormalPerturb@BerconDistortion@@UEAA?AVPoint3@@AEAVShadeContext@@@Z@4HA 000000018002aaf0 f   BerconDistortion.obj
 0001:00029af0       ?dtor$4@?0??EvalColor@BerconDistortion@@UEAA?AVAColor@@AEAVShadeContext@@@Z@4HA 000000018002aaf0 f   BerconDistortion.obj
 0001:00029af0       ?dtor$4@?0??EvalMono@BerconDistortion@@UEAAMAEAVShadeContext@@@Z@4HA 000000018002aaf0 f   BerconDistortion.obj
 0001:00029b00       ?dtor$5@?0??EvalColor@BerconDistortion@@UEAA?AVAColor@@AEAVShadeContext@@@Z@4HA 000000018002ab00 f   BerconDistortion.obj
 0001:00029b00       ?dtor$5@?0??EvalNormalPerturb@BerconDistortion@@UEAA?AVPoint3@@AEAVShadeContext@@@Z@4HA 000000018002ab00 f   BerconDistortion.obj
 0001:00029b00       ?dtor$5@?0??EvalMono@BerconDistortion@@UEAAMAEAVShadeContext@@@Z@4HA 000000018002ab00 f   BerconDistortion.obj
 0001:00029b10       ?dtor$0@?0??GetSubTexmapSlotName@BerconTile@@UEAA?AVWStr@@H@Z@4HA 000000018002ab10 f   BerconTile.obj
 0001:00029b10       ?dtor$0@?0??GetSubTexmapSlotName@BerconNoise@@UEAA?AVWStr@@H@Z@4HA 000000018002ab10 f   BerconNoise.obj
 0001:00029b10       ?dtor$0@?0??SubAnimName@BerconTile@@UEAA?AVWStr@@H@Z@4HA 000000018002ab10 f   BerconTile.obj
 0001:00029b10       ?dtor$0@?0??SubAnimName@BerconNoise@@UEAA?AVWStr@@H@Z@4HA 000000018002ab10 f   BerconNoise.obj
 0001:00029b10       ?dtor$0@?0??SubAnimName@BerconGradient@@UEAA?AVWStr@@H@Z@4HA 000000018002ab10 f   BerconGradient.obj
 0001:00029b10       ?dtor$0@?0??GetSubTexmapSlotName@BerconGradient@@UEAA?AVWStr@@H@Z@4HA 000000018002ab10 f   BerconGradient.obj
 0001:00029b10       ?dtor$0@?0??SubAnimName@BerconDistortion@@UEAA?AVWStr@@H@Z@4HA 000000018002ab10 f   BerconDistortion.obj
 0001:00029b10       ?dtor$0@?0??GetSubTexmapSlotName@BerconDistortion@@UEAA?AVWStr@@H@Z@4HA 000000018002ab10 f   BerconDistortion.obj
 0001:00029b10       ?dtor$0@?0??SubAnimName@BerconWood@@UEAA?AVWStr@@H@Z@4HA 000000018002ab10 f   BerconWood.obj
 0001:00029b10       ?dtor$0@?0??GetSubTexmapSlotName@BerconWood@@UEAA?AVWStr@@H@Z@4HA 000000018002ab10 f   BerconWood.obj
 0001:00029b40       ?dtor$0@?0???0BerconGradient@@QEAA@XZ@4HA 000000018002ab40 f   BerconGradient.obj
 0001:00029b50       ?dtor$1@?0???0BerconGradient@@QEAA@XZ@4HA 000000018002ab50 f   BerconGradient.obj
 0001:00029b70       ?dtor$0@?0???_GIGradient@@UEAAPEAXI@Z@4HA 000000018002ab70 f   BerconGradient.obj
 0001:00029b80       ?dtor$0@?0???__FBerconGradientDesc@@YAXXZ@4HA 000000018002ab80 f   BerconGradient.obj
 0001:00029b80       ?dtor$0@?0???__EBerconGradientDesc@@YAXXZ@4HA 000000018002ab80 f   BerconGradient.obj
 0001:00029b90       ?dtor$0@?0???__Fxyz_blk@@YAXXZ@4HA 000000018002ab90 f   BerconGradient.obj
 0001:00029ba0       ?dtor$1@?0??CreateParamDlg@BerconGradient@@UEAAPEAVParamDlg@@PEAUHWND__@@PEAVIMtlParams@@@Z@4HA 000000018002aba0 f   BerconGradient.obj
 0001:00029ba0       ?dtor$1@?0??CreateParamDlg@BerconTile@@UEAAPEAVParamDlg@@PEAUHWND__@@PEAVIMtlParams@@@Z@4HA 000000018002aba0 f   BerconTile.obj
 0001:00029ba0       ?dtor$1@?0??CreateParamDlg@BerconWood@@UEAAPEAVParamDlg@@PEAUHWND__@@PEAVIMtlParams@@@Z@4HA 000000018002aba0 f   BerconWood.obj
 0001:00029ba0       ?dtor$1@?0??CreateParamDlg@BerconNoise@@UEAAPEAVParamDlg@@PEAUHWND__@@PEAVIMtlParams@@@Z@4HA 000000018002aba0 f   BerconNoise.obj
 0001:00029ba0       ?dtor$0@?0??CreateParamDlg@BerconGradient@@UEAAPEAVParamDlg@@PEAUHWND__@@PEAVIMtlParams@@@Z@4HA 000000018002aba0 f   BerconGradient.obj
 0001:00029ba0       ?dtor$0@?0??CreateParamDlg@BerconWood@@UEAAPEAVParamDlg@@PEAUHWND__@@PEAVIMtlParams@@@Z@4HA 000000018002aba0 f   BerconWood.obj
 0001:00029ba0       ?dtor$0@?0??CreateParamDlg@BerconTile@@UEAAPEAVParamDlg@@PEAUHWND__@@PEAVIMtlParams@@@Z@4HA 000000018002aba0 f   BerconTile.obj
 0001:00029ba0       ?dtor$0@?0??CreateParamDlg@BerconNoise@@UEAAPEAVParamDlg@@PEAUHWND__@@PEAVIMtlParams@@@Z@4HA 000000018002aba0 f   BerconNoise.obj
 0001:00029bb0       ?dtor$0@?0??DlgProc@BerconGradientDlgProc@@UEAA_JHPEAVIParamMap2@@PEAUHWND__@@I_K_J@Z@4HA 000000018002abb0 f   BerconGradient.obj
 0001:00029bc0       ?dtor$1@?0??DlgProc@BerconGradientDlgProc@@UEAA_JHPEAVIParamMap2@@PEAUHWND__@@I_K_J@Z@4HA 000000018002abc0 f   BerconGradient.obj
 0001:00029bd0       ?dtor$2@?0??DlgProc@BerconGradientDlgProc@@UEAA_JHPEAVIParamMap2@@PEAUHWND__@@I_K_J@Z@4HA 000000018002abd0 f   BerconGradient.obj
 0001:00029be0       ?dtor$1@?0??GetSubTexmapSlotName@BerconGradient@@UEAA?AVWStr@@H@Z@4HA 000000018002abe0 f   BerconGradient.obj
 0001:00029bf0       ?dtor$0@?0???0BerconTile@@QEAA@XZ@4HA 000000018002abf0 f   BerconTile.obj
 0001:00029bf0       ?dtor$0@?0???0BerconNoise@@QEAA@XZ@4HA 000000018002abf0 f   BerconNoise.obj
 0001:00029bf0       ?dtor$0@?0???0BerconWood@@QEAA@XZ@4HA 000000018002abf0 f   BerconWood.obj
 0001:00029c00       ?dtor$1@?0???0BerconTile@@QEAA@XZ@4HA 000000018002ac00 f   BerconTile.obj
 0001:00029c20       ?dtor$2@?0???0BerconTile@@QEAA@XZ@4HA 000000018002ac20 f   BerconTile.obj
 0001:00029c30       ?dtor$3@?0???0BerconTile@@QEAA@XZ@4HA 000000018002ac30 f   BerconTile.obj
 0001:00029c40       ?dtor$0@?0???1?$_Uninitialized_backout_al@PEAVTileRow@@V?$allocator@VTileRow@@@std@@@std@@QEAA@XZ@4HA 000000018002ac40 f   tile.obj
 0001:00029c40       ?dtor$0@?0???1TileRow@@QEAA@XZ@4HA 000000018002ac40 f   tile.obj
 0001:00029c40       ?dtor$0@?0???1TilePattern@@QEAA@XZ@4HA 000000018002ac40 f   BerconTile.obj
 0001:00029c40       ?dtor$0@?0???1?$vector@VTileRow@@V?$allocator@VTileRow@@@std@@@std@@QEAA@XZ@4HA 000000018002ac40 f   BerconTile.obj
 0001:00029c50       ?dtor$1@?0???1TilePattern@@QEAA@XZ@4HA 000000018002ac50 f   BerconTile.obj
 0001:00029c60       ?dtor$1@?0???_GBerconTile@@UEAAPEAXI@Z@4HA 000000018002ac60 f   BerconTile.obj
 0001:00029c80       ?dtor$2@?0???_GBerconTile@@UEAAPEAXI@Z@4HA 000000018002ac80 f   BerconTile.obj
 0001:00029c90       ?dtor$3@?0???_GBerconTile@@UEAAPEAXI@Z@4HA 000000018002ac90 f   BerconTile.obj
 0001:00029ca0       ?dtor$0@?0???__FBerconTileDesc@@YAXXZ@4HA 000000018002aca0 f   BerconTile.obj
 0001:00029ca0       ?dtor$0@?0???__EBerconTileDesc@@YAXXZ@4HA 000000018002aca0 f   BerconTile.obj
 0001:00029cb0       ?dtor$0@?0???__Fxyz_blk@@YAXXZ@4HA 000000018002acb0 f   BerconTile.obj
 0001:00029cc0       ?dtor$0@?0??EvalColor@BerconTile@@UEAA?AVAColor@@AEAVShadeContext@@@Z@4HA 000000018002acc0 f   BerconTile.obj
 0001:00029cd0       ?dtor$1@?0??EvalColor@BerconTile@@UEAA?AVAColor@@AEAVShadeContext@@@Z@4HA 000000018002acd0 f   BerconTile.obj
 0001:00029ce0       ?dtor$2@?0??EvalColor@BerconTile@@UEAA?AVAColor@@AEAVShadeContext@@@Z@4HA 000000018002ace0 f   BerconTile.obj
 0001:00029d00       ?dtor$3@?0??EvalColor@BerconTile@@UEAA?AVAColor@@AEAVShadeContext@@@Z@4HA 000000018002ad00 f   BerconTile.obj
 0001:00029d00       ?dtor$6@?0??EvalColor@BerconTile@@UEAA?AVAColor@@AEAVShadeContext@@@Z@4HA 000000018002ad00 f   BerconTile.obj
 0001:00029d10       ?dtor$4@?0??EvalColor@BerconTile@@UEAA?AVAColor@@AEAVShadeContext@@@Z@4HA 000000018002ad10 f   BerconTile.obj
 0001:00029d20       ?dtor$5@?0??EvalColor@BerconTile@@UEAA?AVAColor@@AEAVShadeContext@@@Z@4HA 000000018002ad20 f   BerconTile.obj
 0001:00029d30       ?dtor$0@?0??EvalNormalPerturb@BerconTile@@UEAA?AVPoint3@@AEAVShadeContext@@@Z@4HA 000000018002ad30 f   BerconTile.obj
 0001:00029d40       ?dtor$1@?0??EvalNormalPerturb@BerconTile@@UEAA?AVPoint3@@AEAVShadeContext@@@Z@4HA 000000018002ad40 f   BerconTile.obj
 0001:00029d50       ?dtor$2@?0??EvalNormalPerturb@BerconTile@@UEAA?AVPoint3@@AEAVShadeContext@@@Z@4HA 000000018002ad50 f   BerconTile.obj
 0001:00029d70       ?dtor$6@?0??EvalNormalPerturb@BerconTile@@UEAA?AVPoint3@@AEAVShadeContext@@@Z@4HA 000000018002ad70 f   BerconTile.obj
 0001:00029d70       ?dtor$3@?0??EvalNormalPerturb@BerconTile@@UEAA?AVPoint3@@AEAVShadeContext@@@Z@4HA 000000018002ad70 f   BerconTile.obj
 0001:00029d80       ?dtor$4@?0??EvalNormalPerturb@BerconTile@@UEAA?AVPoint3@@AEAVShadeContext@@@Z@4HA 000000018002ad80 f   BerconTile.obj
 0001:00029d90       ?dtor$5@?0??EvalNormalPerturb@BerconTile@@UEAA?AVPoint3@@AEAVShadeContext@@@Z@4HA 000000018002ad90 f   BerconTile.obj
 0001:00029da0       ?dtor$0@?0??Update@BerconTile@@UEAAXHAEAVInterval@@@Z@4HA 000000018002ada0 f   BerconTile.obj
 0001:00029db0       ?dtor$0@?0???__FBerconWoodDesc@@YAXXZ@4HA 000000018002adb0 f   BerconWood.obj
 0001:00029db0       ?dtor$0@?0???__EBerconWoodDesc@@YAXXZ@4HA 000000018002adb0 f   BerconWood.obj
 0001:00029dc0       ?dtor$0@?0???__Fxyz_blk@@YAXXZ@4HA 000000018002adc0 f   BerconWood.obj
 0001:00029dd0       CommctrlIsolationAwarePrivatetRgCebPnQQeRff_pbZPgYQP_QYY$fin$0 000000018002add0 f   DllEntry.obj
 0001:00029e30       IsolationAwareInitCommonControls$fin$0 000000018002ae30 f   DllEntry.obj
 0001:00029e60       WinbaseIsolationAwarePrivatetRgzlnPgpgk$fin$0 000000018002ae60 f   DllEntry.obj
 0001:00029e80       ?dtor$0@?0???__FBerconNoiseDesc@@YAXXZ@4HA 000000018002ae80 f   BerconNoise.obj
 0001:00029e80       ?dtor$0@?0???__EBerconNoiseDesc@@YAXXZ@4HA 000000018002ae80 f   BerconNoise.obj
 0001:00029e90       ?dtor$0@?0???__Fxyz_blk@@YAXXZ@4HA 000000018002ae90 f   BerconNoise.obj
 0001:00029ea0       ?dtor$0@?0??addKey@GradientRamp@@QEAAXHMVAColor@@PEAVTexmap@@@Z@4HA 000000018002aea0 f   GradientRamp.obj
 0001:00029eb0       IsolationAwareRegisterClassExW$fin$0 000000018002aeb0 f   IGradient.obj
 0001:00029f10       ?catch$0@?0???$_Emplace_reallocate@AEBM@?$vector@MV?$allocator@M@std@@@std@@QEAAPEAMQEAMAEBM@Z@4HA 000000018002af10 f   tile.obj
 0001:00029f10       ?catch$0@?0???$_Emplace_reallocate@M@?$vector@MV?$allocator@M@std@@@std@@QEAAPEAMQEAM$$QEAM@Z@4HA 000000018002af10 f   tile.obj
 0001:00029f1d       __catch$??$_Emplace_reallocate@AEBM@?$vector@MV?$allocator@M@std@@@std@@QEAAPEAMQEAMAEBM@Z$0 000000018002af1d f   tile.obj
 0001:00029f1d       __catch$??$_Emplace_reallocate@M@?$vector@MV?$allocator@M@std@@@std@@QEAAPEAMQEAM$$QEAM@Z$0 000000018002af1d f   tile.obj
 0001:00029f40       ?catch$2@?0???$_Emplace_reallocate@AEBVTileRow@@@?$vector@VTileRow@@V?$allocator@VTileRow@@@std@@@std@@QEAAPEAVTileRow@@QEAV2@AEBV2@@Z@4HA 000000018002af40 f   tile.obj
 0001:00029f4e       __catch$??$_Emplace_reallocate@AEBVTileRow@@@?$vector@VTileRow@@V?$allocator@VTileRow@@@std@@@std@@QEAAPEAVTileRow@@QEAV2@AEBV2@@Z$0 000000018002af4e f   tile.obj
 0001:00029f90       ?dtor$0@?0???$_Emplace_reallocate@AEBVTileRow@@@?$vector@VTileRow@@V?$allocator@VTileRow@@@std@@@std@@QEAAPEAVTileRow@@QEAV2@AEBV2@@Z@4HA 000000018002af90 f   tile.obj
 0001:00029fa0       ?dtor$1@?0???$_Emplace_reallocate@AEBVTileRow@@@?$vector@VTileRow@@V?$allocator@VTileRow@@@std@@@std@@QEAAPEAVTileRow@@QEAV2@AEBV2@@Z@4HA 000000018002afa0 f   tile.obj
 0001:00029fb0       ?catch$3@?0???$_Emplace_reallocate@V?$basic_string@_WU?$char_traits@_W@std@@V?$allocator@_W@2@@std@@@?$vector@V?$basic_string@_WU?$char_traits@_W@std@@V?$allocator@_W@2@@std@@V?$allocator@V?$basic_string@_WU?$char_traits@_W@std@@V?$allocator@_W@2@@std@@@2@@std@@QEAAPEAV?$basic_string@_WU?$char_traits@_W@std@@V?$allocator@_W@2@@1@QEAV21@$$QEAV21@@Z@4HA 000000018002afb0 f   tile.obj
 0001:00029fbd       __catch$??$_Emplace_reallocate@V?$basic_string@_WU?$char_traits@_W@std@@V?$allocator@_W@2@@std@@@?$vector@V?$basic_string@_WU?$char_traits@_W@std@@V?$allocator@_W@2@@std@@V?$allocator@V?$basic_string@_WU?$char_traits@_W@std@@V?$allocator@_W@2@@std@@@2@@std@@QEAAPEAV?$basic_string@_WU?$char_traits@_W@std@@V?$allocator@_W@2@@1@QEAV21@$$QEAV21@@Z$0 000000018002afbd f   tile.obj
 0001:0002a000       ?dtor$0@?0???$_Emplace_reallocate@V?$basic_string@_WU?$char_traits@_W@std@@V?$allocator@_W@2@@std@@@?$vector@V?$basic_string@_WU?$char_traits@_W@std@@V?$allocator@_W@2@@std@@V?$allocator@V?$basic_string@_WU?$char_traits@_W@std@@V?$allocator@_W@2@@std@@@2@@std@@QEAAPEAV?$basic_string@_WU?$char_traits@_W@std@@V?$allocator@_W@2@@1@QEAV21@$$QEAV21@@Z@4HA 000000018002b000 f   tile.obj
 0001:0002a010       ?dtor$1@?0???$_Emplace_reallocate@V?$basic_string@_WU?$char_traits@_W@std@@V?$allocator@_W@2@@std@@@?$vector@V?$basic_string@_WU?$char_traits@_W@std@@V?$allocator@_W@2@@std@@V?$allocator@V?$basic_string@_WU?$char_traits@_W@std@@V?$allocator@_W@2@@std@@@2@@std@@QEAAPEAV?$basic_string@_WU?$char_traits@_W@std@@V?$allocator@_W@2@@1@QEAV21@$$QEAV21@@Z@4HA 000000018002b010 f   tile.obj
 0001:0002a020       ?dtor$2@?0???$_Emplace_reallocate@V?$basic_string@_WU?$char_traits@_W@std@@V?$allocator@_W@2@@std@@@?$vector@V?$basic_string@_WU?$char_traits@_W@std@@V?$allocator@_W@2@@std@@V?$allocator@V?$basic_string@_WU?$char_traits@_W@std@@V?$allocator@_W@2@@std@@@2@@std@@QEAAPEAV?$basic_string@_WU?$char_traits@_W@std@@V?$allocator@_W@2@@1@QEAV21@$$QEAV21@@Z@4HA 000000018002b020 f   tile.obj
 0001:0002a030       ?dtor$0@?0???$_Uninitialized_move@PEAVTileRow@@PEAV1@V?$allocator@VTileRow@@@std@@@std@@YAPEAVTileRow@@QEAV1@0PEAV1@AEAV?$allocator@VTileRow@@@0@@Z@4HA 000000018002b030 f   tile.obj
 0001:0002a040       ?dtor$1@?0???$_Uninitialized_move@PEAVTileRow@@PEAV1@V?$allocator@VTileRow@@@std@@@std@@YAPEAVTileRow@@QEAV1@0PEAV1@AEAV?$allocator@VTileRow@@@0@@Z@4HA 000000018002b040 f   tile.obj
 0001:0002a050       ?dtor$0@?0???0?$basic_stringbuf@_WU?$char_traits@_W@std@@V?$allocator@_W@2@@std@@QEAA@AEBV?$basic_string@_WU?$char_traits@_W@std@@V?$allocator@_W@2@@1@H@Z@4HA 000000018002b050 f   tile.obj
 0001:0002a060       ?catch$0@?0???0?$vector@MV?$allocator@M@std@@@std@@QEAA@AEBV01@@Z@4HA 000000018002b060 f   tile.obj
 0001:0002a06d       __catch$??0?$vector@MV?$allocator@M@std@@@std@@QEAA@AEBV01@@Z$0 000000018002b06d f   tile.obj
 0001:0002a080       ?dtor$0@?0???1?$basic_stringbuf@_WU?$char_traits@_W@std@@V?$allocator@_W@2@@std@@UEAA@XZ@4HA 000000018002b080 f   tile.obj
 0001:0002a090       ?dtor$0@?0???_D?$basic_stringstream@_WU?$char_traits@_W@std@@V?$allocator@_W@2@@std@@QEAAXXZ@4HA 000000018002b090 f   tile.obj
 0001:0002a0b0       ?dtor$1@?0???_D?$basic_stringstream@_WU?$char_traits@_W@std@@V?$allocator@_W@2@@std@@QEAAXXZ@4HA 000000018002b0b0 f   tile.obj
 0001:0002a0d0       ?dtor$4@?0???_D?$basic_stringstream@_WU?$char_traits@_W@std@@V?$allocator@_W@2@@std@@QEAAXXZ@4HA 000000018002b0d0 f   tile.obj
 0001:0002a0e0       ?dtor$0@?0??_Destroy@?$vector@VTileRow@@V?$allocator@VTileRow@@@std@@@std@@AEAAXPEAVTileRow@@0@Z@4HA 000000018002b0e0 f   tile.obj
 0001:0002a0f0       ?dtor$0@?0??parsePattern@@YAHV?$basic_string@_WU?$char_traits@_W@std@@V?$allocator@_W@2@@std@@PEAVTilePattern@@@Z@4HA 000000018002b0f0 f   tile.obj
 0001:0002a100       ?dtor$1@?0??parsePattern@@YAHV?$basic_string@_WU?$char_traits@_W@std@@V?$allocator@_W@2@@std@@PEAVTilePattern@@@Z@4HA 000000018002b100 f   tile.obj
 0001:0002a110       ?dtor$2@?0??parsePattern@@YAHV?$basic_string@_WU?$char_traits@_W@std@@V?$allocator@_W@2@@std@@PEAVTilePattern@@@Z@4HA 000000018002b110 f   tile.obj
 0001:0002a110       ?dtor$4@?0??parsePattern@@YAHV?$basic_string@_WU?$char_traits@_W@std@@V?$allocator@_W@2@@std@@PEAVTilePattern@@@Z@4HA 000000018002b110 f   tile.obj
 0001:0002a120       ?dtor$3@?0??parsePattern@@YAHV?$basic_string@_WU?$char_traits@_W@std@@V?$allocator@_W@2@@std@@PEAVTilePattern@@@Z@4HA 000000018002b120 f   tile.obj
 0001:0002a130       ?dtor$5@?0??parsePattern@@YAHV?$basic_string@_WU?$char_traits@_W@std@@V?$allocator@_W@2@@std@@PEAVTilePattern@@@Z@4HA 000000018002b130 f   tile.obj
 0001:0002a140       ?dtor$6@?0??parsePattern@@YAHV?$basic_string@_WU?$char_traits@_W@std@@V?$allocator@_W@2@@std@@PEAVTilePattern@@@Z@4HA 000000018002b140 f   tile.obj
 0001:0002a150       ?dtor$7@?0??parsePattern@@YAHV?$basic_string@_WU?$char_traits@_W@std@@V?$allocator@_W@2@@std@@PEAVTilePattern@@@Z@4HA 000000018002b150 f   tile.obj
 0001:0002a160       ?dtor$8@?0??parsePattern@@YAHV?$basic_string@_WU?$char_traits@_W@std@@V?$allocator@_W@2@@std@@PEAVTilePattern@@@Z@4HA 000000018002b160 f   tile.obj
 0001:0002a170       ?dtor$23@?0??parsePattern@@YAHV?$basic_string@_WU?$char_traits@_W@std@@V?$allocator@_W@2@@std@@PEAVTilePattern@@@Z@4HA 000000018002b170 f   tile.obj
 0001:0002a170       ?dtor$9@?0??parsePattern@@YAHV?$basic_string@_WU?$char_traits@_W@std@@V?$allocator@_W@2@@std@@PEAVTilePattern@@@Z@4HA 000000018002b170 f   tile.obj
 0001:0002a180       ?dtor$10@?0??parsePattern@@YAHV?$basic_string@_WU?$char_traits@_W@std@@V?$allocator@_W@2@@std@@PEAVTilePattern@@@Z@4HA 000000018002b180 f   tile.obj
 0001:0002a1c0       ?dtor$11@?0??parsePattern@@YAHV?$basic_string@_WU?$char_traits@_W@std@@V?$allocator@_W@2@@std@@PEAVTilePattern@@@Z@4HA 000000018002b1c0 f   tile.obj
 0001:0002a1e0       ?dtor$12@?0??parsePattern@@YAHV?$basic_string@_WU?$char_traits@_W@std@@V?$allocator@_W@2@@std@@PEAVTilePattern@@@Z@4HA 000000018002b1e0 f   tile.obj
 0001:0002a1f0       ?dtor$13@?0??parsePattern@@YAHV?$basic_string@_WU?$char_traits@_W@std@@V?$allocator@_W@2@@std@@PEAVTilePattern@@@Z@4HA 000000018002b1f0 f   tile.obj
 0001:0002a230       ?dtor$14@?0??parsePattern@@YAHV?$basic_string@_WU?$char_traits@_W@std@@V?$allocator@_W@2@@std@@PEAVTilePattern@@@Z@4HA 000000018002b230 f   tile.obj
 0001:0002a250       ?dtor$15@?0??parsePattern@@YAHV?$basic_string@_WU?$char_traits@_W@std@@V?$allocator@_W@2@@std@@PEAVTilePattern@@@Z@4HA 000000018002b250 f   tile.obj
 0001:0002a260       ?dtor$24@?0??parsePattern@@YAHV?$basic_string@_WU?$char_traits@_W@std@@V?$allocator@_W@2@@std@@PEAVTilePattern@@@Z@4HA 000000018002b260 f   tile.obj
 0001:0002a260       ?dtor$16@?0??parsePattern@@YAHV?$basic_string@_WU?$char_traits@_W@std@@V?$allocator@_W@2@@std@@PEAVTilePattern@@@Z@4HA 000000018002b260 f   tile.obj
 0001:0002a270       ?dtor$17@?0??parsePattern@@YAHV?$basic_string@_WU?$char_traits@_W@std@@V?$allocator@_W@2@@std@@PEAVTilePattern@@@Z@4HA 000000018002b270 f   tile.obj
 0001:0002a2b0       ?dtor$18@?0??parsePattern@@YAHV?$basic_string@_WU?$char_traits@_W@std@@V?$allocator@_W@2@@std@@PEAVTilePattern@@@Z@4HA 000000018002b2b0 f   tile.obj
 0001:0002a2d0       ?dtor$19@?0??parsePattern@@YAHV?$basic_string@_WU?$char_traits@_W@std@@V?$allocator@_W@2@@std@@PEAVTilePattern@@@Z@4HA 000000018002b2d0 f   tile.obj
 0001:0002a2e0       ?dtor$20@?0??parsePattern@@YAHV?$basic_string@_WU?$char_traits@_W@std@@V?$allocator@_W@2@@std@@PEAVTilePattern@@@Z@4HA 000000018002b2e0 f   tile.obj
 0001:0002a2e0       ?dtor$28@?0??parsePattern@@YAHV?$basic_string@_WU?$char_traits@_W@std@@V?$allocator@_W@2@@std@@PEAVTilePattern@@@Z@4HA 000000018002b2e0 f   tile.obj
 0001:0002a2e0       ?dtor$25@?0??parsePattern@@YAHV?$basic_string@_WU?$char_traits@_W@std@@V?$allocator@_W@2@@std@@PEAVTilePattern@@@Z@4HA 000000018002b2e0 f   tile.obj
 0001:0002a300       ?dtor$21@?0??parsePattern@@YAHV?$basic_string@_WU?$char_traits@_W@std@@V?$allocator@_W@2@@std@@PEAVTilePattern@@@Z@4HA 000000018002b300 f   tile.obj
 0001:0002a300       ?dtor$29@?0??parsePattern@@YAHV?$basic_string@_WU?$char_traits@_W@std@@V?$allocator@_W@2@@std@@PEAVTilePattern@@@Z@4HA 000000018002b300 f   tile.obj
 0001:0002a300       ?dtor$26@?0??parsePattern@@YAHV?$basic_string@_WU?$char_traits@_W@std@@V?$allocator@_W@2@@std@@PEAVTilePattern@@@Z@4HA 000000018002b300 f   tile.obj
 0001:0002a320       ?dtor$22@?0??parsePattern@@YAHV?$basic_string@_WU?$char_traits@_W@std@@V?$allocator@_W@2@@std@@PEAVTilePattern@@@Z@4HA 000000018002b320 f   tile.obj
 0001:0002a320       ?dtor$27@?0??parsePattern@@YAHV?$basic_string@_WU?$char_traits@_W@std@@V?$allocator@_W@2@@std@@PEAVTilePattern@@@Z@4HA 000000018002b320 f   tile.obj
 0001:0002a320       ?dtor$30@?0??parsePattern@@YAHV?$basic_string@_WU?$char_traits@_W@std@@V?$allocator@_W@2@@std@@PEAVTilePattern@@@Z@4HA 000000018002b320 f   tile.obj
 0001:0002a330       ?dtor$0@?0??setPattern@TilePattern@@QEAAXV?$basic_string@_WU?$char_traits@_W@std@@V?$allocator@_W@2@@std@@@Z@4HA 000000018002b330 f   tile.obj
 0001:0002a340       ?dtor$1@?0??setPattern@TilePattern@@QEAAXV?$basic_string@_WU?$char_traits@_W@std@@V?$allocator@_W@2@@std@@@Z@4HA 000000018002b340 f   tile.obj
 0001:0002a350       ?dtor$0@?0??setPreset@TilePattern@@QEAAXH@Z@4HA 000000018002b350 f   tile.obj
 0001:0002a350       ?dtor$1@?0??setPreset@TilePattern@@QEAAXH@Z@4HA 000000018002b350 f   tile.obj
 0001:0002a350       ?dtor$3@?0??setPreset@TilePattern@@QEAAXH@Z@4HA 000000018002b350 f   tile.obj
 0001:0002a350       ?dtor$4@?0??setPreset@TilePattern@@QEAAXH@Z@4HA 000000018002b350 f   tile.obj
 0001:0002a350       ?dtor$5@?0??setPreset@TilePattern@@QEAAXH@Z@4HA 000000018002b350 f   tile.obj
 0001:0002a350       ?dtor$6@?0??setPreset@TilePattern@@QEAAXH@Z@4HA 000000018002b350 f   tile.obj
 0001:0002a350       ?dtor$7@?0??setPreset@TilePattern@@QEAAXH@Z@4HA 000000018002b350 f   tile.obj
 0001:0002a350       ?dtor$2@?0??setPreset@TilePattern@@QEAAXH@Z@4HA 000000018002b350 f   tile.obj
 0001:0002a350       ?dtor$9@?0??setPreset@TilePattern@@QEAAXH@Z@4HA 000000018002b350 f   tile.obj
 0001:0002a350       ?dtor$8@?0??setPreset@TilePattern@@QEAAXH@Z@4HA 000000018002b350 f   tile.obj
 0001:0002a360       ?dtor$1@?0??tokenize@@YAXAEBV?$basic_string@_WU?$char_traits@_W@std@@V?$allocator@_W@2@@std@@AEAV?$vector@V?$basic_string@_WU?$char_traits@_W@std@@V?$allocator@_W@2@@std@@V?$allocator@V?$basic_string@_WU?$char_traits@_W@std@@V?$allocator@_W@2@@std@@@2@@2@0@Z@4HA 000000018002b360 f   tile.obj
 0001:0002a386       __scrt_is_nonwritable_in_current_image$filt$0 000000018002b386 f   MSVCRT:utility.obj
 0001:0002a39e       ?fin$0@?0??dllmain_crt_process_attach@@YAHQEAUHINSTANCE__@@QEAX@Z@4HA 000000018002b39e f   MSVCRT:dll_dllmain.obj
 0001:0002a3b5       ?fin$0@?0??dllmain_crt_process_detach@@YAH_N@Z@4HA 000000018002b3b5 f   MSVCRT:dll_dllmain.obj
 0001:0002a3d1       ?filt$0@?0??dllmain_dispatch@@YAHQEAUHINSTANCE__@@KQEAX@Z@4HA 000000018002b3d1 f   MSVCRT:dll_dllmain.obj
 0001:0002a410       ??__FBerconDistortionDesc@@YAXXZ 000000018002b410 f   BerconDistortion.obj
 0001:0002a440       ??__FBerconDistortion_param_blk@@YAXXZ 000000018002b440 f   BerconDistortion.obj
 0001:0002a450       ??__Fxyz_blk@@YAXXZ        000000018002b450 f   BerconDistortion.obj
 0001:0002a470       ??__FBerconGradientDesc@@YAXXZ 000000018002b470 f   BerconGradient.obj
 0001:0002a490       ??__Fgradientmap_param_blk@@YAXXZ 000000018002b490 f   BerconGradient.obj
 0001:0002a4a0       ??__Fxyz_blk@@YAXXZ        000000018002b4a0 f   BerconGradient.obj
 0001:0002a4c0       ??__FBerconMap_param_blk@@YAXXZ 000000018002b4c0 f   BerconTile.obj
 0001:0002a4d0       ??__FBerconTileDesc@@YAXXZ 000000018002b4d0 f   BerconTile.obj
 0001:0002a500       ??__FBerconTile_param_blk@@YAXXZ 000000018002b500 f   BerconTile.obj
 0001:0002a510       ??__Fxyz_blk@@YAXXZ        000000018002b510 f   BerconTile.obj
 0001:0002a530       ??__FBerconMap_param_blk@@YAXXZ 000000018002b530 f   BerconWood.obj
 0001:0002a540       ??__FBerconWoodDesc@@YAXXZ 000000018002b540 f   BerconWood.obj
 0001:0002a560       ??__FBerconWood_param_blk@@YAXXZ 000000018002b560 f   BerconWood.obj
 0001:0002a570       ??__Fxyz_blk@@YAXXZ        000000018002b570 f   BerconWood.obj
 0001:0002a590       ??__FBerconMap_param_blk@@YAXXZ 000000018002b590 f   BerconNoise.obj
 0001:0002a5a0       ??__FBerconNoiseDesc@@YAXXZ 000000018002b5a0 f   BerconNoise.obj
 0001:0002a5c0       ??__Fberconnoise_param_blk@@YAXXZ 000000018002b5c0 f   BerconNoise.obj
 0001:0002a5d0       ??__Fxyz_blk@@YAXXZ        000000018002b5d0 f   BerconNoise.obj
 0002:000008c0       ?kInvalidId$initializer$@AssetManagement@MaxSDK@@3P6AXXZEA 000000018002c8c0     BerconDistortion.obj
 0002:000008c8       ?BerconDistortionDesc$initializer$@@3P6AXXZEA 000000018002c8c8     BerconDistortion.obj
 0002:000008d0       ?xyz_blk$initializer$@@3P6AXXZEA 000000018002c8d0     BerconDistortion.obj
 0002:000008d8       ?BerconDistortion_param_blk$initializer$@@3P6AXXZEA 000000018002c8d8     BerconDistortion.obj
 0002:000008e0       ?kInvalidId$initializer$@AssetManagement@MaxSDK@@3P6AXXZEA 000000018002c8e0     BerconGradient.obj
 0002:000008e8       ?BerconGradientDesc$initializer$@@3P6AXXZEA 000000018002c8e8     BerconGradient.obj
 0002:000008f0       ?xyz_blk$initializer$@@3P6AXXZEA 000000018002c8f0     BerconGradient.obj
 0002:000008f8       ?gradientmap_param_blk$initializer$@@3P6AXXZEA 000000018002c8f8     BerconGradient.obj
 0002:00000900       ?kInvalidId$initializer$@AssetManagement@MaxSDK@@3P6AXXZEA 000000018002c900     BerconTile.obj
 0002:00000908       ?BerconTileDesc$initializer$@@3P6AXXZEA 000000018002c908     BerconTile.obj
 0002:00000910       ?xyz_blk$initializer$@@3P6AXXZEA 000000018002c910     BerconTile.obj
 0002:00000918       ?BerconTile_param_blk$initializer$@@3P6AXXZEA 000000018002c918     BerconTile.obj
 0002:00000920       ?BerconMap_param_blk$initializer$@@3P6AXXZEA 000000018002c920     BerconTile.obj
 0002:00000928       ?kInvalidId$initializer$@AssetManagement@MaxSDK@@3P6AXXZEA 000000018002c928     BerconWood.obj
 0002:00000930       ?BerconWoodDesc$initializer$@@3P6AXXZEA 000000018002c930     BerconWood.obj
 0002:00000938       ?xyz_blk$initializer$@@3P6AXXZEA 000000018002c938     BerconWood.obj
 0002:00000940       ?BerconWood_param_blk$initializer$@@3P6AXXZEA 000000018002c940     BerconWood.obj
 0002:00000948       ?BerconMap_param_blk$initializer$@@3P6AXXZEA 000000018002c948     BerconWood.obj
 0002:00000950       ?kInvalidId$initializer$@AssetManagement@MaxSDK@@3P6AXXZEA 000000018002c950     DllEntry.obj
 0002:00000958       ?kInvalidId$initializer$@AssetManagement@MaxSDK@@3P6AXXZEA 000000018002c958     BerconCommon.obj
 0002:00000960       ?kInvalidId$initializer$@AssetManagement@MaxSDK@@3P6AXXZEA 000000018002c960     BerconNoise.obj
 0002:00000968       ?BerconNoiseDesc$initializer$@@3P6AXXZEA 000000018002c968     BerconNoise.obj
 0002:00000970       ?xyz_blk$initializer$@@3P6AXXZEA 000000018002c970     BerconNoise.obj
 0002:00000978       ?berconnoise_param_blk$initializer$@@3P6AXXZEA 000000018002c978     BerconNoise.obj
 0002:00000980       ?BerconMap_param_blk$initializer$@@3P6AXXZEA 000000018002c980     BerconNoise.obj
 0002:00000988       ?kInvalidId$initializer$@AssetManagement@MaxSDK@@3P6AXXZEA 000000018002c988     fractal.obj
 0002:00000990       ?kInvalidId$initializer$@AssetManagement@MaxSDK@@3P6AXXZEA 000000018002c990     GradientRamp.obj
 0002:00000998       ?kInvalidId$initializer$@AssetManagement@MaxSDK@@3P6AXXZEA 000000018002c998     IGradient.obj
 0002:000009a0       ?kInvalidId$initializer$@AssetManagement@MaxSDK@@3P6AXXZEA 000000018002c9a0     noise.obj
 0002:000009a8       ?kInvalidId$initializer$@AssetManagement@MaxSDK@@3P6AXXZEA 000000018002c9a8     tile.obj
 0002:000009b0       ?kInvalidId$initializer$@AssetManagement@MaxSDK@@3P6AXXZEA 000000018002c9b0     commonMath.obj
 0002:00001170       $cppxdata$??0TabOutOfRangeException@Util@MaxSDK@@QEAA@PEB_W@Z 000000018002d170     BerconDistortion.obj
 0002:00001198       $cppxdata$??1TabOutOfRangeException@Util@MaxSDK@@UEAA@XZ 000000018002d198     BerconDistortion.obj
 0002:000011c0       $cppxdata$??0TabOutOfRangeException@Util@MaxSDK@@QEAA@AEBV012@@Z 000000018002d1c0     BerconDistortion.obj
 0002:000011e8       $cppxdata$??_GTabOutOfRangeException@Util@MaxSDK@@UEAAPEAXI@Z 000000018002d1e8     BerconDistortion.obj
 0002:00001210       $cppxdata$??1?$Tab@PEAVBaseInterface@@@@UEAA@XZ 000000018002d210     BerconDistortion.obj
 0002:00001238       $cppxdata$??_G?$Tab@PEAVBaseInterface@@@@UEAAPEAXI@Z 000000018002d238     BerconDistortion.obj
 0002:00001260       $cppxdata$??1ShadeOutput@@UEAA@XZ 000000018002d260     BerconDistortion.obj
 0002:00001260       $cppxdata$??1RenderGlobalContext@@UEAA@XZ 000000018002d260     BerconDistortion.obj
 0002:00001288       $cppxdata$??_GRenderGlobalContext@@UEAAPEAXI@Z 000000018002d288     BerconDistortion.obj
 0002:000012b0       $cppxdata$??_GShadeOutput@@UEAAPEAXI@Z 000000018002d2b0     BerconDistortion.obj
 0002:000012d8       $cppxdata$??1ShadeContext@@UEAA@XZ 000000018002d2d8     BerconDistortion.obj
 0002:00001300       $cppxdata$??_GShadeContext@@UEAAPEAXI@Z 000000018002d300     BerconDistortion.obj
 0002:00001328       $cppxdata$??1Texmap@@UEAA@XZ 000000018002d328     BerconDistortion.obj
 0002:00001350       $cppxdata$??1?$Tab@PEAVVertexNormalsCallback@@@@UEAA@XZ 000000018002d350     BerconDistortion.obj
 0002:00001378       $cppxdata$??_G?$Tab@PEAVVertexNormalsCallback@@@@UEAAPEAXI@Z 000000018002d378     BerconDistortion.obj
 0002:000013a0       $cppxdata$??0VertexNormalsControl@@QEAA@XZ 000000018002d3a0     BerconDistortion.obj
 0002:000013c8       $cppxdata$??0BerconSC@@QEAA@QEAVShadeContext@@@Z 000000018002d3c8     BerconDistortion.obj
 0002:000013f0       $cppxdata$??1BerconSC@@UEAA@XZ 000000018002d3f0     BerconDistortion.obj
 0002:00001418       $cppxdata$??_GBerconSC@@UEAAPEAXI@Z 000000018002d418     BerconDistortion.obj
 0002:00001440       $cppxdata$??0XYZ_Desc@@QEAA@PEAVClassDesc2@@HHHHHHH@Z 000000018002d440     BerconDistortion.obj
 0002:00001468       $cppxdata$??_GXYZ_Desc@@UEAAPEAXI@Z 000000018002d468     BerconDistortion.obj
 0002:00001490       $cppxdata$??_GBerconWoodDlgProc@@UEAAPEAXI@Z 000000018002d490     BerconWood.obj
 0002:00001490       $cppxdata$??_GBerconTileDlgProc@@UEAAPEAXI@Z 000000018002d490     BerconTile.obj
 0002:00001490       $cppxdata$??_GBerconXYZDlgProc@@UEAAPEAXI@Z 000000018002d490     BerconDistortion.obj
 0002:00001490       $cppxdata$??_GBerconNoiseDlgProc@@UEAAPEAXI@Z 000000018002d490     BerconNoise.obj
 0002:000014b8       $cppxdata$?CreateParamDlg@BerconDistortion@@UEAAPEAVParamDlg@@PEAUHWND__@@PEAVIMtlParams@@@Z 000000018002d4b8     BerconDistortion.obj
 0002:000014e0       $cppxdata$?GetSubTexmapSlotName@BerconDistortion@@UEAA?AVWStr@@H@Z 000000018002d4e0     BerconDistortion.obj
 0002:00001508       $cppxdata$?EvalColor@BerconDistortion@@UEAA?AVAColor@@AEAVShadeContext@@@Z 000000018002d508     BerconDistortion.obj
 0002:00001530       $cppxdata$?EvalMono@BerconDistortion@@UEAAMAEAVShadeContext@@@Z 000000018002d530     BerconDistortion.obj
 0002:00001558       $cppxdata$?EvalNormalPerturb@BerconDistortion@@UEAA?AVPoint3@@AEAVShadeContext@@@Z 000000018002d558     BerconDistortion.obj
 0002:00001580       $cppxdata$?Clone@BerconDistortion@@UEAAPEAVReferenceTarget@@AEAVRemapDir@@@Z 000000018002d580     BerconDistortion.obj
 0002:000015a8       $cppxdata$?SubAnimName@BerconDistortion@@UEAA?AVWStr@@H@Z 000000018002d5a8     BerconDistortion.obj
 0002:000015d0       $cppxdata$??0BerconDistortion@@QEAA@XZ 000000018002d5d0     BerconDistortion.obj
 0002:000015f8       $cppxdata$??_GBerconDistortion@@UEAAPEAXI@Z 000000018002d5f8     BerconDistortion.obj
 0002:00001620       $cppxdata$?Create@BerconDistortionClassDesc@@UEAAPEAXH@Z 000000018002d620     BerconDistortion.obj
 0002:00001648       $cppxdata$??_GBerconDistortionClassDesc@@UEAAPEAXI@Z 000000018002d648     BerconDistortion.obj
 0002:00001670       $cppxdata$??__EBerconDistortionDesc@@YAXXZ 000000018002d670     BerconDistortion.obj
 0002:00001698       $cppxdata$??__FBerconDistortionDesc@@YAXXZ 000000018002d698     BerconDistortion.obj
 0002:000016c0       $cppxdata$??__Fxyz_blk@@YAXXZ 000000018002d6c0     BerconDistortion.obj
 0002:00002ac0       $cppxdata$??1ICustomControl@@UEAA@XZ 000000018002eac0     BerconGradient.obj
 0002:00002ae8       $cppxdata$??_GICustomControl@@UEAAPEAXI@Z 000000018002eae8     BerconGradient.obj
 0002:00002b10       $cppxdata$??_GIGradient@@UEAAPEAXI@Z 000000018002eb10     BerconGradient.obj
 0002:00002b38       $cppxdata$?CreateParamDlg@BerconGradient@@UEAAPEAVParamDlg@@PEAUHWND__@@PEAVIMtlParams@@@Z 000000018002eb38     BerconGradient.obj
 0002:00002b60       $cppxdata$?GetSubTexmapSlotName@BerconGradient@@UEAA?AVWStr@@H@Z 000000018002eb60     BerconGradient.obj
 0002:00002b88       $cppxdata$?Clone@BerconGradient@@UEAAPEAVReferenceTarget@@AEAVRemapDir@@@Z 000000018002eb88     BerconGradient.obj
 0002:00002bb0       $cppxdata$?SubAnimName@BerconGradient@@UEAA?AVWStr@@H@Z 000000018002ebb0     BerconGradient.obj
 0002:00002bd8       $cppxdata$??0BerconGradient@@QEAA@XZ 000000018002ebd8     BerconGradient.obj
 0002:00002c00       $cppxdata$??_GBerconGradient@@UEAAPEAXI@Z 000000018002ec00     BerconGradient.obj
 0002:00002c28       $cppxdata$?Create@BerconGradientClassDesc@@UEAAPEAXH@Z 000000018002ec28     BerconGradient.obj
 0002:00002c50       $cppxdata$??_GBerconNoiseClassDesc@@UEAAPEAXI@Z 000000018002ec50     BerconNoise.obj
 0002:00002c50       $cppxdata$??_GBerconGradientClassDesc@@UEAAPEAXI@Z 000000018002ec50     BerconGradient.obj
 0002:00002c50       $cppxdata$??_GBerconWoodClassDesc@@UEAAPEAXI@Z 000000018002ec50     BerconWood.obj
 0002:00002c78       $cppxdata$??__EBerconGradientDesc@@YAXXZ 000000018002ec78     BerconGradient.obj
 0002:00002ca0       $cppxdata$??__FBerconGradientDesc@@YAXXZ 000000018002eca0     BerconGradient.obj
 0002:00002cc8       $cppxdata$??__Fxyz_blk@@YAXXZ 000000018002ecc8     BerconGradient.obj
 0002:00002cf0       $cppxdata$?DlgProc@BerconGradientDlgProc@@UEAA_JHPEAVIParamMap2@@PEAUHWND__@@I_K_J@Z 000000018002ecf0     BerconGradient.obj
 0002:00002d18       $cppxdata$??_GBerconGradientDlgProc@@UEAAPEAXI@Z 000000018002ed18     BerconGradient.obj
 0002:00003b60       $cppxdata$??1?$basic_string@_WU?$char_traits@_W@std@@V?$allocator@_W@2@@std@@QEAA@XZ 000000018002fb60     BerconTile.obj
 0002:00003b88       $cppxdata$??1?$vector@MV?$allocator@M@std@@@std@@QEAA@XZ 000000018002fb88     BerconTile.obj
 0002:00003bb0       $cppxdata$??1TilePattern@@QEAA@XZ 000000018002fbb0     BerconTile.obj
 0002:00003bd8       $cppxdata$??1?$vector@VTileRow@@V?$allocator@VTileRow@@@std@@@std@@QEAA@XZ 000000018002fbd8     BerconTile.obj
 0002:00003c00       $cppxdata$?CreateParamDlg@BerconTile@@UEAAPEAVParamDlg@@PEAUHWND__@@PEAVIMtlParams@@@Z 000000018002fc00     BerconTile.obj
 0002:00003c28       $cppxdata$?Update@BerconTile@@UEAAXHAEAVInterval@@@Z 000000018002fc28     BerconTile.obj
 0002:00003c50       $cppxdata$?GetSubTexmapSlotName@BerconTile@@UEAA?AVWStr@@H@Z 000000018002fc50     BerconTile.obj
 0002:00003c78       $cppxdata$?EvalColor@BerconTile@@UEAA?AVAColor@@AEAVShadeContext@@@Z 000000018002fc78     BerconTile.obj
 0002:00003ca0       $cppxdata$?EvalNormalPerturb@BerconTile@@UEAA?AVPoint3@@AEAVShadeContext@@@Z 000000018002fca0     BerconTile.obj
 0002:00003cc8       $cppxdata$?Clone@BerconTile@@UEAAPEAVReferenceTarget@@AEAVRemapDir@@@Z 000000018002fcc8     BerconTile.obj
 0002:00003cf0       $cppxdata$?SubAnimName@BerconTile@@UEAA?AVWStr@@H@Z 000000018002fcf0     BerconTile.obj
 0002:00003d18       $cppxdata$??0BerconTile@@QEAA@XZ 000000018002fd18     BerconTile.obj
 0002:00003d40       $cppxdata$??_GBerconTile@@UEAAPEAXI@Z 000000018002fd40     BerconTile.obj
 0002:00003d68       $cppxdata$?Create@BerconTileClassDesc@@UEAAPEAXH@Z 000000018002fd68     BerconTile.obj
 0002:00003d90       $cppxdata$??_GBerconTileClassDesc@@UEAAPEAXI@Z 000000018002fd90     BerconTile.obj
 0002:00003db8       $cppxdata$??__EBerconTileDesc@@YAXXZ 000000018002fdb8     BerconTile.obj
 0002:00003de0       $cppxdata$??__FBerconTileDesc@@YAXXZ 000000018002fde0     BerconTile.obj
 0002:00003e08       $cppxdata$??__Fxyz_blk@@YAXXZ 000000018002fe08     BerconTile.obj
 0002:00004cf0       $cppxdata$?CreateParamDlg@BerconWood@@UEAAPEAVParamDlg@@PEAUHWND__@@PEAVIMtlParams@@@Z 0000000180030cf0     BerconWood.obj
 0002:00004d18       $cppxdata$?GetSubTexmapSlotName@BerconWood@@UEAA?AVWStr@@H@Z 0000000180030d18     BerconWood.obj
 0002:00004d40       $cppxdata$?Clone@BerconWood@@UEAAPEAVReferenceTarget@@AEAVRemapDir@@@Z 0000000180030d40     BerconWood.obj
 0002:00004d68       $cppxdata$?SubAnimName@BerconWood@@UEAA?AVWStr@@H@Z 0000000180030d68     BerconWood.obj
 0002:00004d90       $cppxdata$??0BerconWood@@QEAA@XZ 0000000180030d90     BerconWood.obj
 0002:00004db8       $cppxdata$??_GBerconWood@@UEAAPEAXI@Z 0000000180030db8     BerconWood.obj
 0002:00004de0       $cppxdata$?Create@BerconWoodClassDesc@@UEAAPEAXH@Z 0000000180030de0     BerconWood.obj
 0002:00004e08       $cppxdata$??__EBerconWoodDesc@@YAXXZ 0000000180030e08     BerconWood.obj
 0002:00004e30       $cppxdata$??__FBerconWoodDesc@@YAXXZ 0000000180030e30     BerconWood.obj
 0002:00004e58       $cppxdata$??__Fxyz_blk@@YAXXZ 0000000180030e58     BerconWood.obj
 0002:00005ab0       $cppxdata$?CreateParamDlg@BerconNoise@@UEAAPEAVParamDlg@@PEAUHWND__@@PEAVIMtlParams@@@Z 0000000180031ab0     BerconNoise.obj
 0002:00005ad8       $cppxdata$?GetSubTexmapSlotName@BerconNoise@@UEAA?AVWStr@@H@Z 0000000180031ad8     BerconNoise.obj
 0002:00005b00       $cppxdata$?Clone@BerconNoise@@UEAAPEAVReferenceTarget@@AEAVRemapDir@@@Z 0000000180031b00     BerconNoise.obj
 0002:00005b28       $cppxdata$?SubAnimName@BerconNoise@@UEAA?AVWStr@@H@Z 0000000180031b28     BerconNoise.obj
 0002:00005b50       $cppxdata$??0BerconNoise@@QEAA@XZ 0000000180031b50     BerconNoise.obj
 0002:00005b78       $cppxdata$??_GBerconNoise@@UEAAPEAXI@Z 0000000180031b78     BerconNoise.obj
 0002:00005ba0       $cppxdata$?Create@BerconNoiseClassDesc@@UEAAPEAXH@Z 0000000180031ba0     BerconNoise.obj
 0002:00005bc8       $cppxdata$??__EBerconNoiseDesc@@YAXXZ 0000000180031bc8     BerconNoise.obj
 0002:00005bf0       $cppxdata$??__FBerconNoiseDesc@@YAXXZ 0000000180031bf0     BerconNoise.obj
 0002:00005c18       $cppxdata$??__Fxyz_blk@@YAXXZ 0000000180031c18     BerconNoise.obj
 0002:00006428       $cppxdata$?addKey@GradientRamp@@QEAAXHMVAColor@@PEAVTexmap@@@Z 0000000180032428     GradientRamp.obj
 0002:000064f8       $cppxdata$??0?$vector@MV?$allocator@M@std@@@std@@QEAA@AEBV01@@Z 00000001800324f8     tile.obj
 0002:00006520       $cppxdata$??1TileRow@@QEAA@XZ 0000000180032520     tile.obj
 0002:00006548       $cppxdata$?_Destroy@?$vector@VTileRow@@V?$allocator@VTileRow@@@std@@@std@@AEAAXPEAVTileRow@@0@Z 0000000180032548     tile.obj
 0002:00006570       $cppxdata$?setPattern@TilePattern@@QEAAXV?$basic_string@_WU?$char_traits@_W@std@@V?$allocator@_W@2@@std@@@Z 0000000180032570     tile.obj
 0002:00006598       $cppxdata$?setPreset@TilePattern@@QEAAXH@Z 0000000180032598     tile.obj
 0002:000065c0       $cppxdata$?tokenize@@YAXAEBV?$basic_string@_WU?$char_traits@_W@std@@V?$allocator@_W@2@@std@@AEAV?$vector@V?$basic_string@_WU?$char_traits@_W@std@@V?$allocator@_W@2@@std@@V?$allocator@V?$basic_string@_WU?$char_traits@_W@std@@V?$allocator@_W@2@@std@@@2@@2@0@Z 00000001800325c0     tile.obj
 0002:000065e8       $cppxdata$??1?$vector@V?$basic_string@_WU?$char_traits@_W@std@@V?$allocator@_W@2@@std@@V?$allocator@V?$basic_string@_WU?$char_traits@_W@std@@V?$allocator@_W@2@@std@@@2@@std@@QEAA@XZ 00000001800325e8     tile.obj
 0002:00006610       $cppxdata$?parsePattern@@YAHV?$basic_string@_WU?$char_traits@_W@std@@V?$allocator@_W@2@@std@@PEAVTilePattern@@@Z 0000000180032610     tile.obj
 0002:00006638       $cppxdata$??0?$basic_stringbuf@_WU?$char_traits@_W@std@@V?$allocator@_W@2@@std@@QEAA@AEBV?$basic_string@_WU?$char_traits@_W@std@@V?$allocator@_W@2@@1@H@Z 0000000180032638     tile.obj
 0002:00006660       $cppxdata$??1?$basic_stringbuf@_WU?$char_traits@_W@std@@V?$allocator@_W@2@@std@@UEAA@XZ 0000000180032660     tile.obj
 0002:00006688       $cppxdata$??_D?$basic_stringstream@_WU?$char_traits@_W@std@@V?$allocator@_W@2@@std@@QEAAXXZ 0000000180032688     tile.obj
 0002:000066b0       $cppxdata$??$_Emplace_reallocate@V?$basic_string@_WU?$char_traits@_W@std@@V?$allocator@_W@2@@std@@@?$vector@V?$basic_string@_WU?$char_traits@_W@std@@V?$allocator@_W@2@@std@@V?$allocator@V?$basic_string@_WU?$char_traits@_W@std@@V?$allocator@_W@2@@std@@@2@@std@@QEAAPEAV?$basic_string@_WU?$char_traits@_W@std@@V?$allocator@_W@2@@1@QEAV21@$$QEAV21@@Z 00000001800326b0     tile.obj
 0002:000066d8       $cppxdata$??$_Emplace_reallocate@AEBVTileRow@@@?$vector@VTileRow@@V?$allocator@VTileRow@@@std@@@std@@QEAAPEAVTileRow@@QEAV2@AEBV2@@Z 00000001800326d8     tile.obj
 0002:00006700       $cppxdata$??$_Emplace_reallocate@M@?$vector@MV?$allocator@M@std@@@std@@QEAAPEAMQEAM$$QEAM@Z 0000000180032700     tile.obj
 0002:00006700       $cppxdata$??$_Emplace_reallocate@AEBM@?$vector@MV?$allocator@M@std@@@std@@QEAAPEAMQEAMAEBM@Z 0000000180032700     tile.obj
 0002:00006728       $cppxdata$??$_Uninitialized_move@PEAVTileRow@@PEAV1@V?$allocator@VTileRow@@@std@@@std@@YAPEAVTileRow@@QEAV1@0PEAV1@AEAV?$allocator@VTileRow@@@0@@Z 0000000180032728     tile.obj
 0002:00006750       $cppxdata$??1?$_Uninitialized_backout_al@PEAV?$basic_string@_WU?$char_traits@_W@std@@V?$allocator@_W@2@@std@@V?$allocator@V?$basic_string@_WU?$char_traits@_W@std@@V?$allocator@_W@2@@std@@@2@@std@@QEAA@XZ 0000000180032750     tile.obj
 0002:00006778       $cppxdata$??1?$_Uninitialized_backout_al@PEAVTileRow@@V?$allocator@VTileRow@@@std@@@std@@QEAA@XZ 0000000180032778     tile.obj
 0002:00009370       $unwind$??0TabOutOfRangeException@Util@MaxSDK@@QEAA@PEB_W@Z 0000000180035370     BerconDistortion.obj
 0002:00009380       $stateUnwindMap$??0TabOutOfRangeException@Util@MaxSDK@@QEAA@PEB_W@Z 0000000180035380     BerconDistortion.obj
 0002:00009388       $ip2state$??0TabOutOfRangeException@Util@MaxSDK@@QEAA@PEB_W@Z 0000000180035388     BerconDistortion.obj
 0002:000093a0       $unwind$??1TabOutOfRangeException@Util@MaxSDK@@UEAA@XZ 00000001800353a0     BerconDistortion.obj
 0002:000093b0       $stateUnwindMap$??1TabOutOfRangeException@Util@MaxSDK@@UEAA@XZ 00000001800353b0     BerconDistortion.obj
 0002:000093b0       $stateUnwindMap$??_GTabOutOfRangeException@Util@MaxSDK@@UEAAPEAXI@Z 00000001800353b0     BerconDistortion.obj
 0002:000093c0       $ip2state$??1TabOutOfRangeException@Util@MaxSDK@@UEAA@XZ 00000001800353c0     BerconDistortion.obj
 0002:000093c8       $unwind$??0TabOutOfRangeException@Util@MaxSDK@@QEAA@AEBV012@@Z 00000001800353c8     BerconDistortion.obj
 0002:000093d8       $stateUnwindMap$??0TabOutOfRangeException@Util@MaxSDK@@QEAA@AEBV012@@Z 00000001800353d8     BerconDistortion.obj
 0002:000093e8       $ip2state$??0TabOutOfRangeException@Util@MaxSDK@@QEAA@AEBV012@@Z 00000001800353e8     BerconDistortion.obj
 0002:00009408       $unwind$??_GTabOutOfRangeException@Util@MaxSDK@@UEAAPEAXI@Z 0000000180035408     BerconDistortion.obj
 0002:00009420       $ip2state$??_GTabOutOfRangeException@Util@MaxSDK@@UEAAPEAXI@Z 0000000180035420     BerconDistortion.obj
 0002:00009428       $unwind$?SetSubTexmap@BerconTile@@UEAAXHPEAVTexmap@@@Z 0000000180035428     BerconTile.obj
 0002:00009428       $unwind$?GetParamBlockByID@BerconGradient@@UEAAPEAVIParamBlock2@@F@Z 0000000180035428     BerconGradient.obj
 0002:00009428       $unwind$??_Gexception@std@@UEAAPEAXI@Z 0000000180035428     MSVCRT:throw_bad_alloc.obj
 0002:00009428       $unwind$_RTC_Terminate     0000000180035428     MSVCRT:initsect.obj
 0002:00009428       $unwind$_RTC_Initialize    0000000180035428     MSVCRT:initsect.obj
 0002:00009428       $unwind$?ScreenUV@BerconSC@@UEAAXAEAVPoint2@@0@Z 0000000180035428     BerconDistortion.obj
 0002:00009428       $unwind$?GetParamBlockByID@BerconNoise@@UEAAPEAVIParamBlock2@@F@Z 0000000180035428     BerconNoise.obj
 0002:00009428       $unwind$?GetParamBlockByID@BerconDistortion@@UEAAPEAVIParamBlock2@@F@Z 0000000180035428     BerconDistortion.obj
 0002:00009428       $unwind$?GetParamBlockByID@BerconTile@@UEAAPEAVIParamBlock2@@F@Z 0000000180035428     BerconTile.obj
 0002:00009428       $unwind$??_GInterfaceServer@@UEAAPEAXI@Z 0000000180035428     BerconDistortion.obj
 0002:00009428       $unwind$?SetSubTexmap@BerconGradient@@UEAAXHPEAVTexmap@@@Z 0000000180035428     BerconGradient.obj
 0002:00009428       $unwind$?SetSubTexmap@BerconDistortion@@UEAAXHPEAVTexmap@@@Z 0000000180035428     BerconDistortion.obj
 0002:00009428       $unwind$?SetSubTexmap@BerconNoise@@UEAAXHPEAVTexmap@@@Z 0000000180035428     BerconNoise.obj
 0002:00009428       $unwind$??_GBaseInterfaceServer@@UEAAPEAXI@Z 0000000180035428     BerconDistortion.obj
 0002:00009428       $unwind$??_G?$basic_stringbuf@_WU?$char_traits@_W@std@@V?$allocator@_W@2@@std@@UEAAPEAXI@Z 0000000180035428     tile.obj
 0002:00009428       $unwind$??_Gbad_alloc@std@@UEAAPEAXI@Z 0000000180035428     MSVCRT:throw_bad_alloc.obj
 0002:00009428       $unwind$?GetParamBlockByID@BerconWood@@UEAAPEAVIParamBlock2@@F@Z 0000000180035428     BerconWood.obj
 0002:00009428       $unwind$?SetSubTexmap@BerconWood@@UEAAXHPEAVTexmap@@@Z 0000000180035428     BerconWood.obj
 0002:00009428       $unwind$?Set@BitArray@@QEAAXH@Z 0000000180035428     BerconDistortion.obj
 0002:00009428       $unwind$??_Gbad_array_new_length@std@@UEAAPEAXI@Z 0000000180035428     MSVCRT:throw_bad_alloc.obj
 0002:00009428       $unwind$??_G?$basic_stringstream@_WU?$char_traits@_W@std@@V?$allocator@_W@2@@std@@UEAAPEAXI@Z 0000000180035428     tile.obj
 0002:00009434       $unwind$??1?$Tab@PEAVBaseInterface@@@@UEAA@XZ 0000000180035434     BerconDistortion.obj
 0002:00009448       $ip2state$??1?$Tab@PEAVBaseInterface@@@@UEAA@XZ 0000000180035448     BerconDistortion.obj
 0002:00009450       $unwind$??_G?$Tab@PEAVBaseInterface@@@@UEAAPEAXI@Z 0000000180035450     BerconDistortion.obj
 0002:00009468       $ip2state$??_G?$Tab@PEAVBaseInterface@@@@UEAAPEAXI@Z 0000000180035468     BerconDistortion.obj
 0002:00009470       $unwind$?GetClassName@BerconNoise@@UEAAXAEAVWStr@@@Z 0000000180035470     BerconNoise.obj
 0002:00009470       $unwind$?alterUVW@Noise@@SAXAEAVPoint3@@H@Z 0000000180035470     noise.obj
 0002:00009470       $unwind$?BarycentricCoords@BerconSC@@UEAA?AVPoint3@@XZ 0000000180035470     BerconDistortion.obj
 0002:00009470       $unwind$?IsSubClassOf@Animatable@@UEAAHVClass_ID@@@Z 0000000180035470     BerconDistortion.obj
 0002:00009470       $unwind$?_Tidy@?$vector@MV?$allocator@M@std@@@std@@AEAAXXZ 0000000180035470     tile.obj
 0002:00009470       $unwind$?DiscardTexHandle@BerconNoise@@QEAAXXZ 0000000180035470     BerconNoise.obj
 0002:00009470       $unwind$__scrt_uninitialize_crt 0000000180035470     MSVCRT:utility.obj
 0002:00009470       $unwind$?DiffuseIllum@BerconSC@@UEAA?AVColor@@XZ 0000000180035470     BerconDistortion.obj
 0002:00009470       $unwind$??0bad_array_new_length@std@@QEAA@AEBV01@@Z 0000000180035470     MSVCRT:throw_bad_alloc.obj
 0002:00009470       $unwind$??_GParamMap2UserDlgProc@@UEAAPEAXI@Z 0000000180035470     BerconDistortion.obj
 0002:00009470       $unwind$??0bad_alloc@std@@QEAA@AEBV01@@Z 0000000180035470     MSVCRT:throw_bad_alloc.obj
 0002:00009470       $unwind$__scrt_initialize_crt 0000000180035470     MSVCRT:utility.obj
 0002:00009470       $unwind$?VectorFromNoScale@BerconSC@@UEAA?AVPoint3@@AEBV2@W4RefFrame@@@Z 0000000180035470     BerconDistortion.obj
 0002:00009470       $unwind$??0exception@std@@QEAA@AEBV01@@Z 0000000180035470     MSVCRT:throw_bad_alloc.obj
 0002:00009470       $unwind$?GetClassName@BerconGradient@@UEAAXAEAVWStr@@@Z 0000000180035470     BerconGradient.obj
 0002:00009470       $unwind$?VectorToNoScale@BerconSC@@UEAA?AVPoint3@@AEBV2@W4RefFrame@@@Z 0000000180035470     BerconDistortion.obj
 0002:00009470       $unwind$?VectorFrom@BerconSC@@UEAA?AVPoint3@@AEBV2@W4RefFrame@@@Z 0000000180035470     BerconDistortion.obj
 0002:00009470       $unwind$?VectorTo@BerconSC@@UEAA?AVPoint3@@AEBV2@W4RefFrame@@@Z 0000000180035470     BerconDistortion.obj
 0002:00009470       $unwind$?leftUp@GradientRamp@@QEAAXHH_N00@Z 0000000180035470     GradientRamp.obj
 0002:00009470       $unwind$?popup@GradientRamp@@QEAAXHHH@Z 0000000180035470     GradientRamp.obj
 0002:00009470       $unwind$??2@YAPEAX_K@Z     0000000180035470     MSVCRT:new_scalar.obj
 0002:00009470       $unwind$?PointFrom@BerconSC@@UEAA?AVPoint3@@AEBV2@W4RefFrame@@@Z 0000000180035470     BerconDistortion.obj
 0002:00009470       $unwind$?DiscardTexHandle@BerconWood@@QEAAXXZ 0000000180035470     BerconWood.obj
 0002:00009470       $unwind$?SetThing@BerconTileDlgProc@@UEAAXPEAVReferenceTarget@@@Z 0000000180035470     BerconTile.obj
 0002:00009470       $unwind$?DiscardTexHandle@BerconGradient@@QEAAXXZ 0000000180035470     BerconGradient.obj
 0002:00009470       $unwind$?PointTo@BerconSC@@UEAA?AVPoint3@@AEBV2@W4RefFrame@@@Z 0000000180035470     BerconDistortion.obj
 0002:00009470       $unwind$?UVWNormal@BerconSC@@UEAA?AVPoint3@@H@Z 0000000180035470     BerconDistortion.obj
 0002:00009470       $unwind$?DUVW@BerconSC@@UEAA?AVPoint3@@H@Z 0000000180035470     BerconDistortion.obj
 0002:00009470       $unwind$?UVW@BerconSC@@UEAA?AVPoint3@@H@Z 0000000180035470     BerconDistortion.obj
 0002:00009470       $unwind$?SurfacePtScreen@BerconSC@@UEAA?AVPoint2@@XZ 0000000180035470     BerconDistortion.obj
 0002:00009470       $unwind$?ScreenCoord@BerconSC@@UEAA?AVIPoint2@@XZ 0000000180035470     BerconDistortion.obj
 0002:00009470       $unwind$?DPObjRelBox@BerconSC@@UEAA?AVPoint3@@XZ 0000000180035470     BerconDistortion.obj
 0002:00009470       $unwind$?GetClassName@BerconDistortion@@UEAAXAEAVWStr@@@Z 0000000180035470     BerconDistortion.obj
 0002:00009470       $unwind$?GetClassName@BerconWood@@UEAAXAEAVWStr@@@Z 0000000180035470     BerconWood.obj
 0002:00009470       $unwind$?PObjRelBox@BerconSC@@UEAA?AVPoint3@@XZ 0000000180035470     BerconDistortion.obj
 0002:00009470       $unwind$?GetClassName@BerconTile@@UEAAXAEAVWStr@@@Z 0000000180035470     BerconTile.obj
 0002:00009470       $unwind$?ObjectBox@BerconSC@@UEAA?AVBox3@@XZ 0000000180035470     BerconDistortion.obj
 0002:00009470       $unwind$?DPObj@BerconSC@@UEAA?AVPoint3@@XZ 0000000180035470     BerconDistortion.obj
 0002:00009470       $unwind$IsolationAwarePrivatenPgViNgRzlnPgpgk 0000000180035470     DllEntry.obj
 0002:00009470       $unwind$?DP@BerconSC@@UEAA?AVPoint3@@XZ 0000000180035470     BerconDistortion.obj
 0002:00009470       $unwind$?OrigView@ShadeContext@@UEAA?AVPoint3@@XZ 0000000180035470     BerconDistortion.obj
 0002:00009470       $unwind$?OrigNormal@ShadeContext@@UEAA?AVPoint3@@XZ 0000000180035470     BerconDistortion.obj
 0002:00009470       $unwind$?CamPos@BerconSC@@UEAA?AVPoint3@@XZ 0000000180035470     BerconDistortion.obj
 0002:00009470       $unwind$?Normal@BerconSC@@UEAA?AVPoint3@@XZ 0000000180035470     BerconDistortion.obj
 0002:00009470       $unwind$DllMain            0000000180035470     DllEntry.obj
 0002:00009470       $unwind$?DiscardTexHandle@BerconTile@@QEAAXXZ 0000000180035470     BerconTile.obj
 0002:00009470       $unwind$?RefractVector@BerconSC@@UEAA?AVPoint3@@M@Z 0000000180035470     BerconDistortion.obj
 0002:00009470       $unwind$?ReflectVector@BerconSC@@UEAA?AVPoint3@@XZ 0000000180035470     BerconDistortion.obj
 0002:00009470       $unwind$??_Gtype_info@@UEAAPEAXI@Z 0000000180035470     MSVCRT:std_type_info_static.obj
 0002:00009470       $unwind$?OrigView@BerconSC@@UEAA?AVPoint3@@XZ 0000000180035470     BerconDistortion.obj
 0002:00009470       $unwind$?OrigNormal@BerconSC@@UEAA?AVPoint3@@XZ 0000000180035470     BerconDistortion.obj
 0002:00009470       $unwind$?_Tidy_deallocate@?$basic_string@_WU?$char_traits@_W@std@@V?$allocator@_W@2@@std@@QEAAXXZ 0000000180035470     BerconTile.obj
 0002:00009470       $unwind$?GNormal@BerconSC@@UEAA?AVPoint3@@XZ 0000000180035470     BerconDistortion.obj
 0002:00009470       $unwind$_onexit            0000000180035470     MSVCRT:utility.obj
 0002:00009470       $unwind$__scrt_release_startup_lock 0000000180035470     MSVCRT:utility.obj
 0002:00009470       $unwind$?V@BerconSC@@UEAA?AVPoint3@@XZ 0000000180035470     BerconDistortion.obj
 0002:00009478       $unwind$?SetDlgThing@BerconWood@@UEAAHPEAVParamDlg@@@Z 0000000180035478     BerconWood.obj
 0002:00009478       $unwind$__scrt_dllmain_crt_thread_attach 0000000180035478     MSVCRT:utility.obj
 0002:00009478       $unwind$__scrt_dllmain_uninitialize_critical 0000000180035478     MSVCRT:utility.obj
 0002:00009478       $unwind$__scrt_acquire_startup_lock 0000000180035478     MSVCRT:utility.obj
 0002:00009478       $unwind$__scrt_dllmain_uninitialize_c 0000000180035478     MSVCRT:utility.obj
 0002:00009478       $unwind$?dllmain_crt_dispatch@@YAHQEAUHINSTANCE__@@KQEAX@Z 0000000180035478     MSVCRT:dll_dllmain.obj
 0002:00009478       $unwind$?allocate@?$allocator@_W@std@@QEAAPEA_W_K@Z 0000000180035478     BerconTile.obj
 0002:00009478       $unwind$?SetDlgThing@BerconNoise@@UEAAHPEAVParamDlg@@@Z 0000000180035478     BerconNoise.obj
 0002:00009478       $unwind$atexit             0000000180035478     MSVCRT:utility.obj
 0002:00009478       $unwind$?_Xlen@?$basic_string@_WU?$char_traits@_W@std@@V?$allocator@_W@2@@std@@SAXXZ 0000000180035478     BerconTile.obj
 0002:00009478       $unwind$?_Xlength@?$vector@MV?$allocator@M@std@@@std@@CAXXZ 0000000180035478     tile.obj
 0002:00009478       $unwind$__scrt_dllmain_after_initialize_c 0000000180035478     MSVCRT:utility.obj
 0002:00009478       $unwind$__scrt_dllmain_crt_thread_detach 0000000180035478     MSVCRT:utility.obj
 0002:00009478       $unwind$__scrt_dllmain_before_initialize_c 0000000180035478     MSVCRT:utility.obj
 0002:00009478       $unwind$?NotifyDependents@ReferenceMaker@@EEAA?AW4RefResult@@AEBVInterval@@_KIKHPEAVReferenceTarget@@@Z 0000000180035478     BerconDistortion.obj
 0002:00009478       $unwind$?deallocate@?$allocator@VTileRow@@@std@@QEAAXQEAVTileRow@@_K@Z 0000000180035478     tile.obj
 0002:00009478       $unwind$?LibClassDesc@@YAPEAVClassDesc@@H@Z 0000000180035478     DllEntry.obj
 0002:00009478       $unwind$?deallocate@?$allocator@_W@std@@QEAAXQEA_W_K@Z 0000000180035478     tile.obj
 0002:00009478       $unwind$?_Xran@?$_String_val@U?$_Simple_types@_W@std@@@std@@SAXXZ 0000000180035478     tile.obj
 0002:00009478       $unwind$?SetDlgThing@BerconTile@@UEAAHPEAVParamDlg@@@Z 0000000180035478     BerconTile.obj
 0002:00009478       $unwind$?deallocate@?$allocator@V?$basic_string@_WU?$char_traits@_W@std@@V?$allocator@_W@2@@std@@@std@@QEAAXQEAV?$basic_string@_WU?$char_traits@_W@std@@V?$allocator@_W@2@@2@_K@Z 0000000180035478     tile.obj
 0002:00009478       $unwind$?GetString@@YAPEA_WH@Z 0000000180035478     DllEntry.obj
 0002:00009478       $unwind$__scrt_initialize_default_local_stdio_options 0000000180035478     MSVCRT:default_local_stdio_options.obj
 0002:00009478       $unwind$?allocate@?$allocator@M@std@@QEAAPEAM_K@Z 0000000180035478     tile.obj
 0002:00009478       $unwind$?_Xlength@?$vector@V?$basic_string@_WU?$char_traits@_W@std@@V?$allocator@_W@2@@std@@V?$allocator@V?$basic_string@_WU?$char_traits@_W@std@@V?$allocator@_W@2@@std@@@2@@std@@CAXXZ 0000000180035478     tile.obj
 0002:00009478       $unwind$?_Xlength@?$vector@VTileRow@@V?$allocator@VTileRow@@@std@@@std@@CAXXZ 0000000180035478     tile.obj
 0002:00009478       $unwind$?LibDescription@@YAPEB_WXZ 0000000180035478     DllEntry.obj
 0002:00009478       $unwind$?deallocate@?$allocator@M@std@@QEAAXQEAM_K@Z 0000000180035478     tile.obj
 0002:00009478       $unwind$?SetDlgThing@BerconGradient@@UEAAHPEAVParamDlg@@@Z 0000000180035478     BerconGradient.obj
 0002:00009478       $unwind$?GetInterface@MtlBase@@UEAAPEAVBaseInterface@@VInterface_ID@@@Z 0000000180035478     BerconDistortion.obj
 0002:00009480       $unwind$?NotifyForeground@ReferenceTarget@@UEAAXH@Z 0000000180035480     BerconDistortion.obj
 0002:0000948c       $unwind$?GetInterfaceAt@ClassDesc@@UEAAPEAVFPInterface@@H@Z 000000018003548c     BerconDistortion.obj
 0002:00009498       $unwind$??1ShadeOutput@@UEAA@XZ 0000000180035498     BerconDistortion.obj
 0002:00009498       $unwind$??1RenderGlobalContext@@UEAA@XZ 0000000180035498     BerconDistortion.obj
 0002:000094a8       $stateUnwindMap$??1ShadeOutput@@UEAA@XZ 00000001800354a8     BerconDistortion.obj
 0002:000094a8       $stateUnwindMap$??_GRenderGlobalContext@@UEAAPEAXI@Z 00000001800354a8     BerconDistortion.obj
 0002:000094a8       $stateUnwindMap$??_GShadeOutput@@UEAAPEAXI@Z 00000001800354a8     BerconDistortion.obj
 0002:000094a8       $stateUnwindMap$??1RenderGlobalContext@@UEAA@XZ 00000001800354a8     BerconDistortion.obj
 0002:000094b0       $ip2state$??1RenderGlobalContext@@UEAA@XZ 00000001800354b0     BerconDistortion.obj
 0002:000094b0       $ip2state$??1ShadeOutput@@UEAA@XZ 00000001800354b0     BerconDistortion.obj
 0002:000094b8       $unwind$??_GRenderGlobalContext@@UEAAPEAXI@Z 00000001800354b8     BerconDistortion.obj
 0002:000094d0       $ip2state$??_GRenderGlobalContext@@UEAAPEAXI@Z 00000001800354d0     BerconDistortion.obj
 0002:000094d8       $unwind$??_GShadeOutput@@UEAAPEAXI@Z 00000001800354d8     BerconDistortion.obj
 0002:000094f0       $ip2state$??_GShadeOutput@@UEAAPEAXI@Z 00000001800354f0     BerconDistortion.obj
 0002:000094f8       $unwind$?noise@Noise@@SAMVPoint3@@AEAVNoiseParams@@@Z 00000001800354f8     noise.obj
 0002:000094f8       $unwind$?EvalMono@BerconGradient@@UEAAMAEAVShadeContext@@@Z 00000001800354f8     BerconGradient.obj
 0002:000094f8       $unwind$?SetView@BerconSC@@UEAAXVPoint3@@@Z 00000001800354f8     BerconDistortion.obj
 0002:000094f8       $unwind$?EvalMono@BerconNoise@@UEAAMAEAVShadeContext@@@Z 00000001800354f8     BerconNoise.obj
 0002:000094f8       $unwind$?EvalMono@BerconWood@@UEAAMAEAVShadeContext@@@Z 00000001800354f8     BerconWood.obj
 0002:000094f8       $unwind$?RayDiam@ShadeContext@@UEAAMXZ 00000001800354f8     BerconDistortion.obj
 0002:000094f8       $unwind$?SetNormal@BerconSC@@UEAAXVPoint3@@@Z 00000001800354f8     BerconDistortion.obj
 0002:000094f8       $unwind$?EvalMono@BerconTile@@UEAAMAEAVShadeContext@@@Z 00000001800354f8     BerconTile.obj
 0002:00009500       $unwind$??1ShadeContext@@UEAA@XZ 0000000180035500     BerconDistortion.obj
 0002:00009510       $stateUnwindMap$??1ShadeContext@@UEAA@XZ 0000000180035510     BerconDistortion.obj
 0002:00009528       $ip2state$??1ShadeContext@@UEAA@XZ 0000000180035528     BerconDistortion.obj
 0002:00009540       $unwind$??_GShadeContext@@UEAAPEAXI@Z 0000000180035540     BerconDistortion.obj
 0002:00009554       $stateUnwindMap$??_GShadeContext@@UEAAPEAXI@Z 0000000180035554     BerconDistortion.obj
 0002:00009570       $ip2state$??_GShadeContext@@UEAAPEAXI@Z 0000000180035570     BerconDistortion.obj
 0002:00009588       $unwind$??1Texmap@@UEAA@XZ 0000000180035588     BerconDistortion.obj
 0002:00009598       $stateUnwindMap$??1Texmap@@UEAA@XZ 0000000180035598     BerconDistortion.obj
 0002:000095a0       $ip2state$??1Texmap@@UEAA@XZ 00000001800355a0     BerconDistortion.obj
 0002:000095a8       $unwind$??1?$Tab@PEAVVertexNormalsCallback@@@@UEAA@XZ 00000001800355a8     BerconDistortion.obj
 0002:000095b8       $ip2state$??1?$Tab@PEAVVertexNormalsCallback@@@@UEAA@XZ 00000001800355b8     BerconDistortion.obj
 0002:000095c0       $unwind$??_G?$Tab@PEAVVertexNormalsCallback@@@@UEAAPEAXI@Z 00000001800355c0     BerconDistortion.obj
 0002:000095d8       $ip2state$??_G?$Tab@PEAVVertexNormalsCallback@@@@UEAAPEAXI@Z 00000001800355d8     BerconDistortion.obj
 0002:000095e0       $unwind$??0VertexNormalsControl@@QEAA@XZ 00000001800355e0     BerconDistortion.obj
 0002:000095f0       $stateUnwindMap$??0VertexNormalsControl@@QEAA@XZ 00000001800355f0     BerconDistortion.obj
 0002:000095f8       $ip2state$??0VertexNormalsControl@@QEAA@XZ 00000001800355f8     BerconDistortion.obj
 0002:00009600       $unwind$??0BerconSC@@QEAA@QEAVShadeContext@@@Z 0000000180035600     BerconDistortion.obj
 0002:00009610       $stateUnwindMap$??0BerconSC@@QEAA@QEAVShadeContext@@@Z 0000000180035610     BerconDistortion.obj
 0002:00009660       $ip2state$??0BerconSC@@QEAA@QEAVShadeContext@@@Z 0000000180035660     BerconDistortion.obj
 0002:000096b0       $unwind$?limitedNoise@Noise@@SAMVPoint3@@AEAVNoiseParams@@@Z 00000001800356b0     noise.obj
 0002:000096b0       $unwind$?EvalEnvironMap@BerconSC@@UEAA?AVAColor@@PEAVTexmap@@VPoint3@@@Z 00000001800356b0     BerconDistortion.obj
 0002:000096b0       $unwind$?getNormal@BerconTile@@QEAA?AVPoint3@@AEAVShadeContext@@H@Z 00000001800356b0     BerconTile.obj
 0002:000096b0       $unwind$?getColor@BerconTile@@QEAA?AVAColor@@AEAVShadeContext@@H@Z 00000001800356b0     BerconTile.obj
 0002:000096b0       $unwind$?PObj@BerconSC@@UEAA?AVPoint3@@XZ 00000001800356b0     BerconDistortion.obj
 0002:000096b0       $unwind$?setHWND@GradientRamp@@QEAAXPEAUHWND__@@@Z 00000001800356b0     GradientRamp.obj
 0002:000096b0       $unwind$?P@BerconSC@@UEAA?AVPoint3@@XZ 00000001800356b0     BerconDistortion.obj
 0002:000096b0       $unwind$?EvalGlobalEnvironMap@BerconSC@@UEAA?AVAColor@@VPoint3@@@Z 00000001800356b0     BerconDistortion.obj
 0002:000096b8       $unwind$??1BerconSC@@UEAA@XZ 00000001800356b8     BerconDistortion.obj
 0002:000096c8       $stateUnwindMap$??1BerconSC@@UEAA@XZ 00000001800356c8     BerconDistortion.obj
 0002:000096f8       $ip2state$??1BerconSC@@UEAA@XZ 00000001800356f8     BerconDistortion.obj
 0002:00009718       $unwind$??_GBerconSC@@UEAAPEAXI@Z 0000000180035718     BerconDistortion.obj
 0002:0000972c       $stateUnwindMap$??_GBerconSC@@UEAAPEAXI@Z 000000018003572c     BerconDistortion.obj
 0002:00009760       $ip2state$??_GBerconSC@@UEAAPEAXI@Z 0000000180035760     BerconDistortion.obj
 0002:00009780       $unwind$??0XYZ_Desc@@QEAA@PEAVClassDesc2@@HHHHHHH@Z 0000000180035780     BerconDistortion.obj
 0002:00009794       $stateUnwindMap$??0XYZ_Desc@@QEAA@PEAVClassDesc2@@HHHHHHH@Z 0000000180035794     BerconDistortion.obj
 0002:000097a0       $ip2state$??0XYZ_Desc@@QEAA@PEAVClassDesc2@@HHHHHHH@Z 00000001800357a0     BerconDistortion.obj
 0002:000097b8       $unwind$??_GXYZ_Desc@@UEAAPEAXI@Z 00000001800357b8     BerconDistortion.obj
 0002:000097cc       $stateUnwindMap$??_GXYZ_Desc@@UEAAPEAXI@Z 00000001800357cc     BerconDistortion.obj
 0002:000097d8       $ip2state$??_GXYZ_Desc@@UEAAPEAXI@Z 00000001800357d8     BerconDistortion.obj
 0002:000097e0       $unwind$?DlgProc@BerconXYZDlgProc@@UEAA_JHPEAVIParamMap2@@PEAUHWND__@@I_K_J@Z 00000001800357e0     BerconDistortion.obj
 0002:000097f0       $chain$1$?DlgProc@BerconXYZDlgProc@@UEAA_JHPEAVIParamMap2@@PEAUHWND__@@I_K_J@Z 00000001800357f0     BerconDistortion.obj
 0002:00009808       $unwind$??_GBerconTileDlgProc@@UEAAPEAXI@Z 0000000180035808     BerconTile.obj
 0002:00009808       $unwind$??_GBerconXYZDlgProc@@UEAAPEAXI@Z 0000000180035808     BerconDistortion.obj
 0002:00009808       $unwind$??_GBerconWoodDlgProc@@UEAAPEAXI@Z 0000000180035808     BerconWood.obj
 0002:00009808       $unwind$??_GBerconNoiseDlgProc@@UEAAPEAXI@Z 0000000180035808     BerconNoise.obj
 0002:00009818       $stateUnwindMap$??_GBerconGradientDlgProc@@UEAAPEAXI@Z 0000000180035818     BerconGradient.obj
 0002:00009818       $stateUnwindMap$??_GBerconXYZDlgProc@@UEAAPEAXI@Z 0000000180035818     BerconDistortion.obj
 0002:00009818       $stateUnwindMap$??_GBerconTileDlgProc@@UEAAPEAXI@Z 0000000180035818     BerconTile.obj
 0002:00009818       $stateUnwindMap$??_GBerconNoiseDlgProc@@UEAAPEAXI@Z 0000000180035818     BerconNoise.obj
 0002:00009818       $stateUnwindMap$??_GBerconWoodDlgProc@@UEAAPEAXI@Z 0000000180035818     BerconWood.obj
 0002:00009820       $ip2state$??_GBerconWoodDlgProc@@UEAAPEAXI@Z 0000000180035820     BerconWood.obj
 0002:00009820       $ip2state$??_GBerconNoiseDlgProc@@UEAAPEAXI@Z 0000000180035820     BerconNoise.obj
 0002:00009820       $ip2state$??_GBerconXYZDlgProc@@UEAAPEAXI@Z 0000000180035820     BerconDistortion.obj
 0002:00009820       $ip2state$??_GBerconTileDlgProc@@UEAAPEAXI@Z 0000000180035820     BerconTile.obj
 0002:00009828       $unwind$?getDistVector@BerconDistortion@@QEAA?AVPoint3@@AEAVShadeContext@@@Z 0000000180035828     BerconDistortion.obj
 0002:0000983c       $chain$2$?getDistVector@BerconDistortion@@QEAA?AVPoint3@@AEAVShadeContext@@@Z 000000018003583c     BerconDistortion.obj
 0002:00009858       $chain$3$?getDistVector@BerconDistortion@@QEAA?AVPoint3@@AEAVShadeContext@@@Z 0000000180035858     BerconDistortion.obj
 0002:00009868       $unwind$?ActivateTexDisplay@BerconDistortion@@UEAAXH@Z 0000000180035868     BerconDistortion.obj
 0002:00009868       $unwind$?ActivateTexDisplay@BerconNoise@@UEAAXH@Z 0000000180035868     BerconNoise.obj
 0002:00009868       $unwind$?ActivateTexDisplay@BerconGradient@@UEAAXH@Z 0000000180035868     BerconGradient.obj
 0002:00009868       $unwind$?ActivateTexDisplay@BerconWood@@UEAAXH@Z 0000000180035868     BerconWood.obj
 0002:00009868       $unwind$?ActivateTexDisplay@BerconTile@@UEAAXH@Z 0000000180035868     BerconTile.obj
 0002:00009870       $unwind$?GetActiveTexHandle@BerconGradient@@UEAA_KHAEAVTexHandleMaker@@@Z 0000000180035870     BerconGradient.obj
 0002:00009870       $unwind$?GetActiveTexHandle@BerconTile@@UEAA_KHAEAVTexHandleMaker@@@Z 0000000180035870     BerconTile.obj
 0002:00009870       $unwind$?GetActiveTexHandle@BerconNoise@@UEAA_KHAEAVTexHandleMaker@@@Z 0000000180035870     BerconNoise.obj
 0002:00009870       $unwind$?GetActiveTexHandle@BerconWood@@UEAA_KHAEAVTexHandleMaker@@@Z 0000000180035870     BerconWood.obj
 0002:00009870       $unwind$?GetActiveTexHandle@BerconDistortion@@UEAA_KHAEAVTexHandleMaker@@@Z 0000000180035870     BerconDistortion.obj
 0002:00009884       $chain$0$?GetActiveTexHandle@BerconDistortion@@UEAA_KHAEAVTexHandleMaker@@@Z 0000000180035884     BerconDistortion.obj
 0002:00009898       $chain$1$?GetActiveTexHandle@BerconDistortion@@UEAA_KHAEAVTexHandleMaker@@@Z 0000000180035898     BerconDistortion.obj
 0002:000098a8       $unwind$?CreateParamDlg@BerconDistortion@@UEAAPEAVParamDlg@@PEAUHWND__@@PEAVIMtlParams@@@Z 00000001800358a8     BerconDistortion.obj
 0002:000098bc       $stateUnwindMap$?CreateParamDlg@BerconDistortion@@UEAAPEAVParamDlg@@PEAUHWND__@@PEAVIMtlParams@@@Z 00000001800358bc     BerconDistortion.obj
 0002:000098d0       $ip2state$?CreateParamDlg@BerconDistortion@@UEAAPEAVParamDlg@@PEAUHWND__@@PEAVIMtlParams@@@Z 00000001800358d0     BerconDistortion.obj
 0002:000098f0       $unwind$?Update@BerconDistortion@@UEAAXHAEAVInterval@@@Z 00000001800358f0     BerconDistortion.obj
 0002:000098fc       $chain$0$?Update@BerconDistortion@@UEAAXHAEAVInterval@@@Z 00000001800358fc     BerconDistortion.obj
 0002:00009910       $chain$2$?Update@BerconDistortion@@UEAAXHAEAVInterval@@@Z 0000000180035910     BerconDistortion.obj
 0002:00009928       $chain$3$?Update@BerconDistortion@@UEAAXHAEAVInterval@@@Z 0000000180035928     BerconDistortion.obj
 0002:00009938       $chain$4$?Update@BerconDistortion@@UEAAXHAEAVInterval@@@Z 0000000180035938     BerconDistortion.obj
 0002:00009948       $unwind$?reset@GradientRamp@@QEAAXXZ 0000000180035948     GradientRamp.obj
 0002:00009948       $unwind$?Reset@BerconDistortion@@UEAAXXZ 0000000180035948     BerconDistortion.obj
 0002:00009954       $unwind$?Validity@BerconWood@@UEAA?AVInterval@@H@Z 0000000180035954     BerconWood.obj
 0002:00009954       $unwind$?Validity@BerconDistortion@@UEAA?AVInterval@@H@Z 0000000180035954     BerconDistortion.obj
 0002:00009954       $unwind$?keyNumChanged@BerconGradient@@QEAAXH@Z 0000000180035954     BerconGradient.obj
 0002:00009954       $unwind$?Validity@BerconNoise@@UEAA?AVInterval@@H@Z 0000000180035954     BerconNoise.obj
 0002:00009954       $unwind$?Validity@BerconTile@@UEAA?AVInterval@@H@Z 0000000180035954     BerconTile.obj
 0002:00009954       $unwind$?Validity@BerconGradient@@UEAA?AVInterval@@H@Z 0000000180035954     BerconGradient.obj
 0002:00009960       $unwind$?GetSubTexmapSlotName@BerconDistortion@@UEAA?AVWStr@@H@Z 0000000180035960     BerconDistortion.obj
 0002:00009970       $stateUnwindMap$?GetSubTexmapSlotName@BerconTile@@UEAA?AVWStr@@H@Z 0000000180035970     BerconTile.obj
 0002:00009970       $stateUnwindMap$?SubAnimName@BerconDistortion@@UEAA?AVWStr@@H@Z 0000000180035970     BerconDistortion.obj
 0002:00009970       $stateUnwindMap$?SubAnimName@BerconTile@@UEAA?AVWStr@@H@Z 0000000180035970     BerconTile.obj
 0002:00009970       $stateUnwindMap$?SubAnimName@BerconWood@@UEAA?AVWStr@@H@Z 0000000180035970     BerconWood.obj
 0002:00009970       $stateUnwindMap$?GetSubTexmapSlotName@BerconNoise@@UEAA?AVWStr@@H@Z 0000000180035970     BerconNoise.obj
 0002:00009970       $stateUnwindMap$?GetSubTexmapSlotName@BerconDistortion@@UEAA?AVWStr@@H@Z 0000000180035970     BerconDistortion.obj
 0002:00009970       $stateUnwindMap$?SubAnimName@BerconNoise@@UEAA?AVWStr@@H@Z 0000000180035970     BerconNoise.obj
 0002:00009970       $stateUnwindMap$?SubAnimName@BerconGradient@@UEAA?AVWStr@@H@Z 0000000180035970     BerconGradient.obj
 0002:00009970       $stateUnwindMap$?GetSubTexmapSlotName@BerconWood@@UEAA?AVWStr@@H@Z 0000000180035970     BerconWood.obj
 0002:00009978       $ip2state$?GetSubTexmapSlotName@BerconDistortion@@UEAA?AVWStr@@H@Z 0000000180035978     BerconDistortion.obj
 0002:00009988       $unwind$?dtor$0@?0??SubAnimName@BerconNoise@@UEAA?AVWStr@@H@Z@4HA 0000000180035988     BerconNoise.obj
 0002:00009988       $unwind$?dtor$0@?0??GetSubTexmapSlotName@BerconGradient@@UEAA?AVWStr@@H@Z@4HA 0000000180035988     BerconGradient.obj
 0002:00009988       $unwind$?dtor$0@?0??SubAnimName@BerconWood@@UEAA?AVWStr@@H@Z@4HA 0000000180035988     BerconWood.obj
 0002:00009988       $unwind$?fin$0@?0??dllmain_crt_process_attach@@YAHQEAUHINSTANCE__@@QEAX@Z@4HA 0000000180035988     MSVCRT:dll_dllmain.obj
 0002:00009988       $unwind$?dtor$0@?0??SubAnimName@BerconTile@@UEAA?AVWStr@@H@Z@4HA 0000000180035988     BerconTile.obj
 0002:00009988       $unwind$?dtor$0@?0??SubAnimName@BerconGradient@@UEAA?AVWStr@@H@Z@4HA 0000000180035988     BerconGradient.obj
 0002:00009988       $unwind$?dtor$0@?0??GetSubTexmapSlotName@BerconDistortion@@UEAA?AVWStr@@H@Z@4HA 0000000180035988     BerconDistortion.obj
 0002:00009988       $unwind$?fin$0@?0??dllmain_crt_process_detach@@YAH_N@Z@4HA 0000000180035988     MSVCRT:dll_dllmain.obj
 0002:00009988       $unwind$?dtor$10@?0??parsePattern@@YAHV?$basic_string@_WU?$char_traits@_W@std@@V?$allocator@_W@2@@std@@PEAVTilePattern@@@Z@4HA 0000000180035988     tile.obj
 0002:00009988       $unwind$?dtor$0@?0??GetSubTexmapSlotName@BerconNoise@@UEAA?AVWStr@@H@Z@4HA 0000000180035988     BerconNoise.obj
 0002:00009988       $unwind$?dtor$1@?0??tokenize@@YAXAEBV?$basic_string@_WU?$char_traits@_W@std@@V?$allocator@_W@2@@std@@AEAV?$vector@V?$basic_string@_WU?$char_traits@_W@std@@V?$allocator@_W@2@@std@@V?$allocator@V?$basic_string@_WU?$char_traits@_W@std@@V?$allocator@_W@2@@std@@@2@@2@0@Z@4HA 0000000180035988     tile.obj
 0002:00009988       $unwind$IsolationAwareInitCommonControls$fin$0 0000000180035988     DllEntry.obj
 0002:00009988       $unwind$?dtor$13@?0??parsePattern@@YAHV?$basic_string@_WU?$char_traits@_W@std@@V?$allocator@_W@2@@std@@PEAVTilePattern@@@Z@4HA 0000000180035988     tile.obj
 0002:00009988       $unwind$?dtor$17@?0??parsePattern@@YAHV?$basic_string@_WU?$char_traits@_W@std@@V?$allocator@_W@2@@std@@PEAVTilePattern@@@Z@4HA 0000000180035988     tile.obj
 0002:00009988       $unwind$?dtor$1@?0???0BerconGradient@@QEAA@XZ@4HA 0000000180035988     BerconGradient.obj
 0002:00009988       $unwind$?dtor$0@?0??GetSubTexmapSlotName@BerconTile@@UEAA?AVWStr@@H@Z@4HA 0000000180035988     BerconTile.obj
 0002:00009988       $unwind$?dtor$0@?0??GetSubTexmapSlotName@BerconWood@@UEAA?AVWStr@@H@Z@4HA 0000000180035988     BerconWood.obj
 0002:00009988       $unwind$?dtor$0@?0??SubAnimName@BerconDistortion@@UEAA?AVWStr@@H@Z@4HA 0000000180035988     BerconDistortion.obj
 0002:00009990       $unwind$?EvalColor@BerconDistortion@@UEAA?AVAColor@@AEAVShadeContext@@@Z 0000000180035990     BerconDistortion.obj
 0002:000099b0       $stateUnwindMap$?EvalColor@BerconDistortion@@UEAA?AVAColor@@AEAVShadeContext@@@Z 00000001800359b0     BerconDistortion.obj
 0002:000099b0       $stateUnwindMap$?EvalNormalPerturb@BerconDistortion@@UEAA?AVPoint3@@AEAVShadeContext@@@Z 00000001800359b0     BerconDistortion.obj
 0002:000099b0       $stateUnwindMap$?EvalMono@BerconDistortion@@UEAAMAEAVShadeContext@@@Z 00000001800359b0     BerconDistortion.obj
 0002:000099e8       $ip2state$?EvalColor@BerconDistortion@@UEAA?AVAColor@@AEAVShadeContext@@@Z 00000001800359e8     BerconDistortion.obj
 0002:00009a10       $unwind$?EvalMono@BerconDistortion@@UEAAMAEAVShadeContext@@@Z 0000000180035a10     BerconDistortion.obj
 0002:00009a38       $ip2state$?EvalMono@BerconDistortion@@UEAAMAEAVShadeContext@@@Z 0000000180035a38     BerconDistortion.obj
 0002:00009a60       $unwind$?EvalNormalPerturb@BerconDistortion@@UEAA?AVPoint3@@AEAVShadeContext@@@Z 0000000180035a60     BerconDistortion.obj
 0002:00009a80       $ip2state$?EvalNormalPerturb@BerconDistortion@@UEAA?AVPoint3@@AEAVShadeContext@@@Z 0000000180035a80     BerconDistortion.obj
 0002:00009aa8       $unwind$?Clone@BerconDistortion@@UEAAPEAVReferenceTarget@@AEAVRemapDir@@@Z 0000000180035aa8     BerconDistortion.obj
 0002:00009ac8       $stateUnwindMap$?Clone@BerconNoise@@UEAAPEAVReferenceTarget@@AEAVRemapDir@@@Z 0000000180035ac8     BerconNoise.obj
 0002:00009ac8       $stateUnwindMap$?Clone@BerconDistortion@@UEAAPEAVReferenceTarget@@AEAVRemapDir@@@Z 0000000180035ac8     BerconDistortion.obj
 0002:00009ac8       $stateUnwindMap$?Clone@BerconWood@@UEAAPEAVReferenceTarget@@AEAVRemapDir@@@Z 0000000180035ac8     BerconWood.obj
 0002:00009ac8       $stateUnwindMap$?Clone@BerconTile@@UEAAPEAVReferenceTarget@@AEAVRemapDir@@@Z 0000000180035ac8     BerconTile.obj
 0002:00009ad0       $ip2state$?Clone@BerconDistortion@@UEAAPEAVReferenceTarget@@AEAVRemapDir@@@Z 0000000180035ad0     BerconDistortion.obj
 0002:00009ae8       $unwind$?NotifyRefChanged@BerconWood@@UEAA?AW4RefResult@@AEBVInterval@@PEAVReferenceTarget@@AEA_KIH@Z 0000000180035ae8     BerconWood.obj
 0002:00009ae8       $unwind$?NotifyRefChanged@BerconDistortion@@UEAA?AW4RefResult@@AEBVInterval@@PEAVReferenceTarget@@AEA_KIH@Z 0000000180035ae8     BerconDistortion.obj
 0002:00009ae8       $unwind$?NotifyRefChanged@BerconGradient@@UEAA?AW4RefResult@@AEBVInterval@@PEAVReferenceTarget@@AEA_KIH@Z 0000000180035ae8     BerconGradient.obj
 0002:00009ae8       $unwind$?NotifyRefChanged@BerconTile@@UEAA?AW4RefResult@@AEBVInterval@@PEAVReferenceTarget@@AEA_KIH@Z 0000000180035ae8     BerconTile.obj
 0002:00009ae8       $unwind$?NotifyRefChanged@BerconNoise@@UEAA?AW4RefResult@@AEBVInterval@@PEAVReferenceTarget@@AEA_KIH@Z 0000000180035ae8     BerconNoise.obj
 0002:00009af0       $chain$0$?NotifyRefChanged@BerconDistortion@@UEAA?AW4RefResult@@AEBVInterval@@PEAVReferenceTarget@@AEA_KIH@Z 0000000180035af0     BerconDistortion.obj
 0002:00009b04       $chain$1$?NotifyRefChanged@BerconDistortion@@UEAA?AW4RefResult@@AEBVInterval@@PEAVReferenceTarget@@AEA_KIH@Z 0000000180035b04     BerconDistortion.obj
 0002:00009b14       $unwind$?SubAnimName@BerconDistortion@@UEAA?AVWStr@@H@Z 0000000180035b14     BerconDistortion.obj
 0002:00009b28       $ip2state$?SubAnimName@BerconDistortion@@UEAA?AVWStr@@H@Z 0000000180035b28     BerconDistortion.obj
 0002:00009b38       $unwind$??0BerconDistortion@@QEAA@XZ 0000000180035b38     BerconDistortion.obj
 0002:00009b58       $stateUnwindMap$??0BerconDistortion@@QEAA@XZ 0000000180035b58     BerconDistortion.obj
 0002:00009b60       $ip2state$??0BerconDistortion@@QEAA@XZ 0000000180035b60     BerconDistortion.obj
 0002:00009b78       $unwind$??_GBerconDistortion@@UEAAPEAXI@Z 0000000180035b78     BerconDistortion.obj
 0002:00009b8c       $stateUnwindMap$??_GBerconWood@@UEAAPEAXI@Z 0000000180035b8c     BerconWood.obj
 0002:00009b8c       $stateUnwindMap$??_GBerconDistortion@@UEAAPEAXI@Z 0000000180035b8c     BerconDistortion.obj
 0002:00009b8c       $stateUnwindMap$??_GBerconNoise@@UEAAPEAXI@Z 0000000180035b8c     BerconNoise.obj
 0002:00009b8c       $stateUnwindMap$??_GBerconGradient@@UEAAPEAXI@Z 0000000180035b8c     BerconGradient.obj
 0002:00009ba0       $ip2state$??_GBerconDistortion@@UEAAPEAXI@Z 0000000180035ba0     BerconDistortion.obj
 0002:00009bb8       $unwind$?Create@BerconDistortionClassDesc@@UEAAPEAXH@Z 0000000180035bb8     BerconDistortion.obj
 0002:00009bc8       $stateUnwindMap$?Create@BerconTileClassDesc@@UEAAPEAXH@Z 0000000180035bc8     BerconTile.obj
 0002:00009bc8       $stateUnwindMap$?Create@BerconWoodClassDesc@@UEAAPEAXH@Z 0000000180035bc8     BerconWood.obj
 0002:00009bc8       $stateUnwindMap$?Create@BerconGradientClassDesc@@UEAAPEAXH@Z 0000000180035bc8     BerconGradient.obj
 0002:00009bc8       $stateUnwindMap$?Create@BerconNoiseClassDesc@@UEAAPEAXH@Z 0000000180035bc8     BerconNoise.obj
 0002:00009bc8       $stateUnwindMap$?Create@BerconDistortionClassDesc@@UEAAPEAXH@Z 0000000180035bc8     BerconDistortion.obj
 0002:00009bc8       $stateUnwindMap$?Clone@BerconGradient@@UEAAPEAVReferenceTarget@@AEAVRemapDir@@@Z 0000000180035bc8     BerconGradient.obj
 0002:00009bd0       $ip2state$?Create@BerconDistortionClassDesc@@UEAAPEAXH@Z 0000000180035bd0     BerconDistortion.obj
 0002:00009be8       $unwind$??_GBerconDistortionClassDesc@@UEAAPEAXI@Z 0000000180035be8     BerconDistortion.obj
 0002:00009bfc       $stateUnwindMap$??_GBerconGradientClassDesc@@UEAAPEAXI@Z 0000000180035bfc     BerconGradient.obj
 0002:00009bfc       $stateUnwindMap$??_GBerconTileClassDesc@@UEAAPEAXI@Z 0000000180035bfc     BerconTile.obj
 0002:00009bfc       $stateUnwindMap$??_GBerconNoiseClassDesc@@UEAAPEAXI@Z 0000000180035bfc     BerconNoise.obj
 0002:00009bfc       $stateUnwindMap$??_GBerconDistortionClassDesc@@UEAAPEAXI@Z 0000000180035bfc     BerconDistortion.obj
 0002:00009bfc       $stateUnwindMap$??_GBerconWoodClassDesc@@UEAAPEAXI@Z 0000000180035bfc     BerconWood.obj
 0002:00009c08       $ip2state$??_GBerconDistortionClassDesc@@UEAAPEAXI@Z 0000000180035c08     BerconDistortion.obj
 0002:00009c10       $unwind$??__EBerconDistortionDesc@@YAXXZ 0000000180035c10     BerconDistortion.obj
 0002:00009c20       $stateUnwindMap$??__FBerconDistortionDesc@@YAXXZ 0000000180035c20     BerconDistortion.obj
 0002:00009c20       $stateUnwindMap$??__EBerconDistortionDesc@@YAXXZ 0000000180035c20     BerconDistortion.obj
 0002:00009c28       $ip2state$??__EBerconDistortionDesc@@YAXXZ 0000000180035c28     BerconDistortion.obj
 0002:00009c40       $unwind$??__FBerconDistortionDesc@@YAXXZ 0000000180035c40     BerconDistortion.obj
 0002:00009c50       $ip2state$??__FBerconDistortionDesc@@YAXXZ 0000000180035c50     BerconDistortion.obj
 0002:00009c58       $unwind$??__Exyz_blk@@YAXXZ 0000000180035c58     BerconNoise.obj
 0002:00009c58       $unwind$??__Exyz_blk@@YAXXZ 0000000180035c58     BerconTile.obj
 0002:00009c58       $unwind$??__Exyz_blk@@YAXXZ 0000000180035c58     BerconWood.obj
 0002:00009c58       $unwind$??__Exyz_blk@@YAXXZ 0000000180035c58     BerconGradient.obj
 0002:00009c58       $unwind$??__Exyz_blk@@YAXXZ 0000000180035c58     BerconDistortion.obj
 0002:00009c60       $unwind$??__Fxyz_blk@@YAXXZ 0000000180035c60     BerconDistortion.obj
 0002:00009c70       $stateUnwindMap$??__Fxyz_blk@@YAXXZ 0000000180035c70     BerconDistortion.obj
 0002:00009c78       $ip2state$??__Fxyz_blk@@YAXXZ 0000000180035c78     BerconDistortion.obj
 0002:00009c80       $unwind$??__EBerconDistortion_param_blk@@YAXXZ 0000000180035c80     BerconDistortion.obj
 0002:00009c88       $unwind$??1ICustomControl@@UEAA@XZ 0000000180035c88     BerconGradient.obj
 0002:00009c98       $stateUnwindMap$??1ICustomControl@@UEAA@XZ 0000000180035c98     BerconGradient.obj
 0002:00009c98       $stateUnwindMap$??_GICustomControl@@UEAAPEAXI@Z 0000000180035c98     BerconGradient.obj
 0002:00009ca0       $ip2state$??1ICustomControl@@UEAA@XZ 0000000180035ca0     BerconGradient.obj
 0002:00009ca8       $unwind$??_GICustomControl@@UEAAPEAXI@Z 0000000180035ca8     BerconGradient.obj
 0002:00009cc0       $ip2state$??_GICustomControl@@UEAAPEAXI@Z 0000000180035cc0     BerconGradient.obj
 0002:00009cc8       $unwind$??_GIGradient@@UEAAPEAXI@Z 0000000180035cc8     BerconGradient.obj
 0002:00009cdc       $stateUnwindMap$??_GIGradient@@UEAAPEAXI@Z 0000000180035cdc     BerconGradient.obj
 0002:00009cf0       $ip2state$??_GIGradient@@UEAAPEAXI@Z 0000000180035cf0     BerconGradient.obj
 0002:00009d08       $unwind$?EnableStuff@BerconGradient@@QEAAXXZ 0000000180035d08     BerconGradient.obj
 0002:00009d10       $chain$0$?EnableStuff@BerconGradient@@QEAAXXZ 0000000180035d10     BerconGradient.obj
 0002:00009d24       $chain$2$?EnableStuff@BerconGradient@@QEAAXXZ 0000000180035d24     BerconGradient.obj
 0002:00009d3c       $chain$6$?EnableStuff@BerconGradient@@QEAAXXZ 0000000180035d3c     BerconGradient.obj
 0002:00009d5c       $chain$7$?EnableStuff@BerconGradient@@QEAAXXZ 0000000180035d5c     BerconGradient.obj
 0002:00009d74       $chain$8$?EnableStuff@BerconGradient@@QEAAXXZ 0000000180035d74     BerconGradient.obj
 0002:00009d88       $chain$9$?EnableStuff@BerconGradient@@QEAAXXZ 0000000180035d88     BerconGradient.obj
 0002:00009d98       $chain$10$?EnableStuff@BerconGradient@@QEAAXXZ 0000000180035d98     BerconGradient.obj
 0002:00009da8       $unwind$?getGradientValueUVW@BerconGradient@@QEAAMVPoint3@@@Z 0000000180035da8     BerconGradient.obj
 0002:00009db4       $unwind$?getGradientValueDist@BerconGradient@@QEAAMAEAVShadeContext@@@Z 0000000180035db4     BerconGradient.obj
 0002:00009dcc       $chain$2$?getGradientValueDist@BerconGradient@@QEAAMAEAVShadeContext@@@Z 0000000180035dcc     BerconGradient.obj
 0002:00009de8       $chain$3$?getGradientValueDist@BerconGradient@@QEAAMAEAVShadeContext@@@Z 0000000180035de8     BerconGradient.obj
 0002:00009df8       $unwind$?getGradientValueNormal@BerconGradient@@QEAAMAEAVShadeContext@@@Z 0000000180035df8     BerconGradient.obj
 0002:00009e10       $unwind$?getGradientValue@BerconGradient@@QEAAMAEAVShadeContext@@@Z 0000000180035e10     BerconGradient.obj
 0002:00009e24       $chain$3$?getGradientValue@BerconGradient@@QEAAMAEAVShadeContext@@@Z 0000000180035e24     BerconGradient.obj
 0002:00009e44       $chain$4$?getGradientValue@BerconGradient@@QEAAMAEAVShadeContext@@@Z 0000000180035e44     BerconGradient.obj
 0002:00009e54       $chain$5$?getGradientValue@BerconGradient@@QEAAMAEAVShadeContext@@@Z 0000000180035e54     BerconGradient.obj
 0002:00009e68       $chain$6$?getGradientValue@BerconGradient@@QEAAMAEAVShadeContext@@@Z 0000000180035e68     BerconGradient.obj
 0002:00009e78       $unwind$?keyPosChanged@BerconGradient@@QEAAXM@Z 0000000180035e78     BerconGradient.obj
 0002:00009e84       $chain$0$?keyPosChanged@BerconGradient@@QEAAXM@Z 0000000180035e84     BerconGradient.obj
 0002:00009e98       $chain$1$?keyPosChanged@BerconGradient@@QEAAXM@Z 0000000180035e98     BerconGradient.obj
 0002:00009ea8       $unwind$?countKeys@BerconGradient@@QEAAHXZ 0000000180035ea8     BerconGradient.obj
 0002:00009eb4       $unwind$?resetKeys@BerconGradient@@QEAAXXZ 0000000180035eb4     BerconGradient.obj
 0002:00009eb4       $unwind$?InitGradientControls@@YAXXZ 0000000180035eb4     IGradient.obj
 0002:00009ebc       $unwind$?gradAddKey@BerconGradient@@UEAAXM@Z 0000000180035ebc     BerconGradient.obj
 0002:00009ec4       $chain$1$?gradAddKey@BerconGradient@@UEAAXM@Z 0000000180035ec4     BerconGradient.obj
 0002:00009edc       $chain$2$?gradAddKey@BerconGradient@@UEAAXM@Z 0000000180035edc     BerconGradient.obj
 0002:00009eec       $unwind$?gradMoveKey@BerconGradient@@UEAAXHM@Z 0000000180035eec     BerconGradient.obj
 0002:00009f04       $unwind$?gradDelKey@BerconGradient@@UEAAXH@Z 0000000180035f04     BerconGradient.obj
 0002:00009f10       $chain$0$?gradDelKey@BerconGradient@@UEAAXH@Z 0000000180035f10     BerconGradient.obj
 0002:00009f24       $chain$1$?gradDelKey@BerconGradient@@UEAAXH@Z 0000000180035f24     BerconGradient.obj
 0002:00009f34       $unwind$?gradSelKey@BerconGradient@@UEAAXXZ 0000000180035f34     BerconGradient.obj
 0002:00009f3c       $chain$1$?gradSelKey@BerconGradient@@UEAAXXZ 0000000180035f3c     BerconGradient.obj
 0002:00009f54       $chain$2$?gradSelKey@BerconGradient@@UEAAXXZ 0000000180035f54     BerconGradient.obj
 0002:00009f64       $unwind$?CreateParamDlg@BerconGradient@@UEAAPEAVParamDlg@@PEAUHWND__@@PEAVIMtlParams@@@Z 0000000180035f64     BerconGradient.obj
 0002:00009f80       $stateUnwindMap$?CreateParamDlg@BerconGradient@@UEAAPEAVParamDlg@@PEAUHWND__@@PEAVIMtlParams@@@Z 0000000180035f80     BerconGradient.obj
 0002:00009f80       $stateUnwindMap$?CreateParamDlg@BerconWood@@UEAAPEAVParamDlg@@PEAUHWND__@@PEAVIMtlParams@@@Z 0000000180035f80     BerconWood.obj
 0002:00009f80       $stateUnwindMap$?CreateParamDlg@BerconNoise@@UEAAPEAVParamDlg@@PEAUHWND__@@PEAVIMtlParams@@@Z 0000000180035f80     BerconNoise.obj
 0002:00009f80       $stateUnwindMap$?CreateParamDlg@BerconTile@@UEAAPEAVParamDlg@@PEAUHWND__@@PEAVIMtlParams@@@Z 0000000180035f80     BerconTile.obj
 0002:00009fa0       $ip2state$?CreateParamDlg@BerconGradient@@UEAAPEAVParamDlg@@PEAUHWND__@@PEAVIMtlParams@@@Z 0000000180035fa0     BerconGradient.obj
 0002:00009fd8       $unwind$?Update@BerconGradient@@UEAAXHAEAVInterval@@@Z 0000000180035fd8     BerconGradient.obj
 0002:00009fe4       $chain$0$?Update@BerconGradient@@UEAAXHAEAVInterval@@@Z 0000000180035fe4     BerconGradient.obj
 0002:00009ff8       $chain$4$?Update@BerconGradient@@UEAAXHAEAVInterval@@@Z 0000000180035ff8     BerconGradient.obj
 0002:0000a018       $chain$5$?Update@BerconGradient@@UEAAXHAEAVInterval@@@Z 0000000180036018     BerconGradient.obj
 0002:0000a02c       $chain$6$?Update@BerconGradient@@UEAAXHAEAVInterval@@@Z 000000018003602c     BerconGradient.obj
 0002:0000a03c       $chain$7$?Update@BerconGradient@@UEAAXHAEAVInterval@@@Z 000000018003603c     BerconGradient.obj
 0002:0000a050       $chain$8$?Update@BerconGradient@@UEAAXHAEAVInterval@@@Z 0000000180036050     BerconGradient.obj
 0002:0000a060       $chain$9$?Update@BerconGradient@@UEAAXHAEAVInterval@@@Z 0000000180036060     BerconGradient.obj
 0002:0000a070       $unwind$?Reset@BerconGradient@@UEAAXXZ 0000000180036070     BerconGradient.obj
 0002:0000a080       $unwind$?GetSubTexmapSlotName@BerconGradient@@UEAA?AVWStr@@H@Z 0000000180036080     BerconGradient.obj
 0002:0000a090       $stateUnwindMap$?GetSubTexmapSlotName@BerconGradient@@UEAA?AVWStr@@H@Z 0000000180036090     BerconGradient.obj
 0002:0000a0a0       $ip2state$?GetSubTexmapSlotName@BerconGradient@@UEAA?AVWStr@@H@Z 00000001800360a0     BerconGradient.obj
 0002:0000a0d8       $unwind$?EvalColor@BerconGradient@@UEAA?AVAColor@@AEAVShadeContext@@@Z 00000001800360d8     BerconGradient.obj
 0002:0000a0f0       $unwind$?EvalNormalPerturb@BerconGradient@@UEAA?AVPoint3@@AEAVShadeContext@@@Z 00000001800360f0     BerconGradient.obj
 0002:0000a124       $chain$0$?EvalNormalPerturb@BerconGradient@@UEAA?AVPoint3@@AEAVShadeContext@@@Z 0000000180036124     BerconGradient.obj
 0002:0000a138       $chain$1$?EvalNormalPerturb@BerconGradient@@UEAA?AVPoint3@@AEAVShadeContext@@@Z 0000000180036138     BerconGradient.obj
 0002:0000a148       $chain$0$?GetActiveTexHandle@BerconGradient@@UEAA_KHAEAVTexHandleMaker@@@Z 0000000180036148     BerconGradient.obj
 0002:0000a15c       $chain$1$?GetActiveTexHandle@BerconGradient@@UEAA_KHAEAVTexHandleMaker@@@Z 000000018003615c     BerconGradient.obj
 0002:0000a16c       $unwind$?Clone@BerconGradient@@UEAAPEAVReferenceTarget@@AEAVRemapDir@@@Z 000000018003616c     BerconGradient.obj
 0002:0000a190       $ip2state$?Clone@BerconGradient@@UEAAPEAVReferenceTarget@@AEAVRemapDir@@@Z 0000000180036190     BerconGradient.obj
 0002:0000a1a8       $chain$0$?NotifyRefChanged@BerconGradient@@UEAA?AW4RefResult@@AEBVInterval@@PEAVReferenceTarget@@AEA_KIH@Z 00000001800361a8     BerconGradient.obj
 0002:0000a1bc       $chain$2$?NotifyRefChanged@BerconGradient@@UEAA?AW4RefResult@@AEBVInterval@@PEAVReferenceTarget@@AEA_KIH@Z 00000001800361bc     BerconGradient.obj
 0002:0000a1d0       $chain$3$?NotifyRefChanged@BerconGradient@@UEAA?AW4RefResult@@AEBVInterval@@PEAVReferenceTarget@@AEA_KIH@Z 00000001800361d0     BerconGradient.obj
 0002:0000a1e0       $unwind$?SubAnimName@BerconGradient@@UEAA?AVWStr@@H@Z 00000001800361e0     BerconGradient.obj
 0002:0000a1f0       $ip2state$?SubAnimName@BerconGradient@@UEAA?AVWStr@@H@Z 00000001800361f0     BerconGradient.obj
 0002:0000a200       $unwind$?SetReference@BerconGradient@@EEAAXHPEAVReferenceTarget@@@Z 0000000180036200     BerconGradient.obj
 0002:0000a210       $unwind$??0BerconGradient@@QEAA@XZ 0000000180036210     BerconGradient.obj
 0002:0000a22c       $stateUnwindMap$??0BerconGradient@@QEAA@XZ 000000018003622c     BerconGradient.obj
 0002:0000a240       $ip2state$??0BerconGradient@@QEAA@XZ 0000000180036240     BerconGradient.obj
 0002:0000a268       $unwind$??_GBerconGradient@@UEAAPEAXI@Z 0000000180036268     BerconGradient.obj
 0002:0000a280       $ip2state$??_GBerconGradient@@UEAAPEAXI@Z 0000000180036280     BerconGradient.obj
 0002:0000a298       $unwind$?Create@BerconGradientClassDesc@@UEAAPEAXH@Z 0000000180036298     BerconGradient.obj
 0002:0000a2a8       $ip2state$?Create@BerconGradientClassDesc@@UEAAPEAXH@Z 00000001800362a8     BerconGradient.obj
 0002:0000a2c0       $unwind$??_GBerconWoodClassDesc@@UEAAPEAXI@Z 00000001800362c0     BerconWood.obj
 0002:0000a2c0       $unwind$??_GBerconGradientClassDesc@@UEAAPEAXI@Z 00000001800362c0     BerconGradient.obj
 0002:0000a2c0       $unwind$??_GBerconNoiseClassDesc@@UEAAPEAXI@Z 00000001800362c0     BerconNoise.obj
 0002:0000a2d8       $ip2state$??_GBerconWoodClassDesc@@UEAAPEAXI@Z 00000001800362d8     BerconWood.obj
 0002:0000a2d8       $ip2state$??_GBerconNoiseClassDesc@@UEAAPEAXI@Z 00000001800362d8     BerconNoise.obj
 0002:0000a2d8       $ip2state$??_GBerconGradientClassDesc@@UEAAPEAXI@Z 00000001800362d8     BerconGradient.obj
 0002:0000a2e0       $unwind$??__EBerconGradientDesc@@YAXXZ 00000001800362e0     BerconGradient.obj
 0002:0000a2f0       $stateUnwindMap$??__FBerconGradientDesc@@YAXXZ 00000001800362f0     BerconGradient.obj
 0002:0000a2f0       $stateUnwindMap$??__EBerconGradientDesc@@YAXXZ 00000001800362f0     BerconGradient.obj
 0002:0000a2f8       $ip2state$??__EBerconGradientDesc@@YAXXZ 00000001800362f8     BerconGradient.obj
 0002:0000a310       $unwind$??__FBerconGradientDesc@@YAXXZ 0000000180036310     BerconGradient.obj
 0002:0000a320       $ip2state$??__FBerconGradientDesc@@YAXXZ 0000000180036320     BerconGradient.obj
 0002:0000a328       $unwind$??__Fxyz_blk@@YAXXZ 0000000180036328     BerconGradient.obj
 0002:0000a338       $stateUnwindMap$??__Fxyz_blk@@YAXXZ 0000000180036338     BerconGradient.obj
 0002:0000a340       $ip2state$??__Fxyz_blk@@YAXXZ 0000000180036340     BerconGradient.obj
 0002:0000a348       $unwind$??__Egradientmap_param_blk@@YAXXZ 0000000180036348     BerconGradient.obj
 0002:0000a350       $unwind$?DlgProc@BerconGradientDlgProc@@UEAA_JHPEAVIParamMap2@@PEAUHWND__@@I_K_J@Z 0000000180036350     BerconGradient.obj
 0002:0000a374       $stateUnwindMap$?DlgProc@BerconGradientDlgProc@@UEAA_JHPEAVIParamMap2@@PEAUHWND__@@I_K_J@Z 0000000180036374     BerconGradient.obj
 0002:0000a390       $ip2state$?DlgProc@BerconGradientDlgProc@@UEAA_JHPEAVIParamMap2@@PEAUHWND__@@I_K_J@Z 0000000180036390     BerconGradient.obj
 0002:0000a3c0       $unwind$?EvalParameters@BerconWood@@QEAA?AVWoodParam@@AEAVShadeContext@@@Z 00000001800363c0     BerconWood.obj
 0002:0000a3c0       $unwind$_DllMainCRTStartup 00000001800363c0     MSVCRT:dll_dllmain.obj
 0002:0000a3c0       $unwind$?EvalParameters@BerconNoise@@QEAA?AVNoiseParams@@PEAVShadeContext@@@Z 00000001800363c0     BerconNoise.obj
 0002:0000a3c0       $unwind$?SetThing@BerconGradientDlgProc@@UEAAXPEAVReferenceTarget@@@Z 00000001800363c0     BerconGradient.obj
 0002:0000a3c0       $unwind$?EvalParameters@BerconTile@@QEAA?AVTileParam@@AEAVShadeContext@@@Z 00000001800363c0     BerconTile.obj
 0002:0000a3d0       $unwind$??_GBerconGradientDlgProc@@UEAAPEAXI@Z 00000001800363d0     BerconGradient.obj
 0002:0000a3e0       $ip2state$??_GBerconGradientDlgProc@@UEAAPEAXI@Z 00000001800363e0     BerconGradient.obj
 0002:0000a3e8       $unwind$?setSpinnerType@@YAXPEAVIParamMap2@@HHHHH_N@Z 00000001800363e8     BerconCommon.obj
 0002:0000a3e8       $unwind$?setSpinnerType@@YAXPEAVIParamMap2@@HHHHH_N@Z 00000001800363e8     BerconTile.obj
 0002:0000a3f8       $chain$1$?setSpinnerType@@YAXPEAVIParamMap2@@HHHHH_N@Z 00000001800363f8     BerconTile.obj
 0002:0000a3f8       $chain$1$?setSpinnerType@@YAXPEAVIParamMap2@@HHHHH_N@Z 00000001800363f8     BerconCommon.obj
 0002:0000a410       $chain$2$?setSpinnerType@@YAXPEAVIParamMap2@@HHHHH_N@Z 0000000180036410     BerconCommon.obj
 0002:0000a410       $chain$2$?setSpinnerType@@YAXPEAVIParamMap2@@HHHHH_N@Z 0000000180036410     BerconTile.obj
 0002:0000a420       $unwind$??1?$basic_string@_WU?$char_traits@_W@std@@V?$allocator@_W@2@@std@@QEAA@XZ 0000000180036420     BerconTile.obj
 0002:0000a430       $ip2state$??1?$basic_string@_WU?$char_traits@_W@std@@V?$allocator@_W@2@@std@@QEAA@XZ 0000000180036430     BerconTile.obj
 0002:0000a438       $unwind$?assign@?$basic_string@_WU?$char_traits@_W@std@@V?$allocator@_W@2@@std@@QEAAAEAV12@QEB_W_K@Z 0000000180036438     BerconTile.obj
 0002:0000a450       $unwind$??1?$vector@MV?$allocator@M@std@@@std@@QEAA@XZ 0000000180036450     BerconTile.obj
 0002:0000a460       $ip2state$??1?$vector@MV?$allocator@M@std@@@std@@QEAA@XZ 0000000180036460     BerconTile.obj
 0002:0000a468       $unwind$??1TilePattern@@QEAA@XZ 0000000180036468     BerconTile.obj
 0002:0000a478       $stateUnwindMap$??1TilePattern@@QEAA@XZ 0000000180036478     BerconTile.obj
 0002:0000a488       $ip2state$??1TilePattern@@QEAA@XZ 0000000180036488     BerconTile.obj
 0002:0000a4a0       $unwind$??1?$vector@VTileRow@@V?$allocator@VTileRow@@@std@@@std@@QEAA@XZ 00000001800364a0     BerconTile.obj
 0002:0000a4b8       $stateUnwindMap$??1?$vector@VTileRow@@V?$allocator@VTileRow@@@std@@@std@@QEAA@XZ 00000001800364b8     BerconTile.obj
 0002:0000a4b8       $stateUnwindMap$??1TileRow@@QEAA@XZ 00000001800364b8     tile.obj
 0002:0000a4b8       $stateUnwindMap$??1?$_Uninitialized_backout_al@PEAVTileRow@@V?$allocator@VTileRow@@@std@@@std@@QEAA@XZ 00000001800364b8     tile.obj
 0002:0000a4c0       $ip2state$??1?$vector@VTileRow@@V?$allocator@VTileRow@@@std@@@std@@QEAA@XZ 00000001800364c0     BerconTile.obj
 0002:0000a4c8       $unwind$?applyDistortion@BerconNoise@@QEAAXAEAVShadeContext@@AEAVPoint3@@@Z 00000001800364c8     BerconNoise.obj
 0002:0000a4c8       $unwind$?applyDistortion@BerconWood@@QEAAXAEAVShadeContext@@AEAVPoint3@@@Z 00000001800364c8     BerconWood.obj
 0002:0000a4c8       $unwind$?getDistVector@BerconTile@@QEAA?AVPoint3@@AEAVShadeContext@@@Z 00000001800364c8     BerconTile.obj
 0002:0000a4d8       $chain$0$?getDistVector@BerconTile@@QEAA?AVPoint3@@AEAVShadeContext@@@Z 00000001800364d8     BerconTile.obj
 0002:0000a4ec       $chain$3$?getDistVector@BerconTile@@QEAA?AVPoint3@@AEAVShadeContext@@@Z 00000001800364ec     BerconTile.obj
 0002:0000a508       $chain$4$?getDistVector@BerconTile@@QEAA?AVPoint3@@AEAVShadeContext@@@Z 0000000180036508     BerconTile.obj
 0002:0000a518       $chain$6$?getDistVector@BerconTile@@QEAA?AVPoint3@@AEAVShadeContext@@@Z 0000000180036518     BerconTile.obj
 0002:0000a52c       $chain$7$?getDistVector@BerconTile@@QEAA?AVPoint3@@AEAVShadeContext@@@Z 000000018003652c     BerconTile.obj
 0002:0000a53c       $unwind$?EnableStuff@BerconTile@@QEAAXH@Z 000000018003653c     BerconTile.obj
 0002:0000a548       $chain$0$?EnableStuff@BerconTile@@QEAAXH@Z 0000000180036548     BerconTile.obj
 0002:0000a55c       $chain$3$?EnableStuff@BerconTile@@QEAAXH@Z 000000018003655c     BerconTile.obj
 0002:0000a578       $chain$4$?EnableStuff@BerconTile@@QEAAXH@Z 0000000180036578     BerconTile.obj
 0002:0000a588       $chain$5$?EnableStuff@BerconTile@@QEAAXH@Z 0000000180036588     BerconTile.obj
 0002:0000a598       $chain$0$?GetActiveTexHandle@BerconTile@@UEAA_KHAEAVTexHandleMaker@@@Z 0000000180036598     BerconTile.obj
 0002:0000a5ac       $chain$1$?GetActiveTexHandle@BerconTile@@UEAA_KHAEAVTexHandleMaker@@@Z 00000001800365ac     BerconTile.obj
 0002:0000a5bc       $unwind$?CreateParamDlg@BerconTile@@UEAAPEAVParamDlg@@PEAUHWND__@@PEAVIMtlParams@@@Z 00000001800365bc     BerconTile.obj
 0002:0000a5d8       $ip2state$?CreateParamDlg@BerconTile@@UEAAPEAVParamDlg@@PEAUHWND__@@PEAVIMtlParams@@@Z 00000001800365d8     BerconTile.obj
 0002:0000a610       $unwind$?Update@BerconTile@@UEAAXHAEAVInterval@@@Z 0000000180036610     BerconTile.obj
 0002:0000a634       $stateUnwindMap$?Update@BerconTile@@UEAAXHAEAVInterval@@@Z 0000000180036634     BerconTile.obj
 0002:0000a640       $ip2state$?Update@BerconTile@@UEAAXHAEAVInterval@@@Z 0000000180036640     BerconTile.obj
 0002:0000a658       $unwind$?Reset@BerconTile@@UEAAXXZ 0000000180036658     BerconTile.obj
 0002:0000a678       $unwind$?GetSubTexmapSlotName@BerconTile@@UEAA?AVWStr@@H@Z 0000000180036678     BerconTile.obj
 0002:0000a688       $ip2state$?GetSubTexmapSlotName@BerconTile@@UEAA?AVWStr@@H@Z 0000000180036688     BerconTile.obj
 0002:0000a6a8       $unwind$?EvalColor@BerconTile@@UEAA?AVAColor@@AEAVShadeContext@@@Z 00000001800366a8     BerconTile.obj
 0002:0000a6d8       $stateUnwindMap$?EvalColor@BerconTile@@UEAA?AVAColor@@AEAVShadeContext@@@Z 00000001800366d8     BerconTile.obj
 0002:0000a710       $ip2state$?EvalColor@BerconTile@@UEAA?AVAColor@@AEAVShadeContext@@@Z 0000000180036710     BerconTile.obj
 0002:0000a738       $unwind$?EvalNormalPerturb@BerconTile@@UEAA?AVPoint3@@AEAVShadeContext@@@Z 0000000180036738     BerconTile.obj
 0002:0000a770       $stateUnwindMap$?EvalNormalPerturb@BerconTile@@UEAA?AVPoint3@@AEAVShadeContext@@@Z 0000000180036770     BerconTile.obj
 0002:0000a7a8       $ip2state$?EvalNormalPerturb@BerconTile@@UEAA?AVPoint3@@AEAVShadeContext@@@Z 00000001800367a8     BerconTile.obj
 0002:0000a7d0       $unwind$?Clone@BerconTile@@UEAAPEAVReferenceTarget@@AEAVRemapDir@@@Z 00000001800367d0     BerconTile.obj
 0002:0000a7f0       $ip2state$?Clone@BerconTile@@UEAAPEAVReferenceTarget@@AEAVRemapDir@@@Z 00000001800367f0     BerconTile.obj
 0002:0000a808       $chain$0$?NotifyRefChanged@BerconTile@@UEAA?AW4RefResult@@AEBVInterval@@PEAVReferenceTarget@@AEA_KIH@Z 0000000180036808     BerconTile.obj
 0002:0000a81c       $chain$2$?NotifyRefChanged@BerconTile@@UEAA?AW4RefResult@@AEBVInterval@@PEAVReferenceTarget@@AEA_KIH@Z 000000018003681c     BerconTile.obj
 0002:0000a830       $chain$3$?NotifyRefChanged@BerconTile@@UEAA?AW4RefResult@@AEBVInterval@@PEAVReferenceTarget@@AEA_KIH@Z 0000000180036830     BerconTile.obj
 0002:0000a840       $unwind$?SubAnimName@BerconTile@@UEAA?AVWStr@@H@Z 0000000180036840     BerconTile.obj
 0002:0000a850       $ip2state$?SubAnimName@BerconTile@@UEAA?AVWStr@@H@Z 0000000180036850     BerconTile.obj
 0002:0000a860       $unwind$??0BerconTile@@QEAA@XZ 0000000180036860     BerconTile.obj
 0002:0000a87c       $stateUnwindMap$??0BerconTile@@QEAA@XZ 000000018003687c     BerconTile.obj
 0002:0000a8a0       $ip2state$??0BerconTile@@QEAA@XZ 00000001800368a0     BerconTile.obj
 0002:0000a8d0       $unwind$??_GBerconTile@@UEAAPEAXI@Z 00000001800368d0     BerconTile.obj
 0002:0000a8e8       $stateUnwindMap$??_GBerconTile@@UEAAPEAXI@Z 00000001800368e8     BerconTile.obj
 0002:0000a910       $ip2state$??_GBerconTile@@UEAAPEAXI@Z 0000000180036910     BerconTile.obj
 0002:0000a940       $unwind$?Create@BerconTileClassDesc@@UEAAPEAXH@Z 0000000180036940     BerconTile.obj
 0002:0000a950       $ip2state$?Create@BerconTileClassDesc@@UEAAPEAXH@Z 0000000180036950     BerconTile.obj
 0002:0000a968       $unwind$??_GBerconTileClassDesc@@UEAAPEAXI@Z 0000000180036968     BerconTile.obj
 0002:0000a980       $ip2state$??_GBerconTileClassDesc@@UEAAPEAXI@Z 0000000180036980     BerconTile.obj
 0002:0000a988       $unwind$??__EBerconTileDesc@@YAXXZ 0000000180036988     BerconTile.obj
 0002:0000a998       $stateUnwindMap$??__EBerconTileDesc@@YAXXZ 0000000180036998     BerconTile.obj
 0002:0000a998       $stateUnwindMap$??__FBerconTileDesc@@YAXXZ 0000000180036998     BerconTile.obj
 0002:0000a9a0       $ip2state$??__EBerconTileDesc@@YAXXZ 00000001800369a0     BerconTile.obj
 0002:0000a9b8       $unwind$??__FBerconTileDesc@@YAXXZ 00000001800369b8     BerconTile.obj
 0002:0000a9c8       $ip2state$??__FBerconTileDesc@@YAXXZ 00000001800369c8     BerconTile.obj
 0002:0000a9d0       $unwind$??__Fxyz_blk@@YAXXZ 00000001800369d0     BerconTile.obj
 0002:0000a9e0       $stateUnwindMap$??__Fxyz_blk@@YAXXZ 00000001800369e0     BerconTile.obj
 0002:0000a9e8       $ip2state$??__Fxyz_blk@@YAXXZ 00000001800369e8     BerconTile.obj
 0002:0000a9f0       $unwind$??__EBerconTile_param_blk@@YAXXZ 00000001800369f0     BerconTile.obj
 0002:0000a9f8       $unwind$??__EBerconMap_param_blk@@YAXXZ 00000001800369f8     BerconTile.obj
 0002:0000aa00       $unwind$?DlgProc@BerconNoiseDlgProc@@UEAA_JHPEAVIParamMap2@@PEAUHWND__@@I_K_J@Z 0000000180036a00     BerconNoise.obj
 0002:0000aa00       $unwind$?DlgProc@BerconTileDlgProc@@UEAA_JHPEAVIParamMap2@@PEAUHWND__@@I_K_J@Z 0000000180036a00     BerconTile.obj
 0002:0000aa1c       $chain$0$?applyDistortion@BerconWood@@QEAAXAEAVShadeContext@@AEAVPoint3@@@Z 0000000180036a1c     BerconWood.obj
 0002:0000aa30       $chain$3$?applyDistortion@BerconWood@@QEAAXAEAVShadeContext@@AEAVPoint3@@@Z 0000000180036a30     BerconWood.obj
 0002:0000aa4c       $chain$4$?applyDistortion@BerconWood@@QEAAXAEAVShadeContext@@AEAVPoint3@@@Z 0000000180036a4c     BerconWood.obj
 0002:0000aa5c       $chain$5$?applyDistortion@BerconWood@@QEAAXAEAVShadeContext@@AEAVPoint3@@@Z 0000000180036a5c     BerconWood.obj
 0002:0000aa6c       $unwind$WinbaseIsolationAwarePrivatetRgzlnPgpgk$fin$0 0000000180036a6c     DllEntry.obj
 0002:0000aa6c       $unwind$?EnableStuff@BerconWood@@QEAAXXZ 0000000180036a6c     BerconWood.obj
 0002:0000aa74       $chain$0$?EnableStuff@BerconWood@@QEAAXXZ 0000000180036a74     BerconWood.obj
 0002:0000aa88       $chain$4$?EnableStuff@BerconWood@@QEAAXXZ 0000000180036a88     BerconWood.obj
 0002:0000aaa8       $chain$5$?EnableStuff@BerconWood@@QEAAXXZ 0000000180036aa8     BerconWood.obj
 0002:0000aab8       $chain$6$?EnableStuff@BerconWood@@QEAAXXZ 0000000180036ab8     BerconWood.obj
 0002:0000aac8       $chain$0$?GetActiveTexHandle@BerconWood@@UEAA_KHAEAVTexHandleMaker@@@Z 0000000180036ac8     BerconWood.obj
 0002:0000aadc       $chain$1$?GetActiveTexHandle@BerconWood@@UEAA_KHAEAVTexHandleMaker@@@Z 0000000180036adc     BerconWood.obj
 0002:0000aaec       $unwind$?CreateParamDlg@BerconWood@@UEAAPEAVParamDlg@@PEAUHWND__@@PEAVIMtlParams@@@Z 0000000180036aec     BerconWood.obj
 0002:0000ab08       $ip2state$?CreateParamDlg@BerconWood@@UEAAPEAVParamDlg@@PEAUHWND__@@PEAVIMtlParams@@@Z 0000000180036b08     BerconWood.obj
 0002:0000ab40       $unwind$?Update@BerconWood@@UEAAXHAEAVInterval@@@Z 0000000180036b40     BerconWood.obj
 0002:0000ab40       $unwind$?Update@BerconNoise@@UEAAXHAEAVInterval@@@Z 0000000180036b40     BerconNoise.obj
 0002:0000ab4c       $chain$0$?Update@BerconWood@@UEAAXHAEAVInterval@@@Z 0000000180036b4c     BerconWood.obj
 0002:0000ab60       $chain$4$?Update@BerconWood@@UEAAXHAEAVInterval@@@Z 0000000180036b60     BerconWood.obj
 0002:0000ab80       $chain$5$?Update@BerconWood@@UEAAXHAEAVInterval@@@Z 0000000180036b80     BerconWood.obj
 0002:0000ab98       $chain$6$?Update@BerconWood@@UEAAXHAEAVInterval@@@Z 0000000180036b98     BerconWood.obj
 0002:0000aba8       $chain$7$?Update@BerconWood@@UEAAXHAEAVInterval@@@Z 0000000180036ba8     BerconWood.obj
 0002:0000abb8       $unwind$?Reset@BerconWood@@UEAAXXZ 0000000180036bb8     BerconWood.obj
 0002:0000abd4       $unwind$?GetSubTexmapSlotName@BerconWood@@UEAA?AVWStr@@H@Z 0000000180036bd4     BerconWood.obj
 0002:0000abe8       $ip2state$?GetSubTexmapSlotName@BerconWood@@UEAA?AVWStr@@H@Z 0000000180036be8     BerconWood.obj
 0002:0000ac08       $unwind$?EvalColor@BerconWood@@UEAA?AVAColor@@AEAVShadeContext@@@Z 0000000180036c08     BerconWood.obj
 0002:0000ac24       $chain$5$?EvalColor@BerconWood@@UEAA?AVAColor@@AEAVShadeContext@@@Z 0000000180036c24     BerconWood.obj
 0002:0000ac4c       $chain$6$?EvalColor@BerconWood@@UEAA?AVAColor@@AEAVShadeContext@@@Z 0000000180036c4c     BerconWood.obj
 0002:0000ac5c       $unwind$?EvalNormalPerturb@BerconWood@@UEAA?AVPoint3@@AEAVShadeContext@@@Z 0000000180036c5c     BerconWood.obj
 0002:0000ac74       $chain$8$?EvalNormalPerturb@BerconWood@@UEAA?AVPoint3@@AEAVShadeContext@@@Z 0000000180036c74     BerconWood.obj
 0002:0000aca8       $chain$9$?EvalNormalPerturb@BerconWood@@UEAA?AVPoint3@@AEAVShadeContext@@@Z 0000000180036ca8     BerconWood.obj
 0002:0000acbc       $chain$12$?EvalNormalPerturb@BerconWood@@UEAA?AVPoint3@@AEAVShadeContext@@@Z 0000000180036cbc     BerconWood.obj
 0002:0000acf4       $chain$13$?EvalNormalPerturb@BerconWood@@UEAA?AVPoint3@@AEAVShadeContext@@@Z 0000000180036cf4     BerconWood.obj
 0002:0000ad04       $unwind$?Clone@BerconWood@@UEAAPEAVReferenceTarget@@AEAVRemapDir@@@Z 0000000180036d04     BerconWood.obj
 0002:0000ad28       $ip2state$?Clone@BerconWood@@UEAAPEAVReferenceTarget@@AEAVRemapDir@@@Z 0000000180036d28     BerconWood.obj
 0002:0000ad40       $chain$0$?NotifyRefChanged@BerconWood@@UEAA?AW4RefResult@@AEBVInterval@@PEAVReferenceTarget@@AEA_KIH@Z 0000000180036d40     BerconWood.obj
 0002:0000ad54       $chain$2$?NotifyRefChanged@BerconWood@@UEAA?AW4RefResult@@AEBVInterval@@PEAVReferenceTarget@@AEA_KIH@Z 0000000180036d54     BerconWood.obj
 0002:0000ad68       $chain$3$?NotifyRefChanged@BerconWood@@UEAA?AW4RefResult@@AEBVInterval@@PEAVReferenceTarget@@AEA_KIH@Z 0000000180036d68     BerconWood.obj
 0002:0000ad78       $unwind$?SubAnimName@BerconWood@@UEAA?AVWStr@@H@Z 0000000180036d78     BerconWood.obj
 0002:0000ad88       $ip2state$?SubAnimName@BerconWood@@UEAA?AVWStr@@H@Z 0000000180036d88     BerconWood.obj
 0002:0000ada8       $unwind$??0BerconWood@@QEAA@XZ 0000000180036da8     BerconWood.obj
 0002:0000adc4       $stateUnwindMap$??0BerconWood@@QEAA@XZ 0000000180036dc4     BerconWood.obj
 0002:0000adc4       $stateUnwindMap$??0BerconNoise@@QEAA@XZ 0000000180036dc4     BerconNoise.obj
 0002:0000add0       $ip2state$??0BerconWood@@QEAA@XZ 0000000180036dd0     BerconWood.obj
 0002:0000ade8       $unwind$??_GBerconWood@@UEAAPEAXI@Z 0000000180036de8     BerconWood.obj
 0002:0000ae00       $ip2state$??_GBerconWood@@UEAAPEAXI@Z 0000000180036e00     BerconWood.obj
 0002:0000ae18       $unwind$?Create@BerconWoodClassDesc@@UEAAPEAXH@Z 0000000180036e18     BerconWood.obj
 0002:0000ae28       $ip2state$?Create@BerconWoodClassDesc@@UEAAPEAXH@Z 0000000180036e28     BerconWood.obj
 0002:0000ae40       $unwind$??__EBerconWoodDesc@@YAXXZ 0000000180036e40     BerconWood.obj
 0002:0000ae50       $stateUnwindMap$??__EBerconWoodDesc@@YAXXZ 0000000180036e50     BerconWood.obj
 0002:0000ae50       $stateUnwindMap$??__FBerconWoodDesc@@YAXXZ 0000000180036e50     BerconWood.obj
 0002:0000ae58       $ip2state$??__EBerconWoodDesc@@YAXXZ 0000000180036e58     BerconWood.obj
 0002:0000ae70       $unwind$??__FBerconWoodDesc@@YAXXZ 0000000180036e70     BerconWood.obj
 0002:0000ae80       $ip2state$??__FBerconWoodDesc@@YAXXZ 0000000180036e80     BerconWood.obj
 0002:0000ae88       $unwind$??__Fxyz_blk@@YAXXZ 0000000180036e88     BerconWood.obj
 0002:0000ae98       $stateUnwindMap$??__Fxyz_blk@@YAXXZ 0000000180036e98     BerconWood.obj
 0002:0000aea0       $ip2state$??__Fxyz_blk@@YAXXZ 0000000180036ea0     BerconWood.obj
 0002:0000aea8       $unwind$??__EBerconWood_param_blk@@YAXXZ 0000000180036ea8     BerconWood.obj
 0002:0000aeb4       $unwind$??__EBerconMap_param_blk@@YAXXZ 0000000180036eb4     BerconWood.obj
 0002:0000aebc       $unwind$?DlgProc@BerconWoodDlgProc@@UEAA_JHPEAVIParamMap2@@PEAUHWND__@@I_K_J@Z 0000000180036ebc     BerconWood.obj
 0002:0000aed0       $unwind$WinbaseIsolationAwarePrivatetRgzlnPgpgk 0000000180036ed0     DllEntry.obj
 0002:0000aef4       $unwind$CommctrlIsolationAwarePrivatetRgCebPnQQeRff_pbZPgYQP_QYY 0000000180036ef4     DllEntry.obj
 0002:0000af20       $unwind$IsolationAwareRegisterClassExW$fin$0 0000000180036f20     IGradient.obj
 0002:0000af20       $unwind$CommctrlIsolationAwarePrivatetRgCebPnQQeRff_pbZPgYQP_QYY$fin$0 0000000180036f20     DllEntry.obj
 0002:0000af2c       $unwind$IsolationAwareInitCommonControls 0000000180036f2c     DllEntry.obj
 0002:0000af4c       $chain$0$?GetString@@YAPEA_WH@Z 0000000180036f4c     DllEntry.obj
 0002:0000af60       $chain$1$?GetString@@YAPEA_WH@Z 0000000180036f60     DllEntry.obj
 0002:0000af70       $chain$0$?LibDescription@@YAPEB_WXZ 0000000180036f70     DllEntry.obj
 0002:0000af84       $chain$1$?LibDescription@@YAPEB_WXZ 0000000180036f84     DllEntry.obj
 0002:0000af94       $unwind$?update@BerconXYZ@@QEAAXPEAVIParamBlock2@@HAEAVInterval@@@Z 0000000180036f94     BerconCommon.obj
 0002:0000afa4       $chain$3$?update@BerconXYZ@@QEAAXPEAVIParamBlock2@@HAEAVInterval@@@Z 0000000180036fa4     BerconCommon.obj
 0002:0000afc4       $chain$4$?update@BerconXYZ@@QEAAXPEAVIParamBlock2@@HAEAVInterval@@@Z 0000000180036fc4     BerconCommon.obj
 0002:0000afd4       $unwind$?update@BerconXYZ@@QEAAXXZ 0000000180036fd4     BerconCommon.obj
 0002:0000afe0       $unwind$?reset@BerconXYZ@@QEAAXPEAVIParamBlock2@@AEAVInterval@@HHHH@Z 0000000180036fe0     BerconCommon.obj
 0002:0000aff0       $chain$2$?reset@BerconXYZ@@QEAAXPEAVIParamBlock2@@AEAVInterval@@HHHH@Z 0000000180036ff0     BerconCommon.obj
 0002:0000b00c       $chain$3$?reset@BerconXYZ@@QEAAXPEAVIParamBlock2@@AEAVInterval@@HHHH@Z 000000018003700c     BerconCommon.obj
 0002:0000b01c       $unwind$?get@BerconXYZ@@QEAAHAEAVShadeContext@@AEAVPoint3@@11@Z 000000018003701c     BerconCommon.obj
 0002:0000b034       $unwind$?get@BerconXYZ@@QEAAHAEAVShadeContext@@AEAVPoint3@@11PEAV3@@Z 0000000180037034     BerconCommon.obj
 0002:0000b054       $unwind$?get@BerconXYZ@@QEAAHAEAVShadeContext@@AEAVPoint3@@@Z 0000000180037054     BerconCommon.obj
 0002:0000b068       $unwind$?get@BerconXYZ@@QEAAHAEAVShadeContext@@AEAVPoint3@@PEAV3@@Z 0000000180037068     BerconCommon.obj
 0002:0000b088       $unwind$?get@BerconXYZ@@AEAAHAEAVShadeContext@@AEAVPoint3@@11VMatrix3@@PEAH@Z 0000000180037088     BerconCommon.obj
 0002:0000b0a4       $chain$0$?get@BerconXYZ@@AEAAHAEAVShadeContext@@AEAVPoint3@@11VMatrix3@@PEAH@Z 00000001800370a4     BerconCommon.obj
 0002:0000b0b8       $chain$1$?get@BerconXYZ@@AEAAHAEAVShadeContext@@AEAVPoint3@@11VMatrix3@@PEAH@Z 00000001800370b8     BerconCommon.obj
 0002:0000b0c8       $unwind$?get@BerconXYZ@@AEAAHAEAVShadeContext@@AEAVPoint3@@VMatrix3@@PEAH@Z 00000001800370c8     BerconCommon.obj
 0002:0000b0e0       $chain$0$?get@BerconXYZ@@AEAAHAEAVShadeContext@@AEAVPoint3@@VMatrix3@@PEAH@Z 00000001800370e0     BerconCommon.obj
 0002:0000b0f4       $chain$1$?get@BerconXYZ@@AEAAHAEAVShadeContext@@AEAVPoint3@@VMatrix3@@PEAH@Z 00000001800370f4     BerconCommon.obj
 0002:0000b104       $unwind$?random@BerconXYZ@@AEAA?AVMatrix3@@AEAVShadeContext@@PEAV2@@Z 0000000180037104     BerconCommon.obj
 0002:0000b120       $chain$2$?random@BerconXYZ@@AEAA?AVMatrix3@@AEAVShadeContext@@PEAV2@@Z 0000000180037120     BerconCommon.obj
 0002:0000b13c       $chain$3$?random@BerconXYZ@@AEAA?AVMatrix3@@AEAVShadeContext@@PEAV2@@Z 000000018003713c     BerconCommon.obj
 0002:0000b150       $chain$4$?random@BerconXYZ@@AEAA?AVMatrix3@@AEAVShadeContext@@PEAV2@@Z 0000000180037150     BerconCommon.obj
 0002:0000b164       $chain$5$?random@BerconXYZ@@AEAA?AVMatrix3@@AEAVShadeContext@@PEAV2@@Z 0000000180037164     BerconCommon.obj
 0002:0000b174       $chain$6$?random@BerconXYZ@@AEAA?AVMatrix3@@AEAVShadeContext@@PEAV2@@Z 0000000180037174     BerconCommon.obj
 0002:0000b184       $chain$7$?random@BerconXYZ@@AEAA?AVMatrix3@@AEAVShadeContext@@PEAV2@@Z 0000000180037184     BerconCommon.obj
 0002:0000b198       $chain$8$?random@BerconXYZ@@AEAA?AVMatrix3@@AEAVShadeContext@@PEAV2@@Z 0000000180037198     BerconCommon.obj
 0002:0000b1a8       $unwind$?EnableStuff@BerconXYZ@@AEAAXPEAVIParamBlock2@@H@Z 00000001800371a8     BerconCommon.obj
 0002:0000b1b4       $chain$0$?EnableStuff@BerconXYZ@@AEAAXPEAVIParamBlock2@@H@Z 00000001800371b4     BerconCommon.obj
 0002:0000b1c8       $chain$2$?EnableStuff@BerconXYZ@@AEAAXPEAVIParamBlock2@@H@Z 00000001800371c8     BerconCommon.obj
 0002:0000b1e0       $chain$3$?EnableStuff@BerconXYZ@@AEAAXPEAVIParamBlock2@@H@Z 00000001800371e0     BerconCommon.obj
 0002:0000b1f0       $chain$4$?EnableStuff@BerconXYZ@@AEAAXPEAVIParamBlock2@@H@Z 00000001800371f0     BerconCommon.obj
 0002:0000b200       $unwind$?getBasis@BerconXYZ@@AEAAXVMatrix3@@PEAVPoint3@@@Z 0000000180037200     BerconCommon.obj
 0002:0000b210       $chain$0$?NotifyRefChanged@BerconNoise@@UEAA?AW4RefResult@@AEBVInterval@@PEAVReferenceTarget@@AEA_KIH@Z 0000000180037210     BerconNoise.obj
 0002:0000b224       $chain$2$?NotifyRefChanged@BerconNoise@@UEAA?AW4RefResult@@AEBVInterval@@PEAVReferenceTarget@@AEA_KIH@Z 0000000180037224     BerconNoise.obj
 0002:0000b238       $chain$3$?NotifyRefChanged@BerconNoise@@UEAA?AW4RefResult@@AEBVInterval@@PEAVReferenceTarget@@AEA_KIH@Z 0000000180037238     BerconNoise.obj
 0002:0000b248       $chain$0$?applyDistortion@BerconNoise@@QEAAXAEAVShadeContext@@AEAVPoint3@@@Z 0000000180037248     BerconNoise.obj
 0002:0000b25c       $chain$3$?applyDistortion@BerconNoise@@QEAAXAEAVShadeContext@@AEAVPoint3@@@Z 000000018003725c     BerconNoise.obj
 0002:0000b278       $chain$4$?applyDistortion@BerconNoise@@QEAAXAEAVShadeContext@@AEAVPoint3@@@Z 0000000180037278     BerconNoise.obj
 0002:0000b288       $chain$5$?applyDistortion@BerconNoise@@QEAAXAEAVShadeContext@@AEAVPoint3@@@Z 0000000180037288     BerconNoise.obj
 0002:0000b298       $unwind$?EnableStuff@BerconNoise@@QEAAXXZ 0000000180037298     BerconNoise.obj
 0002:0000b2a0       $chain$0$?EnableStuff@BerconNoise@@QEAAXXZ 00000001800372a0     BerconNoise.obj
 0002:0000b2b4       $chain$5$?EnableStuff@BerconNoise@@QEAAXXZ 00000001800372b4     BerconNoise.obj
 0002:0000b2d8       $chain$6$?EnableStuff@BerconNoise@@QEAAXXZ 00000001800372d8     BerconNoise.obj
 0002:0000b2f8       $chain$7$?EnableStuff@BerconNoise@@QEAAXXZ 00000001800372f8     BerconNoise.obj
 0002:0000b308       $chain$8$?EnableStuff@BerconNoise@@QEAAXXZ 0000000180037308     BerconNoise.obj
 0002:0000b318       $chain$0$?GetActiveTexHandle@BerconNoise@@UEAA_KHAEAVTexHandleMaker@@@Z 0000000180037318     BerconNoise.obj
 0002:0000b32c       $chain$1$?GetActiveTexHandle@BerconNoise@@UEAA_KHAEAVTexHandleMaker@@@Z 000000018003732c     BerconNoise.obj
 0002:0000b33c       $unwind$?CreateParamDlg@BerconNoise@@UEAAPEAVParamDlg@@PEAUHWND__@@PEAVIMtlParams@@@Z 000000018003733c     BerconNoise.obj
 0002:0000b358       $ip2state$?CreateParamDlg@BerconNoise@@UEAAPEAVParamDlg@@PEAUHWND__@@PEAVIMtlParams@@@Z 0000000180037358     BerconNoise.obj
 0002:0000b390       $chain$0$?Update@BerconNoise@@UEAAXHAEAVInterval@@@Z 0000000180037390     BerconNoise.obj
 0002:0000b3a4       $chain$3$?Update@BerconNoise@@UEAAXHAEAVInterval@@@Z 00000001800373a4     BerconNoise.obj
 0002:0000b3c0       $chain$4$?Update@BerconNoise@@UEAAXHAEAVInterval@@@Z 00000001800373c0     BerconNoise.obj
 0002:0000b3d0       $chain$5$?Update@BerconNoise@@UEAAXHAEAVInterval@@@Z 00000001800373d0     BerconNoise.obj
 0002:0000b3e0       $unwind$?Reset@BerconNoise@@UEAAXXZ 00000001800373e0     BerconNoise.obj
 0002:0000b3f4       $chain$2$?Reset@BerconNoise@@UEAAXXZ 00000001800373f4     BerconNoise.obj
 0002:0000b410       $chain$3$?Reset@BerconNoise@@UEAAXXZ 0000000180037410     BerconNoise.obj
 0002:0000b420       $unwind$?GetSubTexmapSlotName@BerconNoise@@UEAA?AVWStr@@H@Z 0000000180037420     BerconNoise.obj
 0002:0000b430       $ip2state$?GetSubTexmapSlotName@BerconNoise@@UEAA?AVWStr@@H@Z 0000000180037430     BerconNoise.obj
 0002:0000b450       $unwind$?EvalColor@BerconNoise@@UEAA?AVAColor@@AEAVShadeContext@@@Z 0000000180037450     BerconNoise.obj
 0002:0000b468       $chain$0$?EvalColor@BerconNoise@@UEAA?AVAColor@@AEAVShadeContext@@@Z 0000000180037468     BerconNoise.obj
 0002:0000b47c       $chain$4$?EvalColor@BerconNoise@@UEAA?AVAColor@@AEAVShadeContext@@@Z 000000018003747c     BerconNoise.obj
 0002:0000b49c       $chain$5$?EvalColor@BerconNoise@@UEAA?AVAColor@@AEAVShadeContext@@@Z 000000018003749c     BerconNoise.obj
 0002:0000b4ac       $chain$6$?EvalColor@BerconNoise@@UEAA?AVAColor@@AEAVShadeContext@@@Z 00000001800374ac     BerconNoise.obj
 0002:0000b4bc       $unwind$?EvalNormalPerturb@BerconNoise@@UEAA?AVPoint3@@AEAVShadeContext@@@Z 00000001800374bc     BerconNoise.obj
 0002:0000b4d4       $chain$1$?EvalNormalPerturb@BerconNoise@@UEAA?AVPoint3@@AEAVShadeContext@@@Z 00000001800374d4     BerconNoise.obj
 0002:0000b4ec       $chain$2$?EvalNormalPerturb@BerconNoise@@UEAA?AVPoint3@@AEAVShadeContext@@@Z 00000001800374ec     BerconNoise.obj
 0002:0000b4fc       $chain$6$?EvalNormalPerturb@BerconNoise@@UEAA?AVPoint3@@AEAVShadeContext@@@Z 00000001800374fc     BerconNoise.obj
 0002:0000b51c       $chain$7$?EvalNormalPerturb@BerconNoise@@UEAA?AVPoint3@@AEAVShadeContext@@@Z 000000018003751c     BerconNoise.obj
 0002:0000b52c       $unwind$?Clone@BerconNoise@@UEAAPEAVReferenceTarget@@AEAVRemapDir@@@Z 000000018003752c     BerconNoise.obj
 0002:0000b550       $ip2state$?Clone@BerconNoise@@UEAAPEAVReferenceTarget@@AEAVRemapDir@@@Z 0000000180037550     BerconNoise.obj
 0002:0000b568       $unwind$?SubAnimName@BerconNoise@@UEAA?AVWStr@@H@Z 0000000180037568     BerconNoise.obj
 0002:0000b578       $ip2state$?SubAnimName@BerconNoise@@UEAA?AVWStr@@H@Z 0000000180037578     BerconNoise.obj
 0002:0000b598       $unwind$??0BerconNoise@@QEAA@XZ 0000000180037598     BerconNoise.obj
 0002:0000b5b8       $ip2state$??0BerconNoise@@QEAA@XZ 00000001800375b8     BerconNoise.obj
 0002:0000b5d0       $unwind$??_GBerconNoise@@UEAAPEAXI@Z 00000001800375d0     BerconNoise.obj
 0002:0000b5e8       $ip2state$??_GBerconNoise@@UEAAPEAXI@Z 00000001800375e8     BerconNoise.obj
 0002:0000b600       $unwind$?Create@BerconNoiseClassDesc@@UEAAPEAXH@Z 0000000180037600     BerconNoise.obj
 0002:0000b610       $ip2state$?Create@BerconNoiseClassDesc@@UEAAPEAXH@Z 0000000180037610     BerconNoise.obj
 0002:0000b628       $unwind$??__EBerconNoiseDesc@@YAXXZ 0000000180037628     BerconNoise.obj
 0002:0000b638       $stateUnwindMap$??__FBerconNoiseDesc@@YAXXZ 0000000180037638     BerconNoise.obj
 0002:0000b638       $stateUnwindMap$??__EBerconNoiseDesc@@YAXXZ 0000000180037638     BerconNoise.obj
 0002:0000b640       $ip2state$??__EBerconNoiseDesc@@YAXXZ 0000000180037640     BerconNoise.obj
 0002:0000b658       $unwind$??__FBerconNoiseDesc@@YAXXZ 0000000180037658     BerconNoise.obj
 0002:0000b668       $ip2state$??__FBerconNoiseDesc@@YAXXZ 0000000180037668     BerconNoise.obj
 0002:0000b670       $unwind$??__Fxyz_blk@@YAXXZ 0000000180037670     BerconNoise.obj
 0002:0000b680       $stateUnwindMap$??__Fxyz_blk@@YAXXZ 0000000180037680     BerconNoise.obj
 0002:0000b688       $ip2state$??__Fxyz_blk@@YAXXZ 0000000180037688     BerconNoise.obj
 0002:0000b690       $unwind$??__Eberconnoise_param_blk@@YAXXZ 0000000180037690     BerconNoise.obj
 0002:0000b698       $unwind$??__EBerconMap_param_blk@@YAXXZ 0000000180037698     BerconNoise.obj
 0002:0000b6a0       $unwind$?fractal@Fractal@@SAMVPoint3@@AEAVNoiseParams@@@Z 00000001800376a0     fractal.obj
 0002:0000b6c0       $chain$0$?fractal@Fractal@@SAMVPoint3@@AEAVNoiseParams@@@Z 00000001800376c0     fractal.obj
 0002:0000b6d4       $chain$1$?fractal@Fractal@@SAMVPoint3@@AEAVNoiseParams@@@Z 00000001800376d4     fractal.obj
 0002:0000b6e8       $chain$2$?fractal@Fractal@@SAMVPoint3@@AEAVNoiseParams@@@Z 00000001800376e8     fractal.obj
 0002:0000b6f8       $chain$3$?fractal@Fractal@@SAMVPoint3@@AEAVNoiseParams@@@Z 00000001800376f8     fractal.obj
 0002:0000b708       $unwind$?turbulence@Fractal@@SAMVPoint3@@AEAVNoiseParams@@@Z 0000000180037708     fractal.obj
 0002:0000b728       $chain$1$?turbulence@Fractal@@SAMVPoint3@@AEAVNoiseParams@@@Z 0000000180037728     fractal.obj
 0002:0000b740       $chain$2$?turbulence@Fractal@@SAMVPoint3@@AEAVNoiseParams@@@Z 0000000180037740     fractal.obj
 0002:0000b754       $chain$3$?turbulence@Fractal@@SAMVPoint3@@AEAVNoiseParams@@@Z 0000000180037754     fractal.obj
 0002:0000b764       $chain$4$?turbulence@Fractal@@SAMVPoint3@@AEAVNoiseParams@@@Z 0000000180037764     fractal.obj
 0002:0000b774       $unwind$?fBm@Fractal@@SAMVPoint3@@AEAVNoiseParams@@@Z 0000000180037774     fractal.obj
 0002:0000b794       $unwind$?fBmTurb@Fractal@@SAMVPoint3@@AEAVNoiseParams@@@Z 0000000180037794     fractal.obj
 0002:0000b7b8       $unwind$?heteroTerrain@Fractal@@SAMVPoint3@@AEAVNoiseParams@@@Z 00000001800377b8     fractal.obj
 0002:0000b7d4       $unwind$?hybridMultiFractal@Fractal@@SAMVPoint3@@AEAVNoiseParams@@@Z 00000001800377d4     fractal.obj
 0002:0000b800       $unwind$?ridgedMultiFractal@Fractal@@SAMVPoint3@@AEAVNoiseParams@@@Z 0000000180037800     fractal.obj
 0002:0000b824       $chain$2$?ridgedMultiFractal@Fractal@@SAMVPoint3@@AEAVNoiseParams@@@Z 0000000180037824     fractal.obj
 0002:0000b840       $chain$3$?ridgedMultiFractal@Fractal@@SAMVPoint3@@AEAVNoiseParams@@@Z 0000000180037840     fractal.obj
 0002:0000b850       $unwind$?fractal@Fractal@@SAMVPoint3@@MAEAVNoiseParams@@@Z 0000000180037850     fractal.obj
 0002:0000b874       $chain$0$?fractal@Fractal@@SAMVPoint3@@MAEAVNoiseParams@@@Z 0000000180037874     fractal.obj
 0002:0000b888       $chain$1$?fractal@Fractal@@SAMVPoint3@@MAEAVNoiseParams@@@Z 0000000180037888     fractal.obj
 0002:0000b89c       $chain$2$?fractal@Fractal@@SAMVPoint3@@MAEAVNoiseParams@@@Z 000000018003789c     fractal.obj
 0002:0000b8ac       $chain$3$?fractal@Fractal@@SAMVPoint3@@MAEAVNoiseParams@@@Z 00000001800378ac     fractal.obj
 0002:0000b8bc       $unwind$?turbulence@Fractal@@SAMVPoint3@@MAEAVNoiseParams@@@Z 00000001800378bc     fractal.obj
 0002:0000b8e0       $chain$1$?turbulence@Fractal@@SAMVPoint3@@MAEAVNoiseParams@@@Z 00000001800378e0     fractal.obj
 0002:0000b8f8       $chain$2$?turbulence@Fractal@@SAMVPoint3@@MAEAVNoiseParams@@@Z 00000001800378f8     fractal.obj
 0002:0000b90c       $chain$3$?turbulence@Fractal@@SAMVPoint3@@MAEAVNoiseParams@@@Z 000000018003790c     fractal.obj
 0002:0000b91c       $chain$4$?turbulence@Fractal@@SAMVPoint3@@MAEAVNoiseParams@@@Z 000000018003791c     fractal.obj
 0002:0000b92c       $unwind$?fBm@Fractal@@SAMVPoint3@@MAEAVNoiseParams@@@Z 000000018003792c     fractal.obj
 0002:0000b950       $unwind$?fBmTurb@Fractal@@SAMVPoint3@@MAEAVNoiseParams@@@Z 0000000180037950     fractal.obj
 0002:0000b97c       $unwind$?hybridMultiFractal@Fractal@@SAMVPoint3@@MAEAVNoiseParams@@@Z 000000018003797c     fractal.obj
 0002:0000b9ac       $unwind$?ridgedMultiFractal@Fractal@@SAMVPoint3@@MAEAVNoiseParams@@@Z 00000001800379ac     fractal.obj
 0002:0000b9d4       $chain$2$?ridgedMultiFractal@Fractal@@SAMVPoint3@@MAEAVNoiseParams@@@Z 00000001800379d4     fractal.obj
 0002:0000b9f0       $chain$3$?ridgedMultiFractal@Fractal@@SAMVPoint3@@MAEAVNoiseParams@@@Z 00000001800379f0     fractal.obj
 0002:0000ba00       $unwind$?grain@Fractal@@SAMVPoint3@@MM@Z 0000000180037a00     fractal.obj
 0002:0000ba2c       $unwind$?paint@GradientRamp@@QEAAXPEAUHDC__@@@Z 0000000180037a2c     GradientRamp.obj
 0002:0000ba38       $chain$5$?paint@GradientRamp@@QEAAXPEAUHDC__@@@Z 0000000180037a38     GradientRamp.obj
 0002:0000ba60       $chain$7$?paint@GradientRamp@@QEAAXPEAUHDC__@@@Z 0000000180037a60     GradientRamp.obj
 0002:0000ba78       $chain$8$?paint@GradientRamp@@QEAAXPEAUHDC__@@@Z 0000000180037a78     GradientRamp.obj
 0002:0000ba88       $chain$9$?paint@GradientRamp@@QEAAXPEAUHDC__@@@Z 0000000180037a88     GradientRamp.obj
 0002:0000ba9c       $chain$10$?paint@GradientRamp@@QEAAXPEAUHDC__@@@Z 0000000180037a9c     GradientRamp.obj
 0002:0000baac       $chain$11$?paint@GradientRamp@@QEAAXPEAUHDC__@@@Z 0000000180037aac     GradientRamp.obj
 0002:0000babc       $unwind$?addKey@GradientRamp@@QEAAXHMVAColor@@PEAVTexmap@@@Z 0000000180037abc     GradientRamp.obj
 0002:0000bae4       $stateUnwindMap$?addKey@GradientRamp@@QEAAXHMVAColor@@PEAVTexmap@@@Z 0000000180037ae4     GradientRamp.obj
 0002:0000baf0       $ip2state$?addKey@GradientRamp@@QEAAXHMVAColor@@PEAVTexmap@@@Z 0000000180037af0     GradientRamp.obj
 0002:0000baf8       $unwind$?sort@GradientRamp@@QEAAXXZ 0000000180037af8     GradientRamp.obj
 0002:0000bb04       $chain$1$?sort@GradientRamp@@QEAAXXZ 0000000180037b04     GradientRamp.obj
 0002:0000bb1c       $chain$2$?sort@GradientRamp@@QEAAXXZ 0000000180037b1c     GradientRamp.obj
 0002:0000bb2c       $unwind$?setSubtex@GradientRamp@@QEAAXHPEAVTexmap@@@Z 0000000180037b2c     GradientRamp.obj
 0002:0000bb34       $unwind$?getColor@GradientRamp@@QEAA?AVAColor@@M@Z 0000000180037b34     GradientRamp.obj
 0002:0000bb40       $chain$0$?getColor@GradientRamp@@QEAA?AVAColor@@M@Z 0000000180037b40     GradientRamp.obj
 0002:0000bb54       $chain$2$?getColor@GradientRamp@@QEAA?AVAColor@@M@Z 0000000180037b54     GradientRamp.obj
 0002:0000bb68       $chain$5$?getColor@GradientRamp@@QEAA?AVAColor@@M@Z 0000000180037b68     GradientRamp.obj
 0002:0000bb80       $chain$6$?getColor@GradientRamp@@QEAA?AVAColor@@M@Z 0000000180037b80     GradientRamp.obj
 0002:0000bb94       $chain$7$?getColor@GradientRamp@@QEAA?AVAColor@@M@Z 0000000180037b94     GradientRamp.obj
 0002:0000bba4       $unwind$?getColor@GradientRamp@@QEAA?AVAColor@@MAEAVShadeContext@@@Z 0000000180037ba4     GradientRamp.obj
 0002:0000bbb4       $chain$0$?getColor@GradientRamp@@QEAA?AVAColor@@MAEAVShadeContext@@@Z 0000000180037bb4     GradientRamp.obj
 0002:0000bbc8       $chain$1$?getColor@GradientRamp@@QEAA?AVAColor@@MAEAVShadeContext@@@Z 0000000180037bc8     GradientRamp.obj
 0002:0000bbdc       $chain$2$?getColor@GradientRamp@@QEAA?AVAColor@@MAEAVShadeContext@@@Z 0000000180037bdc     GradientRamp.obj
 0002:0000bbf0       $chain$3$?getColor@GradientRamp@@QEAA?AVAColor@@MAEAVShadeContext@@@Z 0000000180037bf0     GradientRamp.obj
 0002:0000bc04       $chain$4$?getColor@GradientRamp@@QEAA?AVAColor@@MAEAVShadeContext@@@Z 0000000180037c04     GradientRamp.obj
 0002:0000bc14       $chain$5$?getColor@GradientRamp@@QEAA?AVAColor@@MAEAVShadeContext@@@Z 0000000180037c14     GradientRamp.obj
 0002:0000bc24       $chain$6$?getColor@GradientRamp@@QEAA?AVAColor@@MAEAVShadeContext@@@Z 0000000180037c24     GradientRamp.obj
 0002:0000bc34       $chain$7$?getColor@GradientRamp@@QEAA?AVAColor@@MAEAVShadeContext@@@Z 0000000180037c34     GradientRamp.obj
 0002:0000bc44       $unwind$?getBump@GradientRamp@@QEAA?AVPoint3@@MV2@AEAVShadeContext@@@Z 0000000180037c44     GradientRamp.obj
 0002:0000bc5c       $chain$0$?getBump@GradientRamp@@QEAA?AVPoint3@@MV2@AEAVShadeContext@@@Z 0000000180037c5c     GradientRamp.obj
 0002:0000bc70       $chain$2$?getBump@GradientRamp@@QEAA?AVPoint3@@MV2@AEAVShadeContext@@@Z 0000000180037c70     GradientRamp.obj
 0002:0000bc88       $chain$3$?getBump@GradientRamp@@QEAA?AVPoint3@@MV2@AEAVShadeContext@@@Z 0000000180037c88     GradientRamp.obj
 0002:0000bc98       $chain$4$?getBump@GradientRamp@@QEAA?AVPoint3@@MV2@AEAVShadeContext@@@Z 0000000180037c98     GradientRamp.obj
 0002:0000bca8       $unwind$IsolationAwareRegisterClassExW 0000000180037ca8     IGradient.obj
 0002:0000bcd0       $unwind$?GradientProc@IGradient@@SA_JPEAUHWND__@@I_K_J@Z 0000000180037cd0     IGradient.obj
 0002:0000bcec       $unwind$?noise@Noise@@SAMVPoint3@@MAEAVNoiseParams@@@Z 0000000180037cec     noise.obj
 0002:0000bcec       $unwind$?__scrt_throw_std_bad_alloc@@YAXXZ 0000000180037cec     MSVCRT:throw_bad_alloc.obj
 0002:0000bcec       $unwind$?__scrt_throw_std_bad_array_new_length@@YAXXZ 0000000180037cec     MSVCRT:throw_bad_alloc.obj
 0002:0000bcf4       $unwind$?worleyWrapper@Noise@@SAMVPoint3@@AEAVNoiseParams@@@Z 0000000180037cf4     noise.obj
 0002:0000bd00       $unwind$?wood@Noise@@SAMVPoint3@@AEAV2@AEAVWoodParam@@@Z 0000000180037d00     noise.obj
 0002:0000bd2c       $unwind$?wood@Noise@@SAMVPoint3@@00AEAV2@VWoodParam@@@Z 0000000180037d2c     noise.obj
 0002:0000bd60       $chain$3$?wood@Noise@@SAMVPoint3@@00AEAV2@VWoodParam@@@Z 0000000180037d60     noise.obj
 0002:0000bd80       $chain$4$?wood@Noise@@SAMVPoint3@@00AEAV2@VWoodParam@@@Z 0000000180037d80     noise.obj
 0002:0000bd90       $unwind$?limitedNoise@Noise@@SAMVPoint3@@00AEAVNoiseParams@@@Z 0000000180037d90     noise.obj
 0002:0000bda4       $unwind$?f@Fractal@@SAMVPoint3@@AEAVNoiseParams@@@Z 0000000180037da4     noise.obj
 0002:0000bdac       $unwind$?f@Fractal@@SAMVPoint3@@MAEAVNoiseParams@@@Z 0000000180037dac     noise.obj
 0002:0000bdb4       $unwind$?noise@Perlin@@SAMMM@Z 0000000180037db4     perlin.obj
 0002:0000bde0       $unwind$?noise@Perlin@@SAMMMM@Z 0000000180037de0     perlin.obj
 0002:0000be20       $unwind$?noise@Perlin@@SAMMMMM@Z 0000000180037e20     perlin.obj
 0002:0000be60       $unwind$?snoise@Perlin@@SAMM@Z 0000000180037e60     perlin.obj
 0002:0000be70       $unwind$?snoise@Perlin@@SAMMM@Z 0000000180037e70     perlin.obj
 0002:0000beb0       $unwind$?snoise@Perlin@@SAMMMM@Z 0000000180037eb0     perlin.obj
 0002:0000bee4       $unwind$?snoise@Perlin@@SAMMMMM@Z 0000000180037ee4     perlin.obj
 0002:0000bf14       $unwind$?fnoise2D@Perlin@@SAMMMM@Z 0000000180037f14     perlin.obj
 0002:0000bf14       $unwind$?fsnoise2D@Perlin@@SAMMMM@Z 0000000180037f14     perlin.obj
 0002:0000bf28       $unwind$?fnoise3D@Perlin@@SAMMMMM@Z 0000000180037f28     perlin.obj
 0002:0000bf28       $unwind$?fsnoise3D@Perlin@@SAMMMMM@Z 0000000180037f28     perlin.obj
 0002:0000bf40       $unwind$?fsnoise4D@Perlin@@SAMMMMMM@Z 0000000180037f40     perlin.obj
 0002:0000bf40       $unwind$?fnoise4D@Perlin@@SAMMMMMM@Z 0000000180037f40     perlin.obj
 0002:0000bf5c       $unwind$?grad@Perlin@@CAMHMMM@Z 0000000180037f5c     perlin.obj
 0002:0000bf6c       $unwind$?grad@Perlin@@CAMHMMMM@Z 0000000180037f6c     perlin.obj
 0002:0000bf78       $unwind$?point@Perlin@@CAMMMMHHH@Z 0000000180037f78     perlin.obj
 0002:0000bf84       $chain$0$?point@Perlin@@CAMMMMHHH@Z 0000000180037f84     perlin.obj
 0002:0000bf98       $chain$1$?point@Perlin@@CAMMMMHHH@Z 0000000180037f98     perlin.obj
 0002:0000bfa8       $unwind$?point@Perlin@@CAMMMMMHHHH@Z 0000000180037fa8     perlin.obj
 0002:0000bfb4       $chain$0$?point@Perlin@@CAMMMMMHHHH@Z 0000000180037fb4     perlin.obj
 0002:0000bfc8       $chain$1$?point@Perlin@@CAMMMMMHHHH@Z 0000000180037fc8     perlin.obj
 0002:0000bfd8       $unwind$?find_first_of@?$basic_string@_WU?$char_traits@_W@std@@V?$allocator@_W@2@@std@@QEBA_KAEBV12@_K@Z 0000000180037fd8     tile.obj
 0002:0000bfd8       $unwind$?find_first_not_of@?$basic_string@_WU?$char_traits@_W@std@@V?$allocator@_W@2@@std@@QEBA_KAEBV12@_K@Z 0000000180037fd8     tile.obj
 0002:0000bff4       $unwind$??0?$vector@MV?$allocator@M@std@@@std@@QEAA@AEBV01@@Z 0000000180037ff4     tile.obj
 0002:0000c010       $stateUnwindMap$??$_Emplace_reallocate@AEBM@?$vector@MV?$allocator@M@std@@@std@@QEAAPEAMQEAMAEBM@Z 0000000180038010     tile.obj
 0002:0000c010       $stateUnwindMap$??$_Emplace_reallocate@M@?$vector@MV?$allocator@M@std@@@std@@QEAAPEAMQEAM$$QEAM@Z 0000000180038010     tile.obj
 0002:0000c010       $stateUnwindMap$??0?$vector@MV?$allocator@M@std@@@std@@QEAA@AEBV01@@Z 0000000180038010     tile.obj
 0002:0000c020       $tryMap$??0?$vector@MV?$allocator@M@std@@@std@@QEAA@AEBV01@@Z 0000000180038020     tile.obj
 0002:0000c034       $handlerMap$0$??0?$vector@MV?$allocator@M@std@@@std@@QEAA@AEBV01@@Z 0000000180038034     tile.obj
 0002:0000c048       $ip2state$??0?$vector@MV?$allocator@M@std@@@std@@QEAA@AEBV01@@Z 0000000180038048     tile.obj
 0002:0000c070       $unwind$?catch$0@?0???0?$vector@MV?$allocator@M@std@@@std@@QEAA@AEBV01@@Z@4HA 0000000180038070     tile.obj
 0002:0000c080       $unwind$?_Change_array@?$vector@MV?$allocator@M@std@@@std@@AEAAXQEAM_K1@Z 0000000180038080     tile.obj
 0002:0000c080       $unwind$__scrt_dllmain_exception_filter 0000000180038080     MSVCRT:utility.obj
 0002:0000c094       $unwind$??1TileRow@@QEAA@XZ 0000000180038094     tile.obj
 0002:0000c0a8       $ip2state$??1TileRow@@QEAA@XZ 00000001800380a8     tile.obj
 0002:0000c0b0       $unwind$?_Destroy@?$vector@VTileRow@@V?$allocator@VTileRow@@@std@@@std@@AEAAXPEAVTileRow@@0@Z 00000001800380b0     tile.obj
 0002:0000c0c4       $stateUnwindMap$?_Destroy@?$vector@VTileRow@@V?$allocator@VTileRow@@@std@@@std@@AEAAXPEAVTileRow@@0@Z 00000001800380c4     tile.obj
 0002:0000c0d0       $ip2state$?_Destroy@?$vector@VTileRow@@V?$allocator@VTileRow@@@std@@@std@@AEAAXPEAVTileRow@@0@Z 00000001800380d0     tile.obj
 0002:0000c0d8       $unwind$?setPattern@TilePattern@@QEAAXV?$basic_string@_WU?$char_traits@_W@std@@V?$allocator@_W@2@@std@@@Z 00000001800380d8     tile.obj
 0002:0000c0f4       $stateUnwindMap$?setPattern@TilePattern@@QEAAXV?$basic_string@_WU?$char_traits@_W@std@@V?$allocator@_W@2@@std@@@Z 00000001800380f4     tile.obj
 0002:0000c108       $ip2state$?setPattern@TilePattern@@QEAAXV?$basic_string@_WU?$char_traits@_W@std@@V?$allocator@_W@2@@std@@@Z 0000000180038108     tile.obj
 0002:0000c120       $unwind$?setPreset@TilePattern@@QEAAXH@Z 0000000180038120     tile.obj
 0002:0000c134       $stateUnwindMap$?setPreset@TilePattern@@QEAAXH@Z 0000000180038134     tile.obj
 0002:0000c190       $ip2state$?setPreset@TilePattern@@QEAAXH@Z 0000000180038190     tile.obj
 0002:0000c240       $unwind$?corner@Tile@@CA?AVTilePoint@@MMMMAEAVTileParam@@@Z 0000000180038240     tile.obj
 0002:0000c268       $unwind$?uvMapping@Tile@@CAXAEAVTilePoint@@VPoint3@@QEAMAEAVTileParam@@H@Z 0000000180038268     tile.obj
 0002:0000c27c       $chain$0$?uvMapping@Tile@@CAXAEAVTilePoint@@VPoint3@@QEAMAEAVTileParam@@H@Z 000000018003827c     tile.obj
 0002:0000c290       $chain$8$?uvMapping@Tile@@CAXAEAVTilePoint@@VPoint3@@QEAMAEAVTileParam@@H@Z 0000000180038290     tile.obj
 0002:0000c2c0       $chain$9$?uvMapping@Tile@@CAXAEAVTilePoint@@VPoint3@@QEAMAEAVTileParam@@H@Z 00000001800382c0     tile.obj
 0002:0000c2e8       $chain$10$?uvMapping@Tile@@CAXAEAVTilePoint@@VPoint3@@QEAMAEAVTileParam@@H@Z 00000001800382e8     tile.obj
 0002:0000c30c       $chain$11$?uvMapping@Tile@@CAXAEAVTilePoint@@VPoint3@@QEAMAEAVTileParam@@H@Z 000000018003830c     tile.obj
 0002:0000c328       $chain$12$?uvMapping@Tile@@CAXAEAVTilePoint@@VPoint3@@QEAMAEAVTileParam@@H@Z 0000000180038328     tile.obj
 0002:0000c340       $chain$13$?uvMapping@Tile@@CAXAEAVTilePoint@@VPoint3@@QEAMAEAVTileParam@@H@Z 0000000180038340     tile.obj
 0002:0000c350       $unwind$?drawTile@Tile@@CA?AVTilePoint@@VPoint3@@QEAMAEAVTileParam@@HH@Z 0000000180038350     tile.obj
 0002:0000c380       $chain$1$?drawTile@Tile@@CA?AVTilePoint@@VPoint3@@QEAMAEAVTileParam@@HH@Z 0000000180038380     tile.obj
 0002:0000c398       $chain$2$?drawTile@Tile@@CA?AVTilePoint@@VPoint3@@QEAMAEAVTileParam@@HH@Z 0000000180038398     tile.obj
 0002:0000c3a8       $unwind$?draw@Tile@@SA?AVTilePoint@@VPoint3@@AEAVTileParam@@@Z 00000001800383a8     tile.obj
 0002:0000c3cc       $chain$0$?draw@Tile@@SA?AVTilePoint@@VPoint3@@AEAVTileParam@@@Z 00000001800383cc     tile.obj
 0002:0000c3e0       $chain$2$?draw@Tile@@SA?AVTilePoint@@VPoint3@@AEAVTileParam@@@Z 00000001800383e0     tile.obj
 0002:0000c3f4       $chain$1$?draw@Tile@@SA?AVTilePoint@@VPoint3@@AEAVTileParam@@@Z 00000001800383f4     tile.obj
 0002:0000c404       $unwind$?rowcol@@YAHAEAM0AEAHMMAEAV?$vector@MV?$allocator@M@std@@@std@@MMM@Z 0000000180038404     tile.obj
 0002:0000c430       $chain$6$?rowcol@@YAHAEAM0AEAHMMAEAV?$vector@MV?$allocator@M@std@@@std@@MMM@Z 0000000180038430     tile.obj
 0002:0000c45c       $chain$7$?rowcol@@YAHAEAM0AEAHMMAEAV?$vector@MV?$allocator@M@std@@@std@@MMM@Z 000000018003845c     tile.obj
 0002:0000c46c       $unwind$?tokenize@@YAXAEBV?$basic_string@_WU?$char_traits@_W@std@@V?$allocator@_W@2@@std@@AEAV?$vector@V?$basic_string@_WU?$char_traits@_W@std@@V?$allocator@_W@2@@std@@V?$allocator@V?$basic_string@_WU?$char_traits@_W@std@@V?$allocator@_W@2@@std@@@2@@2@0@Z 000000018003846c     tile.obj
 0002:0000c490       $stateUnwindMap$?tokenize@@YAXAEBV?$basic_string@_WU?$char_traits@_W@std@@V?$allocator@_W@2@@std@@AEAV?$vector@V?$basic_string@_WU?$char_traits@_W@std@@V?$allocator@_W@2@@std@@V?$allocator@V?$basic_string@_WU?$char_traits@_W@std@@V?$allocator@_W@2@@std@@@2@@2@0@Z 0000000180038490     tile.obj
 0002:0000c498       $ip2state$?tokenize@@YAXAEBV?$basic_string@_WU?$char_traits@_W@std@@V?$allocator@_W@2@@std@@AEAV?$vector@V?$basic_string@_WU?$char_traits@_W@std@@V?$allocator@_W@2@@std@@V?$allocator@V?$basic_string@_WU?$char_traits@_W@std@@V?$allocator@_W@2@@std@@@2@@2@0@Z 0000000180038498     tile.obj
 0002:0000c4b8       $unwind$??1?$vector@V?$basic_string@_WU?$char_traits@_W@std@@V?$allocator@_W@2@@std@@V?$allocator@V?$basic_string@_WU?$char_traits@_W@std@@V?$allocator@_W@2@@std@@@2@@std@@QEAA@XZ 00000001800384b8     tile.obj
 0002:0000c4d0       $ip2state$??1?$vector@V?$basic_string@_WU?$char_traits@_W@std@@V?$allocator@_W@2@@std@@V?$allocator@V?$basic_string@_WU?$char_traits@_W@std@@V?$allocator@_W@2@@std@@@2@@std@@QEAA@XZ 00000001800384d0     tile.obj
 0002:0000c4d8       $unwind$?_Destroy@?$vector@V?$basic_string@_WU?$char_traits@_W@std@@V?$allocator@_W@2@@std@@V?$allocator@V?$basic_string@_WU?$char_traits@_W@std@@V?$allocator@_W@2@@std@@@2@@std@@AEAAXPEAV?$basic_string@_WU?$char_traits@_W@std@@V?$allocator@_W@2@@2@0@Z 00000001800384d8     tile.obj
 0002:0000c4e4       $unwind$?parsePattern@@YAHV?$basic_string@_WU?$char_traits@_W@std@@V?$allocator@_W@2@@std@@PEAVTilePattern@@@Z 00000001800384e4     tile.obj
 0002:0000c504       $stateUnwindMap$?parsePattern@@YAHV?$basic_string@_WU?$char_traits@_W@std@@V?$allocator@_W@2@@std@@PEAVTilePattern@@@Z 0000000180038504     tile.obj
 0002:0000c600       $ip2state$?parsePattern@@YAHV?$basic_string@_WU?$char_traits@_W@std@@V?$allocator@_W@2@@std@@PEAVTilePattern@@@Z 0000000180038600     tile.obj
 0002:0000c728       $unwind$??0?$basic_stringbuf@_WU?$char_traits@_W@std@@V?$allocator@_W@2@@std@@QEAA@AEBV?$basic_string@_WU?$char_traits@_W@std@@V?$allocator@_W@2@@1@H@Z 0000000180038728     tile.obj
 0002:0000c748       $stateUnwindMap$??0?$basic_stringbuf@_WU?$char_traits@_W@std@@V?$allocator@_W@2@@std@@QEAA@AEBV?$basic_string@_WU?$char_traits@_W@std@@V?$allocator@_W@2@@1@H@Z 0000000180038748     tile.obj
 0002:0000c750       $ip2state$??0?$basic_stringbuf@_WU?$char_traits@_W@std@@V?$allocator@_W@2@@std@@QEAA@AEBV?$basic_string@_WU?$char_traits@_W@std@@V?$allocator@_W@2@@1@H@Z 0000000180038750     tile.obj
 0002:0000c770       $unwind$??1?$basic_stringbuf@_WU?$char_traits@_W@std@@V?$allocator@_W@2@@std@@UEAA@XZ 0000000180038770     tile.obj
 0002:0000c780       $stateUnwindMap$??1?$basic_stringbuf@_WU?$char_traits@_W@std@@V?$allocator@_W@2@@std@@UEAA@XZ 0000000180038780     tile.obj
 0002:0000c788       $ip2state$??1?$basic_stringbuf@_WU?$char_traits@_W@std@@V?$allocator@_W@2@@std@@UEAA@XZ 0000000180038788     tile.obj
 0002:0000c7a8       $unwind$?overflow@?$basic_stringbuf@_WU?$char_traits@_W@std@@V?$allocator@_W@2@@std@@MEAAGG@Z 00000001800387a8     tile.obj
 0002:0000c7c0       $chain$0$?overflow@?$basic_stringbuf@_WU?$char_traits@_W@std@@V?$allocator@_W@2@@std@@MEAAGG@Z 00000001800387c0     tile.obj
 0002:0000c7d4       $chain$1$?overflow@?$basic_stringbuf@_WU?$char_traits@_W@std@@V?$allocator@_W@2@@std@@MEAAGG@Z 00000001800387d4     tile.obj
 0002:0000c7e4       $unwind$?seekoff@?$basic_stringbuf@_WU?$char_traits@_W@std@@V?$allocator@_W@2@@std@@MEAA?AV?$fpos@U_Mbstatet@@@2@_JHH@Z 00000001800387e4     tile.obj
 0002:0000c7fc       $unwind$?seekpos@?$basic_stringbuf@_WU?$char_traits@_W@std@@V?$allocator@_W@2@@std@@MEAA?AV?$fpos@U_Mbstatet@@@2@V32@H@Z 00000001800387fc     tile.obj
 0002:0000c80c       $chain$0$?seekpos@?$basic_stringbuf@_WU?$char_traits@_W@std@@V?$allocator@_W@2@@std@@MEAA?AV?$fpos@U_Mbstatet@@@2@V32@H@Z 000000018003880c     tile.obj
 0002:0000c820       $chain$1$?seekpos@?$basic_stringbuf@_WU?$char_traits@_W@std@@V?$allocator@_W@2@@std@@MEAA?AV?$fpos@U_Mbstatet@@@2@V32@H@Z 0000000180038820     tile.obj
 0002:0000c830       $unwind$??_D?$basic_stringstream@_WU?$char_traits@_W@std@@V?$allocator@_W@2@@std@@QEAAXXZ 0000000180038830     tile.obj
 0002:0000c840       $stateUnwindMap$??_D?$basic_stringstream@_WU?$char_traits@_W@std@@V?$allocator@_W@2@@std@@QEAAXXZ 0000000180038840     tile.obj
 0002:0000c858       $ip2state$??_D?$basic_stringstream@_WU?$char_traits@_W@std@@V?$allocator@_W@2@@std@@QEAAXXZ 0000000180038858     tile.obj
 0002:0000c870       $unwind$??$_Emplace_reallocate@V?$basic_string@_WU?$char_traits@_W@std@@V?$allocator@_W@2@@std@@@?$vector@V?$basic_string@_WU?$char_traits@_W@std@@V?$allocator@_W@2@@std@@V?$allocator@V?$basic_string@_WU?$char_traits@_W@std@@V?$allocator@_W@2@@std@@@2@@std@@QEAAPEAV?$basic_string@_WU?$char_traits@_W@std@@V?$allocator@_W@2@@1@QEAV21@$$QEAV21@@Z 0000000180038870     tile.obj
 0002:0000c890       $stateUnwindMap$??$_Emplace_reallocate@V?$basic_string@_WU?$char_traits@_W@std@@V?$allocator@_W@2@@std@@@?$vector@V?$basic_string@_WU?$char_traits@_W@std@@V?$allocator@_W@2@@std@@V?$allocator@V?$basic_string@_WU?$char_traits@_W@std@@V?$allocator@_W@2@@std@@@2@@std@@QEAAPEAV?$basic_string@_WU?$char_traits@_W@std@@V?$allocator@_W@2@@1@QEAV21@$$QEAV21@@Z 0000000180038890     tile.obj
 0002:0000c8b8       $tryMap$??$_Emplace_reallocate@V?$basic_string@_WU?$char_traits@_W@std@@V?$allocator@_W@2@@std@@@?$vector@V?$basic_string@_WU?$char_traits@_W@std@@V?$allocator@_W@2@@std@@V?$allocator@V?$basic_string@_WU?$char_traits@_W@std@@V?$allocator@_W@2@@std@@@2@@std@@QEAAPEAV?$basic_string@_WU?$char_traits@_W@std@@V?$allocator@_W@2@@1@QEAV21@$$QEAV21@@Z 00000001800388b8     tile.obj
 0002:0000c8cc       $handlerMap$0$??$_Emplace_reallocate@V?$basic_string@_WU?$char_traits@_W@std@@V?$allocator@_W@2@@std@@@?$vector@V?$basic_string@_WU?$char_traits@_W@std@@V?$allocator@_W@2@@std@@V?$allocator@V?$basic_string@_WU?$char_traits@_W@std@@V?$allocator@_W@2@@std@@@2@@std@@QEAAPEAV?$basic_string@_WU?$char_traits@_W@std@@V?$allocator@_W@2@@1@QEAV21@$$QEAV21@@Z 00000001800388cc     tile.obj
 0002:0000c8e0       $ip2state$??$_Emplace_reallocate@V?$basic_string@_WU?$char_traits@_W@std@@V?$allocator@_W@2@@std@@@?$vector@V?$basic_string@_WU?$char_traits@_W@std@@V?$allocator@_W@2@@std@@V?$allocator@V?$basic_string@_WU?$char_traits@_W@std@@V?$allocator@_W@2@@std@@@2@@std@@QEAAPEAV?$basic_string@_WU?$char_traits@_W@std@@V?$allocator@_W@2@@1@QEAV21@$$QEAV21@@Z 00000001800388e0     tile.obj
 0002:0000c938       $unwind$?catch$3@?0???$_Emplace_reallocate@V?$basic_string@_WU?$char_traits@_W@std@@V?$allocator@_W@2@@std@@@?$vector@V?$basic_string@_WU?$char_traits@_W@std@@V?$allocator@_W@2@@std@@V?$allocator@V?$basic_string@_WU?$char_traits@_W@std@@V?$allocator@_W@2@@std@@@2@@std@@QEAAPEAV?$basic_string@_WU?$char_traits@_W@std@@V?$allocator@_W@2@@1@QEAV21@$$QEAV21@@Z@4HA 0000000180038938     tile.obj
 0002:0000c948       $unwind$??$_Emplace_reallocate@AEBVTileRow@@@?$vector@VTileRow@@V?$allocator@VTileRow@@@std@@@std@@QEAAPEAVTileRow@@QEAV2@AEBV2@@Z 0000000180038948     tile.obj
 0002:0000c964       $stateUnwindMap$??$_Emplace_reallocate@AEBVTileRow@@@?$vector@VTileRow@@V?$allocator@VTileRow@@@std@@@std@@QEAAPEAVTileRow@@QEAV2@AEBV2@@Z 0000000180038964     tile.obj
 0002:0000c984       $tryMap$??$_Emplace_reallocate@AEBVTileRow@@@?$vector@VTileRow@@V?$allocator@VTileRow@@@std@@@std@@QEAAPEAVTileRow@@QEAV2@AEBV2@@Z 0000000180038984     tile.obj
 0002:0000c998       $handlerMap$0$??$_Emplace_reallocate@AEBVTileRow@@@?$vector@VTileRow@@V?$allocator@VTileRow@@@std@@@std@@QEAAPEAVTileRow@@QEAV2@AEBV2@@Z 0000000180038998     tile.obj
 0002:0000c9b0       $ip2state$??$_Emplace_reallocate@AEBVTileRow@@@?$vector@VTileRow@@V?$allocator@VTileRow@@@std@@@std@@QEAAPEAVTileRow@@QEAV2@AEBV2@@Z 00000001800389b0     tile.obj
 0002:0000c9d8       $unwind$?catch$2@?0???$_Emplace_reallocate@AEBVTileRow@@@?$vector@VTileRow@@V?$allocator@VTileRow@@@std@@@std@@QEAAPEAVTileRow@@QEAV2@AEBV2@@Z@4HA 00000001800389d8     tile.obj
 0002:0000c9ec       $unwind$??$_Emplace_reallocate@AEBM@?$vector@MV?$allocator@M@std@@@std@@QEAAPEAMQEAMAEBM@Z 00000001800389ec     tile.obj
 0002:0000c9ec       $unwind$??$_Emplace_reallocate@M@?$vector@MV?$allocator@M@std@@@std@@QEAAPEAMQEAM$$QEAM@Z 00000001800389ec     tile.obj
 0002:0000ca08       $tryMap$??$_Emplace_reallocate@AEBM@?$vector@MV?$allocator@M@std@@@std@@QEAAPEAMQEAMAEBM@Z 0000000180038a08     tile.obj
 0002:0000ca08       $tryMap$??$_Emplace_reallocate@M@?$vector@MV?$allocator@M@std@@@std@@QEAAPEAMQEAM$$QEAM@Z 0000000180038a08     tile.obj
 0002:0000ca1c       $handlerMap$0$??$_Emplace_reallocate@AEBM@?$vector@MV?$allocator@M@std@@@std@@QEAAPEAMQEAMAEBM@Z 0000000180038a1c     tile.obj
 0002:0000ca1c       $handlerMap$0$??$_Emplace_reallocate@M@?$vector@MV?$allocator@M@std@@@std@@QEAAPEAMQEAM$$QEAM@Z 0000000180038a1c     tile.obj
 0002:0000ca30       $ip2state$??$_Emplace_reallocate@M@?$vector@MV?$allocator@M@std@@@std@@QEAAPEAMQEAM$$QEAM@Z 0000000180038a30     tile.obj
 0002:0000ca30       $ip2state$??$_Emplace_reallocate@AEBM@?$vector@MV?$allocator@M@std@@@std@@QEAAPEAMQEAMAEBM@Z 0000000180038a30     tile.obj
 0002:0000ca58       $unwind$?catch$0@?0???$_Emplace_reallocate@M@?$vector@MV?$allocator@M@std@@@std@@QEAAPEAMQEAM$$QEAM@Z@4HA 0000000180038a58     tile.obj
 0002:0000ca58       $unwind$?catch$0@?0???$_Emplace_reallocate@AEBM@?$vector@MV?$allocator@M@std@@@std@@QEAAPEAMQEAMAEBM@Z@4HA 0000000180038a58     tile.obj
 0002:0000ca68       $unwind$??$_Uninitialized_move@PEAVTileRow@@PEAV1@V?$allocator@VTileRow@@@std@@@std@@YAPEAVTileRow@@QEAV1@0PEAV1@AEAV?$allocator@VTileRow@@@0@@Z 0000000180038a68     tile.obj
 0002:0000ca78       $stateUnwindMap$??$_Uninitialized_move@PEAVTileRow@@PEAV1@V?$allocator@VTileRow@@@std@@@std@@YAPEAVTileRow@@QEAV1@0PEAV1@AEAV?$allocator@VTileRow@@@0@@Z 0000000180038a78     tile.obj
 0002:0000ca90       $ip2state$??$_Uninitialized_move@PEAVTileRow@@PEAV1@V?$allocator@VTileRow@@@std@@@std@@YAPEAVTileRow@@QEAV1@0PEAV1@AEAV?$allocator@VTileRow@@@0@@Z 0000000180038a90     tile.obj
 0002:0000caa8       $unwind$??1?$_Uninitialized_backout_al@PEAV?$basic_string@_WU?$char_traits@_W@std@@V?$allocator@_W@2@@std@@V?$allocator@V?$basic_string@_WU?$char_traits@_W@std@@V?$allocator@_W@2@@std@@@2@@std@@QEAA@XZ 0000000180038aa8     tile.obj
 0002:0000cac0       $ip2state$??1?$_Uninitialized_backout_al@PEAV?$basic_string@_WU?$char_traits@_W@std@@V?$allocator@_W@2@@std@@V?$allocator@V?$basic_string@_WU?$char_traits@_W@std@@V?$allocator@_W@2@@std@@@2@@std@@QEAA@XZ 0000000180038ac0     tile.obj
 0002:0000cac8       $unwind$??1?$_Uninitialized_backout_al@PEAVTileRow@@V?$allocator@VTileRow@@@std@@@std@@QEAA@XZ 0000000180038ac8     tile.obj
 0002:0000cae0       $ip2state$??1?$_Uninitialized_backout_al@PEAVTileRow@@V?$allocator@VTileRow@@@std@@@std@@QEAA@XZ 0000000180038ae0     tile.obj
 0002:0000cae8       $unwind$?noise@Worley@@SAXQEBNHPEANH@Z 0000000180038ae8     worley.obj
 0002:0000cb2c       $unwind$?add@Worley@@CAXJJJQEBNHPEANH@Z 0000000180038b2c     worley.obj
 0002:0000cb44       $chain$10$?add@Worley@@CAXJJJQEBNHPEANH@Z 0000000180038b44     worley.obj
 0002:0000cb80       $chain$11$?add@Worley@@CAXJJJQEBNHPEANH@Z 0000000180038b80     worley.obj
 0002:0000cb90       $unwind$__scrt_is_nonwritable_in_current_image 0000000180038b90     MSVCRT:utility.obj
 0002:0000cbb0       $unwind$__scrt_is_nonwritable_in_current_image$filt$0 0000000180038bb0     MSVCRT:utility.obj
 0002:0000cbb8       $unwind$__scrt_initialize_onexit_tables 0000000180038bb8     MSVCRT:utility.obj
 0002:0000cbc0       $xdatasym                  0000000180038bc0     MSVCRT:chkstk.obj
 0002:0000cbc8       $unwind$?dllmain_crt_process_attach@@YAHQEAUHINSTANCE__@@QEAX@Z 0000000180038bc8     MSVCRT:dll_dllmain.obj
 0002:0000cc04       $unwind$?dllmain_crt_process_detach@@YAH_N@Z 0000000180038c04     MSVCRT:dll_dllmain.obj
 0002:0000cc3c       $unwind$?dllmain_dispatch@@YAHQEAUHINSTANCE__@@KQEAX@Z 0000000180038c3c     MSVCRT:dll_dllmain.obj
 0002:0000cc64       $unwind$?filt$0@?0??dllmain_dispatch@@YAHQEAUHINSTANCE__@@KQEAX@Z@4HA 0000000180038c64     MSVCRT:dll_dllmain.obj
 0002:0000cc6c       $unwind$__isa_available_init 0000000180038c6c     MSVCRT:cpu_disp.obj
 0002:0000cc80       $unwind$__scrt_fastfail    0000000180038c80     MSVCRT:utility_desktop.obj
 0002:0000cc90       $unwind$__security_init_cookie 0000000180038c90     MSVCRT:gs_support.obj
 0002:0000cca0       $xdatasym                  0000000180038ca0     MSVCRT:guard_dispatch.obj
 0002:0000ce80       .edata                     0000000180038e80     BerconMaps.exp
 0002:0000cea8       rgpv                       0000000180038ea8     BerconMaps.exp
 0002:0000cec4       rgszName                   0000000180038ec4     BerconMaps.exp
 0002:0000cee0       rgwOrd                     0000000180038ee0     BerconMaps.exp
 0002:0000ceee       szName                     0000000180038eee     BerconMaps.exp
 0002:0000cefe       $N00005                    0000000180038efe     BerconMaps.exp
 0002:0000cf1f       $N00003                    0000000180038f1f     BerconMaps.exp
 0002:0000cf2c       $N00001                    0000000180038f2c     BerconMaps.exp
 0002:0000cf3b       $N00006                    0000000180038f3b     BerconMaps.exp
 0002:0000cf51       $N00002                    0000000180038f51     BerconMaps.exp
 0002:0000cf62       $N00007                    0000000180038f62     BerconMaps.exp
 0002:0000cf76       $N00004                    0000000180038f76     BerconMaps.exp
 0002:0000ee30       .idata$6                   000000018003ae30     core:core.dll
 0002:0000f0aa       .idata$6                   000000018003b0aa     geom:geom.dll
 0002:0000f0d0       .idata$6                   000000018003b0d0     Maxscrpt:MAXScrpt.dll
 0002:0000f4ac       .idata$6                   000000018003b4ac     maxutil:maxutil.dll
 0002:0000f922       .idata$6                   000000018003b922     Paramblk2:ParamBlk2.dll
 0002:0000fa40       .idata$6                   000000018003ba40     kernel32:KERNEL32.dll
 0002:0000fb7a       .idata$6                   000000018003bb7a     user32:USER32.dll
 0002:0000fc1e       .idata$6                   000000018003bc1e     gdi32:GDI32.dll
 0002:000101d0       .idata$6                   000000018003c1d0     msvcprt:MSVCP140.dll
 0002:0001029e       .idata$6                   000000018003c29e     vcruntime:VCRUNTIME140.dll
 0002:0001040c       .idata$6                   000000018003c40c     ucrt:api-ms-win-crt-utility-l1-1-0.dll
 0002:0001042e       .idata$6                   000000018003c42e     ucrt:api-ms-win-crt-math-l1-1-0.dll
 0002:0001044e       .idata$6                   000000018003c44e     ucrt:api-ms-win-crt-runtime-l1-1-0.dll
 0002:00010470       .idata$6                   000000018003c470     ucrt:api-ms-win-crt-heap-l1-1-0.dll
 0003:00000008       ?BlinnClassID@@3VClass_ID@@A 000000018003d008     BerconDistortion.obj
 0003:00000010       ?AnisoShaderClassID@@3VClass_ID@@A 000000018003d010     BerconDistortion.obj
 0003:00000018       ?AnisoShaderDlgClassID@@3VClass_ID@@A 000000018003d018     BerconDistortion.obj
 0003:00000020       ?OrenNayarBlinnShaderClassID@@3VClass_ID@@A 000000018003d020     BerconDistortion.obj
 0003:00000028       ?OrenNayarShaderDlgClassID@@3VClass_ID@@A 000000018003d028     BerconDistortion.obj
 0003:00000030       ?StraussShaderClassID@@3VClass_ID@@A 000000018003d030     BerconDistortion.obj
 0003:00000038       ?kTriObjNormalXTCID@@3VClass_ID@@B 000000018003d038     BerconDistortion.obj
 0003:00000040       ?black@@3VAColor@@A        000000018003d040     BerconDistortion.obj
 0003:00000050       ?BlinnClassID@@3VClass_ID@@A 000000018003d050     BerconGradient.obj
 0003:00000058       ?AnisoShaderClassID@@3VClass_ID@@A 000000018003d058     BerconGradient.obj
 0003:00000060       ?AnisoShaderDlgClassID@@3VClass_ID@@A 000000018003d060     BerconGradient.obj
 0003:00000068       ?OrenNayarBlinnShaderClassID@@3VClass_ID@@A 000000018003d068     BerconGradient.obj
 0003:00000070       ?OrenNayarShaderDlgClassID@@3VClass_ID@@A 000000018003d070     BerconGradient.obj
 0003:00000078       ?StraussShaderClassID@@3VClass_ID@@A 000000018003d078     BerconGradient.obj
 0003:00000080       ?kTriObjNormalXTCID@@3VClass_ID@@B 000000018003d080     BerconGradient.obj
 0003:00000088       ?n1@?L@??getGradientValue@BerconGradient@@QEAAMAEAVShadeContext@@@Z@4MA 000000018003d088     BerconGradient.obj
 0003:00000090       ?BlinnClassID@@3VClass_ID@@A 000000018003d090     BerconTile.obj
 0003:00000098       ?AnisoShaderClassID@@3VClass_ID@@A 000000018003d098     BerconTile.obj
 0003:000000a0       ?AnisoShaderDlgClassID@@3VClass_ID@@A 000000018003d0a0     BerconTile.obj
 0003:000000a8       ?OrenNayarBlinnShaderClassID@@3VClass_ID@@A 000000018003d0a8     BerconTile.obj
 0003:000000b0       ?OrenNayarShaderDlgClassID@@3VClass_ID@@A 000000018003d0b0     BerconTile.obj
 0003:000000b8       ?StraussShaderClassID@@3VClass_ID@@A 000000018003d0b8     BerconTile.obj
 0003:000000c0       ?kTriObjNormalXTCID@@3VClass_ID@@B 000000018003d0c0     BerconTile.obj
 0003:000000c8       ?black@@3VAColor@@A        000000018003d0c8     BerconTile.obj
 0003:000000d8       ?white@@3VAColor@@A        000000018003d0d8     BerconTile.obj
 0003:000000e8       ?BlinnClassID@@3VClass_ID@@A 000000018003d0e8     BerconWood.obj
 0003:000000f0       ?AnisoShaderClassID@@3VClass_ID@@A 000000018003d0f0     BerconWood.obj
 0003:000000f8       ?AnisoShaderDlgClassID@@3VClass_ID@@A 000000018003d0f8     BerconWood.obj
 0003:00000100       ?OrenNayarBlinnShaderClassID@@3VClass_ID@@A 000000018003d100     BerconWood.obj
 0003:00000108       ?OrenNayarShaderDlgClassID@@3VClass_ID@@A 000000018003d108     BerconWood.obj
 0003:00000110       ?StraussShaderClassID@@3VClass_ID@@A 000000018003d110     BerconWood.obj
 0003:00000118       ?kTriObjNormalXTCID@@3VClass_ID@@B 000000018003d118     BerconWood.obj
 0003:00000120       ?white@@3VAColor@@A        000000018003d120     BerconWood.obj
 0003:00000130       ?kTriObjNormalXTCID@@3VClass_ID@@B 000000018003d130     DllEntry.obj
 0003:00000138       ?BlinnClassID@@3VClass_ID@@A 000000018003d138     BerconCommon.obj
 0003:00000140       ?AnisoShaderClassID@@3VClass_ID@@A 000000018003d140     BerconCommon.obj
 0003:00000148       ?AnisoShaderDlgClassID@@3VClass_ID@@A 000000018003d148     BerconCommon.obj
 0003:00000150       ?OrenNayarBlinnShaderClassID@@3VClass_ID@@A 000000018003d150     BerconCommon.obj
 0003:00000158       ?OrenNayarShaderDlgClassID@@3VClass_ID@@A 000000018003d158     BerconCommon.obj
 0003:00000160       ?StraussShaderClassID@@3VClass_ID@@A 000000018003d160     BerconCommon.obj
 0003:00000168       ?kTriObjNormalXTCID@@3VClass_ID@@B 000000018003d168     BerconCommon.obj
 0003:00000170       ?BlinnClassID@@3VClass_ID@@A 000000018003d170     BerconNoise.obj
 0003:00000178       ?AnisoShaderClassID@@3VClass_ID@@A 000000018003d178     BerconNoise.obj
 0003:00000180       ?AnisoShaderDlgClassID@@3VClass_ID@@A 000000018003d180     BerconNoise.obj
 0003:00000188       ?OrenNayarBlinnShaderClassID@@3VClass_ID@@A 000000018003d188     BerconNoise.obj
 0003:00000190       ?OrenNayarShaderDlgClassID@@3VClass_ID@@A 000000018003d190     BerconNoise.obj
 0003:00000198       ?StraussShaderClassID@@3VClass_ID@@A 000000018003d198     BerconNoise.obj
 0003:000001a0       ?kTriObjNormalXTCID@@3VClass_ID@@B 000000018003d1a0     BerconNoise.obj
 0003:000001a8       ?white@@3VAColor@@A        000000018003d1a8     BerconNoise.obj
 0003:000001b8       ?kTriObjNormalXTCID@@3VClass_ID@@B 000000018003d1b8     fractal.obj
 0003:000001c0       ?BlinnClassID@@3VClass_ID@@A 000000018003d1c0     GradientRamp.obj
 0003:000001c8       ?AnisoShaderClassID@@3VClass_ID@@A 000000018003d1c8     GradientRamp.obj
 0003:000001d0       ?AnisoShaderDlgClassID@@3VClass_ID@@A 000000018003d1d0     GradientRamp.obj
 0003:000001d8       ?OrenNayarBlinnShaderClassID@@3VClass_ID@@A 000000018003d1d8     GradientRamp.obj
 0003:000001e0       ?OrenNayarShaderDlgClassID@@3VClass_ID@@A 000000018003d1e0     GradientRamp.obj
 0003:000001e8       ?StraussShaderClassID@@3VClass_ID@@A 000000018003d1e8     GradientRamp.obj
 0003:000001f0       ?kTriObjNormalXTCID@@3VClass_ID@@B 000000018003d1f0     GradientRamp.obj
 0003:000001f8       ?kTriObjNormalXTCID@@3VClass_ID@@B 000000018003d1f8     IGradient.obj
 0003:00000200       ?BlinnClassID@@3VClass_ID@@A 000000018003d200     IGradient.obj
 0003:00000208       ?AnisoShaderClassID@@3VClass_ID@@A 000000018003d208     IGradient.obj
 0003:00000210       ?AnisoShaderDlgClassID@@3VClass_ID@@A 000000018003d210     IGradient.obj
 0003:00000218       ?OrenNayarBlinnShaderClassID@@3VClass_ID@@A 000000018003d218     IGradient.obj
 0003:00000220       ?OrenNayarShaderDlgClassID@@3VClass_ID@@A 000000018003d220     IGradient.obj
 0003:00000228       ?StraussShaderClassID@@3VClass_ID@@A 000000018003d228     IGradient.obj
 0003:00000230       ?kTriObjNormalXTCID@@3VClass_ID@@B 000000018003d230     noise.obj
 0003:00000240       ?perm@@3PAEA               000000018003d240     perlin.obj
 0003:00000440       ?simplex@@3PAY03EA         000000018003d440     perlin.obj
 0003:00000540       ?kTriObjNormalXTCID@@3VClass_ID@@B 000000018003d540     tile.obj
 0003:00000548       ?pat_herring_dir@@3PAEA    000000018003d548     tile.obj
 0003:00000560       ?pat_herring_x@@3PAMA      000000018003d560     tile.obj
 0003:000005a0       ?pat_herring_y@@3PAMA      000000018003d5a0     tile.obj
 0003:000005e0       ?pat_herring_id@@3PAEA     000000018003d5e0     tile.obj
 0003:000005f0       ?Poisson_count@@3PADA      000000018003d5f0     worley.obj
 0003:000006f0       ?kTriObjNormalXTCID@@3VClass_ID@@B 000000018003d6f0     commonMath.obj
 0003:000011a0       ?BerconDistortion_param_blk@@3VParamBlockDesc2@@A 000000018003e1a0     BerconDistortion.obj
 0003:00001240       ?kInvalidId@AssetManagement@MaxSDK@@3UAssetId@12@A 000000018003e240     BerconDistortion.obj
 0003:00001250       ?BerconDistortionDesc@@3VBerconDistortionClassDesc@@A 000000018003e250     BerconDistortion.obj
 0003:000012a0       ?xyz_blk@@3VXYZ_Desc@@A    000000018003e2a0     BerconDistortion.obj
 0003:00001348       ?kInvalidId@AssetManagement@MaxSDK@@3UAssetId@12@A 000000018003e348     BerconGradient.obj
 0003:00001360       ?gradientmap_param_blk@@3VParamBlockDesc2@@A 000000018003e360     BerconGradient.obj
 0003:00001400       ?xyz_blk@@3VXYZ_Desc@@A    000000018003e400     BerconGradient.obj
 0003:000014a0       ?BerconGradientDesc@@3VBerconGradientClassDesc@@A 000000018003e4a0     BerconGradient.obj
 0003:00001500       ?BerconMap_param_blk@@3VParamBlockDesc2@@A 000000018003e500     BerconTile.obj
 0003:000015a0       ?kInvalidId@AssetManagement@MaxSDK@@3UAssetId@12@A 000000018003e5a0     BerconTile.obj
 0003:000015b0       ?BerconTileDesc@@3VBerconTileClassDesc@@A 000000018003e5b0     BerconTile.obj
 0003:00001600       ?BerconTile_param_blk@@3VParamBlockDesc2@@A 000000018003e600     BerconTile.obj
 0003:000016a0       ?xyz_blk@@3VXYZ_Desc@@A    000000018003e6a0     BerconTile.obj
 0003:00001750       ?BerconMap_param_blk@@3VParamBlockDesc2@@A 000000018003e750     BerconWood.obj
 0003:000017f0       ?kInvalidId@AssetManagement@MaxSDK@@3UAssetId@12@A 000000018003e7f0     BerconWood.obj
 0003:00001800       ?BerconWoodDesc@@3VBerconWoodClassDesc@@A 000000018003e800     BerconWood.obj
 0003:00001850       ?xyz_blk@@3VXYZ_Desc@@A    000000018003e850     BerconWood.obj
 0003:000018f0       ?BerconWood_param_blk@@3VParamBlockDesc2@@A 000000018003e8f0     BerconWood.obj
 0003:00001990       ?black@@3VAColor@@A        000000018003e990     BerconWood.obj
 0003:000019b0       ?kInvalidId@AssetManagement@MaxSDK@@3UAssetId@12@A 000000018003e9b0     DllEntry.obj
 0003:000019d0       ?buf@?1??GetString@@YAPEA_WH@Z@4PA_WA 000000018003e9d0     DllEntry.obj
 0003:00001bd0       ?kInvalidId@AssetManagement@MaxSDK@@3UAssetId@12@A 000000018003ebd0     BerconCommon.obj
 0003:00001bf0       ?BerconMap_param_blk@@3VParamBlockDesc2@@A 000000018003ebf0     BerconNoise.obj
 0003:00001c90       ?berconnoise_param_blk@@3VParamBlockDesc2@@A 000000018003ec90     BerconNoise.obj
 0003:00001d30       ?kInvalidId@AssetManagement@MaxSDK@@3UAssetId@12@A 000000018003ed30     BerconNoise.obj
 0003:00001d40       ?BerconNoiseDesc@@3VBerconNoiseClassDesc@@A 000000018003ed40     BerconNoise.obj
 0003:00001d90       ?xyz_blk@@3VXYZ_Desc@@A    000000018003ed90     BerconNoise.obj
 0003:00001e30       ?black@@3VAColor@@A        000000018003ee30     BerconNoise.obj
 0003:00001e40       ?kInvalidId@AssetManagement@MaxSDK@@3UAssetId@12@A 000000018003ee40     fractal.obj
 0003:00001e50       ?kInvalidId@AssetManagement@MaxSDK@@3UAssetId@12@A 000000018003ee50     GradientRamp.obj
 0003:00001e60       ?kInvalidId@AssetManagement@MaxSDK@@3UAssetId@12@A 000000018003ee60     IGradient.obj
 0003:00001e70       ?kInvalidId@AssetManagement@MaxSDK@@3UAssetId@12@A 000000018003ee70     noise.obj
 0003:00001e80       ?kInvalidId@AssetManagement@MaxSDK@@3UAssetId@12@A 000000018003ee80     tile.obj
 0003:00001e90       ?kInvalidId@AssetManagement@MaxSDK@@3UAssetId@12@A 000000018003ee90     commonMath.obj
 0003:00001eb0       ?is_initialized_as_dll@@3_NA 000000018003eeb0     MSVCRT:utility.obj
 0003:00001eb1       ?module_local_atexit_table_initialized@@3_NA 000000018003eeb1     MSVCRT:utility.obj
 0003:00001eb8       ?module_local_atexit_table@@3U_onexit_table_t@@A 000000018003eeb8     MSVCRT:utility.obj
 0003:00001ed0       ?module_local_at_quick_exit_table@@3U_onexit_table_t@@A 000000018003eed0     MSVCRT:utility.obj
 0003:00001ee8       ?__proc_attached@@3HA      000000018003eee8     MSVCRT:dll_dllmain.obj
 0004:00000000       $pdata$??__EBerconDistortionDesc@@YAXXZ 000000018003f000     BerconDistortion.obj
 0004:0000000c       $pdata$??__EBerconDistortion_param_blk@@YAXXZ 000000018003f00c     BerconDistortion.obj
 0004:00000018       $pdata$??__Exyz_blk@@YAXXZ 000000018003f018     BerconDistortion.obj
 0004:00000024       $pdata$??__EBerconGradientDesc@@YAXXZ 000000018003f024     BerconGradient.obj
 0004:00000030       $pdata$??__Egradientmap_param_blk@@YAXXZ 000000018003f030     BerconGradient.obj
 0004:0000003c       $pdata$??__Exyz_blk@@YAXXZ 000000018003f03c     BerconGradient.obj
 0004:00000048       $pdata$??__EBerconMap_param_blk@@YAXXZ 000000018003f048     BerconTile.obj
 0004:00000054       $pdata$??__EBerconTileDesc@@YAXXZ 000000018003f054     BerconTile.obj
 0004:00000060       $pdata$??__EBerconTile_param_blk@@YAXXZ 000000018003f060     BerconTile.obj
 0004:0000006c       $pdata$??__Exyz_blk@@YAXXZ 000000018003f06c     BerconTile.obj
 0004:00000078       $pdata$??__EBerconMap_param_blk@@YAXXZ 000000018003f078     BerconWood.obj
 0004:00000084       $pdata$??__EBerconWoodDesc@@YAXXZ 000000018003f084     BerconWood.obj
 0004:00000090       $pdata$??__EBerconWood_param_blk@@YAXXZ 000000018003f090     BerconWood.obj
 0004:0000009c       $pdata$??__Exyz_blk@@YAXXZ 000000018003f09c     BerconWood.obj
 0004:000000a8       $pdata$??__EBerconMap_param_blk@@YAXXZ 000000018003f0a8     BerconNoise.obj
 0004:000000b4       $pdata$??__EBerconNoiseDesc@@YAXXZ 000000018003f0b4     BerconNoise.obj
 0004:000000c0       $pdata$??__Eberconnoise_param_blk@@YAXXZ 000000018003f0c0     BerconNoise.obj
 0004:000000cc       $pdata$??__Exyz_blk@@YAXXZ 000000018003f0cc     BerconNoise.obj
 0004:000000d8       $pdata$??_GXYZ_Desc@@UEAAPEAXI@Z 000000018003f0d8     BerconDistortion.obj
 0004:000000e4       $pdata$?Create@BerconDistortionClassDesc@@UEAAPEAXH@Z 000000018003f0e4     BerconDistortion.obj
 0004:000000f0       $pdata$??_GBerconDistortionClassDesc@@UEAAPEAXI@Z 000000018003f0f0     BerconDistortion.obj
 0004:000000fc       $pdata$?GetInterfaceAt@ClassDesc@@UEAAPEAVFPInterface@@H@Z 000000018003f0fc     BerconDistortion.obj
 0004:00000108       $pdata$??1TabOutOfRangeException@Util@MaxSDK@@UEAA@XZ 000000018003f108     BerconDistortion.obj
 0004:00000114       $pdata$??0TabOutOfRangeException@Util@MaxSDK@@QEAA@AEBV012@@Z 000000018003f114     BerconDistortion.obj
 0004:00000120       $pdata$??_GTabOutOfRangeException@Util@MaxSDK@@UEAAPEAXI@Z 000000018003f120     BerconDistortion.obj
 0004:0000012c       $pdata$??0BerconDistortion@@QEAA@XZ 000000018003f12c     BerconDistortion.obj
 0004:00000138       $pdata$??0BerconSC@@QEAA@QEAVShadeContext@@@Z 000000018003f138     BerconDistortion.obj
 0004:00000144       $pdata$??0TabOutOfRangeException@Util@MaxSDK@@QEAA@PEB_W@Z 000000018003f144     BerconDistortion.obj
 0004:00000150       $pdata$??0VertexNormalsControl@@QEAA@XZ 000000018003f150     BerconDistortion.obj
 0004:0000015c       $pdata$??0XYZ_Desc@@QEAA@PEAVClassDesc2@@HHHHHHH@Z 000000018003f15c     BerconDistortion.obj
 0004:00000168       $pdata$??1?$Tab@PEAVBaseInterface@@@@UEAA@XZ 000000018003f168     BerconDistortion.obj
 0004:00000174       $pdata$??1?$Tab@PEAVVertexNormalsCallback@@@@UEAA@XZ 000000018003f174     BerconDistortion.obj
 0004:00000180       $pdata$??1BerconSC@@UEAA@XZ 000000018003f180     BerconDistortion.obj
 0004:0000018c       $pdata$??1ShadeOutput@@UEAA@XZ 000000018003f18c     BerconDistortion.obj
 0004:0000018c       $pdata$??1RenderGlobalContext@@UEAA@XZ 000000018003f18c     BerconDistortion.obj
 0004:00000198       $pdata$??1ShadeContext@@UEAA@XZ 000000018003f198     BerconDistortion.obj
 0004:000001a4       $pdata$??1Texmap@@UEAA@XZ  000000018003f1a4     BerconDistortion.obj
 0004:000001b0       $pdata$??_G?$Tab@PEAVBaseInterface@@@@UEAAPEAXI@Z 000000018003f1b0     BerconDistortion.obj
 0004:000001bc       $pdata$??_G?$Tab@PEAVVertexNormalsCallback@@@@UEAAPEAXI@Z 000000018003f1bc     BerconDistortion.obj
 0004:000001c8       $pdata$??_GBaseInterfaceServer@@UEAAPEAXI@Z 000000018003f1c8     BerconDistortion.obj
 0004:000001d4       $pdata$??_GBerconDistortion@@UEAAPEAXI@Z 000000018003f1d4     BerconDistortion.obj
 0004:000001e0       $pdata$??_GBerconSC@@UEAAPEAXI@Z 000000018003f1e0     BerconDistortion.obj
 0004:000001ec       $pdata$??_GBerconWoodDlgProc@@UEAAPEAXI@Z 000000018003f1ec     BerconWood.obj
 0004:000001ec       $pdata$??_GBerconXYZDlgProc@@UEAAPEAXI@Z 000000018003f1ec     BerconDistortion.obj
 0004:000001ec       $pdata$??_GBerconTileDlgProc@@UEAAPEAXI@Z 000000018003f1ec     BerconTile.obj
 0004:000001ec       $pdata$??_GBerconNoiseDlgProc@@UEAAPEAXI@Z 000000018003f1ec     BerconNoise.obj
 0004:000001f8       $pdata$??_GInterfaceServer@@UEAAPEAXI@Z 000000018003f1f8     BerconDistortion.obj
 0004:00000204       $pdata$??_GParamMap2UserDlgProc@@UEAAPEAXI@Z 000000018003f204     BerconDistortion.obj
 0004:00000210       $pdata$??_GRenderGlobalContext@@UEAAPEAXI@Z 000000018003f210     BerconDistortion.obj
 0004:0000021c       $pdata$??_GShadeContext@@UEAAPEAXI@Z 000000018003f21c     BerconDistortion.obj
 0004:00000228       $pdata$??_GShadeOutput@@UEAAPEAXI@Z 000000018003f228     BerconDistortion.obj
 0004:00000234       $pdata$?ActivateTexDisplay@BerconDistortion@@UEAAXH@Z 000000018003f234     BerconDistortion.obj
 0004:00000240       $pdata$?BarycentricCoords@BerconSC@@UEAA?AVPoint3@@XZ 000000018003f240     BerconDistortion.obj
 0004:0000024c       $pdata$?CamPos@BerconSC@@UEAA?AVPoint3@@XZ 000000018003f24c     BerconDistortion.obj
 0004:00000258       $pdata$?Clone@BerconDistortion@@UEAAPEAVReferenceTarget@@AEAVRemapDir@@@Z 000000018003f258     BerconDistortion.obj
 0004:00000264       $pdata$?CreateParamDlg@BerconDistortion@@UEAAPEAVParamDlg@@PEAUHWND__@@PEAVIMtlParams@@@Z 000000018003f264     BerconDistortion.obj
 0004:00000270       $pdata$?DP@BerconSC@@UEAA?AVPoint3@@XZ 000000018003f270     BerconDistortion.obj
 0004:0000027c       $pdata$?DPObj@BerconSC@@UEAA?AVPoint3@@XZ 000000018003f27c     BerconDistortion.obj
 0004:00000288       $pdata$?DPObjRelBox@BerconSC@@UEAA?AVPoint3@@XZ 000000018003f288     BerconDistortion.obj
 0004:00000294       $pdata$?DUVW@BerconSC@@UEAA?AVPoint3@@H@Z 000000018003f294     BerconDistortion.obj
 0004:000002a0       $pdata$?DiffuseIllum@BerconSC@@UEAA?AVColor@@XZ 000000018003f2a0     BerconDistortion.obj
 0004:000002ac       $pdata$?DlgProc@BerconXYZDlgProc@@UEAA_JHPEAVIParamMap2@@PEAUHWND__@@I_K_J@Z 000000018003f2ac     BerconDistortion.obj
 0004:000002b8       $pdata$1$?DlgProc@BerconXYZDlgProc@@UEAA_JHPEAVIParamMap2@@PEAUHWND__@@I_K_J@Z 000000018003f2b8     BerconDistortion.obj
 0004:000002c4       $pdata$?EvalColor@BerconDistortion@@UEAA?AVAColor@@AEAVShadeContext@@@Z 000000018003f2c4     BerconDistortion.obj
 0004:000002d0       $pdata$?EvalEnvironMap@BerconSC@@UEAA?AVAColor@@PEAVTexmap@@VPoint3@@@Z 000000018003f2d0     BerconDistortion.obj
 0004:000002dc       $pdata$?EvalGlobalEnvironMap@BerconSC@@UEAA?AVAColor@@VPoint3@@@Z 000000018003f2dc     BerconDistortion.obj
 0004:000002e8       $pdata$?EvalMono@BerconDistortion@@UEAAMAEAVShadeContext@@@Z 000000018003f2e8     BerconDistortion.obj
 0004:000002f4       $pdata$?EvalNormalPerturb@BerconDistortion@@UEAA?AVPoint3@@AEAVShadeContext@@@Z 000000018003f2f4     BerconDistortion.obj
 0004:00000300       $pdata$?GNormal@BerconSC@@UEAA?AVPoint3@@XZ 000000018003f300     BerconDistortion.obj
 0004:0000030c       $pdata$?GetActiveTexHandle@BerconDistortion@@UEAA_KHAEAVTexHandleMaker@@@Z 000000018003f30c     BerconDistortion.obj
 0004:00000318       $pdata$0$?GetActiveTexHandle@BerconDistortion@@UEAA_KHAEAVTexHandleMaker@@@Z 000000018003f318     BerconDistortion.obj
 0004:00000324       $pdata$1$?GetActiveTexHandle@BerconDistortion@@UEAA_KHAEAVTexHandleMaker@@@Z 000000018003f324     BerconDistortion.obj
 0004:00000330       $pdata$?GetClassName@BerconDistortion@@UEAAXAEAVWStr@@@Z 000000018003f330     BerconDistortion.obj
 0004:0000033c       $pdata$?GetInterface@MtlBase@@UEAAPEAVBaseInterface@@VInterface_ID@@@Z 000000018003f33c     BerconDistortion.obj
 0004:00000348       $pdata$?GetParamBlockByID@BerconDistortion@@UEAAPEAVIParamBlock2@@F@Z 000000018003f348     BerconDistortion.obj
 0004:00000354       $pdata$?GetSubTexmapSlotName@BerconDistortion@@UEAA?AVWStr@@H@Z 000000018003f354     BerconDistortion.obj
 0004:00000360       $pdata$?IsSubClassOf@Animatable@@UEAAHVClass_ID@@@Z 000000018003f360     BerconDistortion.obj
 0004:0000036c       $pdata$?Normal@BerconSC@@UEAA?AVPoint3@@XZ 000000018003f36c     BerconDistortion.obj
 0004:00000378       $pdata$?NotifyDependents@ReferenceMaker@@EEAA?AW4RefResult@@AEBVInterval@@_KIKHPEAVReferenceTarget@@@Z 000000018003f378     BerconDistortion.obj
 0004:00000384       $pdata$?NotifyForeground@ReferenceTarget@@UEAAXH@Z 000000018003f384     BerconDistortion.obj
 0004:00000390       $pdata$?NotifyRefChanged@BerconDistortion@@UEAA?AW4RefResult@@AEBVInterval@@PEAVReferenceTarget@@AEA_KIH@Z 000000018003f390     BerconDistortion.obj
 0004:0000039c       $pdata$0$?NotifyRefChanged@BerconDistortion@@UEAA?AW4RefResult@@AEBVInterval@@PEAVReferenceTarget@@AEA_KIH@Z 000000018003f39c     BerconDistortion.obj
 0004:000003a8       $pdata$1$?NotifyRefChanged@BerconDistortion@@UEAA?AW4RefResult@@AEBVInterval@@PEAVReferenceTarget@@AEA_KIH@Z 000000018003f3a8     BerconDistortion.obj
 0004:000003b4       $pdata$?ObjectBox@BerconSC@@UEAA?AVBox3@@XZ 000000018003f3b4     BerconDistortion.obj
 0004:000003c0       $pdata$?OrigNormal@BerconSC@@UEAA?AVPoint3@@XZ 000000018003f3c0     BerconDistortion.obj
 0004:000003cc       $pdata$?OrigNormal@ShadeContext@@UEAA?AVPoint3@@XZ 000000018003f3cc     BerconDistortion.obj
 0004:000003d8       $pdata$?OrigView@BerconSC@@UEAA?AVPoint3@@XZ 000000018003f3d8     BerconDistortion.obj
 0004:000003e4       $pdata$?OrigView@ShadeContext@@UEAA?AVPoint3@@XZ 000000018003f3e4     BerconDistortion.obj
 0004:000003f0       $pdata$?P@BerconSC@@UEAA?AVPoint3@@XZ 000000018003f3f0     BerconDistortion.obj
 0004:000003fc       $pdata$?PObj@BerconSC@@UEAA?AVPoint3@@XZ 000000018003f3fc     BerconDistortion.obj
 0004:00000408       $pdata$?PObjRelBox@BerconSC@@UEAA?AVPoint3@@XZ 000000018003f408     BerconDistortion.obj
 0004:00000414       $pdata$?PointFrom@BerconSC@@UEAA?AVPoint3@@AEBV2@W4RefFrame@@@Z 000000018003f414     BerconDistortion.obj
 0004:00000420       $pdata$?PointTo@BerconSC@@UEAA?AVPoint3@@AEBV2@W4RefFrame@@@Z 000000018003f420     BerconDistortion.obj
 0004:0000042c       $pdata$?RayDiam@ShadeContext@@UEAAMXZ 000000018003f42c     BerconDistortion.obj
 0004:00000438       $pdata$?ReflectVector@BerconSC@@UEAA?AVPoint3@@XZ 000000018003f438     BerconDistortion.obj
 0004:00000444       $pdata$?RefractVector@BerconSC@@UEAA?AVPoint3@@M@Z 000000018003f444     BerconDistortion.obj
 0004:00000450       $pdata$?Reset@BerconDistortion@@UEAAXXZ 000000018003f450     BerconDistortion.obj
 0004:0000045c       $pdata$?ScreenCoord@BerconSC@@UEAA?AVIPoint2@@XZ 000000018003f45c     BerconDistortion.obj
 0004:00000468       $pdata$?ScreenUV@BerconSC@@UEAAXAEAVPoint2@@0@Z 000000018003f468     BerconDistortion.obj
 0004:00000474       $pdata$?Set@BitArray@@QEAAXH@Z 000000018003f474     BerconDistortion.obj
 0004:00000480       $pdata$?SetNormal@BerconSC@@UEAAXVPoint3@@@Z 000000018003f480     BerconDistortion.obj
 0004:0000048c       $pdata$?SetSubTexmap@BerconDistortion@@UEAAXHPEAVTexmap@@@Z 000000018003f48c     BerconDistortion.obj
 0004:00000498       $pdata$?SetView@BerconSC@@UEAAXVPoint3@@@Z 000000018003f498     BerconDistortion.obj
 0004:000004a4       $pdata$?SubAnimName@BerconDistortion@@UEAA?AVWStr@@H@Z 000000018003f4a4     BerconDistortion.obj
 0004:000004b0       $pdata$?SurfacePtScreen@BerconSC@@UEAA?AVPoint2@@XZ 000000018003f4b0     BerconDistortion.obj
 0004:000004bc       $pdata$?UVW@BerconSC@@UEAA?AVPoint3@@H@Z 000000018003f4bc     BerconDistortion.obj
 0004:000004c8       $pdata$?UVWNormal@BerconSC@@UEAA?AVPoint3@@H@Z 000000018003f4c8     BerconDistortion.obj
 0004:000004d4       $pdata$?Update@BerconDistortion@@UEAAXHAEAVInterval@@@Z 000000018003f4d4     BerconDistortion.obj
 0004:000004e0       $pdata$0$?Update@BerconDistortion@@UEAAXHAEAVInterval@@@Z 000000018003f4e0     BerconDistortion.obj
 0004:000004ec       $pdata$2$?Update@BerconDistortion@@UEAAXHAEAVInterval@@@Z 000000018003f4ec     BerconDistortion.obj
 0004:000004f8       $pdata$3$?Update@BerconDistortion@@UEAAXHAEAVInterval@@@Z 000000018003f4f8     BerconDistortion.obj
 0004:00000504       $pdata$4$?Update@BerconDistortion@@UEAAXHAEAVInterval@@@Z 000000018003f504     BerconDistortion.obj
 0004:00000510       $pdata$?V@BerconSC@@UEAA?AVPoint3@@XZ 000000018003f510     BerconDistortion.obj
 0004:0000051c       $pdata$?Validity@BerconDistortion@@UEAA?AVInterval@@H@Z 000000018003f51c     BerconDistortion.obj
 0004:00000528       $pdata$?VectorFrom@BerconSC@@UEAA?AVPoint3@@AEBV2@W4RefFrame@@@Z 000000018003f528     BerconDistortion.obj
 0004:00000534       $pdata$?VectorFromNoScale@BerconSC@@UEAA?AVPoint3@@AEBV2@W4RefFrame@@@Z 000000018003f534     BerconDistortion.obj
 0004:00000540       $pdata$?VectorTo@BerconSC@@UEAA?AVPoint3@@AEBV2@W4RefFrame@@@Z 000000018003f540     BerconDistortion.obj
 0004:0000054c       $pdata$?VectorToNoScale@BerconSC@@UEAA?AVPoint3@@AEBV2@W4RefFrame@@@Z 000000018003f54c     BerconDistortion.obj
 0004:00000558       $pdata$?getDistVector@BerconDistortion@@QEAA?AVPoint3@@AEAVShadeContext@@@Z 000000018003f558     BerconDistortion.obj
 0004:00000564       $pdata$2$?getDistVector@BerconDistortion@@QEAA?AVPoint3@@AEAVShadeContext@@@Z 000000018003f564     BerconDistortion.obj
 0004:00000570       $pdata$3$?getDistVector@BerconDistortion@@QEAA?AVPoint3@@AEAVShadeContext@@@Z 000000018003f570     BerconDistortion.obj
 0004:0000057c       $pdata$?Create@BerconGradientClassDesc@@UEAAPEAXH@Z 000000018003f57c     BerconGradient.obj
 0004:00000588       $pdata$??_GBerconNoiseClassDesc@@UEAAPEAXI@Z 000000018003f588     BerconNoise.obj
 0004:00000588       $pdata$??_GBerconWoodClassDesc@@UEAAPEAXI@Z 000000018003f588     BerconWood.obj
 0004:00000588       $pdata$??_GBerconGradientClassDesc@@UEAAPEAXI@Z 000000018003f588     BerconGradient.obj
 0004:00000594       $pdata$??0BerconGradient@@QEAA@XZ 000000018003f594     BerconGradient.obj
 0004:000005a0       $pdata$??1ICustomControl@@UEAA@XZ 000000018003f5a0     BerconGradient.obj
 0004:000005ac       $pdata$??_GBerconGradient@@UEAAPEAXI@Z 000000018003f5ac     BerconGradient.obj
 0004:000005b8       $pdata$??_GBerconGradientDlgProc@@UEAAPEAXI@Z 000000018003f5b8     BerconGradient.obj
 0004:000005c4       $pdata$??_GICustomControl@@UEAAPEAXI@Z 000000018003f5c4     BerconGradient.obj
 0004:000005d0       $pdata$??_GIGradient@@UEAAPEAXI@Z 000000018003f5d0     BerconGradient.obj
 0004:000005dc       $pdata$?ActivateTexDisplay@BerconGradient@@UEAAXH@Z 000000018003f5dc     BerconGradient.obj
 0004:000005e8       $pdata$?Clone@BerconGradient@@UEAAPEAVReferenceTarget@@AEAVRemapDir@@@Z 000000018003f5e8     BerconGradient.obj
 0004:000005f4       $pdata$?CreateParamDlg@BerconGradient@@UEAAPEAVParamDlg@@PEAUHWND__@@PEAVIMtlParams@@@Z 000000018003f5f4     BerconGradient.obj
 0004:00000600       $pdata$?DiscardTexHandle@BerconGradient@@QEAAXXZ 000000018003f600     BerconGradient.obj
 0004:0000060c       $pdata$?DlgProc@BerconGradientDlgProc@@UEAA_JHPEAVIParamMap2@@PEAUHWND__@@I_K_J@Z 000000018003f60c     BerconGradient.obj
 0004:00000618       $pdata$?EnableStuff@BerconGradient@@QEAAXXZ 000000018003f618     BerconGradient.obj
 0004:00000624       $pdata$0$?EnableStuff@BerconGradient@@QEAAXXZ 000000018003f624     BerconGradient.obj
 0004:00000630       $pdata$2$?EnableStuff@BerconGradient@@QEAAXXZ 000000018003f630     BerconGradient.obj
 0004:0000063c       $pdata$6$?EnableStuff@BerconGradient@@QEAAXXZ 000000018003f63c     BerconGradient.obj
 0004:00000648       $pdata$7$?EnableStuff@BerconGradient@@QEAAXXZ 000000018003f648     BerconGradient.obj
 0004:00000654       $pdata$8$?EnableStuff@BerconGradient@@QEAAXXZ 000000018003f654     BerconGradient.obj
 0004:00000660       $pdata$9$?EnableStuff@BerconGradient@@QEAAXXZ 000000018003f660     BerconGradient.obj
 0004:0000066c       $pdata$10$?EnableStuff@BerconGradient@@QEAAXXZ 000000018003f66c     BerconGradient.obj
 0004:00000678       $pdata$?EvalColor@BerconGradient@@UEAA?AVAColor@@AEAVShadeContext@@@Z 000000018003f678     BerconGradient.obj
 0004:00000684       $pdata$?EvalMono@BerconNoise@@UEAAMAEAVShadeContext@@@Z 000000018003f684     BerconNoise.obj
 0004:00000684       $pdata$?EvalMono@BerconTile@@UEAAMAEAVShadeContext@@@Z 000000018003f684     BerconTile.obj
 0004:00000684       $pdata$?EvalMono@BerconWood@@UEAAMAEAVShadeContext@@@Z 000000018003f684     BerconWood.obj
 0004:00000684       $pdata$?EvalMono@BerconGradient@@UEAAMAEAVShadeContext@@@Z 000000018003f684     BerconGradient.obj
 0004:00000690       $pdata$?EvalNormalPerturb@BerconGradient@@UEAA?AVPoint3@@AEAVShadeContext@@@Z 000000018003f690     BerconGradient.obj
 0004:0000069c       $pdata$0$?EvalNormalPerturb@BerconGradient@@UEAA?AVPoint3@@AEAVShadeContext@@@Z 000000018003f69c     BerconGradient.obj
 0004:000006a8       $pdata$1$?EvalNormalPerturb@BerconGradient@@UEAA?AVPoint3@@AEAVShadeContext@@@Z 000000018003f6a8     BerconGradient.obj
 0004:000006b4       $pdata$?GetActiveTexHandle@BerconGradient@@UEAA_KHAEAVTexHandleMaker@@@Z 000000018003f6b4     BerconGradient.obj
 0004:000006c0       $pdata$0$?GetActiveTexHandle@BerconGradient@@UEAA_KHAEAVTexHandleMaker@@@Z 000000018003f6c0     BerconGradient.obj
 0004:000006cc       $pdata$1$?GetActiveTexHandle@BerconGradient@@UEAA_KHAEAVTexHandleMaker@@@Z 000000018003f6cc     BerconGradient.obj
 0004:000006d8       $pdata$?GetClassName@BerconGradient@@UEAAXAEAVWStr@@@Z 000000018003f6d8     BerconGradient.obj
 0004:000006e4       $pdata$?GetParamBlockByID@BerconGradient@@UEAAPEAVIParamBlock2@@F@Z 000000018003f6e4     BerconGradient.obj
 0004:000006f0       $pdata$?GetSubTexmapSlotName@BerconGradient@@UEAA?AVWStr@@H@Z 000000018003f6f0     BerconGradient.obj
 0004:000006fc       $pdata$?NotifyRefChanged@BerconGradient@@UEAA?AW4RefResult@@AEBVInterval@@PEAVReferenceTarget@@AEA_KIH@Z 000000018003f6fc     BerconGradient.obj
 0004:00000708       $pdata$0$?NotifyRefChanged@BerconGradient@@UEAA?AW4RefResult@@AEBVInterval@@PEAVReferenceTarget@@AEA_KIH@Z 000000018003f708     BerconGradient.obj
 0004:00000714       $pdata$2$?NotifyRefChanged@BerconGradient@@UEAA?AW4RefResult@@AEBVInterval@@PEAVReferenceTarget@@AEA_KIH@Z 000000018003f714     BerconGradient.obj
 0004:00000720       $pdata$3$?NotifyRefChanged@BerconGradient@@UEAA?AW4RefResult@@AEBVInterval@@PEAVReferenceTarget@@AEA_KIH@Z 000000018003f720     BerconGradient.obj
 0004:0000072c       $pdata$?Reset@BerconGradient@@UEAAXXZ 000000018003f72c     BerconGradient.obj
 0004:00000738       $pdata$?SetDlgThing@BerconGradient@@UEAAHPEAVParamDlg@@@Z 000000018003f738     BerconGradient.obj
 0004:00000744       $pdata$?SetReference@BerconGradient@@EEAAXHPEAVReferenceTarget@@@Z 000000018003f744     BerconGradient.obj
 0004:00000750       $pdata$?SetSubTexmap@BerconGradient@@UEAAXHPEAVTexmap@@@Z 000000018003f750     BerconGradient.obj
 0004:0000075c       $pdata$?SetThing@BerconGradientDlgProc@@UEAAXPEAVReferenceTarget@@@Z 000000018003f75c     BerconGradient.obj
 0004:00000768       $pdata$?SubAnimName@BerconGradient@@UEAA?AVWStr@@H@Z 000000018003f768     BerconGradient.obj
 0004:00000774       $pdata$?Update@BerconGradient@@UEAAXHAEAVInterval@@@Z 000000018003f774     BerconGradient.obj
 0004:00000780       $pdata$0$?Update@BerconGradient@@UEAAXHAEAVInterval@@@Z 000000018003f780     BerconGradient.obj
 0004:0000078c       $pdata$4$?Update@BerconGradient@@UEAAXHAEAVInterval@@@Z 000000018003f78c     BerconGradient.obj
 0004:00000798       $pdata$5$?Update@BerconGradient@@UEAAXHAEAVInterval@@@Z 000000018003f798     BerconGradient.obj
 0004:000007a4       $pdata$6$?Update@BerconGradient@@UEAAXHAEAVInterval@@@Z 000000018003f7a4     BerconGradient.obj
 0004:000007b0       $pdata$7$?Update@BerconGradient@@UEAAXHAEAVInterval@@@Z 000000018003f7b0     BerconGradient.obj
 0004:000007bc       $pdata$8$?Update@BerconGradient@@UEAAXHAEAVInterval@@@Z 000000018003f7bc     BerconGradient.obj
 0004:000007c8       $pdata$9$?Update@BerconGradient@@UEAAXHAEAVInterval@@@Z 000000018003f7c8     BerconGradient.obj
 0004:000007d4       $pdata$?Validity@BerconGradient@@UEAA?AVInterval@@H@Z 000000018003f7d4     BerconGradient.obj
 0004:000007e0       $pdata$?countKeys@BerconGradient@@QEAAHXZ 000000018003f7e0     BerconGradient.obj
 0004:000007ec       $pdata$?getGradientValue@BerconGradient@@QEAAMAEAVShadeContext@@@Z 000000018003f7ec     BerconGradient.obj
 0004:000007f8       $pdata$3$?getGradientValue@BerconGradient@@QEAAMAEAVShadeContext@@@Z 000000018003f7f8     BerconGradient.obj
 0004:00000804       $pdata$4$?getGradientValue@BerconGradient@@QEAAMAEAVShadeContext@@@Z 000000018003f804     BerconGradient.obj
 0004:00000810       $pdata$5$?getGradientValue@BerconGradient@@QEAAMAEAVShadeContext@@@Z 000000018003f810     BerconGradient.obj
 0004:0000081c       $pdata$6$?getGradientValue@BerconGradient@@QEAAMAEAVShadeContext@@@Z 000000018003f81c     BerconGradient.obj
 0004:00000828       $pdata$?getGradientValueDist@BerconGradient@@QEAAMAEAVShadeContext@@@Z 000000018003f828     BerconGradient.obj
 0004:00000834       $pdata$2$?getGradientValueDist@BerconGradient@@QEAAMAEAVShadeContext@@@Z 000000018003f834     BerconGradient.obj
 0004:00000840       $pdata$3$?getGradientValueDist@BerconGradient@@QEAAMAEAVShadeContext@@@Z 000000018003f840     BerconGradient.obj
 0004:0000084c       $pdata$?getGradientValueNormal@BerconGradient@@QEAAMAEAVShadeContext@@@Z 000000018003f84c     BerconGradient.obj
 0004:00000858       $pdata$?getGradientValueUVW@BerconGradient@@QEAAMVPoint3@@@Z 000000018003f858     BerconGradient.obj
 0004:00000864       $pdata$?gradAddKey@BerconGradient@@UEAAXM@Z 000000018003f864     BerconGradient.obj
 0004:00000870       $pdata$1$?gradAddKey@BerconGradient@@UEAAXM@Z 000000018003f870     BerconGradient.obj
 0004:0000087c       $pdata$2$?gradAddKey@BerconGradient@@UEAAXM@Z 000000018003f87c     BerconGradient.obj
 0004:00000888       $pdata$?gradDelKey@BerconGradient@@UEAAXH@Z 000000018003f888     BerconGradient.obj
 0004:00000894       $pdata$0$?gradDelKey@BerconGradient@@UEAAXH@Z 000000018003f894     BerconGradient.obj
 0004:000008a0       $pdata$1$?gradDelKey@BerconGradient@@UEAAXH@Z 000000018003f8a0     BerconGradient.obj
 0004:000008ac       $pdata$?gradMoveKey@BerconGradient@@UEAAXHM@Z 000000018003f8ac     BerconGradient.obj
 0004:000008b8       $pdata$?gradSelKey@BerconGradient@@UEAAXXZ 000000018003f8b8     BerconGradient.obj
 0004:000008c4       $pdata$1$?gradSelKey@BerconGradient@@UEAAXXZ 000000018003f8c4     BerconGradient.obj
 0004:000008d0       $pdata$2$?gradSelKey@BerconGradient@@UEAAXXZ 000000018003f8d0     BerconGradient.obj
 0004:000008dc       $pdata$?keyNumChanged@BerconGradient@@QEAAXH@Z 000000018003f8dc     BerconGradient.obj
 0004:000008e8       $pdata$?keyPosChanged@BerconGradient@@QEAAXM@Z 000000018003f8e8     BerconGradient.obj
 0004:000008f4       $pdata$0$?keyPosChanged@BerconGradient@@QEAAXM@Z 000000018003f8f4     BerconGradient.obj
 0004:00000900       $pdata$1$?keyPosChanged@BerconGradient@@QEAAXM@Z 000000018003f900     BerconGradient.obj
 0004:0000090c       $pdata$?resetKeys@BerconGradient@@QEAAXXZ 000000018003f90c     BerconGradient.obj
 0004:00000918       $pdata$?Create@BerconTileClassDesc@@UEAAPEAXH@Z 000000018003f918     BerconTile.obj
 0004:00000924       $pdata$??_GBerconTileClassDesc@@UEAAPEAXI@Z 000000018003f924     BerconTile.obj
 0004:00000930       $pdata$??0BerconTile@@QEAA@XZ 000000018003f930     BerconTile.obj
 0004:0000093c       $pdata$??1?$basic_string@_WU?$char_traits@_W@std@@V?$allocator@_W@2@@std@@QEAA@XZ 000000018003f93c     BerconTile.obj
 0004:00000948       $pdata$??1?$vector@MV?$allocator@M@std@@@std@@QEAA@XZ 000000018003f948     BerconTile.obj
 0004:00000954       $pdata$??1?$vector@VTileRow@@V?$allocator@VTileRow@@@std@@@std@@QEAA@XZ 000000018003f954     BerconTile.obj
 0004:00000960       $pdata$??1TilePattern@@QEAA@XZ 000000018003f960     BerconTile.obj
 0004:0000096c       $pdata$??_GBerconTile@@UEAAPEAXI@Z 000000018003f96c     BerconTile.obj
 0004:00000978       $pdata$?ActivateTexDisplay@BerconTile@@UEAAXH@Z 000000018003f978     BerconTile.obj
 0004:00000984       $pdata$?Clone@BerconTile@@UEAAPEAVReferenceTarget@@AEAVRemapDir@@@Z 000000018003f984     BerconTile.obj
 0004:00000990       $pdata$?CreateParamDlg@BerconTile@@UEAAPEAVParamDlg@@PEAUHWND__@@PEAVIMtlParams@@@Z 000000018003f990     BerconTile.obj
 0004:0000099c       $pdata$?DiscardTexHandle@BerconTile@@QEAAXXZ 000000018003f99c     BerconTile.obj
 0004:000009a8       $pdata$?DlgProc@BerconTileDlgProc@@UEAA_JHPEAVIParamMap2@@PEAUHWND__@@I_K_J@Z 000000018003f9a8     BerconTile.obj
 0004:000009b4       $pdata$?EnableStuff@BerconTile@@QEAAXH@Z 000000018003f9b4     BerconTile.obj
 0004:000009c0       $pdata$0$?EnableStuff@BerconTile@@QEAAXH@Z 000000018003f9c0     BerconTile.obj
 0004:000009cc       $pdata$3$?EnableStuff@BerconTile@@QEAAXH@Z 000000018003f9cc     BerconTile.obj
 0004:000009d8       $pdata$4$?EnableStuff@BerconTile@@QEAAXH@Z 000000018003f9d8     BerconTile.obj
 0004:000009e4       $pdata$5$?EnableStuff@BerconTile@@QEAAXH@Z 000000018003f9e4     BerconTile.obj
 0004:000009f0       $pdata$?EvalColor@BerconTile@@UEAA?AVAColor@@AEAVShadeContext@@@Z 000000018003f9f0     BerconTile.obj
 0004:000009fc       $pdata$?EvalNormalPerturb@BerconTile@@UEAA?AVPoint3@@AEAVShadeContext@@@Z 000000018003f9fc     BerconTile.obj
 0004:00000a08       $pdata$?EvalParameters@BerconTile@@QEAA?AVTileParam@@AEAVShadeContext@@@Z 000000018003fa08     BerconTile.obj
 0004:00000a14       $pdata$?GetActiveTexHandle@BerconTile@@UEAA_KHAEAVTexHandleMaker@@@Z 000000018003fa14     BerconTile.obj
 0004:00000a20       $pdata$0$?GetActiveTexHandle@BerconTile@@UEAA_KHAEAVTexHandleMaker@@@Z 000000018003fa20     BerconTile.obj
 0004:00000a2c       $pdata$1$?GetActiveTexHandle@BerconTile@@UEAA_KHAEAVTexHandleMaker@@@Z 000000018003fa2c     BerconTile.obj
 0004:00000a38       $pdata$?GetClassName@BerconTile@@UEAAXAEAVWStr@@@Z 000000018003fa38     BerconTile.obj
 0004:00000a44       $pdata$?GetParamBlockByID@BerconTile@@UEAAPEAVIParamBlock2@@F@Z 000000018003fa44     BerconTile.obj
 0004:00000a50       $pdata$?GetSubTexmapSlotName@BerconTile@@UEAA?AVWStr@@H@Z 000000018003fa50     BerconTile.obj
 0004:00000a5c       $pdata$?NotifyRefChanged@BerconTile@@UEAA?AW4RefResult@@AEBVInterval@@PEAVReferenceTarget@@AEA_KIH@Z 000000018003fa5c     BerconTile.obj
 0004:00000a68       $pdata$0$?NotifyRefChanged@BerconTile@@UEAA?AW4RefResult@@AEBVInterval@@PEAVReferenceTarget@@AEA_KIH@Z 000000018003fa68     BerconTile.obj
 0004:00000a74       $pdata$2$?NotifyRefChanged@BerconTile@@UEAA?AW4RefResult@@AEBVInterval@@PEAVReferenceTarget@@AEA_KIH@Z 000000018003fa74     BerconTile.obj
 0004:00000a80       $pdata$3$?NotifyRefChanged@BerconTile@@UEAA?AW4RefResult@@AEBVInterval@@PEAVReferenceTarget@@AEA_KIH@Z 000000018003fa80     BerconTile.obj
 0004:00000a8c       $pdata$?Reset@BerconTile@@UEAAXXZ 000000018003fa8c     BerconTile.obj
 0004:00000a98       $pdata$?SetDlgThing@BerconTile@@UEAAHPEAVParamDlg@@@Z 000000018003fa98     BerconTile.obj
 0004:00000aa4       $pdata$?SetSubTexmap@BerconTile@@UEAAXHPEAVTexmap@@@Z 000000018003faa4     BerconTile.obj
 0004:00000ab0       $pdata$?SetThing@BerconTileDlgProc@@UEAAXPEAVReferenceTarget@@@Z 000000018003fab0     BerconTile.obj
 0004:00000abc       $pdata$?SubAnimName@BerconTile@@UEAA?AVWStr@@H@Z 000000018003fabc     BerconTile.obj
 0004:00000ac8       $pdata$?Update@BerconTile@@UEAAXHAEAVInterval@@@Z 000000018003fac8     BerconTile.obj
 0004:00000ad4       $pdata$?Validity@BerconTile@@UEAA?AVInterval@@H@Z 000000018003fad4     BerconTile.obj
 0004:00000ae0       $pdata$?_Tidy_deallocate@?$basic_string@_WU?$char_traits@_W@std@@V?$allocator@_W@2@@std@@QEAAXXZ 000000018003fae0     BerconTile.obj
 0004:00000aec       $pdata$?_Xlen@?$basic_string@_WU?$char_traits@_W@std@@V?$allocator@_W@2@@std@@SAXXZ 000000018003faec     BerconTile.obj
 0004:00000af8       $pdata$?allocate@?$allocator@_W@std@@QEAAPEA_W_K@Z 000000018003faf8     BerconTile.obj
 0004:00000b04       $pdata$?assign@?$basic_string@_WU?$char_traits@_W@std@@V?$allocator@_W@2@@std@@QEAAAEAV12@QEB_W_K@Z 000000018003fb04     BerconTile.obj
 0004:00000b10       $pdata$?getColor@BerconTile@@QEAA?AVAColor@@AEAVShadeContext@@H@Z 000000018003fb10     BerconTile.obj
 0004:00000b1c       $pdata$?getDistVector@BerconTile@@QEAA?AVPoint3@@AEAVShadeContext@@@Z 000000018003fb1c     BerconTile.obj
 0004:00000b28       $pdata$0$?getDistVector@BerconTile@@QEAA?AVPoint3@@AEAVShadeContext@@@Z 000000018003fb28     BerconTile.obj
 0004:00000b34       $pdata$3$?getDistVector@BerconTile@@QEAA?AVPoint3@@AEAVShadeContext@@@Z 000000018003fb34     BerconTile.obj
 0004:00000b40       $pdata$4$?getDistVector@BerconTile@@QEAA?AVPoint3@@AEAVShadeContext@@@Z 000000018003fb40     BerconTile.obj
 0004:00000b4c       $pdata$6$?getDistVector@BerconTile@@QEAA?AVPoint3@@AEAVShadeContext@@@Z 000000018003fb4c     BerconTile.obj
 0004:00000b58       $pdata$7$?getDistVector@BerconTile@@QEAA?AVPoint3@@AEAVShadeContext@@@Z 000000018003fb58     BerconTile.obj
 0004:00000b64       $pdata$?getNormal@BerconTile@@QEAA?AVPoint3@@AEAVShadeContext@@H@Z 000000018003fb64     BerconTile.obj
 0004:00000b70       $pdata$?setSpinnerType@@YAXPEAVIParamMap2@@HHHHH_N@Z 000000018003fb70     BerconTile.obj
 0004:00000b70       $pdata$?setSpinnerType@@YAXPEAVIParamMap2@@HHHHH_N@Z 000000018003fb70     BerconCommon.obj
 0004:00000b7c       $pdata$1$?setSpinnerType@@YAXPEAVIParamMap2@@HHHHH_N@Z 000000018003fb7c     BerconTile.obj
 0004:00000b7c       $pdata$1$?setSpinnerType@@YAXPEAVIParamMap2@@HHHHH_N@Z 000000018003fb7c     BerconCommon.obj
 0004:00000b88       $pdata$2$?setSpinnerType@@YAXPEAVIParamMap2@@HHHHH_N@Z 000000018003fb88     BerconTile.obj
 0004:00000b88       $pdata$2$?setSpinnerType@@YAXPEAVIParamMap2@@HHHHH_N@Z 000000018003fb88     BerconCommon.obj
 0004:00000b94       $pdata$?Create@BerconWoodClassDesc@@UEAAPEAXH@Z 000000018003fb94     BerconWood.obj
 0004:00000ba0       $pdata$??0BerconWood@@QEAA@XZ 000000018003fba0     BerconWood.obj
 0004:00000bac       $pdata$??_GBerconWood@@UEAAPEAXI@Z 000000018003fbac     BerconWood.obj
 0004:00000bb8       $pdata$?ActivateTexDisplay@BerconWood@@UEAAXH@Z 000000018003fbb8     BerconWood.obj
 0004:00000bc4       $pdata$?Clone@BerconWood@@UEAAPEAVReferenceTarget@@AEAVRemapDir@@@Z 000000018003fbc4     BerconWood.obj
 0004:00000bd0       $pdata$?CreateParamDlg@BerconWood@@UEAAPEAVParamDlg@@PEAUHWND__@@PEAVIMtlParams@@@Z 000000018003fbd0     BerconWood.obj
 0004:00000bdc       $pdata$?DiscardTexHandle@BerconWood@@QEAAXXZ 000000018003fbdc     BerconWood.obj
 0004:00000be8       $pdata$?DlgProc@BerconWoodDlgProc@@UEAA_JHPEAVIParamMap2@@PEAUHWND__@@I_K_J@Z 000000018003fbe8     BerconWood.obj
 0004:00000bf4       $pdata$?EnableStuff@BerconWood@@QEAAXXZ 000000018003fbf4     BerconWood.obj
 0004:00000c00       $pdata$0$?EnableStuff@BerconWood@@QEAAXXZ 000000018003fc00     BerconWood.obj
 0004:00000c0c       $pdata$4$?EnableStuff@BerconWood@@QEAAXXZ 000000018003fc0c     BerconWood.obj
 0004:00000c18       $pdata$5$?EnableStuff@BerconWood@@QEAAXXZ 000000018003fc18     BerconWood.obj
 0004:00000c24       $pdata$6$?EnableStuff@BerconWood@@QEAAXXZ 000000018003fc24     BerconWood.obj
 0004:00000c30       $pdata$?EvalColor@BerconWood@@UEAA?AVAColor@@AEAVShadeContext@@@Z 000000018003fc30     BerconWood.obj
 0004:00000c3c       $pdata$5$?EvalColor@BerconWood@@UEAA?AVAColor@@AEAVShadeContext@@@Z 000000018003fc3c     BerconWood.obj
 0004:00000c48       $pdata$6$?EvalColor@BerconWood@@UEAA?AVAColor@@AEAVShadeContext@@@Z 000000018003fc48     BerconWood.obj
 0004:00000c54       $pdata$?EvalNormalPerturb@BerconWood@@UEAA?AVPoint3@@AEAVShadeContext@@@Z 000000018003fc54     BerconWood.obj
 0004:00000c60       $pdata$8$?EvalNormalPerturb@BerconWood@@UEAA?AVPoint3@@AEAVShadeContext@@@Z 000000018003fc60     BerconWood.obj
 0004:00000c6c       $pdata$9$?EvalNormalPerturb@BerconWood@@UEAA?AVPoint3@@AEAVShadeContext@@@Z 000000018003fc6c     BerconWood.obj
 0004:00000c78       $pdata$12$?EvalNormalPerturb@BerconWood@@UEAA?AVPoint3@@AEAVShadeContext@@@Z 000000018003fc78     BerconWood.obj
 0004:00000c84       $pdata$13$?EvalNormalPerturb@BerconWood@@UEAA?AVPoint3@@AEAVShadeContext@@@Z 000000018003fc84     BerconWood.obj
 0004:00000c90       $pdata$?EvalParameters@BerconWood@@QEAA?AVWoodParam@@AEAVShadeContext@@@Z 000000018003fc90     BerconWood.obj
 0004:00000c9c       $pdata$?GetActiveTexHandle@BerconWood@@UEAA_KHAEAVTexHandleMaker@@@Z 000000018003fc9c     BerconWood.obj
 0004:00000ca8       $pdata$0$?GetActiveTexHandle@BerconWood@@UEAA_KHAEAVTexHandleMaker@@@Z 000000018003fca8     BerconWood.obj
 0004:00000cb4       $pdata$1$?GetActiveTexHandle@BerconWood@@UEAA_KHAEAVTexHandleMaker@@@Z 000000018003fcb4     BerconWood.obj
 0004:00000cc0       $pdata$?GetClassName@BerconWood@@UEAAXAEAVWStr@@@Z 000000018003fcc0     BerconWood.obj
 0004:00000ccc       $pdata$?GetParamBlockByID@BerconWood@@UEAAPEAVIParamBlock2@@F@Z 000000018003fccc     BerconWood.obj
 0004:00000cd8       $pdata$?GetSubTexmapSlotName@BerconWood@@UEAA?AVWStr@@H@Z 000000018003fcd8     BerconWood.obj
 0004:00000ce4       $pdata$?NotifyRefChanged@BerconWood@@UEAA?AW4RefResult@@AEBVInterval@@PEAVReferenceTarget@@AEA_KIH@Z 000000018003fce4     BerconWood.obj
 0004:00000cf0       $pdata$0$?NotifyRefChanged@BerconWood@@UEAA?AW4RefResult@@AEBVInterval@@PEAVReferenceTarget@@AEA_KIH@Z 000000018003fcf0     BerconWood.obj
 0004:00000cfc       $pdata$2$?NotifyRefChanged@BerconWood@@UEAA?AW4RefResult@@AEBVInterval@@PEAVReferenceTarget@@AEA_KIH@Z 000000018003fcfc     BerconWood.obj
 0004:00000d08       $pdata$3$?NotifyRefChanged@BerconWood@@UEAA?AW4RefResult@@AEBVInterval@@PEAVReferenceTarget@@AEA_KIH@Z 000000018003fd08     BerconWood.obj
 0004:00000d14       $pdata$?Reset@BerconWood@@UEAAXXZ 000000018003fd14     BerconWood.obj
 0004:00000d20       $pdata$?SetDlgThing@BerconWood@@UEAAHPEAVParamDlg@@@Z 000000018003fd20     BerconWood.obj
 0004:00000d2c       $pdata$?SetSubTexmap@BerconWood@@UEAAXHPEAVTexmap@@@Z 000000018003fd2c     BerconWood.obj
 0004:00000d38       $pdata$?SubAnimName@BerconWood@@UEAA?AVWStr@@H@Z 000000018003fd38     BerconWood.obj
 0004:00000d44       $pdata$?Update@BerconWood@@UEAAXHAEAVInterval@@@Z 000000018003fd44     BerconWood.obj
 0004:00000d50       $pdata$0$?Update@BerconWood@@UEAAXHAEAVInterval@@@Z 000000018003fd50     BerconWood.obj
 0004:00000d5c       $pdata$4$?Update@BerconWood@@UEAAXHAEAVInterval@@@Z 000000018003fd5c     BerconWood.obj
 0004:00000d68       $pdata$5$?Update@BerconWood@@UEAAXHAEAVInterval@@@Z 000000018003fd68     BerconWood.obj
 0004:00000d74       $pdata$6$?Update@BerconWood@@UEAAXHAEAVInterval@@@Z 000000018003fd74     BerconWood.obj
 0004:00000d80       $pdata$7$?Update@BerconWood@@UEAAXHAEAVInterval@@@Z 000000018003fd80     BerconWood.obj
 0004:00000d8c       $pdata$?Validity@BerconWood@@UEAA?AVInterval@@H@Z 000000018003fd8c     BerconWood.obj
 0004:00000d98       $pdata$?applyDistortion@BerconWood@@QEAAXAEAVShadeContext@@AEAVPoint3@@@Z 000000018003fd98     BerconWood.obj
 0004:00000da4       $pdata$0$?applyDistortion@BerconWood@@QEAAXAEAVShadeContext@@AEAVPoint3@@@Z 000000018003fda4     BerconWood.obj
 0004:00000db0       $pdata$3$?applyDistortion@BerconWood@@QEAAXAEAVShadeContext@@AEAVPoint3@@@Z 000000018003fdb0     BerconWood.obj
 0004:00000dbc       $pdata$4$?applyDistortion@BerconWood@@QEAAXAEAVShadeContext@@AEAVPoint3@@@Z 000000018003fdbc     BerconWood.obj
 0004:00000dc8       $pdata$5$?applyDistortion@BerconWood@@QEAAXAEAVShadeContext@@AEAVPoint3@@@Z 000000018003fdc8     BerconWood.obj
 0004:00000dd4       $pdata$?GetString@@YAPEA_WH@Z 000000018003fdd4     DllEntry.obj
 0004:00000de0       $pdata$0$?GetString@@YAPEA_WH@Z 000000018003fde0     DllEntry.obj
 0004:00000dec       $pdata$1$?GetString@@YAPEA_WH@Z 000000018003fdec     DllEntry.obj
 0004:00000df8       $pdata$?LibClassDesc@@YAPEAVClassDesc@@H@Z 000000018003fdf8     DllEntry.obj
 0004:00000e04       $pdata$?LibDescription@@YAPEB_WXZ 000000018003fe04     DllEntry.obj
 0004:00000e10       $pdata$0$?LibDescription@@YAPEB_WXZ 000000018003fe10     DllEntry.obj
 0004:00000e1c       $pdata$1$?LibDescription@@YAPEB_WXZ 000000018003fe1c     DllEntry.obj
 0004:00000e28       $pdata$CommctrlIsolationAwarePrivatetRgCebPnQQeRff_pbZPgYQP_QYY 000000018003fe28     DllEntry.obj
 0004:00000e34       $pdata$DllMain             000000018003fe34     DllEntry.obj
 0004:00000e40       $pdata$IsolationAwareInitCommonControls 000000018003fe40     DllEntry.obj
 0004:00000e4c       $pdata$IsolationAwarePrivatenPgViNgRzlnPgpgk 000000018003fe4c     DllEntry.obj
 0004:00000e58       $pdata$WinbaseIsolationAwarePrivatetRgzlnPgpgk 000000018003fe58     DllEntry.obj
 0004:00000e64       $pdata$?EnableStuff@BerconXYZ@@AEAAXPEAVIParamBlock2@@H@Z 000000018003fe64     BerconCommon.obj
 0004:00000e70       $pdata$0$?EnableStuff@BerconXYZ@@AEAAXPEAVIParamBlock2@@H@Z 000000018003fe70     BerconCommon.obj
 0004:00000e7c       $pdata$2$?EnableStuff@BerconXYZ@@AEAAXPEAVIParamBlock2@@H@Z 000000018003fe7c     BerconCommon.obj
 0004:00000e88       $pdata$3$?EnableStuff@BerconXYZ@@AEAAXPEAVIParamBlock2@@H@Z 000000018003fe88     BerconCommon.obj
 0004:00000e94       $pdata$4$?EnableStuff@BerconXYZ@@AEAAXPEAVIParamBlock2@@H@Z 000000018003fe94     BerconCommon.obj
 0004:00000ea0       $pdata$?get@BerconXYZ@@AEAAHAEAVShadeContext@@AEAVPoint3@@11VMatrix3@@PEAH@Z 000000018003fea0     BerconCommon.obj
 0004:00000eac       $pdata$0$?get@BerconXYZ@@AEAAHAEAVShadeContext@@AEAVPoint3@@11VMatrix3@@PEAH@Z 000000018003feac     BerconCommon.obj
 0004:00000eb8       $pdata$1$?get@BerconXYZ@@AEAAHAEAVShadeContext@@AEAVPoint3@@11VMatrix3@@PEAH@Z 000000018003feb8     BerconCommon.obj
 0004:00000ec4       $pdata$?get@BerconXYZ@@AEAAHAEAVShadeContext@@AEAVPoint3@@VMatrix3@@PEAH@Z 000000018003fec4     BerconCommon.obj
 0004:00000ed0       $pdata$0$?get@BerconXYZ@@AEAAHAEAVShadeContext@@AEAVPoint3@@VMatrix3@@PEAH@Z 000000018003fed0     BerconCommon.obj
 0004:00000edc       $pdata$1$?get@BerconXYZ@@AEAAHAEAVShadeContext@@AEAVPoint3@@VMatrix3@@PEAH@Z 000000018003fedc     BerconCommon.obj
 0004:00000ee8       $pdata$?get@BerconXYZ@@QEAAHAEAVShadeContext@@AEAVPoint3@@11@Z 000000018003fee8     BerconCommon.obj
 0004:00000ef4       $pdata$?get@BerconXYZ@@QEAAHAEAVShadeContext@@AEAVPoint3@@11PEAV3@@Z 000000018003fef4     BerconCommon.obj
 0004:00000f00       $pdata$?get@BerconXYZ@@QEAAHAEAVShadeContext@@AEAVPoint3@@@Z 000000018003ff00     BerconCommon.obj
 0004:00000f0c       $pdata$?get@BerconXYZ@@QEAAHAEAVShadeContext@@AEAVPoint3@@PEAV3@@Z 000000018003ff0c     BerconCommon.obj
 0004:00000f18       $pdata$?getBasis@BerconXYZ@@AEAAXVMatrix3@@PEAVPoint3@@@Z 000000018003ff18     BerconCommon.obj
 0004:00000f24       $pdata$?random@BerconXYZ@@AEAA?AVMatrix3@@AEAVShadeContext@@PEAV2@@Z 000000018003ff24     BerconCommon.obj
 0004:00000f30       $pdata$2$?random@BerconXYZ@@AEAA?AVMatrix3@@AEAVShadeContext@@PEAV2@@Z 000000018003ff30     BerconCommon.obj
 0004:00000f3c       $pdata$3$?random@BerconXYZ@@AEAA?AVMatrix3@@AEAVShadeContext@@PEAV2@@Z 000000018003ff3c     BerconCommon.obj
 0004:00000f48       $pdata$4$?random@BerconXYZ@@AEAA?AVMatrix3@@AEAVShadeContext@@PEAV2@@Z 000000018003ff48     BerconCommon.obj
 0004:00000f54       $pdata$5$?random@BerconXYZ@@AEAA?AVMatrix3@@AEAVShadeContext@@PEAV2@@Z 000000018003ff54     BerconCommon.obj
 0004:00000f60       $pdata$6$?random@BerconXYZ@@AEAA?AVMatrix3@@AEAVShadeContext@@PEAV2@@Z 000000018003ff60     BerconCommon.obj
 0004:00000f6c       $pdata$7$?random@BerconXYZ@@AEAA?AVMatrix3@@AEAVShadeContext@@PEAV2@@Z 000000018003ff6c     BerconCommon.obj
 0004:00000f78       $pdata$8$?random@BerconXYZ@@AEAA?AVMatrix3@@AEAVShadeContext@@PEAV2@@Z 000000018003ff78     BerconCommon.obj
 0004:00000f84       $pdata$?reset@BerconXYZ@@QEAAXPEAVIParamBlock2@@AEAVInterval@@HHHH@Z 000000018003ff84     BerconCommon.obj
 0004:00000f90       $pdata$2$?reset@BerconXYZ@@QEAAXPEAVIParamBlock2@@AEAVInterval@@HHHH@Z 000000018003ff90     BerconCommon.obj
 0004:00000f9c       $pdata$3$?reset@BerconXYZ@@QEAAXPEAVIParamBlock2@@AEAVInterval@@HHHH@Z 000000018003ff9c     BerconCommon.obj
 0004:00000fa8       $pdata$?update@BerconXYZ@@QEAAXPEAVIParamBlock2@@HAEAVInterval@@@Z 000000018003ffa8     BerconCommon.obj
 0004:00000fb4       $pdata$3$?update@BerconXYZ@@QEAAXPEAVIParamBlock2@@HAEAVInterval@@@Z 000000018003ffb4     BerconCommon.obj
 0004:00000fc0       $pdata$4$?update@BerconXYZ@@QEAAXPEAVIParamBlock2@@HAEAVInterval@@@Z 000000018003ffc0     BerconCommon.obj
 0004:00000fcc       $pdata$?update@BerconXYZ@@QEAAXXZ 000000018003ffcc     BerconCommon.obj
 0004:00000fd8       $pdata$?Create@BerconNoiseClassDesc@@UEAAPEAXH@Z 000000018003ffd8     BerconNoise.obj
 0004:00000fe4       $pdata$??0BerconNoise@@QEAA@XZ 000000018003ffe4     BerconNoise.obj
 0004:00000ff0       $pdata$??_GBerconNoise@@UEAAPEAXI@Z 000000018003fff0     BerconNoise.obj
 0004:00000ffc       $pdata$?ActivateTexDisplay@BerconNoise@@UEAAXH@Z 000000018003fffc     BerconNoise.obj
 0004:00001008       $pdata$?Clone@BerconNoise@@UEAAPEAVReferenceTarget@@AEAVRemapDir@@@Z 0000000180040008     BerconNoise.obj
 0004:00001014       $pdata$?CreateParamDlg@BerconNoise@@UEAAPEAVParamDlg@@PEAUHWND__@@PEAVIMtlParams@@@Z 0000000180040014     BerconNoise.obj
 0004:00001020       $pdata$?DiscardTexHandle@BerconNoise@@QEAAXXZ 0000000180040020     BerconNoise.obj
 0004:0000102c       $pdata$?DlgProc@BerconNoiseDlgProc@@UEAA_JHPEAVIParamMap2@@PEAUHWND__@@I_K_J@Z 000000018004002c     BerconNoise.obj
 0004:00001038       $pdata$?EnableStuff@BerconNoise@@QEAAXXZ 0000000180040038     BerconNoise.obj
 0004:00001044       $pdata$0$?EnableStuff@BerconNoise@@QEAAXXZ 0000000180040044     BerconNoise.obj
 0004:00001050       $pdata$5$?EnableStuff@BerconNoise@@QEAAXXZ 0000000180040050     BerconNoise.obj
 0004:0000105c       $pdata$6$?EnableStuff@BerconNoise@@QEAAXXZ 000000018004005c     BerconNoise.obj
 0004:00001068       $pdata$7$?EnableStuff@BerconNoise@@QEAAXXZ 0000000180040068     BerconNoise.obj
 0004:00001074       $pdata$8$?EnableStuff@BerconNoise@@QEAAXXZ 0000000180040074     BerconNoise.obj
 0004:00001080       $pdata$?EvalColor@BerconNoise@@UEAA?AVAColor@@AEAVShadeContext@@@Z 0000000180040080     BerconNoise.obj
 0004:0000108c       $pdata$0$?EvalColor@BerconNoise@@UEAA?AVAColor@@AEAVShadeContext@@@Z 000000018004008c     BerconNoise.obj
 0004:00001098       $pdata$4$?EvalColor@BerconNoise@@UEAA?AVAColor@@AEAVShadeContext@@@Z 0000000180040098     BerconNoise.obj
 0004:000010a4       $pdata$5$?EvalColor@BerconNoise@@UEAA?AVAColor@@AEAVShadeContext@@@Z 00000001800400a4     BerconNoise.obj
 0004:000010b0       $pdata$6$?EvalColor@BerconNoise@@UEAA?AVAColor@@AEAVShadeContext@@@Z 00000001800400b0     BerconNoise.obj
 0004:000010bc       $pdata$?EvalNormalPerturb@BerconNoise@@UEAA?AVPoint3@@AEAVShadeContext@@@Z 00000001800400bc     BerconNoise.obj
 0004:000010c8       $pdata$1$?EvalNormalPerturb@BerconNoise@@UEAA?AVPoint3@@AEAVShadeContext@@@Z 00000001800400c8     BerconNoise.obj
 0004:000010d4       $pdata$2$?EvalNormalPerturb@BerconNoise@@UEAA?AVPoint3@@AEAVShadeContext@@@Z 00000001800400d4     BerconNoise.obj
 0004:000010e0       $pdata$6$?EvalNormalPerturb@BerconNoise@@UEAA?AVPoint3@@AEAVShadeContext@@@Z 00000001800400e0     BerconNoise.obj
 0004:000010ec       $pdata$7$?EvalNormalPerturb@BerconNoise@@UEAA?AVPoint3@@AEAVShadeContext@@@Z 00000001800400ec     BerconNoise.obj
 0004:000010f8       $pdata$?EvalParameters@BerconNoise@@QEAA?AVNoiseParams@@PEAVShadeContext@@@Z 00000001800400f8     BerconNoise.obj
 0004:00001104       $pdata$?GetActiveTexHandle@BerconNoise@@UEAA_KHAEAVTexHandleMaker@@@Z 0000000180040104     BerconNoise.obj
 0004:00001110       $pdata$0$?GetActiveTexHandle@BerconNoise@@UEAA_KHAEAVTexHandleMaker@@@Z 0000000180040110     BerconNoise.obj
 0004:0000111c       $pdata$1$?GetActiveTexHandle@BerconNoise@@UEAA_KHAEAVTexHandleMaker@@@Z 000000018004011c     BerconNoise.obj
 0004:00001128       $pdata$?GetClassName@BerconNoise@@UEAAXAEAVWStr@@@Z 0000000180040128     BerconNoise.obj
 0004:00001134       $pdata$?GetParamBlockByID@BerconNoise@@UEAAPEAVIParamBlock2@@F@Z 0000000180040134     BerconNoise.obj
 0004:00001140       $pdata$?GetSubTexmapSlotName@BerconNoise@@UEAA?AVWStr@@H@Z 0000000180040140     BerconNoise.obj
 0004:0000114c       $pdata$?NotifyRefChanged@BerconNoise@@UEAA?AW4RefResult@@AEBVInterval@@PEAVReferenceTarget@@AEA_KIH@Z 000000018004014c     BerconNoise.obj
 0004:00001158       $pdata$0$?NotifyRefChanged@BerconNoise@@UEAA?AW4RefResult@@AEBVInterval@@PEAVReferenceTarget@@AEA_KIH@Z 0000000180040158     BerconNoise.obj
 0004:00001164       $pdata$2$?NotifyRefChanged@BerconNoise@@UEAA?AW4RefResult@@AEBVInterval@@PEAVReferenceTarget@@AEA_KIH@Z 0000000180040164     BerconNoise.obj
 0004:00001170       $pdata$3$?NotifyRefChanged@BerconNoise@@UEAA?AW4RefResult@@AEBVInterval@@PEAVReferenceTarget@@AEA_KIH@Z 0000000180040170     BerconNoise.obj
 0004:0000117c       $pdata$?Reset@BerconNoise@@UEAAXXZ 000000018004017c     BerconNoise.obj
 0004:00001188       $pdata$2$?Reset@BerconNoise@@UEAAXXZ 0000000180040188     BerconNoise.obj
 0004:00001194       $pdata$3$?Reset@BerconNoise@@UEAAXXZ 0000000180040194     BerconNoise.obj
 0004:000011a0       $pdata$?SetDlgThing@BerconNoise@@UEAAHPEAVParamDlg@@@Z 00000001800401a0     BerconNoise.obj
 0004:000011ac       $pdata$?SetSubTexmap@BerconNoise@@UEAAXHPEAVTexmap@@@Z 00000001800401ac     BerconNoise.obj
 0004:000011b8       $pdata$?SubAnimName@BerconNoise@@UEAA?AVWStr@@H@Z 00000001800401b8     BerconNoise.obj
 0004:000011c4       $pdata$?Update@BerconNoise@@UEAAXHAEAVInterval@@@Z 00000001800401c4     BerconNoise.obj
 0004:000011d0       $pdata$0$?Update@BerconNoise@@UEAAXHAEAVInterval@@@Z 00000001800401d0     BerconNoise.obj
 0004:000011dc       $pdata$3$?Update@BerconNoise@@UEAAXHAEAVInterval@@@Z 00000001800401dc     BerconNoise.obj
 0004:000011e8       $pdata$4$?Update@BerconNoise@@UEAAXHAEAVInterval@@@Z 00000001800401e8     BerconNoise.obj
 0004:000011f4       $pdata$5$?Update@BerconNoise@@UEAAXHAEAVInterval@@@Z 00000001800401f4     BerconNoise.obj
 0004:00001200       $pdata$?Validity@BerconNoise@@UEAA?AVInterval@@H@Z 0000000180040200     BerconNoise.obj
 0004:0000120c       $pdata$?applyDistortion@BerconNoise@@QEAAXAEAVShadeContext@@AEAVPoint3@@@Z 000000018004020c     BerconNoise.obj
 0004:00001218       $pdata$0$?applyDistortion@BerconNoise@@QEAAXAEAVShadeContext@@AEAVPoint3@@@Z 0000000180040218     BerconNoise.obj
 0004:00001224       $pdata$3$?applyDistortion@BerconNoise@@QEAAXAEAVShadeContext@@AEAVPoint3@@@Z 0000000180040224     BerconNoise.obj
 0004:00001230       $pdata$4$?applyDistortion@BerconNoise@@QEAAXAEAVShadeContext@@AEAVPoint3@@@Z 0000000180040230     BerconNoise.obj
 0004:0000123c       $pdata$5$?applyDistortion@BerconNoise@@QEAAXAEAVShadeContext@@AEAVPoint3@@@Z 000000018004023c     BerconNoise.obj
 0004:00001248       $pdata$?fBm@Fractal@@SAMVPoint3@@AEAVNoiseParams@@@Z 0000000180040248     fractal.obj
 0004:00001254       $pdata$?fBm@Fractal@@SAMVPoint3@@MAEAVNoiseParams@@@Z 0000000180040254     fractal.obj
 0004:00001260       $pdata$?fBmTurb@Fractal@@SAMVPoint3@@AEAVNoiseParams@@@Z 0000000180040260     fractal.obj
 0004:0000126c       $pdata$?fBmTurb@Fractal@@SAMVPoint3@@MAEAVNoiseParams@@@Z 000000018004026c     fractal.obj
 0004:00001278       $pdata$?fractal@Fractal@@SAMVPoint3@@AEAVNoiseParams@@@Z 0000000180040278     fractal.obj
 0004:00001284       $pdata$0$?fractal@Fractal@@SAMVPoint3@@AEAVNoiseParams@@@Z 0000000180040284     fractal.obj
 0004:00001290       $pdata$1$?fractal@Fractal@@SAMVPoint3@@AEAVNoiseParams@@@Z 0000000180040290     fractal.obj
 0004:0000129c       $pdata$2$?fractal@Fractal@@SAMVPoint3@@AEAVNoiseParams@@@Z 000000018004029c     fractal.obj
 0004:000012a8       $pdata$3$?fractal@Fractal@@SAMVPoint3@@AEAVNoiseParams@@@Z 00000001800402a8     fractal.obj
 0004:000012b4       $pdata$?fractal@Fractal@@SAMVPoint3@@MAEAVNoiseParams@@@Z 00000001800402b4     fractal.obj
 0004:000012c0       $pdata$0$?fractal@Fractal@@SAMVPoint3@@MAEAVNoiseParams@@@Z 00000001800402c0     fractal.obj
 0004:000012cc       $pdata$1$?fractal@Fractal@@SAMVPoint3@@MAEAVNoiseParams@@@Z 00000001800402cc     fractal.obj
 0004:000012d8       $pdata$2$?fractal@Fractal@@SAMVPoint3@@MAEAVNoiseParams@@@Z 00000001800402d8     fractal.obj
 0004:000012e4       $pdata$3$?fractal@Fractal@@SAMVPoint3@@MAEAVNoiseParams@@@Z 00000001800402e4     fractal.obj
 0004:000012f0       $pdata$?grain@Fractal@@SAMVPoint3@@MM@Z 00000001800402f0     fractal.obj
 0004:000012fc       $pdata$?heteroTerrain@Fractal@@SAMVPoint3@@AEAVNoiseParams@@@Z 00000001800402fc     fractal.obj
 0004:00001308       $pdata$?hybridMultiFractal@Fractal@@SAMVPoint3@@AEAVNoiseParams@@@Z 0000000180040308     fractal.obj
 0004:00001314       $pdata$?hybridMultiFractal@Fractal@@SAMVPoint3@@MAEAVNoiseParams@@@Z 0000000180040314     fractal.obj
 0004:00001320       $pdata$?ridgedMultiFractal@Fractal@@SAMVPoint3@@AEAVNoiseParams@@@Z 0000000180040320     fractal.obj
 0004:0000132c       $pdata$2$?ridgedMultiFractal@Fractal@@SAMVPoint3@@AEAVNoiseParams@@@Z 000000018004032c     fractal.obj
 0004:00001338       $pdata$3$?ridgedMultiFractal@Fractal@@SAMVPoint3@@AEAVNoiseParams@@@Z 0000000180040338     fractal.obj
 0004:00001344       $pdata$?ridgedMultiFractal@Fractal@@SAMVPoint3@@MAEAVNoiseParams@@@Z 0000000180040344     fractal.obj
 0004:00001350       $pdata$2$?ridgedMultiFractal@Fractal@@SAMVPoint3@@MAEAVNoiseParams@@@Z 0000000180040350     fractal.obj
 0004:0000135c       $pdata$3$?ridgedMultiFractal@Fractal@@SAMVPoint3@@MAEAVNoiseParams@@@Z 000000018004035c     fractal.obj
 0004:00001368       $pdata$?turbulence@Fractal@@SAMVPoint3@@AEAVNoiseParams@@@Z 0000000180040368     fractal.obj
 0004:00001374       $pdata$1$?turbulence@Fractal@@SAMVPoint3@@AEAVNoiseParams@@@Z 0000000180040374     fractal.obj
 0004:00001380       $pdata$2$?turbulence@Fractal@@SAMVPoint3@@AEAVNoiseParams@@@Z 0000000180040380     fractal.obj
 0004:0000138c       $pdata$3$?turbulence@Fractal@@SAMVPoint3@@AEAVNoiseParams@@@Z 000000018004038c     fractal.obj
 0004:00001398       $pdata$4$?turbulence@Fractal@@SAMVPoint3@@AEAVNoiseParams@@@Z 0000000180040398     fractal.obj
 0004:000013a4       $pdata$?turbulence@Fractal@@SAMVPoint3@@MAEAVNoiseParams@@@Z 00000001800403a4     fractal.obj
 0004:000013b0       $pdata$1$?turbulence@Fractal@@SAMVPoint3@@MAEAVNoiseParams@@@Z 00000001800403b0     fractal.obj
 0004:000013bc       $pdata$2$?turbulence@Fractal@@SAMVPoint3@@MAEAVNoiseParams@@@Z 00000001800403bc     fractal.obj
 0004:000013c8       $pdata$3$?turbulence@Fractal@@SAMVPoint3@@MAEAVNoiseParams@@@Z 00000001800403c8     fractal.obj
 0004:000013d4       $pdata$4$?turbulence@Fractal@@SAMVPoint3@@MAEAVNoiseParams@@@Z 00000001800403d4     fractal.obj
 0004:000013e0       $pdata$?addKey@GradientRamp@@QEAAXHMVAColor@@PEAVTexmap@@@Z 00000001800403e0     GradientRamp.obj
 0004:000013ec       $pdata$?getBump@GradientRamp@@QEAA?AVPoint3@@MV2@AEAVShadeContext@@@Z 00000001800403ec     GradientRamp.obj
 0004:000013f8       $pdata$0$?getBump@GradientRamp@@QEAA?AVPoint3@@MV2@AEAVShadeContext@@@Z 00000001800403f8     GradientRamp.obj
 0004:00001404       $pdata$2$?getBump@GradientRamp@@QEAA?AVPoint3@@MV2@AEAVShadeContext@@@Z 0000000180040404     GradientRamp.obj
 0004:00001410       $pdata$3$?getBump@GradientRamp@@QEAA?AVPoint3@@MV2@AEAVShadeContext@@@Z 0000000180040410     GradientRamp.obj
 0004:0000141c       $pdata$4$?getBump@GradientRamp@@QEAA?AVPoint3@@MV2@AEAVShadeContext@@@Z 000000018004041c     GradientRamp.obj
 0004:00001428       $pdata$?getColor@GradientRamp@@QEAA?AVAColor@@M@Z 0000000180040428     GradientRamp.obj
 0004:00001434       $pdata$0$?getColor@GradientRamp@@QEAA?AVAColor@@M@Z 0000000180040434     GradientRamp.obj
 0004:00001440       $pdata$2$?getColor@GradientRamp@@QEAA?AVAColor@@M@Z 0000000180040440     GradientRamp.obj
 0004:0000144c       $pdata$5$?getColor@GradientRamp@@QEAA?AVAColor@@M@Z 000000018004044c     GradientRamp.obj
 0004:00001458       $pdata$6$?getColor@GradientRamp@@QEAA?AVAColor@@M@Z 0000000180040458     GradientRamp.obj
 0004:00001464       $pdata$7$?getColor@GradientRamp@@QEAA?AVAColor@@M@Z 0000000180040464     GradientRamp.obj
 0004:00001470       $pdata$?getColor@GradientRamp@@QEAA?AVAColor@@MAEAVShadeContext@@@Z 0000000180040470     GradientRamp.obj
 0004:0000147c       $pdata$0$?getColor@GradientRamp@@QEAA?AVAColor@@MAEAVShadeContext@@@Z 000000018004047c     GradientRamp.obj
 0004:00001488       $pdata$1$?getColor@GradientRamp@@QEAA?AVAColor@@MAEAVShadeContext@@@Z 0000000180040488     GradientRamp.obj
 0004:00001494       $pdata$2$?getColor@GradientRamp@@QEAA?AVAColor@@MAEAVShadeContext@@@Z 0000000180040494     GradientRamp.obj
 0004:000014a0       $pdata$3$?getColor@GradientRamp@@QEAA?AVAColor@@MAEAVShadeContext@@@Z 00000001800404a0     GradientRamp.obj
 0004:000014ac       $pdata$4$?getColor@GradientRamp@@QEAA?AVAColor@@MAEAVShadeContext@@@Z 00000001800404ac     GradientRamp.obj
 0004:000014b8       $pdata$5$?getColor@GradientRamp@@QEAA?AVAColor@@MAEAVShadeContext@@@Z 00000001800404b8     GradientRamp.obj
 0004:000014c4       $pdata$6$?getColor@GradientRamp@@QEAA?AVAColor@@MAEAVShadeContext@@@Z 00000001800404c4     GradientRamp.obj
 0004:000014d0       $pdata$7$?getColor@GradientRamp@@QEAA?AVAColor@@MAEAVShadeContext@@@Z 00000001800404d0     GradientRamp.obj
 0004:000014dc       $pdata$?leftUp@GradientRamp@@QEAAXHH_N00@Z 00000001800404dc     GradientRamp.obj
 0004:000014e8       $pdata$?paint@GradientRamp@@QEAAXPEAUHDC__@@@Z 00000001800404e8     GradientRamp.obj
 0004:000014f4       $pdata$5$?paint@GradientRamp@@QEAAXPEAUHDC__@@@Z 00000001800404f4     GradientRamp.obj
 0004:00001500       $pdata$7$?paint@GradientRamp@@QEAAXPEAUHDC__@@@Z 0000000180040500     GradientRamp.obj
 0004:0000150c       $pdata$8$?paint@GradientRamp@@QEAAXPEAUHDC__@@@Z 000000018004050c     GradientRamp.obj
 0004:00001518       $pdata$9$?paint@GradientRamp@@QEAAXPEAUHDC__@@@Z 0000000180040518     GradientRamp.obj
 0004:00001524       $pdata$10$?paint@GradientRamp@@QEAAXPEAUHDC__@@@Z 0000000180040524     GradientRamp.obj
 0004:00001530       $pdata$11$?paint@GradientRamp@@QEAAXPEAUHDC__@@@Z 0000000180040530     GradientRamp.obj
 0004:0000153c       $pdata$?popup@GradientRamp@@QEAAXHHH@Z 000000018004053c     GradientRamp.obj
 0004:00001548       $pdata$?reset@GradientRamp@@QEAAXXZ 0000000180040548     GradientRamp.obj
 0004:00001554       $pdata$?setHWND@GradientRamp@@QEAAXPEAUHWND__@@@Z 0000000180040554     GradientRamp.obj
 0004:00001560       $pdata$?setSubtex@GradientRamp@@QEAAXHPEAVTexmap@@@Z 0000000180040560     GradientRamp.obj
 0004:0000156c       $pdata$?sort@GradientRamp@@QEAAXXZ 000000018004056c     GradientRamp.obj
 0004:00001578       $pdata$1$?sort@GradientRamp@@QEAAXXZ 0000000180040578     GradientRamp.obj
 0004:00001584       $pdata$2$?sort@GradientRamp@@QEAAXXZ 0000000180040584     GradientRamp.obj
 0004:00001590       $pdata$?GradientProc@IGradient@@SA_JPEAUHWND__@@I_K_J@Z 0000000180040590     IGradient.obj
 0004:0000159c       $pdata$?InitGradientControls@@YAXXZ 000000018004059c     IGradient.obj
 0004:000015a8       $pdata$IsolationAwareRegisterClassExW 00000001800405a8     IGradient.obj
 0004:000015b4       $pdata$?alterUVW@Noise@@SAXAEAVPoint3@@H@Z 00000001800405b4     noise.obj
 0004:000015c0       $pdata$?f@Fractal@@SAMVPoint3@@AEAVNoiseParams@@@Z 00000001800405c0     noise.obj
 0004:000015cc       $pdata$?f@Fractal@@SAMVPoint3@@MAEAVNoiseParams@@@Z 00000001800405cc     noise.obj
 0004:000015d8       $pdata$?limitedNoise@Noise@@SAMVPoint3@@00AEAVNoiseParams@@@Z 00000001800405d8     noise.obj
 0004:000015e4       $pdata$?limitedNoise@Noise@@SAMVPoint3@@AEAVNoiseParams@@@Z 00000001800405e4     noise.obj
 0004:000015f0       $pdata$?noise@Noise@@SAMVPoint3@@AEAVNoiseParams@@@Z 00000001800405f0     noise.obj
 0004:000015fc       $pdata$?noise@Noise@@SAMVPoint3@@MAEAVNoiseParams@@@Z 00000001800405fc     noise.obj
 0004:00001608       $pdata$?wood@Noise@@SAMVPoint3@@00AEAV2@VWoodParam@@@Z 0000000180040608     noise.obj
 0004:00001614       $pdata$3$?wood@Noise@@SAMVPoint3@@00AEAV2@VWoodParam@@@Z 0000000180040614     noise.obj
 0004:00001620       $pdata$4$?wood@Noise@@SAMVPoint3@@00AEAV2@VWoodParam@@@Z 0000000180040620     noise.obj
 0004:0000162c       $pdata$?wood@Noise@@SAMVPoint3@@AEAV2@AEAVWoodParam@@@Z 000000018004062c     noise.obj
 0004:00001638       $pdata$?worleyWrapper@Noise@@SAMVPoint3@@AEAVNoiseParams@@@Z 0000000180040638     noise.obj
 0004:00001644       $pdata$?fnoise2D@Perlin@@SAMMMM@Z 0000000180040644     perlin.obj
 0004:00001650       $pdata$?fnoise3D@Perlin@@SAMMMMM@Z 0000000180040650     perlin.obj
 0004:0000165c       $pdata$?fnoise4D@Perlin@@SAMMMMMM@Z 000000018004065c     perlin.obj
 0004:00001668       $pdata$?fsnoise2D@Perlin@@SAMMMM@Z 0000000180040668     perlin.obj
 0004:00001674       $pdata$?fsnoise3D@Perlin@@SAMMMMM@Z 0000000180040674     perlin.obj
 0004:00001680       $pdata$?fsnoise4D@Perlin@@SAMMMMMM@Z 0000000180040680     perlin.obj
 0004:0000168c       $pdata$?grad@Perlin@@CAMHMMM@Z 000000018004068c     perlin.obj
 0004:00001698       $pdata$?grad@Perlin@@CAMHMMMM@Z 0000000180040698     perlin.obj
 0004:000016a4       $pdata$?noise@Perlin@@SAMMM@Z 00000001800406a4     perlin.obj
 0004:000016b0       $pdata$?noise@Perlin@@SAMMMM@Z 00000001800406b0     perlin.obj
 0004:000016bc       $pdata$?noise@Perlin@@SAMMMMM@Z 00000001800406bc     perlin.obj
 0004:000016c8       $pdata$?point@Perlin@@CAMMMMHHH@Z 00000001800406c8     perlin.obj
 0004:000016d4       $pdata$0$?point@Perlin@@CAMMMMHHH@Z 00000001800406d4     perlin.obj
 0004:000016e0       $pdata$1$?point@Perlin@@CAMMMMHHH@Z 00000001800406e0     perlin.obj
 0004:000016ec       $pdata$?point@Perlin@@CAMMMMMHHHH@Z 00000001800406ec     perlin.obj
 0004:000016f8       $pdata$0$?point@Perlin@@CAMMMMMHHHH@Z 00000001800406f8     perlin.obj
 0004:00001704       $pdata$1$?point@Perlin@@CAMMMMMHHHH@Z 0000000180040704     perlin.obj
 0004:00001710       $pdata$?snoise@Perlin@@SAMM@Z 0000000180040710     perlin.obj
 0004:0000171c       $pdata$?snoise@Perlin@@SAMMM@Z 000000018004071c     perlin.obj
 0004:00001728       $pdata$?snoise@Perlin@@SAMMMM@Z 0000000180040728     perlin.obj
 0004:00001734       $pdata$?snoise@Perlin@@SAMMMMM@Z 0000000180040734     perlin.obj
 0004:00001740       $pdata$??$_Emplace_reallocate@AEBM@?$vector@MV?$allocator@M@std@@@std@@QEAAPEAMQEAMAEBM@Z 0000000180040740     tile.obj
 0004:00001740       $pdata$??$_Emplace_reallocate@M@?$vector@MV?$allocator@M@std@@@std@@QEAAPEAMQEAM$$QEAM@Z 0000000180040740     tile.obj
 0004:0000174c       $pdata$??$_Emplace_reallocate@AEBVTileRow@@@?$vector@VTileRow@@V?$allocator@VTileRow@@@std@@@std@@QEAAPEAVTileRow@@QEAV2@AEBV2@@Z 000000018004074c     tile.obj
 0004:00001758       $pdata$??$_Emplace_reallocate@V?$basic_string@_WU?$char_traits@_W@std@@V?$allocator@_W@2@@std@@@?$vector@V?$basic_string@_WU?$char_traits@_W@std@@V?$allocator@_W@2@@std@@V?$allocator@V?$basic_string@_WU?$char_traits@_W@std@@V?$allocator@_W@2@@std@@@2@@std@@QEAAPEAV?$basic_string@_WU?$char_traits@_W@std@@V?$allocator@_W@2@@1@QEAV21@$$QEAV21@@Z 0000000180040758     tile.obj
 0004:00001764       $pdata$??$_Uninitialized_move@PEAVTileRow@@PEAV1@V?$allocator@VTileRow@@@std@@@std@@YAPEAVTileRow@@QEAV1@0PEAV1@AEAV?$allocator@VTileRow@@@0@@Z 0000000180040764     tile.obj
 0004:00001770       $pdata$??0?$basic_stringbuf@_WU?$char_traits@_W@std@@V?$allocator@_W@2@@std@@QEAA@AEBV?$basic_string@_WU?$char_traits@_W@std@@V?$allocator@_W@2@@1@H@Z 0000000180040770     tile.obj
 0004:0000177c       $pdata$??0?$vector@MV?$allocator@M@std@@@std@@QEAA@AEBV01@@Z 000000018004077c     tile.obj
 0004:00001788       $pdata$??1?$_Uninitialized_backout_al@PEAV?$basic_string@_WU?$char_traits@_W@std@@V?$allocator@_W@2@@std@@V?$allocator@V?$basic_string@_WU?$char_traits@_W@std@@V?$allocator@_W@2@@std@@@2@@std@@QEAA@XZ 0000000180040788     tile.obj
 0004:00001794       $pdata$??1?$_Uninitialized_backout_al@PEAVTileRow@@V?$allocator@VTileRow@@@std@@@std@@QEAA@XZ 0000000180040794     tile.obj
 0004:000017a0       $pdata$??1?$basic_stringbuf@_WU?$char_traits@_W@std@@V?$allocator@_W@2@@std@@UEAA@XZ 00000001800407a0     tile.obj
 0004:000017ac       $pdata$??1?$vector@V?$basic_string@_WU?$char_traits@_W@std@@V?$allocator@_W@2@@std@@V?$allocator@V?$basic_string@_WU?$char_traits@_W@std@@V?$allocator@_W@2@@std@@@2@@std@@QEAA@XZ 00000001800407ac     tile.obj
 0004:000017b8       $pdata$??1TileRow@@QEAA@XZ 00000001800407b8     tile.obj
 0004:000017c4       $pdata$??_D?$basic_stringstream@_WU?$char_traits@_W@std@@V?$allocator@_W@2@@std@@QEAAXXZ 00000001800407c4     tile.obj
 0004:000017d0       $pdata$??_G?$basic_stringbuf@_WU?$char_traits@_W@std@@V?$allocator@_W@2@@std@@UEAAPEAXI@Z 00000001800407d0     tile.obj
 0004:000017dc       $pdata$??_G?$basic_stringstream@_WU?$char_traits@_W@std@@V?$allocator@_W@2@@std@@UEAAPEAXI@Z 00000001800407dc     tile.obj
 0004:000017e8       $pdata$?_Change_array@?$vector@MV?$allocator@M@std@@@std@@AEAAXQEAM_K1@Z 00000001800407e8     tile.obj
 0004:000017f4       $pdata$?_Destroy@?$vector@V?$basic_string@_WU?$char_traits@_W@std@@V?$allocator@_W@2@@std@@V?$allocator@V?$basic_string@_WU?$char_traits@_W@std@@V?$allocator@_W@2@@std@@@2@@std@@AEAAXPEAV?$basic_string@_WU?$char_traits@_W@std@@V?$allocator@_W@2@@2@0@Z 00000001800407f4     tile.obj
 0004:00001800       $pdata$?_Destroy@?$vector@VTileRow@@V?$allocator@VTileRow@@@std@@@std@@AEAAXPEAVTileRow@@0@Z 0000000180040800     tile.obj
 0004:0000180c       $pdata$?_Tidy@?$vector@MV?$allocator@M@std@@@std@@AEAAXXZ 000000018004080c     tile.obj
 0004:00001818       $pdata$?_Xlength@?$vector@V?$basic_string@_WU?$char_traits@_W@std@@V?$allocator@_W@2@@std@@V?$allocator@V?$basic_string@_WU?$char_traits@_W@std@@V?$allocator@_W@2@@std@@@2@@std@@CAXXZ 0000000180040818     tile.obj
 0004:00001818       $pdata$?_Xlength@?$vector@MV?$allocator@M@std@@@std@@CAXXZ 0000000180040818     tile.obj
 0004:00001818       $pdata$?_Xlength@?$vector@VTileRow@@V?$allocator@VTileRow@@@std@@@std@@CAXXZ 0000000180040818     tile.obj
 0004:00001824       $pdata$?_Xran@?$_String_val@U?$_Simple_types@_W@std@@@std@@SAXXZ 0000000180040824     tile.obj
 0004:00001830       $pdata$?allocate@?$allocator@M@std@@QEAAPEAM_K@Z 0000000180040830     tile.obj
 0004:0000183c       $pdata$?corner@Tile@@CA?AVTilePoint@@MMMMAEAVTileParam@@@Z 000000018004083c     tile.obj
 0004:00001848       $pdata$?deallocate@?$allocator@M@std@@QEAAXQEAM_K@Z 0000000180040848     tile.obj
 0004:00001854       $pdata$?deallocate@?$allocator@VTileRow@@@std@@QEAAXQEAVTileRow@@_K@Z 0000000180040854     tile.obj
 0004:00001854       $pdata$?deallocate@?$allocator@V?$basic_string@_WU?$char_traits@_W@std@@V?$allocator@_W@2@@std@@@std@@QEAAXQEAV?$basic_string@_WU?$char_traits@_W@std@@V?$allocator@_W@2@@2@_K@Z 0000000180040854     tile.obj
 0004:00001860       $pdata$?deallocate@?$allocator@_W@std@@QEAAXQEA_W_K@Z 0000000180040860     tile.obj
 0004:0000186c       $pdata$?draw@Tile@@SA?AVTilePoint@@VPoint3@@AEAVTileParam@@@Z 000000018004086c     tile.obj
 0004:00001878       $pdata$0$?draw@Tile@@SA?AVTilePoint@@VPoint3@@AEAVTileParam@@@Z 0000000180040878     tile.obj
 0004:00001884       $pdata$2$?draw@Tile@@SA?AVTilePoint@@VPoint3@@AEAVTileParam@@@Z 0000000180040884     tile.obj
 0004:00001890       $pdata$1$?draw@Tile@@SA?AVTilePoint@@VPoint3@@AEAVTileParam@@@Z 0000000180040890     tile.obj
 0004:0000189c       $pdata$?drawTile@Tile@@CA?AVTilePoint@@VPoint3@@QEAMAEAVTileParam@@HH@Z 000000018004089c     tile.obj
 0004:000018a8       $pdata$1$?drawTile@Tile@@CA?AVTilePoint@@VPoint3@@QEAMAEAVTileParam@@HH@Z 00000001800408a8     tile.obj
 0004:000018b4       $pdata$2$?drawTile@Tile@@CA?AVTilePoint@@VPoint3@@QEAMAEAVTileParam@@HH@Z 00000001800408b4     tile.obj
 0004:000018c0       $pdata$?find_first_not_of@?$basic_string@_WU?$char_traits@_W@std@@V?$allocator@_W@2@@std@@QEBA_KAEBV12@_K@Z 00000001800408c0     tile.obj
 0004:000018cc       $pdata$?find_first_of@?$basic_string@_WU?$char_traits@_W@std@@V?$allocator@_W@2@@std@@QEBA_KAEBV12@_K@Z 00000001800408cc     tile.obj
 0004:000018d8       $pdata$?overflow@?$basic_stringbuf@_WU?$char_traits@_W@std@@V?$allocator@_W@2@@std@@MEAAGG@Z 00000001800408d8     tile.obj
 0004:000018e4       $pdata$0$?overflow@?$basic_stringbuf@_WU?$char_traits@_W@std@@V?$allocator@_W@2@@std@@MEAAGG@Z 00000001800408e4     tile.obj
 0004:000018f0       $pdata$1$?overflow@?$basic_stringbuf@_WU?$char_traits@_W@std@@V?$allocator@_W@2@@std@@MEAAGG@Z 00000001800408f0     tile.obj
 0004:000018fc       $pdata$?parsePattern@@YAHV?$basic_string@_WU?$char_traits@_W@std@@V?$allocator@_W@2@@std@@PEAVTilePattern@@@Z 00000001800408fc     tile.obj
 0004:00001908       $pdata$?rowcol@@YAHAEAM0AEAHMMAEAV?$vector@MV?$allocator@M@std@@@std@@MMM@Z 0000000180040908     tile.obj
 0004:00001914       $pdata$6$?rowcol@@YAHAEAM0AEAHMMAEAV?$vector@MV?$allocator@M@std@@@std@@MMM@Z 0000000180040914     tile.obj
 0004:00001920       $pdata$7$?rowcol@@YAHAEAM0AEAHMMAEAV?$vector@MV?$allocator@M@std@@@std@@MMM@Z 0000000180040920     tile.obj
 0004:0000192c       $pdata$?seekoff@?$basic_stringbuf@_WU?$char_traits@_W@std@@V?$allocator@_W@2@@std@@MEAA?AV?$fpos@U_Mbstatet@@@2@_JHH@Z 000000018004092c     tile.obj
 0004:00001938       $pdata$?seekpos@?$basic_stringbuf@_WU?$char_traits@_W@std@@V?$allocator@_W@2@@std@@MEAA?AV?$fpos@U_Mbstatet@@@2@V32@H@Z 0000000180040938     tile.obj
 0004:00001944       $pdata$0$?seekpos@?$basic_stringbuf@_WU?$char_traits@_W@std@@V?$allocator@_W@2@@std@@MEAA?AV?$fpos@U_Mbstatet@@@2@V32@H@Z 0000000180040944     tile.obj
 0004:00001950       $pdata$1$?seekpos@?$basic_stringbuf@_WU?$char_traits@_W@std@@V?$allocator@_W@2@@std@@MEAA?AV?$fpos@U_Mbstatet@@@2@V32@H@Z 0000000180040950     tile.obj
 0004:0000195c       $pdata$?setPattern@TilePattern@@QEAAXV?$basic_string@_WU?$char_traits@_W@std@@V?$allocator@_W@2@@std@@@Z 000000018004095c     tile.obj
 0004:00001968       $pdata$?setPreset@TilePattern@@QEAAXH@Z 0000000180040968     tile.obj
 0004:00001974       $pdata$?tokenize@@YAXAEBV?$basic_string@_WU?$char_traits@_W@std@@V?$allocator@_W@2@@std@@AEAV?$vector@V?$basic_string@_WU?$char_traits@_W@std@@V?$allocator@_W@2@@std@@V?$allocator@V?$basic_string@_WU?$char_traits@_W@std@@V?$allocator@_W@2@@std@@@2@@2@0@Z 0000000180040974     tile.obj
 0004:00001980       $pdata$?uvMapping@Tile@@CAXAEAVTilePoint@@VPoint3@@QEAMAEAVTileParam@@H@Z 0000000180040980     tile.obj
 0004:0000198c       $pdata$0$?uvMapping@Tile@@CAXAEAVTilePoint@@VPoint3@@QEAMAEAVTileParam@@H@Z 000000018004098c     tile.obj
 0004:00001998       $pdata$8$?uvMapping@Tile@@CAXAEAVTilePoint@@VPoint3@@QEAMAEAVTileParam@@H@Z 0000000180040998     tile.obj
 0004:000019a4       $pdata$9$?uvMapping@Tile@@CAXAEAVTilePoint@@VPoint3@@QEAMAEAVTileParam@@H@Z 00000001800409a4     tile.obj
 0004:000019b0       $pdata$10$?uvMapping@Tile@@CAXAEAVTilePoint@@VPoint3@@QEAMAEAVTileParam@@H@Z 00000001800409b0     tile.obj
 0004:000019bc       $pdata$11$?uvMapping@Tile@@CAXAEAVTilePoint@@VPoint3@@QEAMAEAVTileParam@@H@Z 00000001800409bc     tile.obj
 0004:000019c8       $pdata$12$?uvMapping@Tile@@CAXAEAVTilePoint@@VPoint3@@QEAMAEAVTileParam@@H@Z 00000001800409c8     tile.obj
 0004:000019d4       $pdata$13$?uvMapping@Tile@@CAXAEAVTilePoint@@VPoint3@@QEAMAEAVTileParam@@H@Z 00000001800409d4     tile.obj
 0004:000019e0       $pdata$?add@Worley@@CAXJJJQEBNHPEANH@Z 00000001800409e0     worley.obj
 0004:000019ec       $pdata$10$?add@Worley@@CAXJJJQEBNHPEANH@Z 00000001800409ec     worley.obj
 0004:000019f8       $pdata$11$?add@Worley@@CAXJJJQEBNHPEANH@Z 00000001800409f8     worley.obj
 0004:00001a04       $pdata$?noise@Worley@@SAXQEBNHPEANH@Z 0000000180040a04     worley.obj
 0004:00001a10       $pdata$??_Gtype_info@@UEAAPEAXI@Z 0000000180040a10     MSVCRT:std_type_info_static.obj
 0004:00001a1c       $pdata$__scrt_acquire_startup_lock 0000000180040a1c     MSVCRT:utility.obj
 0004:00001a28       $pdata$__scrt_dllmain_after_initialize_c 0000000180040a28     MSVCRT:utility.obj
 0004:00001a34       $pdata$__scrt_dllmain_before_initialize_c 0000000180040a34     MSVCRT:utility.obj
 0004:00001a40       $pdata$__scrt_dllmain_crt_thread_attach 0000000180040a40     MSVCRT:utility.obj
 0004:00001a4c       $pdata$__scrt_dllmain_crt_thread_detach 0000000180040a4c     MSVCRT:utility.obj
 0004:00001a58       $pdata$__scrt_dllmain_exception_filter 0000000180040a58     MSVCRT:utility.obj
 0004:00001a64       $pdata$__scrt_dllmain_uninitialize_c 0000000180040a64     MSVCRT:utility.obj
 0004:00001a70       $pdata$__scrt_dllmain_uninitialize_critical 0000000180040a70     MSVCRT:utility.obj
 0004:00001a7c       $pdata$__scrt_initialize_crt 0000000180040a7c     MSVCRT:utility.obj
 0004:00001a88       $pdata$__scrt_initialize_onexit_tables 0000000180040a88     MSVCRT:utility.obj
 0004:00001a94       $pdata$__scrt_is_nonwritable_in_current_image 0000000180040a94     MSVCRT:utility.obj
 0004:00001aa0       $pdata$__scrt_release_startup_lock 0000000180040aa0     MSVCRT:utility.obj
 0004:00001aac       $pdata$__scrt_uninitialize_crt 0000000180040aac     MSVCRT:utility.obj
 0004:00001ab8       $pdata$_onexit             0000000180040ab8     MSVCRT:utility.obj
 0004:00001ac4       $pdata$atexit              0000000180040ac4     MSVCRT:utility.obj
 0004:00001ad0       $pdata$??2@YAPEAX_K@Z      0000000180040ad0     MSVCRT:new_scalar.obj
 0004:00001ae8       $pdata$?dllmain_crt_dispatch@@YAHQEAUHINSTANCE__@@KQEAX@Z 0000000180040ae8     MSVCRT:dll_dllmain.obj
 0004:00001af4       $pdata$?dllmain_crt_process_attach@@YAHQEAUHINSTANCE__@@QEAX@Z 0000000180040af4     MSVCRT:dll_dllmain.obj
 0004:00001b00       $pdata$?dllmain_crt_process_detach@@YAH_N@Z 0000000180040b00     MSVCRT:dll_dllmain.obj
 0004:00001b0c       $pdata$?dllmain_dispatch@@YAHQEAUHINSTANCE__@@KQEAX@Z 0000000180040b0c     MSVCRT:dll_dllmain.obj
 0004:00001b18       $pdata$_DllMainCRTStartup  0000000180040b18     MSVCRT:dll_dllmain.obj
 0004:00001b24       $pdata$__isa_available_init 0000000180040b24     MSVCRT:cpu_disp.obj
 0004:00001b30       $pdata$__scrt_fastfail     0000000180040b30     MSVCRT:utility_desktop.obj
 0004:00001b3c       $pdata$??0bad_alloc@std@@QEAA@AEBV01@@Z 0000000180040b3c     MSVCRT:throw_bad_alloc.obj
 0004:00001b48       $pdata$??0bad_array_new_length@std@@QEAA@AEBV01@@Z 0000000180040b48     MSVCRT:throw_bad_alloc.obj
 0004:00001b54       $pdata$??0exception@std@@QEAA@AEBV01@@Z 0000000180040b54     MSVCRT:throw_bad_alloc.obj
 0004:00001b60       $pdata$??_Gexception@std@@UEAAPEAXI@Z 0000000180040b60     MSVCRT:throw_bad_alloc.obj
 0004:00001b60       $pdata$??_Gbad_array_new_length@std@@UEAAPEAXI@Z 0000000180040b60     MSVCRT:throw_bad_alloc.obj
 0004:00001b60       $pdata$??_Gbad_alloc@std@@UEAAPEAXI@Z 0000000180040b60     MSVCRT:throw_bad_alloc.obj
 0004:00001b6c       $pdata$?__scrt_throw_std_bad_alloc@@YAXXZ 0000000180040b6c     MSVCRT:throw_bad_alloc.obj
 0004:00001b78       $pdata$?__scrt_throw_std_bad_array_new_length@@YAXXZ 0000000180040b78     MSVCRT:throw_bad_alloc.obj
 0004:00001b84       $pdata$__security_init_cookie 0000000180040b84     MSVCRT:gs_support.obj
 0004:00001b90       $pdata$__scrt_initialize_default_local_stdio_options 0000000180040b90     MSVCRT:default_local_stdio_options.obj
 0004:00001b9c       $pdata$_RTC_Initialize     0000000180040b9c     MSVCRT:initsect.obj
 0004:00001ba8       $pdata$_RTC_Terminate      0000000180040ba8     MSVCRT:initsect.obj
 0004:00001bc0       $pdata$?dtor$0@?0??SubAnimName@BerconNoise@@UEAA?AVWStr@@H@Z@4HA 0000000180040bc0     BerconNoise.obj
 0004:00001bc0       $pdata$?dtor$0@?0??GetSubTexmapSlotName@BerconDistortion@@UEAA?AVWStr@@H@Z@4HA 0000000180040bc0     BerconDistortion.obj
 0004:00001bc0       $pdata$?dtor$0@?0??SubAnimName@BerconTile@@UEAA?AVWStr@@H@Z@4HA 0000000180040bc0     BerconTile.obj
 0004:00001bc0       $pdata$?dtor$0@?0??GetSubTexmapSlotName@BerconTile@@UEAA?AVWStr@@H@Z@4HA 0000000180040bc0     BerconTile.obj
 0004:00001bc0       $pdata$?dtor$0@?0??SubAnimName@BerconDistortion@@UEAA?AVWStr@@H@Z@4HA 0000000180040bc0     BerconDistortion.obj
 0004:00001bc0       $pdata$?dtor$0@?0??GetSubTexmapSlotName@BerconWood@@UEAA?AVWStr@@H@Z@4HA 0000000180040bc0     BerconWood.obj
 0004:00001bc0       $pdata$?dtor$0@?0??SubAnimName@BerconGradient@@UEAA?AVWStr@@H@Z@4HA 0000000180040bc0     BerconGradient.obj
 0004:00001bc0       $pdata$?dtor$0@?0??GetSubTexmapSlotName@BerconNoise@@UEAA?AVWStr@@H@Z@4HA 0000000180040bc0     BerconNoise.obj
 0004:00001bc0       $pdata$?dtor$0@?0??SubAnimName@BerconWood@@UEAA?AVWStr@@H@Z@4HA 0000000180040bc0     BerconWood.obj
 0004:00001bc0       $pdata$?dtor$0@?0??GetSubTexmapSlotName@BerconGradient@@UEAA?AVWStr@@H@Z@4HA 0000000180040bc0     BerconGradient.obj
 0004:00001bcc       $pdata$?dtor$1@?0???0BerconGradient@@QEAA@XZ@4HA 0000000180040bcc     BerconGradient.obj
 0004:00001bd8       $pdata$CommctrlIsolationAwarePrivatetRgCebPnQQeRff_pbZPgYQP_QYY$fin$0 0000000180040bd8     DllEntry.obj
 0004:00001be4       $pdata$IsolationAwareInitCommonControls$fin$0 0000000180040be4     DllEntry.obj
 0004:00001bf0       $pdata$WinbaseIsolationAwarePrivatetRgzlnPgpgk$fin$0 0000000180040bf0     DllEntry.obj
 0004:00001bfc       $pdata$IsolationAwareRegisterClassExW$fin$0 0000000180040bfc     IGradient.obj
 0004:00001c08       $pdata$?catch$0@?0???$_Emplace_reallocate@AEBM@?$vector@MV?$allocator@M@std@@@std@@QEAAPEAMQEAMAEBM@Z@4HA 0000000180040c08     tile.obj
 0004:00001c08       $pdata$?catch$0@?0???$_Emplace_reallocate@M@?$vector@MV?$allocator@M@std@@@std@@QEAAPEAMQEAM$$QEAM@Z@4HA 0000000180040c08     tile.obj
 0004:00001c14       $pdata$?catch$2@?0???$_Emplace_reallocate@AEBVTileRow@@@?$vector@VTileRow@@V?$allocator@VTileRow@@@std@@@std@@QEAAPEAVTileRow@@QEAV2@AEBV2@@Z@4HA 0000000180040c14     tile.obj
 0004:00001c20       $pdata$?catch$3@?0???$_Emplace_reallocate@V?$basic_string@_WU?$char_traits@_W@std@@V?$allocator@_W@2@@std@@@?$vector@V?$basic_string@_WU?$char_traits@_W@std@@V?$allocator@_W@2@@std@@V?$allocator@V?$basic_string@_WU?$char_traits@_W@std@@V?$allocator@_W@2@@std@@@2@@std@@QEAAPEAV?$basic_string@_WU?$char_traits@_W@std@@V?$allocator@_W@2@@1@QEAV21@$$QEAV21@@Z@4HA 0000000180040c20     tile.obj
 0004:00001c2c       $pdata$?catch$0@?0???0?$vector@MV?$allocator@M@std@@@std@@QEAA@AEBV01@@Z@4HA 0000000180040c2c     tile.obj
 0004:00001c38       $pdata$?dtor$10@?0??parsePattern@@YAHV?$basic_string@_WU?$char_traits@_W@std@@V?$allocator@_W@2@@std@@PEAVTilePattern@@@Z@4HA 0000000180040c38     tile.obj
 0004:00001c44       $pdata$?dtor$13@?0??parsePattern@@YAHV?$basic_string@_WU?$char_traits@_W@std@@V?$allocator@_W@2@@std@@PEAVTilePattern@@@Z@4HA 0000000180040c44     tile.obj
 0004:00001c50       $pdata$?dtor$17@?0??parsePattern@@YAHV?$basic_string@_WU?$char_traits@_W@std@@V?$allocator@_W@2@@std@@PEAVTilePattern@@@Z@4HA 0000000180040c50     tile.obj
 0004:00001c5c       $pdata$?dtor$1@?0??tokenize@@YAXAEBV?$basic_string@_WU?$char_traits@_W@std@@V?$allocator@_W@2@@std@@AEAV?$vector@V?$basic_string@_WU?$char_traits@_W@std@@V?$allocator@_W@2@@std@@V?$allocator@V?$basic_string@_WU?$char_traits@_W@std@@V?$allocator@_W@2@@std@@@2@@2@0@Z@4HA 0000000180040c5c     tile.obj
 0004:00001c68       $pdata$__scrt_is_nonwritable_in_current_image$filt$0 0000000180040c68     MSVCRT:utility.obj
 0004:00001c74       $pdata$?fin$0@?0??dllmain_crt_process_attach@@YAHQEAUHINSTANCE__@@QEAX@Z@4HA 0000000180040c74     MSVCRT:dll_dllmain.obj
 0004:00001c80       $pdata$?fin$0@?0??dllmain_crt_process_detach@@YAH_N@Z@4HA 0000000180040c80     MSVCRT:dll_dllmain.obj
 0004:00001c8c       $pdata$?filt$0@?0??dllmain_dispatch@@YAHQEAUHINSTANCE__@@KQEAX@Z@4HA 0000000180040c8c     MSVCRT:dll_dllmain.obj
 0004:00001c98       $pdata$??__FBerconDistortionDesc@@YAXXZ 0000000180040c98     BerconDistortion.obj
 0004:00001ca4       $pdata$??__Fxyz_blk@@YAXXZ 0000000180040ca4     BerconDistortion.obj
 0004:00001cb0       $pdata$??__FBerconGradientDesc@@YAXXZ 0000000180040cb0     BerconGradient.obj
 0004:00001cbc       $pdata$??__Fxyz_blk@@YAXXZ 0000000180040cbc     BerconGradient.obj
 0004:00001cc8       $pdata$??__FBerconTileDesc@@YAXXZ 0000000180040cc8     BerconTile.obj
 0004:00001cd4       $pdata$??__Fxyz_blk@@YAXXZ 0000000180040cd4     BerconTile.obj
 0004:00001ce0       $pdata$??__FBerconWoodDesc@@YAXXZ 0000000180040ce0     BerconWood.obj
 0004:00001cec       $pdata$??__Fxyz_blk@@YAXXZ 0000000180040cec     BerconWood.obj
 0004:00001cf8       $pdata$??__FBerconNoiseDesc@@YAXXZ 0000000180040cf8     BerconNoise.obj
 0004:00001d04       $pdata$??__Fxyz_blk@@YAXXZ 0000000180040d04     BerconNoise.obj
 0005:000009b0       $R000000                   00000001800419b0     BerconNoise.res
 0005:00000a68       $R0000B8                   0000000180041a68     BerconNoise.res
 0005:00000a98       $R0000E8                   0000000180041a98     BerconNoise.res
 0005:00000b40       $R000190                   0000000180041b40     BerconNoise.res
 0005:00000cd0       $R000320                   0000000180041cd0     BerconNoise.res
 0005:00000d78       $R0003C8                   0000000180041d78     BerconNoise.res
 0005:00000e20       $R000470                   0000000180041e20     BerconNoise.res
 0005:00000f10       $R000560                   0000000180041f10     BerconNoise.res
 0005:00000fb8       $R000608                   0000000180041fb8     BerconNoise.res
 0005:00001e20       $R001470                   0000000180042e20     BerconNoise.res
 0005:000030b0       $R002700                   00000001800440b0     BerconNoise.res
 0005:00004888       $R003ED8                   0000000180045888     BerconNoise.res
 0005:00005290       $R0048E0                   0000000180046290     BerconNoise.res
 0005:000054d8       $R004B28                   00000001800464d8     BerconNoise.res
 0005:00005650       $R004CA0                   0000000180046650     BerconNoise.res
 0005:00005e40       $R005490                   0000000180046e40     BerconNoise.res
 0005:00006a40       $R006090                   0000000180047a40     BerconNoise.res
 0005:00007b98       $R0071E8                   0000000180048b98     BerconNoise.res
 0005:00008d00       $R008350                   0000000180049d00     BerconNoise.res
 0005:00009cb8       $R009308                   000000018004acb8     BerconNoise.res
 0005:0000ad50       $R00A3A0                   000000018004bd50     BerconNoise.res
 0005:0000b6d0       $R00AD20                   000000018004c6d0     BerconNoise.res
 0005:0000b6d8       $R00AD28                   000000018004c6d8     BerconNoise.res
 0005:0000b6e0       $R00AD30                   000000018004c6e0     BerconNoise.res
 0005:0000b6e8       $R00AD38                   000000018004c6e8     BerconNoise.res
 0005:0000b7a8       $R00ADF8                   000000018004c7a8     BerconNoise.res
 0005:000188f0       $R017F40                   00000001800598f0     BerconNoise.res
 0005:00018a68       $R0180B8                   0000000180059a68     BerconNoise.res
 0005:00018ad0       $R018120                   0000000180059ad0     BerconNoise.res
 0005:00018c38       $R018288                   0000000180059c38     BerconNoise.res
 0005:00018c88       $R0182D8                   0000000180059c88     BerconNoise.res
 0005:00018e50       $R0184A0                   0000000180059e50     BerconNoise.res
 0005:00019028       $R018678                   000000018005a028     BerconNoise.res
 0005:00019200       $R018850                   000000018005a200     BerconNoise.res
 0005:00019300       $R018950                   000000018005a300     BerconNoise.res
 0005:000193d0       $R018A20                   000000018005a3d0     BerconNoise.res
 0005:000194f8       $R018B48                   000000018005a4f8     BerconNoise.res
 0005:000195f8       $R018C48                   000000018005a5f8     BerconNoise.res
 0005:00019770       $R018DC0                   000000018005a770     BerconNoise.res
 0005:000198f0       $R018F40                   000000018005a8f0     BerconNoise.res
 0005:00019aa0       $R0190F0                   000000018005aaa0     BerconNoise.res
 0005:00019b80       $R0191D0                   000000018005ab80     BerconNoise.res
 0005:00019cc0       $R019310                   000000018005acc0     BerconNoise.res
 0005:00019e38       $R019488                   000000018005ae38     BerconNoise.res
 0005:0001a048       $R019698                   000000018005b048     BerconNoise.res
 0005:0001a200       $R019850                   000000018005b200     BerconNoise.res
 0005:0001a318       $R019968                   000000018005b318     BerconNoise.res

 Exports

  ordinal    name

        1    ?LibDescription@@YAPEB_WXZ (wchar_t const * __cdecl LibDescription(void))
               exported name: LibDescription
        2    ?LibNumberClasses@@YAHXZ (int __cdecl LibNumberClasses(void))
               exported name: LibNumberClasses
        3    ?LibClassDesc@@YAPEAVClassDesc@@H@Z (class ClassDesc * __cdecl LibClassDesc(int))
               exported name: LibClassDesc
        4    ?LibVersion@@YAKXZ (unsigned long __cdecl LibVersion(void))
               exported name: LibVersion
        5    ??0VertexNormalsControl@@QEAA@XZ (public: __cdecl VertexNormalsControl::VertexNormalsControl(void))
        6    ?LibInitialize@@YAHXZ (int __cdecl LibInitialize(void))
        7    ?LibShutdown@@YAHXZ (int __cdecl LibShutdown(void))
