; Listing generated by Microsoft (R) Optimizing Compiler Version 19.00.24234.1 

include listing.inc

INCLUDELIB MSVCRT
INCLUDELIB OLDNAMES

PUBLIC	??_C@_1O@KEKEFEMI@?$AAo?$AAu?$AAt?$AAp?$AAu?$AAt?$AA?$AA@ ; `string'
PUBLIC	??_C@_1BM@HCNKLGAJ@?$AAu?$AAs?$AAe?$AAD?$AAi?$AAs?$AAt?$AAo?$AAr?$AAt?$AAi?$AAo?$AAn?$AA?$AA@ ; `string'
PUBLIC	??_C@_1BM@DKGEJKPL@?$AAd?$AAi?$AAs?$AAt?$AAo?$AAr?$AAt?$AAi?$AAo?$AAn?$AAS?$AAt?$AAr?$AA?$AA@ ; `string'
PUBLIC	??_C@_19OIPKLNDO@?$AAm?$AAa?$AAp?$AA5?$AA?$AA@	; `string'
PUBLIC	??_C@_19FAEGNKFL@?$AAm?$AAa?$AAp?$AA4?$AA?$AA@	; `string'
PUBLIC	??_C@_1BA@BCHLBBAP@?$AAs?$AAa?$AAm?$AAp?$AAl?$AAe?$AAs?$AA?$AA@ ; `string'
PUBLIC	??_C@_19CCFLBDDD@?$AAs?$AAk?$AAe?$AAw?$AA?$AA@	; `string'
PUBLIC	??_C@_1BG@IBLEJHEI@?$AAr?$AAa?$AAn?$AAd?$AAo?$AAm?$AAS?$AAe?$AAe?$AAd?$AA?$AA@ ; `string'
PUBLIC	??_C@_1BM@MHGPDJM@?$AAg?$AAa?$AAi?$AAn?$AAV?$AAa?$AAr?$AAi?$AAa?$AAt?$AAi?$AAo?$AAn?$AA?$AA@ ; `string'
PUBLIC	??_C@_1BO@ECPLJFCD@?$AAw?$AAi?$AAd?$AAt?$AAh?$AAV?$AAa?$AAr?$AAi?$AAa?$AAt?$AAi?$AAo?$AAn?$AA?$AA@ ; `string'
PUBLIC	??_C@_1BE@GJBNEGJB@?$AAg?$AAr?$AAa?$AAi?$AAn?$AAL?$AAo?$AAc?$AAk?$AA?$AA@ ; `string'
PUBLIC	??_C@_1BE@HAHMKGEE@?$AAg?$AAr?$AAa?$AAi?$AAn?$AAF?$AAr?$AAe?$AAq?$AA?$AA@ ; `string'
PUBLIC	??_C@_1BC@CHOMLLBM@?$AAg?$AAr?$AAa?$AAi?$AAn?$AAS?$AAt?$AAr?$AA?$AA@ ; `string'
PUBLIC	??_C@_1BC@BKNHLGGL@?$AAa?$AAn?$AAg?$AAl?$AAe?$AAR?$AAa?$AAd?$AA?$AA@ ; `string'
PUBLIC	??_C@_1BE@GAKFLNAE@?$AAa?$AAn?$AAg?$AAl?$AAe?$AAF?$AAr?$AAe?$AAq?$AA?$AA@ ; `string'
PUBLIC	??_C@_1BC@PABECNJO@?$AAa?$AAn?$AAg?$AAl?$AAe?$AAS?$AAt?$AAr?$AA?$AA@ ; `string'
PUBLIC	??_C@_1BA@JLDBLEIA@?$AAr?$AAa?$AAd?$AAi?$AAa?$AAl?$AAZ?$AA?$AA@ ; `string'
PUBLIC	??_C@_1BG@BKHLNMEC@?$AAr?$AAa?$AAd?$AAi?$AAa?$AAl?$AAF?$AAr?$AAe?$AAq?$AA?$AA@ ; `string'
PUBLIC	??_C@_1BE@MAEEJBGC@?$AAr?$AAa?$AAd?$AAi?$AAa?$AAl?$AAS?$AAt?$AAr?$AA?$AA@ ; `string'
PUBLIC	??_C@_1BE@PAGLOPGC@?$AAt?$AAr?$AAu?$AAn?$AAk?$AAF?$AAr?$AAe?$AAq?$AA?$AA@ ; `string'
PUBLIC	??_C@_1BC@OGGKLNK@?$AAt?$AAr?$AAu?$AAn?$AAk?$AAS?$AAt?$AAr?$AA?$AA@ ; `string'
PUBLIC	??_C@_1BC@PCCOIOPC@?$AAw?$AAo?$AAo?$AAd?$AAT?$AAy?$AAp?$AAe?$AA?$AA@ ; `string'
PUBLIC	??_C@_1BE@OPFLOLOL@?$AAt?$AAr?$AAe?$AAs?$AAh?$AAH?$AAi?$AAg?$AAh?$AA?$AA@ ; `string'
PUBLIC	??_C@_1BC@OKAAOBEK@?$AAt?$AAr?$AAe?$AAs?$AAh?$AAL?$AAo?$AAw?$AA?$AA@ ; `string'
PUBLIC	??_C@_19GIOODLBE@?$AAs?$AAi?$AAz?$AAe?$AA?$AA@	; `string'
PUBLIC	??_C@_1BI@KDPPAPEG@?$AAm?$AAa?$AAp?$AA3?$AAE?$AAn?$AAa?$AAb?$AAl?$AAe?$AAd?$AA?$AA@ ; `string'
PUBLIC	??_C@_1BI@EMKNLJKH@?$AAm?$AAa?$AAp?$AA2?$AAE?$AAn?$AAa?$AAb?$AAl?$AAe?$AAd?$AA?$AA@ ; `string'
PUBLIC	??_C@_1BI@KGCLGEMF@?$AAm?$AAa?$AAp?$AA1?$AAE?$AAn?$AAa?$AAb?$AAl?$AAe?$AAd?$AA?$AA@ ; `string'
PUBLIC	??_C@_19MNJBOCOC@?$AAm?$AAa?$AAp?$AA3?$AA?$AA@	; `string'
PUBLIC	??_C@_19HFCNIFIH@?$AAm?$AAa?$AAp?$AA2?$AA?$AA@	; `string'
PUBLIC	??_C@_19GHJICKGJ@?$AAm?$AAa?$AAp?$AA1?$AA?$AA@	; `string'
PUBLIC	??_C@_1O@OCFKHCNP@?$AAc?$AAo?$AAl?$AAo?$AAr?$AA3?$AA?$AA@ ; `string'
PUBLIC	??_C@_1O@FKOGBFLK@?$AAc?$AAo?$AAl?$AAo?$AAr?$AA2?$AA?$AA@ ; `string'
PUBLIC	??_C@_1O@EIFDLKFE@?$AAc?$AAo?$AAl?$AAo?$AAr?$AA1?$AA?$AA@ ; `string'
PUBLIC	??_C@_1O@FEMBPDGM@?$AAp?$AAa?$AAr?$AAa?$AAm?$AAs?$AA?$AA@ ; `string'
PUBLIC	??_C@_1O@ILILCEBJ@?$AAi?$AA?5?$AA?$DO?$AA?$DN?$AA?5?$AA0?$AA?$AA@ ; `string'
PUBLIC	??_C@_1BM@LKPLBAOF@?$AAb?$AAm?$AAa?$AAp?$AA1?$AA6?$AAE?$AAn?$AAa?$AAb?$AAl?$AAe?$AAd?$AA?$AA@ ; `string'
PUBLIC	??_C@_1O@HNBJCNPB@?$AAb?$AAm?$AAa?$AAp?$AA1?$AA6?$AA?$AA@ ; `string'
PUBLIC	??_C@_1BM@FAHNMNIH@?$AAb?$AAm?$AAa?$AAp?$AA1?$AA5?$AAE?$AAn?$AAa?$AAb?$AAl?$AAe?$AAd?$AA?$AA@ ; `string'
PUBLIC	??_C@_1O@GPKMICBP@?$AAb?$AAm?$AAa?$AAp?$AA1?$AA5?$AA?$AA@ ; `string'
PUBLIC	??_C@_1BM@LPCPHLGG@?$AAb?$AAm?$AAa?$AAp?$AA1?$AA4?$AAE?$AAn?$AAa?$AAb?$AAl?$AAe?$AAd?$AA?$AA@ ; `string'
PUBLIC	??_C@_1O@NHBAOFHK@?$AAb?$AAm?$AAa?$AAp?$AA1?$AA4?$AA?$AA@ ; `string'
PUBLIC	??_C@_1BM@FOABHBAC@?$AAb?$AAm?$AAa?$AAp?$AA1?$AA3?$AAE?$AAn?$AAa?$AAb?$AAl?$AAe?$AAd?$AA?$AA@ ; `string'
PUBLIC	??_C@_1O@EKMHNNMD@?$AAb?$AAm?$AAa?$AAp?$AA1?$AA3?$AA?$AA@ ; `string'
PUBLIC	??_C@_1BM@LBFDMHOD@?$AAb?$AAm?$AAa?$AAp?$AA1?$AA2?$AAE?$AAn?$AAa?$AAb?$AAl?$AAe?$AAd?$AA?$AA@ ; `string'
PUBLIC	??_C@_1O@PCHLLKKG@?$AAb?$AAm?$AAa?$AAp?$AA1?$AA2?$AA?$AA@ ; `string'
PUBLIC	??_C@_1BM@FLNFBKIB@?$AAb?$AAm?$AAa?$AAp?$AA1?$AA1?$AAE?$AAn?$AAa?$AAb?$AAl?$AAe?$AAd?$AA?$AA@ ; `string'
PUBLIC	??_C@_1O@OAMOBFEI@?$AAb?$AAm?$AAa?$AAp?$AA1?$AA1?$AA?$AA@ ; `string'
PUBLIC	??_C@_1BM@LEIHKMGA@?$AAb?$AAm?$AAa?$AAp?$AA1?$AA0?$AAE?$AAn?$AAa?$AAb?$AAl?$AAe?$AAd?$AA?$AA@ ; `string'
PUBLIC	??_C@_1O@FIHCHCCN@?$AAb?$AAm?$AAa?$AAp?$AA1?$AA0?$AA?$AA@ ; `string'
PUBLIC	??_C@_1BK@ODBCCCCG@?$AAb?$AAm?$AAa?$AAp?$AA9?$AAE?$AAn?$AAa?$AAb?$AAl?$AAe?$AAd?$AA?$AA@ ; `string'
PUBLIC	??_C@_1M@POBKFOAI@?$AAb?$AAm?$AAa?$AAp?$AA9?$AA?$AA@ ; `string'
PUBLIC	??_C@_1BK@MEAJEMH@?$AAb?$AAm?$AAa?$AAp?$AA8?$AAE?$AAn?$AAa?$AAb?$AAl?$AAe?$AAd?$AA?$AA@ ; `string'
PUBLIC	??_C@_1M@EGKGDJGN@?$AAb?$AAm?$AAa?$AAp?$AA8?$AA?$AA@ ; `string'
PUBLIC	??_C@_1BK@PKDPDAKP@?$AAb?$AAm?$AAa?$AAp?$AA7?$AAE?$AAn?$AAa?$AAb?$AAl?$AAe?$AAd?$AA?$AA@ ; `string'
PUBLIC	??_C@_1M@BOMFCJDL@?$AAb?$AAm?$AAa?$AAp?$AA7?$AA?$AA@ ; `string'
PUBLIC	??_C@_1BK@BFGNIGEO@?$AAb?$AAm?$AAa?$AAp?$AA6?$AAE?$AAn?$AAa?$AAb?$AAl?$AAe?$AAd?$AA?$AA@ ; `string'
PUBLIC	??_C@_1M@KGHJEOFO@?$AAb?$AAm?$AAa?$AAp?$AA6?$AA?$AA@ ; `string'
PUBLIC	??_C@_1BK@PPOLFLCM@?$AAb?$AAm?$AAa?$AAp?$AA5?$AAE?$AAn?$AAa?$AAb?$AAl?$AAe?$AAd?$AA?$AA@ ; `string'
PUBLIC	??_C@_1M@LEMMOBLA@?$AAb?$AAm?$AAa?$AAp?$AA5?$AA?$AA@ ; `string'
PUBLIC	??_C@_1BK@BALJONMN@?$AAb?$AAm?$AAa?$AAp?$AA4?$AAE?$AAn?$AAa?$AAb?$AAl?$AAe?$AAd?$AA?$AA@ ; `string'
PUBLIC	??_C@_1M@MHAIGNF@?$AAb?$AAm?$AAa?$AAp?$AA4?$AA?$AA@ ; `string'
PUBLIC	??_C@_1BK@PBJHOHKJ@?$AAb?$AAm?$AAa?$AAp?$AA3?$AAE?$AAn?$AAa?$AAb?$AAl?$AAe?$AAd?$AA?$AA@ ; `string'
PUBLIC	??_C@_1M@JBKHLOGM@?$AAb?$AAm?$AAa?$AAp?$AA3?$AA?$AA@ ; `string'
PUBLIC	??_C@_1BK@BOMFFBEI@?$AAb?$AAm?$AAa?$AAp?$AA2?$AAE?$AAn?$AAa?$AAb?$AAl?$AAe?$AAd?$AA?$AA@ ; `string'
PUBLIC	??_C@_1M@CJBLNJAJ@?$AAb?$AAm?$AAa?$AAp?$AA2?$AA?$AA@ ; `string'
PUBLIC	??_C@_1BK@PEEDIMCK@?$AAb?$AAm?$AAa?$AAp?$AA1?$AAE?$AAn?$AAa?$AAb?$AAl?$AAe?$AAd?$AA?$AA@ ; `string'
PUBLIC	??_C@_1M@DLKOHGOH@?$AAb?$AAm?$AAa?$AAp?$AA1?$AA?$AA@ ; `string'
PUBLIC	?SetUserDlgProc@ClassDesc2@@UEAA_NPEAVParamBlockDesc2@@PEAVParamMap2UserDlgProc@@@Z ; ClassDesc2::SetUserDlgProc
PUBLIC	?CreateQtWidget@ClassDesc2@@UEAAPEAVQMaxParamBlockWidget@MaxSDK@@AEAVReferenceMaker@@AEAVIParamBlock2@@FAEAVWStr@@AEAH3@Z ; ClassDesc2::CreateQtWidget
PUBLIC	??_R4XYZ_Desc@@6B@				; XYZ_Desc::`RTTI Complete Object Locator'
PUBLIC	??_R0?AVXYZ_Desc@@@8				; XYZ_Desc `RTTI Type Descriptor'
PUBLIC	?CreateQtWidget@ClassDesc2@@UEAAPEAVQMaxParamBlockWidget@MaxSDK@@AEAVReferenceMaker@@AEAVIParamBlock2@@FAEAVWStr@@AEAH3AEAVClass_ID@@@Z ; ClassDesc2::CreateQtWidget
PUBLIC	??_R3XYZ_Desc@@8				; XYZ_Desc::`RTTI Class Hierarchy Descriptor'
PUBLIC	??_R2XYZ_Desc@@8				; XYZ_Desc::`RTTI Base Class Array'
PUBLIC	??_R1A@?0A@EA@XYZ_Desc@@8			; XYZ_Desc::`RTTI Base Class Descriptor at (0,-1,0,64)'
PUBLIC	??_R1A@?0A@EA@ParamBlockDesc2@@8		; ParamBlockDesc2::`RTTI Base Class Descriptor at (0,-1,0,64)'
PUBLIC	??_R0?AVParamBlockDesc2@@@8			; ParamBlockDesc2 `RTTI Type Descriptor'
PUBLIC	??_R3ParamBlockDesc2@@8				; ParamBlockDesc2::`RTTI Class Hierarchy Descriptor'
PUBLIC	??_R2ParamBlockDesc2@@8				; ParamBlockDesc2::`RTTI Base Class Array'
PUBLIC	??_R1BJ@?0A@EA@Noncopyable@Util@MaxSDK@@8	; MaxSDK::Util::Noncopyable::`RTTI Base Class Descriptor at (25,-1,0,64)'
PUBLIC	??_R1BJ@?0A@EC@MaxHeapOperators@@8		; MaxHeapOperators::`RTTI Base Class Descriptor at (25,-1,0,66)'
PUBLIC	??_R4BerconWoodClassDesc@@6B@			; BerconWoodClassDesc::`RTTI Complete Object Locator'
PUBLIC	??_R0?AVBerconWoodClassDesc@@@8			; BerconWoodClassDesc `RTTI Type Descriptor'
PUBLIC	??_R3BerconWoodClassDesc@@8			; BerconWoodClassDesc::`RTTI Class Hierarchy Descriptor'
PUBLIC	??_R2BerconWoodClassDesc@@8			; BerconWoodClassDesc::`RTTI Base Class Array'
PUBLIC	??_R1A@?0A@EA@BerconWoodClassDesc@@8		; BerconWoodClassDesc::`RTTI Base Class Descriptor at (0,-1,0,64)'
PUBLIC	??_R1A@?0A@EA@ClassDesc2@@8			; ClassDesc2::`RTTI Base Class Descriptor at (0,-1,0,64)'
PUBLIC	??_R0?AVClassDesc2@@@8				; ClassDesc2 `RTTI Type Descriptor'
PUBLIC	??_R3ClassDesc2@@8				; ClassDesc2::`RTTI Class Hierarchy Descriptor'
PUBLIC	??_R2ClassDesc2@@8				; ClassDesc2::`RTTI Base Class Array'
PUBLIC	??_7XYZ_Desc@@6B@				; XYZ_Desc::`vftable'
PUBLIC	??_GXYZ_Desc@@UEAAPEAXI@Z			; XYZ_Desc::`scalar deleting destructor'
PUBLIC	??_R4TabOutOfRangeException@Util@MaxSDK@@6B@	; MaxSDK::Util::TabOutOfRangeException::`RTTI Complete Object Locator'
PUBLIC	??_R3TabOutOfRangeException@Util@MaxSDK@@8	; MaxSDK::Util::TabOutOfRangeException::`RTTI Class Hierarchy Descriptor'
PUBLIC	??_R2TabOutOfRangeException@Util@MaxSDK@@8	; MaxSDK::Util::TabOutOfRangeException::`RTTI Base Class Array'
PUBLIC	??_C@_1BM@LCALCDFD@?$AAx?$AAy?$AAz?$AA_?$AAf?$AAi?$AAl?$AAt?$AAe?$AAr?$AAi?$AAn?$AAg?$AA?$AA@ ; `string'
PUBLIC	??_R1A@?0A@EA@TabOutOfRangeException@Util@MaxSDK@@8 ; MaxSDK::Util::TabOutOfRangeException::`RTTI Base Class Descriptor at (0,-1,0,64)'
PUBLIC	??_C@_1BC@JCCAEAIN@?$AAx?$AAy?$AAz?$AA_?$AAl?$AAo?$AAc?$AAk?$AA?$AA@ ; `string'
PUBLIC	??_R1A@?0A@EA@OutOfRangeException@Util@MaxSDK@@8 ; MaxSDK::Util::OutOfRangeException::`RTTI Base Class Descriptor at (0,-1,0,64)'
PUBLIC	??_C@_1BK@FLPLJMAJ@?$AAx?$AAy?$AAz?$AA_?$AAa?$AAn?$AAg?$AAl?$AAe?$AA_?$AAz?$AA2?$AA?$AA@ ; `string'
PUBLIC	??_R3OutOfRangeException@Util@MaxSDK@@8		; MaxSDK::Util::OutOfRangeException::`RTTI Class Hierarchy Descriptor'
PUBLIC	??_C@_1BK@NNGPOOKH@?$AAx?$AAy?$AAz?$AA_?$AAa?$AAn?$AAg?$AAl?$AAe?$AA_?$AAy?$AA2?$AA?$AA@ ; `string'
PUBLIC	??_R2OutOfRangeException@Util@MaxSDK@@8		; MaxSDK::Util::OutOfRangeException::`RTTI Base Class Array'
PUBLIC	??_C@_1BK@BGDDDNAC@?$AAx?$AAy?$AAz?$AA_?$AAa?$AAn?$AAg?$AAl?$AAe?$AA_?$AAx?$AA2?$AA?$AA@ ; `string'
PUBLIC	??_R1A@?0A@EA@Exception@Util@MaxSDK@@8		; MaxSDK::Util::Exception::`RTTI Base Class Descriptor at (0,-1,0,64)'
PUBLIC	??_C@_1BI@MHJCJGME@?$AAx?$AAy?$AAz?$AA_?$AAs?$AAi?$AAz?$AAe?$AA_?$AAz?$AA2?$AA?$AA@ ; `string'
PUBLIC	??_R3Exception@Util@MaxSDK@@8			; MaxSDK::Util::Exception::`RTTI Class Hierarchy Descriptor'
PUBLIC	??_C@_1BI@EBAGOEGK@?$AAx?$AAy?$AAz?$AA_?$AAs?$AAi?$AAz?$AAe?$AA_?$AAy?$AA2?$AA?$AA@ ; `string'
PUBLIC	??_R2Exception@Util@MaxSDK@@8			; MaxSDK::Util::Exception::`RTTI Base Class Array'
PUBLIC	??_C@_1BI@IKFKDHMP@?$AAx?$AAy?$AAz?$AA_?$AAs?$AAi?$AAz?$AAe?$AA_?$AAx?$AA2?$AA?$AA@ ; `string'
PUBLIC	??_R17?0A@EA@MaxHeapOperators@@8		; MaxHeapOperators::`RTTI Base Class Descriptor at (8,-1,0,64)'
PUBLIC	??_C@_1BM@HJOOPID@?$AAx?$AAy?$AAz?$AA_?$AAo?$AAf?$AAf?$AAs?$AAe?$AAt?$AA_?$AAz?$AA2?$AA?$AA@ ; `string'
PUBLIC	??_R3MaxHeapOperators@@8			; MaxHeapOperators::`RTTI Class Hierarchy Descriptor'
PUBLIC	??_C@_1BM@IBAKJNCN@?$AAx?$AAy?$AAz?$AA_?$AAo?$AAf?$AAf?$AAs?$AAe?$AAt?$AA_?$AAy?$AA2?$AA?$AA@ ; `string'
PUBLIC	??_R2MaxHeapOperators@@8			; MaxHeapOperators::`RTTI Base Class Array'
PUBLIC	??_C@_1BM@EKFGEOII@?$AAx?$AAy?$AAz?$AA_?$AAo?$AAf?$AAf?$AAs?$AAe?$AAt?$AA_?$AAx?$AA2?$AA?$AA@ ; `string'
PUBLIC	??_R1A@?0A@EA@MaxHeapOperators@@8		; MaxHeapOperators::`RTTI Base Class Descriptor at (0,-1,0,64)'
PUBLIC	??_C@_1BE@PALBIMHK@?$AAr?$AAa?$AAn?$AAd?$AAB?$AAy?$AAP?$AAa?$AAr?$AA?$AA@ ; `string'
PUBLIC	??_C@_1BE@EGBDKCCD@?$AAr?$AAa?$AAn?$AAd?$AAB?$AAy?$AAO?$AAb?$AAj?$AA?$AA@ ; `string'
PUBLIC	??_R0?AVInterfaceServer@@@8			; InterfaceServer `RTTI Type Descriptor'
PUBLIC	??_C@_1BE@DCGEPHFM@?$AAr?$AAa?$AAn?$AAd?$AAB?$AAy?$AAM?$AAa?$AAt?$AA?$AA@ ; `string'
PUBLIC	??_R3InterfaceServer@@8				; InterfaceServer::`RTTI Class Hierarchy Descriptor'
PUBLIC	??_C@_19HFHNPJHA@?$AAs?$AAe?$AAe?$AAd?$AA?$AA@	; `string'
PUBLIC	??_R2InterfaceServer@@8				; InterfaceServer::`RTTI Base Class Array'
PUBLIC	??_C@_1BG@EDCBABDD@?$AAx?$AAy?$AAz?$AA_?$AAt?$AAi?$AAl?$AAe?$AA_?$AAz?$AA?$AA@ ; `string'
PUBLIC	??_R1A@?0A@EA@InterfaceServer@@8		; InterfaceServer::`RTTI Base Class Descriptor at (0,-1,0,64)'
PUBLIC	??_C@_1BG@FBJEKONN@?$AAx?$AAy?$AAz?$AA_?$AAt?$AAi?$AAl?$AAe?$AA_?$AAy?$AA?$AA@ ; `string'
PUBLIC	WinbaseIsolationAwarePrivateT_UnPgpgk
PUBLIC	??_C@_1BG@OJCIMJLI@?$AAx?$AAy?$AAz?$AA_?$AAt?$AAi?$AAl?$AAe?$AA_?$AAx?$AA?$AA@ ; `string'
PUBLIC	??_R0?AVBaseInterfaceServer@@@8			; BaseInterfaceServer `RTTI Type Descriptor'
PUBLIC	??_C@_1BI@LALGELMD@?$AAx?$AAy?$AAz?$AA_?$AAa?$AAn?$AAg?$AAl?$AAe?$AA_?$AAz?$AA?$AA@ ; `string'
PUBLIC	??_R3BaseInterfaceServer@@8			; BaseInterfaceServer::`RTTI Class Hierarchy Descriptor'
PUBLIC	??_C@_1BI@KCADOECN@?$AAx?$AAy?$AAz?$AA_?$AAa?$AAn?$AAg?$AAl?$AAe?$AA_?$AAy?$AA?$AA@ ; `string'
PUBLIC	IsolationAwarePrivateT_SqbjaYRiRY
PUBLIC	??_R2BaseInterfaceServer@@8			; BaseInterfaceServer::`RTTI Base Class Array'
PUBLIC	??_C@_1BI@BKLPIDEI@?$AAx?$AAy?$AAz?$AA_?$AAa?$AAn?$AAg?$AAl?$AAe?$AA_?$AAx?$AA?$AA@ ; `string'
PUBLIC	??_R1A@?0A@EA@BaseInterfaceServer@@8		; BaseInterfaceServer::`RTTI Base Class Descriptor at (0,-1,0,64)'
PUBLIC	IsolationAwarePrivateT_SAbnPgpgk
PUBLIC	??_C@_1BG@MFMFKFM@?$AAx?$AAy?$AAz?$AA_?$AAs?$AAi?$AAz?$AAe?$AA_?$AAz?$AA?$AA@ ; `string'
PUBLIC	WinbaseIsolationAwarePrivateT_SpeRNgRQnPgpgk
PUBLIC	??_C@_1BG@BOOJPFLC@?$AAx?$AAy?$AAz?$AA_?$AAs?$AAi?$AAz?$AAe?$AA_?$AAy?$AA?$AA@ ; `string'
PUBLIC	WinbaseIsolationAwarePrivateT_SpYRNahcpNYYRQ
PUBLIC	??_C@_1BG@KGFFJCNH@?$AAx?$AAy?$AAz?$AA_?$AAs?$AAi?$AAz?$AAe?$AA_?$AAx?$AA?$AA@ ; `string'
PUBLIC	??_C@_1BK@HPJLBIGD@?$AAx?$AAy?$AAz?$AA_?$AAo?$AAf?$AAf?$AAs?$AAe?$AAt?$AA_?$AAz?$AA?$AA@ ; `string'
PUBLIC	??_C@_1BK@GNCOLHIN@?$AAx?$AAy?$AAz?$AA_?$AAo?$AAf?$AAf?$AAs?$AAe?$AAt?$AA_?$AAy?$AA?$AA@ ; `string'
PUBLIC	??_C@_1BK@NFJCNAOI@?$AAx?$AAy?$AAz?$AA_?$AAo?$AAf?$AAf?$AAs?$AAe?$AAt?$AA_?$AAx?$AA?$AA@ ; `string'
PUBLIC	??_C@_1BC@BDPIEDCA@?$AAx?$AAy?$AAz?$AA_?$AAc?$AAh?$AAa?$AAn?$AA?$AA@ ; `string'
PUBLIC	??_C@_1BA@JOBDKJKA@?$AAx?$AAy?$AAz?$AA_?$AAm?$AAa?$AAp?$AA?$AA@ ; `string'
PUBLIC	??_C@_1BA@KMAKHADK@?$AAM?$AAa?$AAp?$AAp?$AAi?$AAn?$AAg?$AA?$AA@ ; `string'
PUBLIC	??_R0?AVMaxHeapOperators@@@8			; MaxHeapOperators `RTTI Type Descriptor'
PUBLIC	_CT??_R0?AVMaxHeapOperators@@@818
PUBLIC	??_R0?AVClassDesc@@@8				; ClassDesc `RTTI Type Descriptor'
PUBLIC	??_R3ClassDesc@@8				; ClassDesc::`RTTI Class Hierarchy Descriptor'
PUBLIC	??_R2ClassDesc@@8				; ClassDesc::`RTTI Base Class Array'
PUBLIC	??_R1A@?0A@EA@ClassDesc@@8			; ClassDesc::`RTTI Base Class Descriptor at (0,-1,0,64)'
PUBLIC	??_R17?0A@EC@MaxHeapOperators@@8		; MaxHeapOperators::`RTTI Base Class Descriptor at (8,-1,0,66)'
PUBLIC	??_R0?AVNoncopyable@Util@MaxSDK@@@8		; MaxSDK::Util::Noncopyable `RTTI Type Descriptor'
PUBLIC	??_R3Noncopyable@Util@MaxSDK@@8			; MaxSDK::Util::Noncopyable::`RTTI Class Hierarchy Descriptor'
PUBLIC	??_R2Noncopyable@Util@MaxSDK@@8			; MaxSDK::Util::Noncopyable::`RTTI Base Class Array'
PUBLIC	??_R1A@?0A@EA@Noncopyable@Util@MaxSDK@@8	; MaxSDK::Util::Noncopyable::`RTTI Base Class Descriptor at (0,-1,0,64)'
PUBLIC	?What@TabOutOfRangeException@Util@MaxSDK@@UEBAPEB_WXZ ; MaxSDK::Util::TabOutOfRangeException::What
PUBLIC	??_C@_15CABMMOGH@?$AAt?$AAh?$AA?$AA@		; `string'
PUBLIC	??1TabOutOfRangeException@Util@MaxSDK@@UEAA@XZ	; MaxSDK::Util::TabOutOfRangeException::~TabOutOfRangeException
PUBLIC	??_C@_1IA@CBFEGJCG@?$AAc?$AA?3?$AA?2?$AAp?$AAr?$AAo?$AAg?$AAr?$AAa?$AAm?$AA?5?$AAf?$AAi?$AAl?$AAe?$AAs?$AA?2?$AAa?$AAu?$AAt?$AAo?$AAd?$AAe?$AAs?$AAk?$AA?2?$AA3?$AAd?$AAs?$AA?5?$AAm?$AAa@ ; `string'
PUBLIC	??0TabOutOfRangeException@Util@MaxSDK@@QEAA@AEBV012@@Z ; MaxSDK::Util::TabOutOfRangeException::TabOutOfRangeException
PUBLIC	??_C@_1CI@OKLGNBMM@?$AAt?$AAh?$AA?5?$AA?$CG?$AA?$CG?$AA?5?$AAi?$AA?5?$AA?$DM?$AA?5?$AAt?$AAh?$AA?9?$AA?$DO?$AAc?$AAo?$AAu?$AAn?$AAt?$AA?$AA@ ; `string'
PUBLIC	_TI4?AVTabOutOfRangeException@Util@MaxSDK@@
PUBLIC	_CTA4?AVTabOutOfRangeException@Util@MaxSDK@@
PUBLIC	??_R0?AVTabOutOfRangeException@Util@MaxSDK@@@8	; MaxSDK::Util::TabOutOfRangeException `RTTI Type Descriptor'
PUBLIC	_CT??_R0?AVTabOutOfRangeException@Util@MaxSDK@@@8??0TabOutOfRangeException@Util@MaxSDK@@QEAA@AEBV012@@Z16
PUBLIC	??_R0?AVOutOfRangeException@Util@MaxSDK@@@8	; MaxSDK::Util::OutOfRangeException `RTTI Type Descriptor'
PUBLIC	??_7TabOutOfRangeException@Util@MaxSDK@@6B@	; MaxSDK::Util::TabOutOfRangeException::`vftable'
PUBLIC	_CT??_R0?AVOutOfRangeException@Util@MaxSDK@@@8??0OutOfRangeException@Util@MaxSDK@@QEAA@AEBV012@@Z16
PUBLIC	??_R0?AVException@Util@MaxSDK@@@8		; MaxSDK::Util::Exception `RTTI Type Descriptor'
PUBLIC	_CT??_R0?AVException@Util@MaxSDK@@@8??0Exception@Util@MaxSDK@@QEAA@AEBV012@@Z16
PUBLIC	??_GTabOutOfRangeException@Util@MaxSDK@@UEAAPEAXI@Z ; MaxSDK::Util::TabOutOfRangeException::`scalar deleting destructor'
PUBLIC	??_C@_1GI@NLEIFPEJ@?$AAI?$AAn?$AAv?$AAa?$AAl?$AAi?$AAd?$AA?5?$AAi?$AAn?$AAd?$AAe?$AAx?$AA?5?$AAp?$AAa?$AAs?$AAs?$AAe?$AAd?$AA?5?$AAi?$AAn?$AAt?$AAo?$AA?5?$AAa?$AA?5?$AAM?$AAa?$AAx?$AA?5@ ; `string'
PUBLIC	??_C@_1EK@FOLBONAG@?$AAM?$AAa?$AAx?$AAS?$AAD?$AAK?$AA?3?$AA?3?$AAU?$AAt?$AAi?$AAl?$AA?3?$AA?3?$AAT?$AAa?$AAb?$AAO?$AAu?$AAt?$AAO?$AAf?$AAR?$AAa?$AAn?$AAg?$AAe?$AAE?$AAx?$AAc?$AAe?$AAp@ ; `string'
PUBLIC	?texoutDlg@BerconWood@@2PEAVParamDlg@@EA	; BerconWood::texoutDlg
PUBLIC	?BeginCreate@ClassDesc@@UEAAHPEAVInterface@@@Z	; ClassDesc::BeginCreate
PUBLIC	?EndCreate@ClassDesc@@UEAAHPEAVInterface@@@Z	; ClassDesc::EndCreate
PUBLIC	?OkToCreate@ClassDesc@@UEAAHPEAVInterface@@@Z	; ClassDesc::OkToCreate
PUBLIC	?HasClassParams@ClassDesc@@UEAAHXZ		; ClassDesc::HasClassParams
PUBLIC	?EditClassParams@ClassDesc@@UEAAXPEAUHWND__@@@Z	; ClassDesc::EditClassParams
PUBLIC	?NumActionTables@ClassDesc@@UEAAHXZ		; ClassDesc::NumActionTables
PUBLIC	?GetActionTable@ClassDesc@@UEAAPEAVActionTable@@H@Z ; ClassDesc::GetActionTable
PUBLIC	?IsManipulator@ClassDesc@@UEAAHXZ		; ClassDesc::IsManipulator
PUBLIC	?CanManipulate@ClassDesc@@UEAAHPEAVReferenceTarget@@@Z ; ClassDesc::CanManipulate
PUBLIC	?CanManipulateNode@ClassDesc@@UEAAHPEAVINode@@@Z ; ClassDesc::CanManipulateNode
PUBLIC	?CreateManipulator@ClassDesc@@UEAAPEAVManipulator@@PEAVReferenceTarget@@PEAVINode@@@Z ; ClassDesc::CreateManipulator
PUBLIC	?CreateManipulator@ClassDesc@@UEAAPEAVManipulator@@PEAVINode@@@Z ; ClassDesc::CreateManipulator
PUBLIC	?NeedsToSave@ClassDesc@@UEAAHXZ			; ClassDesc::NeedsToSave
PUBLIC	?Save@ClassDesc@@UEAA?AW4IOResult@@PEAVISave@@@Z ; ClassDesc::Save
PUBLIC	?Load@ClassDesc@@UEAA?AW4IOResult@@PEAVILoad@@@Z ; ClassDesc::Load
PUBLIC	?InitialRollupPageState@ClassDesc@@UEAAKXZ	; ClassDesc::InitialRollupPageState
PUBLIC	?UseOnlyInternalNameForMAXScriptExposure@ClassDesc@@UEAA_NXZ ; ClassDesc::UseOnlyInternalNameForMAXScriptExposure
PUBLIC	?GetParamMap@ClassDesc@@UEAAPEAVIParamMap2@@PEAVParamBlockDesc2@@@Z ; ClassDesc::GetParamMap
PUBLIC	?GetUserDlgProc@ClassDesc@@UEAAPEAVParamMap2UserDlgProc@@PEAVParamBlockDesc2@@@Z ; ClassDesc::GetUserDlgProc
PUBLIC	?DrawRepresentation@ClassDesc@@UEAA_NKPEAUHDC__@@AEAVBox2@@@Z ; ClassDesc::DrawRepresentation
PUBLIC	?NumInterfaces@ClassDesc@@UEAAHXZ		; ClassDesc::NumInterfaces
PUBLIC	?GetInterfaceAt@ClassDesc@@UEAAPEAVFPInterface@@H@Z ; ClassDesc::GetInterfaceAt
PUBLIC	?ClearInterfaces@ClassDesc@@UEAAXXZ		; ClassDesc::ClearInterfaces
PUBLIC	?SubClassID@ClassDesc@@UEAA?AVClass_ID@@XZ	; ClassDesc::SubClassID
PUBLIC	?Execute@ClassDesc@@UEAA_JH_K00@Z		; ClassDesc::Execute
PUBLIC	?IsPublic@BerconWoodClassDesc@@UEAAHXZ		; BerconWoodClassDesc::IsPublic
PUBLIC	?Create@BerconWoodClassDesc@@UEAAPEAXH@Z	; BerconWoodClassDesc::Create
PUBLIC	?ClassName@BerconWoodClassDesc@@UEAAPEB_WXZ	; BerconWoodClassDesc::ClassName
PUBLIC	?SuperClassID@BerconWoodClassDesc@@UEAAKXZ	; BerconWoodClassDesc::SuperClassID
PUBLIC	?ClassID@BerconWoodClassDesc@@UEAA?AVClass_ID@@XZ ; BerconWoodClassDesc::ClassID
PUBLIC	?Category@BerconWoodClassDesc@@UEAAPEB_WXZ	; BerconWoodClassDesc::Category
PUBLIC	?InternalName@BerconWoodClassDesc@@UEAAPEB_WXZ	; BerconWoodClassDesc::InternalName
PUBLIC	?HInstance@BerconWoodClassDesc@@UEAAPEAUHINSTANCE__@@XZ ; BerconWoodClassDesc::HInstance
PUBLIC	??_7BerconWoodClassDesc@@6B@			; BerconWoodClassDesc::`vftable'
PUBLIC	??_GBerconWoodClassDesc@@UEAAPEAXI@Z		; BerconWoodClassDesc::`scalar deleting destructor'
PUBLIC	??_C@_1BG@GPLMDENA@?$AAB?$AAe?$AAr?$AAc?$AAo?$AAn?$AAW?$AAo?$AAo?$AAd?$AA?$AA@ ; `string'
PUBLIC	??_C@_1EM@PJAEPBLB@?$AAT?$AAa?$AAb?$AA?$DM?$AAc?$AAl?$AAa?$AAs?$AAs?$AA?5?$AAF?$AAP?$AAI?$AAn?$AAt?$AAe?$AAr?$AAf?$AAa?$AAc?$AAe?$AA?5?$AA?$CK?$AA?$DO?$AA?3?$AA?3?$AAo?$AAp?$AAe?$AAr?$AAa?$AAt@ ; `string'
EXTRN	??_7type_info@@6B@:BYTE				; type_info::`vftable'
EXTRN	GUID_NULL:BYTE
EXTRN	?GetInterface@BaseInterfaceServer@@UEAAPEAVBaseInterface@@VInterface_ID@@@Z:PROC ; BaseInterfaceServer::GetInterface
EXTRN	?NumInterfaces@BaseInterfaceServer@@UEBAHXZ:PROC ; BaseInterfaceServer::NumInterfaces
EXTRN	?GetInterfaceAt@BaseInterfaceServer@@UEBAPEAVBaseInterface@@H@Z:PROC ; BaseInterfaceServer::GetInterfaceAt
EXTRN	?ResetClassParams@ClassDesc2@@UEAAXH@Z:PROC	; ClassDesc2::ResetClassParams
EXTRN	?GetParamBlockDescByID@ClassDesc2@@UEAAPEAVParamBlockDesc2@@F@Z:PROC ; ClassDesc2::GetParamBlockDescByID
EXTRN	?AddParamBlockDesc@ClassDesc2@@UEAAXPEAVParamBlockDesc2@@@Z:PROC ; ClassDesc2::AddParamBlockDesc
EXTRN	?BeginEditParams@ClassDesc2@@UEAAXPEAVIObjParam@@PEAVReferenceMaker@@KPEAVAnimatable@@@Z:PROC ; ClassDesc2::BeginEditParams
EXTRN	?EndEditParams@ClassDesc2@@UEAAXPEAVIObjParam@@PEAVReferenceMaker@@KPEAVAnimatable@@@Z:PROC ; ClassDesc2::EndEditParams
EXTRN	?InvalidateUI@ClassDesc2@@UEAAXPEAVParamBlockDesc2@@@Z:PROC ; ClassDesc2::InvalidateUI
EXTRN	?MakeAutoParamBlocks@ClassDesc2@@UEAAXPEAVReferenceMaker@@@Z:PROC ; ClassDesc2::MakeAutoParamBlocks
EXTRN	??0Exception@Util@MaxSDK@@QEAA@AEBV012@@Z:PROC	; MaxSDK::Util::Exception::Exception
EXTRN	__imp_?TEXMAP_CAT_3D@@3PA_WA:BYTE
EXTRN	??_EXYZ_Desc@@UEAAPEAXI@Z:PROC			; XYZ_Desc::`vector deleting destructor'
EXTRN	?GetRsrcString@ClassDesc@@UEAAPEB_W_J@Z:PROC	; ClassDesc::GetRsrcString
EXTRN	?GetInterface@ClassDesc@@UEAAPEAVFPInterface@@PEB_W@Z:PROC ; ClassDesc::GetInterface
EXTRN	?GetInterface@ClassDesc@@UEAAPEAVFPInterface@@VInterface_ID@@@Z:PROC ; ClassDesc::GetInterface
EXTRN	?AddInterface@ClassDesc@@UEAAXPEAVFPInterface@@@Z:PROC ; ClassDesc::AddInterface
EXTRN	??0OutOfRangeException@Util@MaxSDK@@QEAA@AEBV012@@Z:PROC ; MaxSDK::Util::OutOfRangeException::OutOfRangeException
EXTRN	??_ETabOutOfRangeException@Util@MaxSDK@@UEAAPEAXI@Z:PROC ; MaxSDK::Util::TabOutOfRangeException::`vector deleting destructor'
EXTRN	?hInstance@@3PEAUHINSTANCE__@@EA:QWORD		; hInstance
EXTRN	??_EBerconWoodClassDesc@@UEAAPEAXI@Z:PROC	; BerconWoodClassDesc::`vector deleting destructor'
EXTRN	?NumParamBlockDescs@ClassDesc2@@UEAAHXZ:PROC	; ClassDesc2::NumParamBlockDescs
EXTRN	?GetParamBlockDesc@ClassDesc2@@UEAAPEAVParamBlockDesc2@@H@Z:PROC ; ClassDesc2::GetParamBlockDesc
EXTRN	?NumParamMaps@ClassDesc2@@UEAAHXZ:PROC		; ClassDesc2::NumParamMaps
EXTRN	?GetParamMap@ClassDesc2@@UEAAPEAVIParamMap2@@H@Z:PROC ; ClassDesc2::GetParamMap
;	COMDAT IsolationAwarePrivateT_SqbjaYRiRY
_BSS	SEGMENT
IsolationAwarePrivateT_SqbjaYRiRY DD 01H DUP (?)
_BSS	ENDS
;	COMDAT IsolationAwarePrivateT_SAbnPgpgk
_BSS	SEGMENT
IsolationAwarePrivateT_SAbnPgpgk DD 01H DUP (?)
_BSS	ENDS
;	COMDAT WinbaseIsolationAwarePrivateT_SpeRNgRQnPgpgk
_BSS	SEGMENT
WinbaseIsolationAwarePrivateT_SpeRNgRQnPgpgk DD 01H DUP (?)
_BSS	ENDS
;	COMDAT WinbaseIsolationAwarePrivateT_SpYRNahcpNYYRQ
_BSS	SEGMENT
WinbaseIsolationAwarePrivateT_SpYRNahcpNYYRQ DD 01H DUP (?)
_BSS	ENDS
_BSS	SEGMENT
?texoutDlg@BerconWood@@2PEAVParamDlg@@EA DQ 01H DUP (?)	; BerconWood::texoutDlg
_BSS	ENDS
;	COMDAT ??_C@_1EM@PJAEPBLB@?$AAT?$AAa?$AAb?$AA?$DM?$AAc?$AAl?$AAa?$AAs?$AAs?$AA?5?$AAF?$AAP?$AAI?$AAn?$AAt?$AAe?$AAr?$AAf?$AAa?$AAc?$AAe?$AA?5?$AA?$CK?$AA?$DO?$AA?3?$AA?3?$AAo?$AAp?$AAe?$AAr?$AAa?$AAt@
CONST	SEGMENT
??_C@_1EM@PJAEPBLB@?$AAT?$AAa?$AAb?$AA?$DM?$AAc?$AAl?$AAa?$AAs?$AAs?$AA?5?$AAF?$AAP?$AAI?$AAn?$AAt?$AAe?$AAr?$AAf?$AAa?$AAc?$AAe?$AA?5?$AA?$CK?$AA?$DO?$AA?3?$AA?3?$AAo?$AAp?$AAe?$AAr?$AAa?$AAt@ DB 'T'
	DB	00H, 'a', 00H, 'b', 00H, '<', 00H, 'c', 00H, 'l', 00H, 'a', 00H
	DB	's', 00H, 's', 00H, ' ', 00H, 'F', 00H, 'P', 00H, 'I', 00H, 'n'
	DB	00H, 't', 00H, 'e', 00H, 'r', 00H, 'f', 00H, 'a', 00H, 'c', 00H
	DB	'e', 00H, ' ', 00H, '*', 00H, '>', 00H, ':', 00H, ':', 00H, 'o'
	DB	00H, 'p', 00H, 'e', 00H, 'r', 00H, 'a', 00H, 't', 00H, 'o', 00H
	DB	'r', 00H, ' ', 00H, '[', 00H, ']', 00H, 00H, 00H ; `string'
CONST	ENDS
;	COMDAT ??_C@_1BG@GPLMDENA@?$AAB?$AAe?$AAr?$AAc?$AAo?$AAn?$AAW?$AAo?$AAo?$AAd?$AA?$AA@
CONST	SEGMENT
??_C@_1BG@GPLMDENA@?$AAB?$AAe?$AAr?$AAc?$AAo?$AAn?$AAW?$AAo?$AAo?$AAd?$AA?$AA@ DB 'B'
	DB	00H, 'e', 00H, 'r', 00H, 'c', 00H, 'o', 00H, 'n', 00H, 'W', 00H
	DB	'o', 00H, 'o', 00H, 'd', 00H, 00H, 00H	; `string'
CONST	ENDS
;	COMDAT ??_7BerconWoodClassDesc@@6B@
CONST	SEGMENT
??_7BerconWoodClassDesc@@6B@ DQ FLAT:??_R4BerconWoodClassDesc@@6B@ ; BerconWoodClassDesc::`vftable'
	DQ	FLAT:??_EBerconWoodClassDesc@@UEAAPEAXI@Z
	DQ	FLAT:?IsPublic@BerconWoodClassDesc@@UEAAHXZ
	DQ	FLAT:?Create@BerconWoodClassDesc@@UEAAPEAXH@Z
	DQ	FLAT:?BeginCreate@ClassDesc@@UEAAHPEAVInterface@@@Z
	DQ	FLAT:?EndCreate@ClassDesc@@UEAAHPEAVInterface@@@Z
	DQ	FLAT:?OkToCreate@ClassDesc@@UEAAHPEAVInterface@@@Z
	DQ	FLAT:?ClassName@BerconWoodClassDesc@@UEAAPEB_WXZ
	DQ	FLAT:?SuperClassID@BerconWoodClassDesc@@UEAAKXZ
	DQ	FLAT:?ClassID@BerconWoodClassDesc@@UEAA?AVClass_ID@@XZ
	DQ	FLAT:?Category@BerconWoodClassDesc@@UEAAPEB_WXZ
	DQ	FLAT:?HasClassParams@ClassDesc@@UEAAHXZ
	DQ	FLAT:?EditClassParams@ClassDesc@@UEAAXPEAUHWND__@@@Z
	DQ	FLAT:?ResetClassParams@ClassDesc2@@UEAAXH@Z
	DQ	FLAT:?NumActionTables@ClassDesc@@UEAAHXZ
	DQ	FLAT:?GetActionTable@ClassDesc@@UEAAPEAVActionTable@@H@Z
	DQ	FLAT:?IsManipulator@ClassDesc@@UEAAHXZ
	DQ	FLAT:?CanManipulate@ClassDesc@@UEAAHPEAVReferenceTarget@@@Z
	DQ	FLAT:?CanManipulateNode@ClassDesc@@UEAAHPEAVINode@@@Z
	DQ	FLAT:?CreateManipulator@ClassDesc@@UEAAPEAVManipulator@@PEAVINode@@@Z
	DQ	FLAT:?CreateManipulator@ClassDesc@@UEAAPEAVManipulator@@PEAVReferenceTarget@@PEAVINode@@@Z
	DQ	FLAT:?NeedsToSave@ClassDesc@@UEAAHXZ
	DQ	FLAT:?Save@ClassDesc@@UEAA?AW4IOResult@@PEAVISave@@@Z
	DQ	FLAT:?Load@ClassDesc@@UEAA?AW4IOResult@@PEAVILoad@@@Z
	DQ	FLAT:?InitialRollupPageState@ClassDesc@@UEAAKXZ
	DQ	FLAT:?InternalName@BerconWoodClassDesc@@UEAAPEB_WXZ
	DQ	FLAT:?UseOnlyInternalNameForMAXScriptExposure@ClassDesc@@UEAA_NXZ
	DQ	FLAT:?HInstance@BerconWoodClassDesc@@UEAAPEAUHINSTANCE__@@XZ
	DQ	FLAT:?NumParamBlockDescs@ClassDesc2@@UEAAHXZ
	DQ	FLAT:?GetParamBlockDesc@ClassDesc2@@UEAAPEAVParamBlockDesc2@@H@Z
	DQ	FLAT:?GetParamBlockDescByID@ClassDesc2@@UEAAPEAVParamBlockDesc2@@F@Z
	DQ	FLAT:?AddParamBlockDesc@ClassDesc2@@UEAAXPEAVParamBlockDesc2@@@Z
	DQ	FLAT:?BeginEditParams@ClassDesc2@@UEAAXPEAVIObjParam@@PEAVReferenceMaker@@KPEAVAnimatable@@@Z
	DQ	FLAT:?EndEditParams@ClassDesc2@@UEAAXPEAVIObjParam@@PEAVReferenceMaker@@KPEAVAnimatable@@@Z
	DQ	FLAT:?InvalidateUI@ClassDesc2@@UEAAXPEAVParamBlockDesc2@@@Z
	DQ	FLAT:?GetRsrcString@ClassDesc@@UEAAPEB_W_J@Z
	DQ	FLAT:?MakeAutoParamBlocks@ClassDesc2@@UEAAXPEAVReferenceMaker@@@Z
	DQ	FLAT:?NumParamMaps@ClassDesc2@@UEAAHXZ
	DQ	FLAT:?GetParamMap@ClassDesc@@UEAAPEAVIParamMap2@@PEAVParamBlockDesc2@@@Z
	DQ	FLAT:?GetParamMap@ClassDesc2@@UEAAPEAVIParamMap2@@H@Z
	DQ	FLAT:?SetUserDlgProc@ClassDesc2@@UEAA_NPEAVParamBlockDesc2@@PEAVParamMap2UserDlgProc@@@Z
	DQ	FLAT:?GetUserDlgProc@ClassDesc@@UEAAPEAVParamMap2UserDlgProc@@PEAVParamBlockDesc2@@@Z
	DQ	FLAT:?DrawRepresentation@ClassDesc@@UEAA_NKPEAUHDC__@@AEAVBox2@@@Z
	DQ	FLAT:?NumInterfaces@ClassDesc@@UEAAHXZ
	DQ	FLAT:?GetInterfaceAt@ClassDesc@@UEAAPEAVFPInterface@@H@Z
	DQ	FLAT:?GetInterface@ClassDesc@@UEAAPEAVFPInterface@@PEB_W@Z
	DQ	FLAT:?GetInterface@ClassDesc@@UEAAPEAVFPInterface@@VInterface_ID@@@Z
	DQ	FLAT:?AddInterface@ClassDesc@@UEAAXPEAVFPInterface@@@Z
	DQ	FLAT:?ClearInterfaces@ClassDesc@@UEAAXXZ
	DQ	FLAT:?SubClassID@ClassDesc@@UEAA?AVClass_ID@@XZ
	DQ	FLAT:?Execute@ClassDesc@@UEAA_JH_K00@Z
	DQ	FLAT:?CreateQtWidget@ClassDesc2@@UEAAPEAVQMaxParamBlockWidget@MaxSDK@@AEAVReferenceMaker@@AEAVIParamBlock2@@FAEAVWStr@@AEAH3AEAVClass_ID@@@Z
	DQ	FLAT:?CreateQtWidget@ClassDesc2@@UEAAPEAVQMaxParamBlockWidget@MaxSDK@@AEAVReferenceMaker@@AEAVIParamBlock2@@FAEAVWStr@@AEAH3@Z
CONST	ENDS
;	COMDAT ??_C@_1EK@FOLBONAG@?$AAM?$AAa?$AAx?$AAS?$AAD?$AAK?$AA?3?$AA?3?$AAU?$AAt?$AAi?$AAl?$AA?3?$AA?3?$AAT?$AAa?$AAb?$AAO?$AAu?$AAt?$AAO?$AAf?$AAR?$AAa?$AAn?$AAg?$AAe?$AAE?$AAx?$AAc?$AAe?$AAp@
CONST	SEGMENT
??_C@_1EK@FOLBONAG@?$AAM?$AAa?$AAx?$AAS?$AAD?$AAK?$AA?3?$AA?3?$AAU?$AAt?$AAi?$AAl?$AA?3?$AA?3?$AAT?$AAa?$AAb?$AAO?$AAu?$AAt?$AAO?$AAf?$AAR?$AAa?$AAn?$AAg?$AAe?$AAE?$AAx?$AAc?$AAe?$AAp@ DB 'M'
	DB	00H, 'a', 00H, 'x', 00H, 'S', 00H, 'D', 00H, 'K', 00H, ':', 00H
	DB	':', 00H, 'U', 00H, 't', 00H, 'i', 00H, 'l', 00H, ':', 00H, ':'
	DB	00H, 'T', 00H, 'a', 00H, 'b', 00H, 'O', 00H, 'u', 00H, 't', 00H
	DB	'O', 00H, 'f', 00H, 'R', 00H, 'a', 00H, 'n', 00H, 'g', 00H, 'e'
	DB	00H, 'E', 00H, 'x', 00H, 'c', 00H, 'e', 00H, 'p', 00H, 't', 00H
	DB	'i', 00H, 'o', 00H, 'n', 00H, 00H, 00H	; `string'
CONST	ENDS
;	COMDAT ??_C@_1GI@NLEIFPEJ@?$AAI?$AAn?$AAv?$AAa?$AAl?$AAi?$AAd?$AA?5?$AAi?$AAn?$AAd?$AAe?$AAx?$AA?5?$AAp?$AAa?$AAs?$AAs?$AAe?$AAd?$AA?5?$AAi?$AAn?$AAt?$AAo?$AA?5?$AAa?$AA?5?$AAM?$AAa?$AAx?$AA?5@
CONST	SEGMENT
??_C@_1GI@NLEIFPEJ@?$AAI?$AAn?$AAv?$AAa?$AAl?$AAi?$AAd?$AA?5?$AAi?$AAn?$AAd?$AAe?$AAx?$AA?5?$AAp?$AAa?$AAs?$AAs?$AAe?$AAd?$AA?5?$AAi?$AAn?$AAt?$AAo?$AA?5?$AAa?$AA?5?$AAM?$AAa?$AAx?$AA?5@ DB 'I'
	DB	00H, 'n', 00H, 'v', 00H, 'a', 00H, 'l', 00H, 'i', 00H, 'd', 00H
	DB	' ', 00H, 'i', 00H, 'n', 00H, 'd', 00H, 'e', 00H, 'x', 00H, ' '
	DB	00H, 'p', 00H, 'a', 00H, 's', 00H, 's', 00H, 'e', 00H, 'd', 00H
	DB	' ', 00H, 'i', 00H, 'n', 00H, 't', 00H, 'o', 00H, ' ', 00H, 'a'
	DB	00H, ' ', 00H, 'M', 00H, 'a', 00H, 'x', 00H, ' ', 00H, 'S', 00H
	DB	'D', 00H, 'K', 00H, ' ', 00H, 'T', 00H, 'a', 00H, 'b', 00H, ':'
	DB	00H, ':', 00H, 'o', 00H, 'p', 00H, 'e', 00H, 'r', 00H, 'a', 00H
	DB	't', 00H, 'o', 00H, 'r', 00H, '[', 00H, ']', 00H, 00H, 00H ; `string'
CONST	ENDS
;	COMDAT _CT??_R0?AVException@Util@MaxSDK@@@8??0Exception@Util@MaxSDK@@QEAA@AEBV012@@Z16
xdata$x	SEGMENT
_CT??_R0?AVException@Util@MaxSDK@@@8??0Exception@Util@MaxSDK@@QEAA@AEBV012@@Z16 DD 00H
	DD	imagerel ??_R0?AVException@Util@MaxSDK@@@8
	DD	00H
	DD	0ffffffffH
	ORG $+4
	DD	010H
	DD	imagerel __imp_??0Exception@Util@MaxSDK@@QEAA@AEBV012@@Z
xdata$x	ENDS
;	COMDAT ??_R0?AVException@Util@MaxSDK@@@8
data$r	SEGMENT
??_R0?AVException@Util@MaxSDK@@@8 DQ FLAT:??_7type_info@@6B@ ; MaxSDK::Util::Exception `RTTI Type Descriptor'
	DQ	0000000000000000H
	DB	'.?AVException@Util@MaxSDK@@', 00H
data$r	ENDS
;	COMDAT _CT??_R0?AVOutOfRangeException@Util@MaxSDK@@@8??0OutOfRangeException@Util@MaxSDK@@QEAA@AEBV012@@Z16
xdata$x	SEGMENT
_CT??_R0?AVOutOfRangeException@Util@MaxSDK@@@8??0OutOfRangeException@Util@MaxSDK@@QEAA@AEBV012@@Z16 DD 00H
	DD	imagerel ??_R0?AVOutOfRangeException@Util@MaxSDK@@@8
	DD	00H
	DD	0ffffffffH
	ORG $+4
	DD	010H
	DD	imagerel __imp_??0OutOfRangeException@Util@MaxSDK@@QEAA@AEBV012@@Z
xdata$x	ENDS
;	COMDAT ??_7TabOutOfRangeException@Util@MaxSDK@@6B@
CONST	SEGMENT
??_7TabOutOfRangeException@Util@MaxSDK@@6B@ DQ FLAT:??_R4TabOutOfRangeException@Util@MaxSDK@@6B@ ; MaxSDK::Util::TabOutOfRangeException::`vftable'
	DQ	FLAT:??_ETabOutOfRangeException@Util@MaxSDK@@UEAAPEAXI@Z
	DQ	FLAT:?What@TabOutOfRangeException@Util@MaxSDK@@UEBAPEB_WXZ
CONST	ENDS
;	COMDAT ??_R0?AVOutOfRangeException@Util@MaxSDK@@@8
data$r	SEGMENT
??_R0?AVOutOfRangeException@Util@MaxSDK@@@8 DQ FLAT:??_7type_info@@6B@ ; MaxSDK::Util::OutOfRangeException `RTTI Type Descriptor'
	DQ	0000000000000000H
	DB	'.?AVOutOfRangeException@Util@MaxSDK@@', 00H
data$r	ENDS
;	COMDAT _CT??_R0?AVTabOutOfRangeException@Util@MaxSDK@@@8??0TabOutOfRangeException@Util@MaxSDK@@QEAA@AEBV012@@Z16
xdata$x	SEGMENT
_CT??_R0?AVTabOutOfRangeException@Util@MaxSDK@@@8??0TabOutOfRangeException@Util@MaxSDK@@QEAA@AEBV012@@Z16 DD 00H
	DD	imagerel ??_R0?AVTabOutOfRangeException@Util@MaxSDK@@@8
	DD	00H
	DD	0ffffffffH
	ORG $+4
	DD	010H
	DD	imagerel ??0TabOutOfRangeException@Util@MaxSDK@@QEAA@AEBV012@@Z
xdata$x	ENDS
;	COMDAT ??_R0?AVTabOutOfRangeException@Util@MaxSDK@@@8
data$r	SEGMENT
??_R0?AVTabOutOfRangeException@Util@MaxSDK@@@8 DQ FLAT:??_7type_info@@6B@ ; MaxSDK::Util::TabOutOfRangeException `RTTI Type Descriptor'
	DQ	0000000000000000H
	DB	'.?AVTabOutOfRangeException@Util@MaxSDK@@', 00H
data$r	ENDS
;	COMDAT _CTA4?AVTabOutOfRangeException@Util@MaxSDK@@
xdata$x	SEGMENT
_CTA4?AVTabOutOfRangeException@Util@MaxSDK@@ DD 04H
	DD	imagerel _CT??_R0?AVTabOutOfRangeException@Util@MaxSDK@@@8??0TabOutOfRangeException@Util@MaxSDK@@QEAA@AEBV012@@Z16
	DD	imagerel _CT??_R0?AVOutOfRangeException@Util@MaxSDK@@@8??0OutOfRangeException@Util@MaxSDK@@QEAA@AEBV012@@Z16
	DD	imagerel _CT??_R0?AVException@Util@MaxSDK@@@8??0Exception@Util@MaxSDK@@QEAA@AEBV012@@Z16
	DD	imagerel _CT??_R0?AVMaxHeapOperators@@@818
xdata$x	ENDS
;	COMDAT _TI4?AVTabOutOfRangeException@Util@MaxSDK@@
xdata$x	SEGMENT
_TI4?AVTabOutOfRangeException@Util@MaxSDK@@ DD 00H
	DD	imagerel ??1TabOutOfRangeException@Util@MaxSDK@@UEAA@XZ
	DD	00H
	DD	imagerel _CTA4?AVTabOutOfRangeException@Util@MaxSDK@@
xdata$x	ENDS
;	COMDAT ??_C@_1CI@OKLGNBMM@?$AAt?$AAh?$AA?5?$AA?$CG?$AA?$CG?$AA?5?$AAi?$AA?5?$AA?$DM?$AA?5?$AAt?$AAh?$AA?9?$AA?$DO?$AAc?$AAo?$AAu?$AAn?$AAt?$AA?$AA@
CONST	SEGMENT
??_C@_1CI@OKLGNBMM@?$AAt?$AAh?$AA?5?$AA?$CG?$AA?$CG?$AA?5?$AAi?$AA?5?$AA?$DM?$AA?5?$AAt?$AAh?$AA?9?$AA?$DO?$AAc?$AAo?$AAu?$AAn?$AAt?$AA?$AA@ DB 't'
	DB	00H, 'h', 00H, ' ', 00H, '&', 00H, '&', 00H, ' ', 00H, 'i', 00H
	DB	' ', 00H, '<', 00H, ' ', 00H, 't', 00H, 'h', 00H, '-', 00H, '>'
	DB	00H, 'c', 00H, 'o', 00H, 'u', 00H, 'n', 00H, 't', 00H, 00H, 00H ; `string'
CONST	ENDS
;	COMDAT ??_C@_1IA@CBFEGJCG@?$AAc?$AA?3?$AA?2?$AAp?$AAr?$AAo?$AAg?$AAr?$AAa?$AAm?$AA?5?$AAf?$AAi?$AAl?$AAe?$AAs?$AA?2?$AAa?$AAu?$AAt?$AAo?$AAd?$AAe?$AAs?$AAk?$AA?2?$AA3?$AAd?$AAs?$AA?5?$AAm?$AAa@
CONST	SEGMENT
??_C@_1IA@CBFEGJCG@?$AAc?$AA?3?$AA?2?$AAp?$AAr?$AAo?$AAg?$AAr?$AAa?$AAm?$AA?5?$AAf?$AAi?$AAl?$AAe?$AAs?$AA?2?$AAa?$AAu?$AAt?$AAo?$AAd?$AAe?$AAs?$AAk?$AA?2?$AA3?$AAd?$AAs?$AA?5?$AAm?$AAa@ DB 'c'
	DB	00H, ':', 00H, '\', 00H, 'p', 00H, 'r', 00H, 'o', 00H, 'g', 00H
	DB	'r', 00H, 'a', 00H, 'm', 00H, ' ', 00H, 'f', 00H, 'i', 00H, 'l'
	DB	00H, 'e', 00H, 's', 00H, '\', 00H, 'a', 00H, 'u', 00H, 't', 00H
	DB	'o', 00H, 'd', 00H, 'e', 00H, 's', 00H, 'k', 00H, '\', 00H, '3'
	DB	00H, 'd', 00H, 's', 00H, ' ', 00H, 'm', 00H, 'a', 00H, 'x', 00H
	DB	' ', 00H, '2', 00H, '0', 00H, '2', 00H, '0', 00H, ' ', 00H, 's'
	DB	00H, 'd', 00H, 'k', 00H, '\', 00H, 'm', 00H, 'a', 00H, 'x', 00H
	DB	's', 00H, 'd', 00H, 'k', 00H, '\', 00H, 'i', 00H, 'n', 00H, 'c'
	DB	00H, 'l', 00H, 'u', 00H, 'd', 00H, 'e', 00H, '\', 00H, 't', 00H
	DB	'a', 00H, 'b', 00H, '.', 00H, 'h', 00H, 00H, 00H ; `string'
CONST	ENDS
;	COMDAT ??_C@_15CABMMOGH@?$AAt?$AAh?$AA?$AA@
CONST	SEGMENT
??_C@_15CABMMOGH@?$AAt?$AAh?$AA?$AA@ DB 't', 00H, 'h', 00H, 00H, 00H ; `string'
CONST	ENDS
;	COMDAT ??_R1A@?0A@EA@Noncopyable@Util@MaxSDK@@8
rdata$r	SEGMENT
??_R1A@?0A@EA@Noncopyable@Util@MaxSDK@@8 DD imagerel ??_R0?AVNoncopyable@Util@MaxSDK@@@8 ; MaxSDK::Util::Noncopyable::`RTTI Base Class Descriptor at (0,-1,0,64)'
	DD	01H
	DD	00H
	DD	0ffffffffH
	DD	00H
	DD	040H
	DD	imagerel ??_R3Noncopyable@Util@MaxSDK@@8
rdata$r	ENDS
;	COMDAT ??_R2Noncopyable@Util@MaxSDK@@8
rdata$r	SEGMENT
??_R2Noncopyable@Util@MaxSDK@@8 DD imagerel ??_R1A@?0A@EA@Noncopyable@Util@MaxSDK@@8 ; MaxSDK::Util::Noncopyable::`RTTI Base Class Array'
	DD	imagerel ??_R1A@?0A@EA@MaxHeapOperators@@8
	ORG $+3
rdata$r	ENDS
;	COMDAT ??_R3Noncopyable@Util@MaxSDK@@8
rdata$r	SEGMENT
??_R3Noncopyable@Util@MaxSDK@@8 DD 00H			; MaxSDK::Util::Noncopyable::`RTTI Class Hierarchy Descriptor'
	DD	00H
	DD	02H
	DD	imagerel ??_R2Noncopyable@Util@MaxSDK@@8
rdata$r	ENDS
;	COMDAT ??_R0?AVNoncopyable@Util@MaxSDK@@@8
data$r	SEGMENT
??_R0?AVNoncopyable@Util@MaxSDK@@@8 DQ FLAT:??_7type_info@@6B@ ; MaxSDK::Util::Noncopyable `RTTI Type Descriptor'
	DQ	0000000000000000H
	DB	'.?AVNoncopyable@Util@MaxSDK@@', 00H
data$r	ENDS
;	COMDAT ??_R17?0A@EC@MaxHeapOperators@@8
rdata$r	SEGMENT
??_R17?0A@EC@MaxHeapOperators@@8 DD imagerel ??_R0?AVMaxHeapOperators@@@8 ; MaxHeapOperators::`RTTI Base Class Descriptor at (8,-1,0,66)'
	DD	00H
	DD	08H
	DD	0ffffffffH
	DD	00H
	DD	042H
	DD	imagerel ??_R3MaxHeapOperators@@8
rdata$r	ENDS
;	COMDAT ??_R1A@?0A@EA@ClassDesc@@8
rdata$r	SEGMENT
??_R1A@?0A@EA@ClassDesc@@8 DD imagerel ??_R0?AVClassDesc@@@8 ; ClassDesc::`RTTI Base Class Descriptor at (0,-1,0,64)'
	DD	01H
	DD	00H
	DD	0ffffffffH
	DD	00H
	DD	040H
	DD	imagerel ??_R3ClassDesc@@8
rdata$r	ENDS
;	COMDAT ??_R2ClassDesc@@8
rdata$r	SEGMENT
??_R2ClassDesc@@8 DD imagerel ??_R1A@?0A@EA@ClassDesc@@8 ; ClassDesc::`RTTI Base Class Array'
	DD	imagerel ??_R17?0A@EA@MaxHeapOperators@@8
	ORG $+3
rdata$r	ENDS
;	COMDAT ??_R3ClassDesc@@8
rdata$r	SEGMENT
??_R3ClassDesc@@8 DD 00H				; ClassDesc::`RTTI Class Hierarchy Descriptor'
	DD	00H
	DD	02H
	DD	imagerel ??_R2ClassDesc@@8
rdata$r	ENDS
;	COMDAT ??_R0?AVClassDesc@@@8
data$r	SEGMENT
??_R0?AVClassDesc@@@8 DQ FLAT:??_7type_info@@6B@	; ClassDesc `RTTI Type Descriptor'
	DQ	0000000000000000H
	DB	'.?AVClassDesc@@', 00H
data$r	ENDS
;	COMDAT _CT??_R0?AVMaxHeapOperators@@@818
xdata$x	SEGMENT
_CT??_R0?AVMaxHeapOperators@@@818 DD 00H
	DD	imagerel ??_R0?AVMaxHeapOperators@@@8
	DD	08H
	DD	0ffffffffH
	DD	00H
	DD	01H
	DD	00H
xdata$x	ENDS
;	COMDAT ??_R0?AVMaxHeapOperators@@@8
data$r	SEGMENT
??_R0?AVMaxHeapOperators@@@8 DQ FLAT:??_7type_info@@6B@	; MaxHeapOperators `RTTI Type Descriptor'
	DQ	0000000000000000H
	DB	'.?AVMaxHeapOperators@@', 00H
data$r	ENDS
;	COMDAT ??_C@_1BA@KMAKHADK@?$AAM?$AAa?$AAp?$AAp?$AAi?$AAn?$AAg?$AA?$AA@
CONST	SEGMENT
??_C@_1BA@KMAKHADK@?$AAM?$AAa?$AAp?$AAp?$AAi?$AAn?$AAg?$AA?$AA@ DB 'M', 00H
	DB	'a', 00H, 'p', 00H, 'p', 00H, 'i', 00H, 'n', 00H, 'g', 00H, 00H
	DB	00H						; `string'
CONST	ENDS
;	COMDAT ??_C@_1BA@JOBDKJKA@?$AAx?$AAy?$AAz?$AA_?$AAm?$AAa?$AAp?$AA?$AA@
CONST	SEGMENT
??_C@_1BA@JOBDKJKA@?$AAx?$AAy?$AAz?$AA_?$AAm?$AAa?$AAp?$AA?$AA@ DB 'x', 00H
	DB	'y', 00H, 'z', 00H, '_', 00H, 'm', 00H, 'a', 00H, 'p', 00H, 00H
	DB	00H						; `string'
CONST	ENDS
;	COMDAT ??_C@_1BC@BDPIEDCA@?$AAx?$AAy?$AAz?$AA_?$AAc?$AAh?$AAa?$AAn?$AA?$AA@
CONST	SEGMENT
??_C@_1BC@BDPIEDCA@?$AAx?$AAy?$AAz?$AA_?$AAc?$AAh?$AAa?$AAn?$AA?$AA@ DB 'x'
	DB	00H, 'y', 00H, 'z', 00H, '_', 00H, 'c', 00H, 'h', 00H, 'a', 00H
	DB	'n', 00H, 00H, 00H				; `string'
CONST	ENDS
;	COMDAT ??_C@_1BK@NFJCNAOI@?$AAx?$AAy?$AAz?$AA_?$AAo?$AAf?$AAf?$AAs?$AAe?$AAt?$AA_?$AAx?$AA?$AA@
CONST	SEGMENT
??_C@_1BK@NFJCNAOI@?$AAx?$AAy?$AAz?$AA_?$AAo?$AAf?$AAf?$AAs?$AAe?$AAt?$AA_?$AAx?$AA?$AA@ DB 'x'
	DB	00H, 'y', 00H, 'z', 00H, '_', 00H, 'o', 00H, 'f', 00H, 'f', 00H
	DB	's', 00H, 'e', 00H, 't', 00H, '_', 00H, 'x', 00H, 00H, 00H ; `string'
CONST	ENDS
;	COMDAT ??_C@_1BK@GNCOLHIN@?$AAx?$AAy?$AAz?$AA_?$AAo?$AAf?$AAf?$AAs?$AAe?$AAt?$AA_?$AAy?$AA?$AA@
CONST	SEGMENT
??_C@_1BK@GNCOLHIN@?$AAx?$AAy?$AAz?$AA_?$AAo?$AAf?$AAf?$AAs?$AAe?$AAt?$AA_?$AAy?$AA?$AA@ DB 'x'
	DB	00H, 'y', 00H, 'z', 00H, '_', 00H, 'o', 00H, 'f', 00H, 'f', 00H
	DB	's', 00H, 'e', 00H, 't', 00H, '_', 00H, 'y', 00H, 00H, 00H ; `string'
CONST	ENDS
;	COMDAT ??_C@_1BK@HPJLBIGD@?$AAx?$AAy?$AAz?$AA_?$AAo?$AAf?$AAf?$AAs?$AAe?$AAt?$AA_?$AAz?$AA?$AA@
CONST	SEGMENT
??_C@_1BK@HPJLBIGD@?$AAx?$AAy?$AAz?$AA_?$AAo?$AAf?$AAf?$AAs?$AAe?$AAt?$AA_?$AAz?$AA?$AA@ DB 'x'
	DB	00H, 'y', 00H, 'z', 00H, '_', 00H, 'o', 00H, 'f', 00H, 'f', 00H
	DB	's', 00H, 'e', 00H, 't', 00H, '_', 00H, 'z', 00H, 00H, 00H ; `string'
CONST	ENDS
;	COMDAT ??_C@_1BG@KGFFJCNH@?$AAx?$AAy?$AAz?$AA_?$AAs?$AAi?$AAz?$AAe?$AA_?$AAx?$AA?$AA@
CONST	SEGMENT
??_C@_1BG@KGFFJCNH@?$AAx?$AAy?$AAz?$AA_?$AAs?$AAi?$AAz?$AAe?$AA_?$AAx?$AA?$AA@ DB 'x'
	DB	00H, 'y', 00H, 'z', 00H, '_', 00H, 's', 00H, 'i', 00H, 'z', 00H
	DB	'e', 00H, '_', 00H, 'x', 00H, 00H, 00H	; `string'
CONST	ENDS
;	COMDAT ??_C@_1BG@BOOJPFLC@?$AAx?$AAy?$AAz?$AA_?$AAs?$AAi?$AAz?$AAe?$AA_?$AAy?$AA?$AA@
CONST	SEGMENT
??_C@_1BG@BOOJPFLC@?$AAx?$AAy?$AAz?$AA_?$AAs?$AAi?$AAz?$AAe?$AA_?$AAy?$AA?$AA@ DB 'x'
	DB	00H, 'y', 00H, 'z', 00H, '_', 00H, 's', 00H, 'i', 00H, 'z', 00H
	DB	'e', 00H, '_', 00H, 'y', 00H, 00H, 00H	; `string'
CONST	ENDS
;	COMDAT ??_C@_1BG@MFMFKFM@?$AAx?$AAy?$AAz?$AA_?$AAs?$AAi?$AAz?$AAe?$AA_?$AAz?$AA?$AA@
CONST	SEGMENT
??_C@_1BG@MFMFKFM@?$AAx?$AAy?$AAz?$AA_?$AAs?$AAi?$AAz?$AAe?$AA_?$AAz?$AA?$AA@ DB 'x'
	DB	00H, 'y', 00H, 'z', 00H, '_', 00H, 's', 00H, 'i', 00H, 'z', 00H
	DB	'e', 00H, '_', 00H, 'z', 00H, 00H, 00H	; `string'
CONST	ENDS
;	COMDAT ??_R1A@?0A@EA@BaseInterfaceServer@@8
rdata$r	SEGMENT
??_R1A@?0A@EA@BaseInterfaceServer@@8 DD imagerel ??_R0?AVBaseInterfaceServer@@@8 ; BaseInterfaceServer::`RTTI Base Class Descriptor at (0,-1,0,64)'
	DD	02H
	DD	00H
	DD	0ffffffffH
	DD	00H
	DD	040H
	DD	imagerel ??_R3BaseInterfaceServer@@8
rdata$r	ENDS
;	COMDAT ??_C@_1BI@BKLPIDEI@?$AAx?$AAy?$AAz?$AA_?$AAa?$AAn?$AAg?$AAl?$AAe?$AA_?$AAx?$AA?$AA@
CONST	SEGMENT
??_C@_1BI@BKLPIDEI@?$AAx?$AAy?$AAz?$AA_?$AAa?$AAn?$AAg?$AAl?$AAe?$AA_?$AAx?$AA?$AA@ DB 'x'
	DB	00H, 'y', 00H, 'z', 00H, '_', 00H, 'a', 00H, 'n', 00H, 'g', 00H
	DB	'l', 00H, 'e', 00H, '_', 00H, 'x', 00H, 00H, 00H ; `string'
CONST	ENDS
;	COMDAT ??_R2BaseInterfaceServer@@8
rdata$r	SEGMENT
??_R2BaseInterfaceServer@@8 DD imagerel ??_R1A@?0A@EA@BaseInterfaceServer@@8 ; BaseInterfaceServer::`RTTI Base Class Array'
	DD	imagerel ??_R1A@?0A@EA@InterfaceServer@@8
	DD	imagerel ??_R17?0A@EA@MaxHeapOperators@@8
	ORG $+3
rdata$r	ENDS
;	COMDAT ??_C@_1BI@KCADOECN@?$AAx?$AAy?$AAz?$AA_?$AAa?$AAn?$AAg?$AAl?$AAe?$AA_?$AAy?$AA?$AA@
CONST	SEGMENT
??_C@_1BI@KCADOECN@?$AAx?$AAy?$AAz?$AA_?$AAa?$AAn?$AAg?$AAl?$AAe?$AA_?$AAy?$AA?$AA@ DB 'x'
	DB	00H, 'y', 00H, 'z', 00H, '_', 00H, 'a', 00H, 'n', 00H, 'g', 00H
	DB	'l', 00H, 'e', 00H, '_', 00H, 'y', 00H, 00H, 00H ; `string'
CONST	ENDS
;	COMDAT ??_R3BaseInterfaceServer@@8
rdata$r	SEGMENT
??_R3BaseInterfaceServer@@8 DD 00H			; BaseInterfaceServer::`RTTI Class Hierarchy Descriptor'
	DD	00H
	DD	03H
	DD	imagerel ??_R2BaseInterfaceServer@@8
rdata$r	ENDS
;	COMDAT ??_C@_1BI@LALGELMD@?$AAx?$AAy?$AAz?$AA_?$AAa?$AAn?$AAg?$AAl?$AAe?$AA_?$AAz?$AA?$AA@
CONST	SEGMENT
??_C@_1BI@LALGELMD@?$AAx?$AAy?$AAz?$AA_?$AAa?$AAn?$AAg?$AAl?$AAe?$AA_?$AAz?$AA?$AA@ DB 'x'
	DB	00H, 'y', 00H, 'z', 00H, '_', 00H, 'a', 00H, 'n', 00H, 'g', 00H
	DB	'l', 00H, 'e', 00H, '_', 00H, 'z', 00H, 00H, 00H ; `string'
CONST	ENDS
;	COMDAT ??_R0?AVBaseInterfaceServer@@@8
data$r	SEGMENT
??_R0?AVBaseInterfaceServer@@@8 DQ FLAT:??_7type_info@@6B@ ; BaseInterfaceServer `RTTI Type Descriptor'
	DQ	0000000000000000H
	DB	'.?AVBaseInterfaceServer@@', 00H
data$r	ENDS
;	COMDAT ??_C@_1BG@OJCIMJLI@?$AAx?$AAy?$AAz?$AA_?$AAt?$AAi?$AAl?$AAe?$AA_?$AAx?$AA?$AA@
CONST	SEGMENT
??_C@_1BG@OJCIMJLI@?$AAx?$AAy?$AAz?$AA_?$AAt?$AAi?$AAl?$AAe?$AA_?$AAx?$AA?$AA@ DB 'x'
	DB	00H, 'y', 00H, 'z', 00H, '_', 00H, 't', 00H, 'i', 00H, 'l', 00H
	DB	'e', 00H, '_', 00H, 'x', 00H, 00H, 00H	; `string'
CONST	ENDS
;	COMDAT WinbaseIsolationAwarePrivateT_UnPgpgk
_DATA	SEGMENT
WinbaseIsolationAwarePrivateT_UnPgpgk DQ ffffffffffffffffH
_DATA	ENDS
;	COMDAT ??_C@_1BG@FBJEKONN@?$AAx?$AAy?$AAz?$AA_?$AAt?$AAi?$AAl?$AAe?$AA_?$AAy?$AA?$AA@
CONST	SEGMENT
??_C@_1BG@FBJEKONN@?$AAx?$AAy?$AAz?$AA_?$AAt?$AAi?$AAl?$AAe?$AA_?$AAy?$AA?$AA@ DB 'x'
	DB	00H, 'y', 00H, 'z', 00H, '_', 00H, 't', 00H, 'i', 00H, 'l', 00H
	DB	'e', 00H, '_', 00H, 'y', 00H, 00H, 00H	; `string'
CONST	ENDS
;	COMDAT ??_R1A@?0A@EA@InterfaceServer@@8
rdata$r	SEGMENT
??_R1A@?0A@EA@InterfaceServer@@8 DD imagerel ??_R0?AVInterfaceServer@@@8 ; InterfaceServer::`RTTI Base Class Descriptor at (0,-1,0,64)'
	DD	01H
	DD	00H
	DD	0ffffffffH
	DD	00H
	DD	040H
	DD	imagerel ??_R3InterfaceServer@@8
rdata$r	ENDS
;	COMDAT ??_C@_1BG@EDCBABDD@?$AAx?$AAy?$AAz?$AA_?$AAt?$AAi?$AAl?$AAe?$AA_?$AAz?$AA?$AA@
CONST	SEGMENT
??_C@_1BG@EDCBABDD@?$AAx?$AAy?$AAz?$AA_?$AAt?$AAi?$AAl?$AAe?$AA_?$AAz?$AA?$AA@ DB 'x'
	DB	00H, 'y', 00H, 'z', 00H, '_', 00H, 't', 00H, 'i', 00H, 'l', 00H
	DB	'e', 00H, '_', 00H, 'z', 00H, 00H, 00H	; `string'
CONST	ENDS
;	COMDAT ??_R2InterfaceServer@@8
rdata$r	SEGMENT
??_R2InterfaceServer@@8 DD imagerel ??_R1A@?0A@EA@InterfaceServer@@8 ; InterfaceServer::`RTTI Base Class Array'
	DD	imagerel ??_R17?0A@EA@MaxHeapOperators@@8
	ORG $+3
rdata$r	ENDS
;	COMDAT ??_C@_19HFHNPJHA@?$AAs?$AAe?$AAe?$AAd?$AA?$AA@
CONST	SEGMENT
??_C@_19HFHNPJHA@?$AAs?$AAe?$AAe?$AAd?$AA?$AA@ DB 's', 00H, 'e', 00H, 'e', 00H
	DB	'd', 00H, 00H, 00H				; `string'
CONST	ENDS
;	COMDAT ??_R3InterfaceServer@@8
rdata$r	SEGMENT
??_R3InterfaceServer@@8 DD 00H				; InterfaceServer::`RTTI Class Hierarchy Descriptor'
	DD	00H
	DD	02H
	DD	imagerel ??_R2InterfaceServer@@8
rdata$r	ENDS
;	COMDAT ??_C@_1BE@DCGEPHFM@?$AAr?$AAa?$AAn?$AAd?$AAB?$AAy?$AAM?$AAa?$AAt?$AA?$AA@
CONST	SEGMENT
??_C@_1BE@DCGEPHFM@?$AAr?$AAa?$AAn?$AAd?$AAB?$AAy?$AAM?$AAa?$AAt?$AA?$AA@ DB 'r'
	DB	00H, 'a', 00H, 'n', 00H, 'd', 00H, 'B', 00H, 'y', 00H, 'M', 00H
	DB	'a', 00H, 't', 00H, 00H, 00H			; `string'
CONST	ENDS
;	COMDAT ??_R0?AVInterfaceServer@@@8
data$r	SEGMENT
??_R0?AVInterfaceServer@@@8 DQ FLAT:??_7type_info@@6B@	; InterfaceServer `RTTI Type Descriptor'
	DQ	0000000000000000H
	DB	'.?AVInterfaceServer@@', 00H
data$r	ENDS
;	COMDAT ??_C@_1BE@EGBDKCCD@?$AAr?$AAa?$AAn?$AAd?$AAB?$AAy?$AAO?$AAb?$AAj?$AA?$AA@
CONST	SEGMENT
??_C@_1BE@EGBDKCCD@?$AAr?$AAa?$AAn?$AAd?$AAB?$AAy?$AAO?$AAb?$AAj?$AA?$AA@ DB 'r'
	DB	00H, 'a', 00H, 'n', 00H, 'd', 00H, 'B', 00H, 'y', 00H, 'O', 00H
	DB	'b', 00H, 'j', 00H, 00H, 00H			; `string'
CONST	ENDS
;	COMDAT ??_C@_1BE@PALBIMHK@?$AAr?$AAa?$AAn?$AAd?$AAB?$AAy?$AAP?$AAa?$AAr?$AA?$AA@
CONST	SEGMENT
??_C@_1BE@PALBIMHK@?$AAr?$AAa?$AAn?$AAd?$AAB?$AAy?$AAP?$AAa?$AAr?$AA?$AA@ DB 'r'
	DB	00H, 'a', 00H, 'n', 00H, 'd', 00H, 'B', 00H, 'y', 00H, 'P', 00H
	DB	'a', 00H, 'r', 00H, 00H, 00H			; `string'
CONST	ENDS
;	COMDAT ??_R1A@?0A@EA@MaxHeapOperators@@8
rdata$r	SEGMENT
??_R1A@?0A@EA@MaxHeapOperators@@8 DD imagerel ??_R0?AVMaxHeapOperators@@@8 ; MaxHeapOperators::`RTTI Base Class Descriptor at (0,-1,0,64)'
	DD	00H
	DD	00H
	DD	0ffffffffH
	DD	00H
	DD	040H
	DD	imagerel ??_R3MaxHeapOperators@@8
rdata$r	ENDS
;	COMDAT ??_C@_1BM@EKFGEOII@?$AAx?$AAy?$AAz?$AA_?$AAo?$AAf?$AAf?$AAs?$AAe?$AAt?$AA_?$AAx?$AA2?$AA?$AA@
CONST	SEGMENT
??_C@_1BM@EKFGEOII@?$AAx?$AAy?$AAz?$AA_?$AAo?$AAf?$AAf?$AAs?$AAe?$AAt?$AA_?$AAx?$AA2?$AA?$AA@ DB 'x'
	DB	00H, 'y', 00H, 'z', 00H, '_', 00H, 'o', 00H, 'f', 00H, 'f', 00H
	DB	's', 00H, 'e', 00H, 't', 00H, '_', 00H, 'x', 00H, '2', 00H, 00H
	DB	00H						; `string'
CONST	ENDS
;	COMDAT ??_R2MaxHeapOperators@@8
rdata$r	SEGMENT
??_R2MaxHeapOperators@@8 DD imagerel ??_R1A@?0A@EA@MaxHeapOperators@@8 ; MaxHeapOperators::`RTTI Base Class Array'
	ORG $+3
rdata$r	ENDS
;	COMDAT ??_C@_1BM@IBAKJNCN@?$AAx?$AAy?$AAz?$AA_?$AAo?$AAf?$AAf?$AAs?$AAe?$AAt?$AA_?$AAy?$AA2?$AA?$AA@
CONST	SEGMENT
??_C@_1BM@IBAKJNCN@?$AAx?$AAy?$AAz?$AA_?$AAo?$AAf?$AAf?$AAs?$AAe?$AAt?$AA_?$AAy?$AA2?$AA?$AA@ DB 'x'
	DB	00H, 'y', 00H, 'z', 00H, '_', 00H, 'o', 00H, 'f', 00H, 'f', 00H
	DB	's', 00H, 'e', 00H, 't', 00H, '_', 00H, 'y', 00H, '2', 00H, 00H
	DB	00H						; `string'
CONST	ENDS
;	COMDAT ??_R3MaxHeapOperators@@8
rdata$r	SEGMENT
??_R3MaxHeapOperators@@8 DD 00H				; MaxHeapOperators::`RTTI Class Hierarchy Descriptor'
	DD	00H
	DD	01H
	DD	imagerel ??_R2MaxHeapOperators@@8
rdata$r	ENDS
;	COMDAT ??_C@_1BM@HJOOPID@?$AAx?$AAy?$AAz?$AA_?$AAo?$AAf?$AAf?$AAs?$AAe?$AAt?$AA_?$AAz?$AA2?$AA?$AA@
CONST	SEGMENT
??_C@_1BM@HJOOPID@?$AAx?$AAy?$AAz?$AA_?$AAo?$AAf?$AAf?$AAs?$AAe?$AAt?$AA_?$AAz?$AA2?$AA?$AA@ DB 'x'
	DB	00H, 'y', 00H, 'z', 00H, '_', 00H, 'o', 00H, 'f', 00H, 'f', 00H
	DB	's', 00H, 'e', 00H, 't', 00H, '_', 00H, 'z', 00H, '2', 00H, 00H
	DB	00H						; `string'
CONST	ENDS
;	COMDAT ??_R17?0A@EA@MaxHeapOperators@@8
rdata$r	SEGMENT
??_R17?0A@EA@MaxHeapOperators@@8 DD imagerel ??_R0?AVMaxHeapOperators@@@8 ; MaxHeapOperators::`RTTI Base Class Descriptor at (8,-1,0,64)'
	DD	00H
	DD	08H
	DD	0ffffffffH
	DD	00H
	DD	040H
	DD	imagerel ??_R3MaxHeapOperators@@8
rdata$r	ENDS
;	COMDAT ??_C@_1BI@IKFKDHMP@?$AAx?$AAy?$AAz?$AA_?$AAs?$AAi?$AAz?$AAe?$AA_?$AAx?$AA2?$AA?$AA@
CONST	SEGMENT
??_C@_1BI@IKFKDHMP@?$AAx?$AAy?$AAz?$AA_?$AAs?$AAi?$AAz?$AAe?$AA_?$AAx?$AA2?$AA?$AA@ DB 'x'
	DB	00H, 'y', 00H, 'z', 00H, '_', 00H, 's', 00H, 'i', 00H, 'z', 00H
	DB	'e', 00H, '_', 00H, 'x', 00H, '2', 00H, 00H, 00H ; `string'
CONST	ENDS
;	COMDAT ??_R2Exception@Util@MaxSDK@@8
rdata$r	SEGMENT
??_R2Exception@Util@MaxSDK@@8 DD imagerel ??_R1A@?0A@EA@Exception@Util@MaxSDK@@8 ; MaxSDK::Util::Exception::`RTTI Base Class Array'
	DD	imagerel ??_R17?0A@EA@MaxHeapOperators@@8
	ORG $+3
rdata$r	ENDS
;	COMDAT ??_C@_1BI@EBAGOEGK@?$AAx?$AAy?$AAz?$AA_?$AAs?$AAi?$AAz?$AAe?$AA_?$AAy?$AA2?$AA?$AA@
CONST	SEGMENT
??_C@_1BI@EBAGOEGK@?$AAx?$AAy?$AAz?$AA_?$AAs?$AAi?$AAz?$AAe?$AA_?$AAy?$AA2?$AA?$AA@ DB 'x'
	DB	00H, 'y', 00H, 'z', 00H, '_', 00H, 's', 00H, 'i', 00H, 'z', 00H
	DB	'e', 00H, '_', 00H, 'y', 00H, '2', 00H, 00H, 00H ; `string'
CONST	ENDS
;	COMDAT ??_R3Exception@Util@MaxSDK@@8
rdata$r	SEGMENT
??_R3Exception@Util@MaxSDK@@8 DD 00H			; MaxSDK::Util::Exception::`RTTI Class Hierarchy Descriptor'
	DD	00H
	DD	02H
	DD	imagerel ??_R2Exception@Util@MaxSDK@@8
rdata$r	ENDS
;	COMDAT ??_C@_1BI@MHJCJGME@?$AAx?$AAy?$AAz?$AA_?$AAs?$AAi?$AAz?$AAe?$AA_?$AAz?$AA2?$AA?$AA@
CONST	SEGMENT
??_C@_1BI@MHJCJGME@?$AAx?$AAy?$AAz?$AA_?$AAs?$AAi?$AAz?$AAe?$AA_?$AAz?$AA2?$AA?$AA@ DB 'x'
	DB	00H, 'y', 00H, 'z', 00H, '_', 00H, 's', 00H, 'i', 00H, 'z', 00H
	DB	'e', 00H, '_', 00H, 'z', 00H, '2', 00H, 00H, 00H ; `string'
CONST	ENDS
;	COMDAT ??_R1A@?0A@EA@Exception@Util@MaxSDK@@8
rdata$r	SEGMENT
??_R1A@?0A@EA@Exception@Util@MaxSDK@@8 DD imagerel ??_R0?AVException@Util@MaxSDK@@@8 ; MaxSDK::Util::Exception::`RTTI Base Class Descriptor at (0,-1,0,64)'
	DD	01H
	DD	00H
	DD	0ffffffffH
	DD	00H
	DD	040H
	DD	imagerel ??_R3Exception@Util@MaxSDK@@8
rdata$r	ENDS
;	COMDAT ??_C@_1BK@BGDDDNAC@?$AAx?$AAy?$AAz?$AA_?$AAa?$AAn?$AAg?$AAl?$AAe?$AA_?$AAx?$AA2?$AA?$AA@
CONST	SEGMENT
??_C@_1BK@BGDDDNAC@?$AAx?$AAy?$AAz?$AA_?$AAa?$AAn?$AAg?$AAl?$AAe?$AA_?$AAx?$AA2?$AA?$AA@ DB 'x'
	DB	00H, 'y', 00H, 'z', 00H, '_', 00H, 'a', 00H, 'n', 00H, 'g', 00H
	DB	'l', 00H, 'e', 00H, '_', 00H, 'x', 00H, '2', 00H, 00H, 00H ; `string'
CONST	ENDS
;	COMDAT ??_R2OutOfRangeException@Util@MaxSDK@@8
rdata$r	SEGMENT
??_R2OutOfRangeException@Util@MaxSDK@@8 DD imagerel ??_R1A@?0A@EA@OutOfRangeException@Util@MaxSDK@@8 ; MaxSDK::Util::OutOfRangeException::`RTTI Base Class Array'
	DD	imagerel ??_R1A@?0A@EA@Exception@Util@MaxSDK@@8
	DD	imagerel ??_R17?0A@EA@MaxHeapOperators@@8
	ORG $+3
rdata$r	ENDS
;	COMDAT ??_C@_1BK@NNGPOOKH@?$AAx?$AAy?$AAz?$AA_?$AAa?$AAn?$AAg?$AAl?$AAe?$AA_?$AAy?$AA2?$AA?$AA@
CONST	SEGMENT
??_C@_1BK@NNGPOOKH@?$AAx?$AAy?$AAz?$AA_?$AAa?$AAn?$AAg?$AAl?$AAe?$AA_?$AAy?$AA2?$AA?$AA@ DB 'x'
	DB	00H, 'y', 00H, 'z', 00H, '_', 00H, 'a', 00H, 'n', 00H, 'g', 00H
	DB	'l', 00H, 'e', 00H, '_', 00H, 'y', 00H, '2', 00H, 00H, 00H ; `string'
CONST	ENDS
;	COMDAT ??_R3OutOfRangeException@Util@MaxSDK@@8
rdata$r	SEGMENT
??_R3OutOfRangeException@Util@MaxSDK@@8 DD 00H		; MaxSDK::Util::OutOfRangeException::`RTTI Class Hierarchy Descriptor'
	DD	00H
	DD	03H
	DD	imagerel ??_R2OutOfRangeException@Util@MaxSDK@@8
rdata$r	ENDS
;	COMDAT ??_C@_1BK@FLPLJMAJ@?$AAx?$AAy?$AAz?$AA_?$AAa?$AAn?$AAg?$AAl?$AAe?$AA_?$AAz?$AA2?$AA?$AA@
CONST	SEGMENT
??_C@_1BK@FLPLJMAJ@?$AAx?$AAy?$AAz?$AA_?$AAa?$AAn?$AAg?$AAl?$AAe?$AA_?$AAz?$AA2?$AA?$AA@ DB 'x'
	DB	00H, 'y', 00H, 'z', 00H, '_', 00H, 'a', 00H, 'n', 00H, 'g', 00H
	DB	'l', 00H, 'e', 00H, '_', 00H, 'z', 00H, '2', 00H, 00H, 00H ; `string'
CONST	ENDS
;	COMDAT ??_R1A@?0A@EA@OutOfRangeException@Util@MaxSDK@@8
rdata$r	SEGMENT
??_R1A@?0A@EA@OutOfRangeException@Util@MaxSDK@@8 DD imagerel ??_R0?AVOutOfRangeException@Util@MaxSDK@@@8 ; MaxSDK::Util::OutOfRangeException::`RTTI Base Class Descriptor at (0,-1,0,64)'
	DD	02H
	DD	00H
	DD	0ffffffffH
	DD	00H
	DD	040H
	DD	imagerel ??_R3OutOfRangeException@Util@MaxSDK@@8
rdata$r	ENDS
;	COMDAT ??_C@_1BC@JCCAEAIN@?$AAx?$AAy?$AAz?$AA_?$AAl?$AAo?$AAc?$AAk?$AA?$AA@
CONST	SEGMENT
??_C@_1BC@JCCAEAIN@?$AAx?$AAy?$AAz?$AA_?$AAl?$AAo?$AAc?$AAk?$AA?$AA@ DB 'x'
	DB	00H, 'y', 00H, 'z', 00H, '_', 00H, 'l', 00H, 'o', 00H, 'c', 00H
	DB	'k', 00H, 00H, 00H				; `string'
CONST	ENDS
;	COMDAT ??_R1A@?0A@EA@TabOutOfRangeException@Util@MaxSDK@@8
rdata$r	SEGMENT
??_R1A@?0A@EA@TabOutOfRangeException@Util@MaxSDK@@8 DD imagerel ??_R0?AVTabOutOfRangeException@Util@MaxSDK@@@8 ; MaxSDK::Util::TabOutOfRangeException::`RTTI Base Class Descriptor at (0,-1,0,64)'
	DD	03H
	DD	00H
	DD	0ffffffffH
	DD	00H
	DD	040H
	DD	imagerel ??_R3TabOutOfRangeException@Util@MaxSDK@@8
rdata$r	ENDS
;	COMDAT ??_C@_1BM@LCALCDFD@?$AAx?$AAy?$AAz?$AA_?$AAf?$AAi?$AAl?$AAt?$AAe?$AAr?$AAi?$AAn?$AAg?$AA?$AA@
CONST	SEGMENT
??_C@_1BM@LCALCDFD@?$AAx?$AAy?$AAz?$AA_?$AAf?$AAi?$AAl?$AAt?$AAe?$AAr?$AAi?$AAn?$AAg?$AA?$AA@ DB 'x'
	DB	00H, 'y', 00H, 'z', 00H, '_', 00H, 'f', 00H, 'i', 00H, 'l', 00H
	DB	't', 00H, 'e', 00H, 'r', 00H, 'i', 00H, 'n', 00H, 'g', 00H, 00H
	DB	00H						; `string'
CONST	ENDS
;	COMDAT ??_R2TabOutOfRangeException@Util@MaxSDK@@8
rdata$r	SEGMENT
??_R2TabOutOfRangeException@Util@MaxSDK@@8 DD imagerel ??_R1A@?0A@EA@TabOutOfRangeException@Util@MaxSDK@@8 ; MaxSDK::Util::TabOutOfRangeException::`RTTI Base Class Array'
	DD	imagerel ??_R1A@?0A@EA@OutOfRangeException@Util@MaxSDK@@8
	DD	imagerel ??_R1A@?0A@EA@Exception@Util@MaxSDK@@8
	DD	imagerel ??_R17?0A@EA@MaxHeapOperators@@8
	ORG $+3
rdata$r	ENDS
;	COMDAT ??_R3TabOutOfRangeException@Util@MaxSDK@@8
rdata$r	SEGMENT
??_R3TabOutOfRangeException@Util@MaxSDK@@8 DD 00H	; MaxSDK::Util::TabOutOfRangeException::`RTTI Class Hierarchy Descriptor'
	DD	00H
	DD	04H
	DD	imagerel ??_R2TabOutOfRangeException@Util@MaxSDK@@8
rdata$r	ENDS
;	COMDAT ??_R4TabOutOfRangeException@Util@MaxSDK@@6B@
rdata$r	SEGMENT
??_R4TabOutOfRangeException@Util@MaxSDK@@6B@ DD 01H	; MaxSDK::Util::TabOutOfRangeException::`RTTI Complete Object Locator'
	DD	00H
	DD	00H
	DD	imagerel ??_R0?AVTabOutOfRangeException@Util@MaxSDK@@@8
	DD	imagerel ??_R3TabOutOfRangeException@Util@MaxSDK@@8
	DD	imagerel ??_R4TabOutOfRangeException@Util@MaxSDK@@6B@
rdata$r	ENDS
;	COMDAT ??_7XYZ_Desc@@6B@
CONST	SEGMENT
??_7XYZ_Desc@@6B@ DQ FLAT:??_R4XYZ_Desc@@6B@		; XYZ_Desc::`vftable'
	DQ	FLAT:??_EXYZ_Desc@@UEAAPEAXI@Z
	DQ	FLAT:?GetInterface@BaseInterfaceServer@@UEAAPEAVBaseInterface@@VInterface_ID@@@Z
	DQ	FLAT:?NumInterfaces@BaseInterfaceServer@@UEBAHXZ
	DQ	FLAT:?GetInterfaceAt@BaseInterfaceServer@@UEBAPEAVBaseInterface@@H@Z
CONST	ENDS
;	COMDAT ??_R2ClassDesc2@@8
rdata$r	SEGMENT
??_R2ClassDesc2@@8 DD imagerel ??_R1A@?0A@EA@ClassDesc2@@8 ; ClassDesc2::`RTTI Base Class Array'
	DD	imagerel ??_R1A@?0A@EA@ClassDesc@@8
	DD	imagerel ??_R17?0A@EA@MaxHeapOperators@@8
	ORG $+3
rdata$r	ENDS
;	COMDAT ??_R3ClassDesc2@@8
rdata$r	SEGMENT
??_R3ClassDesc2@@8 DD 00H				; ClassDesc2::`RTTI Class Hierarchy Descriptor'
	DD	00H
	DD	03H
	DD	imagerel ??_R2ClassDesc2@@8
rdata$r	ENDS
;	COMDAT ??_R0?AVClassDesc2@@@8
data$r	SEGMENT
??_R0?AVClassDesc2@@@8 DQ FLAT:??_7type_info@@6B@	; ClassDesc2 `RTTI Type Descriptor'
	DQ	0000000000000000H
	DB	'.?AVClassDesc2@@', 00H
data$r	ENDS
;	COMDAT ??_R1A@?0A@EA@ClassDesc2@@8
rdata$r	SEGMENT
??_R1A@?0A@EA@ClassDesc2@@8 DD imagerel ??_R0?AVClassDesc2@@@8 ; ClassDesc2::`RTTI Base Class Descriptor at (0,-1,0,64)'
	DD	02H
	DD	00H
	DD	0ffffffffH
	DD	00H
	DD	040H
	DD	imagerel ??_R3ClassDesc2@@8
rdata$r	ENDS
;	COMDAT ??_R1A@?0A@EA@BerconWoodClassDesc@@8
rdata$r	SEGMENT
??_R1A@?0A@EA@BerconWoodClassDesc@@8 DD imagerel ??_R0?AVBerconWoodClassDesc@@@8 ; BerconWoodClassDesc::`RTTI Base Class Descriptor at (0,-1,0,64)'
	DD	03H
	DD	00H
	DD	0ffffffffH
	DD	00H
	DD	040H
	DD	imagerel ??_R3BerconWoodClassDesc@@8
rdata$r	ENDS
;	COMDAT ??_R2BerconWoodClassDesc@@8
rdata$r	SEGMENT
??_R2BerconWoodClassDesc@@8 DD imagerel ??_R1A@?0A@EA@BerconWoodClassDesc@@8 ; BerconWoodClassDesc::`RTTI Base Class Array'
	DD	imagerel ??_R1A@?0A@EA@ClassDesc2@@8
	DD	imagerel ??_R1A@?0A@EA@ClassDesc@@8
	DD	imagerel ??_R17?0A@EA@MaxHeapOperators@@8
	ORG $+3
rdata$r	ENDS
;	COMDAT ??_R3BerconWoodClassDesc@@8
rdata$r	SEGMENT
??_R3BerconWoodClassDesc@@8 DD 00H			; BerconWoodClassDesc::`RTTI Class Hierarchy Descriptor'
	DD	00H
	DD	04H
	DD	imagerel ??_R2BerconWoodClassDesc@@8
rdata$r	ENDS
;	COMDAT ??_R0?AVBerconWoodClassDesc@@@8
data$r	SEGMENT
??_R0?AVBerconWoodClassDesc@@@8 DQ FLAT:??_7type_info@@6B@ ; BerconWoodClassDesc `RTTI Type Descriptor'
	DQ	0000000000000000H
	DB	'.?AVBerconWoodClassDesc@@', 00H
data$r	ENDS
;	COMDAT ??_R4BerconWoodClassDesc@@6B@
rdata$r	SEGMENT
??_R4BerconWoodClassDesc@@6B@ DD 01H			; BerconWoodClassDesc::`RTTI Complete Object Locator'
	DD	00H
	DD	00H
	DD	imagerel ??_R0?AVBerconWoodClassDesc@@@8
	DD	imagerel ??_R3BerconWoodClassDesc@@8
	DD	imagerel ??_R4BerconWoodClassDesc@@6B@
rdata$r	ENDS
;	COMDAT ??_R1BJ@?0A@EC@MaxHeapOperators@@8
rdata$r	SEGMENT
??_R1BJ@?0A@EC@MaxHeapOperators@@8 DD imagerel ??_R0?AVMaxHeapOperators@@@8 ; MaxHeapOperators::`RTTI Base Class Descriptor at (25,-1,0,66)'
	DD	00H
	DD	019H
	DD	0ffffffffH
	DD	00H
	DD	042H
	DD	imagerel ??_R3MaxHeapOperators@@8
rdata$r	ENDS
;	COMDAT ??_R1BJ@?0A@EA@Noncopyable@Util@MaxSDK@@8
rdata$r	SEGMENT
??_R1BJ@?0A@EA@Noncopyable@Util@MaxSDK@@8 DD imagerel ??_R0?AVNoncopyable@Util@MaxSDK@@@8 ; MaxSDK::Util::Noncopyable::`RTTI Base Class Descriptor at (25,-1,0,64)'
	DD	01H
	DD	019H
	DD	0ffffffffH
	DD	00H
	DD	040H
	DD	imagerel ??_R3Noncopyable@Util@MaxSDK@@8
rdata$r	ENDS
;	COMDAT ??_R2ParamBlockDesc2@@8
rdata$r	SEGMENT
??_R2ParamBlockDesc2@@8 DD imagerel ??_R1A@?0A@EA@ParamBlockDesc2@@8 ; ParamBlockDesc2::`RTTI Base Class Array'
	DD	imagerel ??_R1A@?0A@EA@BaseInterfaceServer@@8
	DD	imagerel ??_R1A@?0A@EA@InterfaceServer@@8
	DD	imagerel ??_R17?0A@EC@MaxHeapOperators@@8
	DD	imagerel ??_R1BJ@?0A@EA@Noncopyable@Util@MaxSDK@@8
	DD	imagerel ??_R1BJ@?0A@EC@MaxHeapOperators@@8
	ORG $+3
rdata$r	ENDS
;	COMDAT ??_R3ParamBlockDesc2@@8
rdata$r	SEGMENT
??_R3ParamBlockDesc2@@8 DD 00H				; ParamBlockDesc2::`RTTI Class Hierarchy Descriptor'
	DD	05H
	DD	06H
	DD	imagerel ??_R2ParamBlockDesc2@@8
rdata$r	ENDS
;	COMDAT ??_R0?AVParamBlockDesc2@@@8
data$r	SEGMENT
??_R0?AVParamBlockDesc2@@@8 DQ FLAT:??_7type_info@@6B@	; ParamBlockDesc2 `RTTI Type Descriptor'
	DQ	0000000000000000H
	DB	'.?AVParamBlockDesc2@@', 00H
data$r	ENDS
;	COMDAT ??_R1A@?0A@EA@ParamBlockDesc2@@8
rdata$r	SEGMENT
??_R1A@?0A@EA@ParamBlockDesc2@@8 DD imagerel ??_R0?AVParamBlockDesc2@@@8 ; ParamBlockDesc2::`RTTI Base Class Descriptor at (0,-1,0,64)'
	DD	05H
	DD	00H
	DD	0ffffffffH
	DD	00H
	DD	040H
	DD	imagerel ??_R3ParamBlockDesc2@@8
rdata$r	ENDS
;	COMDAT ??_R1A@?0A@EA@XYZ_Desc@@8
rdata$r	SEGMENT
??_R1A@?0A@EA@XYZ_Desc@@8 DD imagerel ??_R0?AVXYZ_Desc@@@8 ; XYZ_Desc::`RTTI Base Class Descriptor at (0,-1,0,64)'
	DD	06H
	DD	00H
	DD	0ffffffffH
	DD	00H
	DD	040H
	DD	imagerel ??_R3XYZ_Desc@@8
rdata$r	ENDS
;	COMDAT ??_R2XYZ_Desc@@8
rdata$r	SEGMENT
??_R2XYZ_Desc@@8 DD imagerel ??_R1A@?0A@EA@XYZ_Desc@@8	; XYZ_Desc::`RTTI Base Class Array'
	DD	imagerel ??_R1A@?0A@EA@ParamBlockDesc2@@8
	DD	imagerel ??_R1A@?0A@EA@BaseInterfaceServer@@8
	DD	imagerel ??_R1A@?0A@EA@InterfaceServer@@8
	DD	imagerel ??_R17?0A@EC@MaxHeapOperators@@8
	DD	imagerel ??_R1BJ@?0A@EA@Noncopyable@Util@MaxSDK@@8
	DD	imagerel ??_R1BJ@?0A@EC@MaxHeapOperators@@8
	ORG $+3
rdata$r	ENDS
;	COMDAT ??_R3XYZ_Desc@@8
rdata$r	SEGMENT
??_R3XYZ_Desc@@8 DD 00H					; XYZ_Desc::`RTTI Class Hierarchy Descriptor'
	DD	01H
	DD	07H
	DD	imagerel ??_R2XYZ_Desc@@8
rdata$r	ENDS
;	COMDAT ??_R0?AVXYZ_Desc@@@8
data$r	SEGMENT
??_R0?AVXYZ_Desc@@@8 DQ FLAT:??_7type_info@@6B@		; XYZ_Desc `RTTI Type Descriptor'
	DQ	0000000000000000H
	DB	'.?AVXYZ_Desc@@', 00H
data$r	ENDS
;	COMDAT ??_R4XYZ_Desc@@6B@
rdata$r	SEGMENT
??_R4XYZ_Desc@@6B@ DD 01H				; XYZ_Desc::`RTTI Complete Object Locator'
	DD	00H
	DD	00H
	DD	imagerel ??_R0?AVXYZ_Desc@@@8
	DD	imagerel ??_R3XYZ_Desc@@8
	DD	imagerel ??_R4XYZ_Desc@@6B@
rdata$r	ENDS
;	COMDAT ??_C@_1M@DLKOHGOH@?$AAb?$AAm?$AAa?$AAp?$AA1?$AA?$AA@
CONST	SEGMENT
??_C@_1M@DLKOHGOH@?$AAb?$AAm?$AAa?$AAp?$AA1?$AA?$AA@ DB 'b', 00H, 'm', 00H
	DB	'a', 00H, 'p', 00H, '1', 00H, 00H, 00H	; `string'
CONST	ENDS
;	COMDAT ??_C@_1BK@PEEDIMCK@?$AAb?$AAm?$AAa?$AAp?$AA1?$AAE?$AAn?$AAa?$AAb?$AAl?$AAe?$AAd?$AA?$AA@
CONST	SEGMENT
??_C@_1BK@PEEDIMCK@?$AAb?$AAm?$AAa?$AAp?$AA1?$AAE?$AAn?$AAa?$AAb?$AAl?$AAe?$AAd?$AA?$AA@ DB 'b'
	DB	00H, 'm', 00H, 'a', 00H, 'p', 00H, '1', 00H, 'E', 00H, 'n', 00H
	DB	'a', 00H, 'b', 00H, 'l', 00H, 'e', 00H, 'd', 00H, 00H, 00H ; `string'
CONST	ENDS
;	COMDAT ??_C@_1M@CJBLNJAJ@?$AAb?$AAm?$AAa?$AAp?$AA2?$AA?$AA@
CONST	SEGMENT
??_C@_1M@CJBLNJAJ@?$AAb?$AAm?$AAa?$AAp?$AA2?$AA?$AA@ DB 'b', 00H, 'm', 00H
	DB	'a', 00H, 'p', 00H, '2', 00H, 00H, 00H	; `string'
CONST	ENDS
;	COMDAT ??_C@_1BK@BOMFFBEI@?$AAb?$AAm?$AAa?$AAp?$AA2?$AAE?$AAn?$AAa?$AAb?$AAl?$AAe?$AAd?$AA?$AA@
CONST	SEGMENT
??_C@_1BK@BOMFFBEI@?$AAb?$AAm?$AAa?$AAp?$AA2?$AAE?$AAn?$AAa?$AAb?$AAl?$AAe?$AAd?$AA?$AA@ DB 'b'
	DB	00H, 'm', 00H, 'a', 00H, 'p', 00H, '2', 00H, 'E', 00H, 'n', 00H
	DB	'a', 00H, 'b', 00H, 'l', 00H, 'e', 00H, 'd', 00H, 00H, 00H ; `string'
CONST	ENDS
;	COMDAT ??_C@_1M@JBKHLOGM@?$AAb?$AAm?$AAa?$AAp?$AA3?$AA?$AA@
CONST	SEGMENT
??_C@_1M@JBKHLOGM@?$AAb?$AAm?$AAa?$AAp?$AA3?$AA?$AA@ DB 'b', 00H, 'm', 00H
	DB	'a', 00H, 'p', 00H, '3', 00H, 00H, 00H	; `string'
CONST	ENDS
;	COMDAT ??_C@_1BK@PBJHOHKJ@?$AAb?$AAm?$AAa?$AAp?$AA3?$AAE?$AAn?$AAa?$AAb?$AAl?$AAe?$AAd?$AA?$AA@
CONST	SEGMENT
??_C@_1BK@PBJHOHKJ@?$AAb?$AAm?$AAa?$AAp?$AA3?$AAE?$AAn?$AAa?$AAb?$AAl?$AAe?$AAd?$AA?$AA@ DB 'b'
	DB	00H, 'm', 00H, 'a', 00H, 'p', 00H, '3', 00H, 'E', 00H, 'n', 00H
	DB	'a', 00H, 'b', 00H, 'l', 00H, 'e', 00H, 'd', 00H, 00H, 00H ; `string'
CONST	ENDS
;	COMDAT ??_C@_1M@MHAIGNF@?$AAb?$AAm?$AAa?$AAp?$AA4?$AA?$AA@
CONST	SEGMENT
??_C@_1M@MHAIGNF@?$AAb?$AAm?$AAa?$AAp?$AA4?$AA?$AA@ DB 'b', 00H, 'm', 00H
	DB	'a', 00H, 'p', 00H, '4', 00H, 00H, 00H	; `string'
CONST	ENDS
;	COMDAT ??_C@_1BK@BALJONMN@?$AAb?$AAm?$AAa?$AAp?$AA4?$AAE?$AAn?$AAa?$AAb?$AAl?$AAe?$AAd?$AA?$AA@
CONST	SEGMENT
??_C@_1BK@BALJONMN@?$AAb?$AAm?$AAa?$AAp?$AA4?$AAE?$AAn?$AAa?$AAb?$AAl?$AAe?$AAd?$AA?$AA@ DB 'b'
	DB	00H, 'm', 00H, 'a', 00H, 'p', 00H, '4', 00H, 'E', 00H, 'n', 00H
	DB	'a', 00H, 'b', 00H, 'l', 00H, 'e', 00H, 'd', 00H, 00H, 00H ; `string'
CONST	ENDS
;	COMDAT ??_C@_1M@LEMMOBLA@?$AAb?$AAm?$AAa?$AAp?$AA5?$AA?$AA@
CONST	SEGMENT
??_C@_1M@LEMMOBLA@?$AAb?$AAm?$AAa?$AAp?$AA5?$AA?$AA@ DB 'b', 00H, 'm', 00H
	DB	'a', 00H, 'p', 00H, '5', 00H, 00H, 00H	; `string'
CONST	ENDS
;	COMDAT ??_C@_1BK@PPOLFLCM@?$AAb?$AAm?$AAa?$AAp?$AA5?$AAE?$AAn?$AAa?$AAb?$AAl?$AAe?$AAd?$AA?$AA@
CONST	SEGMENT
??_C@_1BK@PPOLFLCM@?$AAb?$AAm?$AAa?$AAp?$AA5?$AAE?$AAn?$AAa?$AAb?$AAl?$AAe?$AAd?$AA?$AA@ DB 'b'
	DB	00H, 'm', 00H, 'a', 00H, 'p', 00H, '5', 00H, 'E', 00H, 'n', 00H
	DB	'a', 00H, 'b', 00H, 'l', 00H, 'e', 00H, 'd', 00H, 00H, 00H ; `string'
CONST	ENDS
;	COMDAT ??_C@_1M@KGHJEOFO@?$AAb?$AAm?$AAa?$AAp?$AA6?$AA?$AA@
CONST	SEGMENT
??_C@_1M@KGHJEOFO@?$AAb?$AAm?$AAa?$AAp?$AA6?$AA?$AA@ DB 'b', 00H, 'm', 00H
	DB	'a', 00H, 'p', 00H, '6', 00H, 00H, 00H	; `string'
CONST	ENDS
;	COMDAT ??_C@_1BK@BFGNIGEO@?$AAb?$AAm?$AAa?$AAp?$AA6?$AAE?$AAn?$AAa?$AAb?$AAl?$AAe?$AAd?$AA?$AA@
CONST	SEGMENT
??_C@_1BK@BFGNIGEO@?$AAb?$AAm?$AAa?$AAp?$AA6?$AAE?$AAn?$AAa?$AAb?$AAl?$AAe?$AAd?$AA?$AA@ DB 'b'
	DB	00H, 'm', 00H, 'a', 00H, 'p', 00H, '6', 00H, 'E', 00H, 'n', 00H
	DB	'a', 00H, 'b', 00H, 'l', 00H, 'e', 00H, 'd', 00H, 00H, 00H ; `string'
CONST	ENDS
;	COMDAT ??_C@_1M@BOMFCJDL@?$AAb?$AAm?$AAa?$AAp?$AA7?$AA?$AA@
CONST	SEGMENT
??_C@_1M@BOMFCJDL@?$AAb?$AAm?$AAa?$AAp?$AA7?$AA?$AA@ DB 'b', 00H, 'm', 00H
	DB	'a', 00H, 'p', 00H, '7', 00H, 00H, 00H	; `string'
CONST	ENDS
;	COMDAT ??_C@_1BK@PKDPDAKP@?$AAb?$AAm?$AAa?$AAp?$AA7?$AAE?$AAn?$AAa?$AAb?$AAl?$AAe?$AAd?$AA?$AA@
CONST	SEGMENT
??_C@_1BK@PKDPDAKP@?$AAb?$AAm?$AAa?$AAp?$AA7?$AAE?$AAn?$AAa?$AAb?$AAl?$AAe?$AAd?$AA?$AA@ DB 'b'
	DB	00H, 'm', 00H, 'a', 00H, 'p', 00H, '7', 00H, 'E', 00H, 'n', 00H
	DB	'a', 00H, 'b', 00H, 'l', 00H, 'e', 00H, 'd', 00H, 00H, 00H ; `string'
CONST	ENDS
;	COMDAT ??_C@_1M@EGKGDJGN@?$AAb?$AAm?$AAa?$AAp?$AA8?$AA?$AA@
CONST	SEGMENT
??_C@_1M@EGKGDJGN@?$AAb?$AAm?$AAa?$AAp?$AA8?$AA?$AA@ DB 'b', 00H, 'm', 00H
	DB	'a', 00H, 'p', 00H, '8', 00H, 00H, 00H	; `string'
CONST	ENDS
;	COMDAT ??_C@_1BK@MEAJEMH@?$AAb?$AAm?$AAa?$AAp?$AA8?$AAE?$AAn?$AAa?$AAb?$AAl?$AAe?$AAd?$AA?$AA@
CONST	SEGMENT
??_C@_1BK@MEAJEMH@?$AAb?$AAm?$AAa?$AAp?$AA8?$AAE?$AAn?$AAa?$AAb?$AAl?$AAe?$AAd?$AA?$AA@ DB 'b'
	DB	00H, 'm', 00H, 'a', 00H, 'p', 00H, '8', 00H, 'E', 00H, 'n', 00H
	DB	'a', 00H, 'b', 00H, 'l', 00H, 'e', 00H, 'd', 00H, 00H, 00H ; `string'
CONST	ENDS
;	COMDAT ??_C@_1M@POBKFOAI@?$AAb?$AAm?$AAa?$AAp?$AA9?$AA?$AA@
CONST	SEGMENT
??_C@_1M@POBKFOAI@?$AAb?$AAm?$AAa?$AAp?$AA9?$AA?$AA@ DB 'b', 00H, 'm', 00H
	DB	'a', 00H, 'p', 00H, '9', 00H, 00H, 00H	; `string'
CONST	ENDS
;	COMDAT ??_C@_1BK@ODBCCCCG@?$AAb?$AAm?$AAa?$AAp?$AA9?$AAE?$AAn?$AAa?$AAb?$AAl?$AAe?$AAd?$AA?$AA@
CONST	SEGMENT
??_C@_1BK@ODBCCCCG@?$AAb?$AAm?$AAa?$AAp?$AA9?$AAE?$AAn?$AAa?$AAb?$AAl?$AAe?$AAd?$AA?$AA@ DB 'b'
	DB	00H, 'm', 00H, 'a', 00H, 'p', 00H, '9', 00H, 'E', 00H, 'n', 00H
	DB	'a', 00H, 'b', 00H, 'l', 00H, 'e', 00H, 'd', 00H, 00H, 00H ; `string'
CONST	ENDS
;	COMDAT ??_C@_1O@FIHCHCCN@?$AAb?$AAm?$AAa?$AAp?$AA1?$AA0?$AA?$AA@
CONST	SEGMENT
??_C@_1O@FIHCHCCN@?$AAb?$AAm?$AAa?$AAp?$AA1?$AA0?$AA?$AA@ DB 'b', 00H, 'm'
	DB	00H, 'a', 00H, 'p', 00H, '1', 00H, '0', 00H, 00H, 00H ; `string'
CONST	ENDS
;	COMDAT ??_C@_1BM@LEIHKMGA@?$AAb?$AAm?$AAa?$AAp?$AA1?$AA0?$AAE?$AAn?$AAa?$AAb?$AAl?$AAe?$AAd?$AA?$AA@
CONST	SEGMENT
??_C@_1BM@LEIHKMGA@?$AAb?$AAm?$AAa?$AAp?$AA1?$AA0?$AAE?$AAn?$AAa?$AAb?$AAl?$AAe?$AAd?$AA?$AA@ DB 'b'
	DB	00H, 'm', 00H, 'a', 00H, 'p', 00H, '1', 00H, '0', 00H, 'E', 00H
	DB	'n', 00H, 'a', 00H, 'b', 00H, 'l', 00H, 'e', 00H, 'd', 00H, 00H
	DB	00H						; `string'
CONST	ENDS
;	COMDAT ??_C@_1O@OAMOBFEI@?$AAb?$AAm?$AAa?$AAp?$AA1?$AA1?$AA?$AA@
CONST	SEGMENT
??_C@_1O@OAMOBFEI@?$AAb?$AAm?$AAa?$AAp?$AA1?$AA1?$AA?$AA@ DB 'b', 00H, 'm'
	DB	00H, 'a', 00H, 'p', 00H, '1', 00H, '1', 00H, 00H, 00H ; `string'
CONST	ENDS
;	COMDAT ??_C@_1BM@FLNFBKIB@?$AAb?$AAm?$AAa?$AAp?$AA1?$AA1?$AAE?$AAn?$AAa?$AAb?$AAl?$AAe?$AAd?$AA?$AA@
CONST	SEGMENT
??_C@_1BM@FLNFBKIB@?$AAb?$AAm?$AAa?$AAp?$AA1?$AA1?$AAE?$AAn?$AAa?$AAb?$AAl?$AAe?$AAd?$AA?$AA@ DB 'b'
	DB	00H, 'm', 00H, 'a', 00H, 'p', 00H, '1', 00H, '1', 00H, 'E', 00H
	DB	'n', 00H, 'a', 00H, 'b', 00H, 'l', 00H, 'e', 00H, 'd', 00H, 00H
	DB	00H						; `string'
CONST	ENDS
;	COMDAT ??_C@_1O@PCHLLKKG@?$AAb?$AAm?$AAa?$AAp?$AA1?$AA2?$AA?$AA@
CONST	SEGMENT
??_C@_1O@PCHLLKKG@?$AAb?$AAm?$AAa?$AAp?$AA1?$AA2?$AA?$AA@ DB 'b', 00H, 'm'
	DB	00H, 'a', 00H, 'p', 00H, '1', 00H, '2', 00H, 00H, 00H ; `string'
CONST	ENDS
;	COMDAT ??_C@_1BM@LBFDMHOD@?$AAb?$AAm?$AAa?$AAp?$AA1?$AA2?$AAE?$AAn?$AAa?$AAb?$AAl?$AAe?$AAd?$AA?$AA@
CONST	SEGMENT
??_C@_1BM@LBFDMHOD@?$AAb?$AAm?$AAa?$AAp?$AA1?$AA2?$AAE?$AAn?$AAa?$AAb?$AAl?$AAe?$AAd?$AA?$AA@ DB 'b'
	DB	00H, 'm', 00H, 'a', 00H, 'p', 00H, '1', 00H, '2', 00H, 'E', 00H
	DB	'n', 00H, 'a', 00H, 'b', 00H, 'l', 00H, 'e', 00H, 'd', 00H, 00H
	DB	00H						; `string'
CONST	ENDS
;	COMDAT ??_C@_1O@EKMHNNMD@?$AAb?$AAm?$AAa?$AAp?$AA1?$AA3?$AA?$AA@
CONST	SEGMENT
??_C@_1O@EKMHNNMD@?$AAb?$AAm?$AAa?$AAp?$AA1?$AA3?$AA?$AA@ DB 'b', 00H, 'm'
	DB	00H, 'a', 00H, 'p', 00H, '1', 00H, '3', 00H, 00H, 00H ; `string'
CONST	ENDS
;	COMDAT ??_C@_1BM@FOABHBAC@?$AAb?$AAm?$AAa?$AAp?$AA1?$AA3?$AAE?$AAn?$AAa?$AAb?$AAl?$AAe?$AAd?$AA?$AA@
CONST	SEGMENT
??_C@_1BM@FOABHBAC@?$AAb?$AAm?$AAa?$AAp?$AA1?$AA3?$AAE?$AAn?$AAa?$AAb?$AAl?$AAe?$AAd?$AA?$AA@ DB 'b'
	DB	00H, 'm', 00H, 'a', 00H, 'p', 00H, '1', 00H, '3', 00H, 'E', 00H
	DB	'n', 00H, 'a', 00H, 'b', 00H, 'l', 00H, 'e', 00H, 'd', 00H, 00H
	DB	00H						; `string'
CONST	ENDS
;	COMDAT ??_C@_1O@NHBAOFHK@?$AAb?$AAm?$AAa?$AAp?$AA1?$AA4?$AA?$AA@
CONST	SEGMENT
??_C@_1O@NHBAOFHK@?$AAb?$AAm?$AAa?$AAp?$AA1?$AA4?$AA?$AA@ DB 'b', 00H, 'm'
	DB	00H, 'a', 00H, 'p', 00H, '1', 00H, '4', 00H, 00H, 00H ; `string'
CONST	ENDS
;	COMDAT ??_C@_1BM@LPCPHLGG@?$AAb?$AAm?$AAa?$AAp?$AA1?$AA4?$AAE?$AAn?$AAa?$AAb?$AAl?$AAe?$AAd?$AA?$AA@
CONST	SEGMENT
??_C@_1BM@LPCPHLGG@?$AAb?$AAm?$AAa?$AAp?$AA1?$AA4?$AAE?$AAn?$AAa?$AAb?$AAl?$AAe?$AAd?$AA?$AA@ DB 'b'
	DB	00H, 'm', 00H, 'a', 00H, 'p', 00H, '1', 00H, '4', 00H, 'E', 00H
	DB	'n', 00H, 'a', 00H, 'b', 00H, 'l', 00H, 'e', 00H, 'd', 00H, 00H
	DB	00H						; `string'
CONST	ENDS
;	COMDAT ??_C@_1O@GPKMICBP@?$AAb?$AAm?$AAa?$AAp?$AA1?$AA5?$AA?$AA@
CONST	SEGMENT
??_C@_1O@GPKMICBP@?$AAb?$AAm?$AAa?$AAp?$AA1?$AA5?$AA?$AA@ DB 'b', 00H, 'm'
	DB	00H, 'a', 00H, 'p', 00H, '1', 00H, '5', 00H, 00H, 00H ; `string'
CONST	ENDS
;	COMDAT ??_C@_1BM@FAHNMNIH@?$AAb?$AAm?$AAa?$AAp?$AA1?$AA5?$AAE?$AAn?$AAa?$AAb?$AAl?$AAe?$AAd?$AA?$AA@
CONST	SEGMENT
??_C@_1BM@FAHNMNIH@?$AAb?$AAm?$AAa?$AAp?$AA1?$AA5?$AAE?$AAn?$AAa?$AAb?$AAl?$AAe?$AAd?$AA?$AA@ DB 'b'
	DB	00H, 'm', 00H, 'a', 00H, 'p', 00H, '1', 00H, '5', 00H, 'E', 00H
	DB	'n', 00H, 'a', 00H, 'b', 00H, 'l', 00H, 'e', 00H, 'd', 00H, 00H
	DB	00H						; `string'
CONST	ENDS
;	COMDAT ??_C@_1O@HNBJCNPB@?$AAb?$AAm?$AAa?$AAp?$AA1?$AA6?$AA?$AA@
CONST	SEGMENT
??_C@_1O@HNBJCNPB@?$AAb?$AAm?$AAa?$AAp?$AA1?$AA6?$AA?$AA@ DB 'b', 00H, 'm'
	DB	00H, 'a', 00H, 'p', 00H, '1', 00H, '6', 00H, 00H, 00H ; `string'
CONST	ENDS
;	COMDAT ??_C@_1BM@LKPLBAOF@?$AAb?$AAm?$AAa?$AAp?$AA1?$AA6?$AAE?$AAn?$AAa?$AAb?$AAl?$AAe?$AAd?$AA?$AA@
CONST	SEGMENT
??_C@_1BM@LKPLBAOF@?$AAb?$AAm?$AAa?$AAp?$AA1?$AA6?$AAE?$AAn?$AAa?$AAb?$AAl?$AAe?$AAd?$AA?$AA@ DB 'b'
	DB	00H, 'm', 00H, 'a', 00H, 'p', 00H, '1', 00H, '6', 00H, 'E', 00H
	DB	'n', 00H, 'a', 00H, 'b', 00H, 'l', 00H, 'e', 00H, 'd', 00H, 00H
	DB	00H						; `string'
CONST	ENDS
;	COMDAT ??_C@_1O@ILILCEBJ@?$AAi?$AA?5?$AA?$DO?$AA?$DN?$AA?5?$AA0?$AA?$AA@
CONST	SEGMENT
??_C@_1O@ILILCEBJ@?$AAi?$AA?5?$AA?$DO?$AA?$DN?$AA?5?$AA0?$AA?$AA@ DB 'i', 00H
	DB	' ', 00H, '>', 00H, '=', 00H, ' ', 00H, '0', 00H, 00H, 00H ; `string'
CONST	ENDS
;	COMDAT ??_C@_1O@FEMBPDGM@?$AAp?$AAa?$AAr?$AAa?$AAm?$AAs?$AA?$AA@
CONST	SEGMENT
??_C@_1O@FEMBPDGM@?$AAp?$AAa?$AAr?$AAa?$AAm?$AAs?$AA?$AA@ DB 'p', 00H, 'a'
	DB	00H, 'r', 00H, 'a', 00H, 'm', 00H, 's', 00H, 00H, 00H ; `string'
CONST	ENDS
;	COMDAT ??_C@_1O@EIFDLKFE@?$AAc?$AAo?$AAl?$AAo?$AAr?$AA1?$AA?$AA@
CONST	SEGMENT
??_C@_1O@EIFDLKFE@?$AAc?$AAo?$AAl?$AAo?$AAr?$AA1?$AA?$AA@ DB 'c', 00H, 'o'
	DB	00H, 'l', 00H, 'o', 00H, 'r', 00H, '1', 00H, 00H, 00H ; `string'
CONST	ENDS
;	COMDAT ??_C@_1O@FKOGBFLK@?$AAc?$AAo?$AAl?$AAo?$AAr?$AA2?$AA?$AA@
CONST	SEGMENT
??_C@_1O@FKOGBFLK@?$AAc?$AAo?$AAl?$AAo?$AAr?$AA2?$AA?$AA@ DB 'c', 00H, 'o'
	DB	00H, 'l', 00H, 'o', 00H, 'r', 00H, '2', 00H, 00H, 00H ; `string'
CONST	ENDS
;	COMDAT ??_C@_1O@OCFKHCNP@?$AAc?$AAo?$AAl?$AAo?$AAr?$AA3?$AA?$AA@
CONST	SEGMENT
??_C@_1O@OCFKHCNP@?$AAc?$AAo?$AAl?$AAo?$AAr?$AA3?$AA?$AA@ DB 'c', 00H, 'o'
	DB	00H, 'l', 00H, 'o', 00H, 'r', 00H, '3', 00H, 00H, 00H ; `string'
CONST	ENDS
;	COMDAT ??_C@_19GHJICKGJ@?$AAm?$AAa?$AAp?$AA1?$AA?$AA@
CONST	SEGMENT
??_C@_19GHJICKGJ@?$AAm?$AAa?$AAp?$AA1?$AA?$AA@ DB 'm', 00H, 'a', 00H, 'p', 00H
	DB	'1', 00H, 00H, 00H				; `string'
CONST	ENDS
;	COMDAT ??_C@_19HFCNIFIH@?$AAm?$AAa?$AAp?$AA2?$AA?$AA@
CONST	SEGMENT
??_C@_19HFCNIFIH@?$AAm?$AAa?$AAp?$AA2?$AA?$AA@ DB 'm', 00H, 'a', 00H, 'p', 00H
	DB	'2', 00H, 00H, 00H				; `string'
CONST	ENDS
;	COMDAT ??_C@_19MNJBOCOC@?$AAm?$AAa?$AAp?$AA3?$AA?$AA@
CONST	SEGMENT
??_C@_19MNJBOCOC@?$AAm?$AAa?$AAp?$AA3?$AA?$AA@ DB 'm', 00H, 'a', 00H, 'p', 00H
	DB	'3', 00H, 00H, 00H				; `string'
CONST	ENDS
;	COMDAT ??_C@_1BI@KGCLGEMF@?$AAm?$AAa?$AAp?$AA1?$AAE?$AAn?$AAa?$AAb?$AAl?$AAe?$AAd?$AA?$AA@
CONST	SEGMENT
??_C@_1BI@KGCLGEMF@?$AAm?$AAa?$AAp?$AA1?$AAE?$AAn?$AAa?$AAb?$AAl?$AAe?$AAd?$AA?$AA@ DB 'm'
	DB	00H, 'a', 00H, 'p', 00H, '1', 00H, 'E', 00H, 'n', 00H, 'a', 00H
	DB	'b', 00H, 'l', 00H, 'e', 00H, 'd', 00H, 00H, 00H ; `string'
CONST	ENDS
;	COMDAT ??_C@_1BI@EMKNLJKH@?$AAm?$AAa?$AAp?$AA2?$AAE?$AAn?$AAa?$AAb?$AAl?$AAe?$AAd?$AA?$AA@
CONST	SEGMENT
??_C@_1BI@EMKNLJKH@?$AAm?$AAa?$AAp?$AA2?$AAE?$AAn?$AAa?$AAb?$AAl?$AAe?$AAd?$AA?$AA@ DB 'm'
	DB	00H, 'a', 00H, 'p', 00H, '2', 00H, 'E', 00H, 'n', 00H, 'a', 00H
	DB	'b', 00H, 'l', 00H, 'e', 00H, 'd', 00H, 00H, 00H ; `string'
CONST	ENDS
;	COMDAT ??_C@_1BI@KDPPAPEG@?$AAm?$AAa?$AAp?$AA3?$AAE?$AAn?$AAa?$AAb?$AAl?$AAe?$AAd?$AA?$AA@
CONST	SEGMENT
??_C@_1BI@KDPPAPEG@?$AAm?$AAa?$AAp?$AA3?$AAE?$AAn?$AAa?$AAb?$AAl?$AAe?$AAd?$AA?$AA@ DB 'm'
	DB	00H, 'a', 00H, 'p', 00H, '3', 00H, 'E', 00H, 'n', 00H, 'a', 00H
	DB	'b', 00H, 'l', 00H, 'e', 00H, 'd', 00H, 00H, 00H ; `string'
CONST	ENDS
;	COMDAT ??_C@_19GIOODLBE@?$AAs?$AAi?$AAz?$AAe?$AA?$AA@
CONST	SEGMENT
??_C@_19GIOODLBE@?$AAs?$AAi?$AAz?$AAe?$AA?$AA@ DB 's', 00H, 'i', 00H, 'z', 00H
	DB	'e', 00H, 00H, 00H				; `string'
CONST	ENDS
;	COMDAT ??_C@_1BC@OKAAOBEK@?$AAt?$AAr?$AAe?$AAs?$AAh?$AAL?$AAo?$AAw?$AA?$AA@
CONST	SEGMENT
??_C@_1BC@OKAAOBEK@?$AAt?$AAr?$AAe?$AAs?$AAh?$AAL?$AAo?$AAw?$AA?$AA@ DB 't'
	DB	00H, 'r', 00H, 'e', 00H, 's', 00H, 'h', 00H, 'L', 00H, 'o', 00H
	DB	'w', 00H, 00H, 00H				; `string'
CONST	ENDS
;	COMDAT ??_C@_1BE@OPFLOLOL@?$AAt?$AAr?$AAe?$AAs?$AAh?$AAH?$AAi?$AAg?$AAh?$AA?$AA@
CONST	SEGMENT
??_C@_1BE@OPFLOLOL@?$AAt?$AAr?$AAe?$AAs?$AAh?$AAH?$AAi?$AAg?$AAh?$AA?$AA@ DB 't'
	DB	00H, 'r', 00H, 'e', 00H, 's', 00H, 'h', 00H, 'H', 00H, 'i', 00H
	DB	'g', 00H, 'h', 00H, 00H, 00H			; `string'
CONST	ENDS
;	COMDAT ??_C@_1BC@PCCOIOPC@?$AAw?$AAo?$AAo?$AAd?$AAT?$AAy?$AAp?$AAe?$AA?$AA@
CONST	SEGMENT
??_C@_1BC@PCCOIOPC@?$AAw?$AAo?$AAo?$AAd?$AAT?$AAy?$AAp?$AAe?$AA?$AA@ DB 'w'
	DB	00H, 'o', 00H, 'o', 00H, 'd', 00H, 'T', 00H, 'y', 00H, 'p', 00H
	DB	'e', 00H, 00H, 00H				; `string'
CONST	ENDS
;	COMDAT ??_C@_1BC@OGGKLNK@?$AAt?$AAr?$AAu?$AAn?$AAk?$AAS?$AAt?$AAr?$AA?$AA@
CONST	SEGMENT
??_C@_1BC@OGGKLNK@?$AAt?$AAr?$AAu?$AAn?$AAk?$AAS?$AAt?$AAr?$AA?$AA@ DB 't'
	DB	00H, 'r', 00H, 'u', 00H, 'n', 00H, 'k', 00H, 'S', 00H, 't', 00H
	DB	'r', 00H, 00H, 00H				; `string'
CONST	ENDS
;	COMDAT ??_C@_1BE@PAGLOPGC@?$AAt?$AAr?$AAu?$AAn?$AAk?$AAF?$AAr?$AAe?$AAq?$AA?$AA@
CONST	SEGMENT
??_C@_1BE@PAGLOPGC@?$AAt?$AAr?$AAu?$AAn?$AAk?$AAF?$AAr?$AAe?$AAq?$AA?$AA@ DB 't'
	DB	00H, 'r', 00H, 'u', 00H, 'n', 00H, 'k', 00H, 'F', 00H, 'r', 00H
	DB	'e', 00H, 'q', 00H, 00H, 00H			; `string'
CONST	ENDS
;	COMDAT ??_C@_1BE@MAEEJBGC@?$AAr?$AAa?$AAd?$AAi?$AAa?$AAl?$AAS?$AAt?$AAr?$AA?$AA@
CONST	SEGMENT
??_C@_1BE@MAEEJBGC@?$AAr?$AAa?$AAd?$AAi?$AAa?$AAl?$AAS?$AAt?$AAr?$AA?$AA@ DB 'r'
	DB	00H, 'a', 00H, 'd', 00H, 'i', 00H, 'a', 00H, 'l', 00H, 'S', 00H
	DB	't', 00H, 'r', 00H, 00H, 00H			; `string'
CONST	ENDS
;	COMDAT ??_C@_1BG@BKHLNMEC@?$AAr?$AAa?$AAd?$AAi?$AAa?$AAl?$AAF?$AAr?$AAe?$AAq?$AA?$AA@
CONST	SEGMENT
??_C@_1BG@BKHLNMEC@?$AAr?$AAa?$AAd?$AAi?$AAa?$AAl?$AAF?$AAr?$AAe?$AAq?$AA?$AA@ DB 'r'
	DB	00H, 'a', 00H, 'd', 00H, 'i', 00H, 'a', 00H, 'l', 00H, 'F', 00H
	DB	'r', 00H, 'e', 00H, 'q', 00H, 00H, 00H	; `string'
CONST	ENDS
;	COMDAT ??_C@_1BA@JLDBLEIA@?$AAr?$AAa?$AAd?$AAi?$AAa?$AAl?$AAZ?$AA?$AA@
CONST	SEGMENT
??_C@_1BA@JLDBLEIA@?$AAr?$AAa?$AAd?$AAi?$AAa?$AAl?$AAZ?$AA?$AA@ DB 'r', 00H
	DB	'a', 00H, 'd', 00H, 'i', 00H, 'a', 00H, 'l', 00H, 'Z', 00H, 00H
	DB	00H						; `string'
CONST	ENDS
;	COMDAT ??_C@_1BC@PABECNJO@?$AAa?$AAn?$AAg?$AAl?$AAe?$AAS?$AAt?$AAr?$AA?$AA@
CONST	SEGMENT
??_C@_1BC@PABECNJO@?$AAa?$AAn?$AAg?$AAl?$AAe?$AAS?$AAt?$AAr?$AA?$AA@ DB 'a'
	DB	00H, 'n', 00H, 'g', 00H, 'l', 00H, 'e', 00H, 'S', 00H, 't', 00H
	DB	'r', 00H, 00H, 00H				; `string'
CONST	ENDS
;	COMDAT ??_C@_1BE@GAKFLNAE@?$AAa?$AAn?$AAg?$AAl?$AAe?$AAF?$AAr?$AAe?$AAq?$AA?$AA@
CONST	SEGMENT
??_C@_1BE@GAKFLNAE@?$AAa?$AAn?$AAg?$AAl?$AAe?$AAF?$AAr?$AAe?$AAq?$AA?$AA@ DB 'a'
	DB	00H, 'n', 00H, 'g', 00H, 'l', 00H, 'e', 00H, 'F', 00H, 'r', 00H
	DB	'e', 00H, 'q', 00H, 00H, 00H			; `string'
CONST	ENDS
;	COMDAT ??_C@_1BC@BKNHLGGL@?$AAa?$AAn?$AAg?$AAl?$AAe?$AAR?$AAa?$AAd?$AA?$AA@
CONST	SEGMENT
??_C@_1BC@BKNHLGGL@?$AAa?$AAn?$AAg?$AAl?$AAe?$AAR?$AAa?$AAd?$AA?$AA@ DB 'a'
	DB	00H, 'n', 00H, 'g', 00H, 'l', 00H, 'e', 00H, 'R', 00H, 'a', 00H
	DB	'd', 00H, 00H, 00H				; `string'
CONST	ENDS
;	COMDAT ??_C@_1BC@CHOMLLBM@?$AAg?$AAr?$AAa?$AAi?$AAn?$AAS?$AAt?$AAr?$AA?$AA@
CONST	SEGMENT
??_C@_1BC@CHOMLLBM@?$AAg?$AAr?$AAa?$AAi?$AAn?$AAS?$AAt?$AAr?$AA?$AA@ DB 'g'
	DB	00H, 'r', 00H, 'a', 00H, 'i', 00H, 'n', 00H, 'S', 00H, 't', 00H
	DB	'r', 00H, 00H, 00H				; `string'
CONST	ENDS
;	COMDAT ??_C@_1BE@HAHMKGEE@?$AAg?$AAr?$AAa?$AAi?$AAn?$AAF?$AAr?$AAe?$AAq?$AA?$AA@
CONST	SEGMENT
??_C@_1BE@HAHMKGEE@?$AAg?$AAr?$AAa?$AAi?$AAn?$AAF?$AAr?$AAe?$AAq?$AA?$AA@ DB 'g'
	DB	00H, 'r', 00H, 'a', 00H, 'i', 00H, 'n', 00H, 'F', 00H, 'r', 00H
	DB	'e', 00H, 'q', 00H, 00H, 00H			; `string'
CONST	ENDS
;	COMDAT ??_C@_1BE@GJBNEGJB@?$AAg?$AAr?$AAa?$AAi?$AAn?$AAL?$AAo?$AAc?$AAk?$AA?$AA@
CONST	SEGMENT
??_C@_1BE@GJBNEGJB@?$AAg?$AAr?$AAa?$AAi?$AAn?$AAL?$AAo?$AAc?$AAk?$AA?$AA@ DB 'g'
	DB	00H, 'r', 00H, 'a', 00H, 'i', 00H, 'n', 00H, 'L', 00H, 'o', 00H
	DB	'c', 00H, 'k', 00H, 00H, 00H			; `string'
CONST	ENDS
;	COMDAT ??_C@_1BO@ECPLJFCD@?$AAw?$AAi?$AAd?$AAt?$AAh?$AAV?$AAa?$AAr?$AAi?$AAa?$AAt?$AAi?$AAo?$AAn?$AA?$AA@
CONST	SEGMENT
??_C@_1BO@ECPLJFCD@?$AAw?$AAi?$AAd?$AAt?$AAh?$AAV?$AAa?$AAr?$AAi?$AAa?$AAt?$AAi?$AAo?$AAn?$AA?$AA@ DB 'w'
	DB	00H, 'i', 00H, 'd', 00H, 't', 00H, 'h', 00H, 'V', 00H, 'a', 00H
	DB	'r', 00H, 'i', 00H, 'a', 00H, 't', 00H, 'i', 00H, 'o', 00H, 'n'
	DB	00H, 00H, 00H				; `string'
CONST	ENDS
;	COMDAT ??_C@_1BM@MHGPDJM@?$AAg?$AAa?$AAi?$AAn?$AAV?$AAa?$AAr?$AAi?$AAa?$AAt?$AAi?$AAo?$AAn?$AA?$AA@
CONST	SEGMENT
??_C@_1BM@MHGPDJM@?$AAg?$AAa?$AAi?$AAn?$AAV?$AAa?$AAr?$AAi?$AAa?$AAt?$AAi?$AAo?$AAn?$AA?$AA@ DB 'g'
	DB	00H, 'a', 00H, 'i', 00H, 'n', 00H, 'V', 00H, 'a', 00H, 'r', 00H
	DB	'i', 00H, 'a', 00H, 't', 00H, 'i', 00H, 'o', 00H, 'n', 00H, 00H
	DB	00H						; `string'
CONST	ENDS
;	COMDAT ??_C@_1BG@IBLEJHEI@?$AAr?$AAa?$AAn?$AAd?$AAo?$AAm?$AAS?$AAe?$AAe?$AAd?$AA?$AA@
CONST	SEGMENT
??_C@_1BG@IBLEJHEI@?$AAr?$AAa?$AAn?$AAd?$AAo?$AAm?$AAS?$AAe?$AAe?$AAd?$AA?$AA@ DB 'r'
	DB	00H, 'a', 00H, 'n', 00H, 'd', 00H, 'o', 00H, 'm', 00H, 'S', 00H
	DB	'e', 00H, 'e', 00H, 'd', 00H, 00H, 00H	; `string'
CONST	ENDS
;	COMDAT ??_C@_19CCFLBDDD@?$AAs?$AAk?$AAe?$AAw?$AA?$AA@
CONST	SEGMENT
??_C@_19CCFLBDDD@?$AAs?$AAk?$AAe?$AAw?$AA?$AA@ DB 's', 00H, 'k', 00H, 'e', 00H
	DB	'w', 00H, 00H, 00H				; `string'
CONST	ENDS
;	COMDAT ??_C@_1BA@BCHLBBAP@?$AAs?$AAa?$AAm?$AAp?$AAl?$AAe?$AAs?$AA?$AA@
CONST	SEGMENT
??_C@_1BA@BCHLBBAP@?$AAs?$AAa?$AAm?$AAp?$AAl?$AAe?$AAs?$AA?$AA@ DB 's', 00H
	DB	'a', 00H, 'm', 00H, 'p', 00H, 'l', 00H, 'e', 00H, 's', 00H, 00H
	DB	00H						; `string'
CONST	ENDS
;	COMDAT ??_C@_19FAEGNKFL@?$AAm?$AAa?$AAp?$AA4?$AA?$AA@
CONST	SEGMENT
??_C@_19FAEGNKFL@?$AAm?$AAa?$AAp?$AA4?$AA?$AA@ DB 'm', 00H, 'a', 00H, 'p', 00H
	DB	'4', 00H, 00H, 00H				; `string'
CONST	ENDS
;	COMDAT ??_C@_19OIPKLNDO@?$AAm?$AAa?$AAp?$AA5?$AA?$AA@
CONST	SEGMENT
??_C@_19OIPKLNDO@?$AAm?$AAa?$AAp?$AA5?$AA?$AA@ DB 'm', 00H, 'a', 00H, 'p', 00H
	DB	'5', 00H, 00H, 00H				; `string'
CONST	ENDS
;	COMDAT ??_C@_1BM@DKGEJKPL@?$AAd?$AAi?$AAs?$AAt?$AAo?$AAr?$AAt?$AAi?$AAo?$AAn?$AAS?$AAt?$AAr?$AA?$AA@
CONST	SEGMENT
??_C@_1BM@DKGEJKPL@?$AAd?$AAi?$AAs?$AAt?$AAo?$AAr?$AAt?$AAi?$AAo?$AAn?$AAS?$AAt?$AAr?$AA?$AA@ DB 'd'
	DB	00H, 'i', 00H, 's', 00H, 't', 00H, 'o', 00H, 'r', 00H, 't', 00H
	DB	'i', 00H, 'o', 00H, 'n', 00H, 'S', 00H, 't', 00H, 'r', 00H, 00H
	DB	00H						; `string'
CONST	ENDS
;	COMDAT ??_C@_1BM@HCNKLGAJ@?$AAu?$AAs?$AAe?$AAD?$AAi?$AAs?$AAt?$AAo?$AAr?$AAt?$AAi?$AAo?$AAn?$AA?$AA@
CONST	SEGMENT
??_C@_1BM@HCNKLGAJ@?$AAu?$AAs?$AAe?$AAD?$AAi?$AAs?$AAt?$AAo?$AAr?$AAt?$AAi?$AAo?$AAn?$AA?$AA@ DB 'u'
	DB	00H, 's', 00H, 'e', 00H, 'D', 00H, 'i', 00H, 's', 00H, 't', 00H
	DB	'o', 00H, 'r', 00H, 't', 00H, 'i', 00H, 'o', 00H, 'n', 00H, 00H
	DB	00H						; `string'
CONST	ENDS
;	COMDAT ??_C@_1O@KEKEFEMI@?$AAo?$AAu?$AAt?$AAp?$AAu?$AAt?$AA?$AA@
CONST	SEGMENT
??_C@_1O@KEKEFEMI@?$AAo?$AAu?$AAt?$AAp?$AAu?$AAt?$AA?$AA@ DB 'o', 00H, 'u'
	DB	00H, 't', 00H, 'p', 00H, 'u', 00H, 't', 00H, 00H, 00H ; `string'
CONST	ENDS
PUBLIC	??_H@YAXPEAX_K1P6APEAX0@Z@Z			; `vector constructor iterator'
PUBLIC	?__empty_global_delete@@YAXPEAX@Z		; __empty_global_delete
PUBLIC	?__empty_global_delete@@YAXPEAX_K@Z		; __empty_global_delete
PUBLIC	?FreeCaches@Animatable@@UEAAXXZ			; Animatable::FreeCaches
PUBLIC	?BeginEditParams@Animatable@@UEAAXPEAVIObjParam@@KPEAV1@@Z ; Animatable::BeginEditParams
PUBLIC	?EndEditParams@Animatable@@UEAAXPEAVIObjParam@@KPEAV1@@Z ; Animatable::EndEditParams
PUBLIC	?BypassTreeView@Animatable@@UEAAHXZ		; Animatable::BypassTreeView
PUBLIC	?BypassTrackBar@Animatable@@UEAAHXZ		; Animatable::BypassTrackBar
PUBLIC	?BypassPropertyLevel@Animatable@@UEAAHXZ	; Animatable::BypassPropertyLevel
PUBLIC	?InvisibleProperty@Animatable@@UEAAHXZ		; Animatable::InvisibleProperty
PUBLIC	?AssignController@Animatable@@UEAAHPEAV1@H@Z	; Animatable::AssignController
PUBLIC	?CanAssignController@Animatable@@UEAAHH@Z	; Animatable::CanAssignController
PUBLIC	?CanDeleteSubAnim@Animatable@@UEAAHH@Z		; Animatable::CanDeleteSubAnim
PUBLIC	?DeleteSubAnim@Animatable@@UEAAXH@Z		; Animatable::DeleteSubAnim
PUBLIC	?GetSubAnimCurveColor@Animatable@@UEAAKH@Z	; Animatable::GetSubAnimCurveColor
PUBLIC	?CanCopyAnim@Animatable@@UEAAHXZ		; Animatable::CanCopyAnim
PUBLIC	?CanMakeUnique@Animatable@@UEAAHXZ		; Animatable::CanMakeUnique
PUBLIC	?NumChildren@Animatable@@UEAAHXZ		; Animatable::NumChildren
PUBLIC	?ChildAnim@Animatable@@UEAAPEAV1@H@Z		; Animatable::ChildAnim
PUBLIC	?RenderBegin@Animatable@@UEAAHHK@Z		; Animatable::RenderBegin
PUBLIC	?RenderEnd@Animatable@@UEAAHH@Z			; Animatable::RenderEnd
PUBLIC	?EditTrack@Animatable@@UEAAXXZ			; Animatable::EditTrack
PUBLIC	?NumKeys@Animatable@@UEAAHXZ			; Animatable::NumKeys
PUBLIC	?GetKeyTime@Animatable@@UEAAHH@Z		; Animatable::GetKeyTime
PUBLIC	?GetKeyIndex@Animatable@@UEAAHH@Z		; Animatable::GetKeyIndex
PUBLIC	?GetNextKeyTime@Animatable@@UEAAHHKAEAH@Z	; Animatable::GetNextKeyTime
PUBLIC	?CopyKeysFromTime@Animatable@@UEAAXHHK@Z	; Animatable::CopyKeysFromTime
PUBLIC	?DeleteKeyAtTime@Animatable@@UEAAXH@Z		; Animatable::DeleteKeyAtTime
PUBLIC	?IsKeyAtTime@Animatable@@UEAAHHK@Z		; Animatable::IsKeyAtTime
PUBLIC	?GetKeyTimes@Animatable@@UEAAHAEAV?$Tab@H@@VInterval@@K@Z ; Animatable::GetKeyTimes
PUBLIC	?GetKeySelState@Animatable@@UEAAHAEAVBitArray@@VInterval@@K@Z ; Animatable::GetKeySelState
PUBLIC	?EditTimeRange@Animatable@@UEAAXVInterval@@K@Z	; Animatable::EditTimeRange
PUBLIC	?DeleteTime@Animatable@@UEAAXVInterval@@K@Z	; Animatable::DeleteTime
PUBLIC	?ReverseTime@Animatable@@UEAAXVInterval@@K@Z	; Animatable::ReverseTime
PUBLIC	?ScaleTime@Animatable@@UEAAXVInterval@@M@Z	; Animatable::ScaleTime
PUBLIC	?InsertTime@Animatable@@UEAAXHH@Z		; Animatable::InsertTime
PUBLIC	?SupportTimeOperations@Animatable@@UEAAHXZ	; Animatable::SupportTimeOperations
PUBLIC	?DeleteKeys@Animatable@@UEAAXK@Z		; Animatable::DeleteKeys
PUBLIC	?DeleteKeyByIndex@Animatable@@UEAAXH@Z		; Animatable::DeleteKeyByIndex
PUBLIC	?SelectKeys@Animatable@@UEAAXAEAV?$Tab@VTrackHitRecord@@@@K@Z ; Animatable::SelectKeys
PUBLIC	?SelectSubKeys@Animatable@@UEAAXHAEAV?$Tab@VTrackHitRecord@@@@K@Z ; Animatable::SelectSubKeys
PUBLIC	?SelectSubCurve@Animatable@@UEAAXHH@Z		; Animatable::SelectSubCurve
PUBLIC	?SelectKeyByIndex@Animatable@@UEAAXHH@Z		; Animatable::SelectKeyByIndex
PUBLIC	?IsKeySelected@Animatable@@UEAAHH@Z		; Animatable::IsKeySelected
PUBLIC	?FlagKey@Animatable@@UEAAXVTrackHitRecord@@@Z	; Animatable::FlagKey
PUBLIC	?GetFlagKeyIndex@Animatable@@UEAAHXZ		; Animatable::GetFlagKeyIndex
PUBLIC	?NumSelKeys@Animatable@@UEAAHXZ			; Animatable::NumSelKeys
PUBLIC	?CloneSelectedKeys@Animatable@@UEAAXH@Z		; Animatable::CloneSelectedKeys
PUBLIC	?AddNewKey@Animatable@@UEAAXHK@Z		; Animatable::AddNewKey
PUBLIC	?MoveKeys@Animatable@@UEAAXPEAVParamDimensionBase@@MK@Z ; Animatable::MoveKeys
PUBLIC	?ScaleKeyValues@Animatable@@UEAAXPEAVParamDimensionBase@@MMK@Z ; Animatable::ScaleKeyValues
PUBLIC	?SelectCurve@Animatable@@UEAAXH@Z		; Animatable::SelectCurve
PUBLIC	?IsCurveSelected@Animatable@@UEAAHXZ		; Animatable::IsCurveSelected
PUBLIC	?IsSubCurveSelected@Animatable@@UEAAHH@Z	; Animatable::IsSubCurveSelected
PUBLIC	?GetSelKeyCoords@Animatable@@UEAAHAEAHAEAMK@Z	; Animatable::GetSelKeyCoords
PUBLIC	?SetSelKeyCoords@Animatable@@UEAAXHMK@Z		; Animatable::SetSelKeyCoords
PUBLIC	?SetSelKeyCoordsExpr@Animatable@@UEAAHPEAVParamDimension@@PEB_W1K@Z ; Animatable::SetSelKeyCoordsExpr
PUBLIC	?AdjustTangents@Animatable@@UEAAXVTrackHitRecord@@PEAVParamDimensionBase@@AEAVBox2@@MHMHHHK@Z ; Animatable::AdjustTangents
PUBLIC	?AdjustTangents@Animatable@@UEAAXVTrackHitRecord@@PEAVParamDimensionBase@@MMK@Z ; Animatable::AdjustTangents
PUBLIC	?SetKeyBufferPresent@Animatable@@UEAAHXZ	; Animatable::SetKeyBufferPresent
PUBLIC	?CommitSetKeyBuffer@Animatable@@UEAAXH@Z	; Animatable::CommitSetKeyBuffer
PUBLIC	?RevertSetKeyBuffer@Animatable@@UEAAXXZ		; Animatable::RevertSetKeyBuffer
PUBLIC	?CanCopyTrack@Animatable@@UEAAHVInterval@@K@Z	; Animatable::CanCopyTrack
PUBLIC	?CanPasteTrack@Animatable@@UEAAHPEAVTrackClipObject@@VInterval@@K@Z ; Animatable::CanPasteTrack
PUBLIC	?CopyTrack@Animatable@@UEAAPEAVTrackClipObject@@VInterval@@K@Z ; Animatable::CopyTrack
PUBLIC	?PasteTrack@Animatable@@UEAAXPEAVTrackClipObject@@VInterval@@K@Z ; Animatable::PasteTrack
PUBLIC	?CanCopySubTrack@Animatable@@UEAAHHVInterval@@K@Z ; Animatable::CanCopySubTrack
PUBLIC	?CanPasteSubTrack@Animatable@@UEAAHHPEAVTrackClipObject@@VInterval@@K@Z ; Animatable::CanPasteSubTrack
PUBLIC	?CopySubTrack@Animatable@@UEAAPEAVTrackClipObject@@HVInterval@@K@Z ; Animatable::CopySubTrack
PUBLIC	?PasteSubTrack@Animatable@@UEAAXHPEAVTrackClipObject@@VInterval@@K@Z ; Animatable::PasteSubTrack
PUBLIC	?GetTrackVSpace@Animatable@@UEAAHH@Z		; Animatable::GetTrackVSpace
PUBLIC	?HitTestTrack@Animatable@@UEAAHAEAV?$Tab@VTrackHitRecord@@@@AEAVBox2@@1MHK@Z ; Animatable::HitTestTrack
PUBLIC	?PaintTrack@Animatable@@UEAAHPEAVParamDimensionBase@@PEAUHDC__@@AEAVBox2@@2MHK@Z ; Animatable::PaintTrack
PUBLIC	?PaintSubTrack@Animatable@@UEAAHHPEAVParamDimensionBase@@PEAUHDC__@@AEAVBox2@@2MHK@Z ; Animatable::PaintSubTrack
PUBLIC	?PaintFCurves@Animatable@@UEAAHPEAVParamDimensionBase@@PEAUHDC__@@AEAVBox2@@2MHMHK@Z ; Animatable::PaintFCurves
PUBLIC	?HitTestFCurves@Animatable@@UEAAHPEAVParamDimensionBase@@AEAV?$Tab@VTrackHitRecord@@@@AEAVBox2@@2MHMHK@Z ; Animatable::HitTestFCurves
PUBLIC	?PaintSubFCurves@Animatable@@UEAAHHPEAVParamDimensionBase@@PEAUHDC__@@AEAVBox2@@2MHMHK@Z ; Animatable::PaintSubFCurves
PUBLIC	?HitTestSubFCurves@Animatable@@UEAAHHPEAVParamDimensionBase@@AEAV?$Tab@VTrackHitRecord@@@@AEAVBox2@@2MHMHK@Z ; Animatable::HitTestSubFCurves
PUBLIC	?EditTrackParams@Animatable@@UEAAXHPEAVParamDimensionBase@@PEB_WPEAUHWND__@@PEAVIObjParam@@K@Z ; Animatable::EditTrackParams
PUBLIC	?TrackParamsType@Animatable@@UEAAHXZ		; Animatable::TrackParamsType
PUBLIC	?GetFCurveExtents@Animatable@@UEAAHPEAVParamDimensionBase@@AEAM1K@Z ; Animatable::GetFCurveExtents
PUBLIC	?GetSubFCurveExtents@Animatable@@UEAAHHPEAVParamDimensionBase@@AEAM1K@Z ; Animatable::GetSubFCurveExtents
PUBLIC	?GetParamDimension@Animatable@@UEAAPEAVParamDimension@@H@Z ; Animatable::GetParamDimension
PUBLIC	?TrackViewWinProc@Animatable@@UEAA_JPEAUHWND__@@I_K_J@Z ; Animatable::TrackViewWinProc
PUBLIC	?SelectSubAnim@Animatable@@UEAAHH@Z		; Animatable::SelectSubAnim
PUBLIC	?FreeAllBitmaps@Animatable@@UEAAXXZ		; Animatable::FreeAllBitmaps
PUBLIC	?GetSystemNodes@Animatable@@UEAAXAEAVINodeTab@@W4SysNodeContext@@@Z ; Animatable::GetSystemNodes
PUBLIC	?IsSubClassOf@Animatable@@UEAAHVClass_ID@@@Z	; Animatable::IsSubClassOf
PUBLIC	?IsParamBlockDesc2Used@Animatable@@UEAA_NPEAVParamBlockDesc2@@@Z ; Animatable::IsParamBlockDesc2Used
PUBLIC	?GetMacroRecorderName@Animatable@@UEAA_N_NAEAVWStr@@@Z ; Animatable::GetMacroRecorderName
PUBLIC	?CanTransferReference@ReferenceMaker@@UEAAHH@Z	; ReferenceMaker::CanTransferReference
PUBLIC	?RemapRefOnLoad@ReferenceMaker@@UEAAHH@Z	; ReferenceMaker::RemapRefOnLoad
PUBLIC	?NotifyDependents@ReferenceMaker@@EEAA?AW4RefResult@@AEBVInterval@@_KIKHPEAVReferenceTarget@@@Z ; ReferenceMaker::NotifyDependents
PUBLIC	?IsRefMaker@ReferenceMaker@@UEAAHXZ		; ReferenceMaker::IsRefMaker
PUBLIC	?IsRealDependency@ReferenceMaker@@UEAAHPEAVReferenceTarget@@@Z ; ReferenceMaker::IsRealDependency
PUBLIC	?ShouldPersistWeakRef@ReferenceMaker@@UEAAHPEAVReferenceTarget@@@Z ; ReferenceMaker::ShouldPersistWeakRef
PUBLIC	?IsRefTarget@ReferenceTarget@@UEAAHXZ		; ReferenceTarget::IsRefTarget
PUBLIC	?RefAddedUndoRedo@ReferenceTarget@@UEAAXPEAVReferenceMaker@@@Z ; ReferenceTarget::RefAddedUndoRedo
PUBLIC	?RefDeleted@ReferenceTarget@@UEAAXXZ		; ReferenceTarget::RefDeleted
PUBLIC	?RefDeletedUndoRedo@ReferenceTarget@@UEAAXXZ	; ReferenceTarget::RefDeletedUndoRedo
PUBLIC	?NotifyForeground@ReferenceTarget@@UEAAXH@Z	; ReferenceTarget::NotifyForeground
PUBLIC	?NotifyTarget@ReferenceTarget@@UEAAXHPEAVReferenceMaker@@@Z ; ReferenceTarget::NotifyTarget
PUBLIC	??A?$Tab@PEAVFPInterface@@@@QEBAAEAPEAVFPInterface@@_J@Z ; Tab<FPInterface * __ptr64>::operator[]
PUBLIC	?Set@BitArray@@QEAAXH@Z				; BitArray::Set
PUBLIC	??0Color@@QEAA@XZ				; Color::Color
PUBLIC	??0AColor@@QEAA@XZ				; AColor::AColor
PUBLIC	?SubTexmapOn@ISubMap@@UEAAHH@Z			; ISubMap::SubTexmapOn
PUBLIC	?BuildMaps@MtlBase@@UEAAHHAEAVRenderMapsContext@@@Z ; MtlBase::BuildMaps
PUBLIC	?LocalMappingsRequired@MtlBase@@UEAAXHAEAVBitArray@@0@Z ; MtlBase::LocalMappingsRequired
PUBLIC	?IsMultiMtl@MtlBase@@UEAAHXZ			; MtlBase::IsMultiMtl
PUBLIC	?SupportsMultiMapsInViewport@MtlBase@@UEAAHXZ	; MtlBase::SupportsMultiMapsInViewport
PUBLIC	?SetupGfxMultiMaps@MtlBase@@UEAAXHPEAVMaterial@@AEAVMtlMakerCallback@@@Z ; MtlBase::SetupGfxMultiMaps
PUBLIC	?GetInterface@MtlBase@@UEAAPEAVBaseInterface@@VInterface_ID@@@Z ; MtlBase::GetInterface
PUBLIC	?GetRefTarget@MtlBase@@UEAAPEAVReferenceTarget@@XZ ; MtlBase::GetRefTarget
PUBLIC	?GetTransparencyHint@MtlBase@@UEAAHHAEAVInterval@@@Z ; MtlBase::GetTransparencyHint
PUBLIC	?HandleOwnViewPerturb@Texmap@@UEAAHXZ		; Texmap::HandleOwnViewPerturb
PUBLIC	?GetUVTransform@Texmap@@UEAAXAEAVMatrix3@@@Z	; Texmap::GetUVTransform
PUBLIC	?GetTextureTiling@Texmap@@UEAAHXZ		; Texmap::GetTextureTiling
PUBLIC	?GetUVWSource@Texmap@@UEAAHXZ			; Texmap::GetUVWSource
PUBLIC	?GetMapChannel@Texmap@@UEAAHXZ			; Texmap::GetMapChannel
PUBLIC	?InitSlotType@Texmap@@UEAAXH@Z			; Texmap::InitSlotType
PUBLIC	?MapSlotType@Texmap@@UEAAHH@Z			; Texmap::MapSlotType
PUBLIC	?GetTheUVGen@Texmap@@UEAAPEAVUVGen@@XZ		; Texmap::GetTheUVGen
PUBLIC	?GetTheXYZGen@Texmap@@UEAAPEAVXYZGen@@XZ	; Texmap::GetTheXYZGen
PUBLIC	?SetOutputLevel@Texmap@@UEAAXHM@Z		; Texmap::SetOutputLevel
PUBLIC	?IsLocalOutputMeaningful@Texmap@@UEAA_NAEAVShadeContext@@@Z ; Texmap::IsLocalOutputMeaningful
PUBLIC	?LoadMapFiles@Texmap@@UEAAHH@Z			; Texmap::LoadMapFiles
PUBLIC	?IsHighDynamicRange@Texmap@@UEBAHXZ		; Texmap::IsHighDynamicRange
PUBLIC	??1Texmap@@UEAA@XZ				; Texmap::~Texmap
PUBLIC	??1?$Tab@PEAVVertexNormalsCallback@@@@UEAA@XZ	; Tab<VertexNormalsCallback * __ptr64>::~Tab<VertexNormalsCallback * __ptr64>
PUBLIC	??_G?$Tab@PEAVVertexNormalsCallback@@@@UEAAPEAXI@Z ; Tab<VertexNormalsCallback * __ptr64>::`scalar deleting destructor'
PUBLIC	??0VertexNormalsControl@@QEAA@XZ		; VertexNormalsControl::VertexNormalsControl
PUBLIC	??1ParamMap2UserDlgProc@@UEAA@XZ		; ParamMap2UserDlgProc::~ParamMap2UserDlgProc
PUBLIC	?SetThing@ParamMap2UserDlgProc@@UEAAXPEAVReferenceTarget@@@Z ; ParamMap2UserDlgProc::SetThing
PUBLIC	?Update@ParamMap2UserDlgProc@@UEAAXH@Z		; ParamMap2UserDlgProc::Update
PUBLIC	?SetParamBlock@ParamMap2UserDlgProc@@UEAAXPEAVIParamBlock2@@@Z ; ParamMap2UserDlgProc::SetParamBlock
PUBLIC	?Update@ParamMap2UserDlgProc@@UEAAXHAEAVInterval@@PEAVIParamMap2@@@Z ; ParamMap2UserDlgProc::Update
PUBLIC	??_GParamMap2UserDlgProc@@UEAAPEAXI@Z		; ParamMap2UserDlgProc::`scalar deleting destructor'
PUBLIC	?SetCustomImageList@ResourceMakerCallback@@UEAAHAEAPEAU_IMAGELIST@@PEAVICurveCtl@@@Z ; ResourceMakerCallback::SetCustomImageList
PUBLIC	?GetToolTip@ResourceMakerCallback@@UEAAHHAEAVWStr@@PEAVICurveCtl@@@Z ; ResourceMakerCallback::GetToolTip
PUBLIC	?ResetCallback@ResourceMakerCallback@@UEAAXHPEAVICurveCtl@@@Z ; ResourceMakerCallback::ResetCallback
PUBLIC	?NewCurveCreatedCallback@ResourceMakerCallback@@UEAAXHPEAVICurveCtl@@@Z ; ResourceMakerCallback::NewCurveCreatedCallback
PUBLIC	?GetInterface@ResourceMakerCallback@@UEAAPEAXK@Z ; ResourceMakerCallback::GetInterface
PUBLIC	??0XYZ_Desc@@QEAA@PEAVClassDesc2@@HHHHHHH@Z	; XYZ_Desc::XYZ_Desc
PUBLIC	?DlgProc@BerconXYZDlgProc@@UEAA_JHPEAVIParamMap2@@PEAUHWND__@@I_K_J@Z ; BerconXYZDlgProc::DlgProc
PUBLIC	?DeleteThis@BerconXYZDlgProc@@UEAAXXZ		; BerconXYZDlgProc::DeleteThis
PUBLIC	?SetThing@BerconXYZDlgProc@@UEAAXPEAVReferenceTarget@@@Z ; BerconXYZDlgProc::SetThing
PUBLIC	??_GBerconXYZDlgProc@@UEAAPEAXI@Z		; BerconXYZDlgProc::`scalar deleting destructor'
PUBLIC	??0BerconXYZ@@QEAA@XZ				; BerconXYZ::BerconXYZ
PUBLIC	?applyDistortion@BerconWood@@QEAAXAEAVShadeContext@@AEAVPoint3@@@Z ; BerconWood::applyDistortion
PUBLIC	?EnableStuff@BerconWood@@QEAAXXZ		; BerconWood::EnableStuff
PUBLIC	?EvalParameters@BerconWood@@QEAA?AVWoodParam@@AEAVShadeContext@@@Z ; BerconWood::EvalParameters
PUBLIC	?SetCustomImageList@BerconWood@@UEAAHAEAPEAU_IMAGELIST@@PEAVICurveCtl@@@Z ; BerconWood::SetCustomImageList
PUBLIC	?GetToolTip@BerconWood@@UEAAHHAEAVWStr@@PEAVICurveCtl@@@Z ; BerconWood::GetToolTip
PUBLIC	?ResetCallback@BerconWood@@UEAAXHPEAVICurveCtl@@@Z ; BerconWood::ResetCallback
PUBLIC	?NewCurveCreatedCallback@BerconWood@@UEAAXHPEAVICurveCtl@@@Z ; BerconWood::NewCurveCreatedCallback
PUBLIC	?DiscardTexHandle@BerconWood@@QEAAXXZ		; BerconWood::DiscardTexHandle
PUBLIC	?SupportTexDisplay@BerconWood@@UEAAHXZ		; BerconWood::SupportTexDisplay
PUBLIC	?ActivateTexDisplay@BerconWood@@UEAAXH@Z	; BerconWood::ActivateTexDisplay
PUBLIC	?GetActiveTexHandle@BerconWood@@UEAA_KHAEAVTexHandleMaker@@@Z ; BerconWood::GetActiveTexHandle
PUBLIC	?CreateParamDlg@BerconWood@@UEAAPEAVParamDlg@@PEAUHWND__@@PEAVIMtlParams@@@Z ; BerconWood::CreateParamDlg
PUBLIC	?SetDlgThing@BerconWood@@UEAAHPEAVParamDlg@@@Z	; BerconWood::SetDlgThing
PUBLIC	?Update@BerconWood@@UEAAXHAEAVInterval@@@Z	; BerconWood::Update
PUBLIC	?Reset@BerconWood@@UEAAXXZ			; BerconWood::Reset
PUBLIC	?Validity@BerconWood@@UEAA?AVInterval@@H@Z	; BerconWood::Validity
PUBLIC	?LocalRequirements@BerconWood@@UEAAKH@Z		; BerconWood::LocalRequirements
PUBLIC	?MappingsRequired@BerconWood@@UEAAXHAEAVBitArray@@0@Z ; BerconWood::MappingsRequired
PUBLIC	?NumSubTexmaps@BerconWood@@UEAAHXZ		; BerconWood::NumSubTexmaps
PUBLIC	?GetSubTexmap@BerconWood@@UEAAPEAVTexmap@@H@Z	; BerconWood::GetSubTexmap
PUBLIC	?SetSubTexmap@BerconWood@@UEAAXHPEAVTexmap@@@Z	; BerconWood::SetSubTexmap
PUBLIC	?GetSubTexmapSlotName@BerconWood@@UEAA?AVWStr@@H@Z ; BerconWood::GetSubTexmapSlotName
PUBLIC	?EvalColor@BerconWood@@UEAA?AVAColor@@AEAVShadeContext@@@Z ; BerconWood::EvalColor
PUBLIC	?EvalMono@BerconWood@@UEAAMAEAVShadeContext@@@Z	; BerconWood::EvalMono
PUBLIC	?EvalNormalPerturb@BerconWood@@UEAA?AVPoint3@@AEAVShadeContext@@@Z ; BerconWood::EvalNormalPerturb
PUBLIC	?SubNumToRefNum@BerconWood@@UEAAHH@Z		; BerconWood::SubNumToRefNum
PUBLIC	?ClassID@BerconWood@@UEAA?AVClass_ID@@XZ	; BerconWood::ClassID
PUBLIC	?SuperClassID@BerconWood@@UEAAKXZ		; BerconWood::SuperClassID
PUBLIC	?GetClassName@BerconWood@@UEAAXAEAVWStr@@@Z	; BerconWood::GetClassName
PUBLIC	?Clone@BerconWood@@UEAAPEAVReferenceTarget@@AEAVRemapDir@@@Z ; BerconWood::Clone
PUBLIC	?NotifyRefChanged@BerconWood@@UEAA?AW4RefResult@@AEBVInterval@@PEAVReferenceTarget@@AEA_KIH@Z ; BerconWood::NotifyRefChanged
PUBLIC	?NumSubs@BerconWood@@UEAAHXZ			; BerconWood::NumSubs
PUBLIC	?SubAnim@BerconWood@@UEAAPEAVAnimatable@@H@Z	; BerconWood::SubAnim
PUBLIC	?SubAnimName@BerconWood@@UEAA?AVWStr@@H@Z	; BerconWood::SubAnimName
PUBLIC	?NumRefs@BerconWood@@UEAAHXZ			; BerconWood::NumRefs
PUBLIC	?GetReference@BerconWood@@UEAAPEAVReferenceTarget@@H@Z ; BerconWood::GetReference
PUBLIC	?SetReference@BerconWood@@UEAAXHPEAVReferenceTarget@@@Z ; BerconWood::SetReference
PUBLIC	?NumParamBlocks@BerconWood@@UEAAHXZ		; BerconWood::NumParamBlocks
PUBLIC	?GetParamBlock@BerconWood@@UEAAPEAVIParamBlock2@@H@Z ; BerconWood::GetParamBlock
PUBLIC	?GetParamBlockByID@BerconWood@@UEAAPEAVIParamBlock2@@F@Z ; BerconWood::GetParamBlockByID
PUBLIC	?DeleteThis@BerconWood@@UEAAXXZ			; BerconWood::DeleteThis
PUBLIC	??0BerconWood@@QEAA@XZ				; BerconWood::BerconWood
PUBLIC	??1BerconWood@@UEAA@XZ				; BerconWood::~BerconWood
PUBLIC	?GetInterface@BerconWood@@UEAAPEAXK@Z		; BerconWood::GetInterface
PUBLIC	??_GBerconWood@@UEAAPEAXI@Z			; BerconWood::`scalar deleting destructor'
PUBLIC	?GetBerconWoodDesc@@YAPEAVClassDesc2@@XZ	; GetBerconWoodDesc
PUBLIC	?DlgProc@BerconWoodDlgProc@@UEAA_JHPEAVIParamMap2@@PEAUHWND__@@I_K_J@Z ; BerconWoodDlgProc::DlgProc
PUBLIC	?DeleteThis@BerconWoodDlgProc@@UEAAXXZ		; BerconWoodDlgProc::DeleteThis
PUBLIC	?SetThing@BerconWoodDlgProc@@UEAAXPEAVReferenceTarget@@@Z ; BerconWoodDlgProc::SetThing
PUBLIC	??_GBerconWoodDlgProc@@UEAAPEAXI@Z		; BerconWoodDlgProc::`scalar deleting destructor'
PUBLIC	??_EBerconWood@@WEI@EAAPEAXI@Z			; [thunk]:BerconWood::`vector deleting destructor'
PUBLIC	?GetInterface@BerconWood@@WJI@EAAPEAXK@Z	; [thunk]:BerconWood::GetInterface`adjustor{152}'
PUBLIC	??_C@_11LOCGONAA@?$AA?$AA@			; `string'
PUBLIC	??_C@_1BE@CFDJOJFP@?$AAf?$AA?5?$AA?$CB?$AA?$DN?$AA?5?$AA0?$AA?4?$AA0?$AAf?$AA?$AA@ ; `string'
PUBLIC	??_C@_13COJANIEC@?$AA0?$AA?$AA@			; `string'
PUBLIC	??_C@_1CM@HBLCKHLG@?$AAA?$AAn?$AAi?$AAm?$AAa?$AAt?$AAa?$AAb?$AAl?$AAe?$AA?3?$AA?3?$AAE?$AAd?$AAi?$AAt?$AAT?$AAr?$AAa?$AAc?$AAk?$AA?$AA@ ; `string'
PUBLIC	??_C@_1IO@OMAAFOOI@?$AAc?$AA?3?$AA?2?$AAp?$AAr?$AAo?$AAg?$AAr?$AAa?$AAm?$AA?5?$AAf?$AAi?$AAl?$AAe?$AAs?$AA?2?$AAa?$AAu?$AAt?$AAo?$AAd?$AAe?$AAs?$AAk?$AA?2?$AA3?$AAd?$AAs?$AA?5?$AAm?$AAa@ ; `string'
PUBLIC	??_C@_1M@HLGKFCJM@?$AAf?$AAa?$AAl?$AAs?$AAe?$AA?$AA@ ; `string'
PUBLIC	??_C@_1EC@POJFJEHG@?$AAR?$AAe?$AAf?$AAe?$AAr?$AAe?$AAn?$AAc?$AAe?$AAM?$AAa?$AAk?$AAe?$AAr?$AA?3?$AA?3?$AAN?$AAo?$AAt?$AAi?$AAf?$AAy?$AAD?$AAe?$AAp?$AAe?$AAn?$AAd?$AAe?$AAn?$AAt?$AAs@ ; `string'
PUBLIC	??_C@_1IA@EDMIGCEG@?$AAc?$AA?3?$AA?2?$AAp?$AAr?$AAo?$AAg?$AAr?$AAa?$AAm?$AA?5?$AAf?$AAi?$AAl?$AAe?$AAs?$AA?2?$AAa?$AAu?$AAt?$AAo?$AAd?$AAe?$AAs?$AAk?$AA?2?$AA3?$AAd?$AAs?$AA?5?$AAm?$AAa@ ; `string'
PUBLIC	??_C@_1IG@JJKCGENH@?$AAc?$AA?3?$AA?2?$AAp?$AAr?$AAo?$AAg?$AAr?$AAa?$AAm?$AA?5?$AAf?$AAi?$AAl?$AAe?$AAs?$AA?2?$AAa?$AAu?$AAt?$AAo?$AAd?$AAe?$AAs?$AAk?$AA?2?$AA3?$AAd?$AAs?$AA?5?$AAm?$AAa@ ; `string'
PUBLIC	??_C@_1CI@HCOGDKGH@?$AAP?$AAo?$AAi?$AAn?$AAt?$AA3?$AA?3?$AA?3?$AAo?$AAp?$AAe?$AAr?$AAa?$AAt?$AAo?$AAr?$AA?5?$AA?1?$AA?$DN?$AA?$AA@ ; `string'
PUBLIC	??_C@_1IK@POEJJLJB@?$AAc?$AA?3?$AA?2?$AAp?$AAr?$AAo?$AAg?$AAr?$AAa?$AAm?$AA?5?$AAf?$AAi?$AAl?$AAe?$AAs?$AA?2?$AAa?$AAu?$AAt?$AAo?$AAd?$AAe?$AAs?$AAk?$AA?2?$AA3?$AAd?$AAs?$AA?5?$AAm?$AAa@ ; `string'
PUBLIC	??_C@_1CE@GBNPOKPK@?$AAi?$AA?$DO?$AA?9?$AA1?$AA?5?$AA?$CG?$AA?$CG?$AA?5?$AAi?$AA?$DM?$AAn?$AAu?$AAm?$AAB?$AAi?$AAt?$AAs?$AA?$AA@ ; `string'
PUBLIC	??_C@_1BM@HADNIIA@?$AAB?$AAi?$AAt?$AAA?$AAr?$AAr?$AAa?$AAy?$AA?3?$AA?3?$AAS?$AAe?$AAt?$AA?$AA@ ; `string'
PUBLIC	??_7?$Tab@PEAVVertexNormalsCallback@@@@6B@	; Tab<VertexNormalsCallback * __ptr64>::`vftable'
PUBLIC	??_7ParamMap2UserDlgProc@@6B@			; ParamMap2UserDlgProc::`vftable'
PUBLIC	??_7ResourceMakerCallback@@6B@			; ResourceMakerCallback::`vftable'
PUBLIC	??_7BerconXYZDlgProc@@6B@			; BerconXYZDlgProc::`vftable'
PUBLIC	??_C@_13PHJMHGG@?$AAL?$AA?$AA@			; `string'
PUBLIC	??_7BerconWood@@6BReferenceTarget@@@		; BerconWood::`vftable'
PUBLIC	??_7BerconWood@@6BISubMap@@@			; BerconWood::`vftable'
PUBLIC	??_7BerconWood@@6B@				; BerconWood::`vftable'
PUBLIC	??_7BerconWoodDlgProc@@6B@			; BerconWoodDlgProc::`vftable'
PUBLIC	??_R1A@?0A@EA@ReferenceTarget@@8		; ReferenceTarget::`RTTI Base Class Descriptor at (0,-1,0,64)'
PUBLIC	??_R0?AVReferenceTarget@@@8			; ReferenceTarget `RTTI Type Descriptor'
PUBLIC	??_R3ReferenceTarget@@8				; ReferenceTarget::`RTTI Class Hierarchy Descriptor'
PUBLIC	??_R2ReferenceTarget@@8				; ReferenceTarget::`RTTI Base Class Array'
PUBLIC	??_R1A@?0A@EA@ReferenceMaker@@8			; ReferenceMaker::`RTTI Base Class Descriptor at (0,-1,0,64)'
PUBLIC	??_R0?AVReferenceMaker@@@8			; ReferenceMaker `RTTI Type Descriptor'
PUBLIC	??_R3ReferenceMaker@@8				; ReferenceMaker::`RTTI Class Hierarchy Descriptor'
PUBLIC	??_R2ReferenceMaker@@8				; ReferenceMaker::`RTTI Base Class Array'
PUBLIC	??_R1A@?0A@EA@Animatable@@8			; Animatable::`RTTI Base Class Descriptor at (0,-1,0,64)'
PUBLIC	??_R0?AVAnimatable@@@8				; Animatable `RTTI Type Descriptor'
PUBLIC	??_R3Animatable@@8				; Animatable::`RTTI Class Hierarchy Descriptor'
PUBLIC	??_R2Animatable@@8				; Animatable::`RTTI Base Class Array'
PUBLIC	??_R18?0A@EA@Noncopyable@Util@MaxSDK@@8		; MaxSDK::Util::Noncopyable::`RTTI Base Class Descriptor at (9,-1,0,64)'
PUBLIC	??_R18?0A@EC@MaxHeapOperators@@8		; MaxHeapOperators::`RTTI Base Class Descriptor at (9,-1,0,66)'
PUBLIC	??_R1FA@?0A@EC@MaxHeapOperators@@8		; MaxHeapOperators::`RTTI Base Class Descriptor at (80,-1,0,66)'
PUBLIC	??_R4ParamMap2UserDlgProc@@6B@			; ParamMap2UserDlgProc::`RTTI Complete Object Locator'
PUBLIC	??_R0?AVParamMap2UserDlgProc@@@8		; ParamMap2UserDlgProc `RTTI Type Descriptor'
PUBLIC	??_R3ParamMap2UserDlgProc@@8			; ParamMap2UserDlgProc::`RTTI Class Hierarchy Descriptor'
PUBLIC	??_R2ParamMap2UserDlgProc@@8			; ParamMap2UserDlgProc::`RTTI Base Class Array'
PUBLIC	??_R1A@?0A@EA@ParamMap2UserDlgProc@@8		; ParamMap2UserDlgProc::`RTTI Base Class Descriptor at (0,-1,0,64)'
PUBLIC	??_R0?AVISubMap@@@8				; ISubMap `RTTI Type Descriptor'
PUBLIC	??_R3ISubMap@@8					; ISubMap::`RTTI Class Hierarchy Descriptor'
PUBLIC	??_R2ISubMap@@8					; ISubMap::`RTTI Base Class Array'
PUBLIC	??_R1A@?0A@EA@ISubMap@@8			; ISubMap::`RTTI Base Class Descriptor at (0,-1,0,64)'
PUBLIC	??_R4?$Tab@PEAVVertexNormalsCallback@@@@6B@	; Tab<VertexNormalsCallback * __ptr64>::`RTTI Complete Object Locator'
PUBLIC	??_R0?AV?$Tab@PEAVVertexNormalsCallback@@@@@8	; Tab<VertexNormalsCallback * __ptr64> `RTTI Type Descriptor'
PUBLIC	??_R3?$Tab@PEAVVertexNormalsCallback@@@@8	; Tab<VertexNormalsCallback * __ptr64>::`RTTI Class Hierarchy Descriptor'
PUBLIC	??_R2?$Tab@PEAVVertexNormalsCallback@@@@8	; Tab<VertexNormalsCallback * __ptr64>::`RTTI Base Class Array'
PUBLIC	??_R1A@?0A@EA@?$Tab@PEAVVertexNormalsCallback@@@@8 ; Tab<VertexNormalsCallback * __ptr64>::`RTTI Base Class Descriptor at (0,-1,0,64)'
PUBLIC	??_R4ResourceMakerCallback@@6B@			; ResourceMakerCallback::`RTTI Complete Object Locator'
PUBLIC	??_R0?AVResourceMakerCallback@@@8		; ResourceMakerCallback `RTTI Type Descriptor'
PUBLIC	??_R3ResourceMakerCallback@@8			; ResourceMakerCallback::`RTTI Class Hierarchy Descriptor'
PUBLIC	??_R2ResourceMakerCallback@@8			; ResourceMakerCallback::`RTTI Base Class Array'
PUBLIC	??_R1A@?0A@EA@ResourceMakerCallback@@8		; ResourceMakerCallback::`RTTI Base Class Descriptor at (0,-1,0,64)'
PUBLIC	??_R4BerconXYZDlgProc@@6B@			; BerconXYZDlgProc::`RTTI Complete Object Locator'
PUBLIC	??_R0?AVBerconXYZDlgProc@@@8			; BerconXYZDlgProc `RTTI Type Descriptor'
PUBLIC	??_R3BerconXYZDlgProc@@8			; BerconXYZDlgProc::`RTTI Class Hierarchy Descriptor'
PUBLIC	??_R2BerconXYZDlgProc@@8			; BerconXYZDlgProc::`RTTI Base Class Array'
PUBLIC	??_R1A@?0A@EA@BerconXYZDlgProc@@8		; BerconXYZDlgProc::`RTTI Base Class Descriptor at (0,-1,0,64)'
PUBLIC	??_R4BerconWood@@6BReferenceTarget@@@		; BerconWood::`RTTI Complete Object Locator'
PUBLIC	??_R0?AVBerconWood@@@8				; BerconWood `RTTI Type Descriptor'
PUBLIC	??_R3BerconWood@@8				; BerconWood::`RTTI Class Hierarchy Descriptor'
PUBLIC	??_R2BerconWood@@8				; BerconWood::`RTTI Base Class Array'
PUBLIC	??_R1A@?0A@EA@BerconWood@@8			; BerconWood::`RTTI Base Class Descriptor at (0,-1,0,64)'
PUBLIC	??_R1A@?0A@EA@Texmap@@8				; Texmap::`RTTI Base Class Descriptor at (0,-1,0,64)'
PUBLIC	??_R0?AVTexmap@@@8				; Texmap `RTTI Type Descriptor'
PUBLIC	??_R3Texmap@@8					; Texmap::`RTTI Class Hierarchy Descriptor'
PUBLIC	??_R2Texmap@@8					; Texmap::`RTTI Base Class Array'
PUBLIC	??_R1A@?0A@EA@MtlBase@@8			; MtlBase::`RTTI Base Class Descriptor at (0,-1,0,64)'
PUBLIC	??_R0?AVMtlBase@@@8				; MtlBase `RTTI Type Descriptor'
PUBLIC	??_R3MtlBase@@8					; MtlBase::`RTTI Class Hierarchy Descriptor'
PUBLIC	??_R2MtlBase@@8					; MtlBase::`RTTI Base Class Array'
PUBLIC	??_R1EI@?0A@EA@ISubMap@@8			; ISubMap::`RTTI Base Class Descriptor at (72,-1,0,64)'
PUBLIC	??_R1JI@?0A@EA@ResourceMakerCallback@@8		; ResourceMakerCallback::`RTTI Base Class Descriptor at (152,-1,0,64)'
PUBLIC	??_R1KA@?0A@EC@MaxHeapOperators@@8		; MaxHeapOperators::`RTTI Base Class Descriptor at (160,-1,0,66)'
PUBLIC	??_R4BerconWood@@6BISubMap@@@			; BerconWood::`RTTI Complete Object Locator'
PUBLIC	??_R4BerconWood@@6B@				; BerconWood::`RTTI Complete Object Locator'
PUBLIC	??_R4BerconWoodDlgProc@@6B@			; BerconWoodDlgProc::`RTTI Complete Object Locator'
PUBLIC	??_R0?AVBerconWoodDlgProc@@@8			; BerconWoodDlgProc `RTTI Type Descriptor'
PUBLIC	??_R3BerconWoodDlgProc@@8			; BerconWoodDlgProc::`RTTI Class Hierarchy Descriptor'
PUBLIC	??_R2BerconWoodDlgProc@@8			; BerconWoodDlgProc::`RTTI Base Class Array'
PUBLIC	??_R1A@?0A@EA@BerconWoodDlgProc@@8		; BerconWoodDlgProc::`RTTI Base Class Descriptor at (0,-1,0,64)'
PUBLIC	__real@3a83126f
PUBLIC	__real@3c23d70a
PUBLIC	__real@3d23d70a
PUBLIC	__real@3dcccccd
PUBLIC	__real@3e4ccccd
PUBLIC	__real@3e78d4fe
PUBLIC	__real@3e800000
PUBLIC	__real@3e99999a
PUBLIC	__real@3eac8b44
PUBLIC	__real@3ec8b439
PUBLIC	__real@3f000000
PUBLIC	__real@3f0c8b44
PUBLIC	__real@3f116873
PUBLIC	__real@3f1a36e2e0000000
PUBLIC	__real@3f400000
PUBLIC	__real@3f449ba6
PUBLIC	__real@3f50624dd2f1a9fc
PUBLIC	__real@3f50624de0000000
PUBLIC	__real@3f800000
PUBLIC	__real@3f847ae140000000
PUBLIC	__real@3fa47ae140000000
PUBLIC	__real@3fb99999a0000000
PUBLIC	__real@3fc99999a0000000
PUBLIC	__real@3fd0000000000000
PUBLIC	__real@3fd3333340000000
PUBLIC	__real@3fe0000000000000
PUBLIC	__real@3fe8000000000000
PUBLIC	__real@3ff0000000000000
PUBLIC	__real@4008000000000000
PUBLIC	__real@4014000000000000
PUBLIC	__real@4028b0a3e0000000
PUBLIC	__real@402e000000000000
PUBLIC	__real@40400000
PUBLIC	__real@408f400000000000
PUBLIC	__real@40a00000
PUBLIC	__real@412e848000000000
PUBLIC	__real@4145851f
PUBLIC	__real@41700000
PUBLIC	__real@bff0000000000000
PUBLIC	__real@c12e848000000000
EXTRN	_purecall:PROC
EXTRN	?__global_delete@@YAXPEAX_K@Z:PROC		; __global_delete
EXTRN	atexit:PROC
EXTRN	__imp_SendMessageW:PROC
EXTRN	__imp_GetDlgItem:PROC
EXTRN	__imp_??2MaxHeapOperators@@SAPEAX_K@Z:PROC
EXTRN	__imp_??3MaxHeapOperators@@SAXPEAX@Z:PROC
EXTRN	__imp_??0Exception@Util@MaxSDK@@QEAA@AEBV012@@Z:PROC
EXTRN	__imp_??1Exception@Util@MaxSDK@@UEAA@XZ:PROC
EXTRN	__imp_??0OutOfRangeException@Util@MaxSDK@@QEAA@PEB_W@Z:PROC
EXTRN	__imp_??1OutOfRangeException@Util@MaxSDK@@UEAA@XZ:PROC
EXTRN	__imp_?assert1@@YAHHPEB_W00@Z:PROC
EXTRN	__imp_?zfree@@YAXPEAPEAX@Z:PROC
EXTRN	__imp_??0WStr@@QEAA@PEB_W@Z:PROC
EXTRN	__imp_??1WStr@@QEAA@XZ:PROC
EXTRN	__imp_??4WStr@@QEAAAEAV0@PEB_W@Z:PROC
EXTRN	__imp_??0Interval@@QEAA@HH@Z:PROC
EXTRN	__imp_?InInterval@Interval@@QEBAHH@Z:PROC
EXTRN	__imp_??IInterval@@QEBA?AV0@V0@@Z:PROC
EXTRN	__imp_?ReplaceReference@ReferenceMaker@@QEAA?AW4RefResult@@HPEAVReferenceTarget@@H@Z:PROC
EXTRN	__imp_?DeleteReference@ReferenceMaker@@QEAA?AW4RefResult@@H@Z:PROC
EXTRN	__imp_?GetInterface@ReferenceTarget@@UEAAPEAVBaseInterface@@VInterface_ID@@@Z:PROC
EXTRN	__imp_?GetCOREInterface@@YAPEAVInterface@@XZ:PROC
EXTRN	__imp_??0Point3@@QEAA@XZ:PROC
EXTRN	__imp_??APoint3@@QEAAAEAMH@Z:PROC
EXTRN	__imp_??GPoint3@@QEBA?AV0@XZ:PROC
EXTRN	__imp_?IdentityMatrix@Matrix3@@QEAAXXZ:PROC
EXTRN	__imp_?ClampMinMax@Color@@QEAAXXZ:PROC
EXTRN	__imp_?GetSubTexmapTVName@ISubMap@@QEAA?AVWStr@@H@Z:PROC
EXTRN	__imp_??1MtlBase@@UEAA@XZ:PROC
EXTRN	__imp_??4MtlBase@@QEAAAEAV0@AEBV0@@Z:PROC
EXTRN	__imp_?GetInterface@MtlBase@@UEAAPEAXK@Z:PROC
EXTRN	__imp_?GetICustButton@@YAPEAVICustButton@@PEAUHWND__@@@Z:PROC
EXTRN	__imp_?ReleaseICustButton@@YAXPEAVICustButton@@@Z:PROC
EXTRN	__imp_??0Texmap@@QEAA@XZ:PROC
EXTRN	__imp_?GetNewDefaultTextureOutput@@YAPEAVTextureOutput@@XZ:PROC
EXTRN	??_E?$Tab@PEAVVertexNormalsCallback@@@@UEAAPEAXI@Z:PROC ; Tab<VertexNormalsCallback * __ptr64>::`vector deleting destructor'
EXTRN	__imp_??0ClassDesc2@@QEAA@XZ:PROC
EXTRN	__imp_??1ClassDesc2@@UEAA@XZ:PROC
EXTRN	__imp_?InvalidateUI@ClassDesc2@@QEAAXPEAVParamBlockDesc2@@FH@Z:PROC
EXTRN	__imp_?MakeAutoParamBlocks@ClassDesc2@@UEAAXPEAVReferenceMaker@@@Z:PROC
EXTRN	__imp_?SetUserDlgProc@ClassDesc2@@QEAA_NPEAVParamBlockDesc2@@FPEAVParamMap2UserDlgProc@@@Z:PROC
EXTRN	__imp_?CreateParamDlgs@ClassDesc2@@QEAAPEAVIAutoMParamDlg@@PEAUHWND__@@PEAVIMtlParams@@PEAVReferenceTarget@@@Z:PROC
EXTRN	__imp_??0ParamBlockDesc2@@QEAA@FPEB_W_JPEAVClassDesc2@@GZZ:PROC
EXTRN	__imp_??1ParamBlockDesc2@@UEAA@XZ:PROC
EXTRN	__imp_?SetUserDlgProc@ParamBlockDesc2@@QEAAXFPEAVParamMap2UserDlgProc@@@Z:PROC
EXTRN	??_EParamMap2UserDlgProc@@UEAAPEAXI@Z:PROC	; ParamMap2UserDlgProc::`vector deleting destructor'
EXTRN	?wood@Noise@@SAMVPoint3@@AEAV2@AEAVWoodParam@@@Z:PROC ; Noise::wood
EXTRN	?wood@Noise@@SAMVPoint3@@00AEAV2@VWoodParam@@@Z:PROC ; Noise::wood
EXTRN	?grain@Fractal@@SAMVPoint3@@MM@Z:PROC		; Fractal::grain
EXTRN	?GetString@@YAPEA_WH@Z:PROC			; GetString
EXTRN	??_EBerconXYZDlgProc@@UEAAPEAXI@Z:PROC		; BerconXYZDlgProc::`vector deleting destructor'
EXTRN	?update@BerconXYZ@@QEAAXPEAVIParamBlock2@@HAEAVInterval@@@Z:PROC ; BerconXYZ::update
EXTRN	?update@BerconXYZ@@QEAAXXZ:PROC			; BerconXYZ::update
EXTRN	?reset@BerconXYZ@@QEAAXPEAVIParamBlock2@@AEAVInterval@@HHHH@Z:PROC ; BerconXYZ::reset
EXTRN	?get@BerconXYZ@@QEAAHAEAVShadeContext@@AEAVPoint3@@11@Z:PROC ; BerconXYZ::get
EXTRN	?get@BerconXYZ@@QEAAHAEAVShadeContext@@AEAVPoint3@@11PEAV3@@Z:PROC ; BerconXYZ::get
EXTRN	??_EBerconWood@@UEAAPEAXI@Z:PROC		; BerconWood::`vector deleting destructor'
EXTRN	??_EBerconWoodDlgProc@@UEAAPEAXI@Z:PROC		; BerconWoodDlgProc::`vector deleting destructor'
EXTRN	?AutoDelete@ReferenceTarget@@UEAA?AW4RefResult@@XZ:PROC ; ReferenceTarget::AutoDelete
EXTRN	?BaseClone@MtlBase@@UEAAXPEAVReferenceTarget@@0AEAVRemapDir@@@Z:PROC ; MtlBase::BaseClone
EXTRN	?CreatePStamp@MtlBase@@UEAAPEAVPStamp@@HH@Z:PROC ; MtlBase::CreatePStamp
EXTRN	?DeleteAllRefsToMe@ReferenceTarget@@UEAA?AW4RefResult@@XZ:PROC ; ReferenceTarget::DeleteAllRefsToMe
EXTRN	?DiscardPStamp@MtlBase@@UEAAXH@Z:PROC		; MtlBase::DiscardPStamp
EXTRN	?DoEnumDependentsImpl@ReferenceTarget@@MEAAHPEAVDependentEnumProc@@@Z:PROC ; ReferenceTarget::DoEnumDependentsImpl
EXTRN	?EnumAuxFiles@MtlBase@@UEAAXAEAVAssetEnumCallback@@K@Z:PROC ; MtlBase::EnumAuxFiles
EXTRN	?GetFullName@MtlBase@@UEAA?AVWStr@@XZ:PROC	; MtlBase::GetFullName
EXTRN	?GetPStamp@MtlBase@@UEAAPEAVPStamp@@H@Z:PROC	; MtlBase::GetPStamp
EXTRN	?GetProperty@MtlBase@@UEAAPEAXK@Z:PROC		; MtlBase::GetProperty
EXTRN	?GetTimeRange@Animatable@@UEAA?AVInterval@@K@Z:PROC ; Animatable::GetTimeRange
EXTRN	?GetVPDisplayDIB@Texmap@@UEAAPEAUtagBITMAPINFO@@HAEAVTexHandleMaker@@AEAVInterval@@HHH@Z:PROC ; Texmap::GetVPDisplayDIB
EXTRN	?IsAnimated@Animatable@@UEAAHXZ:PROC		; Animatable::IsAnimated
EXTRN	?IsOutputMeaningful@Texmap@@UEAA_NAEAVShadeContext@@@Z:PROC ; Texmap::IsOutputMeaningful
EXTRN	?Load@MtlBase@@UEAA?AW4IOResult@@PEAVILoad@@@Z:PROC ; MtlBase::Load
EXTRN	?MapKeys@Animatable@@UEAAXPEAVTimeMap@@K@Z:PROC	; Animatable::MapKeys
EXTRN	?MouseCycleCompleted@Animatable@@UEAAXH@Z:PROC	; Animatable::MouseCycleCompleted
EXTRN	?MouseCycleStarted@Animatable@@UEAAXH@Z:PROC	; Animatable::MouseCycleStarted
EXTRN	?NodeName@Animatable@@UEAA?AVWStr@@XZ:PROC	; Animatable::NodeName
EXTRN	?NotifyDependents@ReferenceTarget@@UEAA?AW4RefResult@@AEBVInterval@@_KIKHPEAV1@W4NotifyDependentsOption@@@Z:PROC ; ReferenceTarget::NotifyDependents
EXTRN	?RefAdded@Texmap@@UEAAXPEAVReferenceMaker@@@Z:PROC ; Texmap::RefAdded
EXTRN	?ReleaseInterface@Animatable@@UEAAXKPEAX@Z:PROC	; Animatable::ReleaseInterface
EXTRN	?RenderBitmap@Texmap@@UEAAXHPEAVBitmap@@MH@Z:PROC ; Texmap::RenderBitmap
EXTRN	?Requirements@MtlBase@@UEAAKH@Z:PROC		; MtlBase::Requirements
EXTRN	?RescaleWorldUnits@ReferenceMaker@@UEAAXM@Z:PROC ; ReferenceMaker::RescaleWorldUnits
EXTRN	?Save@MtlBase@@UEAA?AW4IOResult@@PEAVISave@@@Z:PROC ; MtlBase::Save
EXTRN	?SaveEnum@ReferenceMaker@@UEAAXAEAVSaveEnumProc@@H@Z:PROC ; ReferenceMaker::SaveEnum
EXTRN	?SetProperty@MtlBase@@UEAAHKPEAX@Z:PROC		; MtlBase::SetProperty
EXTRN	?SpecifySaveReferences@ReferenceMaker@@UEAA_NAEAVReferenceSaveManager@@@Z:PROC ; ReferenceMaker::SpecifySaveReferences
EXTRN	?SubAnimCommitSetKeyBuffer@Animatable@@UEAAXHH@Z:PROC ; Animatable::SubAnimCommitSetKeyBuffer
EXTRN	?SubAnimRevertSetKeyBuffer@Animatable@@UEAAXH@Z:PROC ; Animatable::SubAnimRevertSetKeyBuffer
EXTRN	?SubAnimSetKeyBufferPresent@Animatable@@UEAAHH@Z:PROC ; Animatable::SubAnimSetKeyBufferPresent
EXTRN	?SvCanConcludeLink@Animatable@@UEAA_NPEAVIGraphObjectManager@@PEAVIGraphNode@@1@Z:PROC ; Animatable::SvCanConcludeLink
EXTRN	?SvCanDetach@Animatable@@UEAA_NPEAVIGraphObjectManager@@PEAVIGraphNode@@@Z:PROC ; Animatable::SvCanDetach
EXTRN	?SvCanDetachRel@Animatable@@UEAA_NPEAVIGraphObjectManager@@PEAVIGraphNode@@H1@Z:PROC ; Animatable::SvCanDetachRel
EXTRN	?SvCanInitiateLink@Animatable@@UEAA_NPEAVIGraphObjectManager@@PEAVIGraphNode@@@Z:PROC ; Animatable::SvCanInitiateLink
EXTRN	?SvCanRemoveThis@Animatable@@UEAA_NPEAVIGraphObjectManager@@PEAVIGraphNode@@@Z:PROC ; Animatable::SvCanRemoveThis
EXTRN	?SvCanSelect@MtlBase@@UEAA_NPEAVIGraphObjectManager@@PEAVIGraphNode@@@Z:PROC ; MtlBase::SvCanSelect
EXTRN	?SvCanSetName@MtlBase@@UEAA_NPEAVIGraphObjectManager@@PEAVIGraphNode@@@Z:PROC ; MtlBase::SvCanSetName
EXTRN	?SvDetach@Animatable@@UEAA_NPEAVIGraphObjectManager@@PEAVIGraphNode@@@Z:PROC ; Animatable::SvDetach
EXTRN	?SvDetachRel@Animatable@@UEAA_NPEAVIGraphObjectManager@@PEAVIGraphNode@@H1@Z:PROC ; Animatable::SvDetachRel
EXTRN	?SvEditProperties@Animatable@@UEAA_NPEAVIGraphObjectManager@@PEAVIGraphNode@@@Z:PROC ; Animatable::SvEditProperties
EXTRN	?SvGetMultiSelectCallback@MtlBase@@UEAAPEAVMultiSelectCallback@@PEAVIGraphObjectManager@@PEAVIGraphNode@@@Z:PROC ; MtlBase::SvGetMultiSelectCallback
EXTRN	?SvGetName@MtlBase@@UEAA?AVWStr@@PEAVIGraphObjectManager@@PEAVIGraphNode@@_N@Z:PROC ; MtlBase::SvGetName
EXTRN	?SvGetRefTip@Animatable@@UEAA?AVWStr@@PEAVIGraphObjectManager@@PEAVIGraphNode@@1@Z:PROC ; Animatable::SvGetRefTip
EXTRN	?SvGetRelTip@Animatable@@UEAA?AVWStr@@PEAVIGraphObjectManager@@PEAVIGraphNode@@H1@Z:PROC ; Animatable::SvGetRelTip
EXTRN	?SvGetSwatchColor@Animatable@@UEAAKPEAVIGraphObjectManager@@PEAVIGraphNode@@@Z:PROC ; Animatable::SvGetSwatchColor
EXTRN	?SvGetTip@Animatable@@UEAA?AVWStr@@PEAVIGraphObjectManager@@PEAVIGraphNode@@@Z:PROC ; Animatable::SvGetTip
EXTRN	?SvHandleDoubleClick@MtlBase@@UEAA_NPEAVIGraphObjectManager@@PEAVIGraphNode@@@Z:PROC ; MtlBase::SvHandleDoubleClick
EXTRN	?SvHandleRelDoubleClick@Animatable@@UEAA_NPEAVIGraphObjectManager@@PEAVIGraphNode@@H1@Z:PROC ; Animatable::SvHandleRelDoubleClick
EXTRN	?SvHighlightColor@MtlBase@@UEAAKPEAVIGraphObjectManager@@PEAVIGraphNode@@@Z:PROC ; MtlBase::SvHighlightColor
EXTRN	?SvIsHighlighted@Animatable@@UEAA_NPEAVIGraphObjectManager@@PEAVIGraphNode@@@Z:PROC ; Animatable::SvIsHighlighted
EXTRN	?SvIsInactive@Animatable@@UEAA_NPEAVIGraphObjectManager@@PEAVIGraphNode@@@Z:PROC ; Animatable::SvIsInactive
EXTRN	?SvIsSelected@MtlBase@@UEAA_NPEAVIGraphObjectManager@@PEAVIGraphNode@@@Z:PROC ; MtlBase::SvIsSelected
EXTRN	?SvLinkChild@Animatable@@UEAA_NPEAVIGraphObjectManager@@PEAVIGraphNode@@1@Z:PROC ; Animatable::SvLinkChild
EXTRN	?SvRemoveThis@Animatable@@UEAA_NPEAVIGraphObjectManager@@PEAVIGraphNode@@@Z:PROC ; Animatable::SvRemoveThis
EXTRN	?SvSetName@MtlBase@@UEAA_NPEAVIGraphObjectManager@@PEAVIGraphNode@@AEBVWStr@@@Z:PROC ; MtlBase::SvSetName
EXTRN	?SvTraverseAnimGraph@Texmap@@UEAA?AVSvGraphNodeReference@@PEAVIGraphObjectManager@@PEAVAnimatable@@HK@Z:PROC ; Texmap::SvTraverseAnimGraph
EXTRN	_CxxThrowException:PROC
EXTRN	__CxxFrameHandler3:PROC
EXTRN	__chkstk:PROC
EXTRN	__imp_??_7OutOfRangeException@Util@MaxSDK@@6B@:BYTE
EXTRN	__imp_?defaultDim@@3PEAVParamDimension@@EA:QWORD
EXTRN	__ImageBase:BYTE
EXTRN	_fltused:DWORD
_BSS	SEGMENT
?kInvalidId@AssetManagement@MaxSDK@@3UAssetId@12@A DB 010H DUP (?) ; MaxSDK::AssetManagement::kInvalidId
?BerconWoodDesc@@3VBerconWoodClassDesc@@A DB 050H DUP (?) ; BerconWoodDesc
?xyz_blk@@3VXYZ_Desc@@A DB 0a0H DUP (?)			; xyz_blk
?BerconWood_param_blk@@3VParamBlockDesc2@@A DB 0a0H DUP (?) ; BerconWood_param_blk
?BerconMap_param_blk@@3VParamBlockDesc2@@A DB 0a0H DUP (?) ; BerconMap_param_blk
?black@@3VAColor@@A DB 010H DUP (?)			; black
_BSS	ENDS
;	COMDAT pdata
pdata	SEGMENT
$pdata$??_H@YAXPEAX_K1P6APEAX0@Z@Z DD imagerel $LN12
	DD	imagerel $LN12+72
	DD	imagerel $unwind$??_H@YAXPEAX_K1P6APEAX0@Z@Z
pdata	ENDS
;	COMDAT pdata
pdata	SEGMENT
$pdata$??0TabOutOfRangeException@Util@MaxSDK@@QEAA@PEB_W@Z DD imagerel $LN4
	DD	imagerel $LN4+48
	DD	imagerel $unwind$??0TabOutOfRangeException@Util@MaxSDK@@QEAA@PEB_W@Z
pdata	ENDS
;	COMDAT pdata
pdata	SEGMENT
$pdata$??1TabOutOfRangeException@Util@MaxSDK@@UEAA@XZ DD imagerel $LN7
	DD	imagerel $LN7+29
	DD	imagerel $unwind$??1TabOutOfRangeException@Util@MaxSDK@@UEAA@XZ
pdata	ENDS
;	COMDAT pdata
pdata	SEGMENT
$pdata$??0TabOutOfRangeException@Util@MaxSDK@@QEAA@AEBV012@@Z DD imagerel $LN7
	DD	imagerel $LN7+58
	DD	imagerel $unwind$??0TabOutOfRangeException@Util@MaxSDK@@QEAA@AEBV012@@Z
pdata	ENDS
;	COMDAT pdata
pdata	SEGMENT
$pdata$??_GTabOutOfRangeException@Util@MaxSDK@@UEAAPEAXI@Z DD imagerel $LN14
	DD	imagerel $LN14+85
	DD	imagerel $unwind$??_GTabOutOfRangeException@Util@MaxSDK@@UEAAPEAXI@Z
pdata	ENDS
;	COMDAT pdata
pdata	SEGMENT
$pdata$??_4Interval@@QEAAAEAV0@V0@@Z DD imagerel $LN4
	DD	imagerel $LN4+38
	DD	imagerel $unwind$??_4Interval@@QEAAAEAV0@V0@@Z
pdata	ENDS
;	COMDAT pdata
pdata	SEGMENT
$pdata$?IsSubClassOf@Animatable@@UEAAHVClass_ID@@@Z DD imagerel $LN8
	DD	imagerel $LN8+56
	DD	imagerel $unwind$?IsSubClassOf@Animatable@@UEAAHVClass_ID@@@Z
pdata	ENDS
;	COMDAT pdata
pdata	SEGMENT
$pdata$?NotifyDependents@ReferenceMaker@@EEAA?AW4RefResult@@AEBVInterval@@_KIKHPEAVReferenceTarget@@@Z DD imagerel $LN5
	DD	imagerel $LN5+43
	DD	imagerel $unwind$?NotifyDependents@ReferenceMaker@@EEAA?AW4RefResult@@AEBVInterval@@_KIKHPEAVReferenceTarget@@@Z
pdata	ENDS
;	COMDAT pdata
pdata	SEGMENT
$pdata$?NotifyForeground@ReferenceTarget@@UEAAXH@Z DD imagerel $LN4
	DD	imagerel $LN4+88
	DD	imagerel $unwind$?NotifyForeground@ReferenceTarget@@UEAAXH@Z
pdata	ENDS
;	COMDAT pdata
pdata	SEGMENT
$pdata$??A?$Tab@PEAVFPInterface@@@@QEBAAEAPEAVFPInterface@@_J@Z DD imagerel $LN13
	DD	imagerel $LN13+243
	DD	imagerel $unwind$??A?$Tab@PEAVFPInterface@@@@QEBAAEAPEAVFPInterface@@_J@Z
pdata	ENDS
;	COMDAT pdata
pdata	SEGMENT
$pdata$?GetInterfaceAt@ClassDesc@@UEAAPEAVFPInterface@@H@Z DD imagerel $LN4
	DD	imagerel $LN4+24
	DD	imagerel $unwind$?GetInterfaceAt@ClassDesc@@UEAAPEAVFPInterface@@H@Z
pdata	ENDS
;	COMDAT pdata
pdata	SEGMENT
$pdata$?Set@BitArray@@QEAAXH@Z DD imagerel $LN19
	DD	imagerel $LN19+162
	DD	imagerel $unwind$?Set@BitArray@@QEAAXH@Z
pdata	ENDS
;	COMDAT pdata
pdata	SEGMENT
$pdata$??HAColor@@QEBA?AV0@AEBV0@@Z DD imagerel $LN19
	DD	imagerel $LN19+37
	DD	imagerel $unwind$??HAColor@@QEBA?AV0@AEBV0@@Z
pdata	ENDS
;	COMDAT pdata
pdata	SEGMENT
$pdata$??D@YA?AVAColor@@MAEBV0@@Z DD imagerel $LN19
	DD	imagerel $LN19+42
	DD	imagerel $unwind$??D@YA?AVAColor@@MAEBV0@@Z
pdata	ENDS
;	COMDAT pdata
pdata	SEGMENT
$pdata$?GetInterface@MtlBase@@UEAAPEAVBaseInterface@@VInterface_ID@@@Z DD imagerel $LN6
	DD	imagerel $LN6+33
	DD	imagerel $unwind$?GetInterface@MtlBase@@UEAAPEAVBaseInterface@@VInterface_ID@@@Z
pdata	ENDS
;	COMDAT pdata
pdata	SEGMENT
$pdata$??1Texmap@@UEAA@XZ DD imagerel $LN4
	DD	imagerel $LN4+29
	DD	imagerel $unwind$??1Texmap@@UEAA@XZ
pdata	ENDS
;	COMDAT pdata
pdata	SEGMENT
$pdata$??1?$Tab@PEAVVertexNormalsCallback@@@@UEAA@XZ DD imagerel $LN3
	DD	imagerel $LN3+39
	DD	imagerel $unwind$??1?$Tab@PEAVVertexNormalsCallback@@@@UEAA@XZ
pdata	ENDS
;	COMDAT pdata
pdata	SEGMENT
$pdata$??_G?$Tab@PEAVVertexNormalsCallback@@@@UEAAPEAXI@Z DD imagerel $LN10
	DD	imagerel $LN10+95
	DD	imagerel $unwind$??_G?$Tab@PEAVVertexNormalsCallback@@@@UEAAPEAXI@Z
pdata	ENDS
;	COMDAT pdata
pdata	SEGMENT
$pdata$??0VertexNormalsControl@@QEAA@XZ DD imagerel $LN6
	DD	imagerel $LN6+47
	DD	imagerel $unwind$??0VertexNormalsControl@@QEAA@XZ
pdata	ENDS
;	COMDAT pdata
pdata	SEGMENT
$pdata$??_GParamMap2UserDlgProc@@UEAAPEAXI@Z DD imagerel $LN11
	DD	imagerel $LN11+63
	DD	imagerel $unwind$??_GParamMap2UserDlgProc@@UEAAPEAXI@Z
pdata	ENDS
;	COMDAT pdata
pdata	SEGMENT
$pdata$?GetPoint@ICurve@@QEAA?AVCurvePoint@@HH@Z DD imagerel $LN4
	DD	imagerel $LN4+109
	DD	imagerel $unwind$?GetPoint@ICurve@@QEAA?AVCurvePoint@@HH@Z
pdata	ENDS
;	COMDAT pdata
pdata	SEGMENT
$pdata$??0XYZ_Desc@@QEAA@PEAVClassDesc2@@HHHHHHH@Z DD imagerel $LN4
	DD	imagerel $LN4+4816
	DD	imagerel $unwind$??0XYZ_Desc@@QEAA@PEAVClassDesc2@@HHHHHHH@Z
pdata	ENDS
;	COMDAT pdata
pdata	SEGMENT
$pdata$??1XYZ_Desc@@UEAA@XZ DD imagerel $LN4
	DD	imagerel $LN4+29
	DD	imagerel $unwind$??1XYZ_Desc@@UEAA@XZ
pdata	ENDS
;	COMDAT pdata
pdata	SEGMENT
$pdata$??_GXYZ_Desc@@UEAAPEAXI@Z DD imagerel $LN11
	DD	imagerel $LN11+85
	DD	imagerel $unwind$??_GXYZ_Desc@@UEAAPEAXI@Z
pdata	ENDS
;	COMDAT pdata
pdata	SEGMENT
$pdata$??0BerconXYZDlgProc@@QEAA@PEAVReferenceTarget@@@Z DD imagerel $LN6
	DD	imagerel $LN6+49
	DD	imagerel $unwind$??0BerconXYZDlgProc@@QEAA@PEAVReferenceTarget@@@Z
pdata	ENDS
;	COMDAT pdata
pdata	SEGMENT
$pdata$?DlgProc@BerconXYZDlgProc@@UEAA_JHPEAVIParamMap2@@PEAUHWND__@@I_K_J@Z DD imagerel $LN9
	DD	imagerel $LN9+787
	DD	imagerel $unwind$?DlgProc@BerconXYZDlgProc@@UEAA_JHPEAVIParamMap2@@PEAUHWND__@@I_K_J@Z
pdata	ENDS
;	COMDAT pdata
pdata	SEGMENT
$pdata$1$?DlgProc@BerconXYZDlgProc@@UEAA_JHPEAVIParamMap2@@PEAUHWND__@@I_K_J@Z DD imagerel $LN9+787
	DD	imagerel $LN9+1284
	DD	imagerel $chain$1$?DlgProc@BerconXYZDlgProc@@UEAA_JHPEAVIParamMap2@@PEAUHWND__@@I_K_J@Z
pdata	ENDS
;	COMDAT pdata
pdata	SEGMENT
$pdata$??1BerconXYZDlgProc@@UEAA@XZ DD imagerel $LN6
	DD	imagerel $LN6+32
	DD	imagerel $unwind$??1BerconXYZDlgProc@@UEAA@XZ
pdata	ENDS
;	COMDAT pdata
pdata	SEGMENT
$pdata$??_GBerconXYZDlgProc@@UEAAPEAXI@Z DD imagerel $LN13
	DD	imagerel $LN13+71
	DD	imagerel $unwind$??_GBerconXYZDlgProc@@UEAAPEAXI@Z
pdata	ENDS
;	COMDAT pdata
pdata	SEGMENT
$pdata$??0BerconXYZ@@QEAA@XZ DD imagerel $LN17
	DD	imagerel $LN17+100
	DD	imagerel $unwind$??0BerconXYZ@@QEAA@XZ
pdata	ENDS
;	COMDAT pdata
pdata	SEGMENT
$pdata$?applyDistortion@BerconWood@@QEAAXAEAVShadeContext@@AEAVPoint3@@@Z DD imagerel $LN25
	DD	imagerel $LN25+59
	DD	imagerel $unwind$?applyDistortion@BerconWood@@QEAAXAEAVShadeContext@@AEAVPoint3@@@Z
pdata	ENDS
;	COMDAT pdata
pdata	SEGMENT
$pdata$0$?applyDistortion@BerconWood@@QEAAXAEAVShadeContext@@AEAVPoint3@@@Z DD imagerel $LN25+59
	DD	imagerel $LN25+75
	DD	imagerel $chain$0$?applyDistortion@BerconWood@@QEAAXAEAVShadeContext@@AEAVPoint3@@@Z
pdata	ENDS
;	COMDAT pdata
pdata	SEGMENT
$pdata$2$?applyDistortion@BerconWood@@QEAAXAEAVShadeContext@@AEAVPoint3@@@Z DD imagerel $LN25+75
	DD	imagerel $LN25+175
	DD	imagerel $chain$2$?applyDistortion@BerconWood@@QEAAXAEAVShadeContext@@AEAVPoint3@@@Z
pdata	ENDS
;	COMDAT pdata
pdata	SEGMENT
$pdata$3$?applyDistortion@BerconWood@@QEAAXAEAVShadeContext@@AEAVPoint3@@@Z DD imagerel $LN25+175
	DD	imagerel $LN25+229
	DD	imagerel $chain$3$?applyDistortion@BerconWood@@QEAAXAEAVShadeContext@@AEAVPoint3@@@Z
pdata	ENDS
;	COMDAT pdata
pdata	SEGMENT
$pdata$4$?applyDistortion@BerconWood@@QEAAXAEAVShadeContext@@AEAVPoint3@@@Z DD imagerel $LN25+229
	DD	imagerel $LN25+245
	DD	imagerel $chain$4$?applyDistortion@BerconWood@@QEAAXAEAVShadeContext@@AEAVPoint3@@@Z
pdata	ENDS
;	COMDAT pdata
pdata	SEGMENT
$pdata$?EnableStuff@BerconWood@@QEAAXXZ DD imagerel $LN7
	DD	imagerel $LN7+30
	DD	imagerel $unwind$?EnableStuff@BerconWood@@QEAAXXZ
pdata	ENDS
;	COMDAT pdata
pdata	SEGMENT
$pdata$0$?EnableStuff@BerconWood@@QEAAXXZ DD imagerel $LN7+30
	DD	imagerel $LN7+65
	DD	imagerel $chain$0$?EnableStuff@BerconWood@@QEAAXXZ
pdata	ENDS
;	COMDAT pdata
pdata	SEGMENT
$pdata$4$?EnableStuff@BerconWood@@QEAAXXZ DD imagerel $LN7+65
	DD	imagerel $LN7+407
	DD	imagerel $chain$4$?EnableStuff@BerconWood@@QEAAXXZ
pdata	ENDS
;	COMDAT pdata
pdata	SEGMENT
$pdata$5$?EnableStuff@BerconWood@@QEAAXXZ DD imagerel $LN7+407
	DD	imagerel $LN7+412
	DD	imagerel $chain$5$?EnableStuff@BerconWood@@QEAAXXZ
pdata	ENDS
;	COMDAT pdata
pdata	SEGMENT
$pdata$6$?EnableStuff@BerconWood@@QEAAXXZ DD imagerel $LN7+412
	DD	imagerel $LN7+418
	DD	imagerel $chain$6$?EnableStuff@BerconWood@@QEAAXXZ
pdata	ENDS
;	COMDAT pdata
pdata	SEGMENT
$pdata$?EvalParameters@BerconWood@@QEAA?AVWoodParam@@AEAVShadeContext@@@Z DD imagerel $LN33
	DD	imagerel $LN33+968
	DD	imagerel $unwind$?EvalParameters@BerconWood@@QEAA?AVWoodParam@@AEAVShadeContext@@@Z
pdata	ENDS
;	COMDAT pdata
pdata	SEGMENT
$pdata$?ResetCallback@BerconWood@@UEAAXHPEAVICurveCtl@@@Z DD imagerel $LN5
	DD	imagerel $LN5+88
	DD	imagerel $unwind$?ResetCallback@BerconWood@@UEAAXHPEAVICurveCtl@@@Z
pdata	ENDS
;	COMDAT pdata
pdata	SEGMENT
$pdata$?NewCurveCreatedCallback@BerconWood@@UEAAXHPEAVICurveCtl@@@Z DD imagerel $LN10
	DD	imagerel $LN10+369
	DD	imagerel $unwind$?NewCurveCreatedCallback@BerconWood@@UEAAXHPEAVICurveCtl@@@Z
pdata	ENDS
;	COMDAT pdata
pdata	SEGMENT
$pdata$?DiscardTexHandle@BerconWood@@QEAAXXZ DD imagerel $LN5
	DD	imagerel $LN5+44
	DD	imagerel $unwind$?DiscardTexHandle@BerconWood@@QEAAXXZ
pdata	ENDS
;	COMDAT pdata
pdata	SEGMENT
$pdata$?ActivateTexDisplay@BerconWood@@UEAAXH@Z DD imagerel $LN9
	DD	imagerel $LN9+47
	DD	imagerel $unwind$?ActivateTexDisplay@BerconWood@@UEAAXH@Z
pdata	ENDS
;	COMDAT pdata
pdata	SEGMENT
$pdata$?GetActiveTexHandle@BerconWood@@UEAA_KHAEAVTexHandleMaker@@@Z DD imagerel $LN10
	DD	imagerel $LN10+107
	DD	imagerel $unwind$?GetActiveTexHandle@BerconWood@@UEAA_KHAEAVTexHandleMaker@@@Z
pdata	ENDS
;	COMDAT pdata
pdata	SEGMENT
$pdata$0$?GetActiveTexHandle@BerconWood@@UEAA_KHAEAVTexHandleMaker@@@Z DD imagerel $LN10+107
	DD	imagerel $LN10+164
	DD	imagerel $chain$0$?GetActiveTexHandle@BerconWood@@UEAA_KHAEAVTexHandleMaker@@@Z
pdata	ENDS
;	COMDAT pdata
pdata	SEGMENT
$pdata$1$?GetActiveTexHandle@BerconWood@@UEAA_KHAEAVTexHandleMaker@@@Z DD imagerel $LN10+164
	DD	imagerel $LN10+186
	DD	imagerel $chain$1$?GetActiveTexHandle@BerconWood@@UEAA_KHAEAVTexHandleMaker@@@Z
pdata	ENDS
;	COMDAT pdata
pdata	SEGMENT
$pdata$?CreateParamDlg@BerconWood@@UEAAPEAVParamDlg@@PEAUHWND__@@PEAVIMtlParams@@@Z DD imagerel $LN23
	DD	imagerel $LN23+253
	DD	imagerel $unwind$?CreateParamDlg@BerconWood@@UEAAPEAVParamDlg@@PEAUHWND__@@PEAVIMtlParams@@@Z
pdata	ENDS
;	COMDAT pdata
pdata	SEGMENT
$pdata$?SetDlgThing@BerconWood@@UEAAHPEAVParamDlg@@@Z DD imagerel $LN6
	DD	imagerel $LN6+49
	DD	imagerel $unwind$?SetDlgThing@BerconWood@@UEAAHPEAVParamDlg@@@Z
pdata	ENDS
;	COMDAT pdata
pdata	SEGMENT
$pdata$?Update@BerconWood@@UEAAXHAEAVInterval@@@Z DD imagerel $LN35
	DD	imagerel $LN35+31
	DD	imagerel $unwind$?Update@BerconWood@@UEAAXHAEAVInterval@@@Z
pdata	ENDS
;	COMDAT pdata
pdata	SEGMENT
$pdata$0$?Update@BerconWood@@UEAAXHAEAVInterval@@@Z DD imagerel $LN35+31
	DD	imagerel $LN35+60
	DD	imagerel $chain$0$?Update@BerconWood@@UEAAXHAEAVInterval@@@Z
pdata	ENDS
;	COMDAT pdata
pdata	SEGMENT
$pdata$4$?Update@BerconWood@@UEAAXHAEAVInterval@@@Z DD imagerel $LN35+60
	DD	imagerel $LN35+1377
	DD	imagerel $chain$4$?Update@BerconWood@@UEAAXHAEAVInterval@@@Z
pdata	ENDS
;	COMDAT pdata
pdata	SEGMENT
$pdata$5$?Update@BerconWood@@UEAAXHAEAVInterval@@@Z DD imagerel $LN35+1377
	DD	imagerel $LN35+1424
	DD	imagerel $chain$5$?Update@BerconWood@@UEAAXHAEAVInterval@@@Z
pdata	ENDS
;	COMDAT pdata
pdata	SEGMENT
$pdata$6$?Update@BerconWood@@UEAAXHAEAVInterval@@@Z DD imagerel $LN35+1424
	DD	imagerel $LN35+1494
	DD	imagerel $chain$6$?Update@BerconWood@@UEAAXHAEAVInterval@@@Z
pdata	ENDS
;	COMDAT pdata
pdata	SEGMENT
$pdata$7$?Update@BerconWood@@UEAAXHAEAVInterval@@@Z DD imagerel $LN35+1494
	DD	imagerel $LN35+1523
	DD	imagerel $chain$7$?Update@BerconWood@@UEAAXHAEAVInterval@@@Z
pdata	ENDS
;	COMDAT pdata
pdata	SEGMENT
$pdata$8$?Update@BerconWood@@UEAAXHAEAVInterval@@@Z DD imagerel $LN35+1523
	DD	imagerel $LN35+1532
	DD	imagerel $chain$8$?Update@BerconWood@@UEAAXHAEAVInterval@@@Z
pdata	ENDS
;	COMDAT pdata
pdata	SEGMENT
$pdata$?Reset@BerconWood@@UEAAXXZ DD imagerel $LN28
	DD	imagerel $LN28+1337
	DD	imagerel $unwind$?Reset@BerconWood@@UEAAXXZ
pdata	ENDS
;	COMDAT pdata
pdata	SEGMENT
$pdata$?Validity@BerconWood@@UEAA?AVInterval@@H@Z DD imagerel $LN8
	DD	imagerel $LN8+76
	DD	imagerel $unwind$?Validity@BerconWood@@UEAA?AVInterval@@H@Z
pdata	ENDS
;	COMDAT pdata
pdata	SEGMENT
$pdata$?SetSubTexmap@BerconWood@@UEAAXHPEAVTexmap@@@Z DD imagerel $LN39
	DD	imagerel $LN39+225
	DD	imagerel $unwind$?SetSubTexmap@BerconWood@@UEAAXHPEAVTexmap@@@Z
pdata	ENDS
;	COMDAT pdata
pdata	SEGMENT
$pdata$?GetSubTexmapSlotName@BerconWood@@UEAA?AVWStr@@H@Z DD imagerel $LN32
	DD	imagerel $LN32+552
	DD	imagerel $unwind$?GetSubTexmapSlotName@BerconWood@@UEAA?AVWStr@@H@Z
pdata	ENDS
;	COMDAT pdata
pdata	SEGMENT
$pdata$?dtor$0@?0??GetSubTexmapSlotName@BerconWood@@UEAA?AVWStr@@H@Z@4HA DD imagerel ?dtor$0@?0??GetSubTexmapSlotName@BerconWood@@UEAA?AVWStr@@H@Z@4HA
	DD	imagerel ?dtor$0@?0??GetSubTexmapSlotName@BerconWood@@UEAA?AVWStr@@H@Z@4HA+39
	DD	imagerel $unwind$?dtor$0@?0??GetSubTexmapSlotName@BerconWood@@UEAA?AVWStr@@H@Z@4HA
pdata	ENDS
;	COMDAT pdata
pdata	SEGMENT
$pdata$?EvalColor@BerconWood@@UEAA?AVAColor@@AEAVShadeContext@@@Z DD imagerel $LN116
	DD	imagerel $LN116+157
	DD	imagerel $unwind$?EvalColor@BerconWood@@UEAA?AVAColor@@AEAVShadeContext@@@Z
pdata	ENDS
;	COMDAT pdata
pdata	SEGMENT
$pdata$6$?EvalColor@BerconWood@@UEAA?AVAColor@@AEAVShadeContext@@@Z DD imagerel $LN116+157
	DD	imagerel $LN116+239
	DD	imagerel $chain$6$?EvalColor@BerconWood@@UEAA?AVAColor@@AEAVShadeContext@@@Z
pdata	ENDS
;	COMDAT pdata
pdata	SEGMENT
$pdata$7$?EvalColor@BerconWood@@UEAA?AVAColor@@AEAVShadeContext@@@Z DD imagerel $LN116+239
	DD	imagerel $LN116+1037
	DD	imagerel $chain$7$?EvalColor@BerconWood@@UEAA?AVAColor@@AEAVShadeContext@@@Z
pdata	ENDS
;	COMDAT pdata
pdata	SEGMENT
$pdata$8$?EvalColor@BerconWood@@UEAA?AVAColor@@AEAVShadeContext@@@Z DD imagerel $LN116+1037
	DD	imagerel $LN116+1658
	DD	imagerel $chain$8$?EvalColor@BerconWood@@UEAA?AVAColor@@AEAVShadeContext@@@Z
pdata	ENDS
;	COMDAT pdata
pdata	SEGMENT
$pdata$9$?EvalColor@BerconWood@@UEAA?AVAColor@@AEAVShadeContext@@@Z DD imagerel $LN116+1658
	DD	imagerel $LN116+1701
	DD	imagerel $chain$9$?EvalColor@BerconWood@@UEAA?AVAColor@@AEAVShadeContext@@@Z
pdata	ENDS
;	COMDAT pdata
pdata	SEGMENT
$pdata$?EvalMono@BerconWood@@UEAAMAEAVShadeContext@@@Z DD imagerel $LN6
	DD	imagerel $LN6+48
	DD	imagerel $unwind$?EvalMono@BerconWood@@UEAAMAEAVShadeContext@@@Z
pdata	ENDS
;	COMDAT pdata
pdata	SEGMENT
$pdata$?EvalNormalPerturb@BerconWood@@UEAA?AVPoint3@@AEAVShadeContext@@@Z DD imagerel $LN192
	DD	imagerel $LN192+125
	DD	imagerel $unwind$?EvalNormalPerturb@BerconWood@@UEAA?AVPoint3@@AEAVShadeContext@@@Z
pdata	ENDS
;	COMDAT pdata
pdata	SEGMENT
$pdata$10$?EvalNormalPerturb@BerconWood@@UEAA?AVPoint3@@AEAVShadeContext@@@Z DD imagerel $LN192+125
	DD	imagerel $LN192+1663
	DD	imagerel $chain$10$?EvalNormalPerturb@BerconWood@@UEAA?AVPoint3@@AEAVShadeContext@@@Z
pdata	ENDS
;	COMDAT pdata
pdata	SEGMENT
$pdata$12$?EvalNormalPerturb@BerconWood@@UEAA?AVPoint3@@AEAVShadeContext@@@Z DD imagerel $LN192+1663
	DD	imagerel $LN192+2565
	DD	imagerel $chain$12$?EvalNormalPerturb@BerconWood@@UEAA?AVPoint3@@AEAVShadeContext@@@Z
pdata	ENDS
;	COMDAT pdata
pdata	SEGMENT
$pdata$13$?EvalNormalPerturb@BerconWood@@UEAA?AVPoint3@@AEAVShadeContext@@@Z DD imagerel $LN192+2565
	DD	imagerel $LN192+2592
	DD	imagerel $chain$13$?EvalNormalPerturb@BerconWood@@UEAA?AVPoint3@@AEAVShadeContext@@@Z
pdata	ENDS
;	COMDAT pdata
pdata	SEGMENT
$pdata$?GetClassName@BerconWood@@UEAAXAEAVWStr@@@Z DD imagerel $LN4
	DD	imagerel $LN4+37
	DD	imagerel $unwind$?GetClassName@BerconWood@@UEAAXAEAVWStr@@@Z
pdata	ENDS
;	COMDAT pdata
pdata	SEGMENT
$pdata$?Clone@BerconWood@@UEAAPEAVReferenceTarget@@AEAVRemapDir@@@Z DD imagerel $LN16
	DD	imagerel $LN16+372
	DD	imagerel $unwind$?Clone@BerconWood@@UEAAPEAVReferenceTarget@@AEAVRemapDir@@@Z
pdata	ENDS
;	COMDAT pdata
pdata	SEGMENT
$pdata$?NotifyRefChanged@BerconWood@@UEAA?AW4RefResult@@AEBVInterval@@PEAVReferenceTarget@@AEA_KIH@Z DD imagerel $LN27
	DD	imagerel $LN27+47
	DD	imagerel $unwind$?NotifyRefChanged@BerconWood@@UEAA?AW4RefResult@@AEBVInterval@@PEAVReferenceTarget@@AEA_KIH@Z
pdata	ENDS
;	COMDAT pdata
pdata	SEGMENT
$pdata$0$?NotifyRefChanged@BerconWood@@UEAA?AW4RefResult@@AEBVInterval@@PEAVReferenceTarget@@AEA_KIH@Z DD imagerel $LN27+47
	DD	imagerel $LN27+148
	DD	imagerel $chain$0$?NotifyRefChanged@BerconWood@@UEAA?AW4RefResult@@AEBVInterval@@PEAVReferenceTarget@@AEA_KIH@Z
pdata	ENDS
;	COMDAT pdata
pdata	SEGMENT
$pdata$2$?NotifyRefChanged@BerconWood@@UEAA?AW4RefResult@@AEBVInterval@@PEAVReferenceTarget@@AEA_KIH@Z DD imagerel $LN27+148
	DD	imagerel $LN27+216
	DD	imagerel $chain$2$?NotifyRefChanged@BerconWood@@UEAA?AW4RefResult@@AEBVInterval@@PEAVReferenceTarget@@AEA_KIH@Z
pdata	ENDS
;	COMDAT pdata
pdata	SEGMENT
$pdata$3$?NotifyRefChanged@BerconWood@@UEAA?AW4RefResult@@AEBVInterval@@PEAVReferenceTarget@@AEA_KIH@Z DD imagerel $LN27+216
	DD	imagerel $LN27+227
	DD	imagerel $chain$3$?NotifyRefChanged@BerconWood@@UEAA?AW4RefResult@@AEBVInterval@@PEAVReferenceTarget@@AEA_KIH@Z
pdata	ENDS
;	COMDAT pdata
pdata	SEGMENT
$pdata$?SubAnimName@BerconWood@@UEAA?AVWStr@@H@Z DD imagerel $LN18
	DD	imagerel $LN18+235
	DD	imagerel $unwind$?SubAnimName@BerconWood@@UEAA?AVWStr@@H@Z
pdata	ENDS
;	COMDAT pdata
pdata	SEGMENT
$pdata$?dtor$0@?0??SubAnimName@BerconWood@@UEAA?AVWStr@@H@Z@4HA DD imagerel ?dtor$0@?0??SubAnimName@BerconWood@@UEAA?AVWStr@@H@Z@4HA
	DD	imagerel ?dtor$0@?0??SubAnimName@BerconWood@@UEAA?AVWStr@@H@Z@4HA+39
	DD	imagerel $unwind$?dtor$0@?0??SubAnimName@BerconWood@@UEAA?AVWStr@@H@Z@4HA
pdata	ENDS
;	COMDAT pdata
pdata	SEGMENT
$pdata$?GetParamBlockByID@BerconWood@@UEAAPEAVIParamBlock2@@F@Z DD imagerel $LN7
	DD	imagerel $LN7+146
	DD	imagerel $unwind$?GetParamBlockByID@BerconWood@@UEAAPEAVIParamBlock2@@F@Z
pdata	ENDS
;	COMDAT pdata
pdata	SEGMENT
$pdata$??0BerconWood@@QEAA@XZ DD imagerel $LN33
	DD	imagerel $LN33+278
	DD	imagerel $unwind$??0BerconWood@@QEAA@XZ
pdata	ENDS
;	COMDAT pdata
pdata	SEGMENT
$pdata$??1BerconWood@@UEAA@XZ DD imagerel $LN12
	DD	imagerel $LN12+102
	DD	imagerel $unwind$??1BerconWood@@UEAA@XZ
pdata	ENDS
;	COMDAT pdata
pdata	SEGMENT
$pdata$??_GBerconWood@@UEAAPEAXI@Z DD imagerel $LN9
	DD	imagerel $LN9+79
	DD	imagerel $unwind$??_GBerconWood@@UEAAPEAXI@Z
pdata	ENDS
;	COMDAT pdata
pdata	SEGMENT
$pdata$?Create@BerconWoodClassDesc@@UEAAPEAXH@Z DD imagerel $LN6
	DD	imagerel $LN6+52
	DD	imagerel $unwind$?Create@BerconWoodClassDesc@@UEAAPEAXH@Z
pdata	ENDS
;	COMDAT pdata
pdata	SEGMENT
$pdata$??0BerconWoodClassDesc@@QEAA@XZ DD imagerel $LN4
	DD	imagerel $LN4+48
	DD	imagerel $unwind$??0BerconWoodClassDesc@@QEAA@XZ
pdata	ENDS
;	COMDAT pdata
pdata	SEGMENT
$pdata$??1BerconWoodClassDesc@@UEAA@XZ DD imagerel $LN4
	DD	imagerel $LN4+29
	DD	imagerel $unwind$??1BerconWoodClassDesc@@UEAA@XZ
pdata	ENDS
;	COMDAT pdata
pdata	SEGMENT
$pdata$??_GBerconWoodClassDesc@@UEAAPEAXI@Z DD imagerel $LN11
	DD	imagerel $LN11+85
	DD	imagerel $unwind$??_GBerconWoodClassDesc@@UEAAPEAXI@Z
pdata	ENDS
;	COMDAT pdata
pdata	SEGMENT
$pdata$??__EBerconWoodDesc@@YAXXZ DD imagerel ??__EBerconWoodDesc@@YAXXZ
	DD	imagerel ??__EBerconWoodDesc@@YAXXZ+57
	DD	imagerel $unwind$??__EBerconWoodDesc@@YAXXZ
pdata	ENDS
;	COMDAT pdata
pdata	SEGMENT
$pdata$??__FBerconWoodDesc@@YAXXZ DD imagerel ??__FBerconWoodDesc@@YAXXZ
	DD	imagerel ??__FBerconWoodDesc@@YAXXZ+31
	DD	imagerel $unwind$??__FBerconWoodDesc@@YAXXZ
pdata	ENDS
;	COMDAT pdata
pdata	SEGMENT
$pdata$??__Exyz_blk@@YAXXZ DD imagerel ??__Exyz_blk@@YAXXZ
	DD	imagerel ??__Exyz_blk@@YAXXZ+75
	DD	imagerel $unwind$??__Exyz_blk@@YAXXZ
pdata	ENDS
;	COMDAT pdata
pdata	SEGMENT
$pdata$??__Fxyz_blk@@YAXXZ DD imagerel ??__Fxyz_blk@@YAXXZ
	DD	imagerel ??__Fxyz_blk@@YAXXZ+31
	DD	imagerel $unwind$??__Fxyz_blk@@YAXXZ
pdata	ENDS
;	COMDAT pdata
pdata	SEGMENT
$pdata$??__EBerconWood_param_blk@@YAXXZ DD imagerel ??__EBerconWood_param_blk@@YAXXZ
	DD	imagerel ??__EBerconWood_param_blk@@YAXXZ+5607
	DD	imagerel $unwind$??__EBerconWood_param_blk@@YAXXZ
pdata	ENDS
;	COMDAT pdata
pdata	SEGMENT
$pdata$??__EBerconMap_param_blk@@YAXXZ DD imagerel ??__EBerconMap_param_blk@@YAXXZ
	DD	imagerel ??__EBerconMap_param_blk@@YAXXZ+4325
	DD	imagerel $unwind$??__EBerconMap_param_blk@@YAXXZ
pdata	ENDS
;	COMDAT pdata
pdata	SEGMENT
$pdata$??0BerconWoodDlgProc@@QEAA@PEAVBerconWood@@@Z DD imagerel $LN6
	DD	imagerel $LN6+49
	DD	imagerel $unwind$??0BerconWoodDlgProc@@QEAA@PEAVBerconWood@@@Z
pdata	ENDS
;	COMDAT pdata
pdata	SEGMENT
$pdata$?DlgProc@BerconWoodDlgProc@@UEAA_JHPEAVIParamMap2@@PEAUHWND__@@I_K_J@Z DD imagerel $LN10
	DD	imagerel $LN10+382
	DD	imagerel $unwind$?DlgProc@BerconWoodDlgProc@@UEAA_JHPEAVIParamMap2@@PEAUHWND__@@I_K_J@Z
pdata	ENDS
;	COMDAT pdata
pdata	SEGMENT
$pdata$??1BerconWoodDlgProc@@UEAA@XZ DD imagerel $LN6
	DD	imagerel $LN6+32
	DD	imagerel $unwind$??1BerconWoodDlgProc@@UEAA@XZ
pdata	ENDS
;	COMDAT pdata
pdata	SEGMENT
$pdata$??_GBerconWoodDlgProc@@UEAAPEAXI@Z DD imagerel $LN13
	DD	imagerel $LN13+71
	DD	imagerel $unwind$??_GBerconWoodDlgProc@@UEAAPEAXI@Z
pdata	ENDS
CRT$XCU	SEGMENT
?kInvalidId$initializer$@AssetManagement@MaxSDK@@3P6AXXZEA DQ FLAT:??__EkInvalidId@AssetManagement@MaxSDK@@YAXXZ ; MaxSDK::AssetManagement::kInvalidId$initializer$
CRT$XCU	ENDS
;	COMDAT __real@c12e848000000000
CONST	SEGMENT
__real@c12e848000000000 DQ 0c12e848000000000r	; -1e+06
CONST	ENDS
;	COMDAT __real@bff0000000000000
CONST	SEGMENT
__real@bff0000000000000 DQ 0bff0000000000000r	; -1
CONST	ENDS
;	COMDAT __real@41700000
CONST	SEGMENT
__real@41700000 DD 041700000r			; 15
CONST	ENDS
;	COMDAT __real@4145851f
CONST	SEGMENT
__real@4145851f DD 04145851fr			; 12.345
CONST	ENDS
;	COMDAT __real@412e848000000000
CONST	SEGMENT
__real@412e848000000000 DQ 0412e848000000000r	; 1e+06
CONST	ENDS
;	COMDAT __real@40a00000
CONST	SEGMENT
__real@40a00000 DD 040a00000r			; 5
CONST	ENDS
;	COMDAT __real@408f400000000000
CONST	SEGMENT
__real@408f400000000000 DQ 0408f400000000000r	; 1000
CONST	ENDS
;	COMDAT __real@40400000
CONST	SEGMENT
__real@40400000 DD 040400000r			; 3
CONST	ENDS
;	COMDAT __real@402e000000000000
CONST	SEGMENT
__real@402e000000000000 DQ 0402e000000000000r	; 15
CONST	ENDS
;	COMDAT __real@4028b0a3e0000000
CONST	SEGMENT
__real@4028b0a3e0000000 DQ 04028b0a3e0000000r	; 12.345
CONST	ENDS
;	COMDAT __real@4014000000000000
CONST	SEGMENT
__real@4014000000000000 DQ 04014000000000000r	; 5
CONST	ENDS
;	COMDAT __real@4008000000000000
CONST	SEGMENT
__real@4008000000000000 DQ 04008000000000000r	; 3
CONST	ENDS
;	COMDAT __real@3ff0000000000000
CONST	SEGMENT
__real@3ff0000000000000 DQ 03ff0000000000000r	; 1
CONST	ENDS
;	COMDAT __real@3fe8000000000000
CONST	SEGMENT
__real@3fe8000000000000 DQ 03fe8000000000000r	; 0.75
CONST	ENDS
;	COMDAT __real@3fe0000000000000
CONST	SEGMENT
__real@3fe0000000000000 DQ 03fe0000000000000r	; 0.5
CONST	ENDS
;	COMDAT __real@3fd3333340000000
CONST	SEGMENT
__real@3fd3333340000000 DQ 03fd3333340000000r	; 0.3
CONST	ENDS
;	COMDAT __real@3fd0000000000000
CONST	SEGMENT
__real@3fd0000000000000 DQ 03fd0000000000000r	; 0.25
CONST	ENDS
;	COMDAT __real@3fc99999a0000000
CONST	SEGMENT
__real@3fc99999a0000000 DQ 03fc99999a0000000r	; 0.2
CONST	ENDS
;	COMDAT __real@3fb99999a0000000
CONST	SEGMENT
__real@3fb99999a0000000 DQ 03fb99999a0000000r	; 0.1
CONST	ENDS
;	COMDAT __real@3fa47ae140000000
CONST	SEGMENT
__real@3fa47ae140000000 DQ 03fa47ae140000000r	; 0.04
CONST	ENDS
;	COMDAT __real@3f847ae140000000
CONST	SEGMENT
__real@3f847ae140000000 DQ 03f847ae140000000r	; 0.01
CONST	ENDS
;	COMDAT __real@3f800000
CONST	SEGMENT
__real@3f800000 DD 03f800000r			; 1
CONST	ENDS
;	COMDAT __real@3f50624de0000000
CONST	SEGMENT
__real@3f50624de0000000 DQ 03f50624de0000000r	; 0.001
CONST	ENDS
;	COMDAT __real@3f50624dd2f1a9fc
CONST	SEGMENT
__real@3f50624dd2f1a9fc DQ 03f50624dd2f1a9fcr	; 0.001
CONST	ENDS
;	COMDAT __real@3f449ba6
CONST	SEGMENT
__real@3f449ba6 DD 03f449ba6r			; 0.768
CONST	ENDS
;	COMDAT __real@3f400000
CONST	SEGMENT
__real@3f400000 DD 03f400000r			; 0.75
CONST	ENDS
;	COMDAT __real@3f1a36e2e0000000
CONST	SEGMENT
__real@3f1a36e2e0000000 DQ 03f1a36e2e0000000r	; 0.0001
CONST	ENDS
;	COMDAT __real@3f116873
CONST	SEGMENT
__real@3f116873 DD 03f116873r			; 0.568
CONST	ENDS
;	COMDAT __real@3f0c8b44
CONST	SEGMENT
__real@3f0c8b44 DD 03f0c8b44r			; 0.549
CONST	ENDS
;	COMDAT __real@3f000000
CONST	SEGMENT
__real@3f000000 DD 03f000000r			; 0.5
CONST	ENDS
;	COMDAT __real@3ec8b439
CONST	SEGMENT
__real@3ec8b439 DD 03ec8b439r			; 0.392
CONST	ENDS
;	COMDAT __real@3eac8b44
CONST	SEGMENT
__real@3eac8b44 DD 03eac8b44r			; 0.337
CONST	ENDS
;	COMDAT __real@3e99999a
CONST	SEGMENT
__real@3e99999a DD 03e99999ar			; 0.3
CONST	ENDS
;	COMDAT __real@3e800000
CONST	SEGMENT
__real@3e800000 DD 03e800000r			; 0.25
CONST	ENDS
;	COMDAT __real@3e78d4fe
CONST	SEGMENT
__real@3e78d4fe DD 03e78d4fer			; 0.243
CONST	ENDS
;	COMDAT __real@3e4ccccd
CONST	SEGMENT
__real@3e4ccccd DD 03e4ccccdr			; 0.2
CONST	ENDS
;	COMDAT __real@3dcccccd
CONST	SEGMENT
__real@3dcccccd DD 03dcccccdr			; 0.1
CONST	ENDS
;	COMDAT __real@3d23d70a
CONST	SEGMENT
__real@3d23d70a DD 03d23d70ar			; 0.04
CONST	ENDS
;	COMDAT __real@3c23d70a
CONST	SEGMENT
__real@3c23d70a DD 03c23d70ar			; 0.01
CONST	ENDS
;	COMDAT __real@3a83126f
CONST	SEGMENT
__real@3a83126f DD 03a83126fr			; 0.001
CONST	ENDS
;	COMDAT ??_R1A@?0A@EA@BerconWoodDlgProc@@8
rdata$r	SEGMENT
??_R1A@?0A@EA@BerconWoodDlgProc@@8 DD imagerel ??_R0?AVBerconWoodDlgProc@@@8 ; BerconWoodDlgProc::`RTTI Base Class Descriptor at (0,-1,0,64)'
	DD	02H
	DD	00H
	DD	0ffffffffH
	DD	00H
	DD	040H
	DD	imagerel ??_R3BerconWoodDlgProc@@8
rdata$r	ENDS
;	COMDAT ??_R2BerconWoodDlgProc@@8
rdata$r	SEGMENT
??_R2BerconWoodDlgProc@@8 DD imagerel ??_R1A@?0A@EA@BerconWoodDlgProc@@8 ; BerconWoodDlgProc::`RTTI Base Class Array'
	DD	imagerel ??_R1A@?0A@EA@ParamMap2UserDlgProc@@8
	DD	imagerel ??_R17?0A@EA@MaxHeapOperators@@8
	ORG $+3
rdata$r	ENDS
;	COMDAT ??_R3BerconWoodDlgProc@@8
rdata$r	SEGMENT
??_R3BerconWoodDlgProc@@8 DD 00H			; BerconWoodDlgProc::`RTTI Class Hierarchy Descriptor'
	DD	00H
	DD	03H
	DD	imagerel ??_R2BerconWoodDlgProc@@8
rdata$r	ENDS
;	COMDAT ??_R0?AVBerconWoodDlgProc@@@8
data$r	SEGMENT
??_R0?AVBerconWoodDlgProc@@@8 DQ FLAT:??_7type_info@@6B@ ; BerconWoodDlgProc `RTTI Type Descriptor'
	DQ	0000000000000000H
	DB	'.?AVBerconWoodDlgProc@@', 00H
data$r	ENDS
;	COMDAT ??_R4BerconWoodDlgProc@@6B@
rdata$r	SEGMENT
??_R4BerconWoodDlgProc@@6B@ DD 01H			; BerconWoodDlgProc::`RTTI Complete Object Locator'
	DD	00H
	DD	00H
	DD	imagerel ??_R0?AVBerconWoodDlgProc@@@8
	DD	imagerel ??_R3BerconWoodDlgProc@@8
	DD	imagerel ??_R4BerconWoodDlgProc@@6B@
rdata$r	ENDS
;	COMDAT ??_R4BerconWood@@6B@
rdata$r	SEGMENT
??_R4BerconWood@@6B@ DD 01H				; BerconWood::`RTTI Complete Object Locator'
	DD	098H
	DD	00H
	DD	imagerel ??_R0?AVBerconWood@@@8
	DD	imagerel ??_R3BerconWood@@8
	DD	imagerel ??_R4BerconWood@@6B@
rdata$r	ENDS
;	COMDAT ??_R4BerconWood@@6BISubMap@@@
rdata$r	SEGMENT
??_R4BerconWood@@6BISubMap@@@ DD 01H			; BerconWood::`RTTI Complete Object Locator'
	DD	048H
	DD	00H
	DD	imagerel ??_R0?AVBerconWood@@@8
	DD	imagerel ??_R3BerconWood@@8
	DD	imagerel ??_R4BerconWood@@6BISubMap@@@
rdata$r	ENDS
;	COMDAT ??_R1KA@?0A@EC@MaxHeapOperators@@8
rdata$r	SEGMENT
??_R1KA@?0A@EC@MaxHeapOperators@@8 DD imagerel ??_R0?AVMaxHeapOperators@@@8 ; MaxHeapOperators::`RTTI Base Class Descriptor at (160,-1,0,66)'
	DD	00H
	DD	0a0H
	DD	0ffffffffH
	DD	00H
	DD	042H
	DD	imagerel ??_R3MaxHeapOperators@@8
rdata$r	ENDS
;	COMDAT ??_R1JI@?0A@EA@ResourceMakerCallback@@8
rdata$r	SEGMENT
??_R1JI@?0A@EA@ResourceMakerCallback@@8 DD imagerel ??_R0?AVResourceMakerCallback@@@8 ; ResourceMakerCallback::`RTTI Base Class Descriptor at (152,-1,0,64)'
	DD	01H
	DD	098H
	DD	0ffffffffH
	DD	00H
	DD	040H
	DD	imagerel ??_R3ResourceMakerCallback@@8
rdata$r	ENDS
;	COMDAT ??_R1EI@?0A@EA@ISubMap@@8
rdata$r	SEGMENT
??_R1EI@?0A@EA@ISubMap@@8 DD imagerel ??_R0?AVISubMap@@@8 ; ISubMap::`RTTI Base Class Descriptor at (72,-1,0,64)'
	DD	01H
	DD	048H
	DD	0ffffffffH
	DD	00H
	DD	040H
	DD	imagerel ??_R3ISubMap@@8
rdata$r	ENDS
;	COMDAT ??_R2MtlBase@@8
rdata$r	SEGMENT
??_R2MtlBase@@8 DD imagerel ??_R1A@?0A@EA@MtlBase@@8	; MtlBase::`RTTI Base Class Array'
	DD	imagerel ??_R1A@?0A@EA@ReferenceTarget@@8
	DD	imagerel ??_R1A@?0A@EA@ReferenceMaker@@8
	DD	imagerel ??_R1A@?0A@EA@Animatable@@8
	DD	imagerel ??_R1A@?0A@EA@InterfaceServer@@8
	DD	imagerel ??_R17?0A@EC@MaxHeapOperators@@8
	DD	imagerel ??_R18?0A@EA@Noncopyable@Util@MaxSDK@@8
	DD	imagerel ??_R18?0A@EC@MaxHeapOperators@@8
	DD	imagerel ??_R1EI@?0A@EA@ISubMap@@8
	DD	imagerel ??_R1FA@?0A@EC@MaxHeapOperators@@8
	ORG $+3
rdata$r	ENDS
;	COMDAT ??_R3MtlBase@@8
rdata$r	SEGMENT
??_R3MtlBase@@8 DD 00H					; MtlBase::`RTTI Class Hierarchy Descriptor'
	DD	01H
	DD	0aH
	DD	imagerel ??_R2MtlBase@@8
rdata$r	ENDS
;	COMDAT ??_R0?AVMtlBase@@@8
data$r	SEGMENT
??_R0?AVMtlBase@@@8 DQ FLAT:??_7type_info@@6B@		; MtlBase `RTTI Type Descriptor'
	DQ	0000000000000000H
	DB	'.?AVMtlBase@@', 00H
data$r	ENDS
;	COMDAT ??_R1A@?0A@EA@MtlBase@@8
rdata$r	SEGMENT
??_R1A@?0A@EA@MtlBase@@8 DD imagerel ??_R0?AVMtlBase@@@8 ; MtlBase::`RTTI Base Class Descriptor at (0,-1,0,64)'
	DD	09H
	DD	00H
	DD	0ffffffffH
	DD	00H
	DD	040H
	DD	imagerel ??_R3MtlBase@@8
rdata$r	ENDS
;	COMDAT ??_R2Texmap@@8
rdata$r	SEGMENT
??_R2Texmap@@8 DD imagerel ??_R1A@?0A@EA@Texmap@@8	; Texmap::`RTTI Base Class Array'
	DD	imagerel ??_R1A@?0A@EA@MtlBase@@8
	DD	imagerel ??_R1A@?0A@EA@ReferenceTarget@@8
	DD	imagerel ??_R1A@?0A@EA@ReferenceMaker@@8
	DD	imagerel ??_R1A@?0A@EA@Animatable@@8
	DD	imagerel ??_R1A@?0A@EA@InterfaceServer@@8
	DD	imagerel ??_R17?0A@EC@MaxHeapOperators@@8
	DD	imagerel ??_R18?0A@EA@Noncopyable@Util@MaxSDK@@8
	DD	imagerel ??_R18?0A@EC@MaxHeapOperators@@8
	DD	imagerel ??_R1EI@?0A@EA@ISubMap@@8
	DD	imagerel ??_R1FA@?0A@EC@MaxHeapOperators@@8
	ORG $+3
rdata$r	ENDS
;	COMDAT ??_R3Texmap@@8
rdata$r	SEGMENT
??_R3Texmap@@8 DD 00H					; Texmap::`RTTI Class Hierarchy Descriptor'
	DD	01H
	DD	0bH
	DD	imagerel ??_R2Texmap@@8
rdata$r	ENDS
;	COMDAT ??_R0?AVTexmap@@@8
data$r	SEGMENT
??_R0?AVTexmap@@@8 DQ FLAT:??_7type_info@@6B@		; Texmap `RTTI Type Descriptor'
	DQ	0000000000000000H
	DB	'.?AVTexmap@@', 00H
data$r	ENDS
;	COMDAT ??_R1A@?0A@EA@Texmap@@8
rdata$r	SEGMENT
??_R1A@?0A@EA@Texmap@@8 DD imagerel ??_R0?AVTexmap@@@8	; Texmap::`RTTI Base Class Descriptor at (0,-1,0,64)'
	DD	0aH
	DD	00H
	DD	0ffffffffH
	DD	00H
	DD	040H
	DD	imagerel ??_R3Texmap@@8
rdata$r	ENDS
;	COMDAT ??_R1A@?0A@EA@BerconWood@@8
rdata$r	SEGMENT
??_R1A@?0A@EA@BerconWood@@8 DD imagerel ??_R0?AVBerconWood@@@8 ; BerconWood::`RTTI Base Class Descriptor at (0,-1,0,64)'
	DD	0dH
	DD	00H
	DD	0ffffffffH
	DD	00H
	DD	040H
	DD	imagerel ??_R3BerconWood@@8
rdata$r	ENDS
;	COMDAT ??_R2BerconWood@@8
rdata$r	SEGMENT
??_R2BerconWood@@8 DD imagerel ??_R1A@?0A@EA@BerconWood@@8 ; BerconWood::`RTTI Base Class Array'
	DD	imagerel ??_R1A@?0A@EA@Texmap@@8
	DD	imagerel ??_R1A@?0A@EA@MtlBase@@8
	DD	imagerel ??_R1A@?0A@EA@ReferenceTarget@@8
	DD	imagerel ??_R1A@?0A@EA@ReferenceMaker@@8
	DD	imagerel ??_R1A@?0A@EA@Animatable@@8
	DD	imagerel ??_R1A@?0A@EA@InterfaceServer@@8
	DD	imagerel ??_R17?0A@EC@MaxHeapOperators@@8
	DD	imagerel ??_R18?0A@EA@Noncopyable@Util@MaxSDK@@8
	DD	imagerel ??_R18?0A@EC@MaxHeapOperators@@8
	DD	imagerel ??_R1EI@?0A@EA@ISubMap@@8
	DD	imagerel ??_R1FA@?0A@EC@MaxHeapOperators@@8
	DD	imagerel ??_R1JI@?0A@EA@ResourceMakerCallback@@8
	DD	imagerel ??_R1KA@?0A@EC@MaxHeapOperators@@8
	ORG $+3
rdata$r	ENDS
;	COMDAT ??_R3BerconWood@@8
rdata$r	SEGMENT
??_R3BerconWood@@8 DD 00H				; BerconWood::`RTTI Class Hierarchy Descriptor'
	DD	05H
	DD	0eH
	DD	imagerel ??_R2BerconWood@@8
rdata$r	ENDS
;	COMDAT ??_R0?AVBerconWood@@@8
data$r	SEGMENT
??_R0?AVBerconWood@@@8 DQ FLAT:??_7type_info@@6B@	; BerconWood `RTTI Type Descriptor'
	DQ	0000000000000000H
	DB	'.?AVBerconWood@@', 00H
data$r	ENDS
;	COMDAT ??_R4BerconWood@@6BReferenceTarget@@@
rdata$r	SEGMENT
??_R4BerconWood@@6BReferenceTarget@@@ DD 01H		; BerconWood::`RTTI Complete Object Locator'
	DD	00H
	DD	00H
	DD	imagerel ??_R0?AVBerconWood@@@8
	DD	imagerel ??_R3BerconWood@@8
	DD	imagerel ??_R4BerconWood@@6BReferenceTarget@@@
rdata$r	ENDS
;	COMDAT ??_R1A@?0A@EA@BerconXYZDlgProc@@8
rdata$r	SEGMENT
??_R1A@?0A@EA@BerconXYZDlgProc@@8 DD imagerel ??_R0?AVBerconXYZDlgProc@@@8 ; BerconXYZDlgProc::`RTTI Base Class Descriptor at (0,-1,0,64)'
	DD	02H
	DD	00H
	DD	0ffffffffH
	DD	00H
	DD	040H
	DD	imagerel ??_R3BerconXYZDlgProc@@8
rdata$r	ENDS
;	COMDAT ??_R2BerconXYZDlgProc@@8
rdata$r	SEGMENT
??_R2BerconXYZDlgProc@@8 DD imagerel ??_R1A@?0A@EA@BerconXYZDlgProc@@8 ; BerconXYZDlgProc::`RTTI Base Class Array'
	DD	imagerel ??_R1A@?0A@EA@ParamMap2UserDlgProc@@8
	DD	imagerel ??_R17?0A@EA@MaxHeapOperators@@8
	ORG $+3
rdata$r	ENDS
;	COMDAT ??_R3BerconXYZDlgProc@@8
rdata$r	SEGMENT
??_R3BerconXYZDlgProc@@8 DD 00H				; BerconXYZDlgProc::`RTTI Class Hierarchy Descriptor'
	DD	00H
	DD	03H
	DD	imagerel ??_R2BerconXYZDlgProc@@8
rdata$r	ENDS
;	COMDAT ??_R0?AVBerconXYZDlgProc@@@8
data$r	SEGMENT
??_R0?AVBerconXYZDlgProc@@@8 DQ FLAT:??_7type_info@@6B@	; BerconXYZDlgProc `RTTI Type Descriptor'
	DQ	0000000000000000H
	DB	'.?AVBerconXYZDlgProc@@', 00H
data$r	ENDS
;	COMDAT ??_R4BerconXYZDlgProc@@6B@
rdata$r	SEGMENT
??_R4BerconXYZDlgProc@@6B@ DD 01H			; BerconXYZDlgProc::`RTTI Complete Object Locator'
	DD	00H
	DD	00H
	DD	imagerel ??_R0?AVBerconXYZDlgProc@@@8
	DD	imagerel ??_R3BerconXYZDlgProc@@8
	DD	imagerel ??_R4BerconXYZDlgProc@@6B@
rdata$r	ENDS
;	COMDAT ??_R1A@?0A@EA@ResourceMakerCallback@@8
rdata$r	SEGMENT
??_R1A@?0A@EA@ResourceMakerCallback@@8 DD imagerel ??_R0?AVResourceMakerCallback@@@8 ; ResourceMakerCallback::`RTTI Base Class Descriptor at (0,-1,0,64)'
	DD	01H
	DD	00H
	DD	0ffffffffH
	DD	00H
	DD	040H
	DD	imagerel ??_R3ResourceMakerCallback@@8
rdata$r	ENDS
;	COMDAT ??_R2ResourceMakerCallback@@8
rdata$r	SEGMENT
??_R2ResourceMakerCallback@@8 DD imagerel ??_R1A@?0A@EA@ResourceMakerCallback@@8 ; ResourceMakerCallback::`RTTI Base Class Array'
	DD	imagerel ??_R17?0A@EA@MaxHeapOperators@@8
	ORG $+3
rdata$r	ENDS
;	COMDAT ??_R3ResourceMakerCallback@@8
rdata$r	SEGMENT
??_R3ResourceMakerCallback@@8 DD 00H			; ResourceMakerCallback::`RTTI Class Hierarchy Descriptor'
	DD	00H
	DD	02H
	DD	imagerel ??_R2ResourceMakerCallback@@8
rdata$r	ENDS
;	COMDAT ??_R0?AVResourceMakerCallback@@@8
data$r	SEGMENT
??_R0?AVResourceMakerCallback@@@8 DQ FLAT:??_7type_info@@6B@ ; ResourceMakerCallback `RTTI Type Descriptor'
	DQ	0000000000000000H
	DB	'.?AVResourceMakerCallback@@', 00H
data$r	ENDS
;	COMDAT ??_R4ResourceMakerCallback@@6B@
rdata$r	SEGMENT
??_R4ResourceMakerCallback@@6B@ DD 01H			; ResourceMakerCallback::`RTTI Complete Object Locator'
	DD	00H
	DD	00H
	DD	imagerel ??_R0?AVResourceMakerCallback@@@8
	DD	imagerel ??_R3ResourceMakerCallback@@8
	DD	imagerel ??_R4ResourceMakerCallback@@6B@
rdata$r	ENDS
;	COMDAT ??_R1A@?0A@EA@?$Tab@PEAVVertexNormalsCallback@@@@8
rdata$r	SEGMENT
??_R1A@?0A@EA@?$Tab@PEAVVertexNormalsCallback@@@@8 DD imagerel ??_R0?AV?$Tab@PEAVVertexNormalsCallback@@@@@8 ; Tab<VertexNormalsCallback * __ptr64>::`RTTI Base Class Descriptor at (0,-1,0,64)'
	DD	01H
	DD	00H
	DD	0ffffffffH
	DD	00H
	DD	040H
	DD	imagerel ??_R3?$Tab@PEAVVertexNormalsCallback@@@@8
rdata$r	ENDS
;	COMDAT ??_R2?$Tab@PEAVVertexNormalsCallback@@@@8
rdata$r	SEGMENT
??_R2?$Tab@PEAVVertexNormalsCallback@@@@8 DD imagerel ??_R1A@?0A@EA@?$Tab@PEAVVertexNormalsCallback@@@@8 ; Tab<VertexNormalsCallback * __ptr64>::`RTTI Base Class Array'
	DD	imagerel ??_R17?0A@EA@MaxHeapOperators@@8
	ORG $+3
rdata$r	ENDS
;	COMDAT ??_R3?$Tab@PEAVVertexNormalsCallback@@@@8
rdata$r	SEGMENT
??_R3?$Tab@PEAVVertexNormalsCallback@@@@8 DD 00H	; Tab<VertexNormalsCallback * __ptr64>::`RTTI Class Hierarchy Descriptor'
	DD	00H
	DD	02H
	DD	imagerel ??_R2?$Tab@PEAVVertexNormalsCallback@@@@8
rdata$r	ENDS
;	COMDAT ??_R0?AV?$Tab@PEAVVertexNormalsCallback@@@@@8
data$r	SEGMENT
??_R0?AV?$Tab@PEAVVertexNormalsCallback@@@@@8 DQ FLAT:??_7type_info@@6B@ ; Tab<VertexNormalsCallback * __ptr64> `RTTI Type Descriptor'
	DQ	0000000000000000H
	DB	'.?AV?$Tab@PEAVVertexNormalsCallback@@@@', 00H
data$r	ENDS
;	COMDAT ??_R4?$Tab@PEAVVertexNormalsCallback@@@@6B@
rdata$r	SEGMENT
??_R4?$Tab@PEAVVertexNormalsCallback@@@@6B@ DD 01H	; Tab<VertexNormalsCallback * __ptr64>::`RTTI Complete Object Locator'
	DD	00H
	DD	00H
	DD	imagerel ??_R0?AV?$Tab@PEAVVertexNormalsCallback@@@@@8
	DD	imagerel ??_R3?$Tab@PEAVVertexNormalsCallback@@@@8
	DD	imagerel ??_R4?$Tab@PEAVVertexNormalsCallback@@@@6B@
rdata$r	ENDS
;	COMDAT ??_R1A@?0A@EA@ISubMap@@8
rdata$r	SEGMENT
??_R1A@?0A@EA@ISubMap@@8 DD imagerel ??_R0?AVISubMap@@@8 ; ISubMap::`RTTI Base Class Descriptor at (0,-1,0,64)'
	DD	01H
	DD	00H
	DD	0ffffffffH
	DD	00H
	DD	040H
	DD	imagerel ??_R3ISubMap@@8
rdata$r	ENDS
;	COMDAT ??_R2ISubMap@@8
rdata$r	SEGMENT
??_R2ISubMap@@8 DD imagerel ??_R1A@?0A@EA@ISubMap@@8	; ISubMap::`RTTI Base Class Array'
	DD	imagerel ??_R17?0A@EA@MaxHeapOperators@@8
	ORG $+3
rdata$r	ENDS
;	COMDAT ??_R3ISubMap@@8
rdata$r	SEGMENT
??_R3ISubMap@@8 DD 00H					; ISubMap::`RTTI Class Hierarchy Descriptor'
	DD	00H
	DD	02H
	DD	imagerel ??_R2ISubMap@@8
rdata$r	ENDS
;	COMDAT ??_R0?AVISubMap@@@8
data$r	SEGMENT
??_R0?AVISubMap@@@8 DQ FLAT:??_7type_info@@6B@		; ISubMap `RTTI Type Descriptor'
	DQ	0000000000000000H
	DB	'.?AVISubMap@@', 00H
data$r	ENDS
;	COMDAT ??_R1A@?0A@EA@ParamMap2UserDlgProc@@8
rdata$r	SEGMENT
??_R1A@?0A@EA@ParamMap2UserDlgProc@@8 DD imagerel ??_R0?AVParamMap2UserDlgProc@@@8 ; ParamMap2UserDlgProc::`RTTI Base Class Descriptor at (0,-1,0,64)'
	DD	01H
	DD	00H
	DD	0ffffffffH
	DD	00H
	DD	040H
	DD	imagerel ??_R3ParamMap2UserDlgProc@@8
rdata$r	ENDS
;	COMDAT ??_R2ParamMap2UserDlgProc@@8
rdata$r	SEGMENT
??_R2ParamMap2UserDlgProc@@8 DD imagerel ??_R1A@?0A@EA@ParamMap2UserDlgProc@@8 ; ParamMap2UserDlgProc::`RTTI Base Class Array'
	DD	imagerel ??_R17?0A@EA@MaxHeapOperators@@8
	ORG $+3
rdata$r	ENDS
;	COMDAT ??_R3ParamMap2UserDlgProc@@8
rdata$r	SEGMENT
??_R3ParamMap2UserDlgProc@@8 DD 00H			; ParamMap2UserDlgProc::`RTTI Class Hierarchy Descriptor'
	DD	00H
	DD	02H
	DD	imagerel ??_R2ParamMap2UserDlgProc@@8
rdata$r	ENDS
;	COMDAT ??_R0?AVParamMap2UserDlgProc@@@8
data$r	SEGMENT
??_R0?AVParamMap2UserDlgProc@@@8 DQ FLAT:??_7type_info@@6B@ ; ParamMap2UserDlgProc `RTTI Type Descriptor'
	DQ	0000000000000000H
	DB	'.?AVParamMap2UserDlgProc@@', 00H
data$r	ENDS
;	COMDAT ??_R4ParamMap2UserDlgProc@@6B@
rdata$r	SEGMENT
??_R4ParamMap2UserDlgProc@@6B@ DD 01H			; ParamMap2UserDlgProc::`RTTI Complete Object Locator'
	DD	00H
	DD	00H
	DD	imagerel ??_R0?AVParamMap2UserDlgProc@@@8
	DD	imagerel ??_R3ParamMap2UserDlgProc@@8
	DD	imagerel ??_R4ParamMap2UserDlgProc@@6B@
rdata$r	ENDS
;	COMDAT ??_R1FA@?0A@EC@MaxHeapOperators@@8
rdata$r	SEGMENT
??_R1FA@?0A@EC@MaxHeapOperators@@8 DD imagerel ??_R0?AVMaxHeapOperators@@@8 ; MaxHeapOperators::`RTTI Base Class Descriptor at (80,-1,0,66)'
	DD	00H
	DD	050H
	DD	0ffffffffH
	DD	00H
	DD	042H
	DD	imagerel ??_R3MaxHeapOperators@@8
rdata$r	ENDS
;	COMDAT ??_R18?0A@EC@MaxHeapOperators@@8
rdata$r	SEGMENT
??_R18?0A@EC@MaxHeapOperators@@8 DD imagerel ??_R0?AVMaxHeapOperators@@@8 ; MaxHeapOperators::`RTTI Base Class Descriptor at (9,-1,0,66)'
	DD	00H
	DD	09H
	DD	0ffffffffH
	DD	00H
	DD	042H
	DD	imagerel ??_R3MaxHeapOperators@@8
rdata$r	ENDS
;	COMDAT ??_R18?0A@EA@Noncopyable@Util@MaxSDK@@8
rdata$r	SEGMENT
??_R18?0A@EA@Noncopyable@Util@MaxSDK@@8 DD imagerel ??_R0?AVNoncopyable@Util@MaxSDK@@@8 ; MaxSDK::Util::Noncopyable::`RTTI Base Class Descriptor at (9,-1,0,64)'
	DD	01H
	DD	09H
	DD	0ffffffffH
	DD	00H
	DD	040H
	DD	imagerel ??_R3Noncopyable@Util@MaxSDK@@8
rdata$r	ENDS
;	COMDAT ??_R2Animatable@@8
rdata$r	SEGMENT
??_R2Animatable@@8 DD imagerel ??_R1A@?0A@EA@Animatable@@8 ; Animatable::`RTTI Base Class Array'
	DD	imagerel ??_R1A@?0A@EA@InterfaceServer@@8
	DD	imagerel ??_R17?0A@EC@MaxHeapOperators@@8
	DD	imagerel ??_R18?0A@EA@Noncopyable@Util@MaxSDK@@8
	DD	imagerel ??_R18?0A@EC@MaxHeapOperators@@8
	ORG $+3
rdata$r	ENDS
;	COMDAT ??_R3Animatable@@8
rdata$r	SEGMENT
??_R3Animatable@@8 DD 00H				; Animatable::`RTTI Class Hierarchy Descriptor'
	DD	05H
	DD	05H
	DD	imagerel ??_R2Animatable@@8
rdata$r	ENDS
;	COMDAT ??_R0?AVAnimatable@@@8
data$r	SEGMENT
??_R0?AVAnimatable@@@8 DQ FLAT:??_7type_info@@6B@	; Animatable `RTTI Type Descriptor'
	DQ	0000000000000000H
	DB	'.?AVAnimatable@@', 00H
data$r	ENDS
;	COMDAT ??_R1A@?0A@EA@Animatable@@8
rdata$r	SEGMENT
??_R1A@?0A@EA@Animatable@@8 DD imagerel ??_R0?AVAnimatable@@@8 ; Animatable::`RTTI Base Class Descriptor at (0,-1,0,64)'
	DD	04H
	DD	00H
	DD	0ffffffffH
	DD	00H
	DD	040H
	DD	imagerel ??_R3Animatable@@8
rdata$r	ENDS
;	COMDAT ??_R2ReferenceMaker@@8
rdata$r	SEGMENT
??_R2ReferenceMaker@@8 DD imagerel ??_R1A@?0A@EA@ReferenceMaker@@8 ; ReferenceMaker::`RTTI Base Class Array'
	DD	imagerel ??_R1A@?0A@EA@Animatable@@8
	DD	imagerel ??_R1A@?0A@EA@InterfaceServer@@8
	DD	imagerel ??_R17?0A@EC@MaxHeapOperators@@8
	DD	imagerel ??_R18?0A@EA@Noncopyable@Util@MaxSDK@@8
	DD	imagerel ??_R18?0A@EC@MaxHeapOperators@@8
	ORG $+3
rdata$r	ENDS
;	COMDAT ??_R3ReferenceMaker@@8
rdata$r	SEGMENT
??_R3ReferenceMaker@@8 DD 00H				; ReferenceMaker::`RTTI Class Hierarchy Descriptor'
	DD	01H
	DD	06H
	DD	imagerel ??_R2ReferenceMaker@@8
rdata$r	ENDS
;	COMDAT ??_R0?AVReferenceMaker@@@8
data$r	SEGMENT
??_R0?AVReferenceMaker@@@8 DQ FLAT:??_7type_info@@6B@	; ReferenceMaker `RTTI Type Descriptor'
	DQ	0000000000000000H
	DB	'.?AVReferenceMaker@@', 00H
data$r	ENDS
;	COMDAT ??_R1A@?0A@EA@ReferenceMaker@@8
rdata$r	SEGMENT
??_R1A@?0A@EA@ReferenceMaker@@8 DD imagerel ??_R0?AVReferenceMaker@@@8 ; ReferenceMaker::`RTTI Base Class Descriptor at (0,-1,0,64)'
	DD	05H
	DD	00H
	DD	0ffffffffH
	DD	00H
	DD	040H
	DD	imagerel ??_R3ReferenceMaker@@8
rdata$r	ENDS
;	COMDAT ??_R2ReferenceTarget@@8
rdata$r	SEGMENT
??_R2ReferenceTarget@@8 DD imagerel ??_R1A@?0A@EA@ReferenceTarget@@8 ; ReferenceTarget::`RTTI Base Class Array'
	DD	imagerel ??_R1A@?0A@EA@ReferenceMaker@@8
	DD	imagerel ??_R1A@?0A@EA@Animatable@@8
	DD	imagerel ??_R1A@?0A@EA@InterfaceServer@@8
	DD	imagerel ??_R17?0A@EC@MaxHeapOperators@@8
	DD	imagerel ??_R18?0A@EA@Noncopyable@Util@MaxSDK@@8
	DD	imagerel ??_R18?0A@EC@MaxHeapOperators@@8
	ORG $+3
rdata$r	ENDS
;	COMDAT ??_R3ReferenceTarget@@8
rdata$r	SEGMENT
??_R3ReferenceTarget@@8 DD 00H				; ReferenceTarget::`RTTI Class Hierarchy Descriptor'
	DD	01H
	DD	07H
	DD	imagerel ??_R2ReferenceTarget@@8
rdata$r	ENDS
;	COMDAT ??_R0?AVReferenceTarget@@@8
data$r	SEGMENT
??_R0?AVReferenceTarget@@@8 DQ FLAT:??_7type_info@@6B@	; ReferenceTarget `RTTI Type Descriptor'
	DQ	0000000000000000H
	DB	'.?AVReferenceTarget@@', 00H
data$r	ENDS
;	COMDAT ??_R1A@?0A@EA@ReferenceTarget@@8
rdata$r	SEGMENT
??_R1A@?0A@EA@ReferenceTarget@@8 DD imagerel ??_R0?AVReferenceTarget@@@8 ; ReferenceTarget::`RTTI Base Class Descriptor at (0,-1,0,64)'
	DD	06H
	DD	00H
	DD	0ffffffffH
	DD	00H
	DD	040H
	DD	imagerel ??_R3ReferenceTarget@@8
rdata$r	ENDS
;	COMDAT ??_7BerconWoodDlgProc@@6B@
CONST	SEGMENT
??_7BerconWoodDlgProc@@6B@ DQ FLAT:??_R4BerconWoodDlgProc@@6B@ ; BerconWoodDlgProc::`vftable'
	DQ	FLAT:??_EBerconWoodDlgProc@@UEAAPEAXI@Z
	DQ	FLAT:?DlgProc@BerconWoodDlgProc@@UEAA_JHPEAVIParamMap2@@PEAUHWND__@@I_K_J@Z
	DQ	FLAT:?DeleteThis@BerconWoodDlgProc@@UEAAXXZ
	DQ	FLAT:?SetThing@BerconWoodDlgProc@@UEAAXPEAVReferenceTarget@@@Z
	DQ	FLAT:?Update@ParamMap2UserDlgProc@@UEAAXHAEAVInterval@@PEAVIParamMap2@@@Z
	DQ	FLAT:?Update@ParamMap2UserDlgProc@@UEAAXH@Z
	DQ	FLAT:?SetParamBlock@ParamMap2UserDlgProc@@UEAAXPEAVIParamBlock2@@@Z
CONST	ENDS
;	COMDAT ??_7BerconWood@@6B@
CONST	SEGMENT
??_7BerconWood@@6B@ DQ FLAT:??_R4BerconWood@@6B@	; BerconWood::`vftable'
	DQ	FLAT:?SetCustomImageList@BerconWood@@UEAAHAEAPEAU_IMAGELIST@@PEAVICurveCtl@@@Z
	DQ	FLAT:?GetToolTip@BerconWood@@UEAAHHAEAVWStr@@PEAVICurveCtl@@@Z
	DQ	FLAT:?ResetCallback@BerconWood@@UEAAXHPEAVICurveCtl@@@Z
	DQ	FLAT:?NewCurveCreatedCallback@BerconWood@@UEAAXHPEAVICurveCtl@@@Z
	DQ	FLAT:?GetInterface@BerconWood@@WJI@EAAPEAXK@Z
CONST	ENDS
;	COMDAT ??_7BerconWood@@6BISubMap@@@
CONST	SEGMENT
??_7BerconWood@@6BISubMap@@@ DQ FLAT:??_R4BerconWood@@6BISubMap@@@ ; BerconWood::`vftable'
	DQ	FLAT:??_EBerconWood@@WEI@EAAPEAXI@Z
	DQ	FLAT:?NumSubTexmaps@BerconWood@@UEAAHXZ
	DQ	FLAT:?GetSubTexmap@BerconWood@@UEAAPEAVTexmap@@H@Z
	DQ	FLAT:?MapSlotType@Texmap@@UEAAHH@Z
	DQ	FLAT:?SetSubTexmap@BerconWood@@UEAAXHPEAVTexmap@@@Z
	DQ	FLAT:?SubTexmapOn@ISubMap@@UEAAHH@Z
	DQ	FLAT:?GetSubTexmapSlotName@BerconWood@@UEAA?AVWStr@@H@Z
	DQ	FLAT:?SetDlgThing@BerconWood@@UEAAHPEAVParamDlg@@@Z
	DQ	FLAT:?GetRefTarget@MtlBase@@UEAAPEAVReferenceTarget@@XZ
CONST	ENDS
;	COMDAT ??_7BerconWood@@6BReferenceTarget@@@
CONST	SEGMENT
??_7BerconWood@@6BReferenceTarget@@@ DQ FLAT:??_R4BerconWood@@6BReferenceTarget@@@ ; BerconWood::`vftable'
	DQ	FLAT:??_EBerconWood@@UEAAPEAXI@Z
	DQ	FLAT:?GetInterface@MtlBase@@UEAAPEAVBaseInterface@@VInterface_ID@@@Z
	DQ	FLAT:?DeleteThis@BerconWood@@UEAAXXZ
	DQ	FLAT:?GetClassName@BerconWood@@UEAAXAEAVWStr@@@Z
	DQ	FLAT:?SuperClassID@BerconWood@@UEAAKXZ
	DQ	FLAT:?ClassID@BerconWood@@UEAA?AVClass_ID@@XZ
	DQ	FLAT:?FreeCaches@Animatable@@UEAAXXZ
	DQ	FLAT:?BeginEditParams@Animatable@@UEAAXPEAVIObjParam@@KPEAV1@@Z
	DQ	FLAT:?EndEditParams@Animatable@@UEAAXPEAVIObjParam@@KPEAV1@@Z
	DQ	FLAT:?GetInterface@BerconWood@@UEAAPEAXK@Z
	DQ	FLAT:?ReleaseInterface@Animatable@@UEAAXKPEAX@Z
	DQ	FLAT:?SetProperty@MtlBase@@UEAAHKPEAX@Z
	DQ	FLAT:?GetProperty@MtlBase@@UEAAPEAXK@Z
	DQ	FLAT:?NumSubs@BerconWood@@UEAAHXZ
	DQ	FLAT:?SubAnim@BerconWood@@UEAAPEAVAnimatable@@H@Z
	DQ	FLAT:?SubAnimName@BerconWood@@UEAA?AVWStr@@H@Z
	DQ	FLAT:?BypassTreeView@Animatable@@UEAAHXZ
	DQ	FLAT:?BypassTrackBar@Animatable@@UEAAHXZ
	DQ	FLAT:?BypassPropertyLevel@Animatable@@UEAAHXZ
	DQ	FLAT:?InvisibleProperty@Animatable@@UEAAHXZ
	DQ	FLAT:?AssignController@Animatable@@UEAAHPEAV1@H@Z
	DQ	FLAT:?CanAssignController@Animatable@@UEAAHH@Z
	DQ	FLAT:?CanDeleteSubAnim@Animatable@@UEAAHH@Z
	DQ	FLAT:?DeleteSubAnim@Animatable@@UEAAXH@Z
	DQ	FLAT:?GetSubAnimCurveColor@Animatable@@UEAAKH@Z
	DQ	FLAT:?SubNumToRefNum@BerconWood@@UEAAHH@Z
	DQ	FLAT:?CanCopyAnim@Animatable@@UEAAHXZ
	DQ	FLAT:?CanMakeUnique@Animatable@@UEAAHXZ
	DQ	FLAT:?NumChildren@Animatable@@UEAAHXZ
	DQ	FLAT:?ChildAnim@Animatable@@UEAAPEAV1@H@Z
	DQ	FLAT:?NodeName@Animatable@@UEAA?AVWStr@@XZ
	DQ	FLAT:?RenderBegin@Animatable@@UEAAHHK@Z
	DQ	FLAT:?RenderEnd@Animatable@@UEAAHH@Z
	DQ	FLAT:?EditTrack@Animatable@@UEAAXXZ
	DQ	FLAT:?NumKeys@Animatable@@UEAAHXZ
	DQ	FLAT:?GetKeyTime@Animatable@@UEAAHH@Z
	DQ	FLAT:?GetKeyIndex@Animatable@@UEAAHH@Z
	DQ	FLAT:?GetNextKeyTime@Animatable@@UEAAHHKAEAH@Z
	DQ	FLAT:?CopyKeysFromTime@Animatable@@UEAAXHHK@Z
	DQ	FLAT:?DeleteKeyAtTime@Animatable@@UEAAXH@Z
	DQ	FLAT:?IsKeyAtTime@Animatable@@UEAAHHK@Z
	DQ	FLAT:?GetKeyTimes@Animatable@@UEAAHAEAV?$Tab@H@@VInterval@@K@Z
	DQ	FLAT:?GetKeySelState@Animatable@@UEAAHAEAVBitArray@@VInterval@@K@Z
	DQ	FLAT:?GetTimeRange@Animatable@@UEAA?AVInterval@@K@Z
	DQ	FLAT:?EditTimeRange@Animatable@@UEAAXVInterval@@K@Z
	DQ	FLAT:?DeleteTime@Animatable@@UEAAXVInterval@@K@Z
	DQ	FLAT:?ReverseTime@Animatable@@UEAAXVInterval@@K@Z
	DQ	FLAT:?ScaleTime@Animatable@@UEAAXVInterval@@M@Z
	DQ	FLAT:?InsertTime@Animatable@@UEAAXHH@Z
	DQ	FLAT:?SupportTimeOperations@Animatable@@UEAAHXZ
	DQ	FLAT:?MapKeys@Animatable@@UEAAXPEAVTimeMap@@K@Z
	DQ	FLAT:?DeleteKeys@Animatable@@UEAAXK@Z
	DQ	FLAT:?DeleteKeyByIndex@Animatable@@UEAAXH@Z
	DQ	FLAT:?SelectKeys@Animatable@@UEAAXAEAV?$Tab@VTrackHitRecord@@@@K@Z
	DQ	FLAT:?SelectSubKeys@Animatable@@UEAAXHAEAV?$Tab@VTrackHitRecord@@@@K@Z
	DQ	FLAT:?SelectSubCurve@Animatable@@UEAAXHH@Z
	DQ	FLAT:?SelectKeyByIndex@Animatable@@UEAAXHH@Z
	DQ	FLAT:?IsKeySelected@Animatable@@UEAAHH@Z
	DQ	FLAT:?FlagKey@Animatable@@UEAAXVTrackHitRecord@@@Z
	DQ	FLAT:?GetFlagKeyIndex@Animatable@@UEAAHXZ
	DQ	FLAT:?NumSelKeys@Animatable@@UEAAHXZ
	DQ	FLAT:?CloneSelectedKeys@Animatable@@UEAAXH@Z
	DQ	FLAT:?AddNewKey@Animatable@@UEAAXHK@Z
	DQ	FLAT:?MoveKeys@Animatable@@UEAAXPEAVParamDimensionBase@@MK@Z
	DQ	FLAT:?ScaleKeyValues@Animatable@@UEAAXPEAVParamDimensionBase@@MMK@Z
	DQ	FLAT:?SelectCurve@Animatable@@UEAAXH@Z
	DQ	FLAT:?IsCurveSelected@Animatable@@UEAAHXZ
	DQ	FLAT:?IsSubCurveSelected@Animatable@@UEAAHH@Z
	DQ	FLAT:?GetSelKeyCoords@Animatable@@UEAAHAEAHAEAMK@Z
	DQ	FLAT:?SetSelKeyCoords@Animatable@@UEAAXHMK@Z
	DQ	FLAT:?SetSelKeyCoordsExpr@Animatable@@UEAAHPEAVParamDimension@@PEB_W1K@Z
	DQ	FLAT:?AdjustTangents@Animatable@@UEAAXVTrackHitRecord@@PEAVParamDimensionBase@@MMK@Z
	DQ	FLAT:?AdjustTangents@Animatable@@UEAAXVTrackHitRecord@@PEAVParamDimensionBase@@AEAVBox2@@MHMHHHK@Z
	DQ	FLAT:?SubAnimSetKeyBufferPresent@Animatable@@UEAAHH@Z
	DQ	FLAT:?SetKeyBufferPresent@Animatable@@UEAAHXZ
	DQ	FLAT:?SubAnimCommitSetKeyBuffer@Animatable@@UEAAXHH@Z
	DQ	FLAT:?CommitSetKeyBuffer@Animatable@@UEAAXH@Z
	DQ	FLAT:?SubAnimRevertSetKeyBuffer@Animatable@@UEAAXH@Z
	DQ	FLAT:?RevertSetKeyBuffer@Animatable@@UEAAXXZ
	DQ	FLAT:?IsAnimated@Animatable@@UEAAHXZ
	DQ	FLAT:?CanCopyTrack@Animatable@@UEAAHVInterval@@K@Z
	DQ	FLAT:?CanPasteTrack@Animatable@@UEAAHPEAVTrackClipObject@@VInterval@@K@Z
	DQ	FLAT:?CopyTrack@Animatable@@UEAAPEAVTrackClipObject@@VInterval@@K@Z
	DQ	FLAT:?PasteTrack@Animatable@@UEAAXPEAVTrackClipObject@@VInterval@@K@Z
	DQ	FLAT:?CanCopySubTrack@Animatable@@UEAAHHVInterval@@K@Z
	DQ	FLAT:?CanPasteSubTrack@Animatable@@UEAAHHPEAVTrackClipObject@@VInterval@@K@Z
	DQ	FLAT:?CopySubTrack@Animatable@@UEAAPEAVTrackClipObject@@HVInterval@@K@Z
	DQ	FLAT:?PasteSubTrack@Animatable@@UEAAXHPEAVTrackClipObject@@VInterval@@K@Z
	DQ	FLAT:?GetTrackVSpace@Animatable@@UEAAHH@Z
	DQ	FLAT:?HitTestTrack@Animatable@@UEAAHAEAV?$Tab@VTrackHitRecord@@@@AEAVBox2@@1MHK@Z
	DQ	FLAT:?PaintTrack@Animatable@@UEAAHPEAVParamDimensionBase@@PEAUHDC__@@AEAVBox2@@2MHK@Z
	DQ	FLAT:?PaintSubTrack@Animatable@@UEAAHHPEAVParamDimensionBase@@PEAUHDC__@@AEAVBox2@@2MHK@Z
	DQ	FLAT:?PaintFCurves@Animatable@@UEAAHPEAVParamDimensionBase@@PEAUHDC__@@AEAVBox2@@2MHMHK@Z
	DQ	FLAT:?HitTestFCurves@Animatable@@UEAAHPEAVParamDimensionBase@@AEAV?$Tab@VTrackHitRecord@@@@AEAVBox2@@2MHMHK@Z
	DQ	FLAT:?PaintSubFCurves@Animatable@@UEAAHHPEAVParamDimensionBase@@PEAUHDC__@@AEAVBox2@@2MHMHK@Z
	DQ	FLAT:?HitTestSubFCurves@Animatable@@UEAAHHPEAVParamDimensionBase@@AEAV?$Tab@VTrackHitRecord@@@@AEAVBox2@@2MHMHK@Z
	DQ	FLAT:?EditTrackParams@Animatable@@UEAAXHPEAVParamDimensionBase@@PEB_WPEAUHWND__@@PEAVIObjParam@@K@Z
	DQ	FLAT:?TrackParamsType@Animatable@@UEAAHXZ
	DQ	FLAT:?GetFCurveExtents@Animatable@@UEAAHPEAVParamDimensionBase@@AEAM1K@Z
	DQ	FLAT:?GetSubFCurveExtents@Animatable@@UEAAHHPEAVParamDimensionBase@@AEAM1K@Z
	DQ	FLAT:?GetParamDimension@Animatable@@UEAAPEAVParamDimension@@H@Z
	DQ	FLAT:?TrackViewWinProc@Animatable@@UEAA_JPEAUHWND__@@I_K_J@Z
	DQ	FLAT:?SelectSubAnim@Animatable@@UEAAHH@Z
	DQ	FLAT:?EnumAuxFiles@MtlBase@@UEAAXAEAVAssetEnumCallback@@K@Z
	DQ	FLAT:?FreeAllBitmaps@Animatable@@UEAAXXZ
	DQ	FLAT:?GetSystemNodes@Animatable@@UEAAXAEAVINodeTab@@W4SysNodeContext@@@Z
	DQ	FLAT:?IsSubClassOf@Animatable@@UEAAHVClass_ID@@@Z
	DQ	FLAT:?IsRefMaker@ReferenceMaker@@UEAAHXZ
	DQ	FLAT:?MouseCycleCompleted@Animatable@@UEAAXH@Z
	DQ	FLAT:?MouseCycleStarted@Animatable@@UEAAXH@Z
	DQ	FLAT:?NumParamBlocks@BerconWood@@UEAAHXZ
	DQ	FLAT:?GetParamBlock@BerconWood@@UEAAPEAVIParamBlock2@@H@Z
	DQ	FLAT:?GetParamBlockByID@BerconWood@@UEAAPEAVIParamBlock2@@F@Z
	DQ	FLAT:?SvTraverseAnimGraph@Texmap@@UEAA?AVSvGraphNodeReference@@PEAVIGraphObjectManager@@PEAVAnimatable@@HK@Z
	DQ	FLAT:?SvCanInitiateLink@Animatable@@UEAA_NPEAVIGraphObjectManager@@PEAVIGraphNode@@@Z
	DQ	FLAT:?SvCanConcludeLink@Animatable@@UEAA_NPEAVIGraphObjectManager@@PEAVIGraphNode@@1@Z
	DQ	FLAT:?SvGetName@MtlBase@@UEAA?AVWStr@@PEAVIGraphObjectManager@@PEAVIGraphNode@@_N@Z
	DQ	FLAT:?SvCanSetName@MtlBase@@UEAA_NPEAVIGraphObjectManager@@PEAVIGraphNode@@@Z
	DQ	FLAT:?SvSetName@MtlBase@@UEAA_NPEAVIGraphObjectManager@@PEAVIGraphNode@@AEBVWStr@@@Z
	DQ	FLAT:?SvCanRemoveThis@Animatable@@UEAA_NPEAVIGraphObjectManager@@PEAVIGraphNode@@@Z
	DQ	FLAT:?SvRemoveThis@Animatable@@UEAA_NPEAVIGraphObjectManager@@PEAVIGraphNode@@@Z
	DQ	FLAT:?SvIsSelected@MtlBase@@UEAA_NPEAVIGraphObjectManager@@PEAVIGraphNode@@@Z
	DQ	FLAT:?SvIsHighlighted@Animatable@@UEAA_NPEAVIGraphObjectManager@@PEAVIGraphNode@@@Z
	DQ	FLAT:?SvHighlightColor@MtlBase@@UEAAKPEAVIGraphObjectManager@@PEAVIGraphNode@@@Z
	DQ	FLAT:?SvGetSwatchColor@Animatable@@UEAAKPEAVIGraphObjectManager@@PEAVIGraphNode@@@Z
	DQ	FLAT:?SvIsInactive@Animatable@@UEAA_NPEAVIGraphObjectManager@@PEAVIGraphNode@@@Z
	DQ	FLAT:?SvLinkChild@Animatable@@UEAA_NPEAVIGraphObjectManager@@PEAVIGraphNode@@1@Z
	DQ	FLAT:?SvHandleDoubleClick@MtlBase@@UEAA_NPEAVIGraphObjectManager@@PEAVIGraphNode@@@Z
	DQ	FLAT:?SvGetMultiSelectCallback@MtlBase@@UEAAPEAVMultiSelectCallback@@PEAVIGraphObjectManager@@PEAVIGraphNode@@@Z
	DQ	FLAT:?SvCanSelect@MtlBase@@UEAA_NPEAVIGraphObjectManager@@PEAVIGraphNode@@@Z
	DQ	FLAT:?SvEditProperties@Animatable@@UEAA_NPEAVIGraphObjectManager@@PEAVIGraphNode@@@Z
	DQ	FLAT:?SvGetTip@Animatable@@UEAA?AVWStr@@PEAVIGraphObjectManager@@PEAVIGraphNode@@@Z
	DQ	FLAT:?SvGetRefTip@Animatable@@UEAA?AVWStr@@PEAVIGraphObjectManager@@PEAVIGraphNode@@1@Z
	DQ	FLAT:?SvCanDetach@Animatable@@UEAA_NPEAVIGraphObjectManager@@PEAVIGraphNode@@@Z
	DQ	FLAT:?SvDetach@Animatable@@UEAA_NPEAVIGraphObjectManager@@PEAVIGraphNode@@@Z
	DQ	FLAT:?SvGetRelTip@Animatable@@UEAA?AVWStr@@PEAVIGraphObjectManager@@PEAVIGraphNode@@H1@Z
	DQ	FLAT:?SvCanDetachRel@Animatable@@UEAA_NPEAVIGraphObjectManager@@PEAVIGraphNode@@H1@Z
	DQ	FLAT:?SvDetachRel@Animatable@@UEAA_NPEAVIGraphObjectManager@@PEAVIGraphNode@@H1@Z
	DQ	FLAT:?SvHandleRelDoubleClick@Animatable@@UEAA_NPEAVIGraphObjectManager@@PEAVIGraphNode@@H1@Z
	DQ	FLAT:?IsParamBlockDesc2Used@Animatable@@UEAA_NPEAVParamBlockDesc2@@@Z
	DQ	FLAT:?GetMacroRecorderName@Animatable@@UEAA_N_NAEAVWStr@@@Z
	DQ	FLAT:?DeleteAllRefsToMe@ReferenceTarget@@UEAA?AW4RefResult@@XZ
	DQ	FLAT:?CanTransferReference@ReferenceMaker@@UEAAHH@Z
	DQ	FLAT:?NumRefs@BerconWood@@UEAAHXZ
	DQ	FLAT:?GetReference@BerconWood@@UEAAPEAVReferenceTarget@@H@Z
	DQ	FLAT:?SetReference@BerconWood@@UEAAXHPEAVReferenceTarget@@@Z
	DQ	FLAT:?Save@MtlBase@@UEAA?AW4IOResult@@PEAVISave@@@Z
	DQ	FLAT:?Load@MtlBase@@UEAA?AW4IOResult@@PEAVILoad@@@Z
	DQ	FLAT:?RemapRefOnLoad@ReferenceMaker@@UEAAHH@Z
	DQ	FLAT:?RescaleWorldUnits@ReferenceMaker@@UEAAXM@Z
	DQ	FLAT:?NotifyDependents@ReferenceTarget@@UEAA?AW4RefResult@@AEBVInterval@@_KIKHPEAV1@W4NotifyDependentsOption@@@Z
	DQ	FLAT:?NotifyDependents@ReferenceMaker@@EEAA?AW4RefResult@@AEBVInterval@@_KIKHPEAVReferenceTarget@@@Z
	DQ	FLAT:?SaveEnum@ReferenceMaker@@UEAAXAEAVSaveEnumProc@@H@Z
	DQ	FLAT:?SpecifySaveReferences@ReferenceMaker@@UEAA_NAEAVReferenceSaveManager@@@Z
	DQ	FLAT:?DoEnumDependentsImpl@ReferenceTarget@@MEAAHPEAVDependentEnumProc@@@Z
	DQ	FLAT:?IsRefTarget@ReferenceTarget@@UEAAHXZ
	DQ	FLAT:?IsRealDependency@ReferenceMaker@@UEAAHPEAVReferenceTarget@@@Z
	DQ	FLAT:?ShouldPersistWeakRef@ReferenceMaker@@UEAAHPEAVReferenceTarget@@@Z
	DQ	FLAT:?NotifyRefChanged@BerconWood@@UEAA?AW4RefResult@@AEBVInterval@@PEAVReferenceTarget@@AEA_KIH@Z
	DQ	FLAT:?AutoDelete@ReferenceTarget@@UEAA?AW4RefResult@@XZ
	DQ	FLAT:?RefAdded@Texmap@@UEAAXPEAVReferenceMaker@@@Z
	DQ	FLAT:?RefAddedUndoRedo@ReferenceTarget@@UEAAXPEAVReferenceMaker@@@Z
	DQ	FLAT:?RefDeleted@ReferenceTarget@@UEAAXXZ
	DQ	FLAT:?RefDeletedUndoRedo@ReferenceTarget@@UEAAXXZ
	DQ	FLAT:?Clone@BerconWood@@UEAAPEAVReferenceTarget@@AEAVRemapDir@@@Z
	DQ	FLAT:?BaseClone@MtlBase@@UEAAXPEAVReferenceTarget@@0AEAVRemapDir@@@Z
	DQ	FLAT:?NotifyForeground@ReferenceTarget@@UEAAXH@Z
	DQ	FLAT:?NotifyTarget@ReferenceTarget@@UEAAXHPEAVReferenceMaker@@@Z
	DQ	FLAT:?GetFullName@MtlBase@@UEAA?AVWStr@@XZ
	DQ	FLAT:?BuildMaps@MtlBase@@UEAAHHAEAVRenderMapsContext@@@Z
	DQ	FLAT:?Requirements@MtlBase@@UEAAKH@Z
	DQ	FLAT:?LocalRequirements@BerconWood@@UEAAKH@Z
	DQ	FLAT:?MappingsRequired@BerconWood@@UEAAXHAEAVBitArray@@0@Z
	DQ	FLAT:?LocalMappingsRequired@MtlBase@@UEAAXHAEAVBitArray@@0@Z
	DQ	FLAT:?IsMultiMtl@MtlBase@@UEAAHXZ
	DQ	FLAT:?Update@BerconWood@@UEAAXHAEAVInterval@@@Z
	DQ	FLAT:?Reset@BerconWood@@UEAAXXZ
	DQ	FLAT:?Validity@BerconWood@@UEAA?AVInterval@@H@Z
	DQ	FLAT:?CreateParamDlg@BerconWood@@UEAAPEAVParamDlg@@PEAUHWND__@@PEAVIMtlParams@@@Z
	DQ	FLAT:?GetPStamp@MtlBase@@UEAAPEAVPStamp@@H@Z
	DQ	FLAT:?CreatePStamp@MtlBase@@UEAAPEAVPStamp@@HH@Z
	DQ	FLAT:?DiscardPStamp@MtlBase@@UEAAXH@Z
	DQ	FLAT:?SupportTexDisplay@BerconWood@@UEAAHXZ
	DQ	FLAT:?GetActiveTexHandle@BerconWood@@UEAA_KHAEAVTexHandleMaker@@@Z
	DQ	FLAT:?ActivateTexDisplay@BerconWood@@UEAAXH@Z
	DQ	FLAT:?SupportsMultiMapsInViewport@MtlBase@@UEAAHXZ
	DQ	FLAT:?SetupGfxMultiMaps@MtlBase@@UEAAXHPEAVMaterial@@AEAVMtlMakerCallback@@@Z
	DQ	FLAT:?GetTransparencyHint@MtlBase@@UEAAHHAEAVInterval@@@Z
	DQ	FLAT:?EvalColor@BerconWood@@UEAA?AVAColor@@AEAVShadeContext@@@Z
	DQ	FLAT:?EvalMono@BerconWood@@UEAAMAEAVShadeContext@@@Z
	DQ	FLAT:?EvalNormalPerturb@BerconWood@@UEAA?AVPoint3@@AEAVShadeContext@@@Z
	DQ	FLAT:?HandleOwnViewPerturb@Texmap@@UEAAHXZ
	DQ	FLAT:?GetVPDisplayDIB@Texmap@@UEAAPEAUtagBITMAPINFO@@HAEAVTexHandleMaker@@AEAVInterval@@HHH@Z
	DQ	FLAT:?GetUVTransform@Texmap@@UEAAXAEAVMatrix3@@@Z
	DQ	FLAT:?GetTextureTiling@Texmap@@UEAAHXZ
	DQ	FLAT:?GetUVWSource@Texmap@@UEAAHXZ
	DQ	FLAT:?GetMapChannel@Texmap@@UEAAHXZ
	DQ	FLAT:?InitSlotType@Texmap@@UEAAXH@Z
	DQ	FLAT:?GetTheUVGen@Texmap@@UEAAPEAVUVGen@@XZ
	DQ	FLAT:?GetTheXYZGen@Texmap@@UEAAPEAVXYZGen@@XZ
	DQ	FLAT:?SetOutputLevel@Texmap@@UEAAXHM@Z
	DQ	FLAT:?IsOutputMeaningful@Texmap@@UEAA_NAEAVShadeContext@@@Z
	DQ	FLAT:?IsLocalOutputMeaningful@Texmap@@UEAA_NAEAVShadeContext@@@Z
	DQ	FLAT:?LoadMapFiles@Texmap@@UEAAHH@Z
	DQ	FLAT:?RenderBitmap@Texmap@@UEAAXHPEAVBitmap@@MH@Z
	DQ	FLAT:?IsHighDynamicRange@Texmap@@UEBAHXZ
CONST	ENDS
;	COMDAT ??_C@_13PHJMHGG@?$AAL?$AA?$AA@
CONST	SEGMENT
??_C@_13PHJMHGG@?$AAL?$AA?$AA@ DB 'L', 00H, 00H, 00H	; `string'
CONST	ENDS
;	COMDAT ??_7BerconXYZDlgProc@@6B@
CONST	SEGMENT
??_7BerconXYZDlgProc@@6B@ DQ FLAT:??_R4BerconXYZDlgProc@@6B@ ; BerconXYZDlgProc::`vftable'
	DQ	FLAT:??_EBerconXYZDlgProc@@UEAAPEAXI@Z
	DQ	FLAT:?DlgProc@BerconXYZDlgProc@@UEAA_JHPEAVIParamMap2@@PEAUHWND__@@I_K_J@Z
	DQ	FLAT:?DeleteThis@BerconXYZDlgProc@@UEAAXXZ
	DQ	FLAT:?SetThing@BerconXYZDlgProc@@UEAAXPEAVReferenceTarget@@@Z
	DQ	FLAT:?Update@ParamMap2UserDlgProc@@UEAAXHAEAVInterval@@PEAVIParamMap2@@@Z
	DQ	FLAT:?Update@ParamMap2UserDlgProc@@UEAAXH@Z
	DQ	FLAT:?SetParamBlock@ParamMap2UserDlgProc@@UEAAXPEAVIParamBlock2@@@Z
CONST	ENDS
;	COMDAT ??_7ResourceMakerCallback@@6B@
CONST	SEGMENT
??_7ResourceMakerCallback@@6B@ DQ FLAT:??_R4ResourceMakerCallback@@6B@ ; ResourceMakerCallback::`vftable'
	DQ	FLAT:?SetCustomImageList@ResourceMakerCallback@@UEAAHAEAPEAU_IMAGELIST@@PEAVICurveCtl@@@Z
	DQ	FLAT:?GetToolTip@ResourceMakerCallback@@UEAAHHAEAVWStr@@PEAVICurveCtl@@@Z
	DQ	FLAT:?ResetCallback@ResourceMakerCallback@@UEAAXHPEAVICurveCtl@@@Z
	DQ	FLAT:?NewCurveCreatedCallback@ResourceMakerCallback@@UEAAXHPEAVICurveCtl@@@Z
	DQ	FLAT:?GetInterface@ResourceMakerCallback@@UEAAPEAXK@Z
CONST	ENDS
_DATA	SEGMENT
?BlinnClassID@@3VClass_ID@@A DD 038H			; BlinnClassID
	DD	00H
?AnisoShaderClassID@@3VClass_ID@@A DD 02857f460H	; AnisoShaderClassID
	DD	00H
?AnisoShaderDlgClassID@@3VClass_ID@@A DD 02857f460H	; AnisoShaderDlgClassID
	DD	00H
?OrenNayarBlinnShaderClassID@@3VClass_ID@@A DD 02857f421H ; OrenNayarBlinnShaderClassID
	DD	00H
?OrenNayarShaderDlgClassID@@3VClass_ID@@A DD 02857f422H	; OrenNayarShaderDlgClassID
	DD	00H
?StraussShaderClassID@@3VClass_ID@@A DD 02857f450H	; StraussShaderClassID
	DD	00H
?kTriObjNormalXTCID@@3VClass_ID@@B DD 0730a33d7H	; kTriObjNormalXTCID
	DD	027246c55H
?white@@3VAColor@@A DD 03f800000r		; 1	; white
	DD	03f800000r			; 1
	DD	03f800000r			; 1
	DD	03f800000r			; 1
_DATA	ENDS
;	COMDAT ??_7ParamMap2UserDlgProc@@6B@
CONST	SEGMENT
??_7ParamMap2UserDlgProc@@6B@ DQ FLAT:??_R4ParamMap2UserDlgProc@@6B@ ; ParamMap2UserDlgProc::`vftable'
	DQ	FLAT:??_EParamMap2UserDlgProc@@UEAAPEAXI@Z
	DQ	FLAT:_purecall
	DQ	FLAT:_purecall
	DQ	FLAT:?SetThing@ParamMap2UserDlgProc@@UEAAXPEAVReferenceTarget@@@Z
	DQ	FLAT:?Update@ParamMap2UserDlgProc@@UEAAXHAEAVInterval@@PEAVIParamMap2@@@Z
	DQ	FLAT:?Update@ParamMap2UserDlgProc@@UEAAXH@Z
	DQ	FLAT:?SetParamBlock@ParamMap2UserDlgProc@@UEAAXPEAVIParamBlock2@@@Z
CONST	ENDS
;	COMDAT ??_7?$Tab@PEAVVertexNormalsCallback@@@@6B@
CONST	SEGMENT
??_7?$Tab@PEAVVertexNormalsCallback@@@@6B@ DQ FLAT:??_R4?$Tab@PEAVVertexNormalsCallback@@@@6B@ ; Tab<VertexNormalsCallback * __ptr64>::`vftable'
	DQ	FLAT:??_E?$Tab@PEAVVertexNormalsCallback@@@@UEAAPEAXI@Z
CONST	ENDS
;	COMDAT ??_C@_1BM@HADNIIA@?$AAB?$AAi?$AAt?$AAA?$AAr?$AAr?$AAa?$AAy?$AA?3?$AA?3?$AAS?$AAe?$AAt?$AA?$AA@
CONST	SEGMENT
??_C@_1BM@HADNIIA@?$AAB?$AAi?$AAt?$AAA?$AAr?$AAr?$AAa?$AAy?$AA?3?$AA?3?$AAS?$AAe?$AAt?$AA?$AA@ DB 'B'
	DB	00H, 'i', 00H, 't', 00H, 'A', 00H, 'r', 00H, 'r', 00H, 'a', 00H
	DB	'y', 00H, ':', 00H, ':', 00H, 'S', 00H, 'e', 00H, 't', 00H, 00H
	DB	00H						; `string'
CONST	ENDS
;	COMDAT ??_C@_1CE@GBNPOKPK@?$AAi?$AA?$DO?$AA?9?$AA1?$AA?5?$AA?$CG?$AA?$CG?$AA?5?$AAi?$AA?$DM?$AAn?$AAu?$AAm?$AAB?$AAi?$AAt?$AAs?$AA?$AA@
CONST	SEGMENT
??_C@_1CE@GBNPOKPK@?$AAi?$AA?$DO?$AA?9?$AA1?$AA?5?$AA?$CG?$AA?$CG?$AA?5?$AAi?$AA?$DM?$AAn?$AAu?$AAm?$AAB?$AAi?$AAt?$AAs?$AA?$AA@ DB 'i'
	DB	00H, '>', 00H, '-', 00H, '1', 00H, ' ', 00H, '&', 00H, '&', 00H
	DB	' ', 00H, 'i', 00H, '<', 00H, 'n', 00H, 'u', 00H, 'm', 00H, 'B'
	DB	00H, 'i', 00H, 't', 00H, 's', 00H, 00H, 00H	; `string'
CONST	ENDS
;	COMDAT ??_C@_1IK@POEJJLJB@?$AAc?$AA?3?$AA?2?$AAp?$AAr?$AAo?$AAg?$AAr?$AAa?$AAm?$AA?5?$AAf?$AAi?$AAl?$AAe?$AAs?$AA?2?$AAa?$AAu?$AAt?$AAo?$AAd?$AAe?$AAs?$AAk?$AA?2?$AA3?$AAd?$AAs?$AA?5?$AAm?$AAa@
CONST	SEGMENT
??_C@_1IK@POEJJLJB@?$AAc?$AA?3?$AA?2?$AAp?$AAr?$AAo?$AAg?$AAr?$AAa?$AAm?$AA?5?$AAf?$AAi?$AAl?$AAe?$AAs?$AA?2?$AAa?$AAu?$AAt?$AAo?$AAd?$AAe?$AAs?$AAk?$AA?2?$AA3?$AAd?$AAs?$AA?5?$AAm?$AAa@ DB 'c'
	DB	00H, ':', 00H, '\', 00H, 'p', 00H, 'r', 00H, 'o', 00H, 'g', 00H
	DB	'r', 00H, 'a', 00H, 'm', 00H, ' ', 00H, 'f', 00H, 'i', 00H, 'l'
	DB	00H, 'e', 00H, 's', 00H, '\', 00H, 'a', 00H, 'u', 00H, 't', 00H
	DB	'o', 00H, 'd', 00H, 'e', 00H, 's', 00H, 'k', 00H, '\', 00H, '3'
	DB	00H, 'd', 00H, 's', 00H, ' ', 00H, 'm', 00H, 'a', 00H, 'x', 00H
	DB	' ', 00H, '2', 00H, '0', 00H, '2', 00H, '0', 00H, ' ', 00H, 's'
	DB	00H, 'd', 00H, 'k', 00H, '\', 00H, 'm', 00H, 'a', 00H, 'x', 00H
	DB	's', 00H, 'd', 00H, 'k', 00H, '\', 00H, 'i', 00H, 'n', 00H, 'c'
	DB	00H, 'l', 00H, 'u', 00H, 'd', 00H, 'e', 00H, '\', 00H, 'b', 00H
	DB	'i', 00H, 't', 00H, 'a', 00H, 'r', 00H, 'r', 00H, 'a', 00H, 'y'
	DB	00H, '.', 00H, 'h', 00H, 00H, 00H		; `string'
CONST	ENDS
;	COMDAT ??_C@_1CI@HCOGDKGH@?$AAP?$AAo?$AAi?$AAn?$AAt?$AA3?$AA?3?$AA?3?$AAo?$AAp?$AAe?$AAr?$AAa?$AAt?$AAo?$AAr?$AA?5?$AA?1?$AA?$DN?$AA?$AA@
CONST	SEGMENT
??_C@_1CI@HCOGDKGH@?$AAP?$AAo?$AAi?$AAn?$AAt?$AA3?$AA?3?$AA?3?$AAo?$AAp?$AAe?$AAr?$AAa?$AAt?$AAo?$AAr?$AA?5?$AA?1?$AA?$DN?$AA?$AA@ DB 'P'
	DB	00H, 'o', 00H, 'i', 00H, 'n', 00H, 't', 00H, '3', 00H, ':', 00H
	DB	':', 00H, 'o', 00H, 'p', 00H, 'e', 00H, 'r', 00H, 'a', 00H, 't'
	DB	00H, 'o', 00H, 'r', 00H, ' ', 00H, '/', 00H, '=', 00H, 00H, 00H ; `string'
CONST	ENDS
;	COMDAT ??_C@_1IG@JJKCGENH@?$AAc?$AA?3?$AA?2?$AAp?$AAr?$AAo?$AAg?$AAr?$AAa?$AAm?$AA?5?$AAf?$AAi?$AAl?$AAe?$AAs?$AA?2?$AAa?$AAu?$AAt?$AAo?$AAd?$AAe?$AAs?$AAk?$AA?2?$AA3?$AAd?$AAs?$AA?5?$AAm?$AAa@
CONST	SEGMENT
??_C@_1IG@JJKCGENH@?$AAc?$AA?3?$AA?2?$AAp?$AAr?$AAo?$AAg?$AAr?$AAa?$AAm?$AA?5?$AAf?$AAi?$AAl?$AAe?$AAs?$AA?2?$AAa?$AAu?$AAt?$AAo?$AAd?$AAe?$AAs?$AAk?$AA?2?$AA3?$AAd?$AAs?$AA?5?$AAm?$AAa@ DB 'c'
	DB	00H, ':', 00H, '\', 00H, 'p', 00H, 'r', 00H, 'o', 00H, 'g', 00H
	DB	'r', 00H, 'a', 00H, 'm', 00H, ' ', 00H, 'f', 00H, 'i', 00H, 'l'
	DB	00H, 'e', 00H, 's', 00H, '\', 00H, 'a', 00H, 'u', 00H, 't', 00H
	DB	'o', 00H, 'd', 00H, 'e', 00H, 's', 00H, 'k', 00H, '\', 00H, '3'
	DB	00H, 'd', 00H, 's', 00H, ' ', 00H, 'm', 00H, 'a', 00H, 'x', 00H
	DB	' ', 00H, '2', 00H, '0', 00H, '2', 00H, '0', 00H, ' ', 00H, 's'
	DB	00H, 'd', 00H, 'k', 00H, '\', 00H, 'm', 00H, 'a', 00H, 'x', 00H
	DB	's', 00H, 'd', 00H, 'k', 00H, '\', 00H, 'i', 00H, 'n', 00H, 'c'
	DB	00H, 'l', 00H, 'u', 00H, 'd', 00H, 'e', 00H, '\', 00H, 'p', 00H
	DB	'o', 00H, 'i', 00H, 'n', 00H, 't', 00H, '3', 00H, '.', 00H, 'h'
	DB	00H, 00H, 00H				; `string'
CONST	ENDS
;	COMDAT ??_C@_1IA@EDMIGCEG@?$AAc?$AA?3?$AA?2?$AAp?$AAr?$AAo?$AAg?$AAr?$AAa?$AAm?$AA?5?$AAf?$AAi?$AAl?$AAe?$AAs?$AA?2?$AAa?$AAu?$AAt?$AAo?$AAd?$AAe?$AAs?$AAk?$AA?2?$AA3?$AAd?$AAs?$AA?5?$AAm?$AAa@
CONST	SEGMENT
??_C@_1IA@EDMIGCEG@?$AAc?$AA?3?$AA?2?$AAp?$AAr?$AAo?$AAg?$AAr?$AAa?$AAm?$AA?5?$AAf?$AAi?$AAl?$AAe?$AAs?$AA?2?$AAa?$AAu?$AAt?$AAo?$AAd?$AAe?$AAs?$AAk?$AA?2?$AA3?$AAd?$AAs?$AA?5?$AAm?$AAa@ DB 'c'
	DB	00H, ':', 00H, '\', 00H, 'p', 00H, 'r', 00H, 'o', 00H, 'g', 00H
	DB	'r', 00H, 'a', 00H, 'm', 00H, ' ', 00H, 'f', 00H, 'i', 00H, 'l'
	DB	00H, 'e', 00H, 's', 00H, '\', 00H, 'a', 00H, 'u', 00H, 't', 00H
	DB	'o', 00H, 'd', 00H, 'e', 00H, 's', 00H, 'k', 00H, '\', 00H, '3'
	DB	00H, 'd', 00H, 's', 00H, ' ', 00H, 'm', 00H, 'a', 00H, 'x', 00H
	DB	' ', 00H, '2', 00H, '0', 00H, '2', 00H, '0', 00H, ' ', 00H, 's'
	DB	00H, 'd', 00H, 'k', 00H, '\', 00H, 'm', 00H, 'a', 00H, 'x', 00H
	DB	's', 00H, 'd', 00H, 'k', 00H, '\', 00H, 'i', 00H, 'n', 00H, 'c'
	DB	00H, 'l', 00H, 'u', 00H, 'd', 00H, 'e', 00H, '\', 00H, 'r', 00H
	DB	'e', 00H, 'f', 00H, '.', 00H, 'h', 00H, 00H, 00H ; `string'
CONST	ENDS
;	COMDAT ??_C@_1EC@POJFJEHG@?$AAR?$AAe?$AAf?$AAe?$AAr?$AAe?$AAn?$AAc?$AAe?$AAM?$AAa?$AAk?$AAe?$AAr?$AA?3?$AA?3?$AAN?$AAo?$AAt?$AAi?$AAf?$AAy?$AAD?$AAe?$AAp?$AAe?$AAn?$AAd?$AAe?$AAn?$AAt?$AAs@
CONST	SEGMENT
??_C@_1EC@POJFJEHG@?$AAR?$AAe?$AAf?$AAe?$AAr?$AAe?$AAn?$AAc?$AAe?$AAM?$AAa?$AAk?$AAe?$AAr?$AA?3?$AA?3?$AAN?$AAo?$AAt?$AAi?$AAf?$AAy?$AAD?$AAe?$AAp?$AAe?$AAn?$AAd?$AAe?$AAn?$AAt?$AAs@ DB 'R'
	DB	00H, 'e', 00H, 'f', 00H, 'e', 00H, 'r', 00H, 'e', 00H, 'n', 00H
	DB	'c', 00H, 'e', 00H, 'M', 00H, 'a', 00H, 'k', 00H, 'e', 00H, 'r'
	DB	00H, ':', 00H, ':', 00H, 'N', 00H, 'o', 00H, 't', 00H, 'i', 00H
	DB	'f', 00H, 'y', 00H, 'D', 00H, 'e', 00H, 'p', 00H, 'e', 00H, 'n'
	DB	00H, 'd', 00H, 'e', 00H, 'n', 00H, 't', 00H, 's', 00H, 00H, 00H ; `string'
CONST	ENDS
;	COMDAT ??_C@_1M@HLGKFCJM@?$AAf?$AAa?$AAl?$AAs?$AAe?$AA?$AA@
CONST	SEGMENT
??_C@_1M@HLGKFCJM@?$AAf?$AAa?$AAl?$AAs?$AAe?$AA?$AA@ DB 'f', 00H, 'a', 00H
	DB	'l', 00H, 's', 00H, 'e', 00H, 00H, 00H	; `string'
CONST	ENDS
;	COMDAT ??_C@_1IO@OMAAFOOI@?$AAc?$AA?3?$AA?2?$AAp?$AAr?$AAo?$AAg?$AAr?$AAa?$AAm?$AA?5?$AAf?$AAi?$AAl?$AAe?$AAs?$AA?2?$AAa?$AAu?$AAt?$AAo?$AAd?$AAe?$AAs?$AAk?$AA?2?$AA3?$AAd?$AAs?$AA?5?$AAm?$AAa@
CONST	SEGMENT
??_C@_1IO@OMAAFOOI@?$AAc?$AA?3?$AA?2?$AAp?$AAr?$AAo?$AAg?$AAr?$AAa?$AAm?$AA?5?$AAf?$AAi?$AAl?$AAe?$AAs?$AA?2?$AAa?$AAu?$AAt?$AAo?$AAd?$AAe?$AAs?$AAk?$AA?2?$AA3?$AAd?$AAs?$AA?5?$AAm?$AAa@ DB 'c'
	DB	00H, ':', 00H, '\', 00H, 'p', 00H, 'r', 00H, 'o', 00H, 'g', 00H
	DB	'r', 00H, 'a', 00H, 'm', 00H, ' ', 00H, 'f', 00H, 'i', 00H, 'l'
	DB	00H, 'e', 00H, 's', 00H, '\', 00H, 'a', 00H, 'u', 00H, 't', 00H
	DB	'o', 00H, 'd', 00H, 'e', 00H, 's', 00H, 'k', 00H, '\', 00H, '3'
	DB	00H, 'd', 00H, 's', 00H, ' ', 00H, 'm', 00H, 'a', 00H, 'x', 00H
	DB	' ', 00H, '2', 00H, '0', 00H, '2', 00H, '0', 00H, ' ', 00H, 's'
	DB	00H, 'd', 00H, 'k', 00H, '\', 00H, 'm', 00H, 'a', 00H, 'x', 00H
	DB	's', 00H, 'd', 00H, 'k', 00H, '\', 00H, 'i', 00H, 'n', 00H, 'c'
	DB	00H, 'l', 00H, 'u', 00H, 'd', 00H, 'e', 00H, '\', 00H, 'a', 00H
	DB	'n', 00H, 'i', 00H, 'm', 00H, 'a', 00H, 't', 00H, 'a', 00H, 'b'
	DB	00H, 'l', 00H, 'e', 00H, '.', 00H, 'h', 00H, 00H, 00H ; `string'
CONST	ENDS
;	COMDAT ??_C@_1CM@HBLCKHLG@?$AAA?$AAn?$AAi?$AAm?$AAa?$AAt?$AAa?$AAb?$AAl?$AAe?$AA?3?$AA?3?$AAE?$AAd?$AAi?$AAt?$AAT?$AAr?$AAa?$AAc?$AAk?$AA?$AA@
CONST	SEGMENT
??_C@_1CM@HBLCKHLG@?$AAA?$AAn?$AAi?$AAm?$AAa?$AAt?$AAa?$AAb?$AAl?$AAe?$AA?3?$AA?3?$AAE?$AAd?$AAi?$AAt?$AAT?$AAr?$AAa?$AAc?$AAk?$AA?$AA@ DB 'A'
	DB	00H, 'n', 00H, 'i', 00H, 'm', 00H, 'a', 00H, 't', 00H, 'a', 00H
	DB	'b', 00H, 'l', 00H, 'e', 00H, ':', 00H, ':', 00H, 'E', 00H, 'd'
	DB	00H, 'i', 00H, 't', 00H, 'T', 00H, 'r', 00H, 'a', 00H, 'c', 00H
	DB	'k', 00H, 00H, 00H				; `string'
CONST	ENDS
;	COMDAT ??_C@_13COJANIEC@?$AA0?$AA?$AA@
CONST	SEGMENT
??_C@_13COJANIEC@?$AA0?$AA?$AA@ DB '0', 00H, 00H, 00H	; `string'
CONST	ENDS
;	COMDAT ??_C@_1BE@CFDJOJFP@?$AAf?$AA?5?$AA?$CB?$AA?$DN?$AA?5?$AA0?$AA?4?$AA0?$AAf?$AA?$AA@
CONST	SEGMENT
??_C@_1BE@CFDJOJFP@?$AAf?$AA?5?$AA?$CB?$AA?$DN?$AA?5?$AA0?$AA?4?$AA0?$AAf?$AA?$AA@ DB 'f'
	DB	00H, ' ', 00H, '!', 00H, '=', 00H, ' ', 00H, '0', 00H, '.', 00H
	DB	'0', 00H, 'f', 00H, 00H, 00H			; `string'
CONST	ENDS
;	COMDAT ??_C@_11LOCGONAA@?$AA?$AA@
CONST	SEGMENT
??_C@_11LOCGONAA@?$AA?$AA@ DB 00H, 00H			; `string'
CONST	ENDS
;	COMDAT xdata
xdata	SEGMENT
$ip2state$??_GBerconWoodDlgProc@@UEAAPEAXI@Z DD imagerel ??_GBerconWoodDlgProc@@UEAAPEAXI@Z
	DD	0ffffffffH
xdata	ENDS
;	COMDAT xdata
xdata	SEGMENT
$stateUnwindMap$??_GBerconWoodDlgProc@@UEAAPEAXI@Z DD 0ffffffffH
	DD	imagerel ?dtor$0@?0???_GBerconWoodDlgProc@@UEAAPEAXI@Z@4HA
xdata	ENDS
;	COMDAT CONST
CONST	SEGMENT
$cppxdata$??_GBerconWoodDlgProc@@UEAAPEAXI@Z DD 019930522H
	DD	01H
	DD	imagerel $stateUnwindMap$??_GBerconWoodDlgProc@@UEAAPEAXI@Z
	DD	00H
	DD	00H
	DD	01H
	DD	imagerel $ip2state$??_GBerconWoodDlgProc@@UEAAPEAXI@Z
	DD	020H
	DD	00H
	DD	04H
CONST	ENDS
;	COMDAT xdata
xdata	SEGMENT
$unwind$??_GBerconWoodDlgProc@@UEAAPEAXI@Z DD 021311H
	DD	03006520aH
	DD	imagerel __CxxFrameHandler3
	DD	imagerel $cppxdata$??_GBerconWoodDlgProc@@UEAAPEAXI@Z
xdata	ENDS
;	COMDAT xdata
xdata	SEGMENT
$ip2state$??1BerconWoodDlgProc@@UEAA@XZ DD imagerel ??1BerconWoodDlgProc@@UEAA@XZ
	DD	0ffffffffH
xdata	ENDS
;	COMDAT xdata
xdata	SEGMENT
$stateUnwindMap$??1BerconWoodDlgProc@@UEAA@XZ DD 0ffffffffH
	DD	imagerel ?dtor$0@?0???1BerconWoodDlgProc@@UEAA@XZ@4HA
xdata	ENDS
;	COMDAT CONST
CONST	SEGMENT
$cppxdata$??1BerconWoodDlgProc@@UEAA@XZ DD 019930522H
	DD	01H
	DD	imagerel $stateUnwindMap$??1BerconWoodDlgProc@@UEAA@XZ
	DD	00H
	DD	00H
	DD	01H
	DD	imagerel $ip2state$??1BerconWoodDlgProc@@UEAA@XZ
	DD	00H
	DD	00H
	DD	04H
CONST	ENDS
;	COMDAT xdata
xdata	SEGMENT
$unwind$??1BerconWoodDlgProc@@UEAA@XZ DD 011111H
	DD	02209H
	DD	imagerel __CxxFrameHandler3
	DD	imagerel $cppxdata$??1BerconWoodDlgProc@@UEAA@XZ
xdata	ENDS
;	COMDAT xdata
xdata	SEGMENT
$unwind$?DlgProc@BerconWoodDlgProc@@UEAA_JHPEAVIParamMap2@@PEAUHWND__@@I_K_J@Z DD 081401H
	DD	0c6414H
	DD	0b5414H
	DD	0a3414H
	DD	070107214H
xdata	ENDS
;	COMDAT xdata
xdata	SEGMENT
$ip2state$??0BerconWoodDlgProc@@QEAA@PEAVBerconWood@@@Z DD imagerel ??0BerconWoodDlgProc@@QEAA@PEAVBerconWood@@@Z
	DD	0ffffffffH
	DD	imagerel ??0BerconWoodDlgProc@@QEAA@PEAVBerconWood@@@Z+27
	DD	00H
	DD	imagerel ??0BerconWoodDlgProc@@QEAA@PEAVBerconWood@@@Z+41
	DD	0ffffffffH
xdata	ENDS
;	COMDAT xdata
xdata	SEGMENT
$stateUnwindMap$??0BerconWoodDlgProc@@QEAA@PEAVBerconWood@@@Z DD 0ffffffffH
	DD	imagerel ?dtor$0@?0???0BerconWoodDlgProc@@QEAA@PEAVBerconWood@@@Z@4HA
xdata	ENDS
;	COMDAT CONST
CONST	SEGMENT
$cppxdata$??0BerconWoodDlgProc@@QEAA@PEAVBerconWood@@@Z DD 019930522H
	DD	01H
	DD	imagerel $stateUnwindMap$??0BerconWoodDlgProc@@QEAA@PEAVBerconWood@@@Z
	DD	00H
	DD	00H
	DD	03H
	DD	imagerel $ip2state$??0BerconWoodDlgProc@@QEAA@PEAVBerconWood@@@Z
	DD	00H
	DD	00H
	DD	00H
CONST	ENDS
;	COMDAT xdata
xdata	SEGMENT
$unwind$??0BerconWoodDlgProc@@QEAA@PEAVBerconWood@@@Z DD 011111H
	DD	02209H
	DD	imagerel __CxxFrameHandler3
	DD	imagerel $cppxdata$??0BerconWoodDlgProc@@QEAA@PEAVBerconWood@@@Z
xdata	ENDS
;	COMDAT xdata
xdata	SEGMENT
$unwind$??__EBerconMap_param_blk@@YAXXZ DD 020a01H
	DD	018f010aH
xdata	ENDS
;	COMDAT xdata
xdata	SEGMENT
$unwind$??__EBerconWood_param_blk@@YAXXZ DD 04d201H
	DD	010368d2H
	DD	0209010dH
xdata	ENDS
;	COMDAT xdata
xdata	SEGMENT
$ip2state$??__Fxyz_blk@@YAXXZ DD imagerel ??__Fxyz_blk@@YAXXZ
	DD	0ffffffffH
xdata	ENDS
;	COMDAT xdata
xdata	SEGMENT
$stateUnwindMap$??__Fxyz_blk@@YAXXZ DD 0ffffffffH
	DD	imagerel ?dtor$0@?0???__Fxyz_blk@@YAXXZ@4HA
xdata	ENDS
;	COMDAT CONST
CONST	SEGMENT
$cppxdata$??__Fxyz_blk@@YAXXZ DD 019930522H
	DD	01H
	DD	imagerel $stateUnwindMap$??__Fxyz_blk@@YAXXZ
	DD	00H
	DD	00H
	DD	01H
	DD	imagerel $ip2state$??__Fxyz_blk@@YAXXZ
	DD	020H
	DD	00H
	DD	00H
CONST	ENDS
;	COMDAT xdata
xdata	SEGMENT
$unwind$??__Fxyz_blk@@YAXXZ DD 010d11H
	DD	06204H
	DD	imagerel __CxxFrameHandler3
	DD	imagerel $cppxdata$??__Fxyz_blk@@YAXXZ
xdata	ENDS
;	COMDAT xdata
xdata	SEGMENT
$unwind$??__Exyz_blk@@YAXXZ DD 010401H
	DD	0a204H
xdata	ENDS
;	COMDAT xdata
xdata	SEGMENT
$ip2state$??__FBerconWoodDesc@@YAXXZ DD imagerel ??__FBerconWoodDesc@@YAXXZ
	DD	0ffffffffH
xdata	ENDS
;	COMDAT xdata
xdata	SEGMENT
$stateUnwindMap$??__FBerconWoodDesc@@YAXXZ DD 0ffffffffH
	DD	imagerel ?dtor$0@?0???__FBerconWoodDesc@@YAXXZ@4HA
xdata	ENDS
;	COMDAT CONST
CONST	SEGMENT
$cppxdata$??__FBerconWoodDesc@@YAXXZ DD 019930522H
	DD	01H
	DD	imagerel $stateUnwindMap$??__FBerconWoodDesc@@YAXXZ
	DD	00H
	DD	00H
	DD	01H
	DD	imagerel $ip2state$??__FBerconWoodDesc@@YAXXZ
	DD	020H
	DD	00H
	DD	00H
CONST	ENDS
;	COMDAT xdata
xdata	SEGMENT
$unwind$??__FBerconWoodDesc@@YAXXZ DD 010d11H
	DD	06204H
	DD	imagerel __CxxFrameHandler3
	DD	imagerel $cppxdata$??__FBerconWoodDesc@@YAXXZ
xdata	ENDS
;	COMDAT xdata
xdata	SEGMENT
$ip2state$??__EBerconWoodDesc@@YAXXZ DD imagerel ??__EBerconWoodDesc@@YAXXZ
	DD	0ffffffffH
	DD	imagerel ??__EBerconWoodDesc@@YAXXZ+27
	DD	00H
	DD	imagerel ??__EBerconWoodDesc@@YAXXZ+41
	DD	0ffffffffH
xdata	ENDS
;	COMDAT xdata
xdata	SEGMENT
$stateUnwindMap$??__EBerconWoodDesc@@YAXXZ DD 0ffffffffH
	DD	imagerel ?dtor$0@?0???__EBerconWoodDesc@@YAXXZ@4HA
xdata	ENDS
;	COMDAT CONST
CONST	SEGMENT
$cppxdata$??__EBerconWoodDesc@@YAXXZ DD 019930522H
	DD	01H
	DD	imagerel $stateUnwindMap$??__EBerconWoodDesc@@YAXXZ
	DD	00H
	DD	00H
	DD	03H
	DD	imagerel $ip2state$??__EBerconWoodDesc@@YAXXZ
	DD	020H
	DD	00H
	DD	00H
CONST	ENDS
;	COMDAT xdata
xdata	SEGMENT
$unwind$??__EBerconWoodDesc@@YAXXZ DD 010d11H
	DD	06204H
	DD	imagerel __CxxFrameHandler3
	DD	imagerel $cppxdata$??__EBerconWoodDesc@@YAXXZ
xdata	ENDS
;	COMDAT xdata
xdata	SEGMENT
$ip2state$??_GBerconWoodClassDesc@@UEAAPEAXI@Z DD imagerel ??_GBerconWoodClassDesc@@UEAAPEAXI@Z
	DD	0ffffffffH
xdata	ENDS
;	COMDAT xdata
xdata	SEGMENT
$stateUnwindMap$??_GBerconWoodClassDesc@@UEAAPEAXI@Z DD 0ffffffffH
	DD	imagerel ?dtor$0@?0???_GBerconWoodClassDesc@@UEAAPEAXI@Z@4HA
xdata	ENDS
;	COMDAT CONST
CONST	SEGMENT
$cppxdata$??_GBerconWoodClassDesc@@UEAAPEAXI@Z DD 019930522H
	DD	01H
	DD	imagerel $stateUnwindMap$??_GBerconWoodClassDesc@@UEAAPEAXI@Z
	DD	00H
	DD	00H
	DD	01H
	DD	imagerel $ip2state$??_GBerconWoodClassDesc@@UEAAPEAXI@Z
	DD	020H
	DD	00H
	DD	04H
CONST	ENDS
;	COMDAT xdata
xdata	SEGMENT
$unwind$??_GBerconWoodClassDesc@@UEAAPEAXI@Z DD 041811H
	DD	093418H
	DD	07006520aH
	DD	imagerel __CxxFrameHandler3
	DD	imagerel $cppxdata$??_GBerconWoodClassDesc@@UEAAPEAXI@Z
xdata	ENDS
;	COMDAT xdata
xdata	SEGMENT
$ip2state$??1BerconWoodClassDesc@@UEAA@XZ DD imagerel ??1BerconWoodClassDesc@@UEAA@XZ
	DD	0ffffffffH
xdata	ENDS
;	COMDAT xdata
xdata	SEGMENT
$stateUnwindMap$??1BerconWoodClassDesc@@UEAA@XZ DD 0ffffffffH
	DD	imagerel ?dtor$0@?0???1BerconWoodClassDesc@@UEAA@XZ@4HA
xdata	ENDS
;	COMDAT CONST
CONST	SEGMENT
$cppxdata$??1BerconWoodClassDesc@@UEAA@XZ DD 019930522H
	DD	01H
	DD	imagerel $stateUnwindMap$??1BerconWoodClassDesc@@UEAA@XZ
	DD	00H
	DD	00H
	DD	01H
	DD	imagerel $ip2state$??1BerconWoodClassDesc@@UEAA@XZ
	DD	020H
	DD	00H
	DD	04H
CONST	ENDS
;	COMDAT xdata
xdata	SEGMENT
$unwind$??1BerconWoodClassDesc@@UEAA@XZ DD 011211H
	DD	06209H
	DD	imagerel __CxxFrameHandler3
	DD	imagerel $cppxdata$??1BerconWoodClassDesc@@UEAA@XZ
xdata	ENDS
;	COMDAT xdata
xdata	SEGMENT
$ip2state$??0BerconWoodClassDesc@@QEAA@XZ DD imagerel ??0BerconWoodClassDesc@@QEAA@XZ
	DD	0ffffffffH
	DD	imagerel ??0BerconWoodClassDesc@@QEAA@XZ+29
	DD	00H
	DD	imagerel ??0BerconWoodClassDesc@@QEAA@XZ+39
	DD	0ffffffffH
xdata	ENDS
;	COMDAT xdata
xdata	SEGMENT
$stateUnwindMap$??0BerconWoodClassDesc@@QEAA@XZ DD 0ffffffffH
	DD	imagerel ?dtor$0@?0???0BerconWoodClassDesc@@QEAA@XZ@4HA
xdata	ENDS
;	COMDAT CONST
CONST	SEGMENT
$cppxdata$??0BerconWoodClassDesc@@QEAA@XZ DD 019930522H
	DD	01H
	DD	imagerel $stateUnwindMap$??0BerconWoodClassDesc@@QEAA@XZ
	DD	00H
	DD	00H
	DD	03H
	DD	imagerel $ip2state$??0BerconWoodClassDesc@@QEAA@XZ
	DD	020H
	DD	00H
	DD	00H
CONST	ENDS
;	COMDAT xdata
xdata	SEGMENT
$unwind$??0BerconWoodClassDesc@@QEAA@XZ DD 021311H
	DD	03006520aH
	DD	imagerel __CxxFrameHandler3
	DD	imagerel $cppxdata$??0BerconWoodClassDesc@@QEAA@XZ
xdata	ENDS
;	COMDAT xdata
xdata	SEGMENT
$ip2state$?Create@BerconWoodClassDesc@@UEAAPEAXH@Z DD imagerel ?Create@BerconWoodClassDesc@@UEAAPEAXH@Z
	DD	0ffffffffH
	DD	imagerel ?Create@BerconWoodClassDesc@@UEAAPEAXH@Z+29
	DD	00H
	DD	imagerel ?Create@BerconWoodClassDesc@@UEAAPEAXH@Z+43
	DD	0ffffffffH
xdata	ENDS
;	COMDAT xdata
xdata	SEGMENT
$stateUnwindMap$?Create@BerconWoodClassDesc@@UEAAPEAXH@Z DD 0ffffffffH
	DD	imagerel ?dtor$0@?0??Create@BerconWoodClassDesc@@UEAAPEAXH@Z@4HA
xdata	ENDS
;	COMDAT CONST
CONST	SEGMENT
$cppxdata$?Create@BerconWoodClassDesc@@UEAAPEAXH@Z DD 019930522H
	DD	01H
	DD	imagerel $stateUnwindMap$?Create@BerconWoodClassDesc@@UEAAPEAXH@Z
	DD	00H
	DD	00H
	DD	03H
	DD	imagerel $ip2state$?Create@BerconWoodClassDesc@@UEAAPEAXH@Z
	DD	020H
	DD	00H
	DD	00H
CONST	ENDS
;	COMDAT xdata
xdata	SEGMENT
$unwind$?Create@BerconWoodClassDesc@@UEAAPEAXH@Z DD 010d11H
	DD	06204H
	DD	imagerel __CxxFrameHandler3
	DD	imagerel $cppxdata$?Create@BerconWoodClassDesc@@UEAAPEAXH@Z
xdata	ENDS
;	COMDAT xdata
xdata	SEGMENT
$unwind$??_GBerconWood@@UEAAPEAXI@Z DD 040a01H
	DD	06340aH
	DD	07006320aH
xdata	ENDS
;	COMDAT xdata
xdata	SEGMENT
$ip2state$??1BerconWood@@UEAA@XZ DD imagerel ??1BerconWood@@UEAA@XZ
	DD	0ffffffffH
	DD	imagerel ??1BerconWood@@UEAA@XZ+57
	DD	00H
	DD	imagerel ??1BerconWood@@UEAA@XZ+87
	DD	0ffffffffH
xdata	ENDS
;	COMDAT xdata
xdata	SEGMENT
$stateUnwindMap$??1BerconWood@@UEAA@XZ DD 0ffffffffH
	DD	imagerel ?dtor$0@?0???1BerconWood@@UEAA@XZ@4HA
	DD	0ffffffffH
	DD	imagerel ?dtor$1@?0???1BerconWood@@UEAA@XZ@4HA
xdata	ENDS
;	COMDAT CONST
CONST	SEGMENT
$cppxdata$??1BerconWood@@UEAA@XZ DD 019930522H
	DD	02H
	DD	imagerel $stateUnwindMap$??1BerconWood@@UEAA@XZ
	DD	00H
	DD	00H
	DD	03H
	DD	imagerel $ip2state$??1BerconWood@@UEAA@XZ
	DD	020H
	DD	00H
	DD	04H
CONST	ENDS
;	COMDAT xdata
xdata	SEGMENT
$unwind$??1BerconWood@@UEAA@XZ DD 021319H
	DD	03006520aH
	DD	imagerel __CxxFrameHandler3
	DD	imagerel $cppxdata$??1BerconWood@@UEAA@XZ
xdata	ENDS
;	COMDAT xdata
xdata	SEGMENT
$ip2state$??0BerconWood@@QEAA@XZ DD imagerel ??0BerconWood@@QEAA@XZ
	DD	0ffffffffH
	DD	imagerel ??0BerconWood@@QEAA@XZ+34
	DD	00H
	DD	imagerel ??0BerconWood@@QEAA@XZ+264
	DD	0ffffffffH
xdata	ENDS
;	COMDAT xdata
xdata	SEGMENT
$stateUnwindMap$??0BerconWood@@QEAA@XZ DD 0ffffffffH
	DD	imagerel ?dtor$0@?0???0BerconWood@@QEAA@XZ@4HA
xdata	ENDS
;	COMDAT CONST
CONST	SEGMENT
$cppxdata$??0BerconWood@@QEAA@XZ DD 019930522H
	DD	01H
	DD	imagerel $stateUnwindMap$??0BerconWood@@QEAA@XZ
	DD	00H
	DD	00H
	DD	03H
	DD	imagerel $ip2state$??0BerconWood@@QEAA@XZ
	DD	020H
	DD	00H
	DD	00H
CONST	ENDS
;	COMDAT xdata
xdata	SEGMENT
$unwind$??0BerconWood@@QEAA@XZ DD 041811H
	DD	093418H
	DD	07006520aH
	DD	imagerel __CxxFrameHandler3
	DD	imagerel $cppxdata$??0BerconWood@@QEAA@XZ
xdata	ENDS
;	COMDAT xdata
xdata	SEGMENT
$unwind$?GetParamBlockByID@BerconWood@@UEAAPEAVIParamBlock2@@F@Z DD 040a01H
	DD	06340aH
	DD	07006320aH
xdata	ENDS
;	COMDAT xdata
xdata	SEGMENT
$unwind$?dtor$0@?0??SubAnimName@BerconWood@@UEAA?AVWStr@@H@Z@4HA DD 020601H
	DD	050023206H
xdata	ENDS
;	COMDAT xdata
xdata	SEGMENT
$ip2state$?SubAnimName@BerconWood@@UEAA?AVWStr@@H@Z DD imagerel ?SubAnimName@BerconWood@@UEAA?AVWStr@@H@Z
	DD	0ffffffffH
	DD	imagerel ?SubAnimName@BerconWood@@UEAA?AVWStr@@H@Z+65
	DD	00H
	DD	imagerel ?SubAnimName@BerconWood@@UEAA?AVWStr@@H@Z+68
	DD	0ffffffffH
	DD	imagerel ?SubAnimName@BerconWood@@UEAA?AVWStr@@H@Z+162
	DD	00H
xdata	ENDS
;	COMDAT xdata
xdata	SEGMENT
$stateUnwindMap$?SubAnimName@BerconWood@@UEAA?AVWStr@@H@Z DD 0ffffffffH
	DD	imagerel ?dtor$0@?0??SubAnimName@BerconWood@@UEAA?AVWStr@@H@Z@4HA
xdata	ENDS
;	COMDAT CONST
CONST	SEGMENT
$cppxdata$?SubAnimName@BerconWood@@UEAA?AVWStr@@H@Z DD 019930522H
	DD	01H
	DD	imagerel $stateUnwindMap$?SubAnimName@BerconWood@@UEAA?AVWStr@@H@Z
	DD	00H
	DD	00H
	DD	04H
	DD	imagerel $ip2state$?SubAnimName@BerconWood@@UEAA?AVWStr@@H@Z
	DD	028H
	DD	00H
	DD	00H
CONST	ENDS
;	COMDAT xdata
xdata	SEGMENT
$unwind$?SubAnimName@BerconWood@@UEAA?AVWStr@@H@Z DD 021311H
	DD	03006520aH
	DD	imagerel __CxxFrameHandler3
	DD	imagerel $cppxdata$?SubAnimName@BerconWood@@UEAA?AVWStr@@H@Z
xdata	ENDS
;	COMDAT xdata
xdata	SEGMENT
$chain$3$?NotifyRefChanged@BerconWood@@UEAA?AW4RefResult@@AEBVInterval@@PEAVReferenceTarget@@AEA_KIH@Z DD 021H
	DD	imagerel $LN27
	DD	imagerel $LN27+47
	DD	imagerel $unwind$?NotifyRefChanged@BerconWood@@UEAA?AW4RefResult@@AEBVInterval@@PEAVReferenceTarget@@AEA_KIH@Z
xdata	ENDS
;	COMDAT xdata
xdata	SEGMENT
$chain$2$?NotifyRefChanged@BerconWood@@UEAA?AW4RefResult@@AEBVInterval@@PEAVReferenceTarget@@AEA_KIH@Z DD 020021H
	DD	063400H
	DD	imagerel $LN27
	DD	imagerel $LN27+47
	DD	imagerel $unwind$?NotifyRefChanged@BerconWood@@UEAA?AW4RefResult@@AEBVInterval@@PEAVReferenceTarget@@AEA_KIH@Z
xdata	ENDS
;	COMDAT xdata
xdata	SEGMENT
$chain$0$?NotifyRefChanged@BerconWood@@UEAA?AW4RefResult@@AEBVInterval@@PEAVReferenceTarget@@AEA_KIH@Z DD 020521H
	DD	063405H
	DD	imagerel $LN27
	DD	imagerel $LN27+47
	DD	imagerel $unwind$?NotifyRefChanged@BerconWood@@UEAA?AW4RefResult@@AEBVInterval@@PEAVReferenceTarget@@AEA_KIH@Z
xdata	ENDS
;	COMDAT xdata
xdata	SEGMENT
$unwind$?NotifyRefChanged@BerconWood@@UEAA?AW4RefResult@@AEBVInterval@@PEAVReferenceTarget@@AEA_KIH@Z DD 020601H
	DD	070023206H
xdata	ENDS
;	COMDAT xdata
xdata	SEGMENT
$ip2state$?Clone@BerconWood@@UEAAPEAVReferenceTarget@@AEAVRemapDir@@@Z DD imagerel ?Clone@BerconWood@@UEAAPEAVReferenceTarget@@AEAVRemapDir@@@Z
	DD	0ffffffffH
	DD	imagerel ?Clone@BerconWood@@UEAAPEAVReferenceTarget@@AEAVRemapDir@@@Z+54
	DD	00H
	DD	imagerel ?Clone@BerconWood@@UEAAPEAVReferenceTarget@@AEAVRemapDir@@@Z+78
	DD	0ffffffffH
xdata	ENDS
;	COMDAT xdata
xdata	SEGMENT
$stateUnwindMap$?Clone@BerconWood@@UEAAPEAVReferenceTarget@@AEAVRemapDir@@@Z DD 0ffffffffH
	DD	imagerel ?dtor$0@?0??Clone@BerconWood@@UEAAPEAVReferenceTarget@@AEAVRemapDir@@@Z@4HA
xdata	ENDS
;	COMDAT CONST
CONST	SEGMENT
$cppxdata$?Clone@BerconWood@@UEAAPEAVReferenceTarget@@AEAVRemapDir@@@Z DD 019930522H
	DD	01H
	DD	imagerel $stateUnwindMap$?Clone@BerconWood@@UEAAPEAVReferenceTarget@@AEAVRemapDir@@@Z
	DD	00H
	DD	00H
	DD	03H
	DD	imagerel $ip2state$?Clone@BerconWood@@UEAAPEAVReferenceTarget@@AEAVRemapDir@@@Z
	DD	020H
	DD	00H
	DD	00H
CONST	ENDS
;	COMDAT xdata
xdata	SEGMENT
$unwind$?Clone@BerconWood@@UEAAPEAVReferenceTarget@@AEAVRemapDir@@@Z DD 0a2011H
	DD	0e5420H
	DD	0d341bH
	DD	0f009520dH
	DD	0c005e007H
	DD	060027003H
	DD	imagerel __CxxFrameHandler3
	DD	imagerel $cppxdata$?Clone@BerconWood@@UEAAPEAVReferenceTarget@@AEAVRemapDir@@@Z
xdata	ENDS
;	COMDAT xdata
xdata	SEGMENT
$unwind$?GetClassName@BerconWood@@UEAAXAEAVWStr@@@Z DD 020601H
	DD	030023206H
xdata	ENDS
;	COMDAT xdata
xdata	SEGMENT
$chain$13$?EvalNormalPerturb@BerconWood@@UEAA?AVPoint3@@AEAVShadeContext@@@Z DD 021H
	DD	imagerel $LN192
	DD	imagerel $LN192+125
	DD	imagerel $unwind$?EvalNormalPerturb@BerconWood@@UEAA?AVPoint3@@AEAVShadeContext@@@Z
xdata	ENDS
;	COMDAT xdata
xdata	SEGMENT
$chain$12$?EvalNormalPerturb@BerconWood@@UEAA?AVPoint3@@AEAVShadeContext@@@Z DD 014f021H
	DD	01bf8f0H
	DD	01ce800H
	DD	01dd800H
	DD	01ec800H
	DD	01fb800H
	DD	020a800H
	DD	0219800H
	DD	0228800H
	DD	0246800H
	DD	051d400H
	DD	imagerel $LN192
	DD	imagerel $LN192+125
	DD	imagerel $unwind$?EvalNormalPerturb@BerconWood@@UEAA?AVPoint3@@AEAVShadeContext@@@Z
xdata	ENDS
;	COMDAT xdata
xdata	SEGMENT
$chain$10$?EvalNormalPerturb@BerconWood@@UEAA?AVPoint3@@AEAVShadeContext@@@Z DD 016b921H
	DD	01fb8b9H
	DD	01ec86aH
	DD	01ce84eH
	DD	01dd845H
	DD	020a83cH
	DD	0219833H
	DD	022882aH
	DD	0246821H
	DD	053f418H
	DD	051d410H
	DD	0503408H
	DD	imagerel $LN192
	DD	imagerel $LN192+125
	DD	imagerel $unwind$?EvalNormalPerturb@BerconWood@@UEAA?AVPoint3@@AEAVShadeContext@@@Z
xdata	ENDS
;	COMDAT xdata
xdata	SEGMENT
$unwind$?EvalNormalPerturb@BerconWood@@UEAA?AVPoint3@@AEAVShadeContext@@@Z DD 092801H
	DD	0237828H
	DD	04a0117H
	DD	0c006e008H
	DD	060037004H
	DD	05002H
xdata	ENDS
;	COMDAT xdata
xdata	SEGMENT
$unwind$?EvalMono@BerconWood@@UEAAMAEAVShadeContext@@@Z DD 010401H
	DD	06204H
xdata	ENDS
;	COMDAT xdata
xdata	SEGMENT
$chain$9$?EvalColor@BerconWood@@UEAA?AVAColor@@AEAVShadeContext@@@Z DD 021H
	DD	imagerel $LN116
	DD	imagerel $LN116+157
	DD	imagerel $unwind$?EvalColor@BerconWood@@UEAA?AVAColor@@AEAVShadeContext@@@Z
xdata	ENDS
;	COMDAT xdata
xdata	SEGMENT
$chain$8$?EvalColor@BerconWood@@UEAA?AVAColor@@AEAVShadeContext@@@Z DD 021H
	DD	imagerel $LN116+157
	DD	imagerel $LN116+239
	DD	imagerel $chain$6$?EvalColor@BerconWood@@UEAA?AVAColor@@AEAVShadeContext@@@Z
xdata	ENDS
;	COMDAT xdata
xdata	SEGMENT
$chain$7$?EvalColor@BerconWood@@UEAA?AVAColor@@AEAVShadeContext@@@Z DD 020921H
	DD	014e809H
	DD	imagerel $LN116+157
	DD	imagerel $LN116+239
	DD	imagerel $chain$6$?EvalColor@BerconWood@@UEAA?AVAColor@@AEAVShadeContext@@@Z
xdata	ENDS
;	COMDAT xdata
xdata	SEGMENT
$chain$6$?EvalColor@BerconWood@@UEAA?AVAColor@@AEAVShadeContext@@@Z DD 0e3f21H
	DD	015d83fH
	DD	017b836H
	DD	018a82dH
	DD	0199824H
	DD	01a881bH
	DD	01b7812H
	DD	01c6809H
	DD	imagerel $LN116
	DD	imagerel $LN116+157
	DD	imagerel $unwind$?EvalColor@BerconWood@@UEAA?AVAColor@@AEAVShadeContext@@@Z
xdata	ENDS
;	COMDAT xdata
xdata	SEGMENT
$unwind$?EvalColor@BerconWood@@UEAA?AVAColor@@AEAVShadeContext@@@Z DD 0b2b01H
	DD	016c82bH
	DD	03e741eH
	DD	03d641eH
	DD	03c341eH
	DD	03a011eH
	DD	05010H
xdata	ENDS
;	COMDAT xdata
xdata	SEGMENT
$unwind$?dtor$0@?0??GetSubTexmapSlotName@BerconWood@@UEAA?AVWStr@@H@Z@4HA DD 020601H
	DD	050023206H
xdata	ENDS
;	COMDAT xdata
xdata	SEGMENT
$ip2state$?GetSubTexmapSlotName@BerconWood@@UEAA?AVWStr@@H@Z DD imagerel ?GetSubTexmapSlotName@BerconWood@@UEAA?AVWStr@@H@Z
	DD	0ffffffffH
	DD	imagerel ?GetSubTexmapSlotName@BerconWood@@UEAA?AVWStr@@H@Z+66
	DD	00H
	DD	imagerel ?GetSubTexmapSlotName@BerconWood@@UEAA?AVWStr@@H@Z+68
	DD	0ffffffffH
	DD	imagerel ?GetSubTexmapSlotName@BerconWood@@UEAA?AVWStr@@H@Z+445
	DD	00H
xdata	ENDS
;	COMDAT xdata
xdata	SEGMENT
$stateUnwindMap$?GetSubTexmapSlotName@BerconWood@@UEAA?AVWStr@@H@Z DD 0ffffffffH
	DD	imagerel ?dtor$0@?0??GetSubTexmapSlotName@BerconWood@@UEAA?AVWStr@@H@Z@4HA
xdata	ENDS
;	COMDAT CONST
CONST	SEGMENT
$cppxdata$?GetSubTexmapSlotName@BerconWood@@UEAA?AVWStr@@H@Z DD 019930522H
	DD	01H
	DD	imagerel $stateUnwindMap$?GetSubTexmapSlotName@BerconWood@@UEAA?AVWStr@@H@Z
	DD	00H
	DD	00H
	DD	04H
	DD	imagerel $ip2state$?GetSubTexmapSlotName@BerconWood@@UEAA?AVWStr@@H@Z
	DD	028H
	DD	00H
	DD	00H
CONST	ENDS
;	COMDAT xdata
xdata	SEGMENT
$unwind$?GetSubTexmapSlotName@BerconWood@@UEAA?AVWStr@@H@Z DD 041a11H
	DD	08341aH
	DD	05006520dH
	DD	imagerel __CxxFrameHandler3
	DD	imagerel $cppxdata$?GetSubTexmapSlotName@BerconWood@@UEAA?AVWStr@@H@Z
xdata	ENDS
;	COMDAT xdata
xdata	SEGMENT
$unwind$?SetSubTexmap@BerconWood@@UEAAXHPEAVTexmap@@@Z DD 040a01H
	DD	06340aH
	DD	07006320aH
xdata	ENDS
;	COMDAT xdata
xdata	SEGMENT
$unwind$?Validity@BerconWood@@UEAA?AVInterval@@H@Z DD 040a01H
	DD	07340aH
	DD	07006320aH
xdata	ENDS
;	COMDAT xdata
xdata	SEGMENT
$unwind$?Reset@BerconWood@@UEAAXXZ DD 0c2301H
	DD	058823H
	DD	06681aH
	DD	0126414H
	DD	0115414H
	DD	0103414H
	DD	07010d214H
xdata	ENDS
;	COMDAT xdata
xdata	SEGMENT
$chain$8$?Update@BerconWood@@UEAAXHAEAVInterval@@@Z DD 021H
	DD	imagerel $LN35
	DD	imagerel $LN35+31
	DD	imagerel $unwind$?Update@BerconWood@@UEAAXHAEAVInterval@@@Z
xdata	ENDS
;	COMDAT xdata
xdata	SEGMENT
$chain$7$?Update@BerconWood@@UEAAXHAEAVInterval@@@Z DD 021H
	DD	imagerel $LN35+31
	DD	imagerel $LN35+60
	DD	imagerel $chain$0$?Update@BerconWood@@UEAAXHAEAVInterval@@@Z
xdata	ENDS
;	COMDAT xdata
xdata	SEGMENT
$chain$6$?Update@BerconWood@@UEAAXHAEAVInterval@@@Z DD 020021H
	DD	06f400H
	DD	imagerel $LN35+31
	DD	imagerel $LN35+60
	DD	imagerel $chain$0$?Update@BerconWood@@UEAAXHAEAVInterval@@@Z
xdata	ENDS
;	COMDAT xdata
xdata	SEGMENT
$chain$5$?Update@BerconWood@@UEAAXHAEAVInterval@@@Z DD 040021H
	DD	06f400H
	DD	0fd400H
	DD	imagerel $LN35+31
	DD	imagerel $LN35+60
	DD	imagerel $chain$0$?Update@BerconWood@@UEAAXHAEAVInterval@@@Z
xdata	ENDS
;	COMDAT xdata
xdata	SEGMENT
$chain$4$?Update@BerconWood@@UEAAXHAEAVInterval@@@Z DD 082821H
	DD	06f428H
	DD	07e423H
	DD	0fd40aH
	DD	0d3405H
	DD	imagerel $LN35+31
	DD	imagerel $LN35+60
	DD	imagerel $chain$0$?Update@BerconWood@@UEAAXHAEAVInterval@@@Z
xdata	ENDS
;	COMDAT xdata
xdata	SEGMENT
$chain$0$?Update@BerconWood@@UEAAXHAEAVInterval@@@Z DD 020521H
	DD	0e6405H
	DD	imagerel $LN35
	DD	imagerel $LN35+31
	DD	imagerel $unwind$?Update@BerconWood@@UEAAXHAEAVInterval@@@Z
xdata	ENDS
;	COMDAT xdata
xdata	SEGMENT
$unwind$?Update@BerconWood@@UEAAXHAEAVInterval@@@Z DD 040901H
	DD	0c0057209H
	DD	050027003H
xdata	ENDS
;	COMDAT xdata
xdata	SEGMENT
$unwind$?SetDlgThing@BerconWood@@UEAAHPEAVParamDlg@@@Z DD 010401H
	DD	04204H
xdata	ENDS
;	COMDAT xdata
xdata	SEGMENT
$ip2state$?CreateParamDlg@BerconWood@@UEAAPEAVParamDlg@@PEAUHWND__@@PEAVIMtlParams@@@Z DD imagerel ?CreateParamDlg@BerconWood@@UEAAPEAVParamDlg@@PEAUHWND__@@PEAVIMtlParams@@@Z
	DD	0ffffffffH
	DD	imagerel ?CreateParamDlg@BerconWood@@UEAAPEAVParamDlg@@PEAUHWND__@@PEAVIMtlParams@@@Z+117
	DD	00H
	DD	imagerel ?CreateParamDlg@BerconWood@@UEAAPEAVParamDlg@@PEAUHWND__@@PEAVIMtlParams@@@Z+132
	DD	01H
	DD	imagerel ?CreateParamDlg@BerconWood@@UEAAPEAVParamDlg@@PEAUHWND__@@PEAVIMtlParams@@@Z+146
	DD	0ffffffffH
	DD	imagerel ?CreateParamDlg@BerconWood@@UEAAPEAVParamDlg@@PEAUHWND__@@PEAVIMtlParams@@@Z+180
	DD	02H
	DD	imagerel ?CreateParamDlg@BerconWood@@UEAAPEAVParamDlg@@PEAUHWND__@@PEAVIMtlParams@@@Z+188
	DD	03H
	DD	imagerel ?CreateParamDlg@BerconWood@@UEAAPEAVParamDlg@@PEAUHWND__@@PEAVIMtlParams@@@Z+202
	DD	0ffffffffH
xdata	ENDS
;	COMDAT xdata
xdata	SEGMENT
$stateUnwindMap$?CreateParamDlg@BerconWood@@UEAAPEAVParamDlg@@PEAUHWND__@@PEAVIMtlParams@@@Z DD 0ffffffffH
	DD	imagerel ?dtor$0@?0??CreateParamDlg@BerconWood@@UEAAPEAVParamDlg@@PEAUHWND__@@PEAVIMtlParams@@@Z@4HA
	DD	00H
	DD	imagerel ?dtor$2@?0??CreateParamDlg@BerconWood@@UEAAPEAVParamDlg@@PEAUHWND__@@PEAVIMtlParams@@@Z@4HA
	DD	0ffffffffH
	DD	imagerel ?dtor$1@?0??CreateParamDlg@BerconWood@@UEAAPEAVParamDlg@@PEAUHWND__@@PEAVIMtlParams@@@Z@4HA
	DD	02H
	DD	imagerel ?dtor$3@?0??CreateParamDlg@BerconWood@@UEAAPEAVParamDlg@@PEAUHWND__@@PEAVIMtlParams@@@Z@4HA
xdata	ENDS
;	COMDAT CONST
CONST	SEGMENT
$cppxdata$?CreateParamDlg@BerconWood@@UEAAPEAVParamDlg@@PEAUHWND__@@PEAVIMtlParams@@@Z DD 019930522H
	DD	04H
	DD	imagerel $stateUnwindMap$?CreateParamDlg@BerconWood@@UEAAPEAVParamDlg@@PEAUHWND__@@PEAVIMtlParams@@@Z
	DD	00H
	DD	00H
	DD	07H
	DD	imagerel $ip2state$?CreateParamDlg@BerconWood@@UEAAPEAVParamDlg@@PEAUHWND__@@PEAVIMtlParams@@@Z
	DD	020H
	DD	00H
	DD	00H
CONST	ENDS
;	COMDAT xdata
xdata	SEGMENT
$unwind$?CreateParamDlg@BerconWood@@UEAAPEAVParamDlg@@PEAUHWND__@@PEAVIMtlParams@@@Z DD 081e11H
	DD	0b741eH
	DD	0a6419H
	DD	093414H
	DD	0e0025206H
	DD	imagerel __CxxFrameHandler3
	DD	imagerel $cppxdata$?CreateParamDlg@BerconWood@@UEAAPEAVParamDlg@@PEAUHWND__@@PEAVIMtlParams@@@Z
xdata	ENDS
;	COMDAT xdata
xdata	SEGMENT
$chain$1$?GetActiveTexHandle@BerconWood@@UEAA_KHAEAVTexHandleMaker@@@Z DD 021H
	DD	imagerel $LN10
	DD	imagerel $LN10+107
	DD	imagerel $unwind$?GetActiveTexHandle@BerconWood@@UEAA_KHAEAVTexHandleMaker@@@Z
xdata	ENDS
;	COMDAT xdata
xdata	SEGMENT
$chain$0$?GetActiveTexHandle@BerconWood@@UEAA_KHAEAVTexHandleMaker@@@Z DD 020521H
	DD	0a3405H
	DD	imagerel $LN10
	DD	imagerel $LN10+107
	DD	imagerel $unwind$?GetActiveTexHandle@BerconWood@@UEAA_KHAEAVTexHandleMaker@@@Z
xdata	ENDS
;	COMDAT xdata
xdata	SEGMENT
$unwind$?GetActiveTexHandle@BerconWood@@UEAA_KHAEAVTexHandleMaker@@@Z DD 081501H
	DD	0d7415H
	DD	0c6415H
	DD	0b5415H
	DD	0e0117215H
xdata	ENDS
;	COMDAT xdata
xdata	SEGMENT
$unwind$?ActivateTexDisplay@BerconWood@@UEAAXH@Z DD 020901H
	DD	030053209H
xdata	ENDS
;	COMDAT xdata
xdata	SEGMENT
$unwind$?DiscardTexHandle@BerconWood@@QEAAXXZ DD 020601H
	DD	030023206H
xdata	ENDS
;	COMDAT xdata
xdata	SEGMENT
$unwind$?NewCurveCreatedCallback@BerconWood@@UEAAXHPEAVICurveCtl@@@Z DD 040a01H
	DD	010340aH
	DD	07006d20aH
xdata	ENDS
;	COMDAT xdata
xdata	SEGMENT
$unwind$?ResetCallback@BerconWood@@UEAAXHPEAVICurveCtl@@@Z DD 060f01H
	DD	07640fH
	DD	06340fH
	DD	0700b320fH
xdata	ENDS
;	COMDAT xdata
xdata	SEGMENT
$unwind$?EvalParameters@BerconWood@@QEAA?AVWoodParam@@AEAVShadeContext@@@Z DD 060f01H
	DD	07640fH
	DD	06340fH
	DD	0700b320fH
xdata	ENDS
;	COMDAT xdata
xdata	SEGMENT
$chain$6$?EnableStuff@BerconWood@@QEAAXXZ DD 021H
	DD	imagerel $LN7
	DD	imagerel $LN7+30
	DD	imagerel $unwind$?EnableStuff@BerconWood@@QEAAXXZ
xdata	ENDS
;	COMDAT xdata
xdata	SEGMENT
$chain$5$?EnableStuff@BerconWood@@QEAAXXZ DD 021H
	DD	imagerel $LN7+30
	DD	imagerel $LN7+65
	DD	imagerel $chain$0$?EnableStuff@BerconWood@@QEAAXXZ
xdata	ENDS
;	COMDAT xdata
xdata	SEGMENT
$chain$4$?EnableStuff@BerconWood@@QEAAXXZ DD 082221H
	DD	07e422H
	DD	0d7415H
	DD	0c6410H
	DD	0b3405H
	DD	imagerel $LN7+30
	DD	imagerel $LN7+65
	DD	imagerel $chain$0$?EnableStuff@BerconWood@@QEAAXXZ
xdata	ENDS
;	COMDAT xdata
xdata	SEGMENT
$chain$0$?EnableStuff@BerconWood@@QEAAXXZ DD 020521H
	DD	06f405H
	DD	imagerel $LN7
	DD	imagerel $LN7+30
	DD	imagerel $unwind$?EnableStuff@BerconWood@@QEAAXXZ
xdata	ENDS
;	COMDAT xdata
xdata	SEGMENT
$unwind$?EnableStuff@BerconWood@@QEAAXXZ DD 020601H
	DD	050027206H
xdata	ENDS
;	COMDAT xdata
xdata	SEGMENT
$chain$4$?applyDistortion@BerconWood@@QEAAXAEAVShadeContext@@AEAVPoint3@@@Z DD 021H
	DD	imagerel $LN25
	DD	imagerel $LN25+59
	DD	imagerel $unwind$?applyDistortion@BerconWood@@QEAAXAEAVShadeContext@@AEAVPoint3@@@Z
xdata	ENDS
;	COMDAT xdata
xdata	SEGMENT
$chain$3$?applyDistortion@BerconWood@@QEAAXAEAVShadeContext@@AEAVPoint3@@@Z DD 021H
	DD	imagerel $LN25+59
	DD	imagerel $LN25+75
	DD	imagerel $chain$0$?applyDistortion@BerconWood@@QEAAXAEAVShadeContext@@AEAVPoint3@@@Z
xdata	ENDS
;	COMDAT xdata
xdata	SEGMENT
$chain$2$?applyDistortion@BerconWood@@QEAAXAEAVShadeContext@@AEAVPoint3@@@Z DD 040c21H
	DD	03880cH
	DD	047806H
	DD	imagerel $LN25+59
	DD	imagerel $LN25+75
	DD	imagerel $chain$0$?applyDistortion@BerconWood@@QEAAXAEAVShadeContext@@AEAVPoint3@@@Z
xdata	ENDS
;	COMDAT xdata
xdata	SEGMENT
$chain$0$?applyDistortion@BerconWood@@QEAAXAEAVShadeContext@@AEAVPoint3@@@Z DD 020621H
	DD	056806H
	DD	imagerel $LN25
	DD	imagerel $LN25+59
	DD	imagerel $unwind$?applyDistortion@BerconWood@@QEAAXAEAVShadeContext@@AEAVPoint3@@@Z
xdata	ENDS
;	COMDAT xdata
xdata	SEGMENT
$unwind$?applyDistortion@BerconWood@@QEAAXAEAVShadeContext@@AEAVPoint3@@@Z DD 060f01H
	DD	0f640fH
	DD	0e340fH
	DD	0700bb20fH
xdata	ENDS
;	COMDAT xdata
xdata	SEGMENT
$unwind$??0BerconXYZ@@QEAA@XZ DD 060f01H
	DD	07640fH
	DD	06340fH
	DD	0700b320fH
xdata	ENDS
;	COMDAT xdata
xdata	SEGMENT
$ip2state$??_GBerconXYZDlgProc@@UEAAPEAXI@Z DD imagerel ??_GBerconXYZDlgProc@@UEAAPEAXI@Z
	DD	0ffffffffH
xdata	ENDS
;	COMDAT xdata
xdata	SEGMENT
$stateUnwindMap$??_GBerconXYZDlgProc@@UEAAPEAXI@Z DD 0ffffffffH
	DD	imagerel ?dtor$0@?0???_GBerconXYZDlgProc@@UEAAPEAXI@Z@4HA
xdata	ENDS
;	COMDAT CONST
CONST	SEGMENT
$cppxdata$??_GBerconXYZDlgProc@@UEAAPEAXI@Z DD 019930522H
	DD	01H
	DD	imagerel $stateUnwindMap$??_GBerconXYZDlgProc@@UEAAPEAXI@Z
	DD	00H
	DD	00H
	DD	01H
	DD	imagerel $ip2state$??_GBerconXYZDlgProc@@UEAAPEAXI@Z
	DD	020H
	DD	00H
	DD	04H
CONST	ENDS
;	COMDAT xdata
xdata	SEGMENT
$unwind$??_GBerconXYZDlgProc@@UEAAPEAXI@Z DD 021311H
	DD	03006520aH
	DD	imagerel __CxxFrameHandler3
	DD	imagerel $cppxdata$??_GBerconXYZDlgProc@@UEAAPEAXI@Z
xdata	ENDS
;	COMDAT xdata
xdata	SEGMENT
$ip2state$??1BerconXYZDlgProc@@UEAA@XZ DD imagerel ??1BerconXYZDlgProc@@UEAA@XZ
	DD	0ffffffffH
xdata	ENDS
;	COMDAT xdata
xdata	SEGMENT
$stateUnwindMap$??1BerconXYZDlgProc@@UEAA@XZ DD 0ffffffffH
	DD	imagerel ?dtor$0@?0???1BerconXYZDlgProc@@UEAA@XZ@4HA
xdata	ENDS
;	COMDAT CONST
CONST	SEGMENT
$cppxdata$??1BerconXYZDlgProc@@UEAA@XZ DD 019930522H
	DD	01H
	DD	imagerel $stateUnwindMap$??1BerconXYZDlgProc@@UEAA@XZ
	DD	00H
	DD	00H
	DD	01H
	DD	imagerel $ip2state$??1BerconXYZDlgProc@@UEAA@XZ
	DD	00H
	DD	00H
	DD	04H
CONST	ENDS
;	COMDAT xdata
xdata	SEGMENT
$unwind$??1BerconXYZDlgProc@@UEAA@XZ DD 011111H
	DD	02209H
	DD	imagerel __CxxFrameHandler3
	DD	imagerel $cppxdata$??1BerconXYZDlgProc@@UEAA@XZ
xdata	ENDS
;	COMDAT xdata
xdata	SEGMENT
$chain$1$?DlgProc@BerconXYZDlgProc@@UEAA_JHPEAVIParamMap2@@PEAUHWND__@@I_K_J@Z DD 040a21H
	DD	0df40aH
	DD	0c7405H
	DD	imagerel $LN9
	DD	imagerel $LN9+787
	DD	imagerel $unwind$?DlgProc@BerconXYZDlgProc@@UEAA_JHPEAVIParamMap2@@PEAUHWND__@@I_K_J@Z
xdata	ENDS
;	COMDAT xdata
xdata	SEGMENT
$unwind$?DlgProc@BerconXYZDlgProc@@UEAA_JHPEAVIParamMap2@@PEAUHWND__@@I_K_J@Z DD 060d01H
	DD	0e340dH
	DD	0e009720dH
	DD	050066007H
xdata	ENDS
;	COMDAT xdata
xdata	SEGMENT
$ip2state$??0BerconXYZDlgProc@@QEAA@PEAVReferenceTarget@@@Z DD imagerel ??0BerconXYZDlgProc@@QEAA@PEAVReferenceTarget@@@Z
	DD	0ffffffffH
	DD	imagerel ??0BerconXYZDlgProc@@QEAA@PEAVReferenceTarget@@@Z+27
	DD	00H
	DD	imagerel ??0BerconXYZDlgProc@@QEAA@PEAVReferenceTarget@@@Z+41
	DD	0ffffffffH
xdata	ENDS
;	COMDAT xdata
xdata	SEGMENT
$stateUnwindMap$??0BerconXYZDlgProc@@QEAA@PEAVReferenceTarget@@@Z DD 0ffffffffH
	DD	imagerel ?dtor$0@?0???0BerconXYZDlgProc@@QEAA@PEAVReferenceTarget@@@Z@4HA
xdata	ENDS
;	COMDAT CONST
CONST	SEGMENT
$cppxdata$??0BerconXYZDlgProc@@QEAA@PEAVReferenceTarget@@@Z DD 019930522H
	DD	01H
	DD	imagerel $stateUnwindMap$??0BerconXYZDlgProc@@QEAA@PEAVReferenceTarget@@@Z
	DD	00H
	DD	00H
	DD	03H
	DD	imagerel $ip2state$??0BerconXYZDlgProc@@QEAA@PEAVReferenceTarget@@@Z
	DD	00H
	DD	00H
	DD	00H
CONST	ENDS
;	COMDAT xdata
xdata	SEGMENT
$unwind$??0BerconXYZDlgProc@@QEAA@PEAVReferenceTarget@@@Z DD 011111H
	DD	02209H
	DD	imagerel __CxxFrameHandler3
	DD	imagerel $cppxdata$??0BerconXYZDlgProc@@QEAA@PEAVReferenceTarget@@@Z
xdata	ENDS
;	COMDAT xdata
xdata	SEGMENT
$ip2state$??_GXYZ_Desc@@UEAAPEAXI@Z DD imagerel ??_GXYZ_Desc@@UEAAPEAXI@Z
	DD	0ffffffffH
xdata	ENDS
;	COMDAT xdata
xdata	SEGMENT
$stateUnwindMap$??_GXYZ_Desc@@UEAAPEAXI@Z DD 0ffffffffH
	DD	imagerel ?dtor$0@?0???_GXYZ_Desc@@UEAAPEAXI@Z@4HA
xdata	ENDS
;	COMDAT CONST
CONST	SEGMENT
$cppxdata$??_GXYZ_Desc@@UEAAPEAXI@Z DD 019930522H
	DD	01H
	DD	imagerel $stateUnwindMap$??_GXYZ_Desc@@UEAAPEAXI@Z
	DD	00H
	DD	00H
	DD	01H
	DD	imagerel $ip2state$??_GXYZ_Desc@@UEAAPEAXI@Z
	DD	020H
	DD	00H
	DD	04H
CONST	ENDS
;	COMDAT xdata
xdata	SEGMENT
$unwind$??_GXYZ_Desc@@UEAAPEAXI@Z DD 041811H
	DD	093418H
	DD	07006520aH
	DD	imagerel __CxxFrameHandler3
	DD	imagerel $cppxdata$??_GXYZ_Desc@@UEAAPEAXI@Z
xdata	ENDS
;	COMDAT xdata
xdata	SEGMENT
$ip2state$??1XYZ_Desc@@UEAA@XZ DD imagerel ??1XYZ_Desc@@UEAA@XZ
	DD	0ffffffffH
xdata	ENDS
;	COMDAT xdata
xdata	SEGMENT
$stateUnwindMap$??1XYZ_Desc@@UEAA@XZ DD 0ffffffffH
	DD	imagerel ?dtor$0@?0???1XYZ_Desc@@UEAA@XZ@4HA
xdata	ENDS
;	COMDAT CONST
CONST	SEGMENT
$cppxdata$??1XYZ_Desc@@UEAA@XZ DD 019930522H
	DD	01H
	DD	imagerel $stateUnwindMap$??1XYZ_Desc@@UEAA@XZ
	DD	00H
	DD	00H
	DD	01H
	DD	imagerel $ip2state$??1XYZ_Desc@@UEAA@XZ
	DD	020H
	DD	00H
	DD	04H
CONST	ENDS
;	COMDAT xdata
xdata	SEGMENT
$unwind$??1XYZ_Desc@@UEAA@XZ DD 011211H
	DD	06209H
	DD	imagerel __CxxFrameHandler3
	DD	imagerel $cppxdata$??1XYZ_Desc@@UEAA@XZ
xdata	ENDS
;	COMDAT xdata
xdata	SEGMENT
$ip2state$??0XYZ_Desc@@QEAA@PEAVClassDesc2@@HHHHHHH@Z DD imagerel ??0XYZ_Desc@@QEAA@PEAVClassDesc2@@HHHHHHH@Z
	DD	0ffffffffH
	DD	imagerel ??0XYZ_Desc@@QEAA@PEAVClassDesc2@@HHHHHHH@Z+4794
	DD	00H
	DD	imagerel ??0XYZ_Desc@@QEAA@PEAVClassDesc2@@HHHHHHH@Z+4804
	DD	0ffffffffH
xdata	ENDS
;	COMDAT xdata
xdata	SEGMENT
$stateUnwindMap$??0XYZ_Desc@@QEAA@PEAVClassDesc2@@HHHHHHH@Z DD 0ffffffffH
	DD	imagerel ?dtor$0@?0???0XYZ_Desc@@QEAA@PEAVClassDesc2@@HHHHHHH@Z@4HA
xdata	ENDS
;	COMDAT CONST
CONST	SEGMENT
$cppxdata$??0XYZ_Desc@@QEAA@PEAVClassDesc2@@HHHHHHH@Z DD 019930522H
	DD	01H
	DD	imagerel $stateUnwindMap$??0XYZ_Desc@@QEAA@PEAVClassDesc2@@HHHHHHH@Z
	DD	00H
	DD	00H
	DD	03H
	DD	imagerel $ip2state$??0XYZ_Desc@@QEAA@PEAVClassDesc2@@HHHHHHH@Z
	DD	0e70H
	DD	00H
	DD	00H
CONST	ENDS
;	COMDAT xdata
xdata	SEGMENT
$unwind$??0XYZ_Desc@@QEAA@PEAVClassDesc2@@HHHHHHH@Z DD 031711H
	DD	01d0010fH
	DD	03008H
	DD	imagerel __CxxFrameHandler3
	DD	imagerel $cppxdata$??0XYZ_Desc@@QEAA@PEAVClassDesc2@@HHHHHHH@Z
xdata	ENDS
;	COMDAT xdata
xdata	SEGMENT
$unwind$?GetPoint@ICurve@@QEAA?AVCurvePoint@@HH@Z DD 081401H
	DD	0b6414H
	DD	0a5414H
	DD	093414H
	DD	070105214H
xdata	ENDS
;	COMDAT xdata
xdata	SEGMENT
$unwind$??_GParamMap2UserDlgProc@@UEAAPEAXI@Z DD 020601H
	DD	030023206H
xdata	ENDS
;	COMDAT xdata
xdata	SEGMENT
$ip2state$??0VertexNormalsControl@@QEAA@XZ DD imagerel ??0VertexNormalsControl@@QEAA@XZ
	DD	0ffffffffH
xdata	ENDS
;	COMDAT xdata
xdata	SEGMENT
$stateUnwindMap$??0VertexNormalsControl@@QEAA@XZ DD 0ffffffffH
	DD	imagerel ?dtor$0@?0???0VertexNormalsControl@@QEAA@XZ@4HA
xdata	ENDS
;	COMDAT CONST
CONST	SEGMENT
$cppxdata$??0VertexNormalsControl@@QEAA@XZ DD 019930522H
	DD	01H
	DD	imagerel $stateUnwindMap$??0VertexNormalsControl@@QEAA@XZ
	DD	00H
	DD	00H
	DD	01H
	DD	imagerel $ip2state$??0VertexNormalsControl@@QEAA@XZ
	DD	00H
	DD	00H
	DD	00H
CONST	ENDS
;	COMDAT xdata
xdata	SEGMENT
$unwind$??0VertexNormalsControl@@QEAA@XZ DD 011111H
	DD	02209H
	DD	imagerel __CxxFrameHandler3
	DD	imagerel $cppxdata$??0VertexNormalsControl@@QEAA@XZ
xdata	ENDS
;	COMDAT xdata
xdata	SEGMENT
$ip2state$??_G?$Tab@PEAVVertexNormalsCallback@@@@UEAAPEAXI@Z DD imagerel ??_G?$Tab@PEAVVertexNormalsCallback@@@@UEAAPEAXI@Z
	DD	0ffffffffH
xdata	ENDS
;	COMDAT CONST
CONST	SEGMENT
$cppxdata$??_G?$Tab@PEAVVertexNormalsCallback@@@@UEAAPEAXI@Z DD 019930522H
	DD	00H
	DD	00H
	DD	00H
	DD	00H
	DD	01H
	DD	imagerel $ip2state$??_G?$Tab@PEAVVertexNormalsCallback@@@@UEAAPEAXI@Z
	DD	020H
	DD	00H
	DD	04H
CONST	ENDS
;	COMDAT xdata
xdata	SEGMENT
$unwind$??_G?$Tab@PEAVVertexNormalsCallback@@@@UEAAPEAXI@Z DD 041419H
	DD	083414H
	DD	070025206H
	DD	imagerel __CxxFrameHandler3
	DD	imagerel $cppxdata$??_G?$Tab@PEAVVertexNormalsCallback@@@@UEAAPEAXI@Z
xdata	ENDS
;	COMDAT xdata
xdata	SEGMENT
$ip2state$??1?$Tab@PEAVVertexNormalsCallback@@@@UEAA@XZ DD imagerel ??1?$Tab@PEAVVertexNormalsCallback@@@@UEAA@XZ
	DD	0ffffffffH
xdata	ENDS
;	COMDAT CONST
CONST	SEGMENT
$cppxdata$??1?$Tab@PEAVVertexNormalsCallback@@@@UEAA@XZ DD 019930522H
	DD	00H
	DD	00H
	DD	00H
	DD	00H
	DD	01H
	DD	imagerel $ip2state$??1?$Tab@PEAVVertexNormalsCallback@@@@UEAA@XZ
	DD	020H
	DD	00H
	DD	04H
CONST	ENDS
;	COMDAT xdata
xdata	SEGMENT
$unwind$??1?$Tab@PEAVVertexNormalsCallback@@@@UEAA@XZ DD 010d19H
	DD	06204H
	DD	imagerel __CxxFrameHandler3
	DD	imagerel $cppxdata$??1?$Tab@PEAVVertexNormalsCallback@@@@UEAA@XZ
xdata	ENDS
;	COMDAT xdata
xdata	SEGMENT
$ip2state$??1Texmap@@UEAA@XZ DD imagerel ??1Texmap@@UEAA@XZ
	DD	0ffffffffH
xdata	ENDS
;	COMDAT xdata
xdata	SEGMENT
$stateUnwindMap$??1Texmap@@UEAA@XZ DD 0ffffffffH
	DD	imagerel ?dtor$0@?0???1Texmap@@UEAA@XZ@4HA
xdata	ENDS
;	COMDAT CONST
CONST	SEGMENT
$cppxdata$??1Texmap@@UEAA@XZ DD 019930522H
	DD	01H
	DD	imagerel $stateUnwindMap$??1Texmap@@UEAA@XZ
	DD	00H
	DD	00H
	DD	01H
	DD	imagerel $ip2state$??1Texmap@@UEAA@XZ
	DD	020H
	DD	00H
	DD	04H
CONST	ENDS
;	COMDAT xdata
xdata	SEGMENT
$unwind$??1Texmap@@UEAA@XZ DD 011211H
	DD	06209H
	DD	imagerel __CxxFrameHandler3
	DD	imagerel $cppxdata$??1Texmap@@UEAA@XZ
xdata	ENDS
;	COMDAT xdata
xdata	SEGMENT
$unwind$?GetInterface@MtlBase@@UEAAPEAVBaseInterface@@VInterface_ID@@@Z DD 010401H
	DD	06204H
xdata	ENDS
;	COMDAT xdata
xdata	SEGMENT
$unwind$??D@YA?AVAColor@@MAEBV0@@Z DD 020f01H
	DD	050023206H
xdata	ENDS
;	COMDAT xdata
xdata	SEGMENT
$unwind$??HAColor@@QEBA?AV0@AEBV0@@Z DD 020f01H
	DD	050023206H
xdata	ENDS
;	COMDAT xdata
xdata	SEGMENT
$unwind$?Set@BitArray@@QEAAXH@Z DD 040a01H
	DD	06340aH
	DD	07006320aH
xdata	ENDS
;	COMDAT xdata
xdata	SEGMENT
$unwind$?GetInterfaceAt@ClassDesc@@UEAAPEAVFPInterface@@H@Z DD 010401H
	DD	04204H
xdata	ENDS
;	COMDAT xdata
xdata	SEGMENT
$ip2state$??A?$Tab@PEAVFPInterface@@@@QEBAAEAPEAVFPInterface@@_J@Z DD imagerel ??A?$Tab@PEAVFPInterface@@@@QEBAAEAPEAVFPInterface@@_J@Z
	DD	0ffffffffH
	DD	imagerel ??A?$Tab@PEAVFPInterface@@@@QEBAAEAPEAVFPInterface@@_J@Z+202
	DD	00H
	DD	imagerel ??A?$Tab@PEAVFPInterface@@@@QEBAAEAPEAVFPInterface@@_J@Z+214
	DD	0ffffffffH
xdata	ENDS
;	COMDAT xdata
xdata	SEGMENT
$stateUnwindMap$??A?$Tab@PEAVFPInterface@@@@QEBAAEAPEAVFPInterface@@_J@Z DD 0ffffffffH
	DD	imagerel ?dtor$0@?0???A?$Tab@PEAVFPInterface@@@@QEBAAEAPEAVFPInterface@@_J@Z@4HA
xdata	ENDS
;	COMDAT CONST
CONST	SEGMENT
$cppxdata$??A?$Tab@PEAVFPInterface@@@@QEBAAEAPEAVFPInterface@@_J@Z DD 019930522H
	DD	01H
	DD	imagerel $stateUnwindMap$??A?$Tab@PEAVFPInterface@@@@QEBAAEAPEAVFPInterface@@_J@Z
	DD	00H
	DD	00H
	DD	03H
	DD	imagerel $ip2state$??A?$Tab@PEAVFPInterface@@@@QEBAAEAPEAVFPInterface@@_J@Z
	DD	020H
	DD	00H
	DD	00H
CONST	ENDS
;	COMDAT xdata
xdata	SEGMENT
$unwind$??A?$Tab@PEAVFPInterface@@@@QEBAAEAPEAVFPInterface@@_J@Z DD 041411H
	DD	0a3414H
	DD	070027206H
	DD	imagerel __CxxFrameHandler3
	DD	imagerel $cppxdata$??A?$Tab@PEAVFPInterface@@@@QEBAAEAPEAVFPInterface@@_J@Z
xdata	ENDS
;	COMDAT xdata
xdata	SEGMENT
$unwind$?NotifyForeground@ReferenceTarget@@UEAAXH@Z DD 040a01H
	DD	0b340aH
	DD	07006720aH
xdata	ENDS
;	COMDAT xdata
xdata	SEGMENT
$unwind$?NotifyDependents@ReferenceMaker@@EEAA?AW4RefResult@@AEBVInterval@@_KIKHPEAVReferenceTarget@@@Z DD 010401H
	DD	04204H
xdata	ENDS
;	COMDAT xdata
xdata	SEGMENT
$unwind$?IsSubClassOf@Animatable@@UEAAHVClass_ID@@@Z DD 020601H
	DD	030023206H
xdata	ENDS
;	COMDAT xdata
xdata	SEGMENT
$unwind$??_4Interval@@QEAAAEAV0@V0@@Z DD 020601H
	DD	030023206H
xdata	ENDS
;	COMDAT xdata
xdata	SEGMENT
$ip2state$??_GTabOutOfRangeException@Util@MaxSDK@@UEAAPEAXI@Z DD imagerel ??_GTabOutOfRangeException@Util@MaxSDK@@UEAAPEAXI@Z
	DD	0ffffffffH
xdata	ENDS
;	COMDAT xdata
xdata	SEGMENT
$stateUnwindMap$??_GTabOutOfRangeException@Util@MaxSDK@@UEAAPEAXI@Z DD 0ffffffffH
	DD	imagerel ?dtor$0@?0???_GTabOutOfRangeException@Util@MaxSDK@@UEAAPEAXI@Z@4HA
	DD	0ffffffffH
	DD	imagerel ?dtor$1@?0???_GTabOutOfRangeException@Util@MaxSDK@@UEAAPEAXI@Z@4HA
xdata	ENDS
;	COMDAT CONST
CONST	SEGMENT
$cppxdata$??_GTabOutOfRangeException@Util@MaxSDK@@UEAAPEAXI@Z DD 019930522H
	DD	02H
	DD	imagerel $stateUnwindMap$??_GTabOutOfRangeException@Util@MaxSDK@@UEAAPEAXI@Z
	DD	00H
	DD	00H
	DD	01H
	DD	imagerel $ip2state$??_GTabOutOfRangeException@Util@MaxSDK@@UEAAPEAXI@Z
	DD	020H
	DD	00H
	DD	04H
CONST	ENDS
;	COMDAT xdata
xdata	SEGMENT
$unwind$??_GTabOutOfRangeException@Util@MaxSDK@@UEAAPEAXI@Z DD 041811H
	DD	093418H
	DD	07006520aH
	DD	imagerel __CxxFrameHandler3
	DD	imagerel $cppxdata$??_GTabOutOfRangeException@Util@MaxSDK@@UEAAPEAXI@Z
xdata	ENDS
;	COMDAT xdata
xdata	SEGMENT
$ip2state$??0TabOutOfRangeException@Util@MaxSDK@@QEAA@AEBV012@@Z DD imagerel ??0TabOutOfRangeException@Util@MaxSDK@@QEAA@AEBV012@@Z
	DD	0ffffffffH
	DD	imagerel ??0TabOutOfRangeException@Util@MaxSDK@@QEAA@AEBV012@@Z+29
	DD	00H
	DD	imagerel ??0TabOutOfRangeException@Util@MaxSDK@@QEAA@AEBV012@@Z+39
	DD	01H
	DD	imagerel ??0TabOutOfRangeException@Util@MaxSDK@@QEAA@AEBV012@@Z+49
	DD	0ffffffffH
xdata	ENDS
;	COMDAT xdata
xdata	SEGMENT
$stateUnwindMap$??0TabOutOfRangeException@Util@MaxSDK@@QEAA@AEBV012@@Z DD 0ffffffffH
	DD	imagerel ?dtor$1@?0???0TabOutOfRangeException@Util@MaxSDK@@QEAA@AEBV012@@Z@4HA
	DD	0ffffffffH
	DD	imagerel ?dtor$0@?0???0TabOutOfRangeException@Util@MaxSDK@@QEAA@AEBV012@@Z@4HA
xdata	ENDS
;	COMDAT CONST
CONST	SEGMENT
$cppxdata$??0TabOutOfRangeException@Util@MaxSDK@@QEAA@AEBV012@@Z DD 019930522H
	DD	02H
	DD	imagerel $stateUnwindMap$??0TabOutOfRangeException@Util@MaxSDK@@QEAA@AEBV012@@Z
	DD	00H
	DD	00H
	DD	04H
	DD	imagerel $ip2state$??0TabOutOfRangeException@Util@MaxSDK@@QEAA@AEBV012@@Z
	DD	020H
	DD	00H
	DD	00H
CONST	ENDS
;	COMDAT xdata
xdata	SEGMENT
$unwind$??0TabOutOfRangeException@Util@MaxSDK@@QEAA@AEBV012@@Z DD 021311H
	DD	03006520aH
	DD	imagerel __CxxFrameHandler3
	DD	imagerel $cppxdata$??0TabOutOfRangeException@Util@MaxSDK@@QEAA@AEBV012@@Z
xdata	ENDS
;	COMDAT xdata
xdata	SEGMENT
$ip2state$??1TabOutOfRangeException@Util@MaxSDK@@UEAA@XZ DD imagerel ??1TabOutOfRangeException@Util@MaxSDK@@UEAA@XZ
	DD	0ffffffffH
xdata	ENDS
;	COMDAT xdata
xdata	SEGMENT
$stateUnwindMap$??1TabOutOfRangeException@Util@MaxSDK@@UEAA@XZ DD 0ffffffffH
	DD	imagerel ?dtor$0@?0???1TabOutOfRangeException@Util@MaxSDK@@UEAA@XZ@4HA
	DD	0ffffffffH
	DD	imagerel ?dtor$1@?0???1TabOutOfRangeException@Util@MaxSDK@@UEAA@XZ@4HA
xdata	ENDS
;	COMDAT CONST
CONST	SEGMENT
$cppxdata$??1TabOutOfRangeException@Util@MaxSDK@@UEAA@XZ DD 019930522H
	DD	02H
	DD	imagerel $stateUnwindMap$??1TabOutOfRangeException@Util@MaxSDK@@UEAA@XZ
	DD	00H
	DD	00H
	DD	01H
	DD	imagerel $ip2state$??1TabOutOfRangeException@Util@MaxSDK@@UEAA@XZ
	DD	020H
	DD	00H
	DD	04H
CONST	ENDS
;	COMDAT xdata
xdata	SEGMENT
$unwind$??1TabOutOfRangeException@Util@MaxSDK@@UEAA@XZ DD 011211H
	DD	06209H
	DD	imagerel __CxxFrameHandler3
	DD	imagerel $cppxdata$??1TabOutOfRangeException@Util@MaxSDK@@UEAA@XZ
xdata	ENDS
;	COMDAT xdata
xdata	SEGMENT
$ip2state$??0TabOutOfRangeException@Util@MaxSDK@@QEAA@PEB_W@Z DD imagerel ??0TabOutOfRangeException@Util@MaxSDK@@QEAA@PEB_W@Z
	DD	0ffffffffH
	DD	imagerel ??0TabOutOfRangeException@Util@MaxSDK@@QEAA@PEB_W@Z+29
	DD	00H
	DD	imagerel ??0TabOutOfRangeException@Util@MaxSDK@@QEAA@PEB_W@Z+39
	DD	0ffffffffH
xdata	ENDS
;	COMDAT xdata
xdata	SEGMENT
$stateUnwindMap$??0TabOutOfRangeException@Util@MaxSDK@@QEAA@PEB_W@Z DD 0ffffffffH
	DD	imagerel ?dtor$0@?0???0TabOutOfRangeException@Util@MaxSDK@@QEAA@PEB_W@Z@4HA
xdata	ENDS
;	COMDAT CONST
CONST	SEGMENT
$cppxdata$??0TabOutOfRangeException@Util@MaxSDK@@QEAA@PEB_W@Z DD 019930522H
	DD	01H
	DD	imagerel $stateUnwindMap$??0TabOutOfRangeException@Util@MaxSDK@@QEAA@PEB_W@Z
	DD	00H
	DD	00H
	DD	03H
	DD	imagerel $ip2state$??0TabOutOfRangeException@Util@MaxSDK@@QEAA@PEB_W@Z
	DD	020H
	DD	00H
	DD	00H
CONST	ENDS
;	COMDAT xdata
xdata	SEGMENT
$unwind$??0TabOutOfRangeException@Util@MaxSDK@@QEAA@PEB_W@Z DD 021311H
	DD	03006520aH
	DD	imagerel __CxxFrameHandler3
	DD	imagerel $cppxdata$??0TabOutOfRangeException@Util@MaxSDK@@QEAA@PEB_W@Z
xdata	ENDS
;	COMDAT xdata
xdata	SEGMENT
$unwind$??_H@YAXPEAX_K1P6APEAX0@Z@Z DD 081901H
	DD	086419H
	DD	075419H
	DD	063419H
	DD	070153219H
xdata	ENDS
CRT$XCU	SEGMENT
?BerconWoodDesc$initializer$@@3P6AXXZEA DQ FLAT:??__EBerconWoodDesc@@YAXXZ ; BerconWoodDesc$initializer$
CRT$XCU	ENDS
CRT$XCU	SEGMENT
?xyz_blk$initializer$@@3P6AXXZEA DQ FLAT:??__Exyz_blk@@YAXXZ ; xyz_blk$initializer$
CRT$XCU	ENDS
CRT$XCU	SEGMENT
?BerconWood_param_blk$initializer$@@3P6AXXZEA DQ FLAT:??__EBerconWood_param_blk@@YAXXZ ; BerconWood_param_blk$initializer$
CRT$XCU	ENDS
CRT$XCU	SEGMENT
?BerconMap_param_blk$initializer$@@3P6AXXZEA DQ FLAT:??__EBerconMap_param_blk@@YAXXZ ; BerconMap_param_blk$initializer$
CRT$XCU	ENDS
; Function compile flags: /Odsp
;	COMDAT ?GetInterface@BerconWood@@WJI@EAAPEAXK@Z
_TEXT	SEGMENT
?GetInterface@BerconWood@@WJI@EAAPEAXK@Z PROC		; [thunk]:BerconWood::GetInterface`adjustor{152}', COMDAT
	sub	rcx, 152				; 00000098H
	jmp	?GetInterface@BerconWood@@UEAAPEAXK@Z	; BerconWood::GetInterface
?GetInterface@BerconWood@@WJI@EAAPEAXK@Z ENDP		; [thunk]:BerconWood::GetInterface`adjustor{152}'
_TEXT	ENDS
; Function compile flags: /Odsp
;	COMDAT ??_EBerconWood@@WEI@EAAPEAXI@Z
_TEXT	SEGMENT
??_EBerconWood@@WEI@EAAPEAXI@Z PROC			; [thunk]:BerconWood::`vector deleting destructor', COMDAT
	sub	rcx, 72					; 00000048H
	jmp	??_EBerconWood@@UEAAPEAXI@Z
??_EBerconWood@@WEI@EAAPEAXI@Z ENDP			; [thunk]:BerconWood::`vector deleting destructor'
_TEXT	ENDS
; Function compile flags: /Ogtp
; File c:\program files\autodesk\3ds max 2020 sdk\maxsdk\include\iparamm2.h
;	COMDAT ??_GBerconWoodDlgProc@@UEAAPEAXI@Z
_TEXT	SEGMENT
$T1 = 32
this$ = 64
__flags$ = 72
??_GBerconWoodDlgProc@@UEAAPEAXI@Z PROC			; BerconWoodDlgProc::`scalar deleting destructor', COMDAT
$LN13:
	mov	QWORD PTR [rsp+8], rcx
	push	rbx
	sub	rsp, 48					; 00000030H
	mov	QWORD PTR $T1[rsp], -2
	mov	rbx, rcx

; 59   : 		virtual ~ParamMap2UserDlgProc() { }

	lea	rax, OFFSET FLAT:??_7ParamMap2UserDlgProc@@6B@
	mov	QWORD PTR [rcx], rax
	test	dl, 1
	je	SHORT $LN12@scalar
	test	dl, 4
	jne	SHORT $LN3@scalar
	call	QWORD PTR __imp_??3MaxHeapOperators@@SAXPEAX@Z
	npad	1
	jmp	SHORT $LN12@scalar
$LN3@scalar:
	mov	edx, 16
	call	?__global_delete@@YAXPEAX_K@Z		; __global_delete
	npad	1
$LN12@scalar:
	mov	rax, rbx
	add	rsp, 48					; 00000030H
	pop	rbx
	ret	0
??_GBerconWoodDlgProc@@UEAAPEAXI@Z ENDP			; BerconWoodDlgProc::`scalar deleting destructor'
_TEXT	ENDS
;	COMDAT text$x
text$x	SEGMENT
$T1 = 32
this$ = 64
__flags$ = 72
?dtor$0@?0???_GBerconWoodDlgProc@@UEAAPEAXI@Z@4HA PROC	; `BerconWoodDlgProc::`scalar deleting destructor''::`1'::dtor$0
	mov	rcx, QWORD PTR this$[rdx]
	jmp	??1ParamMap2UserDlgProc@@UEAA@XZ	; ParamMap2UserDlgProc::~ParamMap2UserDlgProc
?dtor$0@?0???_GBerconWoodDlgProc@@UEAAPEAXI@Z@4HA ENDP	; `BerconWoodDlgProc::`scalar deleting destructor''::`1'::dtor$0
text$x	ENDS
; Function compile flags: /Ogtp
;	COMDAT text$x
text$x	SEGMENT
$T1 = 32
this$ = 64
__flags$ = 72
?dtor$0@?0???_GBerconWoodDlgProc@@UEAAPEAXI@Z@4HA PROC	; `BerconWoodDlgProc::`scalar deleting destructor''::`1'::dtor$0
	mov	rcx, QWORD PTR this$[rdx]
	jmp	??1ParamMap2UserDlgProc@@UEAA@XZ	; ParamMap2UserDlgProc::~ParamMap2UserDlgProc
?dtor$0@?0???_GBerconWoodDlgProc@@UEAAPEAXI@Z@4HA ENDP	; `BerconWoodDlgProc::`scalar deleting destructor''::`1'::dtor$0
text$x	ENDS
; Function compile flags: /Ogtp
; File c:\program files\autodesk\3ds max 2020 sdk\maxsdk\include\iparamm2.h
;	COMDAT ??1BerconWoodDlgProc@@UEAA@XZ
_TEXT	SEGMENT
$T1 = 0
this$ = 32
??1BerconWoodDlgProc@@UEAA@XZ PROC			; BerconWoodDlgProc::~BerconWoodDlgProc, COMDAT
$LN6:
	mov	QWORD PTR [rsp+8], rcx
	sub	rsp, 24
	mov	QWORD PTR $T1[rsp], -2

; 59   : 		virtual ~ParamMap2UserDlgProc() { }

	lea	rax, OFFSET FLAT:??_7ParamMap2UserDlgProc@@6B@
	mov	QWORD PTR [rcx], rax
	add	rsp, 24
	ret	0
??1BerconWoodDlgProc@@UEAA@XZ ENDP			; BerconWoodDlgProc::~BerconWoodDlgProc
_TEXT	ENDS
;	COMDAT text$x
text$x	SEGMENT
$T1 = 0
this$ = 32
?dtor$0@?0???1BerconWoodDlgProc@@UEAA@XZ@4HA PROC	; `BerconWoodDlgProc::~BerconWoodDlgProc'::`1'::dtor$0
	mov	rcx, QWORD PTR this$[rdx]
	jmp	??1ParamMap2UserDlgProc@@UEAA@XZ	; ParamMap2UserDlgProc::~ParamMap2UserDlgProc
?dtor$0@?0???1BerconWoodDlgProc@@UEAA@XZ@4HA ENDP	; `BerconWoodDlgProc::~BerconWoodDlgProc'::`1'::dtor$0
text$x	ENDS
; Function compile flags: /Ogtp
;	COMDAT text$x
text$x	SEGMENT
$T1 = 0
this$ = 32
?dtor$0@?0???1BerconWoodDlgProc@@UEAA@XZ@4HA PROC	; `BerconWoodDlgProc::~BerconWoodDlgProc'::`1'::dtor$0
	mov	rcx, QWORD PTR this$[rdx]
	jmp	??1ParamMap2UserDlgProc@@UEAA@XZ	; ParamMap2UserDlgProc::~ParamMap2UserDlgProc
?dtor$0@?0???1BerconWoodDlgProc@@UEAA@XZ@4HA ENDP	; `BerconWoodDlgProc::~BerconWoodDlgProc'::`1'::dtor$0
text$x	ENDS
; Function compile flags: /Ogtp
; File g:\dropbox\github\berconmaps\src\berconwood.cpp
;	COMDAT ?SetThing@BerconWoodDlgProc@@UEAAXPEAVReferenceTarget@@@Z
_TEXT	SEGMENT
this$ = 8
m$ = 16
?SetThing@BerconWoodDlgProc@@UEAAXPEAVReferenceTarget@@@Z PROC ; BerconWoodDlgProc::SetThing, COMDAT

; 367  : 			berconWood = (BerconWood*)m;

	mov	QWORD PTR [rcx+8], rdx

; 368  : 			berconWood->EnableStuff();

	mov	rcx, rdx
	jmp	?EnableStuff@BerconWood@@QEAAXXZ	; BerconWood::EnableStuff
?SetThing@BerconWoodDlgProc@@UEAAXPEAVReferenceTarget@@@Z ENDP ; BerconWoodDlgProc::SetThing
_TEXT	ENDS
; Function compile flags: /Ogtp
; File g:\dropbox\github\berconmaps\src\berconwood.cpp
;	COMDAT ?DeleteThis@BerconWoodDlgProc@@UEAAXXZ
_TEXT	SEGMENT
this$ = 8
?DeleteThis@BerconWoodDlgProc@@UEAAXXZ PROC		; BerconWoodDlgProc::DeleteThis, COMDAT

; 365  : 		void DeleteThis() {delete this;}

	test	rcx, rcx
	je	SHORT $LN3@DeleteThis
	mov	rax, QWORD PTR [rcx]
	mov	edx, 1
	rex_jmp	QWORD PTR [rax]
$LN3@DeleteThis:
	ret	0
?DeleteThis@BerconWoodDlgProc@@UEAAXXZ ENDP		; BerconWoodDlgProc::DeleteThis
_TEXT	ENDS
; Function compile flags: /Ogtp
; File g:\dropbox\github\berconmaps\src\berconwood.cpp
;	COMDAT ?DlgProc@BerconWoodDlgProc@@UEAA_JHPEAVIParamMap2@@PEAUHWND__@@I_K_J@Z
_TEXT	SEGMENT
$T1 = 48
this$ = 80
t$ = 88
map$ = 96
hWnd$ = 104
curIndex$2 = 112
msg$ = 112
wParam$ = 120
lParam$ = 128
?DlgProc@BerconWoodDlgProc@@UEAA_JHPEAVIParamMap2@@PEAUHWND__@@I_K_J@Z PROC ; BerconWoodDlgProc::DlgProc, COMDAT

; 372  : INT_PTR BerconWoodDlgProc::DlgProc(TimeValue t,IParamMap2 *map,HWND hWnd,UINT msg,WPARAM wParam,LPARAM lParam)	{	

$LN10:
	mov	QWORD PTR [rsp+8], rbx
	mov	QWORD PTR [rsp+16], rbp
	mov	QWORD PTR [rsp+24], rsi
	push	rdi
	sub	rsp, 64					; 00000040H

; 373  : 	switch (msg) {

	mov	eax, DWORD PTR msg$[rsp]
	mov	rsi, r9
	mov	rdi, r8
	mov	ebp, edx
	cmp	eax, 24
	je	$LN5@DlgProc
	cmp	eax, 272				; 00000110H
	je	SHORT $LN4@DlgProc

; 398  : 			break;
; 399  : 		}
; 400  : 		default: return FALSE;

	xor	eax, eax
	jmp	$LN1@DlgProc
$LN4@DlgProc:

; 374  : 		case WM_INITDIALOG:	{			
; 375  : 			// Lock buttons
; 376  : 			ICustButton* custButton = GetICustButton(GetDlgItem(hWnd, IDC_LOCK_GRAIN));

	mov	edx, 1646				; 0000066eH
	mov	rcx, rsi
	call	QWORD PTR __imp_GetDlgItem
	mov	rcx, rax
	call	QWORD PTR __imp_?GetICustButton@@YAPEAVICustButton@@PEAUHWND__@@@Z

; 377  : 			custButton->SetText(_T("L"));

	lea	rdx, OFFSET FLAT:??_C@_13PHJMHGG@?$AAL?$AA?$AA@
	mov	rcx, rax
	mov	rbx, rax
	mov	r8, QWORD PTR [rax]
	call	QWORD PTR [r8+88]

; 378  : 			ReleaseICustButton(custButton); 

	mov	rcx, rbx
	call	QWORD PTR __imp_?ReleaseICustButton@@YAXPEAVICustButton@@@Z

; 379  : 
; 380  : 			// Wood type
; 381  : 			HWND hwndMap = GetDlgItem(hWnd, IDC_WOOD_TYPE);  

	mov	edx, 1016				; 000003f8H
	mov	rcx, rsi
	call	QWORD PTR __imp_GetDlgItem

; 382  : 			SendMessage(hwndMap, CB_ADDSTRING, 0, (LPARAM)GetString(IDS_RADIAL_WOOD));

	mov	ecx, 9
	mov	rbx, rax
	call	?GetString@@YAPEA_WH@Z			; GetString
	mov	r9, rax
	xor	r8d, r8d
	mov	edx, 323				; 00000143H
	mov	rcx, rbx
	call	QWORD PTR __imp_SendMessageW

; 383  : 			SendMessage(hwndMap, CB_ADDSTRING, 0, (LPARAM)GetString(IDS_PERLIN_WOOD));

	mov	ecx, 25
	call	?GetString@@YAPEA_WH@Z			; GetString
	mov	r9, rax
	xor	r8d, r8d
	mov	edx, 323				; 00000143H
	mov	rcx, rbx
	call	QWORD PTR __imp_SendMessageW

; 384  : 			SendMessage(hwndMap, CB_ADDSTRING, 0, (LPARAM)GetString(IDS_SIMPLEX_WOOD));

	mov	ecx, 40					; 00000028H
	call	?GetString@@YAPEA_WH@Z			; GetString
	mov	r9, rax
	xor	r8d, r8d
	mov	edx, 323				; 00000143H
	mov	rcx, rbx
	call	QWORD PTR __imp_SendMessageW

; 385  : 			SendMessage(hwndMap, CB_ADDSTRING, 0, (LPARAM)GetString(IDS_LINEAR_WOOD));

	mov	ecx, 144				; 00000090H
	call	?GetString@@YAPEA_WH@Z			; GetString
	mov	r9, rax
	xor	r8d, r8d
	mov	edx, 323				; 00000143H
	mov	rcx, rbx
	call	QWORD PTR __imp_SendMessageW

; 386  : 
; 387  : 			// Set correct dropdown value
; 388  : 			int curIndex;
; 389  : 			map->GetParamBlock()->GetValue(wood_type, t, curIndex, FOREVER);

	mov	rax, QWORD PTR [rdi]

; 390  : 			SendMessage(GetDlgItem(hWnd, IDC_WOOD_TYPE), CB_SETCURSEL, (WPARAM)curIndex, 0);						
; 391  : 			break;

	jmp	SHORT $LN8@DlgProc
$LN5@DlgProc:

; 392  : 		}		
; 393  : 		case WM_SHOWWINDOW:	{		
; 394  : 			// Set correct dropdown value
; 395  : 			int curIndex;
; 396  : 			map->GetParamBlock()->GetValue(wood_type, t, curIndex, FOREVER);

	mov	rax, QWORD PTR [r8]
$LN8@DlgProc:
	mov	rcx, rdi
	call	QWORD PTR [rax+136]
	mov	r8d, 2147483647				; 7fffffffH
	lea	rcx, QWORD PTR $T1[rsp]
	mov	edx, -2147483648			; ffffffff80000000H
	mov	rbx, rax
	mov	rdi, QWORD PTR [rax]
	call	QWORD PTR __imp_??0Interval@@QEAA@HH@Z
	xor	edx, edx
	lea	r9, QWORD PTR curIndex$2[rsp]
	mov	DWORD PTR [rsp+40], edx
	mov	r8d, ebp
	mov	rcx, rbx
	mov	QWORD PTR [rsp+32], rax
	call	QWORD PTR [rdi+1704]

; 397  : 			SendMessage(GetDlgItem(hWnd, IDC_WOOD_TYPE), CB_SETCURSEL, (WPARAM)curIndex, 0);

	movsxd	rbx, DWORD PTR curIndex$2[rsp]
	mov	edx, 1016				; 000003f8H
	mov	rcx, rsi
	call	QWORD PTR __imp_GetDlgItem
	xor	r9d, r9d
	mov	r8, rbx
	mov	rcx, rax
	mov	edx, 334				; 0000014eH
	call	QWORD PTR __imp_SendMessageW

; 401  : 	}
; 402  : 	return TRUE;

	mov	eax, 1
$LN1@DlgProc:

; 403  : }

	mov	rbx, QWORD PTR [rsp+80]
	mov	rbp, QWORD PTR [rsp+88]
	mov	rsi, QWORD PTR [rsp+96]
	add	rsp, 64					; 00000040H
	pop	rdi
	ret	0
?DlgProc@BerconWoodDlgProc@@UEAA_JHPEAVIParamMap2@@PEAUHWND__@@I_K_J@Z ENDP ; BerconWoodDlgProc::DlgProc
_TEXT	ENDS
; Function compile flags: /Ogtp
; File g:\dropbox\github\berconmaps\src\berconwood.cpp
;	COMDAT ??0BerconWoodDlgProc@@QEAA@PEAVBerconWood@@@Z
_TEXT	SEGMENT
$T1 = 0
this$ = 32
m$ = 40
??0BerconWoodDlgProc@@QEAA@PEAVBerconWood@@@Z PROC	; BerconWoodDlgProc::BerconWoodDlgProc, COMDAT

; 363  : 		BerconWoodDlgProc(BerconWood *m) {berconWood = m;}		

$LN6:
	mov	QWORD PTR [rsp+8], rcx
	sub	rsp, 24
	mov	QWORD PTR $T1[rsp], -2
	lea	rax, OFFSET FLAT:??_7ParamMap2UserDlgProc@@6B@
	mov	QWORD PTR [rcx], rax
	lea	rax, OFFSET FLAT:??_7BerconWoodDlgProc@@6B@
	mov	QWORD PTR [rcx], rax
	mov	QWORD PTR [rcx+8], rdx
	mov	rax, rcx
	add	rsp, 24
	ret	0
??0BerconWoodDlgProc@@QEAA@PEAVBerconWood@@@Z ENDP	; BerconWoodDlgProc::BerconWoodDlgProc
_TEXT	ENDS
;	COMDAT text$x
text$x	SEGMENT
$T1 = 0
this$ = 32
m$ = 40
?dtor$0@?0???0BerconWoodDlgProc@@QEAA@PEAVBerconWood@@@Z@4HA PROC ; `BerconWoodDlgProc::BerconWoodDlgProc'::`1'::dtor$0
	mov	rcx, QWORD PTR this$[rdx]
	jmp	??1ParamMap2UserDlgProc@@UEAA@XZ	; ParamMap2UserDlgProc::~ParamMap2UserDlgProc
?dtor$0@?0???0BerconWoodDlgProc@@QEAA@PEAVBerconWood@@@Z@4HA ENDP ; `BerconWoodDlgProc::BerconWoodDlgProc'::`1'::dtor$0
text$x	ENDS
; Function compile flags: /Ogtp
;	COMDAT text$x
text$x	SEGMENT
$T1 = 0
this$ = 32
m$ = 40
?dtor$0@?0???0BerconWoodDlgProc@@QEAA@PEAVBerconWood@@@Z@4HA PROC ; `BerconWoodDlgProc::BerconWoodDlgProc'::`1'::dtor$0
	mov	rcx, QWORD PTR this$[rdx]
	jmp	??1ParamMap2UserDlgProc@@UEAA@XZ	; ParamMap2UserDlgProc::~ParamMap2UserDlgProc
?dtor$0@?0???0BerconWoodDlgProc@@QEAA@PEAVBerconWood@@@Z@4HA ENDP ; `BerconWoodDlgProc::BerconWoodDlgProc'::`1'::dtor$0
text$x	ENDS
; Function compile flags: /Ogtp
;	COMDAT ??__FBerconMap_param_blk@@YAXXZ
text$yd	SEGMENT
??__FBerconMap_param_blk@@YAXXZ PROC			; `dynamic atexit destructor for 'BerconMap_param_blk'', COMDAT
	lea	rcx, OFFSET FLAT:?BerconMap_param_blk@@3VParamBlockDesc2@@A
	rex_jmp	QWORD PTR __imp_??1ParamBlockDesc2@@UEAA@XZ
??__FBerconMap_param_blk@@YAXXZ ENDP			; `dynamic atexit destructor for 'BerconMap_param_blk''
text$yd	ENDS
; Function compile flags: /Ogtp
; File g:\dropbox\github\berconmaps\src\berconwood.cpp
;	COMDAT ??__EBerconMap_param_blk@@YAXXZ
text$di	SEGMENT
??__EBerconMap_param_blk@@YAXXZ PROC			; `dynamic initializer for 'BerconMap_param_blk'', COMDAT

; 331  : );

	mov	r11, rsp
	sub	rsp, 3192				; 00000c78H

; 309  : static ParamBlockDesc2 BerconMap_param_blk ( BerconMap_params, _T("params"),  0, &BerconWoodDesc, 

	mov	DWORD PTR [r11-24], -1073740800		; ffffffffc0000400H
	lea	rax, OFFSET FLAT:??_C@_1BM@LKPLBAOF@?$AAb?$AAm?$AAa?$AAp?$AA1?$AA6?$AAE?$AAn?$AAa?$AAb?$AAl?$AAe?$AAd?$AA?$AA@
	mov	DWORD PTR [r11-32], -1073740800		; ffffffffc0000400H
	xor	ecx, ecx
	mov	DWORD PTR [r11-40], 1655		; 00000677H
	mov	edx, 6
	mov	DWORD PTR [r11-48], 2
	mov	DWORD PTR [r11-56], -1073741821		; ffffffffc0000003H
	mov	DWORD PTR [r11-64], 1
	mov	DWORD PTR [r11-72], -1073741824		; ffffffffc0000000H
	lea	r10d, QWORD PTR [rdx-3]
	mov	DWORD PTR [r11-80], 104			; 00000068H
	mov	QWORD PTR [r11-88], rcx
	mov	DWORD PTR [r11-96], 4
	mov	QWORD PTR [r11-104], rax
	lea	rax, OFFSET FLAT:??_C@_1O@HNBJCNPB@?$AAb?$AAm?$AAa?$AAp?$AA1?$AA6?$AA?$AA@
	mov	DWORD PTR [r11-112], 31
	mov	DWORD PTR [r11-120], -1073740800	; ffffffffc0000400H
	mov	DWORD PTR [r11-128], 1048		; 00000418H
	mov	DWORD PTR [rsp+3056], 8
	mov	DWORD PTR [rsp+3048], -1073741821	; ffffffffc0000003H
	mov	DWORD PTR [rsp+3040], 20
	mov	DWORD PTR [rsp+3032], -1073741816	; ffffffffc0000008H
	mov	DWORD PTR [rsp+3024], 22
	mov	DWORD PTR [rsp+3016], -1073741817	; ffffffffc0000007H
	mov	DWORD PTR [rsp+3008], 88		; 00000058H
	mov	DWORD PTR [rsp+3000], 512		; 00000200H
	mov	DWORD PTR [rsp+2992], 15
	mov	QWORD PTR [r11-208], rax
	lea	rax, OFFSET FLAT:??_C@_1BM@FAHNMNIH@?$AAb?$AAm?$AAa?$AAp?$AA1?$AA5?$AAE?$AAn?$AAa?$AAb?$AAl?$AAe?$AAd?$AA?$AA@
	mov	DWORD PTR [rsp+2976], 15
	mov	DWORD PTR [rsp+2968], -1073740800	; ffffffffc0000400H
	mov	DWORD PTR [rsp+2960], 1654		; 00000676H
	mov	DWORD PTR [rsp+2952], 2
	mov	DWORD PTR [rsp+2944], -1073741821	; ffffffffc0000003H
	mov	DWORD PTR [rsp+2936], 1
	mov	DWORD PTR [rsp+2928], -1073741824	; ffffffffc0000000H
	mov	DWORD PTR [rsp+2920], 103		; 00000067H
	mov	QWORD PTR [r11-280], rcx
	mov	DWORD PTR [rsp+2904], 4
	mov	QWORD PTR [r11-296], rax
	lea	rax, OFFSET FLAT:??_C@_1O@GPKMICBP@?$AAb?$AAm?$AAa?$AAp?$AA1?$AA5?$AA?$AA@
	mov	DWORD PTR [rsp+2888], 30
	mov	DWORD PTR [rsp+2880], -1073740800	; ffffffffc0000400H
	mov	DWORD PTR [rsp+2872], 1047		; 00000417H
	mov	DWORD PTR [rsp+2864], 8
	mov	DWORD PTR [rsp+2856], -1073741821	; ffffffffc0000003H
	mov	DWORD PTR [rsp+2848], 19
	mov	DWORD PTR [rsp+2840], -1073741816	; ffffffffc0000008H
	mov	DWORD PTR [rsp+2832], 21
	mov	DWORD PTR [rsp+2824], -1073741817	; ffffffffc0000007H
	mov	DWORD PTR [rsp+2816], 87		; 00000057H
	mov	DWORD PTR [rsp+2808], 512		; 00000200H
	mov	DWORD PTR [rsp+2800], 15
	mov	QWORD PTR [r11-400], rax
	lea	rax, OFFSET FLAT:??_C@_1BM@LPCPHLGG@?$AAb?$AAm?$AAa?$AAp?$AA1?$AA4?$AAE?$AAn?$AAa?$AAb?$AAl?$AAe?$AAd?$AA?$AA@
	mov	DWORD PTR [rsp+2784], 14
	mov	DWORD PTR [rsp+2776], -1073740800	; ffffffffc0000400H
	mov	DWORD PTR [rsp+2768], 1653		; 00000675H
	mov	DWORD PTR [rsp+2760], 2
	mov	DWORD PTR [rsp+2752], -1073741821	; ffffffffc0000003H
	mov	DWORD PTR [rsp+2744], 1
	mov	DWORD PTR [rsp+2736], -1073741824	; ffffffffc0000000H
	mov	DWORD PTR [rsp+2728], 102		; 00000066H
	mov	QWORD PTR [r11-472], rcx
	mov	DWORD PTR [rsp+2712], 4
	mov	QWORD PTR [r11-488], rax
	lea	rax, OFFSET FLAT:??_C@_1O@NHBAOFHK@?$AAb?$AAm?$AAa?$AAp?$AA1?$AA4?$AA?$AA@
	mov	DWORD PTR [rsp+2696], 29
	mov	DWORD PTR [rsp+2688], -1073740800	; ffffffffc0000400H
	mov	DWORD PTR [rsp+2680], 1046		; 00000416H
	mov	DWORD PTR [rsp+2672], 8
	mov	DWORD PTR [rsp+2664], -1073741821	; ffffffffc0000003H
	mov	DWORD PTR [rsp+2656], 18
	mov	DWORD PTR [rsp+2648], -1073741816	; ffffffffc0000008H
	mov	DWORD PTR [rsp+2640], 20
	mov	DWORD PTR [rsp+2632], -1073741817	; ffffffffc0000007H
	mov	DWORD PTR [rsp+2624], 86		; 00000056H
	mov	DWORD PTR [rsp+2616], 512		; 00000200H
	mov	DWORD PTR [rsp+2608], 15
	mov	QWORD PTR [r11-592], rax
	mov	DWORD PTR [rsp+2592], 13
	lea	rax, OFFSET FLAT:??_C@_1BM@FOABHBAC@?$AAb?$AAm?$AAa?$AAp?$AA1?$AA3?$AAE?$AAn?$AAa?$AAb?$AAl?$AAe?$AAd?$AA?$AA@
	mov	DWORD PTR [rsp+2584], -1073740800	; ffffffffc0000400H
	mov	DWORD PTR [rsp+2576], 1652		; 00000674H
	mov	DWORD PTR [rsp+2568], 2
	mov	DWORD PTR [rsp+2560], -1073741821	; ffffffffc0000003H
	mov	DWORD PTR [rsp+2552], 1
	mov	DWORD PTR [rsp+2544], -1073741824	; ffffffffc0000000H
	mov	DWORD PTR [rsp+2536], 101		; 00000065H
	mov	QWORD PTR [r11-664], rcx
	mov	DWORD PTR [rsp+2520], 4
	mov	QWORD PTR [r11-680], rax
	lea	rax, OFFSET FLAT:??_C@_1O@EKMHNNMD@?$AAb?$AAm?$AAa?$AAp?$AA1?$AA3?$AA?$AA@
	mov	DWORD PTR [rsp+2504], 28
	mov	DWORD PTR [rsp+2496], -1073740800	; ffffffffc0000400H
	mov	DWORD PTR [rsp+2488], 1045		; 00000415H
	mov	DWORD PTR [rsp+2480], 8
	mov	DWORD PTR [rsp+2472], -1073741821	; ffffffffc0000003H
	mov	DWORD PTR [rsp+2464], 17
	mov	DWORD PTR [rsp+2456], -1073741816	; ffffffffc0000008H
	mov	DWORD PTR [rsp+2448], 19
	mov	DWORD PTR [rsp+2440], -1073741817	; ffffffffc0000007H
	mov	DWORD PTR [rsp+2432], 85		; 00000055H
	mov	DWORD PTR [rsp+2424], 512		; 00000200H
	mov	DWORD PTR [rsp+2416], 15
	mov	QWORD PTR [r11-784], rax
	lea	rax, OFFSET FLAT:??_C@_1BM@LBFDMHOD@?$AAb?$AAm?$AAa?$AAp?$AA1?$AA2?$AAE?$AAn?$AAa?$AAb?$AAl?$AAe?$AAd?$AA?$AA@
	mov	DWORD PTR [rsp+2400], 12
	mov	DWORD PTR [rsp+2392], -1073740800	; ffffffffc0000400H
	mov	DWORD PTR [rsp+2384], 1651		; 00000673H
	mov	DWORD PTR [rsp+2376], 2
	mov	DWORD PTR [rsp+2368], -1073741821	; ffffffffc0000003H
	mov	DWORD PTR [rsp+2360], 1
	mov	DWORD PTR [rsp+2352], -1073741824	; ffffffffc0000000H
	mov	DWORD PTR [rsp+2344], 100		; 00000064H
	mov	QWORD PTR [r11-856], rcx
	mov	DWORD PTR [rsp+2328], 4
	mov	QWORD PTR [r11-872], rax
	lea	rax, OFFSET FLAT:??_C@_1O@PCHLLKKG@?$AAb?$AAm?$AAa?$AAp?$AA1?$AA2?$AA?$AA@
	mov	DWORD PTR [rsp+2312], 27
	mov	DWORD PTR [rsp+2304], -1073740800	; ffffffffc0000400H
	mov	DWORD PTR [rsp+2296], 1044		; 00000414H
	mov	DWORD PTR [rsp+2288], 8
	mov	DWORD PTR [rsp+2280], -1073741821	; ffffffffc0000003H
	mov	DWORD PTR [rsp+2272], 16
	mov	DWORD PTR [rsp+2264], -1073741816	; ffffffffc0000008H
	mov	DWORD PTR [rsp+2256], 18
	mov	DWORD PTR [rsp+2248], -1073741817	; ffffffffc0000007H
	mov	DWORD PTR [rsp+2240], 84		; 00000054H
	mov	DWORD PTR [rsp+2232], 512		; 00000200H
	mov	DWORD PTR [rsp+2224], 15
	mov	QWORD PTR [r11-976], rax
	lea	rax, OFFSET FLAT:??_C@_1BM@FLNFBKIB@?$AAb?$AAm?$AAa?$AAp?$AA1?$AA1?$AAE?$AAn?$AAa?$AAb?$AAl?$AAe?$AAd?$AA?$AA@
	mov	DWORD PTR [rsp+2208], 11
	mov	DWORD PTR [rsp+2200], -1073740800	; ffffffffc0000400H
	mov	DWORD PTR [rsp+2192], 1650		; 00000672H
	mov	DWORD PTR [rsp+2184], 2
	mov	DWORD PTR [rsp+2176], -1073741821	; ffffffffc0000003H
	mov	DWORD PTR [rsp+2168], 1
	mov	DWORD PTR [rsp+2160], -1073741824	; ffffffffc0000000H
	mov	DWORD PTR [rsp+2152], 99		; 00000063H
	mov	QWORD PTR [r11-1048], rcx
	mov	DWORD PTR [rsp+2136], 4
	mov	QWORD PTR [r11-1064], rax
	lea	rax, OFFSET FLAT:??_C@_1O@OAMOBFEI@?$AAb?$AAm?$AAa?$AAp?$AA1?$AA1?$AA?$AA@
	mov	DWORD PTR [rsp+2120], 26
	mov	DWORD PTR [rsp+2112], -1073740800	; ffffffffc0000400H
	mov	DWORD PTR [rsp+2104], 1043		; 00000413H
	mov	DWORD PTR [rsp+2096], 8
	mov	DWORD PTR [rsp+2088], -1073741821	; ffffffffc0000003H
	mov	DWORD PTR [rsp+2080], 15
	mov	DWORD PTR [rsp+2072], -1073741816	; ffffffffc0000008H
	mov	DWORD PTR [rsp+2064], 17
	mov	DWORD PTR [rsp+2056], -1073741817	; ffffffffc0000007H
	mov	DWORD PTR [rsp+2048], 83		; 00000053H
	mov	DWORD PTR [rsp+2040], 512		; 00000200H
	mov	DWORD PTR [rsp+2032], 15
	mov	QWORD PTR [r11-1168], rax
	mov	DWORD PTR [rsp+2016], 10
	mov	DWORD PTR [rsp+2008], -1073740800	; ffffffffc0000400H
	mov	DWORD PTR [rsp+2000], 1649		; 00000671H
	mov	DWORD PTR [rsp+1992], 2
	lea	rax, OFFSET FLAT:??_C@_1BM@LEIHKMGA@?$AAb?$AAm?$AAa?$AAp?$AA1?$AA0?$AAE?$AAn?$AAa?$AAb?$AAl?$AAe?$AAd?$AA?$AA@
	mov	DWORD PTR [rsp+1984], -1073741821	; ffffffffc0000003H
	mov	DWORD PTR [rsp+1976], 1
	mov	DWORD PTR [rsp+1968], -1073741824	; ffffffffc0000000H
	mov	DWORD PTR [rsp+1960], 98		; 00000062H
	mov	QWORD PTR [r11-1240], rcx
	mov	DWORD PTR [rsp+1944], 4
	mov	QWORD PTR [r11-1256], rax
	lea	rax, OFFSET FLAT:??_C@_1O@FIHCHCCN@?$AAb?$AAm?$AAa?$AAp?$AA1?$AA0?$AA?$AA@
	mov	DWORD PTR [rsp+1928], 25
	mov	DWORD PTR [rsp+1920], -1073740800	; ffffffffc0000400H
	mov	DWORD PTR [rsp+1912], 1042		; 00000412H
	mov	DWORD PTR [rsp+1904], 8
	mov	DWORD PTR [rsp+1896], -1073741821	; ffffffffc0000003H
	mov	DWORD PTR [rsp+1888], 14
	mov	DWORD PTR [rsp+1880], -1073741816	; ffffffffc0000008H
	mov	DWORD PTR [rsp+1872], 16
	mov	DWORD PTR [rsp+1864], -1073741817	; ffffffffc0000007H
	mov	DWORD PTR [rsp+1856], 82		; 00000052H
	mov	DWORD PTR [rsp+1848], 512		; 00000200H
	mov	DWORD PTR [rsp+1840], 15
	mov	QWORD PTR [r11-1360], rax
	lea	rax, OFFSET FLAT:??_C@_1BK@ODBCCCCG@?$AAb?$AAm?$AAa?$AAp?$AA9?$AAE?$AAn?$AAa?$AAb?$AAl?$AAe?$AAd?$AA?$AA@
	mov	DWORD PTR [rsp+1824], 9
	mov	DWORD PTR [rsp+1816], -1073740800	; ffffffffc0000400H
	mov	DWORD PTR [rsp+1808], 1648		; 00000670H
	mov	DWORD PTR [rsp+1800], 2
	mov	DWORD PTR [rsp+1792], -1073741821	; ffffffffc0000003H
	mov	DWORD PTR [rsp+1784], 1
	mov	DWORD PTR [rsp+1776], -1073741824	; ffffffffc0000000H
	mov	DWORD PTR [rsp+1768], 97		; 00000061H
	mov	QWORD PTR [r11-1432], rcx
	mov	DWORD PTR [rsp+1752], 4
	mov	QWORD PTR [r11-1448], rax
	lea	rax, OFFSET FLAT:??_C@_1M@POBKFOAI@?$AAb?$AAm?$AAa?$AAp?$AA9?$AA?$AA@
	mov	DWORD PTR [rsp+1736], 24
	mov	DWORD PTR [rsp+1728], -1073740800	; ffffffffc0000400H
	mov	DWORD PTR [rsp+1720], 1041		; 00000411H
	mov	DWORD PTR [rsp+1712], 8
	mov	DWORD PTR [rsp+1704], -1073741821	; ffffffffc0000003H
	mov	DWORD PTR [rsp+1696], 13
	mov	DWORD PTR [rsp+1688], -1073741816	; ffffffffc0000008H
	mov	DWORD PTR [rsp+1680], 15
	mov	DWORD PTR [rsp+1672], -1073741817	; ffffffffc0000007H
	mov	DWORD PTR [rsp+1664], 81		; 00000051H
	mov	DWORD PTR [rsp+1656], 512		; 00000200H
	mov	DWORD PTR [rsp+1648], 15
	mov	QWORD PTR [r11-1552], rax
	lea	rax, OFFSET FLAT:??_C@_1BK@MEAJEMH@?$AAb?$AAm?$AAa?$AAp?$AA8?$AAE?$AAn?$AAa?$AAb?$AAl?$AAe?$AAd?$AA?$AA@
	mov	DWORD PTR [rsp+1632], 8
	mov	DWORD PTR [rsp+1624], -1073740800	; ffffffffc0000400H
	mov	DWORD PTR [rsp+1616], 1647		; 0000066fH
	mov	DWORD PTR [rsp+1608], 2
	mov	DWORD PTR [rsp+1600], -1073741821	; ffffffffc0000003H
	mov	DWORD PTR [rsp+1592], 1
	mov	DWORD PTR [rsp+1584], -1073741824	; ffffffffc0000000H
	mov	DWORD PTR [rsp+1576], 96		; 00000060H
	mov	QWORD PTR [r11-1624], rcx
	mov	DWORD PTR [rsp+1560], 4
	mov	QWORD PTR [r11-1640], rax
	lea	rax, OFFSET FLAT:??_C@_1M@EGKGDJGN@?$AAb?$AAm?$AAa?$AAp?$AA8?$AA?$AA@
	mov	DWORD PTR [rsp+1544], 23
	mov	DWORD PTR [rsp+1536], -1073740800	; ffffffffc0000400H
	mov	DWORD PTR [rsp+1528], 1040		; 00000410H
	mov	DWORD PTR [rsp+1520], 8
	mov	DWORD PTR [rsp+1512], -1073741821	; ffffffffc0000003H
	mov	DWORD PTR [rsp+1504], 12
	mov	DWORD PTR [rsp+1496], -1073741816	; ffffffffc0000008H
	mov	DWORD PTR [rsp+1488], 14
	mov	DWORD PTR [rsp+1480], -1073741817	; ffffffffc0000007H
	mov	DWORD PTR [rsp+1472], 80		; 00000050H
	mov	DWORD PTR [rsp+1464], 512		; 00000200H
	mov	DWORD PTR [rsp+1456], 15
	mov	QWORD PTR [r11-1744], rax
	mov	DWORD PTR [rsp+1440], 7
	mov	DWORD PTR [rsp+1432], -1073740800	; ffffffffc0000400H
	mov	DWORD PTR [rsp+1424], 1646		; 0000066eH
	mov	DWORD PTR [rsp+1416], 2
	mov	DWORD PTR [rsp+1408], -1073741821	; ffffffffc0000003H
	mov	DWORD PTR [rsp+1400], 1
	mov	DWORD PTR [rsp+1392], -1073741824	; ffffffffc0000000H
	lea	rax, OFFSET FLAT:??_C@_1BK@PKDPDAKP@?$AAb?$AAm?$AAa?$AAp?$AA7?$AAE?$AAn?$AAa?$AAb?$AAl?$AAe?$AAd?$AA?$AA@
	mov	DWORD PTR [rsp+1384], 95		; 0000005fH
	mov	QWORD PTR [r11-1816], rcx
	mov	DWORD PTR [rsp+1368], 4
	mov	QWORD PTR [r11-1832], rax
	lea	rax, OFFSET FLAT:??_C@_1M@BOMFCJDL@?$AAb?$AAm?$AAa?$AAp?$AA7?$AA?$AA@
	mov	DWORD PTR [rsp+1352], 22
	mov	DWORD PTR [rsp+1344], -1073740800	; ffffffffc0000400H
	mov	DWORD PTR [rsp+1336], 1039		; 0000040fH
	mov	DWORD PTR [rsp+1328], 8
	mov	DWORD PTR [rsp+1320], -1073741821	; ffffffffc0000003H
	mov	DWORD PTR [rsp+1312], 11
	mov	DWORD PTR [rsp+1304], -1073741816	; ffffffffc0000008H
	mov	DWORD PTR [rsp+1296], 13
	mov	DWORD PTR [rsp+1288], -1073741817	; ffffffffc0000007H
	mov	DWORD PTR [rsp+1280], 79		; 0000004fH
	mov	DWORD PTR [rsp+1272], 512		; 00000200H
	mov	DWORD PTR [rsp+1264], 15
	mov	QWORD PTR [r11-1936], rax
	lea	rax, OFFSET FLAT:??_C@_1BK@BFGNIGEO@?$AAb?$AAm?$AAa?$AAp?$AA6?$AAE?$AAn?$AAa?$AAb?$AAl?$AAe?$AAd?$AA?$AA@
	mov	DWORD PTR [rsp+1248], edx
	mov	DWORD PTR [rsp+1240], -1073740800	; ffffffffc0000400H
	mov	DWORD PTR [rsp+1232], 1645		; 0000066dH
	mov	DWORD PTR [rsp+1224], 2
	mov	DWORD PTR [rsp+1216], -1073741821	; ffffffffc0000003H
	mov	DWORD PTR [rsp+1208], 1
	mov	DWORD PTR [rsp+1200], -1073741824	; ffffffffc0000000H
	mov	DWORD PTR [rsp+1192], 94		; 0000005eH
	mov	QWORD PTR [r11-2008], rcx
	mov	DWORD PTR [rsp+1176], 4
	mov	QWORD PTR [r11-2024], rax
	lea	rax, OFFSET FLAT:??_C@_1M@KGHJEOFO@?$AAb?$AAm?$AAa?$AAp?$AA6?$AA?$AA@
	mov	DWORD PTR [rsp+1160], 21
	mov	DWORD PTR [rsp+1152], -1073740800	; ffffffffc0000400H
	mov	DWORD PTR [rsp+1144], 1038		; 0000040eH
	mov	DWORD PTR [rsp+1136], 8
	mov	DWORD PTR [rsp+1128], -1073741821	; ffffffffc0000003H
	mov	DWORD PTR [rsp+1120], 10
