; Listing generated by Microsoft (R) Optimizing Compiler Version 19.16.27031.1 

include listing.inc

INCLUDELIB MSVCRT
INCLUDELIB OLDNAMES

PUBLIC	?SetUserDlgProc@ClassDesc2@@UEAA_NPEAVParamBlockDesc2@@PEAVParamMap2UserDlgProc@@@Z ; ClassDesc2::SetUserDlgProc
PUBLIC	?CreateQtWidget@ClassDesc2@@UEAAPEAVQMaxParamBlockWidget@MaxSDK@@AEAVReferenceMaker@@AEAVIParamBlock2@@FAEAVWStr@@AEAH3@Z ; ClassDesc2::CreateQtWidget
PUBLIC	??_C@_1O@ILILCEBJ@?$AAi?$AA?5?$AA?$DO?$AA?$DN?$AA?5?$AA0@ ; `string'
PUBLIC	??_R0?AVMaxHeapOperators@@@8			; MaxHeapOperators `RTTI Type Descriptor'
PUBLIC	_CT??_R0?AVMaxHeapOperators@@@818
PUBLIC	?BeginCreate@ClassDesc@@UEAAHPEAVInterface@@@Z	; ClassDesc::BeginCreate
PUBLIC	?EndCreate@ClassDesc@@UEAAHPEAVInterface@@@Z	; ClassDesc::EndCreate
PUBLIC	?OkToCreate@ClassDesc@@UEAAHPEAVInterface@@@Z	; ClassDesc::OkToCreate
PUBLIC	?HasClassParams@ClassDesc@@UEAAHXZ		; ClassDesc::HasClassParams
PUBLIC	?EditClassParams@ClassDesc@@UEAAXPEAUHWND__@@@Z	; ClassDesc::EditClassParams
PUBLIC	?NumActionTables@ClassDesc@@UEAAHXZ		; ClassDesc::NumActionTables
PUBLIC	?GetActionTable@ClassDesc@@UEAAPEAVActionTable@@H@Z ; ClassDesc::GetActionTable
PUBLIC	?IsManipulator@ClassDesc@@UEAAHXZ		; ClassDesc::IsManipulator
PUBLIC	?CanManipulate@ClassDesc@@UEAAHPEAVReferenceTarget@@@Z ; ClassDesc::CanManipulate
PUBLIC	?CanManipulateNode@ClassDesc@@UEAAHPEAVINode@@@Z ; ClassDesc::CanManipulateNode
PUBLIC	?CreateManipulator@ClassDesc@@UEAAPEAVManipulator@@PEAVReferenceTarget@@PEAVINode@@@Z ; ClassDesc::CreateManipulator
PUBLIC	?CreateManipulator@ClassDesc@@UEAAPEAVManipulator@@PEAVINode@@@Z ; ClassDesc::CreateManipulator
PUBLIC	?NeedsToSave@ClassDesc@@UEAAHXZ			; ClassDesc::NeedsToSave
PUBLIC	?Save@ClassDesc@@UEAA?AW4IOResult@@PEAVISave@@@Z ; ClassDesc::Save
PUBLIC	?Load@ClassDesc@@UEAA?AW4IOResult@@PEAVILoad@@@Z ; ClassDesc::Load
PUBLIC	?InitialRollupPageState@ClassDesc@@UEAAKXZ	; ClassDesc::InitialRollupPageState
PUBLIC	?UseOnlyInternalNameForMAXScriptExposure@ClassDesc@@UEAA_NXZ ; ClassDesc::UseOnlyInternalNameForMAXScriptExposure
PUBLIC	?GetParamMap@ClassDesc@@UEAAPEAVIParamMap2@@PEAVParamBlockDesc2@@@Z ; ClassDesc::GetParamMap
PUBLIC	?GetUserDlgProc@ClassDesc@@UEAAPEAVParamMap2UserDlgProc@@PEAVParamBlockDesc2@@@Z ; ClassDesc::GetUserDlgProc
PUBLIC	?DrawRepresentation@ClassDesc@@UEAA_NKPEAUHDC__@@AEAVBox2@@@Z ; ClassDesc::DrawRepresentation
PUBLIC	?NumInterfaces@ClassDesc@@UEAAHXZ		; ClassDesc::NumInterfaces
PUBLIC	?GetInterfaceAt@ClassDesc@@UEAAPEAVFPInterface@@H@Z ; ClassDesc::GetInterfaceAt
PUBLIC	?ClearInterfaces@ClassDesc@@UEAAXXZ		; ClassDesc::ClearInterfaces
PUBLIC	?SubClassID@ClassDesc@@UEAA?AVClass_ID@@XZ	; ClassDesc::SubClassID
PUBLIC	?Execute@ClassDesc@@UEAA_JH_K00@Z		; ClassDesc::Execute
PUBLIC	?What@TabOutOfRangeException@Util@MaxSDK@@UEBAPEB_WXZ ; MaxSDK::Util::TabOutOfRangeException::What
PUBLIC	??1TabOutOfRangeException@Util@MaxSDK@@UEAA@XZ	; MaxSDK::Util::TabOutOfRangeException::~TabOutOfRangeException
PUBLIC	??0TabOutOfRangeException@Util@MaxSDK@@QEAA@AEBV012@@Z ; MaxSDK::Util::TabOutOfRangeException::TabOutOfRangeException
PUBLIC	??_7TabOutOfRangeException@Util@MaxSDK@@6B@	; MaxSDK::Util::TabOutOfRangeException::`vftable'
PUBLIC	??_GTabOutOfRangeException@Util@MaxSDK@@UEAAPEAXI@Z ; MaxSDK::Util::TabOutOfRangeException::`scalar deleting destructor'
PUBLIC	??_C@_1EK@FOLBONAG@?$AAM?$AAa?$AAx?$AAS?$AAD?$AAK?$AA?3?$AA?3?$AAU?$AAt?$AAi?$AAl?$AA?3?$AA?3?$AAT@ ; `string'
PUBLIC	??_R0?AVClassDesc2@@@8				; ClassDesc2 `RTTI Type Descriptor'
PUBLIC	??_7XYZ_Desc@@6B@				; XYZ_Desc::`vftable'
PUBLIC	??_GXYZ_Desc@@UEAAPEAXI@Z			; XYZ_Desc::`scalar deleting destructor'
PUBLIC	??_C@_1BM@LCALCDFD@?$AAx?$AAy?$AAz?$AA_?$AAf?$AAi?$AAl?$AAt?$AAe?$AAr?$AAi?$AAn?$AAg@ ; `string'
PUBLIC	??_C@_1BC@JCCAEAIN@?$AAx?$AAy?$AAz?$AA_?$AAl?$AAo?$AAc?$AAk@ ; `string'
PUBLIC	??_C@_1BK@FLPLJMAJ@?$AAx?$AAy?$AAz?$AA_?$AAa?$AAn?$AAg?$AAl?$AAe?$AA_?$AAz?$AA2@ ; `string'
PUBLIC	??_C@_1BK@NNGPOOKH@?$AAx?$AAy?$AAz?$AA_?$AAa?$AAn?$AAg?$AAl?$AAe?$AA_?$AAy?$AA2@ ; `string'
PUBLIC	??_C@_1BK@BGDDDNAC@?$AAx?$AAy?$AAz?$AA_?$AAa?$AAn?$AAg?$AAl?$AAe?$AA_?$AAx?$AA2@ ; `string'
PUBLIC	??_C@_1BI@MHJCJGME@?$AAx?$AAy?$AAz?$AA_?$AAs?$AAi?$AAz?$AAe?$AA_?$AAz?$AA2@ ; `string'
PUBLIC	??_C@_1BI@EBAGOEGK@?$AAx?$AAy?$AAz?$AA_?$AAs?$AAi?$AAz?$AAe?$AA_?$AAy?$AA2@ ; `string'
PUBLIC	??_C@_1BI@IKFKDHMP@?$AAx?$AAy?$AAz?$AA_?$AAs?$AAi?$AAz?$AAe?$AA_?$AAx?$AA2@ ; `string'
PUBLIC	??_C@_1BM@HJOOPID@?$AAx?$AAy?$AAz?$AA_?$AAo?$AAf?$AAf?$AAs?$AAe?$AAt?$AA_?$AAz?$AA2@ ; `string'
PUBLIC	??_C@_1BM@IBAKJNCN@?$AAx?$AAy?$AAz?$AA_?$AAo?$AAf?$AAf?$AAs?$AAe?$AAt?$AA_?$AAy?$AA2@ ; `string'
PUBLIC	??_C@_1BM@EKFGEOII@?$AAx?$AAy?$AAz?$AA_?$AAo?$AAf?$AAf?$AAs?$AAe?$AAt?$AA_?$AAx?$AA2@ ; `string'
PUBLIC	??_C@_1BE@PALBIMHK@?$AAr?$AAa?$AAn?$AAd?$AAB?$AAy?$AAP?$AAa?$AAr@ ; `string'
PUBLIC	??_C@_1BE@EGBDKCCD@?$AAr?$AAa?$AAn?$AAd?$AAB?$AAy?$AAO?$AAb?$AAj@ ; `string'
PUBLIC	??_C@_1BE@DCGEPHFM@?$AAr?$AAa?$AAn?$AAd?$AAB?$AAy?$AAM?$AAa?$AAt@ ; `string'
PUBLIC	??_C@_19HFHNPJHA@?$AAs?$AAe?$AAe?$AAd@		; `string'
PUBLIC	??_C@_1BG@EDCBABDD@?$AAx?$AAy?$AAz?$AA_?$AAt?$AAi?$AAl?$AAe?$AA_?$AAz@ ; `string'
PUBLIC	??_C@_1BG@FBJEKONN@?$AAx?$AAy?$AAz?$AA_?$AAt?$AAi?$AAl?$AAe?$AA_?$AAy@ ; `string'
PUBLIC	??_C@_1BG@OJCIMJLI@?$AAx?$AAy?$AAz?$AA_?$AAt?$AAi?$AAl?$AAe?$AA_?$AAx@ ; `string'
PUBLIC	??_C@_1BI@LALGELMD@?$AAx?$AAy?$AAz?$AA_?$AAa?$AAn?$AAg?$AAl?$AAe?$AA_?$AAz@ ; `string'
PUBLIC	??_C@_1BI@KCADOECN@?$AAx?$AAy?$AAz?$AA_?$AAa?$AAn?$AAg?$AAl?$AAe?$AA_?$AAy@ ; `string'
PUBLIC	??_C@_1BI@BKLPIDEI@?$AAx?$AAy?$AAz?$AA_?$AAa?$AAn?$AAg?$AAl?$AAe?$AA_?$AAx@ ; `string'
PUBLIC	??_C@_1BG@MFMFKFM@?$AAx?$AAy?$AAz?$AA_?$AAs?$AAi?$AAz?$AAe?$AA_?$AAz@ ; `string'
PUBLIC	??_C@_1BG@BOOJPFLC@?$AAx?$AAy?$AAz?$AA_?$AAs?$AAi?$AAz?$AAe?$AA_?$AAy@ ; `string'
PUBLIC	??_C@_1BG@KGFFJCNH@?$AAx?$AAy?$AAz?$AA_?$AAs?$AAi?$AAz?$AAe?$AA_?$AAx@ ; `string'
PUBLIC	??_C@_1BK@HPJLBIGD@?$AAx?$AAy?$AAz?$AA_?$AAo?$AAf?$AAf?$AAs?$AAe?$AAt?$AA_?$AAz@ ; `string'
PUBLIC	??_C@_1BK@GNCOLHIN@?$AAx?$AAy?$AAz?$AA_?$AAo?$AAf?$AAf?$AAs?$AAe?$AAt?$AA_?$AAy@ ; `string'
PUBLIC	??_C@_1BK@NFJCNAOI@?$AAx?$AAy?$AAz?$AA_?$AAo?$AAf?$AAf?$AAs?$AAe?$AAt?$AA_?$AAx@ ; `string'
PUBLIC	??_C@_1BC@BDPIEDCA@?$AAx?$AAy?$AAz?$AA_?$AAc?$AAh?$AAa?$AAn@ ; `string'
PUBLIC	??_C@_1BA@JOBDKJKA@?$AAx?$AAy?$AAz?$AA_?$AAm?$AAa?$AAp@ ; `string'
PUBLIC	??_C@_1BA@KMAKHADK@?$AAM?$AAa?$AAp?$AAp?$AAi?$AAn?$AAg@ ; `string'
PUBLIC	?texoutDlg@BerconNoise@@2PEAVParamDlg@@EA	; BerconNoise::texoutDlg
PUBLIC	?IsPublic@BerconNoiseClassDesc@@UEAAHXZ		; BerconNoiseClassDesc::IsPublic
PUBLIC	?Create@BerconNoiseClassDesc@@UEAAPEAXH@Z	; BerconNoiseClassDesc::Create
PUBLIC	?ClassName@BerconNoiseClassDesc@@UEAAPEB_WXZ	; BerconNoiseClassDesc::ClassName
PUBLIC	?SuperClassID@BerconNoiseClassDesc@@UEAAKXZ	; BerconNoiseClassDesc::SuperClassID
PUBLIC	?ClassID@BerconNoiseClassDesc@@UEAA?AVClass_ID@@XZ ; BerconNoiseClassDesc::ClassID
PUBLIC	?Category@BerconNoiseClassDesc@@UEAAPEB_WXZ	; BerconNoiseClassDesc::Category
PUBLIC	?InternalName@BerconNoiseClassDesc@@UEAAPEB_WXZ	; BerconNoiseClassDesc::InternalName
PUBLIC	?HInstance@BerconNoiseClassDesc@@UEAAPEAUHINSTANCE__@@XZ ; BerconNoiseClassDesc::HInstance
PUBLIC	??_7BerconNoiseClassDesc@@6B@			; BerconNoiseClassDesc::`vftable'
PUBLIC	??_GBerconNoiseClassDesc@@UEAAPEAXI@Z		; BerconNoiseClassDesc::`scalar deleting destructor'
PUBLIC	??_C@_1BI@OFHJLFOO@?$AAB?$AAe?$AAr?$AAc?$AAo?$AAn?$AAN?$AAo?$AAi?$AAs?$AAe@ ; `string'
PUBLIC	??_C@_1O@KEKEFEMI@?$AAo?$AAu?$AAt?$AAp?$AAu?$AAt@ ; `string'
PUBLIC	??_C@_1BM@NGCAEKNK@?$AAU?$AAV?$AAW?$AAd?$AAi?$AAs?$AAt?$AAo?$AAr?$AAt?$AAi?$AAo?$AAn@ ; `string'
PUBLIC	??_C@_1BM@HCNKLGAJ@?$AAu?$AAs?$AAe?$AAD?$AAi?$AAs?$AAt?$AAo?$AAr?$AAt?$AAi?$AAo?$AAn@ ; `string'
PUBLIC	??_C@_1BM@DKGEJKPL@?$AAd?$AAi?$AAs?$AAt?$AAo?$AAr?$AAt?$AAi?$AAo?$AAn?$AAS?$AAt?$AAr@ ; `string'
PUBLIC	??_C@_19FAEGNKFL@?$AAm?$AAa?$AAp?$AA4@		; `string'
PUBLIC	??_C@_19MNJBOCOC@?$AAm?$AAa?$AAp?$AA3@		; `string'
PUBLIC	??_C@_1CE@MPOFFPKF@?$AAf?$AAr?$AAa?$AAc?$AAt?$AAa?$AAl?$AAL?$AAa?$AAc?$AAu?$AAn?$AAa?$AAr?$AAi@ ; `string'
PUBLIC	??_C@_1BC@KFPODIIO@?$AAf?$AAr?$AAa?$AAc?$AAt?$AAa?$AAl?$AAH@ ; `string'
PUBLIC	??_C@_1BM@HCLHIJIH@?$AAf?$AAr?$AAa?$AAc?$AAt?$AAa?$AAl?$AAO?$AAf?$AAf?$AAs?$AAe?$AAt@ ; `string'
PUBLIC	??_C@_1BI@BFKJFNPK@?$AAf?$AAr?$AAa?$AAc?$AAt?$AAa?$AAl?$AAG?$AAa?$AAi?$AAn@ ; `string'
PUBLIC	??_C@_1O@FNHNBIHH@?$AAl?$AAe?$AAv?$AAe?$AAl?$AAs@ ; `string'
PUBLIC	??_C@_1BI@IFLGJJNN@?$AAf?$AAr?$AAa?$AAc?$AAt?$AAa?$AAl?$AAT?$AAy?$AAp?$AAe@ ; `string'
PUBLIC	??_C@_1BK@IIBHKCH@?$AAw?$AAo?$AAr?$AAl?$AAe?$AAy?$AAS?$AAp?$AAr?$AAe?$AAa?$AAd@ ; `string'
PUBLIC	??_C@_17JKAADOJI@?$AAw?$AAF?$AA4@		; `string'
PUBLIC	??_C@_17HNHAGCB@?$AAw?$AAF?$AA3@		; `string'
PUBLIC	??_C@_17LPGLGBEE@?$AAw?$AAF?$AA2@		; `string'
PUBLIC	??_C@_17KNNOMOKK@?$AAw?$AAF?$AA1@		; `string'
PUBLIC	??_C@_1BO@KFPLBLON@?$AAw?$AAo?$AAr?$AAl?$AAe?$AAy?$AAD?$AAi?$AAs?$AAt?$AAa?$AAn?$AAc?$AAe@ ; `string'
PUBLIC	??_C@_1BO@FFCIKJO@?$AAn?$AAo?$AAi?$AAs?$AAe?$AA_?$AAf?$AAu?$AAn?$AAc?$AAt?$AAi?$AAo?$AAn@ ; `string'
PUBLIC	??_C@_1M@PPFPCEJL@?$AAp?$AAh?$AAa?$AAs?$AAe@	; `string'
PUBLIC	??_C@_1BM@FDGPINOP@?$AAt?$AAh?$AAr?$AAe?$AAs?$AAh?$AAo?$AAl?$AAd?$AAH?$AAi?$AAg?$AAh@ ; `string'
PUBLIC	??_C@_1BK@GHPMGGPJ@?$AAt?$AAh?$AAr?$AAe?$AAs?$AAh?$AAo?$AAl?$AAd?$AAL?$AAo?$AAw@ ; `string'
PUBLIC	??_C@_19GIOODLBE@?$AAs?$AAi?$AAz?$AAe@		; `string'
PUBLIC	??_C@_1BI@EMKNLJKH@?$AAm?$AAa?$AAp?$AA2?$AAE?$AAn?$AAa?$AAb?$AAl?$AAe?$AAd@ ; `string'
PUBLIC	??_C@_1BI@KGCLGEMF@?$AAm?$AAa?$AAp?$AA1?$AAE?$AAn?$AAa?$AAb?$AAl?$AAe?$AAd@ ; `string'
PUBLIC	??_C@_19HFCNIFIH@?$AAm?$AAa?$AAp?$AA2@		; `string'
PUBLIC	??_C@_19GHJICKGJ@?$AAm?$AAa?$AAp?$AA1@		; `string'
PUBLIC	??_C@_1O@FKOGBFLK@?$AAc?$AAo?$AAl?$AAo?$AAr?$AA2@ ; `string'
PUBLIC	??_C@_1O@EIFDLKFE@?$AAc?$AAo?$AAl?$AAo?$AAr?$AA1@ ; `string'
PUBLIC	??_C@_1O@FEMBPDGM@?$AAp?$AAa?$AAr?$AAa?$AAm?$AAs@ ; `string'
PUBLIC	??_C@_1BM@LPCPHLGG@?$AAb?$AAm?$AAa?$AAp?$AA1?$AA4?$AAE?$AAn?$AAa?$AAb?$AAl?$AAe?$AAd@ ; `string'
PUBLIC	??_C@_1O@NHBAOFHK@?$AAb?$AAm?$AAa?$AAp?$AA1?$AA4@ ; `string'
PUBLIC	??_C@_1BM@FOABHBAC@?$AAb?$AAm?$AAa?$AAp?$AA1?$AA3?$AAE?$AAn?$AAa?$AAb?$AAl?$AAe?$AAd@ ; `string'
PUBLIC	??_C@_1O@EKMHNNMD@?$AAb?$AAm?$AAa?$AAp?$AA1?$AA3@ ; `string'
PUBLIC	??_C@_1BM@LBFDMHOD@?$AAb?$AAm?$AAa?$AAp?$AA1?$AA2?$AAE?$AAn?$AAa?$AAb?$AAl?$AAe?$AAd@ ; `string'
PUBLIC	??_C@_1O@PCHLLKKG@?$AAb?$AAm?$AAa?$AAp?$AA1?$AA2@ ; `string'
PUBLIC	??_C@_1BM@FLNFBKIB@?$AAb?$AAm?$AAa?$AAp?$AA1?$AA1?$AAE?$AAn?$AAa?$AAb?$AAl?$AAe?$AAd@ ; `string'
PUBLIC	??_C@_1O@OAMOBFEI@?$AAb?$AAm?$AAa?$AAp?$AA1?$AA1@ ; `string'
PUBLIC	??_C@_1BM@LEIHKMGA@?$AAb?$AAm?$AAa?$AAp?$AA1?$AA0?$AAE?$AAn?$AAa?$AAb?$AAl?$AAe?$AAd@ ; `string'
PUBLIC	??_C@_1O@FIHCHCCN@?$AAb?$AAm?$AAa?$AAp?$AA1?$AA0@ ; `string'
PUBLIC	??_C@_1BK@ODBCCCCG@?$AAb?$AAm?$AAa?$AAp?$AA9?$AAE?$AAn?$AAa?$AAb?$AAl?$AAe?$AAd@ ; `string'
PUBLIC	??_C@_1M@POBKFOAI@?$AAb?$AAm?$AAa?$AAp?$AA9@	; `string'
PUBLIC	??_C@_1BK@MEAJEMH@?$AAb?$AAm?$AAa?$AAp?$AA8?$AAE?$AAn?$AAa?$AAb?$AAl?$AAe?$AAd@ ; `string'
PUBLIC	??_C@_1M@EGKGDJGN@?$AAb?$AAm?$AAa?$AAp?$AA8@	; `string'
PUBLIC	??_C@_1BK@PKDPDAKP@?$AAb?$AAm?$AAa?$AAp?$AA7?$AAE?$AAn?$AAa?$AAb?$AAl?$AAe?$AAd@ ; `string'
PUBLIC	??_C@_1M@BOMFCJDL@?$AAb?$AAm?$AAa?$AAp?$AA7@	; `string'
PUBLIC	??_C@_1BK@BFGNIGEO@?$AAb?$AAm?$AAa?$AAp?$AA6?$AAE?$AAn?$AAa?$AAb?$AAl?$AAe?$AAd@ ; `string'
PUBLIC	??_C@_1M@KGHJEOFO@?$AAb?$AAm?$AAa?$AAp?$AA6@	; `string'
PUBLIC	??_C@_1BK@PPOLFLCM@?$AAb?$AAm?$AAa?$AAp?$AA5?$AAE?$AAn?$AAa?$AAb?$AAl?$AAe?$AAd@ ; `string'
PUBLIC	??_C@_1M@LEMMOBLA@?$AAb?$AAm?$AAa?$AAp?$AA5@	; `string'
PUBLIC	??_C@_1BK@BALJONMN@?$AAb?$AAm?$AAa?$AAp?$AA4?$AAE?$AAn?$AAa?$AAb?$AAl?$AAe?$AAd@ ; `string'
PUBLIC	??_C@_1M@MHAIGNF@?$AAb?$AAm?$AAa?$AAp?$AA4@	; `string'
PUBLIC	??_C@_1BK@PBJHOHKJ@?$AAb?$AAm?$AAa?$AAp?$AA3?$AAE?$AAn?$AAa?$AAb?$AAl?$AAe?$AAd@ ; `string'
PUBLIC	??_C@_1M@JBKHLOGM@?$AAb?$AAm?$AAa?$AAp?$AA3@	; `string'
PUBLIC	??_C@_1BK@BOMFFBEI@?$AAb?$AAm?$AAa?$AAp?$AA2?$AAE?$AAn?$AAa?$AAb?$AAl?$AAe?$AAd@ ; `string'
PUBLIC	??_C@_1M@CJBLNJAJ@?$AAb?$AAm?$AAa?$AAp?$AA2@	; `string'
PUBLIC	??_C@_1BK@PEEDIMCK@?$AAb?$AAm?$AAa?$AAp?$AA1?$AAE?$AAn?$AAa?$AAb?$AAl?$AAe?$AAd@ ; `string'
PUBLIC	??_C@_1M@DLKOHGOH@?$AAb?$AAm?$AAa?$AAp?$AA1@	; `string'
PUBLIC	??_C@_15CABMMOGH@?$AAt?$AAh@			; `string'
PUBLIC	??_C@_1IA@LGDLJFJ@?$AAc?$AA?3?$AA?2?$AAp?$AAr?$AAo?$AAg?$AAr?$AAa?$AAm?$AA?5?$AAf?$AAi?$AAl?$AAe@ ; `string'
PUBLIC	??_C@_1CI@OKLGNBMM@?$AAt?$AAh?$AA?5?$AA?$CG?$AA?$CG?$AA?5?$AAi?$AA?5?$AA?$DM?$AA?5?$AAt?$AAh?$AA?9?$AA?$DO?$AAc@ ; `string'
PUBLIC	_TI4?AVTabOutOfRangeException@Util@MaxSDK@@
PUBLIC	_CTA4?AVTabOutOfRangeException@Util@MaxSDK@@
PUBLIC	??_R0?AVTabOutOfRangeException@Util@MaxSDK@@@8	; MaxSDK::Util::TabOutOfRangeException `RTTI Type Descriptor'
PUBLIC	_CT??_R0?AVTabOutOfRangeException@Util@MaxSDK@@@8??0TabOutOfRangeException@Util@MaxSDK@@QEAA@AEBV012@@Z16
PUBLIC	??_R0?AVOutOfRangeException@Util@MaxSDK@@@8	; MaxSDK::Util::OutOfRangeException `RTTI Type Descriptor'
PUBLIC	_CT??_R0?AVOutOfRangeException@Util@MaxSDK@@@8??0OutOfRangeException@Util@MaxSDK@@QEAA@AEBV012@@Z16
PUBLIC	??_R0?AVException@Util@MaxSDK@@@8		; MaxSDK::Util::Exception `RTTI Type Descriptor'
PUBLIC	_CT??_R0?AVException@Util@MaxSDK@@@8??0Exception@Util@MaxSDK@@QEAA@AEBV012@@Z16
PUBLIC	??_C@_1GI@NLEIFPEJ@?$AAI?$AAn?$AAv?$AAa?$AAl?$AAi?$AAd?$AA?5?$AAi?$AAn?$AAd?$AAe?$AAx?$AA?5?$AAp@ ; `string'
PUBLIC	??_C@_1EM@PJAEPBLB@?$AAT?$AAa?$AAb?$AA?$DM?$AAc?$AAl?$AAa?$AAs?$AAs?$AA?5?$AAF?$AAP?$AAI?$AAn?$AAt@ ; `string'
PUBLIC	??_R4TabOutOfRangeException@Util@MaxSDK@@6B@	; MaxSDK::Util::TabOutOfRangeException::`RTTI Complete Object Locator'
PUBLIC	??_R3TabOutOfRangeException@Util@MaxSDK@@8	; MaxSDK::Util::TabOutOfRangeException::`RTTI Class Hierarchy Descriptor'
PUBLIC	??_R2TabOutOfRangeException@Util@MaxSDK@@8	; MaxSDK::Util::TabOutOfRangeException::`RTTI Base Class Array'
PUBLIC	??_R1A@?0A@EA@TabOutOfRangeException@Util@MaxSDK@@8 ; MaxSDK::Util::TabOutOfRangeException::`RTTI Base Class Descriptor at (0,-1,0,64)'
PUBLIC	??_R1A@?0A@EA@OutOfRangeException@Util@MaxSDK@@8 ; MaxSDK::Util::OutOfRangeException::`RTTI Base Class Descriptor at (0,-1,0,64)'
PUBLIC	??_R3OutOfRangeException@Util@MaxSDK@@8		; MaxSDK::Util::OutOfRangeException::`RTTI Class Hierarchy Descriptor'
PUBLIC	??_R2OutOfRangeException@Util@MaxSDK@@8		; MaxSDK::Util::OutOfRangeException::`RTTI Base Class Array'
PUBLIC	??_R1A@?0A@EA@Exception@Util@MaxSDK@@8		; MaxSDK::Util::Exception::`RTTI Base Class Descriptor at (0,-1,0,64)'
PUBLIC	??_R3Exception@Util@MaxSDK@@8			; MaxSDK::Util::Exception::`RTTI Class Hierarchy Descriptor'
PUBLIC	??_R2Exception@Util@MaxSDK@@8			; MaxSDK::Util::Exception::`RTTI Base Class Array'
PUBLIC	??_R17?0A@EA@MaxHeapOperators@@8		; MaxHeapOperators::`RTTI Base Class Descriptor at (8,-1,0,64)'
PUBLIC	??_R3MaxHeapOperators@@8			; MaxHeapOperators::`RTTI Class Hierarchy Descriptor'
PUBLIC	??_R2MaxHeapOperators@@8			; MaxHeapOperators::`RTTI Base Class Array'
PUBLIC	??_R1A@?0A@EA@MaxHeapOperators@@8		; MaxHeapOperators::`RTTI Base Class Descriptor at (0,-1,0,64)'
PUBLIC	??_R0?AVInterfaceServer@@@8			; InterfaceServer `RTTI Type Descriptor'
PUBLIC	??_R3InterfaceServer@@8				; InterfaceServer::`RTTI Class Hierarchy Descriptor'
PUBLIC	??_R2InterfaceServer@@8				; InterfaceServer::`RTTI Base Class Array'
PUBLIC	??_R1A@?0A@EA@InterfaceServer@@8		; InterfaceServer::`RTTI Base Class Descriptor at (0,-1,0,64)'
PUBLIC	??_R0?AVBaseInterfaceServer@@@8			; BaseInterfaceServer `RTTI Type Descriptor'
PUBLIC	??_R3BaseInterfaceServer@@8			; BaseInterfaceServer::`RTTI Class Hierarchy Descriptor'
PUBLIC	??_R2BaseInterfaceServer@@8			; BaseInterfaceServer::`RTTI Base Class Array'
PUBLIC	??_R1A@?0A@EA@BaseInterfaceServer@@8		; BaseInterfaceServer::`RTTI Base Class Descriptor at (0,-1,0,64)'
PUBLIC	??_R0?AVClassDesc@@@8				; ClassDesc `RTTI Type Descriptor'
PUBLIC	??_R3ClassDesc@@8				; ClassDesc::`RTTI Class Hierarchy Descriptor'
PUBLIC	??_R2ClassDesc@@8				; ClassDesc::`RTTI Base Class Array'
PUBLIC	??_R1A@?0A@EA@ClassDesc@@8			; ClassDesc::`RTTI Base Class Descriptor at (0,-1,0,64)'
PUBLIC	WinbaseIsolationAwarePrivateT_UnPgpgk
PUBLIC	IsolationAwarePrivateT_SqbjaYRiRY
PUBLIC	IsolationAwarePrivateT_SAbnPgpgk
PUBLIC	WinbaseIsolationAwarePrivateT_SpeRNgRQnPgpgk
PUBLIC	WinbaseIsolationAwarePrivateT_SpYRNahcpNYYRQ
PUBLIC	??_R4XYZ_Desc@@6B@				; XYZ_Desc::`RTTI Complete Object Locator'
PUBLIC	??_R0?AVXYZ_Desc@@@8				; XYZ_Desc `RTTI Type Descriptor'
PUBLIC	??_R3XYZ_Desc@@8				; XYZ_Desc::`RTTI Class Hierarchy Descriptor'
PUBLIC	??_R2XYZ_Desc@@8				; XYZ_Desc::`RTTI Base Class Array'
PUBLIC	??_R1A@?0A@EA@XYZ_Desc@@8			; XYZ_Desc::`RTTI Base Class Descriptor at (0,-1,0,64)'
PUBLIC	??_R1A@?0A@EA@ParamBlockDesc2@@8		; ParamBlockDesc2::`RTTI Base Class Descriptor at (0,-1,0,64)'
PUBLIC	??_R0?AVParamBlockDesc2@@@8			; ParamBlockDesc2 `RTTI Type Descriptor'
PUBLIC	??_R3ParamBlockDesc2@@8				; ParamBlockDesc2::`RTTI Class Hierarchy Descriptor'
PUBLIC	??_R2ParamBlockDesc2@@8				; ParamBlockDesc2::`RTTI Base Class Array'
PUBLIC	??_R4BerconNoiseClassDesc@@6B@			; BerconNoiseClassDesc::`RTTI Complete Object Locator'
PUBLIC	??_R0?AVBerconNoiseClassDesc@@@8		; BerconNoiseClassDesc `RTTI Type Descriptor'
PUBLIC	??_R3BerconNoiseClassDesc@@8			; BerconNoiseClassDesc::`RTTI Class Hierarchy Descriptor'
PUBLIC	??_R2BerconNoiseClassDesc@@8			; BerconNoiseClassDesc::`RTTI Base Class Array'
PUBLIC	??_R1A@?0A@EA@BerconNoiseClassDesc@@8		; BerconNoiseClassDesc::`RTTI Base Class Descriptor at (0,-1,0,64)'
PUBLIC	??_R1A@?0A@EA@ClassDesc2@@8			; ClassDesc2::`RTTI Base Class Descriptor at (0,-1,0,64)'
PUBLIC	??_R3ClassDesc2@@8				; ClassDesc2::`RTTI Class Hierarchy Descriptor'
PUBLIC	??_R2ClassDesc2@@8				; ClassDesc2::`RTTI Base Class Array'
EXTRN	?ResetClassParams@ClassDesc2@@UEAAXH@Z:PROC	; ClassDesc2::ResetClassParams
EXTRN	?GetParamBlockDescByID@ClassDesc2@@UEAAPEAVParamBlockDesc2@@F@Z:PROC ; ClassDesc2::GetParamBlockDescByID
EXTRN	?AddParamBlockDesc@ClassDesc2@@UEAAXPEAVParamBlockDesc2@@@Z:PROC ; ClassDesc2::AddParamBlockDesc
EXTRN	?BeginEditParams@ClassDesc2@@UEAAXPEAVIObjParam@@PEAVReferenceMaker@@KPEAVAnimatable@@@Z:PROC ; ClassDesc2::BeginEditParams
EXTRN	?EndEditParams@ClassDesc2@@UEAAXPEAVIObjParam@@PEAVReferenceMaker@@KPEAVAnimatable@@@Z:PROC ; ClassDesc2::EndEditParams
EXTRN	?InvalidateUI@ClassDesc2@@UEAAXPEAVParamBlockDesc2@@@Z:PROC ; ClassDesc2::InvalidateUI
EXTRN	?MakeAutoParamBlocks@ClassDesc2@@UEAAXPEAVReferenceMaker@@@Z:PROC ; ClassDesc2::MakeAutoParamBlocks
EXTRN	?GetInterface@BaseInterfaceServer@@UEAAPEAVBaseInterface@@VInterface_ID@@@Z:PROC ; BaseInterfaceServer::GetInterface
EXTRN	?NumInterfaces@BaseInterfaceServer@@UEBAHXZ:PROC ; BaseInterfaceServer::NumInterfaces
EXTRN	?GetInterfaceAt@BaseInterfaceServer@@UEBAPEAVBaseInterface@@H@Z:PROC ; BaseInterfaceServer::GetInterfaceAt
EXTRN	??_ETabOutOfRangeException@Util@MaxSDK@@UEAAPEAXI@Z:PROC ; MaxSDK::Util::TabOutOfRangeException::`vector deleting destructor'
EXTRN	??_7type_info@@6B@:BYTE				; type_info::`vftable'
EXTRN	__imp_?TEXMAP_CAT_3D@@3PA_WA:BYTE
EXTRN	??_EXYZ_Desc@@UEAAPEAXI@Z:PROC			; XYZ_Desc::`vector deleting destructor'
EXTRN	GUID_NULL:BYTE
EXTRN	??0OutOfRangeException@Util@MaxSDK@@QEAA@AEBV012@@Z:PROC ; MaxSDK::Util::OutOfRangeException::OutOfRangeException
EXTRN	??_EBerconNoiseClassDesc@@UEAAPEAXI@Z:PROC	; BerconNoiseClassDesc::`vector deleting destructor'
EXTRN	?NumParamBlockDescs@ClassDesc2@@UEAAHXZ:PROC	; ClassDesc2::NumParamBlockDescs
EXTRN	?GetParamBlockDesc@ClassDesc2@@UEAAPEAVParamBlockDesc2@@H@Z:PROC ; ClassDesc2::GetParamBlockDesc
EXTRN	?NumParamMaps@ClassDesc2@@UEAAHXZ:PROC		; ClassDesc2::NumParamMaps
EXTRN	?GetParamMap@ClassDesc2@@UEAAPEAVIParamMap2@@H@Z:PROC ; ClassDesc2::GetParamMap
EXTRN	?GetRsrcString@ClassDesc@@UEAAPEB_W_J@Z:PROC	; ClassDesc::GetRsrcString
EXTRN	?GetInterface@ClassDesc@@UEAAPEAVFPInterface@@PEB_W@Z:PROC ; ClassDesc::GetInterface
EXTRN	?GetInterface@ClassDesc@@UEAAPEAVFPInterface@@VInterface_ID@@@Z:PROC ; ClassDesc::GetInterface
EXTRN	?AddInterface@ClassDesc@@UEAAXPEAVFPInterface@@@Z:PROC ; ClassDesc::AddInterface
EXTRN	??0Exception@Util@MaxSDK@@QEAA@AEBV012@@Z:PROC	; MaxSDK::Util::Exception::Exception
EXTRN	?hInstance@@3PEAUHINSTANCE__@@EA:QWORD		; hInstance
_BSS	SEGMENT
?texoutDlg@BerconNoise@@2PEAVParamDlg@@EA DQ 01H DUP (?) ; BerconNoise::texoutDlg
_BSS	ENDS
;	COMDAT IsolationAwarePrivateT_SqbjaYRiRY
_BSS	SEGMENT
IsolationAwarePrivateT_SqbjaYRiRY DD 01H DUP (?)
_BSS	ENDS
;	COMDAT IsolationAwarePrivateT_SAbnPgpgk
_BSS	SEGMENT
IsolationAwarePrivateT_SAbnPgpgk DD 01H DUP (?)
_BSS	ENDS
;	COMDAT WinbaseIsolationAwarePrivateT_SpeRNgRQnPgpgk
_BSS	SEGMENT
WinbaseIsolationAwarePrivateT_SpeRNgRQnPgpgk DD 01H DUP (?)
_BSS	ENDS
;	COMDAT WinbaseIsolationAwarePrivateT_SpYRNahcpNYYRQ
_BSS	SEGMENT
WinbaseIsolationAwarePrivateT_SpYRNahcpNYYRQ DD 01H DUP (?)
_BSS	ENDS
;	COMDAT ??_R2ClassDesc2@@8
rdata$r	SEGMENT
??_R2ClassDesc2@@8 DD imagerel ??_R1A@?0A@EA@ClassDesc2@@8 ; ClassDesc2::`RTTI Base Class Array'
	DD	imagerel ??_R1A@?0A@EA@ClassDesc@@8
	DD	imagerel ??_R17?0A@EA@MaxHeapOperators@@8
	ORG $+3
rdata$r	ENDS
;	COMDAT ??_R3ClassDesc2@@8
rdata$r	SEGMENT
??_R3ClassDesc2@@8 DD 00H				; ClassDesc2::`RTTI Class Hierarchy Descriptor'
	DD	00H
	DD	03H
	DD	imagerel ??_R2ClassDesc2@@8
rdata$r	ENDS
;	COMDAT ??_R1A@?0A@EA@ClassDesc2@@8
rdata$r	SEGMENT
??_R1A@?0A@EA@ClassDesc2@@8 DD imagerel ??_R0?AVClassDesc2@@@8 ; ClassDesc2::`RTTI Base Class Descriptor at (0,-1,0,64)'
	DD	02H
	DD	00H
	DD	0ffffffffH
	DD	00H
	DD	040H
	DD	imagerel ??_R3ClassDesc2@@8
rdata$r	ENDS
;	COMDAT ??_R1A@?0A@EA@BerconNoiseClassDesc@@8
rdata$r	SEGMENT
??_R1A@?0A@EA@BerconNoiseClassDesc@@8 DD imagerel ??_R0?AVBerconNoiseClassDesc@@@8 ; BerconNoiseClassDesc::`RTTI Base Class Descriptor at (0,-1,0,64)'
	DD	03H
	DD	00H
	DD	0ffffffffH
	DD	00H
	DD	040H
	DD	imagerel ??_R3BerconNoiseClassDesc@@8
rdata$r	ENDS
;	COMDAT ??_R2BerconNoiseClassDesc@@8
rdata$r	SEGMENT
??_R2BerconNoiseClassDesc@@8 DD imagerel ??_R1A@?0A@EA@BerconNoiseClassDesc@@8 ; BerconNoiseClassDesc::`RTTI Base Class Array'
	DD	imagerel ??_R1A@?0A@EA@ClassDesc2@@8
	DD	imagerel ??_R1A@?0A@EA@ClassDesc@@8
	DD	imagerel ??_R17?0A@EA@MaxHeapOperators@@8
	ORG $+3
rdata$r	ENDS
;	COMDAT ??_R3BerconNoiseClassDesc@@8
rdata$r	SEGMENT
??_R3BerconNoiseClassDesc@@8 DD 00H			; BerconNoiseClassDesc::`RTTI Class Hierarchy Descriptor'
	DD	00H
	DD	04H
	DD	imagerel ??_R2BerconNoiseClassDesc@@8
rdata$r	ENDS
;	COMDAT ??_R0?AVBerconNoiseClassDesc@@@8
data$r	SEGMENT
??_R0?AVBerconNoiseClassDesc@@@8 DQ FLAT:??_7type_info@@6B@ ; BerconNoiseClassDesc `RTTI Type Descriptor'
	DQ	0000000000000000H
	DB	'.?AVBerconNoiseClassDesc@@', 00H
data$r	ENDS
;	COMDAT ??_R4BerconNoiseClassDesc@@6B@
rdata$r	SEGMENT
??_R4BerconNoiseClassDesc@@6B@ DD 01H			; BerconNoiseClassDesc::`RTTI Complete Object Locator'
	DD	00H
	DD	00H
	DD	imagerel ??_R0?AVBerconNoiseClassDesc@@@8
	DD	imagerel ??_R3BerconNoiseClassDesc@@8
	DD	imagerel ??_R4BerconNoiseClassDesc@@6B@
rdata$r	ENDS
;	COMDAT ??_R2ParamBlockDesc2@@8
rdata$r	SEGMENT
??_R2ParamBlockDesc2@@8 DD imagerel ??_R1A@?0A@EA@ParamBlockDesc2@@8 ; ParamBlockDesc2::`RTTI Base Class Array'
	DD	imagerel ??_R1A@?0A@EA@BaseInterfaceServer@@8
	DD	imagerel ??_R1A@?0A@EA@InterfaceServer@@8
	DD	imagerel ??_R17?0A@EA@MaxHeapOperators@@8
	ORG $+3
rdata$r	ENDS
;	COMDAT ??_R3ParamBlockDesc2@@8
rdata$r	SEGMENT
??_R3ParamBlockDesc2@@8 DD 00H				; ParamBlockDesc2::`RTTI Class Hierarchy Descriptor'
	DD	00H
	DD	04H
	DD	imagerel ??_R2ParamBlockDesc2@@8
rdata$r	ENDS
;	COMDAT ??_R0?AVParamBlockDesc2@@@8
data$r	SEGMENT
??_R0?AVParamBlockDesc2@@@8 DQ FLAT:??_7type_info@@6B@	; ParamBlockDesc2 `RTTI Type Descriptor'
	DQ	0000000000000000H
	DB	'.?AVParamBlockDesc2@@', 00H
data$r	ENDS
;	COMDAT ??_R1A@?0A@EA@ParamBlockDesc2@@8
rdata$r	SEGMENT
??_R1A@?0A@EA@ParamBlockDesc2@@8 DD imagerel ??_R0?AVParamBlockDesc2@@@8 ; ParamBlockDesc2::`RTTI Base Class Descriptor at (0,-1,0,64)'
	DD	03H
	DD	00H
	DD	0ffffffffH
	DD	00H
	DD	040H
	DD	imagerel ??_R3ParamBlockDesc2@@8
rdata$r	ENDS
;	COMDAT ??_R1A@?0A@EA@XYZ_Desc@@8
rdata$r	SEGMENT
??_R1A@?0A@EA@XYZ_Desc@@8 DD imagerel ??_R0?AVXYZ_Desc@@@8 ; XYZ_Desc::`RTTI Base Class Descriptor at (0,-1,0,64)'
	DD	04H
	DD	00H
	DD	0ffffffffH
	DD	00H
	DD	040H
	DD	imagerel ??_R3XYZ_Desc@@8
rdata$r	ENDS
;	COMDAT ??_R2XYZ_Desc@@8
rdata$r	SEGMENT
??_R2XYZ_Desc@@8 DD imagerel ??_R1A@?0A@EA@XYZ_Desc@@8	; XYZ_Desc::`RTTI Base Class Array'
	DD	imagerel ??_R1A@?0A@EA@ParamBlockDesc2@@8
	DD	imagerel ??_R1A@?0A@EA@BaseInterfaceServer@@8
	DD	imagerel ??_R1A@?0A@EA@InterfaceServer@@8
	DD	imagerel ??_R17?0A@EA@MaxHeapOperators@@8
	ORG $+3
rdata$r	ENDS
;	COMDAT ??_R3XYZ_Desc@@8
rdata$r	SEGMENT
??_R3XYZ_Desc@@8 DD 00H					; XYZ_Desc::`RTTI Class Hierarchy Descriptor'
	DD	00H
	DD	05H
	DD	imagerel ??_R2XYZ_Desc@@8
rdata$r	ENDS
;	COMDAT ??_R0?AVXYZ_Desc@@@8
data$r	SEGMENT
??_R0?AVXYZ_Desc@@@8 DQ FLAT:??_7type_info@@6B@		; XYZ_Desc `RTTI Type Descriptor'
	DQ	0000000000000000H
	DB	'.?AVXYZ_Desc@@', 00H
data$r	ENDS
;	COMDAT ??_R4XYZ_Desc@@6B@
rdata$r	SEGMENT
??_R4XYZ_Desc@@6B@ DD 01H				; XYZ_Desc::`RTTI Complete Object Locator'
	DD	00H
	DD	00H
	DD	imagerel ??_R0?AVXYZ_Desc@@@8
	DD	imagerel ??_R3XYZ_Desc@@8
	DD	imagerel ??_R4XYZ_Desc@@6B@
rdata$r	ENDS
;	COMDAT WinbaseIsolationAwarePrivateT_UnPgpgk
_DATA	SEGMENT
WinbaseIsolationAwarePrivateT_UnPgpgk DQ ffffffffffffffffH
_DATA	ENDS
;	COMDAT ??_R1A@?0A@EA@ClassDesc@@8
rdata$r	SEGMENT
??_R1A@?0A@EA@ClassDesc@@8 DD imagerel ??_R0?AVClassDesc@@@8 ; ClassDesc::`RTTI Base Class Descriptor at (0,-1,0,64)'
	DD	01H
	DD	00H
	DD	0ffffffffH
	DD	00H
	DD	040H
	DD	imagerel ??_R3ClassDesc@@8
rdata$r	ENDS
;	COMDAT ??_R2ClassDesc@@8
rdata$r	SEGMENT
??_R2ClassDesc@@8 DD imagerel ??_R1A@?0A@EA@ClassDesc@@8 ; ClassDesc::`RTTI Base Class Array'
	DD	imagerel ??_R17?0A@EA@MaxHeapOperators@@8
	ORG $+3
rdata$r	ENDS
;	COMDAT ??_R3ClassDesc@@8
rdata$r	SEGMENT
??_R3ClassDesc@@8 DD 00H				; ClassDesc::`RTTI Class Hierarchy Descriptor'
	DD	00H
	DD	02H
	DD	imagerel ??_R2ClassDesc@@8
rdata$r	ENDS
;	COMDAT ??_R0?AVClassDesc@@@8
data$r	SEGMENT
??_R0?AVClassDesc@@@8 DQ FLAT:??_7type_info@@6B@	; ClassDesc `RTTI Type Descriptor'
	DQ	0000000000000000H
	DB	'.?AVClassDesc@@', 00H
data$r	ENDS
;	COMDAT ??_R1A@?0A@EA@BaseInterfaceServer@@8
rdata$r	SEGMENT
??_R1A@?0A@EA@BaseInterfaceServer@@8 DD imagerel ??_R0?AVBaseInterfaceServer@@@8 ; BaseInterfaceServer::`RTTI Base Class Descriptor at (0,-1,0,64)'
	DD	02H
	DD	00H
	DD	0ffffffffH
	DD	00H
	DD	040H
	DD	imagerel ??_R3BaseInterfaceServer@@8
rdata$r	ENDS
;	COMDAT ??_R2BaseInterfaceServer@@8
rdata$r	SEGMENT
??_R2BaseInterfaceServer@@8 DD imagerel ??_R1A@?0A@EA@BaseInterfaceServer@@8 ; BaseInterfaceServer::`RTTI Base Class Array'
	DD	imagerel ??_R1A@?0A@EA@InterfaceServer@@8
	DD	imagerel ??_R17?0A@EA@MaxHeapOperators@@8
	ORG $+3
rdata$r	ENDS
;	COMDAT ??_R3BaseInterfaceServer@@8
rdata$r	SEGMENT
??_R3BaseInterfaceServer@@8 DD 00H			; BaseInterfaceServer::`RTTI Class Hierarchy Descriptor'
	DD	00H
	DD	03H
	DD	imagerel ??_R2BaseInterfaceServer@@8
rdata$r	ENDS
;	COMDAT ??_R0?AVBaseInterfaceServer@@@8
data$r	SEGMENT
??_R0?AVBaseInterfaceServer@@@8 DQ FLAT:??_7type_info@@6B@ ; BaseInterfaceServer `RTTI Type Descriptor'
	DQ	0000000000000000H
	DB	'.?AVBaseInterfaceServer@@', 00H
data$r	ENDS
;	COMDAT ??_R1A@?0A@EA@InterfaceServer@@8
rdata$r	SEGMENT
??_R1A@?0A@EA@InterfaceServer@@8 DD imagerel ??_R0?AVInterfaceServer@@@8 ; InterfaceServer::`RTTI Base Class Descriptor at (0,-1,0,64)'
	DD	01H
	DD	00H
	DD	0ffffffffH
	DD	00H
	DD	040H
	DD	imagerel ??_R3InterfaceServer@@8
rdata$r	ENDS
;	COMDAT ??_R2InterfaceServer@@8
rdata$r	SEGMENT
??_R2InterfaceServer@@8 DD imagerel ??_R1A@?0A@EA@InterfaceServer@@8 ; InterfaceServer::`RTTI Base Class Array'
	DD	imagerel ??_R17?0A@EA@MaxHeapOperators@@8
	ORG $+3
rdata$r	ENDS
;	COMDAT ??_R3InterfaceServer@@8
rdata$r	SEGMENT
??_R3InterfaceServer@@8 DD 00H				; InterfaceServer::`RTTI Class Hierarchy Descriptor'
	DD	00H
	DD	02H
	DD	imagerel ??_R2InterfaceServer@@8
rdata$r	ENDS
;	COMDAT ??_R0?AVInterfaceServer@@@8
data$r	SEGMENT
??_R0?AVInterfaceServer@@@8 DQ FLAT:??_7type_info@@6B@	; InterfaceServer `RTTI Type Descriptor'
	DQ	0000000000000000H
	DB	'.?AVInterfaceServer@@', 00H
data$r	ENDS
;	COMDAT ??_R1A@?0A@EA@MaxHeapOperators@@8
rdata$r	SEGMENT
??_R1A@?0A@EA@MaxHeapOperators@@8 DD imagerel ??_R0?AVMaxHeapOperators@@@8 ; MaxHeapOperators::`RTTI Base Class Descriptor at (0,-1,0,64)'
	DD	00H
	DD	00H
	DD	0ffffffffH
	DD	00H
	DD	040H
	DD	imagerel ??_R3MaxHeapOperators@@8
rdata$r	ENDS
;	COMDAT ??_R2MaxHeapOperators@@8
rdata$r	SEGMENT
??_R2MaxHeapOperators@@8 DD imagerel ??_R1A@?0A@EA@MaxHeapOperators@@8 ; MaxHeapOperators::`RTTI Base Class Array'
	ORG $+3
rdata$r	ENDS
;	COMDAT ??_R3MaxHeapOperators@@8
rdata$r	SEGMENT
??_R3MaxHeapOperators@@8 DD 00H				; MaxHeapOperators::`RTTI Class Hierarchy Descriptor'
	DD	00H
	DD	01H
	DD	imagerel ??_R2MaxHeapOperators@@8
rdata$r	ENDS
;	COMDAT ??_R17?0A@EA@MaxHeapOperators@@8
rdata$r	SEGMENT
??_R17?0A@EA@MaxHeapOperators@@8 DD imagerel ??_R0?AVMaxHeapOperators@@@8 ; MaxHeapOperators::`RTTI Base Class Descriptor at (8,-1,0,64)'
	DD	00H
	DD	08H
	DD	0ffffffffH
	DD	00H
	DD	040H
	DD	imagerel ??_R3MaxHeapOperators@@8
rdata$r	ENDS
;	COMDAT ??_R2Exception@Util@MaxSDK@@8
rdata$r	SEGMENT
??_R2Exception@Util@MaxSDK@@8 DD imagerel ??_R1A@?0A@EA@Exception@Util@MaxSDK@@8 ; MaxSDK::Util::Exception::`RTTI Base Class Array'
	DD	imagerel ??_R17?0A@EA@MaxHeapOperators@@8
	ORG $+3
rdata$r	ENDS
;	COMDAT ??_R3Exception@Util@MaxSDK@@8
rdata$r	SEGMENT
??_R3Exception@Util@MaxSDK@@8 DD 00H			; MaxSDK::Util::Exception::`RTTI Class Hierarchy Descriptor'
	DD	00H
	DD	02H
	DD	imagerel ??_R2Exception@Util@MaxSDK@@8
rdata$r	ENDS
;	COMDAT ??_R1A@?0A@EA@Exception@Util@MaxSDK@@8
rdata$r	SEGMENT
??_R1A@?0A@EA@Exception@Util@MaxSDK@@8 DD imagerel ??_R0?AVException@Util@MaxSDK@@@8 ; MaxSDK::Util::Exception::`RTTI Base Class Descriptor at (0,-1,0,64)'
	DD	01H
	DD	00H
	DD	0ffffffffH
	DD	00H
	DD	040H
	DD	imagerel ??_R3Exception@Util@MaxSDK@@8
rdata$r	ENDS
;	COMDAT ??_R2OutOfRangeException@Util@MaxSDK@@8
rdata$r	SEGMENT
??_R2OutOfRangeException@Util@MaxSDK@@8 DD imagerel ??_R1A@?0A@EA@OutOfRangeException@Util@MaxSDK@@8 ; MaxSDK::Util::OutOfRangeException::`RTTI Base Class Array'
	DD	imagerel ??_R1A@?0A@EA@Exception@Util@MaxSDK@@8
	DD	imagerel ??_R17?0A@EA@MaxHeapOperators@@8
	ORG $+3
rdata$r	ENDS
;	COMDAT ??_R3OutOfRangeException@Util@MaxSDK@@8
rdata$r	SEGMENT
??_R3OutOfRangeException@Util@MaxSDK@@8 DD 00H		; MaxSDK::Util::OutOfRangeException::`RTTI Class Hierarchy Descriptor'
	DD	00H
	DD	03H
	DD	imagerel ??_R2OutOfRangeException@Util@MaxSDK@@8
rdata$r	ENDS
;	COMDAT ??_R1A@?0A@EA@OutOfRangeException@Util@MaxSDK@@8
rdata$r	SEGMENT
??_R1A@?0A@EA@OutOfRangeException@Util@MaxSDK@@8 DD imagerel ??_R0?AVOutOfRangeException@Util@MaxSDK@@@8 ; MaxSDK::Util::OutOfRangeException::`RTTI Base Class Descriptor at (0,-1,0,64)'
	DD	02H
	DD	00H
	DD	0ffffffffH
	DD	00H
	DD	040H
	DD	imagerel ??_R3OutOfRangeException@Util@MaxSDK@@8
rdata$r	ENDS
;	COMDAT ??_R1A@?0A@EA@TabOutOfRangeException@Util@MaxSDK@@8
rdata$r	SEGMENT
??_R1A@?0A@EA@TabOutOfRangeException@Util@MaxSDK@@8 DD imagerel ??_R0?AVTabOutOfRangeException@Util@MaxSDK@@@8 ; MaxSDK::Util::TabOutOfRangeException::`RTTI Base Class Descriptor at (0,-1,0,64)'
	DD	03H
	DD	00H
	DD	0ffffffffH
	DD	00H
	DD	040H
	DD	imagerel ??_R3TabOutOfRangeException@Util@MaxSDK@@8
rdata$r	ENDS
;	COMDAT ??_R2TabOutOfRangeException@Util@MaxSDK@@8
rdata$r	SEGMENT
??_R2TabOutOfRangeException@Util@MaxSDK@@8 DD imagerel ??_R1A@?0A@EA@TabOutOfRangeException@Util@MaxSDK@@8 ; MaxSDK::Util::TabOutOfRangeException::`RTTI Base Class Array'
	DD	imagerel ??_R1A@?0A@EA@OutOfRangeException@Util@MaxSDK@@8
	DD	imagerel ??_R1A@?0A@EA@Exception@Util@MaxSDK@@8
	DD	imagerel ??_R17?0A@EA@MaxHeapOperators@@8
	ORG $+3
rdata$r	ENDS
;	COMDAT ??_R3TabOutOfRangeException@Util@MaxSDK@@8
rdata$r	SEGMENT
??_R3TabOutOfRangeException@Util@MaxSDK@@8 DD 00H	; MaxSDK::Util::TabOutOfRangeException::`RTTI Class Hierarchy Descriptor'
	DD	00H
	DD	04H
	DD	imagerel ??_R2TabOutOfRangeException@Util@MaxSDK@@8
rdata$r	ENDS
;	COMDAT ??_R4TabOutOfRangeException@Util@MaxSDK@@6B@
rdata$r	SEGMENT
??_R4TabOutOfRangeException@Util@MaxSDK@@6B@ DD 01H	; MaxSDK::Util::TabOutOfRangeException::`RTTI Complete Object Locator'
	DD	00H
	DD	00H
	DD	imagerel ??_R0?AVTabOutOfRangeException@Util@MaxSDK@@@8
	DD	imagerel ??_R3TabOutOfRangeException@Util@MaxSDK@@8
	DD	imagerel ??_R4TabOutOfRangeException@Util@MaxSDK@@6B@
rdata$r	ENDS
;	COMDAT ??_C@_1EM@PJAEPBLB@?$AAT?$AAa?$AAb?$AA?$DM?$AAc?$AAl?$AAa?$AAs?$AAs?$AA?5?$AAF?$AAP?$AAI?$AAn?$AAt@
CONST	SEGMENT
??_C@_1EM@PJAEPBLB@?$AAT?$AAa?$AAb?$AA?$DM?$AAc?$AAl?$AAa?$AAs?$AAs?$AA?5?$AAF?$AAP?$AAI?$AAn?$AAt@ DB 'T'
	DB	00H, 'a', 00H, 'b', 00H, '<', 00H, 'c', 00H, 'l', 00H, 'a', 00H
	DB	's', 00H, 's', 00H, ' ', 00H, 'F', 00H, 'P', 00H, 'I', 00H, 'n'
	DB	00H, 't', 00H, 'e', 00H, 'r', 00H, 'f', 00H, 'a', 00H, 'c', 00H
	DB	'e', 00H, ' ', 00H, '*', 00H, '>', 00H, ':', 00H, ':', 00H, 'o'
	DB	00H, 'p', 00H, 'e', 00H, 'r', 00H, 'a', 00H, 't', 00H, 'o', 00H
	DB	'r', 00H, ' ', 00H, '[', 00H, ']', 00H, 00H, 00H ; `string'
CONST	ENDS
;	COMDAT ??_C@_1GI@NLEIFPEJ@?$AAI?$AAn?$AAv?$AAa?$AAl?$AAi?$AAd?$AA?5?$AAi?$AAn?$AAd?$AAe?$AAx?$AA?5?$AAp@
CONST	SEGMENT
??_C@_1GI@NLEIFPEJ@?$AAI?$AAn?$AAv?$AAa?$AAl?$AAi?$AAd?$AA?5?$AAi?$AAn?$AAd?$AAe?$AAx?$AA?5?$AAp@ DB 'I'
	DB	00H, 'n', 00H, 'v', 00H, 'a', 00H, 'l', 00H, 'i', 00H, 'd', 00H
	DB	' ', 00H, 'i', 00H, 'n', 00H, 'd', 00H, 'e', 00H, 'x', 00H, ' '
	DB	00H, 'p', 00H, 'a', 00H, 's', 00H, 's', 00H, 'e', 00H, 'd', 00H
	DB	' ', 00H, 'i', 00H, 'n', 00H, 't', 00H, 'o', 00H, ' ', 00H, 'a'
	DB	00H, ' ', 00H, 'M', 00H, 'a', 00H, 'x', 00H, ' ', 00H, 'S', 00H
	DB	'D', 00H, 'K', 00H, ' ', 00H, 'T', 00H, 'a', 00H, 'b', 00H, ':'
	DB	00H, ':', 00H, 'o', 00H, 'p', 00H, 'e', 00H, 'r', 00H, 'a', 00H
	DB	't', 00H, 'o', 00H, 'r', 00H, '[', 00H, ']', 00H, 00H, 00H ; `string'
CONST	ENDS
;	COMDAT _CT??_R0?AVException@Util@MaxSDK@@@8??0Exception@Util@MaxSDK@@QEAA@AEBV012@@Z16
xdata$x	SEGMENT
_CT??_R0?AVException@Util@MaxSDK@@@8??0Exception@Util@MaxSDK@@QEAA@AEBV012@@Z16 DD 00H
	DD	imagerel ??_R0?AVException@Util@MaxSDK@@@8
	DD	00H
	DD	0ffffffffH
	ORG $+4
	DD	010H
	DD	imagerel __imp_??0Exception@Util@MaxSDK@@QEAA@AEBV012@@Z
xdata$x	ENDS
;	COMDAT ??_R0?AVException@Util@MaxSDK@@@8
data$r	SEGMENT
??_R0?AVException@Util@MaxSDK@@@8 DQ FLAT:??_7type_info@@6B@ ; MaxSDK::Util::Exception `RTTI Type Descriptor'
	DQ	0000000000000000H
	DB	'.?AVException@Util@MaxSDK@@', 00H
data$r	ENDS
;	COMDAT _CT??_R0?AVOutOfRangeException@Util@MaxSDK@@@8??0OutOfRangeException@Util@MaxSDK@@QEAA@AEBV012@@Z16
xdata$x	SEGMENT
_CT??_R0?AVOutOfRangeException@Util@MaxSDK@@@8??0OutOfRangeException@Util@MaxSDK@@QEAA@AEBV012@@Z16 DD 00H
	DD	imagerel ??_R0?AVOutOfRangeException@Util@MaxSDK@@@8
	DD	00H
	DD	0ffffffffH
	ORG $+4
	DD	010H
	DD	imagerel __imp_??0OutOfRangeException@Util@MaxSDK@@QEAA@AEBV012@@Z
xdata$x	ENDS
;	COMDAT ??_R0?AVOutOfRangeException@Util@MaxSDK@@@8
data$r	SEGMENT
??_R0?AVOutOfRangeException@Util@MaxSDK@@@8 DQ FLAT:??_7type_info@@6B@ ; MaxSDK::Util::OutOfRangeException `RTTI Type Descriptor'
	DQ	0000000000000000H
	DB	'.?AVOutOfRangeException@Util@MaxSDK@@', 00H
data$r	ENDS
;	COMDAT _CT??_R0?AVTabOutOfRangeException@Util@MaxSDK@@@8??0TabOutOfRangeException@Util@MaxSDK@@QEAA@AEBV012@@Z16
xdata$x	SEGMENT
_CT??_R0?AVTabOutOfRangeException@Util@MaxSDK@@@8??0TabOutOfRangeException@Util@MaxSDK@@QEAA@AEBV012@@Z16 DD 00H
	DD	imagerel ??_R0?AVTabOutOfRangeException@Util@MaxSDK@@@8
	DD	00H
	DD	0ffffffffH
	ORG $+4
	DD	010H
	DD	imagerel ??0TabOutOfRangeException@Util@MaxSDK@@QEAA@AEBV012@@Z
xdata$x	ENDS
;	COMDAT ??_R0?AVTabOutOfRangeException@Util@MaxSDK@@@8
data$r	SEGMENT
??_R0?AVTabOutOfRangeException@Util@MaxSDK@@@8 DQ FLAT:??_7type_info@@6B@ ; MaxSDK::Util::TabOutOfRangeException `RTTI Type Descriptor'
	DQ	0000000000000000H
	DB	'.?AVTabOutOfRangeException@Util@MaxSDK@@', 00H
data$r	ENDS
;	COMDAT _CTA4?AVTabOutOfRangeException@Util@MaxSDK@@
xdata$x	SEGMENT
_CTA4?AVTabOutOfRangeException@Util@MaxSDK@@ DD 04H
	DD	imagerel _CT??_R0?AVTabOutOfRangeException@Util@MaxSDK@@@8??0TabOutOfRangeException@Util@MaxSDK@@QEAA@AEBV012@@Z16
	DD	imagerel _CT??_R0?AVOutOfRangeException@Util@MaxSDK@@@8??0OutOfRangeException@Util@MaxSDK@@QEAA@AEBV012@@Z16
	DD	imagerel _CT??_R0?AVException@Util@MaxSDK@@@8??0Exception@Util@MaxSDK@@QEAA@AEBV012@@Z16
	DD	imagerel _CT??_R0?AVMaxHeapOperators@@@818
xdata$x	ENDS
;	COMDAT _TI4?AVTabOutOfRangeException@Util@MaxSDK@@
xdata$x	SEGMENT
_TI4?AVTabOutOfRangeException@Util@MaxSDK@@ DD 00H
	DD	imagerel ??1TabOutOfRangeException@Util@MaxSDK@@UEAA@XZ
	DD	00H
	DD	imagerel _CTA4?AVTabOutOfRangeException@Util@MaxSDK@@
xdata$x	ENDS
;	COMDAT ??_C@_1CI@OKLGNBMM@?$AAt?$AAh?$AA?5?$AA?$CG?$AA?$CG?$AA?5?$AAi?$AA?5?$AA?$DM?$AA?5?$AAt?$AAh?$AA?9?$AA?$DO?$AAc@
CONST	SEGMENT
??_C@_1CI@OKLGNBMM@?$AAt?$AAh?$AA?5?$AA?$CG?$AA?$CG?$AA?5?$AAi?$AA?5?$AA?$DM?$AA?5?$AAt?$AAh?$AA?9?$AA?$DO?$AAc@ DB 't'
	DB	00H, 'h', 00H, ' ', 00H, '&', 00H, '&', 00H, ' ', 00H, 'i', 00H
	DB	' ', 00H, '<', 00H, ' ', 00H, 't', 00H, 'h', 00H, '-', 00H, '>'
	DB	00H, 'c', 00H, 'o', 00H, 'u', 00H, 'n', 00H, 't', 00H, 00H, 00H ; `string'
CONST	ENDS
;	COMDAT ??_C@_1IA@LGDLJFJ@?$AAc?$AA?3?$AA?2?$AAp?$AAr?$AAo?$AAg?$AAr?$AAa?$AAm?$AA?5?$AAf?$AAi?$AAl?$AAe@
CONST	SEGMENT
??_C@_1IA@LGDLJFJ@?$AAc?$AA?3?$AA?2?$AAp?$AAr?$AAo?$AAg?$AAr?$AAa?$AAm?$AA?5?$AAf?$AAi?$AAl?$AAe@ DB 'c'
	DB	00H, ':', 00H, '\', 00H, 'p', 00H, 'r', 00H, 'o', 00H, 'g', 00H
	DB	'r', 00H, 'a', 00H, 'm', 00H, ' ', 00H, 'f', 00H, 'i', 00H, 'l'
	DB	00H, 'e', 00H, 's', 00H, '\', 00H, 'a', 00H, 'u', 00H, 't', 00H
	DB	'o', 00H, 'd', 00H, 'e', 00H, 's', 00H, 'k', 00H, '\', 00H, '3'
	DB	00H, 'd', 00H, 's', 00H, ' ', 00H, 'm', 00H, 'a', 00H, 'x', 00H
	DB	' ', 00H, '2', 00H, '0', 00H, '1', 00H, '9', 00H, ' ', 00H, 's'
	DB	00H, 'd', 00H, 'k', 00H, '\', 00H, 'm', 00H, 'a', 00H, 'x', 00H
	DB	's', 00H, 'd', 00H, 'k', 00H, '\', 00H, 'i', 00H, 'n', 00H, 'c'
	DB	00H, 'l', 00H, 'u', 00H, 'd', 00H, 'e', 00H, '\', 00H, 't', 00H
	DB	'a', 00H, 'b', 00H, '.', 00H, 'h', 00H, 00H, 00H ; `string'
CONST	ENDS
;	COMDAT ??_C@_15CABMMOGH@?$AAt?$AAh@
CONST	SEGMENT
??_C@_15CABMMOGH@?$AAt?$AAh@ DB 't', 00H, 'h', 00H, 00H, 00H ; `string'
CONST	ENDS
;	COMDAT ??_C@_1M@DLKOHGOH@?$AAb?$AAm?$AAa?$AAp?$AA1@
CONST	SEGMENT
??_C@_1M@DLKOHGOH@?$AAb?$AAm?$AAa?$AAp?$AA1@ DB 'b', 00H, 'm', 00H, 'a', 00H
	DB	'p', 00H, '1', 00H, 00H, 00H			; `string'
CONST	ENDS
;	COMDAT ??_C@_1BK@PEEDIMCK@?$AAb?$AAm?$AAa?$AAp?$AA1?$AAE?$AAn?$AAa?$AAb?$AAl?$AAe?$AAd@
CONST	SEGMENT
??_C@_1BK@PEEDIMCK@?$AAb?$AAm?$AAa?$AAp?$AA1?$AAE?$AAn?$AAa?$AAb?$AAl?$AAe?$AAd@ DB 'b'
	DB	00H, 'm', 00H, 'a', 00H, 'p', 00H, '1', 00H, 'E', 00H, 'n', 00H
	DB	'a', 00H, 'b', 00H, 'l', 00H, 'e', 00H, 'd', 00H, 00H, 00H ; `string'
CONST	ENDS
;	COMDAT ??_C@_1M@CJBLNJAJ@?$AAb?$AAm?$AAa?$AAp?$AA2@
CONST	SEGMENT
??_C@_1M@CJBLNJAJ@?$AAb?$AAm?$AAa?$AAp?$AA2@ DB 'b', 00H, 'm', 00H, 'a', 00H
	DB	'p', 00H, '2', 00H, 00H, 00H			; `string'
CONST	ENDS
;	COMDAT ??_C@_1BK@BOMFFBEI@?$AAb?$AAm?$AAa?$AAp?$AA2?$AAE?$AAn?$AAa?$AAb?$AAl?$AAe?$AAd@
CONST	SEGMENT
??_C@_1BK@BOMFFBEI@?$AAb?$AAm?$AAa?$AAp?$AA2?$AAE?$AAn?$AAa?$AAb?$AAl?$AAe?$AAd@ DB 'b'
	DB	00H, 'm', 00H, 'a', 00H, 'p', 00H, '2', 00H, 'E', 00H, 'n', 00H
	DB	'a', 00H, 'b', 00H, 'l', 00H, 'e', 00H, 'd', 00H, 00H, 00H ; `string'
CONST	ENDS
;	COMDAT ??_C@_1M@JBKHLOGM@?$AAb?$AAm?$AAa?$AAp?$AA3@
CONST	SEGMENT
??_C@_1M@JBKHLOGM@?$AAb?$AAm?$AAa?$AAp?$AA3@ DB 'b', 00H, 'm', 00H, 'a', 00H
	DB	'p', 00H, '3', 00H, 00H, 00H			; `string'
CONST	ENDS
;	COMDAT ??_C@_1BK@PBJHOHKJ@?$AAb?$AAm?$AAa?$AAp?$AA3?$AAE?$AAn?$AAa?$AAb?$AAl?$AAe?$AAd@
CONST	SEGMENT
??_C@_1BK@PBJHOHKJ@?$AAb?$AAm?$AAa?$AAp?$AA3?$AAE?$AAn?$AAa?$AAb?$AAl?$AAe?$AAd@ DB 'b'
	DB	00H, 'm', 00H, 'a', 00H, 'p', 00H, '3', 00H, 'E', 00H, 'n', 00H
	DB	'a', 00H, 'b', 00H, 'l', 00H, 'e', 00H, 'd', 00H, 00H, 00H ; `string'
CONST	ENDS
;	COMDAT ??_C@_1M@MHAIGNF@?$AAb?$AAm?$AAa?$AAp?$AA4@
CONST	SEGMENT
??_C@_1M@MHAIGNF@?$AAb?$AAm?$AAa?$AAp?$AA4@ DB 'b', 00H, 'm', 00H, 'a', 00H
	DB	'p', 00H, '4', 00H, 00H, 00H			; `string'
CONST	ENDS
;	COMDAT ??_C@_1BK@BALJONMN@?$AAb?$AAm?$AAa?$AAp?$AA4?$AAE?$AAn?$AAa?$AAb?$AAl?$AAe?$AAd@
CONST	SEGMENT
??_C@_1BK@BALJONMN@?$AAb?$AAm?$AAa?$AAp?$AA4?$AAE?$AAn?$AAa?$AAb?$AAl?$AAe?$AAd@ DB 'b'
	DB	00H, 'm', 00H, 'a', 00H, 'p', 00H, '4', 00H, 'E', 00H, 'n', 00H
	DB	'a', 00H, 'b', 00H, 'l', 00H, 'e', 00H, 'd', 00H, 00H, 00H ; `string'
CONST	ENDS
;	COMDAT ??_C@_1M@LEMMOBLA@?$AAb?$AAm?$AAa?$AAp?$AA5@
CONST	SEGMENT
??_C@_1M@LEMMOBLA@?$AAb?$AAm?$AAa?$AAp?$AA5@ DB 'b', 00H, 'm', 00H, 'a', 00H
	DB	'p', 00H, '5', 00H, 00H, 00H			; `string'
CONST	ENDS
;	COMDAT ??_C@_1BK@PPOLFLCM@?$AAb?$AAm?$AAa?$AAp?$AA5?$AAE?$AAn?$AAa?$AAb?$AAl?$AAe?$AAd@
CONST	SEGMENT
??_C@_1BK@PPOLFLCM@?$AAb?$AAm?$AAa?$AAp?$AA5?$AAE?$AAn?$AAa?$AAb?$AAl?$AAe?$AAd@ DB 'b'
	DB	00H, 'm', 00H, 'a', 00H, 'p', 00H, '5', 00H, 'E', 00H, 'n', 00H
	DB	'a', 00H, 'b', 00H, 'l', 00H, 'e', 00H, 'd', 00H, 00H, 00H ; `string'
CONST	ENDS
;	COMDAT ??_C@_1M@KGHJEOFO@?$AAb?$AAm?$AAa?$AAp?$AA6@
CONST	SEGMENT
??_C@_1M@KGHJEOFO@?$AAb?$AAm?$AAa?$AAp?$AA6@ DB 'b', 00H, 'm', 00H, 'a', 00H
	DB	'p', 00H, '6', 00H, 00H, 00H			; `string'
CONST	ENDS
;	COMDAT ??_C@_1BK@BFGNIGEO@?$AAb?$AAm?$AAa?$AAp?$AA6?$AAE?$AAn?$AAa?$AAb?$AAl?$AAe?$AAd@
CONST	SEGMENT
??_C@_1BK@BFGNIGEO@?$AAb?$AAm?$AAa?$AAp?$AA6?$AAE?$AAn?$AAa?$AAb?$AAl?$AAe?$AAd@ DB 'b'
	DB	00H, 'm', 00H, 'a', 00H, 'p', 00H, '6', 00H, 'E', 00H, 'n', 00H
	DB	'a', 00H, 'b', 00H, 'l', 00H, 'e', 00H, 'd', 00H, 00H, 00H ; `string'
CONST	ENDS
;	COMDAT ??_C@_1M@BOMFCJDL@?$AAb?$AAm?$AAa?$AAp?$AA7@
CONST	SEGMENT
??_C@_1M@BOMFCJDL@?$AAb?$AAm?$AAa?$AAp?$AA7@ DB 'b', 00H, 'm', 00H, 'a', 00H
	DB	'p', 00H, '7', 00H, 00H, 00H			; `string'
CONST	ENDS
;	COMDAT ??_C@_1BK@PKDPDAKP@?$AAb?$AAm?$AAa?$AAp?$AA7?$AAE?$AAn?$AAa?$AAb?$AAl?$AAe?$AAd@
CONST	SEGMENT
??_C@_1BK@PKDPDAKP@?$AAb?$AAm?$AAa?$AAp?$AA7?$AAE?$AAn?$AAa?$AAb?$AAl?$AAe?$AAd@ DB 'b'
	DB	00H, 'm', 00H, 'a', 00H, 'p', 00H, '7', 00H, 'E', 00H, 'n', 00H
	DB	'a', 00H, 'b', 00H, 'l', 00H, 'e', 00H, 'd', 00H, 00H, 00H ; `string'
CONST	ENDS
;	COMDAT ??_C@_1M@EGKGDJGN@?$AAb?$AAm?$AAa?$AAp?$AA8@
CONST	SEGMENT
??_C@_1M@EGKGDJGN@?$AAb?$AAm?$AAa?$AAp?$AA8@ DB 'b', 00H, 'm', 00H, 'a', 00H
	DB	'p', 00H, '8', 00H, 00H, 00H			; `string'
CONST	ENDS
;	COMDAT ??_C@_1BK@MEAJEMH@?$AAb?$AAm?$AAa?$AAp?$AA8?$AAE?$AAn?$AAa?$AAb?$AAl?$AAe?$AAd@
CONST	SEGMENT
??_C@_1BK@MEAJEMH@?$AAb?$AAm?$AAa?$AAp?$AA8?$AAE?$AAn?$AAa?$AAb?$AAl?$AAe?$AAd@ DB 'b'
	DB	00H, 'm', 00H, 'a', 00H, 'p', 00H, '8', 00H, 'E', 00H, 'n', 00H
	DB	'a', 00H, 'b', 00H, 'l', 00H, 'e', 00H, 'd', 00H, 00H, 00H ; `string'
CONST	ENDS
;	COMDAT ??_C@_1M@POBKFOAI@?$AAb?$AAm?$AAa?$AAp?$AA9@
CONST	SEGMENT
??_C@_1M@POBKFOAI@?$AAb?$AAm?$AAa?$AAp?$AA9@ DB 'b', 00H, 'm', 00H, 'a', 00H
	DB	'p', 00H, '9', 00H, 00H, 00H			; `string'
CONST	ENDS
;	COMDAT ??_C@_1BK@ODBCCCCG@?$AAb?$AAm?$AAa?$AAp?$AA9?$AAE?$AAn?$AAa?$AAb?$AAl?$AAe?$AAd@
CONST	SEGMENT
??_C@_1BK@ODBCCCCG@?$AAb?$AAm?$AAa?$AAp?$AA9?$AAE?$AAn?$AAa?$AAb?$AAl?$AAe?$AAd@ DB 'b'
	DB	00H, 'm', 00H, 'a', 00H, 'p', 00H, '9', 00H, 'E', 00H, 'n', 00H
	DB	'a', 00H, 'b', 00H, 'l', 00H, 'e', 00H, 'd', 00H, 00H, 00H ; `string'
CONST	ENDS
;	COMDAT ??_C@_1O@FIHCHCCN@?$AAb?$AAm?$AAa?$AAp?$AA1?$AA0@
CONST	SEGMENT
??_C@_1O@FIHCHCCN@?$AAb?$AAm?$AAa?$AAp?$AA1?$AA0@ DB 'b', 00H, 'm', 00H, 'a'
	DB	00H, 'p', 00H, '1', 00H, '0', 00H, 00H, 00H	; `string'
CONST	ENDS
;	COMDAT ??_C@_1BM@LEIHKMGA@?$AAb?$AAm?$AAa?$AAp?$AA1?$AA0?$AAE?$AAn?$AAa?$AAb?$AAl?$AAe?$AAd@
CONST	SEGMENT
??_C@_1BM@LEIHKMGA@?$AAb?$AAm?$AAa?$AAp?$AA1?$AA0?$AAE?$AAn?$AAa?$AAb?$AAl?$AAe?$AAd@ DB 'b'
	DB	00H, 'm', 00H, 'a', 00H, 'p', 00H, '1', 00H, '0', 00H, 'E', 00H
	DB	'n', 00H, 'a', 00H, 'b', 00H, 'l', 00H, 'e', 00H, 'd', 00H, 00H
	DB	00H						; `string'
CONST	ENDS
;	COMDAT ??_C@_1O@OAMOBFEI@?$AAb?$AAm?$AAa?$AAp?$AA1?$AA1@
CONST	SEGMENT
??_C@_1O@OAMOBFEI@?$AAb?$AAm?$AAa?$AAp?$AA1?$AA1@ DB 'b', 00H, 'm', 00H, 'a'
	DB	00H, 'p', 00H, '1', 00H, '1', 00H, 00H, 00H	; `string'
CONST	ENDS
;	COMDAT ??_C@_1BM@FLNFBKIB@?$AAb?$AAm?$AAa?$AAp?$AA1?$AA1?$AAE?$AAn?$AAa?$AAb?$AAl?$AAe?$AAd@
CONST	SEGMENT
??_C@_1BM@FLNFBKIB@?$AAb?$AAm?$AAa?$AAp?$AA1?$AA1?$AAE?$AAn?$AAa?$AAb?$AAl?$AAe?$AAd@ DB 'b'
	DB	00H, 'm', 00H, 'a', 00H, 'p', 00H, '1', 00H, '1', 00H, 'E', 00H
	DB	'n', 00H, 'a', 00H, 'b', 00H, 'l', 00H, 'e', 00H, 'd', 00H, 00H
	DB	00H						; `string'
CONST	ENDS
;	COMDAT ??_C@_1O@PCHLLKKG@?$AAb?$AAm?$AAa?$AAp?$AA1?$AA2@
CONST	SEGMENT
??_C@_1O@PCHLLKKG@?$AAb?$AAm?$AAa?$AAp?$AA1?$AA2@ DB 'b', 00H, 'm', 00H, 'a'
	DB	00H, 'p', 00H, '1', 00H, '2', 00H, 00H, 00H	; `string'
CONST	ENDS
;	COMDAT ??_C@_1BM@LBFDMHOD@?$AAb?$AAm?$AAa?$AAp?$AA1?$AA2?$AAE?$AAn?$AAa?$AAb?$AAl?$AAe?$AAd@
CONST	SEGMENT
??_C@_1BM@LBFDMHOD@?$AAb?$AAm?$AAa?$AAp?$AA1?$AA2?$AAE?$AAn?$AAa?$AAb?$AAl?$AAe?$AAd@ DB 'b'
	DB	00H, 'm', 00H, 'a', 00H, 'p', 00H, '1', 00H, '2', 00H, 'E', 00H
	DB	'n', 00H, 'a', 00H, 'b', 00H, 'l', 00H, 'e', 00H, 'd', 00H, 00H
	DB	00H						; `string'
CONST	ENDS
;	COMDAT ??_C@_1O@EKMHNNMD@?$AAb?$AAm?$AAa?$AAp?$AA1?$AA3@
CONST	SEGMENT
??_C@_1O@EKMHNNMD@?$AAb?$AAm?$AAa?$AAp?$AA1?$AA3@ DB 'b', 00H, 'm', 00H, 'a'
	DB	00H, 'p', 00H, '1', 00H, '3', 00H, 00H, 00H	; `string'
CONST	ENDS
;	COMDAT ??_C@_1BM@FOABHBAC@?$AAb?$AAm?$AAa?$AAp?$AA1?$AA3?$AAE?$AAn?$AAa?$AAb?$AAl?$AAe?$AAd@
CONST	SEGMENT
??_C@_1BM@FOABHBAC@?$AAb?$AAm?$AAa?$AAp?$AA1?$AA3?$AAE?$AAn?$AAa?$AAb?$AAl?$AAe?$AAd@ DB 'b'
	DB	00H, 'm', 00H, 'a', 00H, 'p', 00H, '1', 00H, '3', 00H, 'E', 00H
	DB	'n', 00H, 'a', 00H, 'b', 00H, 'l', 00H, 'e', 00H, 'd', 00H, 00H
	DB	00H						; `string'
CONST	ENDS
;	COMDAT ??_C@_1O@NHBAOFHK@?$AAb?$AAm?$AAa?$AAp?$AA1?$AA4@
CONST	SEGMENT
??_C@_1O@NHBAOFHK@?$AAb?$AAm?$AAa?$AAp?$AA1?$AA4@ DB 'b', 00H, 'm', 00H, 'a'
	DB	00H, 'p', 00H, '1', 00H, '4', 00H, 00H, 00H	; `string'
CONST	ENDS
;	COMDAT ??_C@_1BM@LPCPHLGG@?$AAb?$AAm?$AAa?$AAp?$AA1?$AA4?$AAE?$AAn?$AAa?$AAb?$AAl?$AAe?$AAd@
CONST	SEGMENT
??_C@_1BM@LPCPHLGG@?$AAb?$AAm?$AAa?$AAp?$AA1?$AA4?$AAE?$AAn?$AAa?$AAb?$AAl?$AAe?$AAd@ DB 'b'
	DB	00H, 'm', 00H, 'a', 00H, 'p', 00H, '1', 00H, '4', 00H, 'E', 00H
	DB	'n', 00H, 'a', 00H, 'b', 00H, 'l', 00H, 'e', 00H, 'd', 00H, 00H
	DB	00H						; `string'
CONST	ENDS
;	COMDAT ??_C@_1O@FEMBPDGM@?$AAp?$AAa?$AAr?$AAa?$AAm?$AAs@
CONST	SEGMENT
??_C@_1O@FEMBPDGM@?$AAp?$AAa?$AAr?$AAa?$AAm?$AAs@ DB 'p', 00H, 'a', 00H, 'r'
	DB	00H, 'a', 00H, 'm', 00H, 's', 00H, 00H, 00H	; `string'
CONST	ENDS
;	COMDAT ??_C@_1O@EIFDLKFE@?$AAc?$AAo?$AAl?$AAo?$AAr?$AA1@
CONST	SEGMENT
??_C@_1O@EIFDLKFE@?$AAc?$AAo?$AAl?$AAo?$AAr?$AA1@ DB 'c', 00H, 'o', 00H, 'l'
	DB	00H, 'o', 00H, 'r', 00H, '1', 00H, 00H, 00H	; `string'
CONST	ENDS
;	COMDAT ??_C@_1O@FKOGBFLK@?$AAc?$AAo?$AAl?$AAo?$AAr?$AA2@
CONST	SEGMENT
??_C@_1O@FKOGBFLK@?$AAc?$AAo?$AAl?$AAo?$AAr?$AA2@ DB 'c', 00H, 'o', 00H, 'l'
	DB	00H, 'o', 00H, 'r', 00H, '2', 00H, 00H, 00H	; `string'
CONST	ENDS
;	COMDAT ??_C@_19GHJICKGJ@?$AAm?$AAa?$AAp?$AA1@
CONST	SEGMENT
??_C@_19GHJICKGJ@?$AAm?$AAa?$AAp?$AA1@ DB 'm', 00H, 'a', 00H, 'p', 00H, '1'
	DB	00H, 00H, 00H				; `string'
CONST	ENDS
;	COMDAT ??_C@_19HFCNIFIH@?$AAm?$AAa?$AAp?$AA2@
CONST	SEGMENT
??_C@_19HFCNIFIH@?$AAm?$AAa?$AAp?$AA2@ DB 'm', 00H, 'a', 00H, 'p', 00H, '2'
	DB	00H, 00H, 00H				; `string'
CONST	ENDS
;	COMDAT ??_C@_1BI@KGCLGEMF@?$AAm?$AAa?$AAp?$AA1?$AAE?$AAn?$AAa?$AAb?$AAl?$AAe?$AAd@
CONST	SEGMENT
??_C@_1BI@KGCLGEMF@?$AAm?$AAa?$AAp?$AA1?$AAE?$AAn?$AAa?$AAb?$AAl?$AAe?$AAd@ DB 'm'
	DB	00H, 'a', 00H, 'p', 00H, '1', 00H, 'E', 00H, 'n', 00H, 'a', 00H
	DB	'b', 00H, 'l', 00H, 'e', 00H, 'd', 00H, 00H, 00H ; `string'
CONST	ENDS
;	COMDAT ??_C@_1BI@EMKNLJKH@?$AAm?$AAa?$AAp?$AA2?$AAE?$AAn?$AAa?$AAb?$AAl?$AAe?$AAd@
CONST	SEGMENT
??_C@_1BI@EMKNLJKH@?$AAm?$AAa?$AAp?$AA2?$AAE?$AAn?$AAa?$AAb?$AAl?$AAe?$AAd@ DB 'm'
	DB	00H, 'a', 00H, 'p', 00H, '2', 00H, 'E', 00H, 'n', 00H, 'a', 00H
	DB	'b', 00H, 'l', 00H, 'e', 00H, 'd', 00H, 00H, 00H ; `string'
CONST	ENDS
;	COMDAT ??_C@_19GIOODLBE@?$AAs?$AAi?$AAz?$AAe@
CONST	SEGMENT
??_C@_19GIOODLBE@?$AAs?$AAi?$AAz?$AAe@ DB 's', 00H, 'i', 00H, 'z', 00H, 'e'
	DB	00H, 00H, 00H				; `string'
CONST	ENDS
;	COMDAT ??_C@_1BK@GHPMGGPJ@?$AAt?$AAh?$AAr?$AAe?$AAs?$AAh?$AAo?$AAl?$AAd?$AAL?$AAo?$AAw@
CONST	SEGMENT
??_C@_1BK@GHPMGGPJ@?$AAt?$AAh?$AAr?$AAe?$AAs?$AAh?$AAo?$AAl?$AAd?$AAL?$AAo?$AAw@ DB 't'
	DB	00H, 'h', 00H, 'r', 00H, 'e', 00H, 's', 00H, 'h', 00H, 'o', 00H
	DB	'l', 00H, 'd', 00H, 'L', 00H, 'o', 00H, 'w', 00H, 00H, 00H ; `string'
CONST	ENDS
;	COMDAT ??_C@_1BM@FDGPINOP@?$AAt?$AAh?$AAr?$AAe?$AAs?$AAh?$AAo?$AAl?$AAd?$AAH?$AAi?$AAg?$AAh@
CONST	SEGMENT
??_C@_1BM@FDGPINOP@?$AAt?$AAh?$AAr?$AAe?$AAs?$AAh?$AAo?$AAl?$AAd?$AAH?$AAi?$AAg?$AAh@ DB 't'
	DB	00H, 'h', 00H, 'r', 00H, 'e', 00H, 's', 00H, 'h', 00H, 'o', 00H
	DB	'l', 00H, 'd', 00H, 'H', 00H, 'i', 00H, 'g', 00H, 'h', 00H, 00H
	DB	00H						; `string'
CONST	ENDS
;	COMDAT ??_C@_1M@PPFPCEJL@?$AAp?$AAh?$AAa?$AAs?$AAe@
CONST	SEGMENT
??_C@_1M@PPFPCEJL@?$AAp?$AAh?$AAa?$AAs?$AAe@ DB 'p', 00H, 'h', 00H, 'a', 00H
	DB	's', 00H, 'e', 00H, 00H, 00H			; `string'
CONST	ENDS
;	COMDAT ??_C@_1BO@FFCIKJO@?$AAn?$AAo?$AAi?$AAs?$AAe?$AA_?$AAf?$AAu?$AAn?$AAc?$AAt?$AAi?$AAo?$AAn@
CONST	SEGMENT
??_C@_1BO@FFCIKJO@?$AAn?$AAo?$AAi?$AAs?$AAe?$AA_?$AAf?$AAu?$AAn?$AAc?$AAt?$AAi?$AAo?$AAn@ DB 'n'
	DB	00H, 'o', 00H, 'i', 00H, 's', 00H, 'e', 00H, '_', 00H, 'f', 00H
	DB	'u', 00H, 'n', 00H, 'c', 00H, 't', 00H, 'i', 00H, 'o', 00H, 'n'
	DB	00H, 00H, 00H				; `string'
CONST	ENDS
;	COMDAT ??_C@_1BO@KFPLBLON@?$AAw?$AAo?$AAr?$AAl?$AAe?$AAy?$AAD?$AAi?$AAs?$AAt?$AAa?$AAn?$AAc?$AAe@
CONST	SEGMENT
??_C@_1BO@KFPLBLON@?$AAw?$AAo?$AAr?$AAl?$AAe?$AAy?$AAD?$AAi?$AAs?$AAt?$AAa?$AAn?$AAc?$AAe@ DB 'w'
	DB	00H, 'o', 00H, 'r', 00H, 'l', 00H, 'e', 00H, 'y', 00H, 'D', 00H
	DB	'i', 00H, 's', 00H, 't', 00H, 'a', 00H, 'n', 00H, 'c', 00H, 'e'
	DB	00H, 00H, 00H				; `string'
CONST	ENDS
;	COMDAT ??_C@_17KNNOMOKK@?$AAw?$AAF?$AA1@
CONST	SEGMENT
??_C@_17KNNOMOKK@?$AAw?$AAF?$AA1@ DB 'w', 00H, 'F', 00H, '1', 00H, 00H, 00H ; `string'
CONST	ENDS
;	COMDAT ??_C@_17LPGLGBEE@?$AAw?$AAF?$AA2@
CONST	SEGMENT
??_C@_17LPGLGBEE@?$AAw?$AAF?$AA2@ DB 'w', 00H, 'F', 00H, '2', 00H, 00H, 00H ; `string'
CONST	ENDS
;	COMDAT ??_C@_17HNHAGCB@?$AAw?$AAF?$AA3@
CONST	SEGMENT
??_C@_17HNHAGCB@?$AAw?$AAF?$AA3@ DB 'w', 00H, 'F', 00H, '3', 00H, 00H, 00H ; `string'
CONST	ENDS
;	COMDAT ??_C@_17JKAADOJI@?$AAw?$AAF?$AA4@
CONST	SEGMENT
??_C@_17JKAADOJI@?$AAw?$AAF?$AA4@ DB 'w', 00H, 'F', 00H, '4', 00H, 00H, 00H ; `string'
CONST	ENDS
;	COMDAT ??_C@_1BK@IIBHKCH@?$AAw?$AAo?$AAr?$AAl?$AAe?$AAy?$AAS?$AAp?$AAr?$AAe?$AAa?$AAd@
CONST	SEGMENT
??_C@_1BK@IIBHKCH@?$AAw?$AAo?$AAr?$AAl?$AAe?$AAy?$AAS?$AAp?$AAr?$AAe?$AAa?$AAd@ DB 'w'
	DB	00H, 'o', 00H, 'r', 00H, 'l', 00H, 'e', 00H, 'y', 00H, 'S', 00H
	DB	'p', 00H, 'r', 00H, 'e', 00H, 'a', 00H, 'd', 00H, 00H, 00H ; `string'
CONST	ENDS
;	COMDAT ??_C@_1BI@IFLGJJNN@?$AAf?$AAr?$AAa?$AAc?$AAt?$AAa?$AAl?$AAT?$AAy?$AAp?$AAe@
CONST	SEGMENT
??_C@_1BI@IFLGJJNN@?$AAf?$AAr?$AAa?$AAc?$AAt?$AAa?$AAl?$AAT?$AAy?$AAp?$AAe@ DB 'f'
	DB	00H, 'r', 00H, 'a', 00H, 'c', 00H, 't', 00H, 'a', 00H, 'l', 00H
	DB	'T', 00H, 'y', 00H, 'p', 00H, 'e', 00H, 00H, 00H ; `string'
CONST	ENDS
;	COMDAT ??_C@_1O@FNHNBIHH@?$AAl?$AAe?$AAv?$AAe?$AAl?$AAs@
CONST	SEGMENT
??_C@_1O@FNHNBIHH@?$AAl?$AAe?$AAv?$AAe?$AAl?$AAs@ DB 'l', 00H, 'e', 00H, 'v'
	DB	00H, 'e', 00H, 'l', 00H, 's', 00H, 00H, 00H	; `string'
CONST	ENDS
;	COMDAT ??_C@_1BI@BFKJFNPK@?$AAf?$AAr?$AAa?$AAc?$AAt?$AAa?$AAl?$AAG?$AAa?$AAi?$AAn@
CONST	SEGMENT
??_C@_1BI@BFKJFNPK@?$AAf?$AAr?$AAa?$AAc?$AAt?$AAa?$AAl?$AAG?$AAa?$AAi?$AAn@ DB 'f'
	DB	00H, 'r', 00H, 'a', 00H, 'c', 00H, 't', 00H, 'a', 00H, 'l', 00H
	DB	'G', 00H, 'a', 00H, 'i', 00H, 'n', 00H, 00H, 00H ; `string'
CONST	ENDS
;	COMDAT ??_C@_1BM@HCLHIJIH@?$AAf?$AAr?$AAa?$AAc?$AAt?$AAa?$AAl?$AAO?$AAf?$AAf?$AAs?$AAe?$AAt@
CONST	SEGMENT
??_C@_1BM@HCLHIJIH@?$AAf?$AAr?$AAa?$AAc?$AAt?$AAa?$AAl?$AAO?$AAf?$AAf?$AAs?$AAe?$AAt@ DB 'f'
	DB	00H, 'r', 00H, 'a', 00H, 'c', 00H, 't', 00H, 'a', 00H, 'l', 00H
	DB	'O', 00H, 'f', 00H, 'f', 00H, 's', 00H, 'e', 00H, 't', 00H, 00H
	DB	00H						; `string'
CONST	ENDS
;	COMDAT ??_C@_1BC@KFPODIIO@?$AAf?$AAr?$AAa?$AAc?$AAt?$AAa?$AAl?$AAH@
CONST	SEGMENT
??_C@_1BC@KFPODIIO@?$AAf?$AAr?$AAa?$AAc?$AAt?$AAa?$AAl?$AAH@ DB 'f', 00H, 'r'
	DB	00H, 'a', 00H, 'c', 00H, 't', 00H, 'a', 00H, 'l', 00H, 'H', 00H
	DB	00H, 00H					; `string'
CONST	ENDS
;	COMDAT ??_C@_1CE@MPOFFPKF@?$AAf?$AAr?$AAa?$AAc?$AAt?$AAa?$AAl?$AAL?$AAa?$AAc?$AAu?$AAn?$AAa?$AAr?$AAi@
CONST	SEGMENT
??_C@_1CE@MPOFFPKF@?$AAf?$AAr?$AAa?$AAc?$AAt?$AAa?$AAl?$AAL?$AAa?$AAc?$AAu?$AAn?$AAa?$AAr?$AAi@ DB 'f'
	DB	00H, 'r', 00H, 'a', 00H, 'c', 00H, 't', 00H, 'a', 00H, 'l', 00H
	DB	'L', 00H, 'a', 00H, 'c', 00H, 'u', 00H, 'n', 00H, 'a', 00H, 'r'
	DB	00H, 'i', 00H, 't', 00H, 'y', 00H, 00H, 00H	; `string'
CONST	ENDS
;	COMDAT ??_C@_19MNJBOCOC@?$AAm?$AAa?$AAp?$AA3@
CONST	SEGMENT
??_C@_19MNJBOCOC@?$AAm?$AAa?$AAp?$AA3@ DB 'm', 00H, 'a', 00H, 'p', 00H, '3'
	DB	00H, 00H, 00H				; `string'
CONST	ENDS
;	COMDAT ??_C@_19FAEGNKFL@?$AAm?$AAa?$AAp?$AA4@
CONST	SEGMENT
??_C@_19FAEGNKFL@?$AAm?$AAa?$AAp?$AA4@ DB 'm', 00H, 'a', 00H, 'p', 00H, '4'
	DB	00H, 00H, 00H				; `string'
CONST	ENDS
;	COMDAT ??_C@_1BM@DKGEJKPL@?$AAd?$AAi?$AAs?$AAt?$AAo?$AAr?$AAt?$AAi?$AAo?$AAn?$AAS?$AAt?$AAr@
CONST	SEGMENT
??_C@_1BM@DKGEJKPL@?$AAd?$AAi?$AAs?$AAt?$AAo?$AAr?$AAt?$AAi?$AAo?$AAn?$AAS?$AAt?$AAr@ DB 'd'
	DB	00H, 'i', 00H, 's', 00H, 't', 00H, 'o', 00H, 'r', 00H, 't', 00H
	DB	'i', 00H, 'o', 00H, 'n', 00H, 'S', 00H, 't', 00H, 'r', 00H, 00H
	DB	00H						; `string'
CONST	ENDS
;	COMDAT ??_C@_1BM@HCNKLGAJ@?$AAu?$AAs?$AAe?$AAD?$AAi?$AAs?$AAt?$AAo?$AAr?$AAt?$AAi?$AAo?$AAn@
CONST	SEGMENT
??_C@_1BM@HCNKLGAJ@?$AAu?$AAs?$AAe?$AAD?$AAi?$AAs?$AAt?$AAo?$AAr?$AAt?$AAi?$AAo?$AAn@ DB 'u'
	DB	00H, 's', 00H, 'e', 00H, 'D', 00H, 'i', 00H, 's', 00H, 't', 00H
	DB	'o', 00H, 'r', 00H, 't', 00H, 'i', 00H, 'o', 00H, 'n', 00H, 00H
	DB	00H						; `string'
CONST	ENDS
;	COMDAT ??_C@_1BM@NGCAEKNK@?$AAU?$AAV?$AAW?$AAd?$AAi?$AAs?$AAt?$AAo?$AAr?$AAt?$AAi?$AAo?$AAn@
CONST	SEGMENT
??_C@_1BM@NGCAEKNK@?$AAU?$AAV?$AAW?$AAd?$AAi?$AAs?$AAt?$AAo?$AAr?$AAt?$AAi?$AAo?$AAn@ DB 'U'
	DB	00H, 'V', 00H, 'W', 00H, 'd', 00H, 'i', 00H, 's', 00H, 't', 00H
	DB	'o', 00H, 'r', 00H, 't', 00H, 'i', 00H, 'o', 00H, 'n', 00H, 00H
	DB	00H						; `string'
CONST	ENDS
;	COMDAT ??_C@_1O@KEKEFEMI@?$AAo?$AAu?$AAt?$AAp?$AAu?$AAt@
CONST	SEGMENT
??_C@_1O@KEKEFEMI@?$AAo?$AAu?$AAt?$AAp?$AAu?$AAt@ DB 'o', 00H, 'u', 00H, 't'
	DB	00H, 'p', 00H, 'u', 00H, 't', 00H, 00H, 00H	; `string'
CONST	ENDS
;	COMDAT ??_C@_1BI@OFHJLFOO@?$AAB?$AAe?$AAr?$AAc?$AAo?$AAn?$AAN?$AAo?$AAi?$AAs?$AAe@
CONST	SEGMENT
??_C@_1BI@OFHJLFOO@?$AAB?$AAe?$AAr?$AAc?$AAo?$AAn?$AAN?$AAo?$AAi?$AAs?$AAe@ DB 'B'
	DB	00H, 'e', 00H, 'r', 00H, 'c', 00H, 'o', 00H, 'n', 00H, 'N', 00H
	DB	'o', 00H, 'i', 00H, 's', 00H, 'e', 00H, 00H, 00H ; `string'
CONST	ENDS
;	COMDAT ??_7BerconNoiseClassDesc@@6B@
CONST	SEGMENT
??_7BerconNoiseClassDesc@@6B@ DQ FLAT:??_R4BerconNoiseClassDesc@@6B@ ; BerconNoiseClassDesc::`vftable'
	DQ	FLAT:??_EBerconNoiseClassDesc@@UEAAPEAXI@Z
	DQ	FLAT:?IsPublic@BerconNoiseClassDesc@@UEAAHXZ
	DQ	FLAT:?Create@BerconNoiseClassDesc@@UEAAPEAXH@Z
	DQ	FLAT:?BeginCreate@ClassDesc@@UEAAHPEAVInterface@@@Z
	DQ	FLAT:?EndCreate@ClassDesc@@UEAAHPEAVInterface@@@Z
	DQ	FLAT:?OkToCreate@ClassDesc@@UEAAHPEAVInterface@@@Z
	DQ	FLAT:?ClassName@BerconNoiseClassDesc@@UEAAPEB_WXZ
	DQ	FLAT:?SuperClassID@BerconNoiseClassDesc@@UEAAKXZ
	DQ	FLAT:?ClassID@BerconNoiseClassDesc@@UEAA?AVClass_ID@@XZ
	DQ	FLAT:?Category@BerconNoiseClassDesc@@UEAAPEB_WXZ
	DQ	FLAT:?HasClassParams@ClassDesc@@UEAAHXZ
	DQ	FLAT:?EditClassParams@ClassDesc@@UEAAXPEAUHWND__@@@Z
	DQ	FLAT:?ResetClassParams@ClassDesc2@@UEAAXH@Z
	DQ	FLAT:?NumActionTables@ClassDesc@@UEAAHXZ
	DQ	FLAT:?GetActionTable@ClassDesc@@UEAAPEAVActionTable@@H@Z
	DQ	FLAT:?IsManipulator@ClassDesc@@UEAAHXZ
	DQ	FLAT:?CanManipulate@ClassDesc@@UEAAHPEAVReferenceTarget@@@Z
	DQ	FLAT:?CanManipulateNode@ClassDesc@@UEAAHPEAVINode@@@Z
	DQ	FLAT:?CreateManipulator@ClassDesc@@UEAAPEAVManipulator@@PEAVINode@@@Z
	DQ	FLAT:?CreateManipulator@ClassDesc@@UEAAPEAVManipulator@@PEAVReferenceTarget@@PEAVINode@@@Z
	DQ	FLAT:?NeedsToSave@ClassDesc@@UEAAHXZ
	DQ	FLAT:?Save@ClassDesc@@UEAA?AW4IOResult@@PEAVISave@@@Z
	DQ	FLAT:?Load@ClassDesc@@UEAA?AW4IOResult@@PEAVILoad@@@Z
	DQ	FLAT:?InitialRollupPageState@ClassDesc@@UEAAKXZ
	DQ	FLAT:?InternalName@BerconNoiseClassDesc@@UEAAPEB_WXZ
	DQ	FLAT:?UseOnlyInternalNameForMAXScriptExposure@ClassDesc@@UEAA_NXZ
	DQ	FLAT:?HInstance@BerconNoiseClassDesc@@UEAAPEAUHINSTANCE__@@XZ
	DQ	FLAT:?NumParamBlockDescs@ClassDesc2@@UEAAHXZ
	DQ	FLAT:?GetParamBlockDesc@ClassDesc2@@UEAAPEAVParamBlockDesc2@@H@Z
	DQ	FLAT:?GetParamBlockDescByID@ClassDesc2@@UEAAPEAVParamBlockDesc2@@F@Z
	DQ	FLAT:?AddParamBlockDesc@ClassDesc2@@UEAAXPEAVParamBlockDesc2@@@Z
	DQ	FLAT:?BeginEditParams@ClassDesc2@@UEAAXPEAVIObjParam@@PEAVReferenceMaker@@KPEAVAnimatable@@@Z
	DQ	FLAT:?EndEditParams@ClassDesc2@@UEAAXPEAVIObjParam@@PEAVReferenceMaker@@KPEAVAnimatable@@@Z
	DQ	FLAT:?InvalidateUI@ClassDesc2@@UEAAXPEAVParamBlockDesc2@@@Z
	DQ	FLAT:?GetRsrcString@ClassDesc@@UEAAPEB_W_J@Z
	DQ	FLAT:?MakeAutoParamBlocks@ClassDesc2@@UEAAXPEAVReferenceMaker@@@Z
	DQ	FLAT:?NumParamMaps@ClassDesc2@@UEAAHXZ
	DQ	FLAT:?GetParamMap@ClassDesc@@UEAAPEAVIParamMap2@@PEAVParamBlockDesc2@@@Z
	DQ	FLAT:?GetParamMap@ClassDesc2@@UEAAPEAVIParamMap2@@H@Z
	DQ	FLAT:?SetUserDlgProc@ClassDesc2@@UEAA_NPEAVParamBlockDesc2@@PEAVParamMap2UserDlgProc@@@Z
	DQ	FLAT:?GetUserDlgProc@ClassDesc@@UEAAPEAVParamMap2UserDlgProc@@PEAVParamBlockDesc2@@@Z
	DQ	FLAT:?DrawRepresentation@ClassDesc@@UEAA_NKPEAUHDC__@@AEAVBox2@@@Z
	DQ	FLAT:?NumInterfaces@ClassDesc@@UEAAHXZ
	DQ	FLAT:?GetInterfaceAt@ClassDesc@@UEAAPEAVFPInterface@@H@Z
	DQ	FLAT:?GetInterface@ClassDesc@@UEAAPEAVFPInterface@@PEB_W@Z
	DQ	FLAT:?GetInterface@ClassDesc@@UEAAPEAVFPInterface@@VInterface_ID@@@Z
	DQ	FLAT:?AddInterface@ClassDesc@@UEAAXPEAVFPInterface@@@Z
	DQ	FLAT:?ClearInterfaces@ClassDesc@@UEAAXXZ
	DQ	FLAT:?SubClassID@ClassDesc@@UEAA?AVClass_ID@@XZ
	DQ	FLAT:?Execute@ClassDesc@@UEAA_JH_K00@Z
	DQ	FLAT:?CreateQtWidget@ClassDesc2@@UEAAPEAVQMaxParamBlockWidget@MaxSDK@@AEAVReferenceMaker@@AEAVIParamBlock2@@FAEAVWStr@@AEAH3@Z
CONST	ENDS
;	COMDAT ??_C@_1BA@KMAKHADK@?$AAM?$AAa?$AAp?$AAp?$AAi?$AAn?$AAg@
CONST	SEGMENT
??_C@_1BA@KMAKHADK@?$AAM?$AAa?$AAp?$AAp?$AAi?$AAn?$AAg@ DB 'M', 00H, 'a', 00H
	DB	'p', 00H, 'p', 00H, 'i', 00H, 'n', 00H, 'g', 00H, 00H, 00H ; `string'
CONST	ENDS
;	COMDAT ??_C@_1BA@JOBDKJKA@?$AAx?$AAy?$AAz?$AA_?$AAm?$AAa?$AAp@
CONST	SEGMENT
??_C@_1BA@JOBDKJKA@?$AAx?$AAy?$AAz?$AA_?$AAm?$AAa?$AAp@ DB 'x', 00H, 'y', 00H
	DB	'z', 00H, '_', 00H, 'm', 00H, 'a', 00H, 'p', 00H, 00H, 00H ; `string'
CONST	ENDS
;	COMDAT ??_C@_1BC@BDPIEDCA@?$AAx?$AAy?$AAz?$AA_?$AAc?$AAh?$AAa?$AAn@
CONST	SEGMENT
??_C@_1BC@BDPIEDCA@?$AAx?$AAy?$AAz?$AA_?$AAc?$AAh?$AAa?$AAn@ DB 'x', 00H, 'y'
	DB	00H, 'z', 00H, '_', 00H, 'c', 00H, 'h', 00H, 'a', 00H, 'n', 00H
	DB	00H, 00H					; `string'
CONST	ENDS
;	COMDAT ??_C@_1BK@NFJCNAOI@?$AAx?$AAy?$AAz?$AA_?$AAo?$AAf?$AAf?$AAs?$AAe?$AAt?$AA_?$AAx@
CONST	SEGMENT
??_C@_1BK@NFJCNAOI@?$AAx?$AAy?$AAz?$AA_?$AAo?$AAf?$AAf?$AAs?$AAe?$AAt?$AA_?$AAx@ DB 'x'
	DB	00H, 'y', 00H, 'z', 00H, '_', 00H, 'o', 00H, 'f', 00H, 'f', 00H
	DB	's', 00H, 'e', 00H, 't', 00H, '_', 00H, 'x', 00H, 00H, 00H ; `string'
CONST	ENDS
;	COMDAT ??_C@_1BK@GNCOLHIN@?$AAx?$AAy?$AAz?$AA_?$AAo?$AAf?$AAf?$AAs?$AAe?$AAt?$AA_?$AAy@
CONST	SEGMENT
??_C@_1BK@GNCOLHIN@?$AAx?$AAy?$AAz?$AA_?$AAo?$AAf?$AAf?$AAs?$AAe?$AAt?$AA_?$AAy@ DB 'x'
	DB	00H, 'y', 00H, 'z', 00H, '_', 00H, 'o', 00H, 'f', 00H, 'f', 00H
	DB	's', 00H, 'e', 00H, 't', 00H, '_', 00H, 'y', 00H, 00H, 00H ; `string'
CONST	ENDS
;	COMDAT ??_C@_1BK@HPJLBIGD@?$AAx?$AAy?$AAz?$AA_?$AAo?$AAf?$AAf?$AAs?$AAe?$AAt?$AA_?$AAz@
CONST	SEGMENT
??_C@_1BK@HPJLBIGD@?$AAx?$AAy?$AAz?$AA_?$AAo?$AAf?$AAf?$AAs?$AAe?$AAt?$AA_?$AAz@ DB 'x'
	DB	00H, 'y', 00H, 'z', 00H, '_', 00H, 'o', 00H, 'f', 00H, 'f', 00H
	DB	's', 00H, 'e', 00H, 't', 00H, '_', 00H, 'z', 00H, 00H, 00H ; `string'
CONST	ENDS
;	COMDAT ??_C@_1BG@KGFFJCNH@?$AAx?$AAy?$AAz?$AA_?$AAs?$AAi?$AAz?$AAe?$AA_?$AAx@
CONST	SEGMENT
??_C@_1BG@KGFFJCNH@?$AAx?$AAy?$AAz?$AA_?$AAs?$AAi?$AAz?$AAe?$AA_?$AAx@ DB 'x'
	DB	00H, 'y', 00H, 'z', 00H, '_', 00H, 's', 00H, 'i', 00H, 'z', 00H
	DB	'e', 00H, '_', 00H, 'x', 00H, 00H, 00H	; `string'
CONST	ENDS
;	COMDAT ??_C@_1BG@BOOJPFLC@?$AAx?$AAy?$AAz?$AA_?$AAs?$AAi?$AAz?$AAe?$AA_?$AAy@
CONST	SEGMENT
??_C@_1BG@BOOJPFLC@?$AAx?$AAy?$AAz?$AA_?$AAs?$AAi?$AAz?$AAe?$AA_?$AAy@ DB 'x'
	DB	00H, 'y', 00H, 'z', 00H, '_', 00H, 's', 00H, 'i', 00H, 'z', 00H
	DB	'e', 00H, '_', 00H, 'y', 00H, 00H, 00H	; `string'
CONST	ENDS
;	COMDAT ??_C@_1BG@MFMFKFM@?$AAx?$AAy?$AAz?$AA_?$AAs?$AAi?$AAz?$AAe?$AA_?$AAz@
CONST	SEGMENT
??_C@_1BG@MFMFKFM@?$AAx?$AAy?$AAz?$AA_?$AAs?$AAi?$AAz?$AAe?$AA_?$AAz@ DB 'x'
	DB	00H, 'y', 00H, 'z', 00H, '_', 00H, 's', 00H, 'i', 00H, 'z', 00H
	DB	'e', 00H, '_', 00H, 'z', 00H, 00H, 00H	; `string'
CONST	ENDS
;	COMDAT ??_C@_1BI@BKLPIDEI@?$AAx?$AAy?$AAz?$AA_?$AAa?$AAn?$AAg?$AAl?$AAe?$AA_?$AAx@
CONST	SEGMENT
??_C@_1BI@BKLPIDEI@?$AAx?$AAy?$AAz?$AA_?$AAa?$AAn?$AAg?$AAl?$AAe?$AA_?$AAx@ DB 'x'
	DB	00H, 'y', 00H, 'z', 00H, '_', 00H, 'a', 00H, 'n', 00H, 'g', 00H
	DB	'l', 00H, 'e', 00H, '_', 00H, 'x', 00H, 00H, 00H ; `string'
CONST	ENDS
;	COMDAT ??_C@_1BI@KCADOECN@?$AAx?$AAy?$AAz?$AA_?$AAa?$AAn?$AAg?$AAl?$AAe?$AA_?$AAy@
CONST	SEGMENT
??_C@_1BI@KCADOECN@?$AAx?$AAy?$AAz?$AA_?$AAa?$AAn?$AAg?$AAl?$AAe?$AA_?$AAy@ DB 'x'
	DB	00H, 'y', 00H, 'z', 00H, '_', 00H, 'a', 00H, 'n', 00H, 'g', 00H
	DB	'l', 00H, 'e', 00H, '_', 00H, 'y', 00H, 00H, 00H ; `string'
CONST	ENDS
;	COMDAT ??_C@_1BI@LALGELMD@?$AAx?$AAy?$AAz?$AA_?$AAa?$AAn?$AAg?$AAl?$AAe?$AA_?$AAz@
CONST	SEGMENT
??_C@_1BI@LALGELMD@?$AAx?$AAy?$AAz?$AA_?$AAa?$AAn?$AAg?$AAl?$AAe?$AA_?$AAz@ DB 'x'
	DB	00H, 'y', 00H, 'z', 00H, '_', 00H, 'a', 00H, 'n', 00H, 'g', 00H
	DB	'l', 00H, 'e', 00H, '_', 00H, 'z', 00H, 00H, 00H ; `string'
CONST	ENDS
;	COMDAT ??_C@_1BG@OJCIMJLI@?$AAx?$AAy?$AAz?$AA_?$AAt?$AAi?$AAl?$AAe?$AA_?$AAx@
CONST	SEGMENT
??_C@_1BG@OJCIMJLI@?$AAx?$AAy?$AAz?$AA_?$AAt?$AAi?$AAl?$AAe?$AA_?$AAx@ DB 'x'
	DB	00H, 'y', 00H, 'z', 00H, '_', 00H, 't', 00H, 'i', 00H, 'l', 00H
	DB	'e', 00H, '_', 00H, 'x', 00H, 00H, 00H	; `string'
CONST	ENDS
;	COMDAT ??_C@_1BG@FBJEKONN@?$AAx?$AAy?$AAz?$AA_?$AAt?$AAi?$AAl?$AAe?$AA_?$AAy@
CONST	SEGMENT
??_C@_1BG@FBJEKONN@?$AAx?$AAy?$AAz?$AA_?$AAt?$AAi?$AAl?$AAe?$AA_?$AAy@ DB 'x'
	DB	00H, 'y', 00H, 'z', 00H, '_', 00H, 't', 00H, 'i', 00H, 'l', 00H
	DB	'e', 00H, '_', 00H, 'y', 00H, 00H, 00H	; `string'
CONST	ENDS
;	COMDAT ??_C@_1BG@EDCBABDD@?$AAx?$AAy?$AAz?$AA_?$AAt?$AAi?$AAl?$AAe?$AA_?$AAz@
CONST	SEGMENT
??_C@_1BG@EDCBABDD@?$AAx?$AAy?$AAz?$AA_?$AAt?$AAi?$AAl?$AAe?$AA_?$AAz@ DB 'x'
	DB	00H, 'y', 00H, 'z', 00H, '_', 00H, 't', 00H, 'i', 00H, 'l', 00H
	DB	'e', 00H, '_', 00H, 'z', 00H, 00H, 00H	; `string'
CONST	ENDS
;	COMDAT ??_C@_19HFHNPJHA@?$AAs?$AAe?$AAe?$AAd@
CONST	SEGMENT
??_C@_19HFHNPJHA@?$AAs?$AAe?$AAe?$AAd@ DB 's', 00H, 'e', 00H, 'e', 00H, 'd'
	DB	00H, 00H, 00H				; `string'
CONST	ENDS
;	COMDAT ??_C@_1BE@DCGEPHFM@?$AAr?$AAa?$AAn?$AAd?$AAB?$AAy?$AAM?$AAa?$AAt@
CONST	SEGMENT
??_C@_1BE@DCGEPHFM@?$AAr?$AAa?$AAn?$AAd?$AAB?$AAy?$AAM?$AAa?$AAt@ DB 'r', 00H
	DB	'a', 00H, 'n', 00H, 'd', 00H, 'B', 00H, 'y', 00H, 'M', 00H, 'a'
	DB	00H, 't', 00H, 00H, 00H			; `string'
CONST	ENDS
;	COMDAT ??_C@_1BE@EGBDKCCD@?$AAr?$AAa?$AAn?$AAd?$AAB?$AAy?$AAO?$AAb?$AAj@
CONST	SEGMENT
??_C@_1BE@EGBDKCCD@?$AAr?$AAa?$AAn?$AAd?$AAB?$AAy?$AAO?$AAb?$AAj@ DB 'r', 00H
	DB	'a', 00H, 'n', 00H, 'd', 00H, 'B', 00H, 'y', 00H, 'O', 00H, 'b'
	DB	00H, 'j', 00H, 00H, 00H			; `string'
CONST	ENDS
;	COMDAT ??_C@_1BE@PALBIMHK@?$AAr?$AAa?$AAn?$AAd?$AAB?$AAy?$AAP?$AAa?$AAr@
CONST	SEGMENT
??_C@_1BE@PALBIMHK@?$AAr?$AAa?$AAn?$AAd?$AAB?$AAy?$AAP?$AAa?$AAr@ DB 'r', 00H
	DB	'a', 00H, 'n', 00H, 'd', 00H, 'B', 00H, 'y', 00H, 'P', 00H, 'a'
	DB	00H, 'r', 00H, 00H, 00H			; `string'
CONST	ENDS
;	COMDAT ??_C@_1BM@EKFGEOII@?$AAx?$AAy?$AAz?$AA_?$AAo?$AAf?$AAf?$AAs?$AAe?$AAt?$AA_?$AAx?$AA2@
CONST	SEGMENT
??_C@_1BM@EKFGEOII@?$AAx?$AAy?$AAz?$AA_?$AAo?$AAf?$AAf?$AAs?$AAe?$AAt?$AA_?$AAx?$AA2@ DB 'x'
	DB	00H, 'y', 00H, 'z', 00H, '_', 00H, 'o', 00H, 'f', 00H, 'f', 00H
	DB	's', 00H, 'e', 00H, 't', 00H, '_', 00H, 'x', 00H, '2', 00H, 00H
	DB	00H						; `string'
CONST	ENDS
;	COMDAT ??_C@_1BM@IBAKJNCN@?$AAx?$AAy?$AAz?$AA_?$AAo?$AAf?$AAf?$AAs?$AAe?$AAt?$AA_?$AAy?$AA2@
CONST	SEGMENT
??_C@_1BM@IBAKJNCN@?$AAx?$AAy?$AAz?$AA_?$AAo?$AAf?$AAf?$AAs?$AAe?$AAt?$AA_?$AAy?$AA2@ DB 'x'
	DB	00H, 'y', 00H, 'z', 00H, '_', 00H, 'o', 00H, 'f', 00H, 'f', 00H
	DB	's', 00H, 'e', 00H, 't', 00H, '_', 00H, 'y', 00H, '2', 00H, 00H
	DB	00H						; `string'
CONST	ENDS
;	COMDAT ??_C@_1BM@HJOOPID@?$AAx?$AAy?$AAz?$AA_?$AAo?$AAf?$AAf?$AAs?$AAe?$AAt?$AA_?$AAz?$AA2@
CONST	SEGMENT
??_C@_1BM@HJOOPID@?$AAx?$AAy?$AAz?$AA_?$AAo?$AAf?$AAf?$AAs?$AAe?$AAt?$AA_?$AAz?$AA2@ DB 'x'
	DB	00H, 'y', 00H, 'z', 00H, '_', 00H, 'o', 00H, 'f', 00H, 'f', 00H
	DB	's', 00H, 'e', 00H, 't', 00H, '_', 00H, 'z', 00H, '2', 00H, 00H
	DB	00H						; `string'
CONST	ENDS
;	COMDAT ??_C@_1BI@IKFKDHMP@?$AAx?$AAy?$AAz?$AA_?$AAs?$AAi?$AAz?$AAe?$AA_?$AAx?$AA2@
CONST	SEGMENT
??_C@_1BI@IKFKDHMP@?$AAx?$AAy?$AAz?$AA_?$AAs?$AAi?$AAz?$AAe?$AA_?$AAx?$AA2@ DB 'x'
	DB	00H, 'y', 00H, 'z', 00H, '_', 00H, 's', 00H, 'i', 00H, 'z', 00H
	DB	'e', 00H, '_', 00H, 'x', 00H, '2', 00H, 00H, 00H ; `string'
CONST	ENDS
;	COMDAT ??_C@_1BI@EBAGOEGK@?$AAx?$AAy?$AAz?$AA_?$AAs?$AAi?$AAz?$AAe?$AA_?$AAy?$AA2@
CONST	SEGMENT
??_C@_1BI@EBAGOEGK@?$AAx?$AAy?$AAz?$AA_?$AAs?$AAi?$AAz?$AAe?$AA_?$AAy?$AA2@ DB 'x'
	DB	00H, 'y', 00H, 'z', 00H, '_', 00H, 's', 00H, 'i', 00H, 'z', 00H
	DB	'e', 00H, '_', 00H, 'y', 00H, '2', 00H, 00H, 00H ; `string'
CONST	ENDS
;	COMDAT ??_C@_1BI@MHJCJGME@?$AAx?$AAy?$AAz?$AA_?$AAs?$AAi?$AAz?$AAe?$AA_?$AAz?$AA2@
CONST	SEGMENT
??_C@_1BI@MHJCJGME@?$AAx?$AAy?$AAz?$AA_?$AAs?$AAi?$AAz?$AAe?$AA_?$AAz?$AA2@ DB 'x'
	DB	00H, 'y', 00H, 'z', 00H, '_', 00H, 's', 00H, 'i', 00H, 'z', 00H
	DB	'e', 00H, '_', 00H, 'z', 00H, '2', 00H, 00H, 00H ; `string'
CONST	ENDS
;	COMDAT ??_C@_1BK@BGDDDNAC@?$AAx?$AAy?$AAz?$AA_?$AAa?$AAn?$AAg?$AAl?$AAe?$AA_?$AAx?$AA2@
CONST	SEGMENT
??_C@_1BK@BGDDDNAC@?$AAx?$AAy?$AAz?$AA_?$AAa?$AAn?$AAg?$AAl?$AAe?$AA_?$AAx?$AA2@ DB 'x'
	DB	00H, 'y', 00H, 'z', 00H, '_', 00H, 'a', 00H, 'n', 00H, 'g', 00H
	DB	'l', 00H, 'e', 00H, '_', 00H, 'x', 00H, '2', 00H, 00H, 00H ; `string'
CONST	ENDS
;	COMDAT ??_C@_1BK@NNGPOOKH@?$AAx?$AAy?$AAz?$AA_?$AAa?$AAn?$AAg?$AAl?$AAe?$AA_?$AAy?$AA2@
CONST	SEGMENT
??_C@_1BK@NNGPOOKH@?$AAx?$AAy?$AAz?$AA_?$AAa?$AAn?$AAg?$AAl?$AAe?$AA_?$AAy?$AA2@ DB 'x'
	DB	00H, 'y', 00H, 'z', 00H, '_', 00H, 'a', 00H, 'n', 00H, 'g', 00H
	DB	'l', 00H, 'e', 00H, '_', 00H, 'y', 00H, '2', 00H, 00H, 00H ; `string'
CONST	ENDS
;	COMDAT ??_C@_1BK@FLPLJMAJ@?$AAx?$AAy?$AAz?$AA_?$AAa?$AAn?$AAg?$AAl?$AAe?$AA_?$AAz?$AA2@
CONST	SEGMENT
??_C@_1BK@FLPLJMAJ@?$AAx?$AAy?$AAz?$AA_?$AAa?$AAn?$AAg?$AAl?$AAe?$AA_?$AAz?$AA2@ DB 'x'
	DB	00H, 'y', 00H, 'z', 00H, '_', 00H, 'a', 00H, 'n', 00H, 'g', 00H
	DB	'l', 00H, 'e', 00H, '_', 00H, 'z', 00H, '2', 00H, 00H, 00H ; `string'
CONST	ENDS
;	COMDAT ??_C@_1BC@JCCAEAIN@?$AAx?$AAy?$AAz?$AA_?$AAl?$AAo?$AAc?$AAk@
CONST	SEGMENT
??_C@_1BC@JCCAEAIN@?$AAx?$AAy?$AAz?$AA_?$AAl?$AAo?$AAc?$AAk@ DB 'x', 00H, 'y'
	DB	00H, 'z', 00H, '_', 00H, 'l', 00H, 'o', 00H, 'c', 00H, 'k', 00H
	DB	00H, 00H					; `string'
CONST	ENDS
;	COMDAT ??_C@_1BM@LCALCDFD@?$AAx?$AAy?$AAz?$AA_?$AAf?$AAi?$AAl?$AAt?$AAe?$AAr?$AAi?$AAn?$AAg@
CONST	SEGMENT
??_C@_1BM@LCALCDFD@?$AAx?$AAy?$AAz?$AA_?$AAf?$AAi?$AAl?$AAt?$AAe?$AAr?$AAi?$AAn?$AAg@ DB 'x'
	DB	00H, 'y', 00H, 'z', 00H, '_', 00H, 'f', 00H, 'i', 00H, 'l', 00H
	DB	't', 00H, 'e', 00H, 'r', 00H, 'i', 00H, 'n', 00H, 'g', 00H, 00H
	DB	00H						; `string'
CONST	ENDS
;	COMDAT ??_7XYZ_Desc@@6B@
CONST	SEGMENT
??_7XYZ_Desc@@6B@ DQ FLAT:??_R4XYZ_Desc@@6B@		; XYZ_Desc::`vftable'
	DQ	FLAT:??_EXYZ_Desc@@UEAAPEAXI@Z
	DQ	FLAT:?GetInterface@BaseInterfaceServer@@UEAAPEAVBaseInterface@@VInterface_ID@@@Z
	DQ	FLAT:?NumInterfaces@BaseInterfaceServer@@UEBAHXZ
	DQ	FLAT:?GetInterfaceAt@BaseInterfaceServer@@UEBAPEAVBaseInterface@@H@Z
CONST	ENDS
;	COMDAT ??_R0?AVClassDesc2@@@8
data$r	SEGMENT
??_R0?AVClassDesc2@@@8 DQ FLAT:??_7type_info@@6B@	; ClassDesc2 `RTTI Type Descriptor'
	DQ	0000000000000000H
	DB	'.?AVClassDesc2@@', 00H
data$r	ENDS
;	COMDAT ??_C@_1EK@FOLBONAG@?$AAM?$AAa?$AAx?$AAS?$AAD?$AAK?$AA?3?$AA?3?$AAU?$AAt?$AAi?$AAl?$AA?3?$AA?3?$AAT@
CONST	SEGMENT
??_C@_1EK@FOLBONAG@?$AAM?$AAa?$AAx?$AAS?$AAD?$AAK?$AA?3?$AA?3?$AAU?$AAt?$AAi?$AAl?$AA?3?$AA?3?$AAT@ DB 'M'
	DB	00H, 'a', 00H, 'x', 00H, 'S', 00H, 'D', 00H, 'K', 00H, ':', 00H
	DB	':', 00H, 'U', 00H, 't', 00H, 'i', 00H, 'l', 00H, ':', 00H, ':'
	DB	00H, 'T', 00H, 'a', 00H, 'b', 00H, 'O', 00H, 'u', 00H, 't', 00H
	DB	'O', 00H, 'f', 00H, 'R', 00H, 'a', 00H, 'n', 00H, 'g', 00H, 'e'
	DB	00H, 'E', 00H, 'x', 00H, 'c', 00H, 'e', 00H, 'p', 00H, 't', 00H
	DB	'i', 00H, 'o', 00H, 'n', 00H, 00H, 00H	; `string'
CONST	ENDS
;	COMDAT ??_7TabOutOfRangeException@Util@MaxSDK@@6B@
CONST	SEGMENT
??_7TabOutOfRangeException@Util@MaxSDK@@6B@ DQ FLAT:??_R4TabOutOfRangeException@Util@MaxSDK@@6B@ ; MaxSDK::Util::TabOutOfRangeException::`vftable'
	DQ	FLAT:??_ETabOutOfRangeException@Util@MaxSDK@@UEAAPEAXI@Z
	DQ	FLAT:?What@TabOutOfRangeException@Util@MaxSDK@@UEBAPEB_WXZ
CONST	ENDS
;	COMDAT _CT??_R0?AVMaxHeapOperators@@@818
xdata$x	SEGMENT
_CT??_R0?AVMaxHeapOperators@@@818 DD 00H
	DD	imagerel ??_R0?AVMaxHeapOperators@@@8
	DD	08H
	DD	0ffffffffH
	DD	00H
	DD	01H
	DD	00H
xdata$x	ENDS
;	COMDAT ??_R0?AVMaxHeapOperators@@@8
data$r	SEGMENT
??_R0?AVMaxHeapOperators@@@8 DQ FLAT:??_7type_info@@6B@	; MaxHeapOperators `RTTI Type Descriptor'
	DQ	0000000000000000H
	DB	'.?AVMaxHeapOperators@@', 00H
data$r	ENDS
;	COMDAT ??_C@_1O@ILILCEBJ@?$AAi?$AA?5?$AA?$DO?$AA?$DN?$AA?5?$AA0@
CONST	SEGMENT
??_C@_1O@ILILCEBJ@?$AAi?$AA?5?$AA?$DO?$AA?$DN?$AA?5?$AA0@ DB 'i', 00H, ' '
	DB	00H, '>', 00H, '=', 00H, ' ', 00H, '0', 00H, 00H, 00H ; `string'
CONST	ENDS
PUBLIC	??_H@YAXPEAX_K1P6APEAX0@Z@Z			; `vector constructor iterator'
PUBLIC	?__empty_global_delete@@YAXPEAX@Z		; __empty_global_delete
PUBLIC	?__empty_global_delete@@YAXPEAX_K@Z		; __empty_global_delete
PUBLIC	??0TabOutOfRangeException@Util@MaxSDK@@QEAA@PEB_W@Z ; MaxSDK::Util::TabOutOfRangeException::TabOutOfRangeException
PUBLIC	?FreeCaches@Animatable@@UEAAXXZ			; Animatable::FreeCaches
PUBLIC	?BeginEditParams@Animatable@@UEAAXPEAVIObjParam@@KPEAV1@@Z ; Animatable::BeginEditParams
PUBLIC	?EndEditParams@Animatable@@UEAAXPEAVIObjParam@@KPEAV1@@Z ; Animatable::EndEditParams
PUBLIC	?BypassTreeView@Animatable@@UEAAHXZ		; Animatable::BypassTreeView
PUBLIC	?BypassTrackBar@Animatable@@UEAAHXZ		; Animatable::BypassTrackBar
PUBLIC	?BypassPropertyLevel@Animatable@@UEAAHXZ	; Animatable::BypassPropertyLevel
PUBLIC	?InvisibleProperty@Animatable@@UEAAHXZ		; Animatable::InvisibleProperty
PUBLIC	?AssignController@Animatable@@UEAAHPEAV1@H@Z	; Animatable::AssignController
PUBLIC	?CanAssignController@Animatable@@UEAAHH@Z	; Animatable::CanAssignController
PUBLIC	?CanDeleteSubAnim@Animatable@@UEAAHH@Z		; Animatable::CanDeleteSubAnim
PUBLIC	?DeleteSubAnim@Animatable@@UEAAXH@Z		; Animatable::DeleteSubAnim
PUBLIC	?GetSubAnimCurveColor@Animatable@@UEAAKH@Z	; Animatable::GetSubAnimCurveColor
PUBLIC	?CanCopyAnim@Animatable@@UEAAHXZ		; Animatable::CanCopyAnim
PUBLIC	?CanMakeUnique@Animatable@@UEAAHXZ		; Animatable::CanMakeUnique
PUBLIC	?NumChildren@Animatable@@UEAAHXZ		; Animatable::NumChildren
PUBLIC	?ChildAnim@Animatable@@UEAAPEAV1@H@Z		; Animatable::ChildAnim
PUBLIC	?RenderBegin@Animatable@@UEAAHHK@Z		; Animatable::RenderBegin
PUBLIC	?RenderEnd@Animatable@@UEAAHH@Z			; Animatable::RenderEnd
PUBLIC	?EditTrack@Animatable@@UEAAXXZ			; Animatable::EditTrack
PUBLIC	?NumKeys@Animatable@@UEAAHXZ			; Animatable::NumKeys
PUBLIC	?GetKeyTime@Animatable@@UEAAHH@Z		; Animatable::GetKeyTime
PUBLIC	?GetKeyIndex@Animatable@@UEAAHH@Z		; Animatable::GetKeyIndex
PUBLIC	?GetNextKeyTime@Animatable@@UEAAHHKAEAH@Z	; Animatable::GetNextKeyTime
PUBLIC	?CopyKeysFromTime@Animatable@@UEAAXHHK@Z	; Animatable::CopyKeysFromTime
PUBLIC	?DeleteKeyAtTime@Animatable@@UEAAXH@Z		; Animatable::DeleteKeyAtTime
PUBLIC	?IsKeyAtTime@Animatable@@UEAAHHK@Z		; Animatable::IsKeyAtTime
PUBLIC	?GetKeyTimes@Animatable@@UEAAHAEAV?$Tab@H@@VInterval@@K@Z ; Animatable::GetKeyTimes
PUBLIC	?GetKeySelState@Animatable@@UEAAHAEAVBitArray@@VInterval@@K@Z ; Animatable::GetKeySelState
PUBLIC	?EditTimeRange@Animatable@@UEAAXVInterval@@K@Z	; Animatable::EditTimeRange
PUBLIC	?DeleteTime@Animatable@@UEAAXVInterval@@K@Z	; Animatable::DeleteTime
PUBLIC	?ReverseTime@Animatable@@UEAAXVInterval@@K@Z	; Animatable::ReverseTime
PUBLIC	?ScaleTime@Animatable@@UEAAXVInterval@@M@Z	; Animatable::ScaleTime
PUBLIC	?InsertTime@Animatable@@UEAAXHH@Z		; Animatable::InsertTime
PUBLIC	?SupportTimeOperations@Animatable@@UEAAHXZ	; Animatable::SupportTimeOperations
PUBLIC	?DeleteKeys@Animatable@@UEAAXK@Z		; Animatable::DeleteKeys
PUBLIC	?DeleteKeyByIndex@Animatable@@UEAAXH@Z		; Animatable::DeleteKeyByIndex
PUBLIC	?SelectKeys@Animatable@@UEAAXAEAV?$Tab@VTrackHitRecord@@@@K@Z ; Animatable::SelectKeys
PUBLIC	?SelectSubKeys@Animatable@@UEAAXHAEAV?$Tab@VTrackHitRecord@@@@K@Z ; Animatable::SelectSubKeys
PUBLIC	?SelectSubCurve@Animatable@@UEAAXHH@Z		; Animatable::SelectSubCurve
PUBLIC	?SelectKeyByIndex@Animatable@@UEAAXHH@Z		; Animatable::SelectKeyByIndex
PUBLIC	?IsKeySelected@Animatable@@UEAAHH@Z		; Animatable::IsKeySelected
PUBLIC	?FlagKey@Animatable@@UEAAXVTrackHitRecord@@@Z	; Animatable::FlagKey
PUBLIC	?GetFlagKeyIndex@Animatable@@UEAAHXZ		; Animatable::GetFlagKeyIndex
PUBLIC	?NumSelKeys@Animatable@@UEAAHXZ			; Animatable::NumSelKeys
PUBLIC	?CloneSelectedKeys@Animatable@@UEAAXH@Z		; Animatable::CloneSelectedKeys
PUBLIC	?AddNewKey@Animatable@@UEAAXHK@Z		; Animatable::AddNewKey
PUBLIC	?MoveKeys@Animatable@@UEAAXPEAVParamDimensionBase@@MK@Z ; Animatable::MoveKeys
PUBLIC	?ScaleKeyValues@Animatable@@UEAAXPEAVParamDimensionBase@@MMK@Z ; Animatable::ScaleKeyValues
PUBLIC	?SelectCurve@Animatable@@UEAAXH@Z		; Animatable::SelectCurve
PUBLIC	?IsCurveSelected@Animatable@@UEAAHXZ		; Animatable::IsCurveSelected
PUBLIC	?IsSubCurveSelected@Animatable@@UEAAHH@Z	; Animatable::IsSubCurveSelected
PUBLIC	?GetSelKeyCoords@Animatable@@UEAAHAEAHAEAMK@Z	; Animatable::GetSelKeyCoords
PUBLIC	?SetSelKeyCoords@Animatable@@UEAAXHMK@Z		; Animatable::SetSelKeyCoords
PUBLIC	?SetSelKeyCoordsExpr@Animatable@@UEAAHPEAVParamDimension@@PEB_W1K@Z ; Animatable::SetSelKeyCoordsExpr
PUBLIC	?AdjustTangents@Animatable@@UEAAXVTrackHitRecord@@PEAVParamDimensionBase@@AEAVBox2@@MHMHHHK@Z ; Animatable::AdjustTangents
PUBLIC	?AdjustTangents@Animatable@@UEAAXVTrackHitRecord@@PEAVParamDimensionBase@@MMK@Z ; Animatable::AdjustTangents
PUBLIC	?SetKeyBufferPresent@Animatable@@UEAAHXZ	; Animatable::SetKeyBufferPresent
PUBLIC	?CommitSetKeyBuffer@Animatable@@UEAAXH@Z	; Animatable::CommitSetKeyBuffer
PUBLIC	?RevertSetKeyBuffer@Animatable@@UEAAXXZ		; Animatable::RevertSetKeyBuffer
PUBLIC	?CanCopyTrack@Animatable@@UEAAHVInterval@@K@Z	; Animatable::CanCopyTrack
PUBLIC	?CanPasteTrack@Animatable@@UEAAHPEAVTrackClipObject@@VInterval@@K@Z ; Animatable::CanPasteTrack
PUBLIC	?CopyTrack@Animatable@@UEAAPEAVTrackClipObject@@VInterval@@K@Z ; Animatable::CopyTrack
PUBLIC	?PasteTrack@Animatable@@UEAAXPEAVTrackClipObject@@VInterval@@K@Z ; Animatable::PasteTrack
PUBLIC	?CanCopySubTrack@Animatable@@UEAAHHVInterval@@K@Z ; Animatable::CanCopySubTrack
PUBLIC	?CanPasteSubTrack@Animatable@@UEAAHHPEAVTrackClipObject@@VInterval@@K@Z ; Animatable::CanPasteSubTrack
PUBLIC	?CopySubTrack@Animatable@@UEAAPEAVTrackClipObject@@HVInterval@@K@Z ; Animatable::CopySubTrack
PUBLIC	?PasteSubTrack@Animatable@@UEAAXHPEAVTrackClipObject@@VInterval@@K@Z ; Animatable::PasteSubTrack
PUBLIC	?GetTrackVSpace@Animatable@@UEAAHH@Z		; Animatable::GetTrackVSpace
PUBLIC	?HitTestTrack@Animatable@@UEAAHAEAV?$Tab@VTrackHitRecord@@@@AEAVBox2@@1MHK@Z ; Animatable::HitTestTrack
PUBLIC	?PaintTrack@Animatable@@UEAAHPEAVParamDimensionBase@@PEAUHDC__@@AEAVBox2@@2MHK@Z ; Animatable::PaintTrack
PUBLIC	?PaintSubTrack@Animatable@@UEAAHHPEAVParamDimensionBase@@PEAUHDC__@@AEAVBox2@@2MHK@Z ; Animatable::PaintSubTrack
PUBLIC	?PaintFCurves@Animatable@@UEAAHPEAVParamDimensionBase@@PEAUHDC__@@AEAVBox2@@2MHMHK@Z ; Animatable::PaintFCurves
PUBLIC	?HitTestFCurves@Animatable@@UEAAHPEAVParamDimensionBase@@AEAV?$Tab@VTrackHitRecord@@@@AEAVBox2@@2MHMHK@Z ; Animatable::HitTestFCurves
PUBLIC	?PaintSubFCurves@Animatable@@UEAAHHPEAVParamDimensionBase@@PEAUHDC__@@AEAVBox2@@2MHMHK@Z ; Animatable::PaintSubFCurves
PUBLIC	?HitTestSubFCurves@Animatable@@UEAAHHPEAVParamDimensionBase@@AEAV?$Tab@VTrackHitRecord@@@@AEAVBox2@@2MHMHK@Z ; Animatable::HitTestSubFCurves
PUBLIC	?EditTrackParams@Animatable@@UEAAXHPEAVParamDimensionBase@@PEB_WPEAUHWND__@@PEAVIObjParam@@K@Z ; Animatable::EditTrackParams
PUBLIC	?TrackParamsType@Animatable@@UEAAHXZ		; Animatable::TrackParamsType
PUBLIC	?GetFCurveExtents@Animatable@@UEAAHPEAVParamDimensionBase@@AEAM1K@Z ; Animatable::GetFCurveExtents
PUBLIC	?GetSubFCurveExtents@Animatable@@UEAAHHPEAVParamDimensionBase@@AEAM1K@Z ; Animatable::GetSubFCurveExtents
PUBLIC	?GetParamDimension@Animatable@@UEAAPEAVParamDimension@@H@Z ; Animatable::GetParamDimension
PUBLIC	?TrackViewWinProc@Animatable@@UEAA_JPEAUHWND__@@I_K_J@Z ; Animatable::TrackViewWinProc
PUBLIC	?SelectSubAnim@Animatable@@UEAAHH@Z		; Animatable::SelectSubAnim
PUBLIC	?FreeAllBitmaps@Animatable@@UEAAXXZ		; Animatable::FreeAllBitmaps
PUBLIC	?GetSystemNodes@Animatable@@UEAAXAEAVINodeTab@@W4SysNodeContext@@@Z ; Animatable::GetSystemNodes
PUBLIC	?IsSubClassOf@Animatable@@UEAAHVClass_ID@@@Z	; Animatable::IsSubClassOf
PUBLIC	?IsParamBlockDesc2Used@Animatable@@UEAA_NPEAVParamBlockDesc2@@@Z ; Animatable::IsParamBlockDesc2Used
PUBLIC	?GetMacroRecorderName@Animatable@@UEAA_N_NAEAVWStr@@@Z ; Animatable::GetMacroRecorderName
PUBLIC	?CanTransferReference@ReferenceMaker@@UEAAHH@Z	; ReferenceMaker::CanTransferReference
PUBLIC	?RemapRefOnLoad@ReferenceMaker@@UEAAHH@Z	; ReferenceMaker::RemapRefOnLoad
PUBLIC	?NotifyDependents@ReferenceMaker@@EEAA?AW4RefResult@@AEBVInterval@@_KIKHPEAVReferenceTarget@@@Z ; ReferenceMaker::NotifyDependents
PUBLIC	?IsRefMaker@ReferenceMaker@@UEAAHXZ		; ReferenceMaker::IsRefMaker
PUBLIC	?IsRealDependency@ReferenceMaker@@UEAAHPEAVReferenceTarget@@@Z ; ReferenceMaker::IsRealDependency
PUBLIC	?ShouldPersistWeakRef@ReferenceMaker@@UEAAHPEAVReferenceTarget@@@Z ; ReferenceMaker::ShouldPersistWeakRef
PUBLIC	?IsRefTarget@ReferenceTarget@@UEAAHXZ		; ReferenceTarget::IsRefTarget
PUBLIC	?RefAddedUndoRedo@ReferenceTarget@@UEAAXPEAVReferenceMaker@@@Z ; ReferenceTarget::RefAddedUndoRedo
PUBLIC	?RefDeleted@ReferenceTarget@@UEAAXXZ		; ReferenceTarget::RefDeleted
PUBLIC	?RefDeletedUndoRedo@ReferenceTarget@@UEAAXXZ	; ReferenceTarget::RefDeletedUndoRedo
PUBLIC	?NotifyForeground@ReferenceTarget@@UEAAXH@Z	; ReferenceTarget::NotifyForeground
PUBLIC	?NotifyTarget@ReferenceTarget@@UEAAXHPEAVReferenceMaker@@@Z ; ReferenceTarget::NotifyTarget
PUBLIC	?Set@BitArray@@QEAAXH@Z				; BitArray::Set
PUBLIC	??0Color@@QEAA@XZ				; Color::Color
PUBLIC	??0AColor@@QEAA@XZ				; AColor::AColor
PUBLIC	?SubTexmapOn@ISubMap@@UEAAHH@Z			; ISubMap::SubTexmapOn
PUBLIC	?BuildMaps@MtlBase@@UEAAHHAEAVRenderMapsContext@@@Z ; MtlBase::BuildMaps
PUBLIC	?LocalMappingsRequired@MtlBase@@UEAAXHAEAVBitArray@@0@Z ; MtlBase::LocalMappingsRequired
PUBLIC	?IsMultiMtl@MtlBase@@UEAAHXZ			; MtlBase::IsMultiMtl
PUBLIC	?SupportsMultiMapsInViewport@MtlBase@@UEAAHXZ	; MtlBase::SupportsMultiMapsInViewport
PUBLIC	?SetupGfxMultiMaps@MtlBase@@UEAAXHPEAVMaterial@@AEAVMtlMakerCallback@@@Z ; MtlBase::SetupGfxMultiMaps
PUBLIC	?GetInterface@MtlBase@@UEAAPEAVBaseInterface@@VInterface_ID@@@Z ; MtlBase::GetInterface
PUBLIC	?GetRefTarget@MtlBase@@UEAAPEAVReferenceTarget@@XZ ; MtlBase::GetRefTarget
PUBLIC	?GetTransparencyHint@MtlBase@@UEAAHHAEAVInterval@@@Z ; MtlBase::GetTransparencyHint
PUBLIC	?HandleOwnViewPerturb@Texmap@@UEAAHXZ		; Texmap::HandleOwnViewPerturb
PUBLIC	?GetUVTransform@Texmap@@UEAAXAEAVMatrix3@@@Z	; Texmap::GetUVTransform
PUBLIC	?GetTextureTiling@Texmap@@UEAAHXZ		; Texmap::GetTextureTiling
PUBLIC	?GetUVWSource@Texmap@@UEAAHXZ			; Texmap::GetUVWSource
PUBLIC	?GetMapChannel@Texmap@@UEAAHXZ			; Texmap::GetMapChannel
PUBLIC	?InitSlotType@Texmap@@UEAAXH@Z			; Texmap::InitSlotType
PUBLIC	?MapSlotType@Texmap@@UEAAHH@Z			; Texmap::MapSlotType
PUBLIC	?GetTheUVGen@Texmap@@UEAAPEAVUVGen@@XZ		; Texmap::GetTheUVGen
PUBLIC	?SetOutputLevel@Texmap@@UEAAXHM@Z		; Texmap::SetOutputLevel
PUBLIC	?IsLocalOutputMeaningful@Texmap@@UEAA_NAEAVShadeContext@@@Z ; Texmap::IsLocalOutputMeaningful
PUBLIC	?LoadMapFiles@Texmap@@UEAAHH@Z			; Texmap::LoadMapFiles
PUBLIC	?IsHighDynamicRange@Texmap@@UEBAHXZ		; Texmap::IsHighDynamicRange
PUBLIC	??1Texmap@@UEAA@XZ				; Texmap::~Texmap
PUBLIC	??1?$Tab@PEAVVertexNormalsCallback@@@@QEAA@XZ	; Tab<VertexNormalsCallback *>::~Tab<VertexNormalsCallback *>
PUBLIC	??0VertexNormalsControl@@QEAA@XZ		; VertexNormalsControl::VertexNormalsControl
PUBLIC	??1ParamMap2UserDlgProc@@UEAA@XZ		; ParamMap2UserDlgProc::~ParamMap2UserDlgProc
PUBLIC	?SetThing@ParamMap2UserDlgProc@@UEAAXPEAVReferenceTarget@@@Z ; ParamMap2UserDlgProc::SetThing
PUBLIC	?Update@ParamMap2UserDlgProc@@UEAAXH@Z		; ParamMap2UserDlgProc::Update
PUBLIC	?SetParamBlock@ParamMap2UserDlgProc@@UEAAXPEAVIParamBlock2@@@Z ; ParamMap2UserDlgProc::SetParamBlock
PUBLIC	?Update@ParamMap2UserDlgProc@@UEAAXHAEAVInterval@@PEAVIParamMap2@@@Z ; ParamMap2UserDlgProc::Update
PUBLIC	??_GParamMap2UserDlgProc@@UEAAPEAXI@Z		; ParamMap2UserDlgProc::`scalar deleting destructor'
PUBLIC	?SetCustomImageList@ResourceMakerCallback@@UEAAHAEAPEAU_IMAGELIST@@PEAVICurveCtl@@@Z ; ResourceMakerCallback::SetCustomImageList
PUBLIC	?GetToolTip@ResourceMakerCallback@@UEAAHHAEAVWStr@@PEAVICurveCtl@@@Z ; ResourceMakerCallback::GetToolTip
PUBLIC	?ResetCallback@ResourceMakerCallback@@UEAAXHPEAVICurveCtl@@@Z ; ResourceMakerCallback::ResetCallback
PUBLIC	?NewCurveCreatedCallback@ResourceMakerCallback@@UEAAXHPEAVICurveCtl@@@Z ; ResourceMakerCallback::NewCurveCreatedCallback
PUBLIC	?GetInterface@ResourceMakerCallback@@UEAAPEAXK@Z ; ResourceMakerCallback::GetInterface
PUBLIC	??0XYZ_Desc@@QEAA@PEAVClassDesc2@@HHHHHHH@Z	; XYZ_Desc::XYZ_Desc
PUBLIC	?DlgProc@BerconXYZDlgProc@@UEAA_JHPEAVIParamMap2@@PEAUHWND__@@I_K_J@Z ; BerconXYZDlgProc::DlgProc
PUBLIC	?DeleteThis@BerconXYZDlgProc@@UEAAXXZ		; BerconXYZDlgProc::DeleteThis
PUBLIC	?SetThing@BerconXYZDlgProc@@UEAAXPEAVReferenceTarget@@@Z ; BerconXYZDlgProc::SetThing
PUBLIC	??_GBerconXYZDlgProc@@UEAAPEAXI@Z		; BerconXYZDlgProc::`scalar deleting destructor'
PUBLIC	?NotifyRefChanged@BerconNoise@@UEAA?AW4RefResult@@AEBVInterval@@PEAVReferenceTarget@@AEA_KIH@Z ; BerconNoise::NotifyRefChanged
PUBLIC	?EvalParameters@BerconNoise@@QEAA?AVNoiseParams@@PEAVShadeContext@@@Z ; BerconNoise::EvalParameters
PUBLIC	?applyDistortion@BerconNoise@@QEAAXAEAVShadeContext@@AEAVPoint3@@@Z ; BerconNoise::applyDistortion
PUBLIC	?EnableStuff@BerconNoise@@QEAAXXZ		; BerconNoise::EnableStuff
PUBLIC	?DiscardTexHandle@BerconNoise@@QEAAXXZ		; BerconNoise::DiscardTexHandle
PUBLIC	?SupportTexDisplay@BerconNoise@@UEAAHXZ		; BerconNoise::SupportTexDisplay
PUBLIC	?ActivateTexDisplay@BerconNoise@@UEAAXH@Z	; BerconNoise::ActivateTexDisplay
PUBLIC	?GetActiveTexHandle@BerconNoise@@UEAA_KHAEAVTexHandleMaker@@@Z ; BerconNoise::GetActiveTexHandle
PUBLIC	?CreateParamDlg@BerconNoise@@UEAAPEAVParamDlg@@PEAUHWND__@@PEAVIMtlParams@@@Z ; BerconNoise::CreateParamDlg
PUBLIC	?SetDlgThing@BerconNoise@@UEAAHPEAVParamDlg@@@Z	; BerconNoise::SetDlgThing
PUBLIC	?Update@BerconNoise@@UEAAXHAEAVInterval@@@Z	; BerconNoise::Update
PUBLIC	?Reset@BerconNoise@@UEAAXXZ			; BerconNoise::Reset
PUBLIC	?Validity@BerconNoise@@UEAA?AVInterval@@H@Z	; BerconNoise::Validity
PUBLIC	?LocalRequirements@BerconNoise@@UEAAKH@Z	; BerconNoise::LocalRequirements
PUBLIC	?MappingsRequired@BerconNoise@@UEAAXHAEAVBitArray@@0@Z ; BerconNoise::MappingsRequired
PUBLIC	?NumSubTexmaps@BerconNoise@@UEAAHXZ		; BerconNoise::NumSubTexmaps
PUBLIC	?GetSubTexmap@BerconNoise@@UEAAPEAVTexmap@@H@Z	; BerconNoise::GetSubTexmap
PUBLIC	?SetSubTexmap@BerconNoise@@UEAAXHPEAVTexmap@@@Z	; BerconNoise::SetSubTexmap
PUBLIC	?GetSubTexmapSlotName@BerconNoise@@UEAA?AVWStr@@H@Z ; BerconNoise::GetSubTexmapSlotName
PUBLIC	?EvalColor@BerconNoise@@UEAA?AVAColor@@AEAVShadeContext@@@Z ; BerconNoise::EvalColor
PUBLIC	?EvalMono@BerconNoise@@UEAAMAEAVShadeContext@@@Z ; BerconNoise::EvalMono
PUBLIC	?EvalNormalPerturb@BerconNoise@@UEAA?AVPoint3@@AEAVShadeContext@@@Z ; BerconNoise::EvalNormalPerturb
PUBLIC	?GetTheXYZGen@BerconNoise@@UEAAPEAVXYZGen@@XZ	; BerconNoise::GetTheXYZGen
PUBLIC	?SubNumToRefNum@BerconNoise@@UEAAHH@Z		; BerconNoise::SubNumToRefNum
PUBLIC	?ClassID@BerconNoise@@UEAA?AVClass_ID@@XZ	; BerconNoise::ClassID
PUBLIC	?SuperClassID@BerconNoise@@UEAAKXZ		; BerconNoise::SuperClassID
PUBLIC	?GetClassName@BerconNoise@@UEAAXAEAVWStr@@@Z	; BerconNoise::GetClassName
PUBLIC	?SetReference@BerconNoise@@EEAAXHPEAVReferenceTarget@@@Z ; BerconNoise::SetReference
PUBLIC	?GetReference@BerconNoise@@UEAAPEAVReferenceTarget@@H@Z ; BerconNoise::GetReference
PUBLIC	?Clone@BerconNoise@@UEAAPEAVReferenceTarget@@AEAVRemapDir@@@Z ; BerconNoise::Clone
PUBLIC	?NumSubs@BerconNoise@@UEAAHXZ			; BerconNoise::NumSubs
PUBLIC	?SubAnim@BerconNoise@@UEAAPEAVAnimatable@@H@Z	; BerconNoise::SubAnim
PUBLIC	?SubAnimName@BerconNoise@@UEAA?AVWStr@@H@Z	; BerconNoise::SubAnimName
PUBLIC	?NumRefs@BerconNoise@@UEAAHXZ			; BerconNoise::NumRefs
PUBLIC	?NumParamBlocks@BerconNoise@@UEAAHXZ		; BerconNoise::NumParamBlocks
PUBLIC	?GetParamBlock@BerconNoise@@UEAAPEAVIParamBlock2@@H@Z ; BerconNoise::GetParamBlock
PUBLIC	?GetParamBlockByID@BerconNoise@@UEAAPEAVIParamBlock2@@F@Z ; BerconNoise::GetParamBlockByID
PUBLIC	??0BerconNoise@@QEAA@XZ				; BerconNoise::BerconNoise
PUBLIC	??1BerconNoise@@UEAA@XZ				; BerconNoise::~BerconNoise
PUBLIC	?DeleteThis@BerconNoise@@UEAAXXZ		; BerconNoise::DeleteThis
PUBLIC	?GetInterface@BerconNoise@@UEAAPEAXK@Z		; BerconNoise::GetInterface
PUBLIC	??_GBerconNoise@@UEAAPEAXI@Z			; BerconNoise::`scalar deleting destructor'
PUBLIC	?GetBerconNoiseDesc@@YAPEAVClassDesc2@@XZ	; GetBerconNoiseDesc
PUBLIC	?DlgProc@BerconNoiseDlgProc@@UEAA_JHPEAVIParamMap2@@PEAUHWND__@@I_K_J@Z ; BerconNoiseDlgProc::DlgProc
PUBLIC	?DeleteThis@BerconNoiseDlgProc@@UEAAXXZ		; BerconNoiseDlgProc::DeleteThis
PUBLIC	?SetThing@BerconNoiseDlgProc@@UEAAXPEAVReferenceTarget@@@Z ; BerconNoiseDlgProc::SetThing
PUBLIC	??_GBerconNoiseDlgProc@@UEAAPEAXI@Z		; BerconNoiseDlgProc::`scalar deleting destructor'
PUBLIC	??_EBerconNoise@@WEA@EAAPEAXI@Z			; [thunk]:BerconNoise::`vector deleting destructor'
PUBLIC	?GetInterface@BerconNoise@@WJA@EAAPEAXK@Z	; [thunk]:BerconNoise::GetInterface`adjustor{144}'
PUBLIC	??_C@_11LOCGONAA@@				; `string'
PUBLIC	??_C@_13COJANIEC@?$AA0@				; `string'
PUBLIC	??_C@_1CM@HBLCKHLG@?$AAA?$AAn?$AAi?$AAm?$AAa?$AAt?$AAa?$AAb?$AAl?$AAe?$AA?3?$AA?3?$AAE?$AAd?$AAi@ ; `string'
PUBLIC	??_C@_1IO@PNJJEDOF@?$AAc?$AA?3?$AA?2?$AAp?$AAr?$AAo?$AAg?$AAr?$AAa?$AAm?$AA?5?$AAf?$AAi?$AAl?$AAe@ ; `string'
PUBLIC	??_C@_1M@HLGKFCJM@?$AAf?$AAa?$AAl?$AAs?$AAe@	; `string'
PUBLIC	??_C@_1EC@POJFJEHG@?$AAR?$AAe?$AAf?$AAe?$AAr?$AAe?$AAn?$AAc?$AAe?$AAM?$AAa?$AAk?$AAe?$AAr?$AA?3@ ; `string'
PUBLIC	??_C@_1IA@GJPPLCDJ@?$AAc?$AA?3?$AA?2?$AAp?$AAr?$AAo?$AAg?$AAr?$AAa?$AAm?$AA?5?$AAf?$AAi?$AAl?$AAe@ ; `string'
PUBLIC	??_C@_1IK@JMJDIAL@?$AAc?$AA?3?$AA?2?$AAp?$AAr?$AAo?$AAg?$AAr?$AAa?$AAm?$AA?5?$AAf?$AAi?$AAl?$AAe@ ; `string'
PUBLIC	??_C@_1CE@GBNPOKPK@?$AAi?$AA?$DO?$AA?9?$AA1?$AA?5?$AA?$CG?$AA?$CG?$AA?5?$AAi?$AA?$DM?$AAn?$AAu?$AAm?$AAB?$AAi@ ; `string'
PUBLIC	??_C@_1BM@HADNIIA@?$AAB?$AAi?$AAt?$AAA?$AAr?$AAr?$AAa?$AAy?$AA?3?$AA?3?$AAS?$AAe?$AAt@ ; `string'
PUBLIC	??_7ParamMap2UserDlgProc@@6B@			; ParamMap2UserDlgProc::`vftable'
PUBLIC	??_7ResourceMakerCallback@@6B@			; ResourceMakerCallback::`vftable'
PUBLIC	??_7BerconXYZDlgProc@@6B@			; BerconXYZDlgProc::`vftable'
PUBLIC	??_C@_13PHJMHGG@?$AAL@				; `string'
PUBLIC	??_7BerconNoise@@6BReferenceTarget@@@		; BerconNoise::`vftable'
PUBLIC	??_7BerconNoise@@6BISubMap@@@			; BerconNoise::`vftable'
PUBLIC	??_7BerconNoise@@6B@				; BerconNoise::`vftable'
PUBLIC	??_7BerconNoiseDlgProc@@6B@			; BerconNoiseDlgProc::`vftable'
PUBLIC	??_C@_1CG@JEPHKPPG@?$AAB?$AAe?$AAr?$AAc?$AAo?$AAn?$AAN?$AAo?$AAi?$AAs?$AAe?$AA?3?$AA?3?$AAR?$AAe@ ; `string'
PUBLIC	??_C@_1GC@JFMJJLAB@?$AAg?$AA?3?$AA?2?$AAd?$AAr?$AAo?$AAp?$AAb?$AAo?$AAx?$AA?2?$AAg?$AAi?$AAt?$AAh@ ; `string'
PUBLIC	??_R1A@?0A@EA@ReferenceTarget@@8		; ReferenceTarget::`RTTI Base Class Descriptor at (0,-1,0,64)'
PUBLIC	??_R0?AVReferenceTarget@@@8			; ReferenceTarget `RTTI Type Descriptor'
PUBLIC	??_R3ReferenceTarget@@8				; ReferenceTarget::`RTTI Class Hierarchy Descriptor'
PUBLIC	??_R2ReferenceTarget@@8				; ReferenceTarget::`RTTI Base Class Array'
PUBLIC	??_R1A@?0A@EA@ReferenceMaker@@8			; ReferenceMaker::`RTTI Base Class Descriptor at (0,-1,0,64)'
PUBLIC	??_R0?AVReferenceMaker@@@8			; ReferenceMaker `RTTI Type Descriptor'
PUBLIC	??_R3ReferenceMaker@@8				; ReferenceMaker::`RTTI Class Hierarchy Descriptor'
PUBLIC	??_R2ReferenceMaker@@8				; ReferenceMaker::`RTTI Base Class Array'
PUBLIC	??_R1A@?0A@EA@Animatable@@8			; Animatable::`RTTI Base Class Descriptor at (0,-1,0,64)'
PUBLIC	??_R0?AVAnimatable@@@8				; Animatable `RTTI Type Descriptor'
PUBLIC	??_R3Animatable@@8				; Animatable::`RTTI Class Hierarchy Descriptor'
PUBLIC	??_R2Animatable@@8				; Animatable::`RTTI Base Class Array'
PUBLIC	??_R17?0A@EC@MaxHeapOperators@@8		; MaxHeapOperators::`RTTI Base Class Descriptor at (8,-1,0,66)'
PUBLIC	??_R18?0A@EA@Noncopyable@Util@MaxSDK@@8		; MaxSDK::Util::Noncopyable::`RTTI Base Class Descriptor at (9,-1,0,64)'
PUBLIC	??_R0?AVNoncopyable@Util@MaxSDK@@@8		; MaxSDK::Util::Noncopyable `RTTI Type Descriptor'
PUBLIC	??_R3Noncopyable@Util@MaxSDK@@8			; MaxSDK::Util::Noncopyable::`RTTI Class Hierarchy Descriptor'
PUBLIC	??_R2Noncopyable@Util@MaxSDK@@8			; MaxSDK::Util::Noncopyable::`RTTI Base Class Array'
PUBLIC	??_R1A@?0A@EA@Noncopyable@Util@MaxSDK@@8	; MaxSDK::Util::Noncopyable::`RTTI Base Class Descriptor at (0,-1,0,64)'
PUBLIC	??_R18?0A@EC@MaxHeapOperators@@8		; MaxHeapOperators::`RTTI Base Class Descriptor at (9,-1,0,66)'
PUBLIC	??_R1EI@?0A@EC@MaxHeapOperators@@8		; MaxHeapOperators::`RTTI Base Class Descriptor at (72,-1,0,66)'
PUBLIC	??_R4ParamMap2UserDlgProc@@6B@			; ParamMap2UserDlgProc::`RTTI Complete Object Locator'
PUBLIC	??_R0?AVParamMap2UserDlgProc@@@8		; ParamMap2UserDlgProc `RTTI Type Descriptor'
PUBLIC	??_R3ParamMap2UserDlgProc@@8			; ParamMap2UserDlgProc::`RTTI Class Hierarchy Descriptor'
PUBLIC	??_R2ParamMap2UserDlgProc@@8			; ParamMap2UserDlgProc::`RTTI Base Class Array'
PUBLIC	??_R1A@?0A@EA@ParamMap2UserDlgProc@@8		; ParamMap2UserDlgProc::`RTTI Base Class Descriptor at (0,-1,0,64)'
PUBLIC	??_R0?AVISubMap@@@8				; ISubMap `RTTI Type Descriptor'
PUBLIC	??_R3ISubMap@@8					; ISubMap::`RTTI Class Hierarchy Descriptor'
PUBLIC	??_R2ISubMap@@8					; ISubMap::`RTTI Base Class Array'
PUBLIC	??_R1A@?0A@EA@ISubMap@@8			; ISubMap::`RTTI Base Class Descriptor at (0,-1,0,64)'
PUBLIC	??_R4ResourceMakerCallback@@6B@			; ResourceMakerCallback::`RTTI Complete Object Locator'
PUBLIC	??_R0?AVResourceMakerCallback@@@8		; ResourceMakerCallback `RTTI Type Descriptor'
PUBLIC	??_R3ResourceMakerCallback@@8			; ResourceMakerCallback::`RTTI Class Hierarchy Descriptor'
PUBLIC	??_R2ResourceMakerCallback@@8			; ResourceMakerCallback::`RTTI Base Class Array'
PUBLIC	??_R1A@?0A@EA@ResourceMakerCallback@@8		; ResourceMakerCallback::`RTTI Base Class Descriptor at (0,-1,0,64)'
PUBLIC	??_R4BerconXYZDlgProc@@6B@			; BerconXYZDlgProc::`RTTI Complete Object Locator'
PUBLIC	??_R0?AVBerconXYZDlgProc@@@8			; BerconXYZDlgProc `RTTI Type Descriptor'
PUBLIC	??_R3BerconXYZDlgProc@@8			; BerconXYZDlgProc::`RTTI Class Hierarchy Descriptor'
PUBLIC	??_R2BerconXYZDlgProc@@8			; BerconXYZDlgProc::`RTTI Base Class Array'
PUBLIC	??_R1A@?0A@EA@BerconXYZDlgProc@@8		; BerconXYZDlgProc::`RTTI Base Class Descriptor at (0,-1,0,64)'
PUBLIC	??_R4BerconNoise@@6BReferenceTarget@@@		; BerconNoise::`RTTI Complete Object Locator'
PUBLIC	??_R0?AVBerconNoise@@@8				; BerconNoise `RTTI Type Descriptor'
PUBLIC	??_R3BerconNoise@@8				; BerconNoise::`RTTI Class Hierarchy Descriptor'
PUBLIC	??_R2BerconNoise@@8				; BerconNoise::`RTTI Base Class Array'
PUBLIC	??_R1A@?0A@EA@BerconNoise@@8			; BerconNoise::`RTTI Base Class Descriptor at (0,-1,0,64)'
PUBLIC	??_R1A@?0A@EA@Texmap@@8				; Texmap::`RTTI Base Class Descriptor at (0,-1,0,64)'
PUBLIC	??_R0?AVTexmap@@@8				; Texmap `RTTI Type Descriptor'
PUBLIC	??_R3Texmap@@8					; Texmap::`RTTI Class Hierarchy Descriptor'
PUBLIC	??_R2Texmap@@8					; Texmap::`RTTI Base Class Array'
PUBLIC	??_R1A@?0A@EA@MtlBase@@8			; MtlBase::`RTTI Base Class Descriptor at (0,-1,0,64)'
PUBLIC	??_R0?AVMtlBase@@@8				; MtlBase `RTTI Type Descriptor'
PUBLIC	??_R3MtlBase@@8					; MtlBase::`RTTI Class Hierarchy Descriptor'
PUBLIC	??_R2MtlBase@@8					; MtlBase::`RTTI Base Class Array'
PUBLIC	??_R1EA@?0A@EA@ISubMap@@8			; ISubMap::`RTTI Base Class Descriptor at (64,-1,0,64)'
PUBLIC	??_R1JA@?0A@EA@ResourceMakerCallback@@8		; ResourceMakerCallback::`RTTI Base Class Descriptor at (144,-1,0,64)'
PUBLIC	??_R1JI@?0A@EC@MaxHeapOperators@@8		; MaxHeapOperators::`RTTI Base Class Descriptor at (152,-1,0,66)'
PUBLIC	??_R4BerconNoise@@6BISubMap@@@			; BerconNoise::`RTTI Complete Object Locator'
PUBLIC	??_R4BerconNoise@@6B@				; BerconNoise::`RTTI Complete Object Locator'
PUBLIC	??_R4BerconNoiseDlgProc@@6B@			; BerconNoiseDlgProc::`RTTI Complete Object Locator'
PUBLIC	??_R0?AVBerconNoiseDlgProc@@@8			; BerconNoiseDlgProc `RTTI Type Descriptor'
PUBLIC	??_R3BerconNoiseDlgProc@@8			; BerconNoiseDlgProc::`RTTI Class Hierarchy Descriptor'
PUBLIC	??_R2BerconNoiseDlgProc@@8			; BerconNoiseDlgProc::`RTTI Base Class Array'
PUBLIC	??_R1A@?0A@EA@BerconNoiseDlgProc@@8		; BerconNoiseDlgProc::`RTTI Base Class Descriptor at (0,-1,0,64)'
PUBLIC	__real@3a83126f
PUBLIC	__real@3dcccccd
PUBLIC	__real@3f000000
PUBLIC	__real@3f1a36e2e0000000
PUBLIC	__real@3f800000
PUBLIC	__real@3fb99999a0000000
PUBLIC	__real@3ff0000000000000
PUBLIC	__real@40000000
PUBLIC	__real@4008000000000000
PUBLIC	__real@4034000000000000
PUBLIC	__real@4039000000000000
PUBLIC	__real@40400000
PUBLIC	__real@4059000000000000
PUBLIC	__real@408f400000000000
PUBLIC	__real@40a00000
PUBLIC	__real@412e848000000000
PUBLIC	__real@41c80000
PUBLIC	__real@bff0000000000000
PUBLIC	__real@c08f400000000000
PUBLIC	__real@c12e848000000000
PUBLIC	__xmm@80000000800000008000000080000000
EXTRN	_purecall:PROC
EXTRN	?__global_delete@@YAXPEAX_K@Z:PROC		; __global_delete
EXTRN	atexit:PROC
EXTRN	__imp_SendMessageW:PROC
EXTRN	__imp_GetDlgItem:PROC
EXTRN	__imp_??2MaxHeapOperators@@SAPEAX_K@Z:PROC
EXTRN	__imp_??3MaxHeapOperators@@SAXPEAX@Z:PROC
EXTRN	__imp_??0Exception@Util@MaxSDK@@QEAA@AEBV012@@Z:PROC
EXTRN	__imp_??1Exception@Util@MaxSDK@@UEAA@XZ:PROC
EXTRN	__imp_??0OutOfRangeException@Util@MaxSDK@@QEAA@PEB_W@Z:PROC
EXTRN	__imp_??1OutOfRangeException@Util@MaxSDK@@UEAA@XZ:PROC
EXTRN	__imp_?assert1@@YAHHPEB_W00@Z:PROC
EXTRN	__imp_?zfree@@YAXPEAPEAX@Z:PROC
EXTRN	__imp_??0WStr@@QEAA@PEB_W@Z:PROC
EXTRN	__imp_??1WStr@@QEAA@XZ:PROC
EXTRN	__imp_??4WStr@@QEAAAEAV0@PEB_W@Z:PROC
EXTRN	__imp_??0Interval@@QEAA@HH@Z:PROC
EXTRN	__imp_?InInterval@Interval@@QEBAHH@Z:PROC
EXTRN	__imp_??IInterval@@QEBA?AV0@V0@@Z:PROC
EXTRN	__imp_?ReplaceReference@ReferenceMaker@@QEAA?AW4RefResult@@HPEAVReferenceTarget@@H@Z:PROC
EXTRN	__imp_?DeleteReference@ReferenceMaker@@QEAA?AW4RefResult@@H@Z:PROC
EXTRN	__imp_?GetInterface@ReferenceTarget@@UEAAPEAVBaseInterface@@VInterface_ID@@@Z:PROC
EXTRN	__imp_?GetCOREInterface@@YAPEAVInterface@@XZ:PROC
EXTRN	__imp_??0Point3@@QEAA@XZ:PROC
EXTRN	__imp_?IdentityMatrix@Matrix3@@QEAAXXZ:PROC
EXTRN	__imp_?ClampMinMax@Color@@QEAAXXZ:PROC
EXTRN	__imp_?GetSubTexmapTVName@ISubMap@@QEAA?AVWStr@@H@Z:PROC
EXTRN	__imp_??1MtlBase@@UEAA@XZ:PROC
EXTRN	__imp_??4MtlBase@@QEAAAEAV0@AEBV0@@Z:PROC
EXTRN	__imp_?GetInterface@MtlBase@@UEAAPEAXK@Z:PROC
EXTRN	__imp_?GetICustButton@@YAPEAVICustButton@@PEAUHWND__@@@Z:PROC
EXTRN	__imp_?ReleaseICustButton@@YAXPEAVICustButton@@@Z:PROC
EXTRN	__imp_??0Texmap@@QEAA@XZ:PROC
EXTRN	__imp_?GetNewDefaultTextureOutput@@YAPEAVTextureOutput@@XZ:PROC
EXTRN	__imp_??0ClassDesc2@@QEAA@XZ:PROC
EXTRN	__imp_??1ClassDesc2@@UEAA@XZ:PROC
EXTRN	__imp_?InvalidateUI@ClassDesc2@@QEAAXPEAVParamBlockDesc2@@FH@Z:PROC
EXTRN	__imp_?MakeAutoParamBlocks@ClassDesc2@@UEAAXPEAVReferenceMaker@@@Z:PROC
EXTRN	__imp_?SetUserDlgProc@ClassDesc2@@QEAA_NPEAVParamBlockDesc2@@FPEAVParamMap2UserDlgProc@@@Z:PROC
EXTRN	__imp_?CreateParamDlgs@ClassDesc2@@QEAAPEAVIAutoMParamDlg@@PEAUHWND__@@PEAVIMtlParams@@PEAVReferenceTarget@@@Z:PROC
EXTRN	__imp_??0ParamBlockDesc2@@QEAA@FPEB_W_JPEAVClassDesc2@@GZZ:PROC
EXTRN	__imp_??1ParamBlockDesc2@@UEAA@XZ:PROC
EXTRN	__imp_?SetUserDlgProc@ParamBlockDesc2@@QEAAXFPEAVParamMap2UserDlgProc@@@Z:PROC
EXTRN	??_EParamMap2UserDlgProc@@UEAAPEAXI@Z:PROC	; ParamMap2UserDlgProc::`vector deleting destructor'
EXTRN	?alterUVW@Noise@@SAXAEAVPoint3@@H@Z:PROC	; Noise::alterUVW
EXTRN	?limitedNoise@Noise@@SAMVPoint3@@AEAVNoiseParams@@@Z:PROC ; Noise::limitedNoise
EXTRN	?limitedNoise@Noise@@SAMVPoint3@@00AEAVNoiseParams@@@Z:PROC ; Noise::limitedNoise
EXTRN	?GetString@@YAPEA_WH@Z:PROC			; GetString
EXTRN	??_EBerconXYZDlgProc@@UEAAPEAXI@Z:PROC		; BerconXYZDlgProc::`vector deleting destructor'
EXTRN	?update@BerconXYZ@@QEAAXPEAVIParamBlock2@@HAEAVInterval@@@Z:PROC ; BerconXYZ::update
EXTRN	?update@BerconXYZ@@QEAAXXZ:PROC			; BerconXYZ::update
EXTRN	?reset@BerconXYZ@@QEAAXPEAVIParamBlock2@@AEAVInterval@@HHHH@Z:PROC ; BerconXYZ::reset
EXTRN	?get@BerconXYZ@@QEAAHAEAVShadeContext@@AEAVPoint3@@11@Z:PROC ; BerconXYZ::get
EXTRN	?get@BerconXYZ@@QEAAHAEAVShadeContext@@AEAVPoint3@@11PEAV3@@Z:PROC ; BerconXYZ::get
EXTRN	??_EBerconNoise@@UEAAPEAXI@Z:PROC		; BerconNoise::`vector deleting destructor'
EXTRN	??_EBerconNoiseDlgProc@@UEAAPEAXI@Z:PROC	; BerconNoiseDlgProc::`vector deleting destructor'
EXTRN	?AutoDelete@ReferenceTarget@@UEAA?AW4RefResult@@XZ:PROC ; ReferenceTarget::AutoDelete
EXTRN	?BaseClone@MtlBase@@UEAAXPEAVReferenceTarget@@0AEAVRemapDir@@@Z:PROC ; MtlBase::BaseClone
EXTRN	?CreatePStamp@MtlBase@@UEAAPEAVPStamp@@HH@Z:PROC ; MtlBase::CreatePStamp
EXTRN	?DeleteAllRefsToMe@ReferenceTarget@@UEAA?AW4RefResult@@XZ:PROC ; ReferenceTarget::DeleteAllRefsToMe
EXTRN	?DiscardPStamp@MtlBase@@UEAAXH@Z:PROC		; MtlBase::DiscardPStamp
EXTRN	?DoEnumDependentsImpl@ReferenceTarget@@MEAAHPEAVDependentEnumProc@@@Z:PROC ; ReferenceTarget::DoEnumDependentsImpl
EXTRN	?EnumAuxFiles@MtlBase@@UEAAXAEAVAssetEnumCallback@@K@Z:PROC ; MtlBase::EnumAuxFiles
EXTRN	?GetFullName@MtlBase@@UEAA?AVWStr@@XZ:PROC	; MtlBase::GetFullName
EXTRN	?GetPStamp@MtlBase@@UEAAPEAVPStamp@@H@Z:PROC	; MtlBase::GetPStamp
EXTRN	?GetProperty@MtlBase@@UEAAPEAXK@Z:PROC		; MtlBase::GetProperty
EXTRN	?GetTimeRange@Animatable@@UEAA?AVInterval@@K@Z:PROC ; Animatable::GetTimeRange
EXTRN	?GetVPDisplayDIB@Texmap@@UEAAPEAUtagBITMAPINFO@@HAEAVTexHandleMaker@@AEAVInterval@@HHH@Z:PROC ; Texmap::GetVPDisplayDIB
EXTRN	?IsAnimated@Animatable@@UEAAHXZ:PROC		; Animatable::IsAnimated
EXTRN	?IsOutputMeaningful@Texmap@@UEAA_NAEAVShadeContext@@@Z:PROC ; Texmap::IsOutputMeaningful
EXTRN	?Load@MtlBase@@UEAA?AW4IOResult@@PEAVILoad@@@Z:PROC ; MtlBase::Load
EXTRN	?MapKeys@Animatable@@UEAAXPEAVTimeMap@@K@Z:PROC	; Animatable::MapKeys
EXTRN	?MouseCycleCompleted@Animatable@@UEAAXH@Z:PROC	; Animatable::MouseCycleCompleted
EXTRN	?MouseCycleStarted@Animatable@@UEAAXH@Z:PROC	; Animatable::MouseCycleStarted
EXTRN	?NodeName@Animatable@@UEAA?AVWStr@@XZ:PROC	; Animatable::NodeName
EXTRN	?NotifyDependents@ReferenceTarget@@UEAA?AW4RefResult@@AEBVInterval@@_KIKHPEAV1@W4NotifyDependentsOption@@@Z:PROC ; ReferenceTarget::NotifyDependents
EXTRN	?RefAdded@Texmap@@UEAAXPEAVReferenceMaker@@@Z:PROC ; Texmap::RefAdded
EXTRN	?ReleaseInterface@Animatable@@UEAAXKPEAX@Z:PROC	; Animatable::ReleaseInterface
EXTRN	?RenderBitmap@Texmap@@UEAAXHPEAVBitmap@@MH@Z:PROC ; Texmap::RenderBitmap
EXTRN	?Requirements@MtlBase@@UEAAKH@Z:PROC		; MtlBase::Requirements
EXTRN	?RescaleWorldUnits@ReferenceMaker@@UEAAXM@Z:PROC ; ReferenceMaker::RescaleWorldUnits
EXTRN	?Save@MtlBase@@UEAA?AW4IOResult@@PEAVISave@@@Z:PROC ; MtlBase::Save
EXTRN	?SaveEnum@ReferenceMaker@@UEAAXAEAVSaveEnumProc@@H@Z:PROC ; ReferenceMaker::SaveEnum
EXTRN	?SetProperty@MtlBase@@UEAAHKPEAX@Z:PROC		; MtlBase::SetProperty
EXTRN	?SpecifySaveReferences@ReferenceMaker@@UEAA_NAEAVReferenceSaveManager@@@Z:PROC ; ReferenceMaker::SpecifySaveReferences
EXTRN	?SubAnimCommitSetKeyBuffer@Animatable@@UEAAXHH@Z:PROC ; Animatable::SubAnimCommitSetKeyBuffer
EXTRN	?SubAnimRevertSetKeyBuffer@Animatable@@UEAAXH@Z:PROC ; Animatable::SubAnimRevertSetKeyBuffer
EXTRN	?SubAnimSetKeyBufferPresent@Animatable@@UEAAHH@Z:PROC ; Animatable::SubAnimSetKeyBufferPresent
EXTRN	?SvCanConcludeLink@Animatable@@UEAA_NPEAVIGraphObjectManager@@PEAVIGraphNode@@1@Z:PROC ; Animatable::SvCanConcludeLink
EXTRN	?SvCanDetach@Animatable@@UEAA_NPEAVIGraphObjectManager@@PEAVIGraphNode@@@Z:PROC ; Animatable::SvCanDetach
EXTRN	?SvCanDetachRel@Animatable@@UEAA_NPEAVIGraphObjectManager@@PEAVIGraphNode@@H1@Z:PROC ; Animatable::SvCanDetachRel
EXTRN	?SvCanInitiateLink@Animatable@@UEAA_NPEAVIGraphObjectManager@@PEAVIGraphNode@@@Z:PROC ; Animatable::SvCanInitiateLink
EXTRN	?SvCanRemoveThis@Animatable@@UEAA_NPEAVIGraphObjectManager@@PEAVIGraphNode@@@Z:PROC ; Animatable::SvCanRemoveThis
EXTRN	?SvCanSelect@MtlBase@@UEAA_NPEAVIGraphObjectManager@@PEAVIGraphNode@@@Z:PROC ; MtlBase::SvCanSelect
EXTRN	?SvCanSetName@MtlBase@@UEAA_NPEAVIGraphObjectManager@@PEAVIGraphNode@@@Z:PROC ; MtlBase::SvCanSetName
EXTRN	?SvDetach@Animatable@@UEAA_NPEAVIGraphObjectManager@@PEAVIGraphNode@@@Z:PROC ; Animatable::SvDetach
EXTRN	?SvDetachRel@Animatable@@UEAA_NPEAVIGraphObjectManager@@PEAVIGraphNode@@H1@Z:PROC ; Animatable::SvDetachRel
EXTRN	?SvEditProperties@Animatable@@UEAA_NPEAVIGraphObjectManager@@PEAVIGraphNode@@@Z:PROC ; Animatable::SvEditProperties
EXTRN	?SvGetMultiSelectCallback@MtlBase@@UEAAPEAVMultiSelectCallback@@PEAVIGraphObjectManager@@PEAVIGraphNode@@@Z:PROC ; MtlBase::SvGetMultiSelectCallback
EXTRN	?SvGetName@MtlBase@@UEAA?AVWStr@@PEAVIGraphObjectManager@@PEAVIGraphNode@@_N@Z:PROC ; MtlBase::SvGetName
EXTRN	?SvGetRefTip@Animatable@@UEAA?AVWStr@@PEAVIGraphObjectManager@@PEAVIGraphNode@@1@Z:PROC ; Animatable::SvGetRefTip
EXTRN	?SvGetRelTip@Animatable@@UEAA?AVWStr@@PEAVIGraphObjectManager@@PEAVIGraphNode@@H1@Z:PROC ; Animatable::SvGetRelTip
EXTRN	?SvGetSwatchColor@Animatable@@UEAAKPEAVIGraphObjectManager@@PEAVIGraphNode@@@Z:PROC ; Animatable::SvGetSwatchColor
EXTRN	?SvGetTip@Animatable@@UEAA?AVWStr@@PEAVIGraphObjectManager@@PEAVIGraphNode@@@Z:PROC ; Animatable::SvGetTip
EXTRN	?SvHandleDoubleClick@MtlBase@@UEAA_NPEAVIGraphObjectManager@@PEAVIGraphNode@@@Z:PROC ; MtlBase::SvHandleDoubleClick
EXTRN	?SvHandleRelDoubleClick@Animatable@@UEAA_NPEAVIGraphObjectManager@@PEAVIGraphNode@@H1@Z:PROC ; Animatable::SvHandleRelDoubleClick
EXTRN	?SvHighlightColor@MtlBase@@UEAAKPEAVIGraphObjectManager@@PEAVIGraphNode@@@Z:PROC ; MtlBase::SvHighlightColor
EXTRN	?SvIsHighlighted@Animatable@@UEAA_NPEAVIGraphObjectManager@@PEAVIGraphNode@@@Z:PROC ; Animatable::SvIsHighlighted
EXTRN	?SvIsInactive@Animatable@@UEAA_NPEAVIGraphObjectManager@@PEAVIGraphNode@@@Z:PROC ; Animatable::SvIsInactive
EXTRN	?SvIsSelected@MtlBase@@UEAA_NPEAVIGraphObjectManager@@PEAVIGraphNode@@@Z:PROC ; MtlBase::SvIsSelected
EXTRN	?SvLinkChild@Animatable@@UEAA_NPEAVIGraphObjectManager@@PEAVIGraphNode@@1@Z:PROC ; Animatable::SvLinkChild
EXTRN	?SvRemoveThis@Animatable@@UEAA_NPEAVIGraphObjectManager@@PEAVIGraphNode@@@Z:PROC ; Animatable::SvRemoveThis
EXTRN	?SvSetName@MtlBase@@UEAA_NPEAVIGraphObjectManager@@PEAVIGraphNode@@AEBVWStr@@@Z:PROC ; MtlBase::SvSetName
EXTRN	?SvTraverseAnimGraph@Texmap@@UEAA?AVSvGraphNodeReference@@PEAVIGraphObjectManager@@PEAVAnimatable@@HK@Z:PROC ; Texmap::SvTraverseAnimGraph
EXTRN	_CxxThrowException:PROC
EXTRN	__CxxFrameHandler3:PROC
EXTRN	memset:PROC
EXTRN	__imp_??_7OutOfRangeException@Util@MaxSDK@@6B@:BYTE
EXTRN	__imp_?defaultDim@@3PEAVParamDimension@@EA:QWORD
EXTRN	__ImageBase:BYTE
EXTRN	_fltused:DWORD
_BSS	SEGMENT
?kInvalidId@AssetManagement@MaxSDK@@3UAssetId@12@A DB 010H DUP (?) ; MaxSDK::AssetManagement::kInvalidId
?BerconNoiseDesc@@3VBerconNoiseClassDesc@@A DB 038H DUP (?) ; BerconNoiseDesc
?xyz_blk@@3VXYZ_Desc@@A DB 080H DUP (?)			; xyz_blk
?berconnoise_param_blk@@3VParamBlockDesc2@@A DB 080H DUP (?) ; berconnoise_param_blk
?BerconMap_param_blk@@3VParamBlockDesc2@@A DB 080H DUP (?) ; BerconMap_param_blk
?black@@3VAColor@@A DB 010H DUP (?)			; black
_BSS	ENDS
;	COMDAT pdata
pdata	SEGMENT
$pdata$??_H@YAXPEAX_K1P6APEAX0@Z@Z DD imagerel $LN12
	DD	imagerel $LN12+72
	DD	imagerel $unwind$??_H@YAXPEAX_K1P6APEAX0@Z@Z
pdata	ENDS
;	COMDAT pdata
pdata	SEGMENT
$pdata$??0TabOutOfRangeException@Util@MaxSDK@@QEAA@PEB_W@Z DD imagerel $LN6
	DD	imagerel $LN6+48
	DD	imagerel $unwind$??0TabOutOfRangeException@Util@MaxSDK@@QEAA@PEB_W@Z
pdata	ENDS
;	COMDAT pdata
pdata	SEGMENT
$pdata$??1TabOutOfRangeException@Util@MaxSDK@@UEAA@XZ DD imagerel $LN9
	DD	imagerel $LN9+29
	DD	imagerel $unwind$??1TabOutOfRangeException@Util@MaxSDK@@UEAA@XZ
pdata	ENDS
;	COMDAT pdata
pdata	SEGMENT
$pdata$??0TabOutOfRangeException@Util@MaxSDK@@QEAA@AEBV012@@Z DD imagerel $LN9
	DD	imagerel $LN9+58
	DD	imagerel $unwind$??0TabOutOfRangeException@Util@MaxSDK@@QEAA@AEBV012@@Z
pdata	ENDS
;	COMDAT pdata
pdata	SEGMENT
$pdata$??_GTabOutOfRangeException@Util@MaxSDK@@UEAAPEAXI@Z DD imagerel $LN16
	DD	imagerel $LN16+97
	DD	imagerel $unwind$??_GTabOutOfRangeException@Util@MaxSDK@@UEAAPEAXI@Z
pdata	ENDS
;	COMDAT pdata
pdata	SEGMENT
$pdata$??_4Interval@@QEAAAEAV0@V0@@Z DD imagerel $LN4
	DD	imagerel $LN4+38
	DD	imagerel $unwind$??_4Interval@@QEAAAEAV0@V0@@Z
pdata	ENDS
;	COMDAT pdata
pdata	SEGMENT
$pdata$?IsSubClassOf@Animatable@@UEAAHVClass_ID@@@Z DD imagerel $LN8
	DD	imagerel $LN8+53
	DD	imagerel $unwind$?IsSubClassOf@Animatable@@UEAAHVClass_ID@@@Z
pdata	ENDS
;	COMDAT pdata
pdata	SEGMENT
$pdata$?NotifyDependents@ReferenceMaker@@EEAA?AW4RefResult@@AEBVInterval@@_KIKHPEAVReferenceTarget@@@Z DD imagerel $LN5
	DD	imagerel $LN5+43
	DD	imagerel $unwind$?NotifyDependents@ReferenceMaker@@EEAA?AW4RefResult@@AEBVInterval@@_KIKHPEAVReferenceTarget@@@Z
pdata	ENDS
;	COMDAT pdata
pdata	SEGMENT
$pdata$?NotifyForeground@ReferenceTarget@@UEAAXH@Z DD imagerel $LN4
	DD	imagerel $LN4+88
	DD	imagerel $unwind$?NotifyForeground@ReferenceTarget@@UEAAXH@Z
pdata	ENDS
;	COMDAT pdata
pdata	SEGMENT
$pdata$??A?$Tab@PEAVFPInterface@@@@QEBAAEAPEAVFPInterface@@_J@Z DD imagerel $LN11
	DD	imagerel $LN11+214
	DD	imagerel $unwind$??A?$Tab@PEAVFPInterface@@@@QEBAAEAPEAVFPInterface@@_J@Z
pdata	ENDS
;	COMDAT pdata
pdata	SEGMENT
$pdata$?GetInterfaceAt@ClassDesc@@UEAAPEAVFPInterface@@H@Z DD imagerel $LN14
	DD	imagerel $LN14+214
	DD	imagerel $unwind$?GetInterfaceAt@ClassDesc@@UEAAPEAVFPInterface@@H@Z
pdata	ENDS
;	COMDAT pdata
pdata	SEGMENT
$pdata$?Set@BitArray@@QEAAXH@Z DD imagerel $LN21
	DD	imagerel $LN21+153
	DD	imagerel $unwind$?Set@BitArray@@QEAAXH@Z
pdata	ENDS
;	COMDAT pdata
pdata	SEGMENT
$pdata$?GetInterface@MtlBase@@UEAAPEAVBaseInterface@@VInterface_ID@@@Z DD imagerel $LN6
	DD	imagerel $LN6+33
	DD	imagerel $unwind$?GetInterface@MtlBase@@UEAAPEAVBaseInterface@@VInterface_ID@@@Z
pdata	ENDS
;	COMDAT pdata
pdata	SEGMENT
$pdata$??1Texmap@@UEAA@XZ DD imagerel $LN6
	DD	imagerel $LN6+29
	DD	imagerel $unwind$??1Texmap@@UEAA@XZ
pdata	ENDS
;	COMDAT pdata
pdata	SEGMENT
$pdata$??1?$Tab@PEAVVertexNormalsCallback@@@@QEAA@XZ DD imagerel $LN5
	DD	imagerel $LN5+25
	DD	imagerel $unwind$??1?$Tab@PEAVVertexNormalsCallback@@@@QEAA@XZ
pdata	ENDS
;	COMDAT pdata
pdata	SEGMENT
$pdata$??0VertexNormalsControl@@QEAA@XZ DD imagerel $LN8
	DD	imagerel $LN8+36
	DD	imagerel $unwind$??0VertexNormalsControl@@QEAA@XZ
pdata	ENDS
;	COMDAT pdata
pdata	SEGMENT
$pdata$??_GParamMap2UserDlgProc@@UEAAPEAXI@Z DD imagerel $LN11
	DD	imagerel $LN11+63
	DD	imagerel $unwind$??_GParamMap2UserDlgProc@@UEAAPEAXI@Z
pdata	ENDS
;	COMDAT pdata
pdata	SEGMENT
$pdata$??0XYZ_Desc@@QEAA@PEAVClassDesc2@@HHHHHHH@Z DD imagerel $LN6
	DD	imagerel $LN6+4816
	DD	imagerel $unwind$??0XYZ_Desc@@QEAA@PEAVClassDesc2@@HHHHHHH@Z
pdata	ENDS
;	COMDAT pdata
pdata	SEGMENT
$pdata$??1XYZ_Desc@@UEAA@XZ DD imagerel $LN6
	DD	imagerel $LN6+29
	DD	imagerel $unwind$??1XYZ_Desc@@UEAA@XZ
pdata	ENDS
;	COMDAT pdata
pdata	SEGMENT
$pdata$??_GXYZ_Desc@@UEAAPEAXI@Z DD imagerel $LN13
	DD	imagerel $LN13+97
	DD	imagerel $unwind$??_GXYZ_Desc@@UEAAPEAXI@Z
pdata	ENDS
;	COMDAT pdata
pdata	SEGMENT
$pdata$??0BerconXYZDlgProc@@QEAA@PEAVReferenceTarget@@@Z DD imagerel $LN8
	DD	imagerel $LN8+49
	DD	imagerel $unwind$??0BerconXYZDlgProc@@QEAA@PEAVReferenceTarget@@@Z
pdata	ENDS
;	COMDAT pdata
pdata	SEGMENT
$pdata$?DlgProc@BerconXYZDlgProc@@UEAA_JHPEAVIParamMap2@@PEAUHWND__@@I_K_J@Z DD imagerel $LN9
	DD	imagerel $LN9+787
	DD	imagerel $unwind$?DlgProc@BerconXYZDlgProc@@UEAA_JHPEAVIParamMap2@@PEAUHWND__@@I_K_J@Z
pdata	ENDS
;	COMDAT pdata
pdata	SEGMENT
$pdata$1$?DlgProc@BerconXYZDlgProc@@UEAA_JHPEAVIParamMap2@@PEAUHWND__@@I_K_J@Z DD imagerel $LN9+787
	DD	imagerel $LN9+1284
	DD	imagerel $chain$1$?DlgProc@BerconXYZDlgProc@@UEAA_JHPEAVIParamMap2@@PEAUHWND__@@I_K_J@Z
pdata	ENDS
;	COMDAT pdata
pdata	SEGMENT
$pdata$??1BerconXYZDlgProc@@UEAA@XZ DD imagerel $LN8
	DD	imagerel $LN8+32
	DD	imagerel $unwind$??1BerconXYZDlgProc@@UEAA@XZ
pdata	ENDS
;	COMDAT pdata
pdata	SEGMENT
$pdata$??_GBerconXYZDlgProc@@UEAAPEAXI@Z DD imagerel $LN15
	DD	imagerel $LN15+78
	DD	imagerel $unwind$??_GBerconXYZDlgProc@@UEAAPEAXI@Z
pdata	ENDS
;	COMDAT pdata
pdata	SEGMENT
$pdata$??0BerconXYZ@@QEAA@XZ DD imagerel $LN17
	DD	imagerel $LN17+100
	DD	imagerel $unwind$??0BerconXYZ@@QEAA@XZ
pdata	ENDS
;	COMDAT pdata
pdata	SEGMENT
$pdata$?NotifyRefChanged@BerconNoise@@UEAA?AW4RefResult@@AEBVInterval@@PEAVReferenceTarget@@AEA_KIH@Z DD imagerel $LN32
	DD	imagerel $LN32+47
	DD	imagerel $unwind$?NotifyRefChanged@BerconNoise@@UEAA?AW4RefResult@@AEBVInterval@@PEAVReferenceTarget@@AEA_KIH@Z
pdata	ENDS
;	COMDAT pdata
pdata	SEGMENT
$pdata$0$?NotifyRefChanged@BerconNoise@@UEAA?AW4RefResult@@AEBVInterval@@PEAVReferenceTarget@@AEA_KIH@Z DD imagerel $LN32+47
	DD	imagerel $LN32+172
	DD	imagerel $chain$0$?NotifyRefChanged@BerconNoise@@UEAA?AW4RefResult@@AEBVInterval@@PEAVReferenceTarget@@AEA_KIH@Z
pdata	ENDS
;	COMDAT pdata
pdata	SEGMENT
$pdata$2$?NotifyRefChanged@BerconNoise@@UEAA?AW4RefResult@@AEBVInterval@@PEAVReferenceTarget@@AEA_KIH@Z DD imagerel $LN32+172
	DD	imagerel $LN32+245
	DD	imagerel $chain$2$?NotifyRefChanged@BerconNoise@@UEAA?AW4RefResult@@AEBVInterval@@PEAVReferenceTarget@@AEA_KIH@Z
pdata	ENDS
;	COMDAT pdata
pdata	SEGMENT
$pdata$3$?NotifyRefChanged@BerconNoise@@UEAA?AW4RefResult@@AEBVInterval@@PEAVReferenceTarget@@AEA_KIH@Z DD imagerel $LN32+245
	DD	imagerel $LN32+256
	DD	imagerel $chain$3$?NotifyRefChanged@BerconNoise@@UEAA?AW4RefResult@@AEBVInterval@@PEAVReferenceTarget@@AEA_KIH@Z
pdata	ENDS
;	COMDAT pdata
pdata	SEGMENT
$pdata$?EvalParameters@BerconNoise@@QEAA?AVNoiseParams@@PEAVShadeContext@@@Z DD imagerel $LN33
	DD	imagerel $LN33+1002
	DD	imagerel $unwind$?EvalParameters@BerconNoise@@QEAA?AVNoiseParams@@PEAVShadeContext@@@Z
pdata	ENDS
;	COMDAT pdata
pdata	SEGMENT
$pdata$?applyDistortion@BerconNoise@@QEAAXAEAVShadeContext@@AEAVPoint3@@@Z DD imagerel $LN24
	DD	imagerel $LN24+59
	DD	imagerel $unwind$?applyDistortion@BerconNoise@@QEAAXAEAVShadeContext@@AEAVPoint3@@@Z
pdata	ENDS
;	COMDAT pdata
pdata	SEGMENT
$pdata$0$?applyDistortion@BerconNoise@@QEAAXAEAVShadeContext@@AEAVPoint3@@@Z DD imagerel $LN24+59
	DD	imagerel $LN24+82
	DD	imagerel $chain$0$?applyDistortion@BerconNoise@@QEAAXAEAVShadeContext@@AEAVPoint3@@@Z
pdata	ENDS
;	COMDAT pdata
pdata	SEGMENT
$pdata$3$?applyDistortion@BerconNoise@@QEAAXAEAVShadeContext@@AEAVPoint3@@@Z DD imagerel $LN24+82
	DD	imagerel $LN24+209
	DD	imagerel $chain$3$?applyDistortion@BerconNoise@@QEAAXAEAVShadeContext@@AEAVPoint3@@@Z
pdata	ENDS
;	COMDAT pdata
pdata	SEGMENT
$pdata$4$?applyDistortion@BerconNoise@@QEAAXAEAVShadeContext@@AEAVPoint3@@@Z DD imagerel $LN24+209
	DD	imagerel $LN24+268
	DD	imagerel $chain$4$?applyDistortion@BerconNoise@@QEAAXAEAVShadeContext@@AEAVPoint3@@@Z
pdata	ENDS
;	COMDAT pdata
pdata	SEGMENT
$pdata$5$?applyDistortion@BerconNoise@@QEAAXAEAVShadeContext@@AEAVPoint3@@@Z DD imagerel $LN24+268
	DD	imagerel $LN24+286
	DD	imagerel $chain$5$?applyDistortion@BerconNoise@@QEAAXAEAVShadeContext@@AEAVPoint3@@@Z
pdata	ENDS
;	COMDAT pdata
pdata	SEGMENT
$pdata$?EnableStuff@BerconNoise@@QEAAXXZ DD imagerel $LN9
	DD	imagerel $LN9+30
	DD	imagerel $unwind$?EnableStuff@BerconNoise@@QEAAXXZ
pdata	ENDS
;	COMDAT pdata
pdata	SEGMENT
$pdata$0$?EnableStuff@BerconNoise@@QEAAXXZ DD imagerel $LN9+30
	DD	imagerel $LN9+65
	DD	imagerel $chain$0$?EnableStuff@BerconNoise@@QEAAXXZ
pdata	ENDS
;	COMDAT pdata
pdata	SEGMENT
$pdata$5$?EnableStuff@BerconNoise@@QEAAXXZ DD imagerel $LN9+65
	DD	imagerel $LN9+301
	DD	imagerel $chain$5$?EnableStuff@BerconNoise@@QEAAXXZ
pdata	ENDS
;	COMDAT pdata
pdata	SEGMENT
$pdata$6$?EnableStuff@BerconNoise@@QEAAXXZ DD imagerel $LN9+301
	DD	imagerel $LN9+776
	DD	imagerel $chain$6$?EnableStuff@BerconNoise@@QEAAXXZ
pdata	ENDS
;	COMDAT pdata
pdata	SEGMENT
$pdata$7$?EnableStuff@BerconNoise@@QEAAXXZ DD imagerel $LN9+776
	DD	imagerel $LN9+781
	DD	imagerel $chain$7$?EnableStuff@BerconNoise@@QEAAXXZ
pdata	ENDS
;	COMDAT pdata
pdata	SEGMENT
$pdata$8$?EnableStuff@BerconNoise@@QEAAXXZ DD imagerel $LN9+781
	DD	imagerel $LN9+787
	DD	imagerel $chain$8$?EnableStuff@BerconNoise@@QEAAXXZ
pdata	ENDS
;	COMDAT pdata
pdata	SEGMENT
$pdata$?DiscardTexHandle@BerconNoise@@QEAAXXZ DD imagerel $LN5
	DD	imagerel $LN5+44
	DD	imagerel $unwind$?DiscardTexHandle@BerconNoise@@QEAAXXZ
pdata	ENDS
;	COMDAT pdata
pdata	SEGMENT
$pdata$?ActivateTexDisplay@BerconNoise@@UEAAXH@Z DD imagerel $LN9
	DD	imagerel $LN9+47
	DD	imagerel $unwind$?ActivateTexDisplay@BerconNoise@@UEAAXH@Z
pdata	ENDS
;	COMDAT pdata
pdata	SEGMENT
$pdata$?GetActiveTexHandle@BerconNoise@@UEAA_KHAEAVTexHandleMaker@@@Z DD imagerel $LN10
	DD	imagerel $LN10+107
	DD	imagerel $unwind$?GetActiveTexHandle@BerconNoise@@UEAA_KHAEAVTexHandleMaker@@@Z
pdata	ENDS
;	COMDAT pdata
pdata	SEGMENT
$pdata$0$?GetActiveTexHandle@BerconNoise@@UEAA_KHAEAVTexHandleMaker@@@Z DD imagerel $LN10+107
	DD	imagerel $LN10+164
	DD	imagerel $chain$0$?GetActiveTexHandle@BerconNoise@@UEAA_KHAEAVTexHandleMaker@@@Z
pdata	ENDS
;	COMDAT pdata
pdata	SEGMENT
$pdata$1$?GetActiveTexHandle@BerconNoise@@UEAA_KHAEAVTexHandleMaker@@@Z DD imagerel $LN10+164
	DD	imagerel $LN10+186
	DD	imagerel $chain$1$?GetActiveTexHandle@BerconNoise@@UEAA_KHAEAVTexHandleMaker@@@Z
pdata	ENDS
;	COMDAT pdata
pdata	SEGMENT
$pdata$?CreateParamDlg@BerconNoise@@UEAAPEAVParamDlg@@PEAUHWND__@@PEAVIMtlParams@@@Z DD imagerel $LN25
	DD	imagerel $LN25+253
	DD	imagerel $unwind$?CreateParamDlg@BerconNoise@@UEAAPEAVParamDlg@@PEAUHWND__@@PEAVIMtlParams@@@Z
pdata	ENDS
;	COMDAT pdata
pdata	SEGMENT
$pdata$?SetDlgThing@BerconNoise@@UEAAHPEAVParamDlg@@@Z DD imagerel $LN6
	DD	imagerel $LN6+49
	DD	imagerel $unwind$?SetDlgThing@BerconNoise@@UEAAHPEAVParamDlg@@@Z
pdata	ENDS
;	COMDAT pdata
pdata	SEGMENT
$pdata$?Update@BerconNoise@@UEAAXHAEAVInterval@@@Z DD imagerel $LN59
	DD	imagerel $LN59+31
	DD	imagerel $unwind$?Update@BerconNoise@@UEAAXHAEAVInterval@@@Z
pdata	ENDS
;	COMDAT pdata
pdata	SEGMENT
$pdata$0$?Update@BerconNoise@@UEAAXHAEAVInterval@@@Z DD imagerel $LN59+31
	DD	imagerel $LN59+60
	DD	imagerel $chain$0$?Update@BerconNoise@@UEAAXHAEAVInterval@@@Z
pdata	ENDS
;	COMDAT pdata
pdata	SEGMENT
$pdata$3$?Update@BerconNoise@@UEAAXHAEAVInterval@@@Z DD imagerel $LN59+60
	DD	imagerel $LN59+1285
	DD	imagerel $chain$3$?Update@BerconNoise@@UEAAXHAEAVInterval@@@Z
pdata	ENDS
;	COMDAT pdata
pdata	SEGMENT
$pdata$4$?Update@BerconNoise@@UEAAXHAEAVInterval@@@Z DD imagerel $LN59+1285
	DD	imagerel $LN59+1667
	DD	imagerel $chain$4$?Update@BerconNoise@@UEAAXHAEAVInterval@@@Z
pdata	ENDS
;	COMDAT pdata
pdata	SEGMENT
$pdata$5$?Update@BerconNoise@@UEAAXHAEAVInterval@@@Z DD imagerel $LN59+1667
	DD	imagerel $LN59+1676
	DD	imagerel $chain$5$?Update@BerconNoise@@UEAAXHAEAVInterval@@@Z
pdata	ENDS
;	COMDAT pdata
pdata	SEGMENT
$pdata$?Reset@BerconNoise@@UEAAXXZ DD imagerel $LN30
	DD	imagerel $LN30+168
	DD	imagerel $unwind$?Reset@BerconNoise@@UEAAXXZ
pdata	ENDS
;	COMDAT pdata
pdata	SEGMENT
$pdata$2$?Reset@BerconNoise@@UEAAXXZ DD imagerel $LN30+168
	DD	imagerel $LN30+1092
	DD	imagerel $chain$2$?Reset@BerconNoise@@UEAAXXZ
pdata	ENDS
;	COMDAT pdata
pdata	SEGMENT
$pdata$3$?Reset@BerconNoise@@UEAAXXZ DD imagerel $LN30+1092
	DD	imagerel $LN30+1213
	DD	imagerel $chain$3$?Reset@BerconNoise@@UEAAXXZ
pdata	ENDS
;	COMDAT pdata
pdata	SEGMENT
$pdata$?Validity@BerconNoise@@UEAA?AVInterval@@H@Z DD imagerel $LN8
	DD	imagerel $LN8+76
	DD	imagerel $unwind$?Validity@BerconNoise@@UEAA?AVInterval@@H@Z
pdata	ENDS
;	COMDAT pdata
pdata	SEGMENT
$pdata$?SetSubTexmap@BerconNoise@@UEAAXHPEAVTexmap@@@Z DD imagerel $LN34
	DD	imagerel $LN34+202
	DD	imagerel $unwind$?SetSubTexmap@BerconNoise@@UEAAXHPEAVTexmap@@@Z
pdata	ENDS
;	COMDAT pdata
pdata	SEGMENT
$pdata$?GetSubTexmapSlotName@BerconNoise@@UEAA?AVWStr@@H@Z DD imagerel $LN31
	DD	imagerel $LN31+476
	DD	imagerel $unwind$?GetSubTexmapSlotName@BerconNoise@@UEAA?AVWStr@@H@Z
pdata	ENDS
;	COMDAT pdata
pdata	SEGMENT
$pdata$?dtor$0@?0??GetSubTexmapSlotName@BerconNoise@@UEAA?AVWStr@@H@Z@4HA DD imagerel ?dtor$0@?0??GetSubTexmapSlotName@BerconNoise@@UEAA?AVWStr@@H@Z@4HA
	DD	imagerel ?dtor$0@?0??GetSubTexmapSlotName@BerconNoise@@UEAA?AVWStr@@H@Z@4HA+39
	DD	imagerel $unwind$?dtor$0@?0??GetSubTexmapSlotName@BerconNoise@@UEAA?AVWStr@@H@Z@4HA
pdata	ENDS
;	COMDAT pdata
pdata	SEGMENT
$pdata$?EvalColor@BerconNoise@@UEAA?AVAColor@@AEAVShadeContext@@@Z DD imagerel $LN80
	DD	imagerel $LN80+224
	DD	imagerel $unwind$?EvalColor@BerconNoise@@UEAA?AVAColor@@AEAVShadeContext@@@Z
pdata	ENDS
;	COMDAT pdata
pdata	SEGMENT
$pdata$5$?EvalColor@BerconNoise@@UEAA?AVAColor@@AEAVShadeContext@@@Z DD imagerel $LN80+224
	DD	imagerel $LN80+1049
	DD	imagerel $chain$5$?EvalColor@BerconNoise@@UEAA?AVAColor@@AEAVShadeContext@@@Z
pdata	ENDS
;	COMDAT pdata
pdata	SEGMENT
$pdata$6$?EvalColor@BerconNoise@@UEAA?AVAColor@@AEAVShadeContext@@@Z DD imagerel $LN80+1049
	DD	imagerel $LN80+1087
	DD	imagerel $chain$6$?EvalColor@BerconNoise@@UEAA?AVAColor@@AEAVShadeContext@@@Z
pdata	ENDS
;	COMDAT pdata
pdata	SEGMENT
$pdata$?EvalMono@BerconNoise@@UEAAMAEAVShadeContext@@@Z DD imagerel $LN6
	DD	imagerel $LN6+48
	DD	imagerel $unwind$?EvalMono@BerconNoise@@UEAAMAEAVShadeContext@@@Z
pdata	ENDS
;	COMDAT pdata
pdata	SEGMENT
$pdata$?EvalNormalPerturb@BerconNoise@@UEAA?AVPoint3@@AEAVShadeContext@@@Z DD imagerel $LN110
	DD	imagerel $LN110+51
	DD	imagerel $unwind$?EvalNormalPerturb@BerconNoise@@UEAA?AVPoint3@@AEAVShadeContext@@@Z
pdata	ENDS
;	COMDAT pdata
pdata	SEGMENT
$pdata$1$?EvalNormalPerturb@BerconNoise@@UEAA?AVPoint3@@AEAVShadeContext@@@Z DD imagerel $LN110+51
	DD	imagerel $LN110+229
	DD	imagerel $chain$1$?EvalNormalPerturb@BerconNoise@@UEAA?AVPoint3@@AEAVShadeContext@@@Z
pdata	ENDS
;	COMDAT pdata
pdata	SEGMENT
$pdata$2$?EvalNormalPerturb@BerconNoise@@UEAA?AVPoint3@@AEAVShadeContext@@@Z DD imagerel $LN110+229
	DD	imagerel $LN110+236
	DD	imagerel $chain$2$?EvalNormalPerturb@BerconNoise@@UEAA?AVPoint3@@AEAVShadeContext@@@Z
pdata	ENDS
;	COMDAT pdata
pdata	SEGMENT
$pdata$5$?EvalNormalPerturb@BerconNoise@@UEAA?AVPoint3@@AEAVShadeContext@@@Z DD imagerel $LN110+236
	DD	imagerel $LN110+1307
	DD	imagerel $chain$5$?EvalNormalPerturb@BerconNoise@@UEAA?AVPoint3@@AEAVShadeContext@@@Z
pdata	ENDS
;	COMDAT pdata
pdata	SEGMENT
$pdata$6$?EvalNormalPerturb@BerconNoise@@UEAA?AVPoint3@@AEAVShadeContext@@@Z DD imagerel $LN110+1307
	DD	imagerel $LN110+1349
	DD	imagerel $chain$6$?EvalNormalPerturb@BerconNoise@@UEAA?AVPoint3@@AEAVShadeContext@@@Z
pdata	ENDS
;	COMDAT pdata
pdata	SEGMENT
$pdata$?GetClassName@BerconNoise@@UEAAXAEAVWStr@@@Z DD imagerel $LN4
	DD	imagerel $LN4+37
	DD	imagerel $unwind$?GetClassName@BerconNoise@@UEAAXAEAVWStr@@@Z
pdata	ENDS
;	COMDAT pdata
pdata	SEGMENT
$pdata$?Clone@BerconNoise@@UEAAPEAVReferenceTarget@@AEAVRemapDir@@@Z DD imagerel $LN18
	DD	imagerel $LN18+408
	DD	imagerel $unwind$?Clone@BerconNoise@@UEAAPEAVReferenceTarget@@AEAVRemapDir@@@Z
pdata	ENDS
;	COMDAT pdata
pdata	SEGMENT
$pdata$?SubAnimName@BerconNoise@@UEAA?AVWStr@@H@Z DD imagerel $LN20
	DD	imagerel $LN20+232
	DD	imagerel $unwind$?SubAnimName@BerconNoise@@UEAA?AVWStr@@H@Z
pdata	ENDS
;	COMDAT pdata
pdata	SEGMENT
$pdata$?dtor$0@?0??SubAnimName@BerconNoise@@UEAA?AVWStr@@H@Z@4HA DD imagerel ?dtor$0@?0??SubAnimName@BerconNoise@@UEAA?AVWStr@@H@Z@4HA
	DD	imagerel ?dtor$0@?0??SubAnimName@BerconNoise@@UEAA?AVWStr@@H@Z@4HA+39
	DD	imagerel $unwind$?dtor$0@?0??SubAnimName@BerconNoise@@UEAA?AVWStr@@H@Z@4HA
pdata	ENDS
;	COMDAT pdata
pdata	SEGMENT
$pdata$?GetParamBlockByID@BerconNoise@@UEAAPEAVIParamBlock2@@F@Z DD imagerel $LN7
	DD	imagerel $LN7+146
	DD	imagerel $unwind$?GetParamBlockByID@BerconNoise@@UEAAPEAVIParamBlock2@@F@Z
pdata	ENDS
;	COMDAT pdata
pdata	SEGMENT
$pdata$??0BerconNoise@@QEAA@XZ DD imagerel $LN66
	DD	imagerel $LN66+558
	DD	imagerel $unwind$??0BerconNoise@@QEAA@XZ
pdata	ENDS
;	COMDAT pdata
pdata	SEGMENT
$pdata$??1BerconNoise@@UEAA@XZ DD imagerel $LN14
	DD	imagerel $LN14+102
	DD	imagerel $unwind$??1BerconNoise@@UEAA@XZ
pdata	ENDS
;	COMDAT pdata
pdata	SEGMENT
$pdata$??_GBerconNoise@@UEAAPEAXI@Z DD imagerel $LN21
	DD	imagerel $LN21+165
	DD	imagerel $unwind$??_GBerconNoise@@UEAAPEAXI@Z
pdata	ENDS
;	COMDAT pdata
pdata	SEGMENT
$pdata$?Create@BerconNoiseClassDesc@@UEAAPEAXH@Z DD imagerel $LN8
	DD	imagerel $LN8+55
	DD	imagerel $unwind$?Create@BerconNoiseClassDesc@@UEAAPEAXH@Z
pdata	ENDS
;	COMDAT pdata
pdata	SEGMENT
$pdata$??0BerconNoiseClassDesc@@QEAA@XZ DD imagerel $LN6
	DD	imagerel $LN6+48
	DD	imagerel $unwind$??0BerconNoiseClassDesc@@QEAA@XZ
pdata	ENDS
;	COMDAT pdata
pdata	SEGMENT
$pdata$??1BerconNoiseClassDesc@@UEAA@XZ DD imagerel $LN6
	DD	imagerel $LN6+29
	DD	imagerel $unwind$??1BerconNoiseClassDesc@@UEAA@XZ
pdata	ENDS
;	COMDAT pdata
pdata	SEGMENT
$pdata$??_GBerconNoiseClassDesc@@UEAAPEAXI@Z DD imagerel $LN13
	DD	imagerel $LN13+97
	DD	imagerel $unwind$??_GBerconNoiseClassDesc@@UEAAPEAXI@Z
pdata	ENDS
;	COMDAT pdata
pdata	SEGMENT
$pdata$??__EBerconNoiseDesc@@YAXXZ DD imagerel ??__EBerconNoiseDesc@@YAXXZ
	DD	imagerel ??__EBerconNoiseDesc@@YAXXZ+57
	DD	imagerel $unwind$??__EBerconNoiseDesc@@YAXXZ
pdata	ENDS
;	COMDAT pdata
pdata	SEGMENT
$pdata$??__FBerconNoiseDesc@@YAXXZ DD imagerel ??__FBerconNoiseDesc@@YAXXZ
	DD	imagerel ??__FBerconNoiseDesc@@YAXXZ+31
	DD	imagerel $unwind$??__FBerconNoiseDesc@@YAXXZ
pdata	ENDS
;	COMDAT pdata
pdata	SEGMENT
$pdata$??__Exyz_blk@@YAXXZ DD imagerel ??__Exyz_blk@@YAXXZ
	DD	imagerel ??__Exyz_blk@@YAXXZ+75
	DD	imagerel $unwind$??__Exyz_blk@@YAXXZ
pdata	ENDS
;	COMDAT pdata
pdata	SEGMENT
$pdata$??__Fxyz_blk@@YAXXZ DD imagerel ??__Fxyz_blk@@YAXXZ
	DD	imagerel ??__Fxyz_blk@@YAXXZ+31
	DD	imagerel $unwind$??__Fxyz_blk@@YAXXZ
pdata	ENDS
;	COMDAT pdata
pdata	SEGMENT
$pdata$??__Eberconnoise_param_blk@@YAXXZ DD imagerel ??__Eberconnoise_param_blk@@YAXXZ
	DD	imagerel ??__Eberconnoise_param_blk@@YAXXZ+4463
	DD	imagerel $unwind$??__Eberconnoise_param_blk@@YAXXZ
pdata	ENDS
;	COMDAT pdata
pdata	SEGMENT
$pdata$??__EBerconMap_param_blk@@YAXXZ DD imagerel ??__EBerconMap_param_blk@@YAXXZ
	DD	imagerel ??__EBerconMap_param_blk@@YAXXZ+3789
	DD	imagerel $unwind$??__EBerconMap_param_blk@@YAXXZ
pdata	ENDS
;	COMDAT pdata
pdata	SEGMENT
$pdata$??0BerconNoiseDlgProc@@QEAA@PEAVBerconNoise@@@Z DD imagerel $LN8
	DD	imagerel $LN8+49
	DD	imagerel $unwind$??0BerconNoiseDlgProc@@QEAA@PEAVBerconNoise@@@Z
pdata	ENDS
;	COMDAT pdata
pdata	SEGMENT
$pdata$?DlgProc@BerconNoiseDlgProc@@UEAA_JHPEAVIParamMap2@@PEAUHWND__@@I_K_J@Z DD imagerel $LN13
	DD	imagerel $LN13+1327
	DD	imagerel $unwind$?DlgProc@BerconNoiseDlgProc@@UEAA_JHPEAVIParamMap2@@PEAUHWND__@@I_K_J@Z
pdata	ENDS
;	COMDAT pdata
pdata	SEGMENT
$pdata$??1BerconNoiseDlgProc@@UEAA@XZ DD imagerel $LN8
	DD	imagerel $LN8+32
	DD	imagerel $unwind$??1BerconNoiseDlgProc@@UEAA@XZ
pdata	ENDS
;	COMDAT pdata
pdata	SEGMENT
$pdata$??_GBerconNoiseDlgProc@@UEAAPEAXI@Z DD imagerel $LN15
	DD	imagerel $LN15+78
	DD	imagerel $unwind$??_GBerconNoiseDlgProc@@UEAAPEAXI@Z
pdata	ENDS
CRT$XCU	SEGMENT
?kInvalidId$initializer$@AssetManagement@MaxSDK@@3P6AXXZEA DQ FLAT:??__EkInvalidId@AssetManagement@MaxSDK@@YAXXZ ; MaxSDK::AssetManagement::kInvalidId$initializer$
CRT$XCU	ENDS
;	COMDAT __xmm@80000000800000008000000080000000
CONST	SEGMENT
__xmm@80000000800000008000000080000000 DB 00H, 00H, 00H, 080H, 00H, 00H, 00H
	DB	080H, 00H, 00H, 00H, 080H, 00H, 00H, 00H, 080H
CONST	ENDS
;	COMDAT __real@c12e848000000000
CONST	SEGMENT
__real@c12e848000000000 DQ 0c12e848000000000r	; -1e+06
CONST	ENDS
;	COMDAT __real@c08f400000000000
CONST	SEGMENT
__real@c08f400000000000 DQ 0c08f400000000000r	; -1000
CONST	ENDS
;	COMDAT __real@bff0000000000000
CONST	SEGMENT
__real@bff0000000000000 DQ 0bff0000000000000r	; -1
CONST	ENDS
;	COMDAT __real@41c80000
CONST	SEGMENT
__real@41c80000 DD 041c80000r			; 25
CONST	ENDS
;	COMDAT __real@412e848000000000
CONST	SEGMENT
__real@412e848000000000 DQ 0412e848000000000r	; 1e+06
CONST	ENDS
;	COMDAT __real@40a00000
CONST	SEGMENT
__real@40a00000 DD 040a00000r			; 5
CONST	ENDS
;	COMDAT __real@408f400000000000
CONST	SEGMENT
__real@408f400000000000 DQ 0408f400000000000r	; 1000
CONST	ENDS
;	COMDAT __real@4059000000000000
CONST	SEGMENT
__real@4059000000000000 DQ 04059000000000000r	; 100
CONST	ENDS
;	COMDAT __real@40400000
CONST	SEGMENT
__real@40400000 DD 040400000r			; 3
CONST	ENDS
;	COMDAT __real@4039000000000000
CONST	SEGMENT
__real@4039000000000000 DQ 04039000000000000r	; 25
CONST	ENDS
;	COMDAT __real@4034000000000000
CONST	SEGMENT
__real@4034000000000000 DQ 04034000000000000r	; 20
CONST	ENDS
;	COMDAT __real@4008000000000000
CONST	SEGMENT
__real@4008000000000000 DQ 04008000000000000r	; 3
CONST	ENDS
;	COMDAT __real@40000000
CONST	SEGMENT
__real@40000000 DD 040000000r			; 2
CONST	ENDS
;	COMDAT __real@3ff0000000000000
CONST	SEGMENT
__real@3ff0000000000000 DQ 03ff0000000000000r	; 1
CONST	ENDS
;	COMDAT __real@3fb99999a0000000
CONST	SEGMENT
__real@3fb99999a0000000 DQ 03fb99999a0000000r	; 0.1
CONST	ENDS
;	COMDAT __real@3f800000
CONST	SEGMENT
__real@3f800000 DD 03f800000r			; 1
CONST	ENDS
;	COMDAT __real@3f1a36e2e0000000
CONST	SEGMENT
__real@3f1a36e2e0000000 DQ 03f1a36e2e0000000r	; 0.0001
CONST	ENDS
;	COMDAT __real@3f000000
CONST	SEGMENT
__real@3f000000 DD 03f000000r			; 0.5
CONST	ENDS
;	COMDAT __real@3dcccccd
CONST	SEGMENT
__real@3dcccccd DD 03dcccccdr			; 0.1
CONST	ENDS
;	COMDAT __real@3a83126f
CONST	SEGMENT
__real@3a83126f DD 03a83126fr			; 0.001
CONST	ENDS
;	COMDAT ??_R1A@?0A@EA@BerconNoiseDlgProc@@8
rdata$r	SEGMENT
??_R1A@?0A@EA@BerconNoiseDlgProc@@8 DD imagerel ??_R0?AVBerconNoiseDlgProc@@@8 ; BerconNoiseDlgProc::`RTTI Base Class Descriptor at (0,-1,0,64)'
	DD	02H
	DD	00H
	DD	0ffffffffH
	DD	00H
	DD	040H
	DD	imagerel ??_R3BerconNoiseDlgProc@@8
rdata$r	ENDS
;	COMDAT ??_R2BerconNoiseDlgProc@@8
rdata$r	SEGMENT
??_R2BerconNoiseDlgProc@@8 DD imagerel ??_R1A@?0A@EA@BerconNoiseDlgProc@@8 ; BerconNoiseDlgProc::`RTTI Base Class Array'
	DD	imagerel ??_R1A@?0A@EA@ParamMap2UserDlgProc@@8
	DD	imagerel ??_R17?0A@EA@MaxHeapOperators@@8
	ORG $+3
rdata$r	ENDS
;	COMDAT ??_R3BerconNoiseDlgProc@@8
rdata$r	SEGMENT
??_R3BerconNoiseDlgProc@@8 DD 00H			; BerconNoiseDlgProc::`RTTI Class Hierarchy Descriptor'
	DD	00H
	DD	03H
	DD	imagerel ??_R2BerconNoiseDlgProc@@8
rdata$r	ENDS
;	COMDAT ??_R0?AVBerconNoiseDlgProc@@@8
data$r	SEGMENT
??_R0?AVBerconNoiseDlgProc@@@8 DQ FLAT:??_7type_info@@6B@ ; BerconNoiseDlgProc `RTTI Type Descriptor'
	DQ	0000000000000000H
	DB	'.?AVBerconNoiseDlgProc@@', 00H
data$r	ENDS
;	COMDAT ??_R4BerconNoiseDlgProc@@6B@
rdata$r	SEGMENT
??_R4BerconNoiseDlgProc@@6B@ DD 01H			; BerconNoiseDlgProc::`RTTI Complete Object Locator'
	DD	00H
	DD	00H
	DD	imagerel ??_R0?AVBerconNoiseDlgProc@@@8
	DD	imagerel ??_R3BerconNoiseDlgProc@@8
	DD	imagerel ??_R4BerconNoiseDlgProc@@6B@
rdata$r	ENDS
;	COMDAT ??_R4BerconNoise@@6B@
rdata$r	SEGMENT
??_R4BerconNoise@@6B@ DD 01H				; BerconNoise::`RTTI Complete Object Locator'
	DD	090H
	DD	00H
	DD	imagerel ??_R0?AVBerconNoise@@@8
	DD	imagerel ??_R3BerconNoise@@8
	DD	imagerel ??_R4BerconNoise@@6B@
rdata$r	ENDS
;	COMDAT ??_R4BerconNoise@@6BISubMap@@@
rdata$r	SEGMENT
??_R4BerconNoise@@6BISubMap@@@ DD 01H			; BerconNoise::`RTTI Complete Object Locator'
	DD	040H
	DD	00H
	DD	imagerel ??_R0?AVBerconNoise@@@8
	DD	imagerel ??_R3BerconNoise@@8
	DD	imagerel ??_R4BerconNoise@@6BISubMap@@@
rdata$r	ENDS
;	COMDAT ??_R1JI@?0A@EC@MaxHeapOperators@@8
rdata$r	SEGMENT
??_R1JI@?0A@EC@MaxHeapOperators@@8 DD imagerel ??_R0?AVMaxHeapOperators@@@8 ; MaxHeapOperators::`RTTI Base Class Descriptor at (152,-1,0,66)'
	DD	00H
	DD	098H
	DD	0ffffffffH
	DD	00H
	DD	042H
	DD	imagerel ??_R3MaxHeapOperators@@8
rdata$r	ENDS
;	COMDAT ??_R1JA@?0A@EA@ResourceMakerCallback@@8
rdata$r	SEGMENT
??_R1JA@?0A@EA@ResourceMakerCallback@@8 DD imagerel ??_R0?AVResourceMakerCallback@@@8 ; ResourceMakerCallback::`RTTI Base Class Descriptor at (144,-1,0,64)'
	DD	01H
	DD	090H
	DD	0ffffffffH
	DD	00H
	DD	040H
	DD	imagerel ??_R3ResourceMakerCallback@@8
rdata$r	ENDS
;	COMDAT ??_R1EA@?0A@EA@ISubMap@@8
rdata$r	SEGMENT
??_R1EA@?0A@EA@ISubMap@@8 DD imagerel ??_R0?AVISubMap@@@8 ; ISubMap::`RTTI Base Class Descriptor at (64,-1,0,64)'
	DD	01H
	DD	040H
	DD	0ffffffffH
	DD	00H
	DD	040H
	DD	imagerel ??_R3ISubMap@@8
rdata$r	ENDS
;	COMDAT ??_R2MtlBase@@8
rdata$r	SEGMENT
??_R2MtlBase@@8 DD imagerel ??_R1A@?0A@EA@MtlBase@@8	; MtlBase::`RTTI Base Class Array'
	DD	imagerel ??_R1A@?0A@EA@ReferenceTarget@@8
	DD	imagerel ??_R1A@?0A@EA@ReferenceMaker@@8
	DD	imagerel ??_R1A@?0A@EA@Animatable@@8
	DD	imagerel ??_R1A@?0A@EA@InterfaceServer@@8
	DD	imagerel ??_R17?0A@EC@MaxHeapOperators@@8
	DD	imagerel ??_R18?0A@EA@Noncopyable@Util@MaxSDK@@8
	DD	imagerel ??_R18?0A@EC@MaxHeapOperators@@8
	DD	imagerel ??_R1EA@?0A@EA@ISubMap@@8
	DD	imagerel ??_R1EI@?0A@EC@MaxHeapOperators@@8
	ORG $+3
rdata$r	ENDS
;	COMDAT ??_R3MtlBase@@8
rdata$r	SEGMENT
??_R3MtlBase@@8 DD 00H					; MtlBase::`RTTI Class Hierarchy Descriptor'
	DD	01H
	DD	0aH
	DD	imagerel ??_R2MtlBase@@8
rdata$r	ENDS
;	COMDAT ??_R0?AVMtlBase@@@8
data$r	SEGMENT
??_R0?AVMtlBase@@@8 DQ FLAT:??_7type_info@@6B@		; MtlBase `RTTI Type Descriptor'
	DQ	0000000000000000H
	DB	'.?AVMtlBase@@', 00H
data$r	ENDS
;	COMDAT ??_R1A@?0A@EA@MtlBase@@8
rdata$r	SEGMENT
??_R1A@?0A@EA@MtlBase@@8 DD imagerel ??_R0?AVMtlBase@@@8 ; MtlBase::`RTTI Base Class Descriptor at (0,-1,0,64)'
	DD	09H
	DD	00H
	DD	0ffffffffH
	DD	00H
	DD	040H
	DD	imagerel ??_R3MtlBase@@8
rdata$r	ENDS
;	COMDAT ??_R2Texmap@@8
rdata$r	SEGMENT
??_R2Texmap@@8 DD imagerel ??_R1A@?0A@EA@Texmap@@8	; Texmap::`RTTI Base Class Array'
	DD	imagerel ??_R1A@?0A@EA@MtlBase@@8
	DD	imagerel ??_R1A@?0A@EA@ReferenceTarget@@8
	DD	imagerel ??_R1A@?0A@EA@ReferenceMaker@@8
	DD	imagerel ??_R1A@?0A@EA@Animatable@@8
	DD	imagerel ??_R1A@?0A@EA@InterfaceServer@@8
	DD	imagerel ??_R17?0A@EC@MaxHeapOperators@@8
	DD	imagerel ??_R18?0A@EA@Noncopyable@Util@MaxSDK@@8
	DD	imagerel ??_R18?0A@EC@MaxHeapOperators@@8
	DD	imagerel ??_R1EA@?0A@EA@ISubMap@@8
	DD	imagerel ??_R1EI@?0A@EC@MaxHeapOperators@@8
	ORG $+3
rdata$r	ENDS
;	COMDAT ??_R3Texmap@@8
rdata$r	SEGMENT
??_R3Texmap@@8 DD 00H					; Texmap::`RTTI Class Hierarchy Descriptor'
	DD	01H
	DD	0bH
	DD	imagerel ??_R2Texmap@@8
rdata$r	ENDS
;	COMDAT ??_R0?AVTexmap@@@8
data$r	SEGMENT
??_R0?AVTexmap@@@8 DQ FLAT:??_7type_info@@6B@		; Texmap `RTTI Type Descriptor'
	DQ	0000000000000000H
	DB	'.?AVTexmap@@', 00H
data$r	ENDS
;	COMDAT ??_R1A@?0A@EA@Texmap@@8
rdata$r	SEGMENT
??_R1A@?0A@EA@Texmap@@8 DD imagerel ??_R0?AVTexmap@@@8	; Texmap::`RTTI Base Class Descriptor at (0,-1,0,64)'
	DD	0aH
	DD	00H
	DD	0ffffffffH
	DD	00H
	DD	040H
	DD	imagerel ??_R3Texmap@@8
rdata$r	ENDS
;	COMDAT ??_R1A@?0A@EA@BerconNoise@@8
rdata$r	SEGMENT
??_R1A@?0A@EA@BerconNoise@@8 DD imagerel ??_R0?AVBerconNoise@@@8 ; BerconNoise::`RTTI Base Class Descriptor at (0,-1,0,64)'
	DD	0dH
	DD	00H
	DD	0ffffffffH
	DD	00H
	DD	040H
	DD	imagerel ??_R3BerconNoise@@8
rdata$r	ENDS
;	COMDAT ??_R2BerconNoise@@8
rdata$r	SEGMENT
??_R2BerconNoise@@8 DD imagerel ??_R1A@?0A@EA@BerconNoise@@8 ; BerconNoise::`RTTI Base Class Array'
	DD	imagerel ??_R1A@?0A@EA@Texmap@@8
	DD	imagerel ??_R1A@?0A@EA@MtlBase@@8
	DD	imagerel ??_R1A@?0A@EA@ReferenceTarget@@8
	DD	imagerel ??_R1A@?0A@EA@ReferenceMaker@@8
	DD	imagerel ??_R1A@?0A@EA@Animatable@@8
	DD	imagerel ??_R1A@?0A@EA@InterfaceServer@@8
	DD	imagerel ??_R17?0A@EC@MaxHeapOperators@@8
	DD	imagerel ??_R18?0A@EA@Noncopyable@Util@MaxSDK@@8
	DD	imagerel ??_R18?0A@EC@MaxHeapOperators@@8
	DD	imagerel ??_R1EA@?0A@EA@ISubMap@@8
	DD	imagerel ??_R1EI@?0A@EC@MaxHeapOperators@@8
	DD	imagerel ??_R1JA@?0A@EA@ResourceMakerCallback@@8
	DD	imagerel ??_R1JI@?0A@EC@MaxHeapOperators@@8
	ORG $+3
rdata$r	ENDS
;	COMDAT ??_R3BerconNoise@@8
rdata$r	SEGMENT
??_R3BerconNoise@@8 DD 00H				; BerconNoise::`RTTI Class Hierarchy Descriptor'
	DD	05H
	DD	0eH
	DD	imagerel ??_R2BerconNoise@@8
rdata$r	ENDS
;	COMDAT ??_R0?AVBerconNoise@@@8
data$r	SEGMENT
??_R0?AVBerconNoise@@@8 DQ FLAT:??_7type_info@@6B@	; BerconNoise `RTTI Type Descriptor'
	DQ	0000000000000000H
	DB	'.?AVBerconNoise@@', 00H
data$r	ENDS
;	COMDAT ??_R4BerconNoise@@6BReferenceTarget@@@
rdata$r	SEGMENT
??_R4BerconNoise@@6BReferenceTarget@@@ DD 01H		; BerconNoise::`RTTI Complete Object Locator'
	DD	00H
	DD	00H
	DD	imagerel ??_R0?AVBerconNoise@@@8
	DD	imagerel ??_R3BerconNoise@@8
	DD	imagerel ??_R4BerconNoise@@6BReferenceTarget@@@
rdata$r	ENDS
;	COMDAT ??_R1A@?0A@EA@BerconXYZDlgProc@@8
rdata$r	SEGMENT
??_R1A@?0A@EA@BerconXYZDlgProc@@8 DD imagerel ??_R0?AVBerconXYZDlgProc@@@8 ; BerconXYZDlgProc::`RTTI Base Class Descriptor at (0,-1,0,64)'
	DD	02H
	DD	00H
	DD	0ffffffffH
	DD	00H
	DD	040H
	DD	imagerel ??_R3BerconXYZDlgProc@@8
rdata$r	ENDS
;	COMDAT ??_R2BerconXYZDlgProc@@8
rdata$r	SEGMENT
??_R2BerconXYZDlgProc@@8 DD imagerel ??_R1A@?0A@EA@BerconXYZDlgProc@@8 ; BerconXYZDlgProc::`RTTI Base Class Array'
	DD	imagerel ??_R1A@?0A@EA@ParamMap2UserDlgProc@@8
	DD	imagerel ??_R17?0A@EA@MaxHeapOperators@@8
	ORG $+3
rdata$r	ENDS
;	COMDAT ??_R3BerconXYZDlgProc@@8
rdata$r	SEGMENT
??_R3BerconXYZDlgProc@@8 DD 00H				; BerconXYZDlgProc::`RTTI Class Hierarchy Descriptor'
	DD	00H
	DD	03H
	DD	imagerel ??_R2BerconXYZDlgProc@@8
rdata$r	ENDS
;	COMDAT ??_R0?AVBerconXYZDlgProc@@@8
data$r	SEGMENT
??_R0?AVBerconXYZDlgProc@@@8 DQ FLAT:??_7type_info@@6B@	; BerconXYZDlgProc `RTTI Type Descriptor'
	DQ	0000000000000000H
	DB	'.?AVBerconXYZDlgProc@@', 00H
data$r	ENDS
;	COMDAT ??_R4BerconXYZDlgProc@@6B@
rdata$r	SEGMENT
??_R4BerconXYZDlgProc@@6B@ DD 01H			; BerconXYZDlgProc::`RTTI Complete Object Locator'
	DD	00H
	DD	00H
	DD	imagerel ??_R0?AVBerconXYZDlgProc@@@8
	DD	imagerel ??_R3BerconXYZDlgProc@@8
	DD	imagerel ??_R4BerconXYZDlgProc@@6B@
rdata$r	ENDS
;	COMDAT ??_R1A@?0A@EA@ResourceMakerCallback@@8
rdata$r	SEGMENT
??_R1A@?0A@EA@ResourceMakerCallback@@8 DD imagerel ??_R0?AVResourceMakerCallback@@@8 ; ResourceMakerCallback::`RTTI Base Class Descriptor at (0,-1,0,64)'
	DD	01H
	DD	00H
	DD	0ffffffffH
	DD	00H
	DD	040H
	DD	imagerel ??_R3ResourceMakerCallback@@8
rdata$r	ENDS
;	COMDAT ??_R2ResourceMakerCallback@@8
rdata$r	SEGMENT
??_R2ResourceMakerCallback@@8 DD imagerel ??_R1A@?0A@EA@ResourceMakerCallback@@8 ; ResourceMakerCallback::`RTTI Base Class Array'
	DD	imagerel ??_R17?0A@EA@MaxHeapOperators@@8
	ORG $+3
rdata$r	ENDS
;	COMDAT ??_R3ResourceMakerCallback@@8
rdata$r	SEGMENT
??_R3ResourceMakerCallback@@8 DD 00H			; ResourceMakerCallback::`RTTI Class Hierarchy Descriptor'
	DD	00H
	DD	02H
	DD	imagerel ??_R2ResourceMakerCallback@@8
rdata$r	ENDS
;	COMDAT ??_R0?AVResourceMakerCallback@@@8
data$r	SEGMENT
??_R0?AVResourceMakerCallback@@@8 DQ FLAT:??_7type_info@@6B@ ; ResourceMakerCallback `RTTI Type Descriptor'
	DQ	0000000000000000H
	DB	'.?AVResourceMakerCallback@@', 00H
data$r	ENDS
;	COMDAT ??_R4ResourceMakerCallback@@6B@
rdata$r	SEGMENT
??_R4ResourceMakerCallback@@6B@ DD 01H			; ResourceMakerCallback::`RTTI Complete Object Locator'
	DD	00H
	DD	00H
	DD	imagerel ??_R0?AVResourceMakerCallback@@@8
	DD	imagerel ??_R3ResourceMakerCallback@@8
	DD	imagerel ??_R4ResourceMakerCallback@@6B@
rdata$r	ENDS
;	COMDAT ??_R1A@?0A@EA@ISubMap@@8
rdata$r	SEGMENT
??_R1A@?0A@EA@ISubMap@@8 DD imagerel ??_R0?AVISubMap@@@8 ; ISubMap::`RTTI Base Class Descriptor at (0,-1,0,64)'
	DD	01H
	DD	00H
	DD	0ffffffffH
	DD	00H
	DD	040H
	DD	imagerel ??_R3ISubMap@@8
rdata$r	ENDS
;	COMDAT ??_R2ISubMap@@8
rdata$r	SEGMENT
??_R2ISubMap@@8 DD imagerel ??_R1A@?0A@EA@ISubMap@@8	; ISubMap::`RTTI Base Class Array'
	DD	imagerel ??_R17?0A@EA@MaxHeapOperators@@8
	ORG $+3
rdata$r	ENDS
;	COMDAT ??_R3ISubMap@@8
rdata$r	SEGMENT
??_R3ISubMap@@8 DD 00H					; ISubMap::`RTTI Class Hierarchy Descriptor'
	DD	00H
	DD	02H
	DD	imagerel ??_R2ISubMap@@8
rdata$r	ENDS
;	COMDAT ??_R0?AVISubMap@@@8
data$r	SEGMENT
??_R0?AVISubMap@@@8 DQ FLAT:??_7type_info@@6B@		; ISubMap `RTTI Type Descriptor'
	DQ	0000000000000000H
	DB	'.?AVISubMap@@', 00H
data$r	ENDS
;	COMDAT ??_R1A@?0A@EA@ParamMap2UserDlgProc@@8
rdata$r	SEGMENT
??_R1A@?0A@EA@ParamMap2UserDlgProc@@8 DD imagerel ??_R0?AVParamMap2UserDlgProc@@@8 ; ParamMap2UserDlgProc::`RTTI Base Class Descriptor at (0,-1,0,64)'
	DD	01H
	DD	00H
	DD	0ffffffffH
	DD	00H
	DD	040H
	DD	imagerel ??_R3ParamMap2UserDlgProc@@8
rdata$r	ENDS
;	COMDAT ??_R2ParamMap2UserDlgProc@@8
rdata$r	SEGMENT
??_R2ParamMap2UserDlgProc@@8 DD imagerel ??_R1A@?0A@EA@ParamMap2UserDlgProc@@8 ; ParamMap2UserDlgProc::`RTTI Base Class Array'
	DD	imagerel ??_R17?0A@EA@MaxHeapOperators@@8
	ORG $+3
rdata$r	ENDS
;	COMDAT ??_R3ParamMap2UserDlgProc@@8
rdata$r	SEGMENT
??_R3ParamMap2UserDlgProc@@8 DD 00H			; ParamMap2UserDlgProc::`RTTI Class Hierarchy Descriptor'
	DD	00H
	DD	02H
	DD	imagerel ??_R2ParamMap2UserDlgProc@@8
rdata$r	ENDS
;	COMDAT ??_R0?AVParamMap2UserDlgProc@@@8
data$r	SEGMENT
??_R0?AVParamMap2UserDlgProc@@@8 DQ FLAT:??_7type_info@@6B@ ; ParamMap2UserDlgProc `RTTI Type Descriptor'
	DQ	0000000000000000H
	DB	'.?AVParamMap2UserDlgProc@@', 00H
data$r	ENDS
;	COMDAT ??_R4ParamMap2UserDlgProc@@6B@
rdata$r	SEGMENT
??_R4ParamMap2UserDlgProc@@6B@ DD 01H			; ParamMap2UserDlgProc::`RTTI Complete Object Locator'
	DD	00H
	DD	00H
	DD	imagerel ??_R0?AVParamMap2UserDlgProc@@@8
	DD	imagerel ??_R3ParamMap2UserDlgProc@@8
	DD	imagerel ??_R4ParamMap2UserDlgProc@@6B@
rdata$r	ENDS
;	COMDAT ??_R1EI@?0A@EC@MaxHeapOperators@@8
rdata$r	SEGMENT
??_R1EI@?0A@EC@MaxHeapOperators@@8 DD imagerel ??_R0?AVMaxHeapOperators@@@8 ; MaxHeapOperators::`RTTI Base Class Descriptor at (72,-1,0,66)'
	DD	00H
	DD	048H
	DD	0ffffffffH
	DD	00H
	DD	042H
	DD	imagerel ??_R3MaxHeapOperators@@8
rdata$r	ENDS
;	COMDAT ??_R18?0A@EC@MaxHeapOperators@@8
rdata$r	SEGMENT
??_R18?0A@EC@MaxHeapOperators@@8 DD imagerel ??_R0?AVMaxHeapOperators@@@8 ; MaxHeapOperators::`RTTI Base Class Descriptor at (9,-1,0,66)'
	DD	00H
	DD	09H
	DD	0ffffffffH
	DD	00H
	DD	042H
	DD	imagerel ??_R3MaxHeapOperators@@8
rdata$r	ENDS
;	COMDAT ??_R1A@?0A@EA@Noncopyable@Util@MaxSDK@@8
rdata$r	SEGMENT
??_R1A@?0A@EA@Noncopyable@Util@MaxSDK@@8 DD imagerel ??_R0?AVNoncopyable@Util@MaxSDK@@@8 ; MaxSDK::Util::Noncopyable::`RTTI Base Class Descriptor at (0,-1,0,64)'
	DD	01H
	DD	00H
	DD	0ffffffffH
	DD	00H
	DD	040H
	DD	imagerel ??_R3Noncopyable@Util@MaxSDK@@8
rdata$r	ENDS
;	COMDAT ??_R2Noncopyable@Util@MaxSDK@@8
rdata$r	SEGMENT
??_R2Noncopyable@Util@MaxSDK@@8 DD imagerel ??_R1A@?0A@EA@Noncopyable@Util@MaxSDK@@8 ; MaxSDK::Util::Noncopyable::`RTTI Base Class Array'
	DD	imagerel ??_R1A@?0A@EA@MaxHeapOperators@@8
	ORG $+3
rdata$r	ENDS
;	COMDAT ??_R3Noncopyable@Util@MaxSDK@@8
rdata$r	SEGMENT
??_R3Noncopyable@Util@MaxSDK@@8 DD 00H			; MaxSDK::Util::Noncopyable::`RTTI Class Hierarchy Descriptor'
	DD	00H
	DD	02H
	DD	imagerel ??_R2Noncopyable@Util@MaxSDK@@8
rdata$r	ENDS
;	COMDAT ??_R0?AVNoncopyable@Util@MaxSDK@@@8
data$r	SEGMENT
??_R0?AVNoncopyable@Util@MaxSDK@@@8 DQ FLAT:??_7type_info@@6B@ ; MaxSDK::Util::Noncopyable `RTTI Type Descriptor'
	DQ	0000000000000000H
	DB	'.?AVNoncopyable@Util@MaxSDK@@', 00H
data$r	ENDS
;	COMDAT ??_R18?0A@EA@Noncopyable@Util@MaxSDK@@8
rdata$r	SEGMENT
??_R18?0A@EA@Noncopyable@Util@MaxSDK@@8 DD imagerel ??_R0?AVNoncopyable@Util@MaxSDK@@@8 ; MaxSDK::Util::Noncopyable::`RTTI Base Class Descriptor at (9,-1,0,64)'
	DD	01H
	DD	09H
	DD	0ffffffffH
	DD	00H
	DD	040H
	DD	imagerel ??_R3Noncopyable@Util@MaxSDK@@8
rdata$r	ENDS
;	COMDAT ??_R17?0A@EC@MaxHeapOperators@@8
rdata$r	SEGMENT
??_R17?0A@EC@MaxHeapOperators@@8 DD imagerel ??_R0?AVMaxHeapOperators@@@8 ; MaxHeapOperators::`RTTI Base Class Descriptor at (8,-1,0,66)'
	DD	00H
	DD	08H
	DD	0ffffffffH
	DD	00H
	DD	042H
	DD	imagerel ??_R3MaxHeapOperators@@8
rdata$r	ENDS
;	COMDAT ??_R2Animatable@@8
rdata$r	SEGMENT
??_R2Animatable@@8 DD imagerel ??_R1A@?0A@EA@Animatable@@8 ; Animatable::`RTTI Base Class Array'
	DD	imagerel ??_R1A@?0A@EA@InterfaceServer@@8
	DD	imagerel ??_R17?0A@EC@MaxHeapOperators@@8
	DD	imagerel ??_R18?0A@EA@Noncopyable@Util@MaxSDK@@8
	DD	imagerel ??_R18?0A@EC@MaxHeapOperators@@8
	ORG $+3
rdata$r	ENDS
;	COMDAT ??_R3Animatable@@8
rdata$r	SEGMENT
??_R3Animatable@@8 DD 00H				; Animatable::`RTTI Class Hierarchy Descriptor'
	DD	05H
	DD	05H
	DD	imagerel ??_R2Animatable@@8
rdata$r	ENDS
;	COMDAT ??_R0?AVAnimatable@@@8
data$r	SEGMENT
??_R0?AVAnimatable@@@8 DQ FLAT:??_7type_info@@6B@	; Animatable `RTTI Type Descriptor'
	DQ	0000000000000000H
	DB	'.?AVAnimatable@@', 00H
data$r	ENDS
;	COMDAT ??_R1A@?0A@EA@Animatable@@8
rdata$r	SEGMENT
??_R1A@?0A@EA@Animatable@@8 DD imagerel ??_R0?AVAnimatable@@@8 ; Animatable::`RTTI Base Class Descriptor at (0,-1,0,64)'
	DD	04H
	DD	00H
	DD	0ffffffffH
	DD	00H
	DD	040H
	DD	imagerel ??_R3Animatable@@8
rdata$r	ENDS
;	COMDAT ??_R2ReferenceMaker@@8
rdata$r	SEGMENT
??_R2ReferenceMaker@@8 DD imagerel ??_R1A@?0A@EA@ReferenceMaker@@8 ; ReferenceMaker::`RTTI Base Class Array'
	DD	imagerel ??_R1A@?0A@EA@Animatable@@8
	DD	imagerel ??_R1A@?0A@EA@InterfaceServer@@8
	DD	imagerel ??_R17?0A@EC@MaxHeapOperators@@8
	DD	imagerel ??_R18?0A@EA@Noncopyable@Util@MaxSDK@@8
	DD	imagerel ??_R18?0A@EC@MaxHeapOperators@@8
	ORG $+3
rdata$r	ENDS
;	COMDAT ??_R3ReferenceMaker@@8
rdata$r	SEGMENT
??_R3ReferenceMaker@@8 DD 00H				; ReferenceMaker::`RTTI Class Hierarchy Descriptor'
	DD	01H
	DD	06H
	DD	imagerel ??_R2ReferenceMaker@@8
rdata$r	ENDS
;	COMDAT ??_R0?AVReferenceMaker@@@8
data$r	SEGMENT
??_R0?AVReferenceMaker@@@8 DQ FLAT:??_7type_info@@6B@	; ReferenceMaker `RTTI Type Descriptor'
	DQ	0000000000000000H
	DB	'.?AVReferenceMaker@@', 00H
data$r	ENDS
;	COMDAT ??_R1A@?0A@EA@ReferenceMaker@@8
rdata$r	SEGMENT
??_R1A@?0A@EA@ReferenceMaker@@8 DD imagerel ??_R0?AVReferenceMaker@@@8 ; ReferenceMaker::`RTTI Base Class Descriptor at (0,-1,0,64)'
	DD	05H
	DD	00H
	DD	0ffffffffH
	DD	00H
	DD	040H
	DD	imagerel ??_R3ReferenceMaker@@8
rdata$r	ENDS
;	COMDAT ??_R2ReferenceTarget@@8
rdata$r	SEGMENT
??_R2ReferenceTarget@@8 DD imagerel ??_R1A@?0A@EA@ReferenceTarget@@8 ; ReferenceTarget::`RTTI Base Class Array'
	DD	imagerel ??_R1A@?0A@EA@ReferenceMaker@@8
	DD	imagerel ??_R1A@?0A@EA@Animatable@@8
	DD	imagerel ??_R1A@?0A@EA@InterfaceServer@@8
	DD	imagerel ??_R17?0A@EC@MaxHeapOperators@@8
	DD	imagerel ??_R18?0A@EA@Noncopyable@Util@MaxSDK@@8
	DD	imagerel ??_R18?0A@EC@MaxHeapOperators@@8
	ORG $+3
rdata$r	ENDS
;	COMDAT ??_R3ReferenceTarget@@8
rdata$r	SEGMENT
??_R3ReferenceTarget@@8 DD 00H				; ReferenceTarget::`RTTI Class Hierarchy Descriptor'
	DD	01H
	DD	07H
	DD	imagerel ??_R2ReferenceTarget@@8
rdata$r	ENDS
;	COMDAT ??_R0?AVReferenceTarget@@@8
data$r	SEGMENT
??_R0?AVReferenceTarget@@@8 DQ FLAT:??_7type_info@@6B@	; ReferenceTarget `RTTI Type Descriptor'
	DQ	0000000000000000H
	DB	'.?AVReferenceTarget@@', 00H
data$r	ENDS
;	COMDAT ??_R1A@?0A@EA@ReferenceTarget@@8
rdata$r	SEGMENT
??_R1A@?0A@EA@ReferenceTarget@@8 DD imagerel ??_R0?AVReferenceTarget@@@8 ; ReferenceTarget::`RTTI Base Class Descriptor at (0,-1,0,64)'
	DD	06H
	DD	00H
	DD	0ffffffffH
	DD	00H
	DD	040H
	DD	imagerel ??_R3ReferenceTarget@@8
rdata$r	ENDS
;	COMDAT ??_C@_1GC@JFMJJLAB@?$AAg?$AA?3?$AA?2?$AAd?$AAr?$AAo?$AAp?$AAb?$AAo?$AAx?$AA?2?$AAg?$AAi?$AAt?$AAh@
CONST	SEGMENT
??_C@_1GC@JFMJJLAB@?$AAg?$AA?3?$AA?2?$AAd?$AAr?$AAo?$AAp?$AAb?$AAo?$AAx?$AA?2?$AAg?$AAi?$AAt?$AAh@ DB 'g'
	DB	00H, ':', 00H, '\', 00H, 'd', 00H, 'r', 00H, 'o', 00H, 'p', 00H
	DB	'b', 00H, 'o', 00H, 'x', 00H, '\', 00H, 'g', 00H, 'i', 00H, 't'
	DB	00H, 'h', 00H, 'u', 00H, 'b', 00H, '\', 00H, 'b', 00H, 'e', 00H
	DB	'r', 00H, 'c', 00H, 'o', 00H, 'n', 00H, 'm', 00H, 'a', 00H, 'p'
	DB	00H, 's', 00H, '\', 00H, 's', 00H, 'r', 00H, 'c', 00H, '\', 00H
	DB	'b', 00H, 'e', 00H, 'r', 00H, 'c', 00H, 'o', 00H, 'n', 00H, 'n'
	DB	00H, 'o', 00H, 'i', 00H, 's', 00H, 'e', 00H, '.', 00H, 'c', 00H
	DB	'p', 00H, 'p', 00H, 00H, 00H			; `string'
CONST	ENDS
;	COMDAT ??_C@_1CG@JEPHKPPG@?$AAB?$AAe?$AAr?$AAc?$AAo?$AAn?$AAN?$AAo?$AAi?$AAs?$AAe?$AA?3?$AA?3?$AAR?$AAe@
CONST	SEGMENT
??_C@_1CG@JEPHKPPG@?$AAB?$AAe?$AAr?$AAc?$AAo?$AAn?$AAN?$AAo?$AAi?$AAs?$AAe?$AA?3?$AA?3?$AAR?$AAe@ DB 'B'
	DB	00H, 'e', 00H, 'r', 00H, 'c', 00H, 'o', 00H, 'n', 00H, 'N', 00H
	DB	'o', 00H, 'i', 00H, 's', 00H, 'e', 00H, ':', 00H, ':', 00H, 'R'
	DB	00H, 'e', 00H, 's', 00H, 'e', 00H, 't', 00H, 00H, 00H ; `string'
CONST	ENDS
;	COMDAT ??_7BerconNoiseDlgProc@@6B@
CONST	SEGMENT
??_7BerconNoiseDlgProc@@6B@ DQ FLAT:??_R4BerconNoiseDlgProc@@6B@ ; BerconNoiseDlgProc::`vftable'
	DQ	FLAT:??_EBerconNoiseDlgProc@@UEAAPEAXI@Z
	DQ	FLAT:?DlgProc@BerconNoiseDlgProc@@UEAA_JHPEAVIParamMap2@@PEAUHWND__@@I_K_J@Z
	DQ	FLAT:?DeleteThis@BerconNoiseDlgProc@@UEAAXXZ
	DQ	FLAT:?SetThing@BerconNoiseDlgProc@@UEAAXPEAVReferenceTarget@@@Z
	DQ	FLAT:?Update@ParamMap2UserDlgProc@@UEAAXHAEAVInterval@@PEAVIParamMap2@@@Z
	DQ	FLAT:?Update@ParamMap2UserDlgProc@@UEAAXH@Z
	DQ	FLAT:?SetParamBlock@ParamMap2UserDlgProc@@UEAAXPEAVIParamBlock2@@@Z
CONST	ENDS
;	COMDAT ??_7BerconNoise@@6B@
CONST	SEGMENT
??_7BerconNoise@@6B@ DQ FLAT:??_R4BerconNoise@@6B@	; BerconNoise::`vftable'
	DQ	FLAT:?SetCustomImageList@ResourceMakerCallback@@UEAAHAEAPEAU_IMAGELIST@@PEAVICurveCtl@@@Z
	DQ	FLAT:?GetToolTip@ResourceMakerCallback@@UEAAHHAEAVWStr@@PEAVICurveCtl@@@Z
	DQ	FLAT:?ResetCallback@ResourceMakerCallback@@UEAAXHPEAVICurveCtl@@@Z
	DQ	FLAT:?NewCurveCreatedCallback@ResourceMakerCallback@@UEAAXHPEAVICurveCtl@@@Z
	DQ	FLAT:?GetInterface@BerconNoise@@WJA@EAAPEAXK@Z
CONST	ENDS
;	COMDAT ??_7BerconNoise@@6BISubMap@@@
CONST	SEGMENT
??_7BerconNoise@@6BISubMap@@@ DQ FLAT:??_R4BerconNoise@@6BISubMap@@@ ; BerconNoise::`vftable'
	DQ	FLAT:??_EBerconNoise@@WEA@EAAPEAXI@Z
	DQ	FLAT:?NumSubTexmaps@BerconNoise@@UEAAHXZ
	DQ	FLAT:?GetSubTexmap@BerconNoise@@UEAAPEAVTexmap@@H@Z
	DQ	FLAT:?MapSlotType@Texmap@@UEAAHH@Z
	DQ	FLAT:?SetSubTexmap@BerconNoise@@UEAAXHPEAVTexmap@@@Z
	DQ	FLAT:?SubTexmapOn@ISubMap@@UEAAHH@Z
	DQ	FLAT:?GetSubTexmapSlotName@BerconNoise@@UEAA?AVWStr@@H@Z
	DQ	FLAT:?SetDlgThing@BerconNoise@@UEAAHPEAVParamDlg@@@Z
	DQ	FLAT:?GetRefTarget@MtlBase@@UEAAPEAVReferenceTarget@@XZ
CONST	ENDS
;	COMDAT ??_7BerconNoise@@6BReferenceTarget@@@
CONST	SEGMENT
??_7BerconNoise@@6BReferenceTarget@@@ DQ FLAT:??_R4BerconNoise@@6BReferenceTarget@@@ ; BerconNoise::`vftable'
	DQ	FLAT:??_EBerconNoise@@UEAAPEAXI@Z
	DQ	FLAT:?GetInterface@MtlBase@@UEAAPEAVBaseInterface@@VInterface_ID@@@Z
	DQ	FLAT:?DeleteThis@BerconNoise@@UEAAXXZ
	DQ	FLAT:?GetClassName@BerconNoise@@UEAAXAEAVWStr@@@Z
	DQ	FLAT:?SuperClassID@BerconNoise@@UEAAKXZ
	DQ	FLAT:?ClassID@BerconNoise@@UEAA?AVClass_ID@@XZ
	DQ	FLAT:?FreeCaches@Animatable@@UEAAXXZ
	DQ	FLAT:?BeginEditParams@Animatable@@UEAAXPEAVIObjParam@@KPEAV1@@Z
	DQ	FLAT:?EndEditParams@Animatable@@UEAAXPEAVIObjParam@@KPEAV1@@Z
	DQ	FLAT:?GetInterface@BerconNoise@@UEAAPEAXK@Z
	DQ	FLAT:?ReleaseInterface@Animatable@@UEAAXKPEAX@Z
	DQ	FLAT:?SetProperty@MtlBase@@UEAAHKPEAX@Z
	DQ	FLAT:?GetProperty@MtlBase@@UEAAPEAXK@Z
	DQ	FLAT:?NumSubs@BerconNoise@@UEAAHXZ
	DQ	FLAT:?SubAnim@BerconNoise@@UEAAPEAVAnimatable@@H@Z
	DQ	FLAT:?SubAnimName@BerconNoise@@UEAA?AVWStr@@H@Z
	DQ	FLAT:?BypassTreeView@Animatable@@UEAAHXZ
	DQ	FLAT:?BypassTrackBar@Animatable@@UEAAHXZ
	DQ	FLAT:?BypassPropertyLevel@Animatable@@UEAAHXZ
	DQ	FLAT:?InvisibleProperty@Animatable@@UEAAHXZ
	DQ	FLAT:?AssignController@Animatable@@UEAAHPEAV1@H@Z
	DQ	FLAT:?CanAssignController@Animatable@@UEAAHH@Z
	DQ	FLAT:?CanDeleteSubAnim@Animatable@@UEAAHH@Z
	DQ	FLAT:?DeleteSubAnim@Animatable@@UEAAXH@Z
	DQ	FLAT:?GetSubAnimCurveColor@Animatable@@UEAAKH@Z
	DQ	FLAT:?SubNumToRefNum@BerconNoise@@UEAAHH@Z
	DQ	FLAT:?CanCopyAnim@Animatable@@UEAAHXZ
	DQ	FLAT:?CanMakeUnique@Animatable@@UEAAHXZ
	DQ	FLAT:?NumChildren@Animatable@@UEAAHXZ
	DQ	FLAT:?ChildAnim@Animatable@@UEAAPEAV1@H@Z
	DQ	FLAT:?NodeName@Animatable@@UEAA?AVWStr@@XZ
	DQ	FLAT:?RenderBegin@Animatable@@UEAAHHK@Z
	DQ	FLAT:?RenderEnd@Animatable@@UEAAHH@Z
	DQ	FLAT:?EditTrack@Animatable@@UEAAXXZ
	DQ	FLAT:?NumKeys@Animatable@@UEAAHXZ
	DQ	FLAT:?GetKeyTime@Animatable@@UEAAHH@Z
	DQ	FLAT:?GetKeyIndex@Animatable@@UEAAHH@Z
	DQ	FLAT:?GetNextKeyTime@Animatable@@UEAAHHKAEAH@Z
	DQ	FLAT:?CopyKeysFromTime@Animatable@@UEAAXHHK@Z
	DQ	FLAT:?DeleteKeyAtTime@Animatable@@UEAAXH@Z
	DQ	FLAT:?IsKeyAtTime@Animatable@@UEAAHHK@Z
	DQ	FLAT:?GetKeyTimes@Animatable@@UEAAHAEAV?$Tab@H@@VInterval@@K@Z
	DQ	FLAT:?GetKeySelState@Animatable@@UEAAHAEAVBitArray@@VInterval@@K@Z
	DQ	FLAT:?GetTimeRange@Animatable@@UEAA?AVInterval@@K@Z
	DQ	FLAT:?EditTimeRange@Animatable@@UEAAXVInterval@@K@Z
	DQ	FLAT:?DeleteTime@Animatable@@UEAAXVInterval@@K@Z
	DQ	FLAT:?ReverseTime@Animatable@@UEAAXVInterval@@K@Z
	DQ	FLAT:?ScaleTime@Animatable@@UEAAXVInterval@@M@Z
	DQ	FLAT:?InsertTime@Animatable@@UEAAXHH@Z
	DQ	FLAT:?SupportTimeOperations@Animatable@@UEAAHXZ
	DQ	FLAT:?MapKeys@Animatable@@UEAAXPEAVTimeMap@@K@Z
	DQ	FLAT:?DeleteKeys@Animatable@@UEAAXK@Z
	DQ	FLAT:?DeleteKeyByIndex@Animatable@@UEAAXH@Z
	DQ	FLAT:?SelectKeys@Animatable@@UEAAXAEAV?$Tab@VTrackHitRecord@@@@K@Z
	DQ	FLAT:?SelectSubKeys@Animatable@@UEAAXHAEAV?$Tab@VTrackHitRecord@@@@K@Z
	DQ	FLAT:?SelectSubCurve@Animatable@@UEAAXHH@Z
	DQ	FLAT:?SelectKeyByIndex@Animatable@@UEAAXHH@Z
	DQ	FLAT:?IsKeySelected@Animatable@@UEAAHH@Z
	DQ	FLAT:?FlagKey@Animatable@@UEAAXVTrackHitRecord@@@Z
	DQ	FLAT:?GetFlagKeyIndex@Animatable@@UEAAHXZ
	DQ	FLAT:?NumSelKeys@Animatable@@UEAAHXZ
	DQ	FLAT:?CloneSelectedKeys@Animatable@@UEAAXH@Z
	DQ	FLAT:?AddNewKey@Animatable@@UEAAXHK@Z
	DQ	FLAT:?MoveKeys@Animatable@@UEAAXPEAVParamDimensionBase@@MK@Z
	DQ	FLAT:?ScaleKeyValues@Animatable@@UEAAXPEAVParamDimensionBase@@MMK@Z
	DQ	FLAT:?SelectCurve@Animatable@@UEAAXH@Z
	DQ	FLAT:?IsCurveSelected@Animatable@@UEAAHXZ
	DQ	FLAT:?IsSubCurveSelected@Animatable@@UEAAHH@Z
	DQ	FLAT:?GetSelKeyCoords@Animatable@@UEAAHAEAHAEAMK@Z
	DQ	FLAT:?SetSelKeyCoords@Animatable@@UEAAXHMK@Z
	DQ	FLAT:?SetSelKeyCoordsExpr@Animatable@@UEAAHPEAVParamDimension@@PEB_W1K@Z
	DQ	FLAT:?AdjustTangents@Animatable@@UEAAXVTrackHitRecord@@PEAVParamDimensionBase@@MMK@Z
	DQ	FLAT:?AdjustTangents@Animatable@@UEAAXVTrackHitRecord@@PEAVParamDimensionBase@@AEAVBox2@@MHMHHHK@Z
	DQ	FLAT:?SubAnimSetKeyBufferPresent@Animatable@@UEAAHH@Z
	DQ	FLAT:?SetKeyBufferPresent@Animatable@@UEAAHXZ
	DQ	FLAT:?SubAnimCommitSetKeyBuffer@Animatable@@UEAAXHH@Z
	DQ	FLAT:?CommitSetKeyBuffer@Animatable@@UEAAXH@Z
	DQ	FLAT:?SubAnimRevertSetKeyBuffer@Animatable@@UEAAXH@Z
	DQ	FLAT:?RevertSetKeyBuffer@Animatable@@UEAAXXZ
	DQ	FLAT:?IsAnimated@Animatable@@UEAAHXZ
	DQ	FLAT:?CanCopyTrack@Animatable@@UEAAHVInterval@@K@Z
	DQ	FLAT:?CanPasteTrack@Animatable@@UEAAHPEAVTrackClipObject@@VInterval@@K@Z
	DQ	FLAT:?CopyTrack@Animatable@@UEAAPEAVTrackClipObject@@VInterval@@K@Z
	DQ	FLAT:?PasteTrack@Animatable@@UEAAXPEAVTrackClipObject@@VInterval@@K@Z
	DQ	FLAT:?CanCopySubTrack@Animatable@@UEAAHHVInterval@@K@Z
	DQ	FLAT:?CanPasteSubTrack@Animatable@@UEAAHHPEAVTrackClipObject@@VInterval@@K@Z
	DQ	FLAT:?CopySubTrack@Animatable@@UEAAPEAVTrackClipObject@@HVInterval@@K@Z
	DQ	FLAT:?PasteSubTrack@Animatable@@UEAAXHPEAVTrackClipObject@@VInterval@@K@Z
	DQ	FLAT:?GetTrackVSpace@Animatable@@UEAAHH@Z
	DQ	FLAT:?HitTestTrack@Animatable@@UEAAHAEAV?$Tab@VTrackHitRecord@@@@AEAVBox2@@1MHK@Z
	DQ	FLAT:?PaintTrack@Animatable@@UEAAHPEAVParamDimensionBase@@PEAUHDC__@@AEAVBox2@@2MHK@Z
	DQ	FLAT:?PaintSubTrack@Animatable@@UEAAHHPEAVParamDimensionBase@@PEAUHDC__@@AEAVBox2@@2MHK@Z
	DQ	FLAT:?PaintFCurves@Animatable@@UEAAHPEAVParamDimensionBase@@PEAUHDC__@@AEAVBox2@@2MHMHK@Z
	DQ	FLAT:?HitTestFCurves@Animatable@@UEAAHPEAVParamDimensionBase@@AEAV?$Tab@VTrackHitRecord@@@@AEAVBox2@@2MHMHK@Z
	DQ	FLAT:?PaintSubFCurves@Animatable@@UEAAHHPEAVParamDimensionBase@@PEAUHDC__@@AEAVBox2@@2MHMHK@Z
	DQ	FLAT:?HitTestSubFCurves@Animatable@@UEAAHHPEAVParamDimensionBase@@AEAV?$Tab@VTrackHitRecord@@@@AEAVBox2@@2MHMHK@Z
	DQ	FLAT:?EditTrackParams@Animatable@@UEAAXHPEAVParamDimensionBase@@PEB_WPEAUHWND__@@PEAVIObjParam@@K@Z
	DQ	FLAT:?TrackParamsType@Animatable@@UEAAHXZ
	DQ	FLAT:?GetFCurveExtents@Animatable@@UEAAHPEAVParamDimensionBase@@AEAM1K@Z
	DQ	FLAT:?GetSubFCurveExtents@Animatable@@UEAAHHPEAVParamDimensionBase@@AEAM1K@Z
	DQ	FLAT:?GetParamDimension@Animatable@@UEAAPEAVParamDimension@@H@Z
	DQ	FLAT:?TrackViewWinProc@Animatable@@UEAA_JPEAUHWND__@@I_K_J@Z
	DQ	FLAT:?SelectSubAnim@Animatable@@UEAAHH@Z
	DQ	FLAT:?EnumAuxFiles@MtlBase@@UEAAXAEAVAssetEnumCallback@@K@Z
	DQ	FLAT:?FreeAllBitmaps@Animatable@@UEAAXXZ
	DQ	FLAT:?GetSystemNodes@Animatable@@UEAAXAEAVINodeTab@@W4SysNodeContext@@@Z
	DQ	FLAT:?IsSubClassOf@Animatable@@UEAAHVClass_ID@@@Z
	DQ	FLAT:?IsRefMaker@ReferenceMaker@@UEAAHXZ
	DQ	FLAT:?MouseCycleCompleted@Animatable@@UEAAXH@Z
	DQ	FLAT:?MouseCycleStarted@Animatable@@UEAAXH@Z
	DQ	FLAT:?NumParamBlocks@BerconNoise@@UEAAHXZ
	DQ	FLAT:?GetParamBlock@BerconNoise@@UEAAPEAVIParamBlock2@@H@Z
	DQ	FLAT:?GetParamBlockByID@BerconNoise@@UEAAPEAVIParamBlock2@@F@Z
	DQ	FLAT:?SvTraverseAnimGraph@Texmap@@UEAA?AVSvGraphNodeReference@@PEAVIGraphObjectManager@@PEAVAnimatable@@HK@Z
	DQ	FLAT:?SvCanInitiateLink@Animatable@@UEAA_NPEAVIGraphObjectManager@@PEAVIGraphNode@@@Z
	DQ	FLAT:?SvCanConcludeLink@Animatable@@UEAA_NPEAVIGraphObjectManager@@PEAVIGraphNode@@1@Z
	DQ	FLAT:?SvGetName@MtlBase@@UEAA?AVWStr@@PEAVIGraphObjectManager@@PEAVIGraphNode@@_N@Z
	DQ	FLAT:?SvCanSetName@MtlBase@@UEAA_NPEAVIGraphObjectManager@@PEAVIGraphNode@@@Z
	DQ	FLAT:?SvSetName@MtlBase@@UEAA_NPEAVIGraphObjectManager@@PEAVIGraphNode@@AEBVWStr@@@Z
	DQ	FLAT:?SvCanRemoveThis@Animatable@@UEAA_NPEAVIGraphObjectManager@@PEAVIGraphNode@@@Z
	DQ	FLAT:?SvRemoveThis@Animatable@@UEAA_NPEAVIGraphObjectManager@@PEAVIGraphNode@@@Z
	DQ	FLAT:?SvIsSelected@MtlBase@@UEAA_NPEAVIGraphObjectManager@@PEAVIGraphNode@@@Z
	DQ	FLAT:?SvIsHighlighted@Animatable@@UEAA_NPEAVIGraphObjectManager@@PEAVIGraphNode@@@Z
	DQ	FLAT:?SvHighlightColor@MtlBase@@UEAAKPEAVIGraphObjectManager@@PEAVIGraphNode@@@Z
	DQ	FLAT:?SvGetSwatchColor@Animatable@@UEAAKPEAVIGraphObjectManager@@PEAVIGraphNode@@@Z
	DQ	FLAT:?SvIsInactive@Animatable@@UEAA_NPEAVIGraphObjectManager@@PEAVIGraphNode@@@Z
	DQ	FLAT:?SvLinkChild@Animatable@@UEAA_NPEAVIGraphObjectManager@@PEAVIGraphNode@@1@Z
	DQ	FLAT:?SvHandleDoubleClick@MtlBase@@UEAA_NPEAVIGraphObjectManager@@PEAVIGraphNode@@@Z
	DQ	FLAT:?SvGetMultiSelectCallback@MtlBase@@UEAAPEAVMultiSelectCallback@@PEAVIGraphObjectManager@@PEAVIGraphNode@@@Z
	DQ	FLAT:?SvCanSelect@MtlBase@@UEAA_NPEAVIGraphObjectManager@@PEAVIGraphNode@@@Z
	DQ	FLAT:?SvEditProperties@Animatable@@UEAA_NPEAVIGraphObjectManager@@PEAVIGraphNode@@@Z
	DQ	FLAT:?SvGetTip@Animatable@@UEAA?AVWStr@@PEAVIGraphObjectManager@@PEAVIGraphNode@@@Z
	DQ	FLAT:?SvGetRefTip@Animatable@@UEAA?AVWStr@@PEAVIGraphObjectManager@@PEAVIGraphNode@@1@Z
	DQ	FLAT:?SvCanDetach@Animatable@@UEAA_NPEAVIGraphObjectManager@@PEAVIGraphNode@@@Z
	DQ	FLAT:?SvDetach@Animatable@@UEAA_NPEAVIGraphObjectManager@@PEAVIGraphNode@@@Z
	DQ	FLAT:?SvGetRelTip@Animatable@@UEAA?AVWStr@@PEAVIGraphObjectManager@@PEAVIGraphNode@@H1@Z
	DQ	FLAT:?SvCanDetachRel@Animatable@@UEAA_NPEAVIGraphObjectManager@@PEAVIGraphNode@@H1@Z
	DQ	FLAT:?SvDetachRel@Animatable@@UEAA_NPEAVIGraphObjectManager@@PEAVIGraphNode@@H1@Z
	DQ	FLAT:?SvHandleRelDoubleClick@Animatable@@UEAA_NPEAVIGraphObjectManager@@PEAVIGraphNode@@H1@Z
	DQ	FLAT:?IsParamBlockDesc2Used@Animatable@@UEAA_NPEAVParamBlockDesc2@@@Z
	DQ	FLAT:?GetMacroRecorderName@Animatable@@UEAA_N_NAEAVWStr@@@Z
	DQ	FLAT:?DeleteAllRefsToMe@ReferenceTarget@@UEAA?AW4RefResult@@XZ
	DQ	FLAT:?CanTransferReference@ReferenceMaker@@UEAAHH@Z
	DQ	FLAT:?NumRefs@BerconNoise@@UEAAHXZ
	DQ	FLAT:?GetReference@BerconNoise@@UEAAPEAVReferenceTarget@@H@Z
	DQ	FLAT:?SetReference@BerconNoise@@EEAAXHPEAVReferenceTarget@@@Z
	DQ	FLAT:?Save@MtlBase@@UEAA?AW4IOResult@@PEAVISave@@@Z
	DQ	FLAT:?Load@MtlBase@@UEAA?AW4IOResult@@PEAVILoad@@@Z
	DQ	FLAT:?RemapRefOnLoad@ReferenceMaker@@UEAAHH@Z
	DQ	FLAT:?RescaleWorldUnits@ReferenceMaker@@UEAAXM@Z
	DQ	FLAT:?NotifyDependents@ReferenceTarget@@UEAA?AW4RefResult@@AEBVInterval@@_KIKHPEAV1@W4NotifyDependentsOption@@@Z
	DQ	FLAT:?NotifyDependents@ReferenceMaker@@EEAA?AW4RefResult@@AEBVInterval@@_KIKHPEAVReferenceTarget@@@Z
	DQ	FLAT:?SaveEnum@ReferenceMaker@@UEAAXAEAVSaveEnumProc@@H@Z
	DQ	FLAT:?SpecifySaveReferences@ReferenceMaker@@UEAA_NAEAVReferenceSaveManager@@@Z
	DQ	FLAT:?DoEnumDependentsImpl@ReferenceTarget@@MEAAHPEAVDependentEnumProc@@@Z
	DQ	FLAT:?IsRefTarget@ReferenceTarget@@UEAAHXZ
	DQ	FLAT:?IsRealDependency@ReferenceMaker@@UEAAHPEAVReferenceTarget@@@Z
	DQ	FLAT:?ShouldPersistWeakRef@ReferenceMaker@@UEAAHPEAVReferenceTarget@@@Z
	DQ	FLAT:?NotifyRefChanged@BerconNoise@@UEAA?AW4RefResult@@AEBVInterval@@PEAVReferenceTarget@@AEA_KIH@Z
	DQ	FLAT:?AutoDelete@ReferenceTarget@@UEAA?AW4RefResult@@XZ
	DQ	FLAT:?RefAdded@Texmap@@UEAAXPEAVReferenceMaker@@@Z
	DQ	FLAT:?RefAddedUndoRedo@ReferenceTarget@@UEAAXPEAVReferenceMaker@@@Z
	DQ	FLAT:?RefDeleted@ReferenceTarget@@UEAAXXZ
	DQ	FLAT:?RefDeletedUndoRedo@ReferenceTarget@@UEAAXXZ
	DQ	FLAT:?Clone@BerconNoise@@UEAAPEAVReferenceTarget@@AEAVRemapDir@@@Z
	DQ	FLAT:?BaseClone@MtlBase@@UEAAXPEAVReferenceTarget@@0AEAVRemapDir@@@Z
	DQ	FLAT:?NotifyForeground@ReferenceTarget@@UEAAXH@Z
	DQ	FLAT:?NotifyTarget@ReferenceTarget@@UEAAXHPEAVReferenceMaker@@@Z
	DQ	FLAT:?GetFullName@MtlBase@@UEAA?AVWStr@@XZ
	DQ	FLAT:?BuildMaps@MtlBase@@UEAAHHAEAVRenderMapsContext@@@Z
	DQ	FLAT:?Requirements@MtlBase@@UEAAKH@Z
	DQ	FLAT:?LocalRequirements@BerconNoise@@UEAAKH@Z
	DQ	FLAT:?MappingsRequired@BerconNoise@@UEAAXHAEAVBitArray@@0@Z
	DQ	FLAT:?LocalMappingsRequired@MtlBase@@UEAAXHAEAVBitArray@@0@Z
	DQ	FLAT:?IsMultiMtl@MtlBase@@UEAAHXZ
	DQ	FLAT:?Update@BerconNoise@@UEAAXHAEAVInterval@@@Z
	DQ	FLAT:?Reset@BerconNoise@@UEAAXXZ
	DQ	FLAT:?Validity@BerconNoise@@UEAA?AVInterval@@H@Z
	DQ	FLAT:?CreateParamDlg@BerconNoise@@UEAAPEAVParamDlg@@PEAUHWND__@@PEAVIMtlParams@@@Z
	DQ	FLAT:?GetPStamp@MtlBase@@UEAAPEAVPStamp@@H@Z
	DQ	FLAT:?CreatePStamp@MtlBase@@UEAAPEAVPStamp@@HH@Z
	DQ	FLAT:?DiscardPStamp@MtlBase@@UEAAXH@Z
	DQ	FLAT:?SupportTexDisplay@BerconNoise@@UEAAHXZ
	DQ	FLAT:?GetActiveTexHandle@BerconNoise@@UEAA_KHAEAVTexHandleMaker@@@Z
	DQ	FLAT:?ActivateTexDisplay@BerconNoise@@UEAAXH@Z
	DQ	FLAT:?SupportsMultiMapsInViewport@MtlBase@@UEAAHXZ
	DQ	FLAT:?SetupGfxMultiMaps@MtlBase@@UEAAXHPEAVMaterial@@AEAVMtlMakerCallback@@@Z
	DQ	FLAT:?GetTransparencyHint@MtlBase@@UEAAHHAEAVInterval@@@Z
	DQ	FLAT:?EvalColor@BerconNoise@@UEAA?AVAColor@@AEAVShadeContext@@@Z
	DQ	FLAT:?EvalMono@BerconNoise@@UEAAMAEAVShadeContext@@@Z
	DQ	FLAT:?EvalNormalPerturb@BerconNoise@@UEAA?AVPoint3@@AEAVShadeContext@@@Z
	DQ	FLAT:?HandleOwnViewPerturb@Texmap@@UEAAHXZ
	DQ	FLAT:?GetVPDisplayDIB@Texmap@@UEAAPEAUtagBITMAPINFO@@HAEAVTexHandleMaker@@AEAVInterval@@HHH@Z
	DQ	FLAT:?GetUVTransform@Texmap@@UEAAXAEAVMatrix3@@@Z
	DQ	FLAT:?GetTextureTiling@Texmap@@UEAAHXZ
	DQ	FLAT:?GetUVWSource@Texmap@@UEAAHXZ
	DQ	FLAT:?GetMapChannel@Texmap@@UEAAHXZ
	DQ	FLAT:?InitSlotType@Texmap@@UEAAXH@Z
	DQ	FLAT:?GetTheUVGen@Texmap@@UEAAPEAVUVGen@@XZ
	DQ	FLAT:?GetTheXYZGen@BerconNoise@@UEAAPEAVXYZGen@@XZ
	DQ	FLAT:?SetOutputLevel@Texmap@@UEAAXHM@Z
	DQ	FLAT:?IsOutputMeaningful@Texmap@@UEAA_NAEAVShadeContext@@@Z
	DQ	FLAT:?IsLocalOutputMeaningful@Texmap@@UEAA_NAEAVShadeContext@@@Z
	DQ	FLAT:?LoadMapFiles@Texmap@@UEAAHH@Z
	DQ	FLAT:?RenderBitmap@Texmap@@UEAAXHPEAVBitmap@@MH@Z
	DQ	FLAT:?IsHighDynamicRange@Texmap@@UEBAHXZ
CONST	ENDS
;	COMDAT ??_C@_13PHJMHGG@?$AAL@
CONST	SEGMENT
??_C@_13PHJMHGG@?$AAL@ DB 'L', 00H, 00H, 00H		; `string'
CONST	ENDS
;	COMDAT ??_7BerconXYZDlgProc@@6B@
CONST	SEGMENT
??_7BerconXYZDlgProc@@6B@ DQ FLAT:??_R4BerconXYZDlgProc@@6B@ ; BerconXYZDlgProc::`vftable'
	DQ	FLAT:??_EBerconXYZDlgProc@@UEAAPEAXI@Z
	DQ	FLAT:?DlgProc@BerconXYZDlgProc@@UEAA_JHPEAVIParamMap2@@PEAUHWND__@@I_K_J@Z
	DQ	FLAT:?DeleteThis@BerconXYZDlgProc@@UEAAXXZ
	DQ	FLAT:?SetThing@BerconXYZDlgProc@@UEAAXPEAVReferenceTarget@@@Z
	DQ	FLAT:?Update@ParamMap2UserDlgProc@@UEAAXHAEAVInterval@@PEAVIParamMap2@@@Z
	DQ	FLAT:?Update@ParamMap2UserDlgProc@@UEAAXH@Z
	DQ	FLAT:?SetParamBlock@ParamMap2UserDlgProc@@UEAAXPEAVIParamBlock2@@@Z
CONST	ENDS
;	COMDAT ??_7ResourceMakerCallback@@6B@
CONST	SEGMENT
??_7ResourceMakerCallback@@6B@ DQ FLAT:??_R4ResourceMakerCallback@@6B@ ; ResourceMakerCallback::`vftable'
	DQ	FLAT:?SetCustomImageList@ResourceMakerCallback@@UEAAHAEAPEAU_IMAGELIST@@PEAVICurveCtl@@@Z
	DQ	FLAT:?GetToolTip@ResourceMakerCallback@@UEAAHHAEAVWStr@@PEAVICurveCtl@@@Z
	DQ	FLAT:?ResetCallback@ResourceMakerCallback@@UEAAXHPEAVICurveCtl@@@Z
	DQ	FLAT:?NewCurveCreatedCallback@ResourceMakerCallback@@UEAAXHPEAVICurveCtl@@@Z
	DQ	FLAT:?GetInterface@ResourceMakerCallback@@UEAAPEAXK@Z
CONST	ENDS
_DATA	SEGMENT
?BlinnClassID@@3VClass_ID@@A DD 038H			; BlinnClassID
	DD	00H
?AnisoShaderClassID@@3VClass_ID@@A DD 02857f460H	; AnisoShaderClassID
	DD	00H
?AnisoShaderDlgClassID@@3VClass_ID@@A DD 02857f460H	; AnisoShaderDlgClassID
	DD	00H
?OrenNayarBlinnShaderClassID@@3VClass_ID@@A DD 02857f421H ; OrenNayarBlinnShaderClassID
	DD	00H
?OrenNayarShaderDlgClassID@@3VClass_ID@@A DD 02857f422H	; OrenNayarShaderDlgClassID
	DD	00H
?StraussShaderClassID@@3VClass_ID@@A DD 02857f450H	; StraussShaderClassID
	DD	00H
?kTriObjNormalXTCID@@3VClass_ID@@B DD 0730a33d7H	; kTriObjNormalXTCID
	DD	027246c55H
?white@@3VAColor@@A DD 03f800000r		; 1	; white
	DD	03f800000r			; 1
	DD	03f800000r			; 1
	DD	03f800000r			; 1
_DATA	ENDS
;	COMDAT ??_7ParamMap2UserDlgProc@@6B@
CONST	SEGMENT
??_7ParamMap2UserDlgProc@@6B@ DQ FLAT:??_R4ParamMap2UserDlgProc@@6B@ ; ParamMap2UserDlgProc::`vftable'
	DQ	FLAT:??_EParamMap2UserDlgProc@@UEAAPEAXI@Z
	DQ	FLAT:_purecall
	DQ	FLAT:_purecall
	DQ	FLAT:?SetThing@ParamMap2UserDlgProc@@UEAAXPEAVReferenceTarget@@@Z
	DQ	FLAT:?Update@ParamMap2UserDlgProc@@UEAAXHAEAVInterval@@PEAVIParamMap2@@@Z
	DQ	FLAT:?Update@ParamMap2UserDlgProc@@UEAAXH@Z
	DQ	FLAT:?SetParamBlock@ParamMap2UserDlgProc@@UEAAXPEAVIParamBlock2@@@Z
CONST	ENDS
;	COMDAT ??_C@_1BM@HADNIIA@?$AAB?$AAi?$AAt?$AAA?$AAr?$AAr?$AAa?$AAy?$AA?3?$AA?3?$AAS?$AAe?$AAt@
CONST	SEGMENT
??_C@_1BM@HADNIIA@?$AAB?$AAi?$AAt?$AAA?$AAr?$AAr?$AAa?$AAy?$AA?3?$AA?3?$AAS?$AAe?$AAt@ DB 'B'
	DB	00H, 'i', 00H, 't', 00H, 'A', 00H, 'r', 00H, 'r', 00H, 'a', 00H
	DB	'y', 00H, ':', 00H, ':', 00H, 'S', 00H, 'e', 00H, 't', 00H, 00H
	DB	00H						; `string'
CONST	ENDS
;	COMDAT ??_C@_1CE@GBNPOKPK@?$AAi?$AA?$DO?$AA?9?$AA1?$AA?5?$AA?$CG?$AA?$CG?$AA?5?$AAi?$AA?$DM?$AAn?$AAu?$AAm?$AAB?$AAi@
CONST	SEGMENT
??_C@_1CE@GBNPOKPK@?$AAi?$AA?$DO?$AA?9?$AA1?$AA?5?$AA?$CG?$AA?$CG?$AA?5?$AAi?$AA?$DM?$AAn?$AAu?$AAm?$AAB?$AAi@ DB 'i'
	DB	00H, '>', 00H, '-', 00H, '1', 00H, ' ', 00H, '&', 00H, '&', 00H
	DB	' ', 00H, 'i', 00H, '<', 00H, 'n', 00H, 'u', 00H, 'm', 00H, 'B'
	DB	00H, 'i', 00H, 't', 00H, 's', 00H, 00H, 00H	; `string'
CONST	ENDS
;	COMDAT ??_C@_1IK@JMJDIAL@?$AAc?$AA?3?$AA?2?$AAp?$AAr?$AAo?$AAg?$AAr?$AAa?$AAm?$AA?5?$AAf?$AAi?$AAl?$AAe@
CONST	SEGMENT
??_C@_1IK@JMJDIAL@?$AAc?$AA?3?$AA?2?$AAp?$AAr?$AAo?$AAg?$AAr?$AAa?$AAm?$AA?5?$AAf?$AAi?$AAl?$AAe@ DB 'c'
	DB	00H, ':', 00H, '\', 00H, 'p', 00H, 'r', 00H, 'o', 00H, 'g', 00H
	DB	'r', 00H, 'a', 00H, 'm', 00H, ' ', 00H, 'f', 00H, 'i', 00H, 'l'
	DB	00H, 'e', 00H, 's', 00H, '\', 00H, 'a', 00H, 'u', 00H, 't', 00H
	DB	'o', 00H, 'd', 00H, 'e', 00H, 's', 00H, 'k', 00H, '\', 00H, '3'
	DB	00H, 'd', 00H, 's', 00H, ' ', 00H, 'm', 00H, 'a', 00H, 'x', 00H
	DB	' ', 00H, '2', 00H, '0', 00H, '1', 00H, '9', 00H, ' ', 00H, 's'
	DB	00H, 'd', 00H, 'k', 00H, '\', 00H, 'm', 00H, 'a', 00H, 'x', 00H
	DB	's', 00H, 'd', 00H, 'k', 00H, '\', 00H, 'i', 00H, 'n', 00H, 'c'
	DB	00H, 'l', 00H, 'u', 00H, 'd', 00H, 'e', 00H, '\', 00H, 'b', 00H
	DB	'i', 00H, 't', 00H, 'a', 00H, 'r', 00H, 'r', 00H, 'a', 00H, 'y'
	DB	00H, '.', 00H, 'h', 00H, 00H, 00H		; `string'
CONST	ENDS
;	COMDAT ??_C@_1IA@GJPPLCDJ@?$AAc?$AA?3?$AA?2?$AAp?$AAr?$AAo?$AAg?$AAr?$AAa?$AAm?$AA?5?$AAf?$AAi?$AAl?$AAe@
CONST	SEGMENT
??_C@_1IA@GJPPLCDJ@?$AAc?$AA?3?$AA?2?$AAp?$AAr?$AAo?$AAg?$AAr?$AAa?$AAm?$AA?5?$AAf?$AAi?$AAl?$AAe@ DB 'c'
	DB	00H, ':', 00H, '\', 00H, 'p', 00H, 'r', 00H, 'o', 00H, 'g', 00H
	DB	'r', 00H, 'a', 00H, 'm', 00H, ' ', 00H, 'f', 00H, 'i', 00H, 'l'
	DB	00H, 'e', 00H, 's', 00H, '\', 00H, 'a', 00H, 'u', 00H, 't', 00H
	DB	'o', 00H, 'd', 00H, 'e', 00H, 's', 00H, 'k', 00H, '\', 00H, '3'
	DB	00H, 'd', 00H, 's', 00H, ' ', 00H, 'm', 00H, 'a', 00H, 'x', 00H
	DB	' ', 00H, '2', 00H, '0', 00H, '1', 00H, '9', 00H, ' ', 00H, 's'
	DB	00H, 'd', 00H, 'k', 00H, '\', 00H, 'm', 00H, 'a', 00H, 'x', 00H
	DB	's', 00H, 'd', 00H, 'k', 00H, '\', 00H, 'i', 00H, 'n', 00H, 'c'
	DB	00H, 'l', 00H, 'u', 00H, 'd', 00H, 'e', 00H, '\', 00H, 'r', 00H
	DB	'e', 00H, 'f', 00H, '.', 00H, 'h', 00H, 00H, 00H ; `string'
CONST	ENDS
;	COMDAT ??_C@_1EC@POJFJEHG@?$AAR?$AAe?$AAf?$AAe?$AAr?$AAe?$AAn?$AAc?$AAe?$AAM?$AAa?$AAk?$AAe?$AAr?$AA?3@
CONST	SEGMENT
??_C@_1EC@POJFJEHG@?$AAR?$AAe?$AAf?$AAe?$AAr?$AAe?$AAn?$AAc?$AAe?$AAM?$AAa?$AAk?$AAe?$AAr?$AA?3@ DB 'R'
	DB	00H, 'e', 00H, 'f', 00H, 'e', 00H, 'r', 00H, 'e', 00H, 'n', 00H
	DB	'c', 00H, 'e', 00H, 'M', 00H, 'a', 00H, 'k', 00H, 'e', 00H, 'r'
	DB	00H, ':', 00H, ':', 00H, 'N', 00H, 'o', 00H, 't', 00H, 'i', 00H
	DB	'f', 00H, 'y', 00H, 'D', 00H, 'e', 00H, 'p', 00H, 'e', 00H, 'n'
	DB	00H, 'd', 00H, 'e', 00H, 'n', 00H, 't', 00H, 's', 00H, 00H, 00H ; `string'
CONST	ENDS
;	COMDAT ??_C@_1M@HLGKFCJM@?$AAf?$AAa?$AAl?$AAs?$AAe@
CONST	SEGMENT
??_C@_1M@HLGKFCJM@?$AAf?$AAa?$AAl?$AAs?$AAe@ DB 'f', 00H, 'a', 00H, 'l', 00H
	DB	's', 00H, 'e', 00H, 00H, 00H			; `string'
CONST	ENDS
;	COMDAT ??_C@_1IO@PNJJEDOF@?$AAc?$AA?3?$AA?2?$AAp?$AAr?$AAo?$AAg?$AAr?$AAa?$AAm?$AA?5?$AAf?$AAi?$AAl?$AAe@
CONST	SEGMENT
??_C@_1IO@PNJJEDOF@?$AAc?$AA?3?$AA?2?$AAp?$AAr?$AAo?$AAg?$AAr?$AAa?$AAm?$AA?5?$AAf?$AAi?$AAl?$AAe@ DB 'c'
	DB	00H, ':', 00H, '\', 00H, 'p', 00H, 'r', 00H, 'o', 00H, 'g', 00H
	DB	'r', 00H, 'a', 00H, 'm', 00H, ' ', 00H, 'f', 00H, 'i', 00H, 'l'
	DB	00H, 'e', 00H, 's', 00H, '\', 00H, 'a', 00H, 'u', 00H, 't', 00H
	DB	'o', 00H, 'd', 00H, 'e', 00H, 's', 00H, 'k', 00H, '\', 00H, '3'
	DB	00H, 'd', 00H, 's', 00H, ' ', 00H, 'm', 00H, 'a', 00H, 'x', 00H
	DB	' ', 00H, '2', 00H, '0', 00H, '1', 00H, '9', 00H, ' ', 00H, 's'
	DB	00H, 'd', 00H, 'k', 00H, '\', 00H, 'm', 00H, 'a', 00H, 'x', 00H
	DB	's', 00H, 'd', 00H, 'k', 00H, '\', 00H, 'i', 00H, 'n', 00H, 'c'
	DB	00H, 'l', 00H, 'u', 00H, 'd', 00H, 'e', 00H, '\', 00H, 'a', 00H
	DB	'n', 00H, 'i', 00H, 'm', 00H, 'a', 00H, 't', 00H, 'a', 00H, 'b'
	DB	00H, 'l', 00H, 'e', 00H, '.', 00H, 'h', 00H, 00H, 00H ; `string'
CONST	ENDS
;	COMDAT ??_C@_1CM@HBLCKHLG@?$AAA?$AAn?$AAi?$AAm?$AAa?$AAt?$AAa?$AAb?$AAl?$AAe?$AA?3?$AA?3?$AAE?$AAd?$AAi@
CONST	SEGMENT
??_C@_1CM@HBLCKHLG@?$AAA?$AAn?$AAi?$AAm?$AAa?$AAt?$AAa?$AAb?$AAl?$AAe?$AA?3?$AA?3?$AAE?$AAd?$AAi@ DB 'A'
	DB	00H, 'n', 00H, 'i', 00H, 'm', 00H, 'a', 00H, 't', 00H, 'a', 00H
	DB	'b', 00H, 'l', 00H, 'e', 00H, ':', 00H, ':', 00H, 'E', 00H, 'd'
	DB	00H, 'i', 00H, 't', 00H, 'T', 00H, 'r', 00H, 'a', 00H, 'c', 00H
	DB	'k', 00H, 00H, 00H				; `string'
CONST	ENDS
;	COMDAT ??_C@_13COJANIEC@?$AA0@
CONST	SEGMENT
??_C@_13COJANIEC@?$AA0@ DB '0', 00H, 00H, 00H		; `string'
CONST	ENDS
;	COMDAT ??_C@_11LOCGONAA@@
CONST	SEGMENT
??_C@_11LOCGONAA@@ DB 00H, 00H				; `string'
CONST	ENDS
;	COMDAT xdata
xdata	SEGMENT
$ip2state$??_GBerconNoiseDlgProc@@UEAAPEAXI@Z DD imagerel ??_GBerconNoiseDlgProc@@UEAAPEAXI@Z
	DD	0ffffffffH
xdata	ENDS
;	COMDAT xdata
xdata	SEGMENT
$stateUnwindMap$??_GBerconNoiseDlgProc@@UEAAPEAXI@Z DD 0ffffffffH
	DD	imagerel ?dtor$0@?0???_GBerconNoiseDlgProc@@UEAAPEAXI@Z@4HA
xdata	ENDS
;	COMDAT CONST
CONST	SEGMENT
$cppxdata$??_GBerconNoiseDlgProc@@UEAAPEAXI@Z DD 019930522H
	DD	01H
	DD	imagerel $stateUnwindMap$??_GBerconNoiseDlgProc@@UEAAPEAXI@Z
	DD	00H
	DD	00H
	DD	01H
	DD	imagerel $ip2state$??_GBerconNoiseDlgProc@@UEAAPEAXI@Z
	DD	020H
	DD	00H
	DD	04H
CONST	ENDS
;	COMDAT xdata
xdata	SEGMENT
$unwind$??_GBerconNoiseDlgProc@@UEAAPEAXI@Z DD 021311H
	DD	03006520aH
	DD	imagerel __CxxFrameHandler3
	DD	imagerel $cppxdata$??_GBerconNoiseDlgProc@@UEAAPEAXI@Z
xdata	ENDS
;	COMDAT xdata
xdata	SEGMENT
$ip2state$??1BerconNoiseDlgProc@@UEAA@XZ DD imagerel ??1BerconNoiseDlgProc@@UEAA@XZ
	DD	0ffffffffH
xdata	ENDS
;	COMDAT xdata
xdata	SEGMENT
$stateUnwindMap$??1BerconNoiseDlgProc@@UEAA@XZ DD 0ffffffffH
	DD	imagerel ?dtor$0@?0???1BerconNoiseDlgProc@@UEAA@XZ@4HA
xdata	ENDS
;	COMDAT CONST
CONST	SEGMENT
$cppxdata$??1BerconNoiseDlgProc@@UEAA@XZ DD 019930522H
	DD	01H
	DD	imagerel $stateUnwindMap$??1BerconNoiseDlgProc@@UEAA@XZ
	DD	00H
	DD	00H
	DD	01H
	DD	imagerel $ip2state$??1BerconNoiseDlgProc@@UEAA@XZ
	DD	00H
	DD	00H
	DD	04H
CONST	ENDS
;	COMDAT xdata
xdata	SEGMENT
$unwind$??1BerconNoiseDlgProc@@UEAA@XZ DD 011111H
	DD	02209H
	DD	imagerel __CxxFrameHandler3
	DD	imagerel $cppxdata$??1BerconNoiseDlgProc@@UEAA@XZ
xdata	ENDS
;	COMDAT xdata
xdata	SEGMENT
$unwind$?DlgProc@BerconNoiseDlgProc@@UEAA_JHPEAVIParamMap2@@PEAUHWND__@@I_K_J@Z DD 0c2001H
	DD	0fc420H
	DD	0e7420H
	DD	0d6420H
	DD	0c3420H
	DD	0f0197220H
	DD	05015e017H
xdata	ENDS
;	COMDAT xdata
xdata	SEGMENT
$ip2state$??0BerconNoiseDlgProc@@QEAA@PEAVBerconNoise@@@Z DD imagerel ??0BerconNoiseDlgProc@@QEAA@PEAVBerconNoise@@@Z
	DD	0ffffffffH
	DD	imagerel ??0BerconNoiseDlgProc@@QEAA@PEAVBerconNoise@@@Z+27
	DD	00H
	DD	imagerel ??0BerconNoiseDlgProc@@QEAA@PEAVBerconNoise@@@Z+41
	DD	0ffffffffH
xdata	ENDS
;	COMDAT xdata
xdata	SEGMENT
$stateUnwindMap$??0BerconNoiseDlgProc@@QEAA@PEAVBerconNoise@@@Z DD 0ffffffffH
	DD	imagerel ?dtor$0@?0???0BerconNoiseDlgProc@@QEAA@PEAVBerconNoise@@@Z@4HA
xdata	ENDS
;	COMDAT CONST
CONST	SEGMENT
$cppxdata$??0BerconNoiseDlgProc@@QEAA@PEAVBerconNoise@@@Z DD 019930522H
	DD	01H
	DD	imagerel $stateUnwindMap$??0BerconNoiseDlgProc@@QEAA@PEAVBerconNoise@@@Z
	DD	00H
	DD	00H
	DD	03H
	DD	imagerel $ip2state$??0BerconNoiseDlgProc@@QEAA@PEAVBerconNoise@@@Z
	DD	00H
	DD	00H
	DD	00H
CONST	ENDS
;	COMDAT xdata
xdata	SEGMENT
$unwind$??0BerconNoiseDlgProc@@QEAA@PEAVBerconNoise@@@Z DD 011111H
	DD	02209H
	DD	imagerel __CxxFrameHandler3
	DD	imagerel $cppxdata$??0BerconNoiseDlgProc@@QEAA@PEAVBerconNoise@@@Z
xdata	ENDS
;	COMDAT xdata
xdata	SEGMENT
$unwind$??__EBerconMap_param_blk@@YAXXZ DD 020a01H
	DD	015f010aH
xdata	ENDS
;	COMDAT xdata
xdata	SEGMENT
$unwind$??__Eberconnoise_param_blk@@YAXXZ DD 020a01H
	DD	01b7010aH
xdata	ENDS
;	COMDAT xdata
xdata	SEGMENT
$ip2state$??__Fxyz_blk@@YAXXZ DD imagerel ??__Fxyz_blk@@YAXXZ
	DD	0ffffffffH
xdata	ENDS
;	COMDAT xdata
xdata	SEGMENT
$stateUnwindMap$??__Fxyz_blk@@YAXXZ DD 0ffffffffH
	DD	imagerel ?dtor$0@?0???__Fxyz_blk@@YAXXZ@4HA
xdata	ENDS
;	COMDAT CONST
CONST	SEGMENT
$cppxdata$??__Fxyz_blk@@YAXXZ DD 019930522H
	DD	01H
	DD	imagerel $stateUnwindMap$??__Fxyz_blk@@YAXXZ
	DD	00H
	DD	00H
	DD	01H
	DD	imagerel $ip2state$??__Fxyz_blk@@YAXXZ
	DD	020H
	DD	00H
	DD	00H
CONST	ENDS
;	COMDAT xdata
xdata	SEGMENT
$unwind$??__Fxyz_blk@@YAXXZ DD 010d11H
	DD	06204H
	DD	imagerel __CxxFrameHandler3
	DD	imagerel $cppxdata$??__Fxyz_blk@@YAXXZ
xdata	ENDS
;	COMDAT xdata
xdata	SEGMENT
$unwind$??__Exyz_blk@@YAXXZ DD 010401H
	DD	0a204H
xdata	ENDS
;	COMDAT xdata
xdata	SEGMENT
$ip2state$??__FBerconNoiseDesc@@YAXXZ DD imagerel ??__FBerconNoiseDesc@@YAXXZ
	DD	0ffffffffH
xdata	ENDS
;	COMDAT xdata
xdata	SEGMENT
$stateUnwindMap$??__FBerconNoiseDesc@@YAXXZ DD 0ffffffffH
	DD	imagerel ?dtor$0@?0???__FBerconNoiseDesc@@YAXXZ@4HA
xdata	ENDS
;	COMDAT CONST
CONST	SEGMENT
$cppxdata$??__FBerconNoiseDesc@@YAXXZ DD 019930522H
	DD	01H
	DD	imagerel $stateUnwindMap$??__FBerconNoiseDesc@@YAXXZ
	DD	00H
	DD	00H
	DD	01H
	DD	imagerel $ip2state$??__FBerconNoiseDesc@@YAXXZ
	DD	020H
	DD	00H
	DD	00H
CONST	ENDS
;	COMDAT xdata
xdata	SEGMENT
$unwind$??__FBerconNoiseDesc@@YAXXZ DD 010d11H
	DD	06204H
	DD	imagerel __CxxFrameHandler3
	DD	imagerel $cppxdata$??__FBerconNoiseDesc@@YAXXZ
xdata	ENDS
;	COMDAT xdata
xdata	SEGMENT
$ip2state$??__EBerconNoiseDesc@@YAXXZ DD imagerel ??__EBerconNoiseDesc@@YAXXZ
	DD	0ffffffffH
	DD	imagerel ??__EBerconNoiseDesc@@YAXXZ+27
	DD	00H
	DD	imagerel ??__EBerconNoiseDesc@@YAXXZ+41
	DD	0ffffffffH
xdata	ENDS
;	COMDAT xdata
xdata	SEGMENT
$stateUnwindMap$??__EBerconNoiseDesc@@YAXXZ DD 0ffffffffH
	DD	imagerel ?dtor$0@?0???__EBerconNoiseDesc@@YAXXZ@4HA
xdata	ENDS
;	COMDAT CONST
CONST	SEGMENT
$cppxdata$??__EBerconNoiseDesc@@YAXXZ DD 019930522H
	DD	01H
	DD	imagerel $stateUnwindMap$??__EBerconNoiseDesc@@YAXXZ
	DD	00H
	DD	00H
	DD	03H
	DD	imagerel $ip2state$??__EBerconNoiseDesc@@YAXXZ
	DD	020H
	DD	00H
	DD	00H
CONST	ENDS
;	COMDAT xdata
xdata	SEGMENT
$unwind$??__EBerconNoiseDesc@@YAXXZ DD 010d11H
	DD	06204H
	DD	imagerel __CxxFrameHandler3
	DD	imagerel $cppxdata$??__EBerconNoiseDesc@@YAXXZ
xdata	ENDS
;	COMDAT xdata
xdata	SEGMENT
$ip2state$??_GBerconNoiseClassDesc@@UEAAPEAXI@Z DD imagerel ??_GBerconNoiseClassDesc@@UEAAPEAXI@Z
	DD	0ffffffffH
xdata	ENDS
;	COMDAT xdata
xdata	SEGMENT
$stateUnwindMap$??_GBerconNoiseClassDesc@@UEAAPEAXI@Z DD 0ffffffffH
	DD	imagerel ?dtor$0@?0???_GBerconNoiseClassDesc@@UEAAPEAXI@Z@4HA
xdata	ENDS
;	COMDAT CONST
CONST	SEGMENT
$cppxdata$??_GBerconNoiseClassDesc@@UEAAPEAXI@Z DD 019930522H
	DD	01H
	DD	imagerel $stateUnwindMap$??_GBerconNoiseClassDesc@@UEAAPEAXI@Z
	DD	00H
	DD	00H
	DD	01H
	DD	imagerel $ip2state$??_GBerconNoiseClassDesc@@UEAAPEAXI@Z
	DD	020H
	DD	00H
	DD	04H
CONST	ENDS
;	COMDAT xdata
xdata	SEGMENT
$unwind$??_GBerconNoiseClassDesc@@UEAAPEAXI@Z DD 041811H
	DD	093418H
	DD	07006520aH
	DD	imagerel __CxxFrameHandler3
	DD	imagerel $cppxdata$??_GBerconNoiseClassDesc@@UEAAPEAXI@Z
xdata	ENDS
;	COMDAT xdata
xdata	SEGMENT
$ip2state$??1BerconNoiseClassDesc@@UEAA@XZ DD imagerel ??1BerconNoiseClassDesc@@UEAA@XZ
	DD	0ffffffffH
xdata	ENDS
;	COMDAT xdata
xdata	SEGMENT
$stateUnwindMap$??1BerconNoiseClassDesc@@UEAA@XZ DD 0ffffffffH
	DD	imagerel ?dtor$0@?0???1BerconNoiseClassDesc@@UEAA@XZ@4HA
xdata	ENDS
;	COMDAT CONST
CONST	SEGMENT
$cppxdata$??1BerconNoiseClassDesc@@UEAA@XZ DD 019930522H
	DD	01H
	DD	imagerel $stateUnwindMap$??1BerconNoiseClassDesc@@UEAA@XZ
	DD	00H
	DD	00H
	DD	01H
	DD	imagerel $ip2state$??1BerconNoiseClassDesc@@UEAA@XZ
	DD	020H
	DD	00H
	DD	04H
CONST	ENDS
;	COMDAT xdata
xdata	SEGMENT
$unwind$??1BerconNoiseClassDesc@@UEAA@XZ DD 011211H
	DD	06209H
	DD	imagerel __CxxFrameHandler3
	DD	imagerel $cppxdata$??1BerconNoiseClassDesc@@UEAA@XZ
xdata	ENDS
;	COMDAT xdata
xdata	SEGMENT
$ip2state$??0BerconNoiseClassDesc@@QEAA@XZ DD imagerel ??0BerconNoiseClassDesc@@QEAA@XZ
	DD	0ffffffffH
	DD	imagerel ??0BerconNoiseClassDesc@@QEAA@XZ+29
	DD	00H
	DD	imagerel ??0BerconNoiseClassDesc@@QEAA@XZ+39
	DD	0ffffffffH
xdata	ENDS
;	COMDAT xdata
xdata	SEGMENT
$stateUnwindMap$??0BerconNoiseClassDesc@@QEAA@XZ DD 0ffffffffH
	DD	imagerel ?dtor$0@?0???0BerconNoiseClassDesc@@QEAA@XZ@4HA
xdata	ENDS
;	COMDAT CONST
CONST	SEGMENT
$cppxdata$??0BerconNoiseClassDesc@@QEAA@XZ DD 019930522H
	DD	01H
	DD	imagerel $stateUnwindMap$??0BerconNoiseClassDesc@@QEAA@XZ
	DD	00H
	DD	00H
	DD	03H
	DD	imagerel $ip2state$??0BerconNoiseClassDesc@@QEAA@XZ
	DD	020H
	DD	00H
	DD	00H
CONST	ENDS
;	COMDAT xdata
xdata	SEGMENT
$unwind$??0BerconNoiseClassDesc@@QEAA@XZ DD 021311H
	DD	03006520aH
	DD	imagerel __CxxFrameHandler3
	DD	imagerel $cppxdata$??0BerconNoiseClassDesc@@QEAA@XZ
xdata	ENDS
;	COMDAT xdata
xdata	SEGMENT
$ip2state$?Create@BerconNoiseClassDesc@@UEAAPEAXH@Z DD imagerel ?Create@BerconNoiseClassDesc@@UEAAPEAXH@Z
	DD	0ffffffffH
	DD	imagerel ?Create@BerconNoiseClassDesc@@UEAAPEAXH@Z+29
	DD	00H
	DD	imagerel ?Create@BerconNoiseClassDesc@@UEAAPEAXH@Z+43
	DD	0ffffffffH
xdata	ENDS
;	COMDAT xdata
xdata	SEGMENT
$stateUnwindMap$?Create@BerconNoiseClassDesc@@UEAAPEAXH@Z DD 0ffffffffH
	DD	imagerel ?dtor$0@?0??Create@BerconNoiseClassDesc@@UEAAPEAXH@Z@4HA
xdata	ENDS
;	COMDAT CONST
CONST	SEGMENT
$cppxdata$?Create@BerconNoiseClassDesc@@UEAAPEAXH@Z DD 019930522H
	DD	01H
	DD	imagerel $stateUnwindMap$?Create@BerconNoiseClassDesc@@UEAAPEAXH@Z
	DD	00H
	DD	00H
	DD	03H
	DD	imagerel $ip2state$?Create@BerconNoiseClassDesc@@UEAAPEAXH@Z
	DD	020H
	DD	00H
	DD	00H
CONST	ENDS
;	COMDAT xdata
xdata	SEGMENT
$unwind$?Create@BerconNoiseClassDesc@@UEAAPEAXH@Z DD 010d11H
	DD	06204H
	DD	imagerel __CxxFrameHandler3
	DD	imagerel $cppxdata$?Create@BerconNoiseClassDesc@@UEAAPEAXH@Z
xdata	ENDS
;	COMDAT xdata
xdata	SEGMENT
$ip2state$??_GBerconNoise@@UEAAPEAXI@Z DD imagerel ??_GBerconNoise@@UEAAPEAXI@Z
	DD	0ffffffffH
	DD	imagerel ??_GBerconNoise@@UEAAPEAXI@Z+64
	DD	00H
	DD	imagerel ??_GBerconNoise@@UEAAPEAXI@Z+94
	DD	0ffffffffH
xdata	ENDS
;	COMDAT xdata
xdata	SEGMENT
$stateUnwindMap$??_GBerconNoise@@UEAAPEAXI@Z DD 0ffffffffH
	DD	imagerel ?dtor$0@?0???_GBerconNoise@@UEAAPEAXI@Z@4HA
	DD	0ffffffffH
	DD	imagerel ?dtor$1@?0???_GBerconNoise@@UEAAPEAXI@Z@4HA
xdata	ENDS
;	COMDAT CONST
CONST	SEGMENT
$cppxdata$??_GBerconNoise@@UEAAPEAXI@Z DD 019930522H
	DD	02H
	DD	imagerel $stateUnwindMap$??_GBerconNoise@@UEAAPEAXI@Z
	DD	00H
	DD	00H
	DD	03H
	DD	imagerel $ip2state$??_GBerconNoise@@UEAAPEAXI@Z
	DD	020H
	DD	00H
	DD	04H
CONST	ENDS
;	COMDAT xdata
xdata	SEGMENT
$unwind$??_GBerconNoise@@UEAAPEAXI@Z DD 041819H
	DD	093418H
	DD	07006520aH
	DD	imagerel __CxxFrameHandler3
	DD	imagerel $cppxdata$??_GBerconNoise@@UEAAPEAXI@Z
xdata	ENDS
;	COMDAT xdata
xdata	SEGMENT
$ip2state$??1BerconNoise@@UEAA@XZ DD imagerel ??1BerconNoise@@UEAA@XZ
	DD	0ffffffffH
	DD	imagerel ??1BerconNoise@@UEAA@XZ+57
	DD	00H
	DD	imagerel ??1BerconNoise@@UEAA@XZ+87
	DD	0ffffffffH
xdata	ENDS
;	COMDAT xdata
xdata	SEGMENT
$stateUnwindMap$??1BerconNoise@@UEAA@XZ DD 0ffffffffH
	DD	imagerel ?dtor$0@?0???1BerconNoise@@UEAA@XZ@4HA
	DD	0ffffffffH
	DD	imagerel ?dtor$1@?0???1BerconNoise@@UEAA@XZ@4HA
xdata	ENDS
;	COMDAT CONST
CONST	SEGMENT
$cppxdata$??1BerconNoise@@UEAA@XZ DD 019930522H
	DD	02H
	DD	imagerel $stateUnwindMap$??1BerconNoise@@UEAA@XZ
	DD	00H
	DD	00H
	DD	03H
	DD	imagerel $ip2state$??1BerconNoise@@UEAA@XZ
	DD	020H
	DD	00H
	DD	04H
CONST	ENDS
;	COMDAT xdata
xdata	SEGMENT
$unwind$??1BerconNoise@@UEAA@XZ DD 021319H
	DD	03006520aH
	DD	imagerel __CxxFrameHandler3
	DD	imagerel $cppxdata$??1BerconNoise@@UEAA@XZ
xdata	ENDS
;	COMDAT xdata
xdata	SEGMENT
$ip2state$??0BerconNoise@@QEAA@XZ DD imagerel ??0BerconNoise@@QEAA@XZ
	DD	0ffffffffH
	DD	imagerel ??0BerconNoise@@QEAA@XZ+42
	DD	00H
	DD	imagerel ??0BerconNoise@@QEAA@XZ+536
	DD	0ffffffffH
xdata	ENDS
;	COMDAT xdata
xdata	SEGMENT
$stateUnwindMap$??0BerconNoise@@QEAA@XZ DD 0ffffffffH
	DD	imagerel ?dtor$0@?0???0BerconNoise@@QEAA@XZ@4HA
xdata	ENDS
;	COMDAT CONST
CONST	SEGMENT
$cppxdata$??0BerconNoise@@QEAA@XZ DD 019930522H
	DD	01H
	DD	imagerel $stateUnwindMap$??0BerconNoise@@QEAA@XZ
	DD	00H
	DD	00H
	DD	03H
	DD	imagerel $ip2state$??0BerconNoise@@QEAA@XZ
	DD	020H
	DD	00H
	DD	00H
CONST	ENDS
;	COMDAT xdata
xdata	SEGMENT
$unwind$??0BerconNoise@@QEAA@XZ DD 082011H
	DD	0c5420H
	DD	0b341bH
	DD	0e009520dH
	DD	060067007H
	DD	imagerel __CxxFrameHandler3
	DD	imagerel $cppxdata$??0BerconNoise@@QEAA@XZ
xdata	ENDS
;	COMDAT xdata
xdata	SEGMENT
$unwind$?GetParamBlockByID@BerconNoise@@UEAAPEAVIParamBlock2@@F@Z DD 040a01H
	DD	06340aH
	DD	07006320aH
xdata	ENDS
;	COMDAT xdata
xdata	SEGMENT
$unwind$?dtor$0@?0??SubAnimName@BerconNoise@@UEAA?AVWStr@@H@Z@4HA DD 020601H
	DD	050023206H
xdata	ENDS
;	COMDAT xdata
xdata	SEGMENT
$ip2state$?SubAnimName@BerconNoise@@UEAA?AVWStr@@H@Z DD imagerel ?SubAnimName@BerconNoise@@UEAA?AVWStr@@H@Z
	DD	0ffffffffH
	DD	imagerel ?SubAnimName@BerconNoise@@UEAA?AVWStr@@H@Z+65
	DD	00H
	DD	imagerel ?SubAnimName@BerconNoise@@UEAA?AVWStr@@H@Z+68
	DD	0ffffffffH
	DD	imagerel ?SubAnimName@BerconNoise@@UEAA?AVWStr@@H@Z+162
	DD	00H
xdata	ENDS
;	COMDAT xdata
xdata	SEGMENT
$stateUnwindMap$?SubAnimName@BerconNoise@@UEAA?AVWStr@@H@Z DD 0ffffffffH
	DD	imagerel ?dtor$0@?0??SubAnimName@BerconNoise@@UEAA?AVWStr@@H@Z@4HA
xdata	ENDS
;	COMDAT CONST
CONST	SEGMENT
$cppxdata$?SubAnimName@BerconNoise@@UEAA?AVWStr@@H@Z DD 019930522H
	DD	01H
	DD	imagerel $stateUnwindMap$?SubAnimName@BerconNoise@@UEAA?AVWStr@@H@Z
	DD	00H
	DD	00H
	DD	04H
	DD	imagerel $ip2state$?SubAnimName@BerconNoise@@UEAA?AVWStr@@H@Z
	DD	028H
	DD	00H
	DD	00H
CONST	ENDS
;	COMDAT xdata
xdata	SEGMENT
$unwind$?SubAnimName@BerconNoise@@UEAA?AVWStr@@H@Z DD 021311H
	DD	03006520aH
	DD	imagerel __CxxFrameHandler3
	DD	imagerel $cppxdata$?SubAnimName@BerconNoise@@UEAA?AVWStr@@H@Z
xdata	ENDS
;	COMDAT xdata
xdata	SEGMENT
$ip2state$?Clone@BerconNoise@@UEAAPEAVReferenceTarget@@AEAVRemapDir@@@Z DD imagerel ?Clone@BerconNoise@@UEAAPEAVReferenceTarget@@AEAVRemapDir@@@Z
	DD	0ffffffffH
	DD	imagerel ?Clone@BerconNoise@@UEAAPEAVReferenceTarget@@AEAVRemapDir@@@Z+60
	DD	00H
	DD	imagerel ?Clone@BerconNoise@@UEAAPEAVReferenceTarget@@AEAVRemapDir@@@Z+80
	DD	0ffffffffH
xdata	ENDS
;	COMDAT xdata
xdata	SEGMENT
$stateUnwindMap$?Clone@BerconNoise@@UEAAPEAVReferenceTarget@@AEAVRemapDir@@@Z DD 0ffffffffH
	DD	imagerel ?dtor$0@?0??Clone@BerconNoise@@UEAAPEAVReferenceTarget@@AEAVRemapDir@@@Z@4HA
xdata	ENDS
;	COMDAT CONST
CONST	SEGMENT
$cppxdata$?Clone@BerconNoise@@UEAAPEAVReferenceTarget@@AEAVRemapDir@@@Z DD 019930522H
	DD	01H
	DD	imagerel $stateUnwindMap$?Clone@BerconNoise@@UEAAPEAVReferenceTarget@@AEAVRemapDir@@@Z
	DD	00H
	DD	00H
	DD	03H
	DD	imagerel $ip2state$?Clone@BerconNoise@@UEAAPEAVReferenceTarget@@AEAVRemapDir@@@Z
	DD	020H
	DD	00H
	DD	00H
CONST	ENDS
;	COMDAT xdata
xdata	SEGMENT
$unwind$?Clone@BerconNoise@@UEAAPEAVReferenceTarget@@AEAVRemapDir@@@Z DD 0c2611H
	DD	0f6426H
	DD	0e5421H
	DD	0d341cH
	DD	0f00a520eH
	DD	0d006e008H
	DD	07002c004H
	DD	imagerel __CxxFrameHandler3
	DD	imagerel $cppxdata$?Clone@BerconNoise@@UEAAPEAVReferenceTarget@@AEAVRemapDir@@@Z
xdata	ENDS
;	COMDAT xdata
xdata	SEGMENT
$unwind$?GetClassName@BerconNoise@@UEAAXAEAVWStr@@@Z DD 020601H
	DD	030023206H
xdata	ENDS
;	COMDAT xdata
xdata	SEGMENT
$chain$6$?EvalNormalPerturb@BerconNoise@@UEAA?AVPoint3@@AEAVShadeContext@@@Z DD 021H
	DD	imagerel $LN110+229
	DD	imagerel $LN110+236
	DD	imagerel $chain$2$?EvalNormalPerturb@BerconNoise@@UEAA?AVPoint3@@AEAVShadeContext@@@Z
xdata	ENDS
;	COMDAT xdata
xdata	SEGMENT
$chain$5$?EvalNormalPerturb@BerconNoise@@UEAA?AVPoint3@@AEAVShadeContext@@@Z DD 069b21H
	DD	013889bH
	DD	0129812H
	DD	0156809H
	DD	imagerel $LN110+229
	DD	imagerel $LN110+236
	DD	imagerel $chain$2$?EvalNormalPerturb@BerconNoise@@UEAA?AVPoint3@@AEAVShadeContext@@@Z
xdata	ENDS
;	COMDAT xdata
xdata	SEGMENT
$chain$2$?EvalNormalPerturb@BerconNoise@@UEAA?AVPoint3@@AEAVShadeContext@@@Z DD 021H
	DD	imagerel $LN110
	DD	imagerel $LN110+51
	DD	imagerel $unwind$?EvalNormalPerturb@BerconNoise@@UEAA?AVPoint3@@AEAVShadeContext@@@Z
xdata	ENDS
;	COMDAT xdata
xdata	SEGMENT
$chain$1$?EvalNormalPerturb@BerconNoise@@UEAA?AVPoint3@@AEAVShadeContext@@@Z DD 040821H
	DD	0317408H
	DD	0306404H
	DD	imagerel $LN110
	DD	imagerel $LN110+51
	DD	imagerel $unwind$?EvalNormalPerturb@BerconNoise@@UEAA?AVPoint3@@AEAVShadeContext@@@Z
xdata	ENDS
;	COMDAT xdata
xdata	SEGMENT
$unwind$?EvalNormalPerturb@BerconNoise@@UEAA?AVPoint3@@AEAVShadeContext@@@Z DD 092401H
	DD	0147824H
	DD	0323417H
	DD	02c0117H
	DD	0e00af00cH
	DD	05008H
xdata	ENDS
;	COMDAT xdata
xdata	SEGMENT
$unwind$?EvalMono@BerconNoise@@UEAAMAEAVShadeContext@@@Z DD 010401H
	DD	06204H
xdata	ENDS
;	COMDAT xdata
xdata	SEGMENT
$chain$6$?EvalColor@BerconNoise@@UEAA?AVAColor@@AEAVShadeContext@@@Z DD 021H
	DD	imagerel $LN80
	DD	imagerel $LN80+224
	DD	imagerel $unwind$?EvalColor@BerconNoise@@UEAA?AVAColor@@AEAVShadeContext@@@Z
xdata	ENDS
;	COMDAT xdata
xdata	SEGMENT
$chain$5$?EvalColor@BerconNoise@@UEAA?AVAColor@@AEAVShadeContext@@@Z DD 0c3621H
	DD	010b836H
	DD	011a82dH
	DD	0129824H
	DD	013881bH
	DD	0147812H
	DD	0156809H
	DD	imagerel $LN80
	DD	imagerel $LN80+224
	DD	imagerel $unwind$?EvalColor@BerconNoise@@UEAA?AVAColor@@AEAVShadeContext@@@Z
xdata	ENDS
;	COMDAT xdata
xdata	SEGMENT
$unwind$?EvalColor@BerconNoise@@UEAA?AVAColor@@AEAVShadeContext@@@Z DD 091c01H
	DD	030741cH
	DD	02f641cH
	DD	02e341cH
	DD	02c011cH
	DD	05010H
xdata	ENDS
;	COMDAT xdata
xdata	SEGMENT
$unwind$?dtor$0@?0??GetSubTexmapSlotName@BerconNoise@@UEAA?AVWStr@@H@Z@4HA DD 020601H
	DD	050023206H
xdata	ENDS
;	COMDAT xdata
xdata	SEGMENT
$ip2state$?GetSubTexmapSlotName@BerconNoise@@UEAA?AVWStr@@H@Z DD imagerel ?GetSubTexmapSlotName@BerconNoise@@UEAA?AVWStr@@H@Z
	DD	0ffffffffH
	DD	imagerel ?GetSubTexmapSlotName@BerconNoise@@UEAA?AVWStr@@H@Z+60
	DD	00H
	DD	imagerel ?GetSubTexmapSlotName@BerconNoise@@UEAA?AVWStr@@H@Z+62
	DD	0ffffffffH
	DD	imagerel ?GetSubTexmapSlotName@BerconNoise@@UEAA?AVWStr@@H@Z+385
	DD	00H
xdata	ENDS
;	COMDAT xdata
xdata	SEGMENT
$stateUnwindMap$?GetSubTexmapSlotName@BerconNoise@@UEAA?AVWStr@@H@Z DD 0ffffffffH
	DD	imagerel ?dtor$0@?0??GetSubTexmapSlotName@BerconNoise@@UEAA?AVWStr@@H@Z@4HA
xdata	ENDS
;	COMDAT CONST
CONST	SEGMENT
$cppxdata$?GetSubTexmapSlotName@BerconNoise@@UEAA?AVWStr@@H@Z DD 019930522H
	DD	01H
	DD	imagerel $stateUnwindMap$?GetSubTexmapSlotName@BerconNoise@@UEAA?AVWStr@@H@Z
	DD	00H
	DD	00H
	DD	04H
	DD	imagerel $ip2state$?GetSubTexmapSlotName@BerconNoise@@UEAA?AVWStr@@H@Z
	DD	028H
	DD	00H
	DD	00H
CONST	ENDS
;	COMDAT xdata
xdata	SEGMENT
$unwind$?GetSubTexmapSlotName@BerconNoise@@UEAA?AVWStr@@H@Z DD 021311H
	DD	03006520aH
	DD	imagerel __CxxFrameHandler3
	DD	imagerel $cppxdata$?GetSubTexmapSlotName@BerconNoise@@UEAA?AVWStr@@H@Z
xdata	ENDS
;	COMDAT xdata
xdata	SEGMENT
$unwind$?SetSubTexmap@BerconNoise@@UEAAXHPEAVTexmap@@@Z DD 040a01H
	DD	06340aH
	DD	07006320aH
xdata	ENDS
;	COMDAT xdata
xdata	SEGMENT
$unwind$?Validity@BerconNoise@@UEAA?AVInterval@@H@Z DD 040a01H
	DD	07340aH
	DD	07006320aH
xdata	ENDS
;	COMDAT xdata
xdata	SEGMENT
$chain$3$?Reset@BerconNoise@@UEAAXXZ DD 021H
	DD	imagerel $LN30
	DD	imagerel $LN30+168
	DD	imagerel $unwind$?Reset@BerconNoise@@UEAAXXZ
xdata	ENDS
;	COMDAT xdata
xdata	SEGMENT
$chain$2$?Reset@BerconNoise@@UEAAXXZ DD 061721H
	DD	058817H
	DD	067811H
	DD	0123408H
	DD	imagerel $LN30
	DD	imagerel $LN30+168
	DD	imagerel $unwind$?Reset@BerconNoise@@UEAAXXZ
xdata	ENDS
;	COMDAT xdata
xdata	SEGMENT
$unwind$?Reset@BerconNoise@@UEAAXXZ DD 081301H
	DD	0146413H
	DD	0135413H
	DD	0f00fd213H
	DD	0700be00dH
xdata	ENDS
;	COMDAT xdata
xdata	SEGMENT
$chain$5$?Update@BerconNoise@@UEAAXHAEAVInterval@@@Z DD 021H
	DD	imagerel $LN59
	DD	imagerel $LN59+31
	DD	imagerel $unwind$?Update@BerconNoise@@UEAAXHAEAVInterval@@@Z
xdata	ENDS
;	COMDAT xdata
xdata	SEGMENT
$chain$4$?Update@BerconNoise@@UEAAXHAEAVInterval@@@Z DD 021H
	DD	imagerel $LN59+31
	DD	imagerel $LN59+60
	DD	imagerel $chain$0$?Update@BerconNoise@@UEAAXHAEAVInterval@@@Z
xdata	ENDS
;	COMDAT xdata
xdata	SEGMENT
$chain$3$?Update@BerconNoise@@UEAAXHAEAVInterval@@@Z DD 062321H
	DD	06e423H
	DD	07c41eH
	DD	0d3405H
	DD	imagerel $LN59+31
	DD	imagerel $LN59+60
	DD	imagerel $chain$0$?Update@BerconNoise@@UEAAXHAEAVInterval@@@Z
xdata	ENDS
;	COMDAT xdata
xdata	SEGMENT
$chain$0$?Update@BerconNoise@@UEAAXHAEAVInterval@@@Z DD 020521H
	DD	0e6405H
	DD	imagerel $LN59
	DD	imagerel $LN59+31
	DD	imagerel $unwind$?Update@BerconNoise@@UEAAXHAEAVInterval@@@Z
xdata	ENDS
;	COMDAT xdata
xdata	SEGMENT
$unwind$?Update@BerconNoise@@UEAAXHAEAVInterval@@@Z DD 040901H
	DD	0f0057209H
	DD	050027003H
xdata	ENDS
;	COMDAT xdata
xdata	SEGMENT
$unwind$?SetDlgThing@BerconNoise@@UEAAHPEAVParamDlg@@@Z DD 010401H
	DD	04204H
xdata	ENDS
;	COMDAT xdata
xdata	SEGMENT
$ip2state$?CreateParamDlg@BerconNoise@@UEAAPEAVParamDlg@@PEAUHWND__@@PEAVIMtlParams@@@Z DD imagerel ?CreateParamDlg@BerconNoise@@UEAAPEAVParamDlg@@PEAUHWND__@@PEAVIMtlParams@@@Z
	DD	0ffffffffH
	DD	imagerel ?CreateParamDlg@BerconNoise@@UEAAPEAVParamDlg@@PEAUHWND__@@PEAVIMtlParams@@@Z+117
	DD	00H
	DD	imagerel ?CreateParamDlg@BerconNoise@@UEAAPEAVParamDlg@@PEAUHWND__@@PEAVIMtlParams@@@Z+132
	DD	01H
	DD	imagerel ?CreateParamDlg@BerconNoise@@UEAAPEAVParamDlg@@PEAUHWND__@@PEAVIMtlParams@@@Z+146
	DD	0ffffffffH
	DD	imagerel ?CreateParamDlg@BerconNoise@@UEAAPEAVParamDlg@@PEAUHWND__@@PEAVIMtlParams@@@Z+180
	DD	02H
	DD	imagerel ?CreateParamDlg@BerconNoise@@UEAAPEAVParamDlg@@PEAUHWND__@@PEAVIMtlParams@@@Z+188
	DD	03H
	DD	imagerel ?CreateParamDlg@BerconNoise@@UEAAPEAVParamDlg@@PEAUHWND__@@PEAVIMtlParams@@@Z+202
	DD	0ffffffffH
xdata	ENDS
;	COMDAT xdata
xdata	SEGMENT
$stateUnwindMap$?CreateParamDlg@BerconNoise@@UEAAPEAVParamDlg@@PEAUHWND__@@PEAVIMtlParams@@@Z DD 0ffffffffH
	DD	imagerel ?dtor$0@?0??CreateParamDlg@BerconNoise@@UEAAPEAVParamDlg@@PEAUHWND__@@PEAVIMtlParams@@@Z@4HA
	DD	00H
	DD	imagerel ?dtor$2@?0??CreateParamDlg@BerconNoise@@UEAAPEAVParamDlg@@PEAUHWND__@@PEAVIMtlParams@@@Z@4HA
	DD	0ffffffffH
	DD	imagerel ?dtor$1@?0??CreateParamDlg@BerconNoise@@UEAAPEAVParamDlg@@PEAUHWND__@@PEAVIMtlParams@@@Z@4HA
	DD	02H
	DD	imagerel ?dtor$3@?0??CreateParamDlg@BerconNoise@@UEAAPEAVParamDlg@@PEAUHWND__@@PEAVIMtlParams@@@Z@4HA
xdata	ENDS
;	COMDAT CONST
CONST	SEGMENT
$cppxdata$?CreateParamDlg@BerconNoise@@UEAAPEAVParamDlg@@PEAUHWND__@@PEAVIMtlParams@@@Z DD 019930522H
	DD	04H
	DD	imagerel $stateUnwindMap$?CreateParamDlg@BerconNoise@@UEAAPEAVParamDlg@@PEAUHWND__@@PEAVIMtlParams@@@Z
	DD	00H
	DD	00H
	DD	07H
	DD	imagerel $ip2state$?CreateParamDlg@BerconNoise@@UEAAPEAVParamDlg@@PEAUHWND__@@PEAVIMtlParams@@@Z
	DD	020H
	DD	00H
	DD	00H
CONST	ENDS
;	COMDAT xdata
xdata	SEGMENT
$unwind$?CreateParamDlg@BerconNoise@@UEAAPEAVParamDlg@@PEAUHWND__@@PEAVIMtlParams@@@Z DD 081e11H
	DD	0b741eH
	DD	0a6419H
	DD	093414H
	DD	0e0025206H
	DD	imagerel __CxxFrameHandler3
	DD	imagerel $cppxdata$?CreateParamDlg@BerconNoise@@UEAAPEAVParamDlg@@PEAUHWND__@@PEAVIMtlParams@@@Z
xdata	ENDS
;	COMDAT xdata
xdata	SEGMENT
$chain$1$?GetActiveTexHandle@BerconNoise@@UEAA_KHAEAVTexHandleMaker@@@Z DD 021H
	DD	imagerel $LN10
	DD	imagerel $LN10+107
	DD	imagerel $unwind$?GetActiveTexHandle@BerconNoise@@UEAA_KHAEAVTexHandleMaker@@@Z
xdata	ENDS
;	COMDAT xdata
xdata	SEGMENT
$chain$0$?GetActiveTexHandle@BerconNoise@@UEAA_KHAEAVTexHandleMaker@@@Z DD 020521H
	DD	0a3405H
	DD	imagerel $LN10
	DD	imagerel $LN10+107
	DD	imagerel $unwind$?GetActiveTexHandle@BerconNoise@@UEAA_KHAEAVTexHandleMaker@@@Z
xdata	ENDS
;	COMDAT xdata
xdata	SEGMENT
$unwind$?GetActiveTexHandle@BerconNoise@@UEAA_KHAEAVTexHandleMaker@@@Z DD 081501H
	DD	0d7415H
	DD	0c6415H
	DD	0b5415H
	DD	0e0117215H
xdata	ENDS
;	COMDAT xdata
xdata	SEGMENT
$unwind$?ActivateTexDisplay@BerconNoise@@UEAAXH@Z DD 020901H
	DD	030053209H
xdata	ENDS
;	COMDAT xdata
xdata	SEGMENT
$unwind$?DiscardTexHandle@BerconNoise@@QEAAXXZ DD 020601H
	DD	030023206H
xdata	ENDS
;	COMDAT xdata
xdata	SEGMENT
$chain$8$?EnableStuff@BerconNoise@@QEAAXXZ DD 021H
	DD	imagerel $LN9
	DD	imagerel $LN9+30
	DD	imagerel $unwind$?EnableStuff@BerconNoise@@QEAAXXZ
xdata	ENDS
;	COMDAT xdata
xdata	SEGMENT
$chain$7$?EnableStuff@BerconNoise@@QEAAXXZ DD 021H
	DD	imagerel $LN9+30
	DD	imagerel $LN9+65
	DD	imagerel $chain$0$?EnableStuff@BerconNoise@@QEAAXXZ
xdata	ENDS
;	COMDAT xdata
xdata	SEGMENT
$chain$6$?EnableStuff@BerconNoise@@QEAAXXZ DD 080021H
	DD	06f400H
	DD	08c400H
	DD	096400H
	DD	0e5400H
	DD	imagerel $LN9+30
	DD	imagerel $LN9+65
	DD	imagerel $chain$0$?EnableStuff@BerconNoise@@QEAAXXZ
xdata	ENDS
;	COMDAT xdata
xdata	SEGMENT
$chain$5$?EnableStuff@BerconNoise@@QEAAXXZ DD 0a2721H
	DD	06f427H
	DD	08c422H
	DD	096415H
	DD	0e5410H
	DD	0d3405H
	DD	imagerel $LN9+30
	DD	imagerel $LN9+65
	DD	imagerel $chain$0$?EnableStuff@BerconNoise@@QEAAXXZ
xdata	ENDS
;	COMDAT xdata
xdata	SEGMENT
$chain$0$?EnableStuff@BerconNoise@@QEAAXXZ DD 020521H
	DD	07e405H
	DD	imagerel $LN9
	DD	imagerel $LN9+30
	DD	imagerel $unwind$?EnableStuff@BerconNoise@@QEAAXXZ
xdata	ENDS
;	COMDAT xdata
xdata	SEGMENT
$unwind$?EnableStuff@BerconNoise@@QEAAXXZ DD 020601H
	DD	070029206H
xdata	ENDS
;	COMDAT xdata
xdata	SEGMENT
$chain$5$?applyDistortion@BerconNoise@@QEAAXAEAVShadeContext@@AEAVPoint3@@@Z DD 021H
	DD	imagerel $LN24
	DD	imagerel $LN24+59
	DD	imagerel $unwind$?applyDistortion@BerconNoise@@QEAAXAEAVShadeContext@@AEAVPoint3@@@Z
xdata	ENDS
;	COMDAT xdata
xdata	SEGMENT
$chain$4$?applyDistortion@BerconNoise@@QEAAXAEAVShadeContext@@AEAVPoint3@@@Z DD 021H
	DD	imagerel $LN24+59
	DD	imagerel $LN24+82
	DD	imagerel $chain$0$?applyDistortion@BerconNoise@@QEAAXAEAVShadeContext@@AEAVPoint3@@@Z
xdata	ENDS
;	COMDAT xdata
xdata	SEGMENT
$chain$3$?applyDistortion@BerconNoise@@QEAAXAEAVShadeContext@@AEAVPoint3@@@Z DD 061221H
	DD	048812H
	DD	05780cH
	DD	066806H
	DD	imagerel $LN24+59
	DD	imagerel $LN24+82
	DD	imagerel $chain$0$?applyDistortion@BerconNoise@@QEAAXAEAVShadeContext@@AEAVPoint3@@@Z
xdata	ENDS
;	COMDAT xdata
xdata	SEGMENT
$chain$0$?applyDistortion@BerconNoise@@QEAAXAEAVShadeContext@@AEAVPoint3@@@Z DD 020621H
	DD	039806H
	DD	imagerel $LN24
	DD	imagerel $LN24+59
	DD	imagerel $unwind$?applyDistortion@BerconNoise@@QEAAXAEAVShadeContext@@AEAVPoint3@@@Z
xdata	ENDS
;	COMDAT xdata
xdata	SEGMENT
$unwind$?applyDistortion@BerconNoise@@QEAAXAEAVShadeContext@@AEAVPoint3@@@Z DD 060f01H
	DD	011640fH
	DD	010340fH
	DD	0700bd20fH
xdata	ENDS
;	COMDAT xdata
xdata	SEGMENT
$unwind$?EvalParameters@BerconNoise@@QEAA?AVNoiseParams@@PEAVShadeContext@@@Z DD 060f01H
	DD	07640fH
	DD	06340fH
	DD	0700b320fH
xdata	ENDS
;	COMDAT xdata
xdata	SEGMENT
$chain$3$?NotifyRefChanged@BerconNoise@@UEAA?AW4RefResult@@AEBVInterval@@PEAVReferenceTarget@@AEA_KIH@Z DD 021H
	DD	imagerel $LN32
	DD	imagerel $LN32+47
	DD	imagerel $unwind$?NotifyRefChanged@BerconNoise@@UEAA?AW4RefResult@@AEBVInterval@@PEAVReferenceTarget@@AEA_KIH@Z
xdata	ENDS
;	COMDAT xdata
xdata	SEGMENT
$chain$2$?NotifyRefChanged@BerconNoise@@UEAA?AW4RefResult@@AEBVInterval@@PEAVReferenceTarget@@AEA_KIH@Z DD 020021H
	DD	063400H
	DD	imagerel $LN32
	DD	imagerel $LN32+47
	DD	imagerel $unwind$?NotifyRefChanged@BerconNoise@@UEAA?AW4RefResult@@AEBVInterval@@PEAVReferenceTarget@@AEA_KIH@Z
xdata	ENDS
;	COMDAT xdata
xdata	SEGMENT
$chain$0$?NotifyRefChanged@BerconNoise@@UEAA?AW4RefResult@@AEBVInterval@@PEAVReferenceTarget@@AEA_KIH@Z DD 020521H
	DD	063405H
	DD	imagerel $LN32
	DD	imagerel $LN32+47
	DD	imagerel $unwind$?NotifyRefChanged@BerconNoise@@UEAA?AW4RefResult@@AEBVInterval@@PEAVReferenceTarget@@AEA_KIH@Z
xdata	ENDS
;	COMDAT xdata
xdata	SEGMENT
$unwind$?NotifyRefChanged@BerconNoise@@UEAA?AW4RefResult@@AEBVInterval@@PEAVReferenceTarget@@AEA_KIH@Z DD 020601H
	DD	070023206H
xdata	ENDS
;	COMDAT xdata
xdata	SEGMENT
$unwind$??0BerconXYZ@@QEAA@XZ DD 060f01H
	DD	07640fH
	DD	06340fH
	DD	0700b320fH
xdata	ENDS
;	COMDAT xdata
xdata	SEGMENT
$ip2state$??_GBerconXYZDlgProc@@UEAAPEAXI@Z DD imagerel ??_GBerconXYZDlgProc@@UEAAPEAXI@Z
	DD	0ffffffffH
xdata	ENDS
;	COMDAT xdata
xdata	SEGMENT
$stateUnwindMap$??_GBerconXYZDlgProc@@UEAAPEAXI@Z DD 0ffffffffH
	DD	imagerel ?dtor$0@?0???_GBerconXYZDlgProc@@UEAAPEAXI@Z@4HA
xdata	ENDS
;	COMDAT CONST
CONST	SEGMENT
$cppxdata$??_GBerconXYZDlgProc@@UEAAPEAXI@Z DD 019930522H
	DD	01H
	DD	imagerel $stateUnwindMap$??_GBerconXYZDlgProc@@UEAAPEAXI@Z
	DD	00H
	DD	00H
	DD	01H
	DD	imagerel $ip2state$??_GBerconXYZDlgProc@@UEAAPEAXI@Z
	DD	020H
	DD	00H
	DD	04H
CONST	ENDS
;	COMDAT xdata
xdata	SEGMENT
$unwind$??_GBerconXYZDlgProc@@UEAAPEAXI@Z DD 021311H
	DD	03006520aH
	DD	imagerel __CxxFrameHandler3
	DD	imagerel $cppxdata$??_GBerconXYZDlgProc@@UEAAPEAXI@Z
xdata	ENDS
;	COMDAT xdata
xdata	SEGMENT
$ip2state$??1BerconXYZDlgProc@@UEAA@XZ DD imagerel ??1BerconXYZDlgProc@@UEAA@XZ
	DD	0ffffffffH
xdata	ENDS
;	COMDAT xdata
xdata	SEGMENT
$stateUnwindMap$??1BerconXYZDlgProc@@UEAA@XZ DD 0ffffffffH
	DD	imagerel ?dtor$0@?0???1BerconXYZDlgProc@@UEAA@XZ@4HA
xdata	ENDS
;	COMDAT CONST
CONST	SEGMENT
$cppxdata$??1BerconXYZDlgProc@@UEAA@XZ DD 019930522H
	DD	01H
	DD	imagerel $stateUnwindMap$??1BerconXYZDlgProc@@UEAA@XZ
	DD	00H
	DD	00H
	DD	01H
	DD	imagerel $ip2state$??1BerconXYZDlgProc@@UEAA@XZ
	DD	00H
	DD	00H
	DD	04H
CONST	ENDS
;	COMDAT xdata
xdata	SEGMENT
$unwind$??1BerconXYZDlgProc@@UEAA@XZ DD 011111H
	DD	02209H
	DD	imagerel __CxxFrameHandler3
	DD	imagerel $cppxdata$??1BerconXYZDlgProc@@UEAA@XZ
xdata	ENDS
;	COMDAT xdata
xdata	SEGMENT
$chain$1$?DlgProc@BerconXYZDlgProc@@UEAA_JHPEAVIParamMap2@@PEAUHWND__@@I_K_J@Z DD 040a21H
	DD	0df40aH
	DD	0c7405H
	DD	imagerel $LN9
	DD	imagerel $LN9+787
	DD	imagerel $unwind$?DlgProc@BerconXYZDlgProc@@UEAA_JHPEAVIParamMap2@@PEAUHWND__@@I_K_J@Z
xdata	ENDS
;	COMDAT xdata
xdata	SEGMENT
$unwind$?DlgProc@BerconXYZDlgProc@@UEAA_JHPEAVIParamMap2@@PEAUHWND__@@I_K_J@Z DD 060d01H
	DD	0e340dH
	DD	0e009720dH
	DD	050066007H
xdata	ENDS
;	COMDAT xdata
xdata	SEGMENT
$ip2state$??0BerconXYZDlgProc@@QEAA@PEAVReferenceTarget@@@Z DD imagerel ??0BerconXYZDlgProc@@QEAA@PEAVReferenceTarget@@@Z
	DD	0ffffffffH
	DD	imagerel ??0BerconXYZDlgProc@@QEAA@PEAVReferenceTarget@@@Z+27
	DD	00H
	DD	imagerel ??0BerconXYZDlgProc@@QEAA@PEAVReferenceTarget@@@Z+41
	DD	0ffffffffH
xdata	ENDS
;	COMDAT xdata
xdata	SEGMENT
$stateUnwindMap$??0BerconXYZDlgProc@@QEAA@PEAVReferenceTarget@@@Z DD 0ffffffffH
	DD	imagerel ?dtor$0@?0???0BerconXYZDlgProc@@QEAA@PEAVReferenceTarget@@@Z@4HA
xdata	ENDS
;	COMDAT CONST
CONST	SEGMENT
$cppxdata$??0BerconXYZDlgProc@@QEAA@PEAVReferenceTarget@@@Z DD 019930522H
	DD	01H
	DD	imagerel $stateUnwindMap$??0BerconXYZDlgProc@@QEAA@PEAVReferenceTarget@@@Z
	DD	00H
	DD	00H
	DD	03H
	DD	imagerel $ip2state$??0BerconXYZDlgProc@@QEAA@PEAVReferenceTarget@@@Z
	DD	00H
	DD	00H
	DD	00H
CONST	ENDS
;	COMDAT xdata
xdata	SEGMENT
$unwind$??0BerconXYZDlgProc@@QEAA@PEAVReferenceTarget@@@Z DD 011111H
	DD	02209H
	DD	imagerel __CxxFrameHandler3
	DD	imagerel $cppxdata$??0BerconXYZDlgProc@@QEAA@PEAVReferenceTarget@@@Z
xdata	ENDS
;	COMDAT xdata
xdata	SEGMENT
$ip2state$??_GXYZ_Desc@@UEAAPEAXI@Z DD imagerel ??_GXYZ_Desc@@UEAAPEAXI@Z
	DD	0ffffffffH
xdata	ENDS
;	COMDAT xdata
xdata	SEGMENT
$stateUnwindMap$??_GXYZ_Desc@@UEAAPEAXI@Z DD 0ffffffffH
	DD	imagerel ?dtor$0@?0???_GXYZ_Desc@@UEAAPEAXI@Z@4HA
xdata	ENDS
;	COMDAT CONST
CONST	SEGMENT
$cppxdata$??_GXYZ_Desc@@UEAAPEAXI@Z DD 019930522H
	DD	01H
	DD	imagerel $stateUnwindMap$??_GXYZ_Desc@@UEAAPEAXI@Z
	DD	00H
	DD	00H
	DD	01H
	DD	imagerel $ip2state$??_GXYZ_Desc@@UEAAPEAXI@Z
	DD	020H
	DD	00H
	DD	04H
CONST	ENDS
;	COMDAT xdata
xdata	SEGMENT
$unwind$??_GXYZ_Desc@@UEAAPEAXI@Z DD 041811H
	DD	093418H
	DD	07006520aH
	DD	imagerel __CxxFrameHandler3
	DD	imagerel $cppxdata$??_GXYZ_Desc@@UEAAPEAXI@Z
xdata	ENDS
;	COMDAT xdata
xdata	SEGMENT
$ip2state$??1XYZ_Desc@@UEAA@XZ DD imagerel ??1XYZ_Desc@@UEAA@XZ
	DD	0ffffffffH
xdata	ENDS
;	COMDAT xdata
xdata	SEGMENT
$stateUnwindMap$??1XYZ_Desc@@UEAA@XZ DD 0ffffffffH
	DD	imagerel ?dtor$0@?0???1XYZ_Desc@@UEAA@XZ@4HA
xdata	ENDS
;	COMDAT CONST
CONST	SEGMENT
$cppxdata$??1XYZ_Desc@@UEAA@XZ DD 019930522H
	DD	01H
	DD	imagerel $stateUnwindMap$??1XYZ_Desc@@UEAA@XZ
	DD	00H
	DD	00H
	DD	01H
	DD	imagerel $ip2state$??1XYZ_Desc@@UEAA@XZ
	DD	020H
	DD	00H
	DD	04H
CONST	ENDS
;	COMDAT xdata
xdata	SEGMENT
$unwind$??1XYZ_Desc@@UEAA@XZ DD 011211H
	DD	06209H
	DD	imagerel __CxxFrameHandler3
	DD	imagerel $cppxdata$??1XYZ_Desc@@UEAA@XZ
xdata	ENDS
;	COMDAT xdata
xdata	SEGMENT
$ip2state$??0XYZ_Desc@@QEAA@PEAVClassDesc2@@HHHHHHH@Z DD imagerel ??0XYZ_Desc@@QEAA@PEAVClassDesc2@@HHHHHHH@Z
	DD	0ffffffffH
	DD	imagerel ??0XYZ_Desc@@QEAA@PEAVClassDesc2@@HHHHHHH@Z+4794
	DD	00H
	DD	imagerel ??0XYZ_Desc@@QEAA@PEAVClassDesc2@@HHHHHHH@Z+4804
	DD	0ffffffffH
xdata	ENDS
;	COMDAT xdata
xdata	SEGMENT
$stateUnwindMap$??0XYZ_Desc@@QEAA@PEAVClassDesc2@@HHHHHHH@Z DD 0ffffffffH
	DD	imagerel ?dtor$0@?0???0XYZ_Desc@@QEAA@PEAVClassDesc2@@HHHHHHH@Z@4HA
xdata	ENDS
;	COMDAT CONST
CONST	SEGMENT
$cppxdata$??0XYZ_Desc@@QEAA@PEAVClassDesc2@@HHHHHHH@Z DD 019930522H
	DD	01H
	DD	imagerel $stateUnwindMap$??0XYZ_Desc@@QEAA@PEAVClassDesc2@@HHHHHHH@Z
	DD	00H
	DD	00H
	DD	03H
	DD	imagerel $ip2state$??0XYZ_Desc@@QEAA@PEAVClassDesc2@@HHHHHHH@Z
	DD	0e70H
	DD	00H
	DD	00H
CONST	ENDS
;	COMDAT xdata
xdata	SEGMENT
$unwind$??0XYZ_Desc@@QEAA@PEAVClassDesc2@@HHHHHHH@Z DD 031711H
	DD	01d0010fH
	DD	03008H
	DD	imagerel __CxxFrameHandler3
	DD	imagerel $cppxdata$??0XYZ_Desc@@QEAA@PEAVClassDesc2@@HHHHHHH@Z
xdata	ENDS
;	COMDAT xdata
xdata	SEGMENT
$unwind$??_GParamMap2UserDlgProc@@UEAAPEAXI@Z DD 020601H
	DD	030023206H
xdata	ENDS
;	COMDAT xdata
xdata	SEGMENT
$ip2state$??0VertexNormalsControl@@QEAA@XZ DD imagerel ??0VertexNormalsControl@@QEAA@XZ
	DD	0ffffffffH
xdata	ENDS
;	COMDAT xdata
xdata	SEGMENT
$stateUnwindMap$??0VertexNormalsControl@@QEAA@XZ DD 0ffffffffH
	DD	imagerel ?dtor$0@?0???0VertexNormalsControl@@QEAA@XZ@4HA
xdata	ENDS
;	COMDAT CONST
CONST	SEGMENT
$cppxdata$??0VertexNormalsControl@@QEAA@XZ DD 019930522H
	DD	01H
	DD	imagerel $stateUnwindMap$??0VertexNormalsControl@@QEAA@XZ
	DD	00H
	DD	00H
	DD	01H
	DD	imagerel $ip2state$??0VertexNormalsControl@@QEAA@XZ
	DD	00H
	DD	00H
	DD	00H
CONST	ENDS
;	COMDAT xdata
xdata	SEGMENT
$unwind$??0VertexNormalsControl@@QEAA@XZ DD 011111H
	DD	02209H
	DD	imagerel __CxxFrameHandler3
	DD	imagerel $cppxdata$??0VertexNormalsControl@@QEAA@XZ
xdata	ENDS
;	COMDAT xdata
xdata	SEGMENT
$ip2state$??1?$Tab@PEAVVertexNormalsCallback@@@@QEAA@XZ DD imagerel ??1?$Tab@PEAVVertexNormalsCallback@@@@QEAA@XZ
	DD	0ffffffffH
xdata	ENDS
;	COMDAT CONST
CONST	SEGMENT
$cppxdata$??1?$Tab@PEAVVertexNormalsCallback@@@@QEAA@XZ DD 019930522H
	DD	00H
	DD	00H
	DD	00H
	DD	00H
	DD	01H
	DD	imagerel $ip2state$??1?$Tab@PEAVVertexNormalsCallback@@@@QEAA@XZ
	DD	020H
	DD	00H
	DD	04H
CONST	ENDS
;	COMDAT xdata
xdata	SEGMENT
$unwind$??1?$Tab@PEAVVertexNormalsCallback@@@@QEAA@XZ DD 010d19H
	DD	06204H
	DD	imagerel __CxxFrameHandler3
	DD	imagerel $cppxdata$??1?$Tab@PEAVVertexNormalsCallback@@@@QEAA@XZ
xdata	ENDS
;	COMDAT xdata
xdata	SEGMENT
$ip2state$??1Texmap@@UEAA@XZ DD imagerel ??1Texmap@@UEAA@XZ
	DD	0ffffffffH
xdata	ENDS
;	COMDAT xdata
xdata	SEGMENT
$stateUnwindMap$??1Texmap@@UEAA@XZ DD 0ffffffffH
	DD	imagerel ?dtor$0@?0???1Texmap@@UEAA@XZ@4HA
xdata	ENDS
;	COMDAT CONST
CONST	SEGMENT
$cppxdata$??1Texmap@@UEAA@XZ DD 019930522H
	DD	01H
	DD	imagerel $stateUnwindMap$??1Texmap@@UEAA@XZ
	DD	00H
	DD	00H
	DD	01H
	DD	imagerel $ip2state$??1Texmap@@UEAA@XZ
	DD	020H
	DD	00H
	DD	04H
CONST	ENDS
;	COMDAT xdata
xdata	SEGMENT
$unwind$??1Texmap@@UEAA@XZ DD 011211H
	DD	06209H
	DD	imagerel __CxxFrameHandler3
	DD	imagerel $cppxdata$??1Texmap@@UEAA@XZ
xdata	ENDS
;	COMDAT xdata
xdata	SEGMENT
$unwind$?GetInterface@MtlBase@@UEAAPEAVBaseInterface@@VInterface_ID@@@Z DD 010401H
	DD	04204H
xdata	ENDS
;	COMDAT xdata
xdata	SEGMENT
$unwind$?Set@BitArray@@QEAAXH@Z DD 040a01H
	DD	06340aH
	DD	07006320aH
xdata	ENDS
;	COMDAT xdata
xdata	SEGMENT
$unwind$?GetInterfaceAt@ClassDesc@@UEAAPEAVFPInterface@@H@Z DD 040a01H
	DD	08340aH
	DD	07006520aH
xdata	ENDS
;	COMDAT xdata
xdata	SEGMENT
$unwind$??A?$Tab@PEAVFPInterface@@@@QEBAAEAPEAVFPInterface@@_J@Z DD 040a01H
	DD	08340aH
	DD	07006520aH
xdata	ENDS
;	COMDAT xdata
xdata	SEGMENT
$unwind$?NotifyForeground@ReferenceTarget@@UEAAXH@Z DD 040a01H
	DD	0b340aH
	DD	07006720aH
xdata	ENDS
;	COMDAT xdata
xdata	SEGMENT
$unwind$?NotifyDependents@ReferenceMaker@@EEAA?AW4RefResult@@AEBVInterval@@_KIKHPEAVReferenceTarget@@@Z DD 010401H
	DD	04204H
xdata	ENDS
;	COMDAT xdata
xdata	SEGMENT
$unwind$?IsSubClassOf@Animatable@@UEAAHVClass_ID@@@Z DD 020601H
	DD	030023206H
xdata	ENDS
;	COMDAT xdata
xdata	SEGMENT
$unwind$??_4Interval@@QEAAAEAV0@V0@@Z DD 020601H
	DD	030023206H
xdata	ENDS
;	COMDAT xdata
xdata	SEGMENT
$ip2state$??_GTabOutOfRangeException@Util@MaxSDK@@UEAAPEAXI@Z DD imagerel ??_GTabOutOfRangeException@Util@MaxSDK@@UEAAPEAXI@Z
	DD	0ffffffffH
xdata	ENDS
;	COMDAT xdata
xdata	SEGMENT
$stateUnwindMap$??_GTabOutOfRangeException@Util@MaxSDK@@UEAAPEAXI@Z DD 0ffffffffH
	DD	imagerel ?dtor$0@?0???_GTabOutOfRangeException@Util@MaxSDK@@UEAAPEAXI@Z@4HA
	DD	0ffffffffH
	DD	imagerel ?dtor$1@?0???_GTabOutOfRangeException@Util@MaxSDK@@UEAAPEAXI@Z@4HA
xdata	ENDS
;	COMDAT CONST
CONST	SEGMENT
$cppxdata$??_GTabOutOfRangeException@Util@MaxSDK@@UEAAPEAXI@Z DD 019930522H
	DD	02H
	DD	imagerel $stateUnwindMap$??_GTabOutOfRangeException@Util@MaxSDK@@UEAAPEAXI@Z
	DD	00H
	DD	00H
	DD	01H
	DD	imagerel $ip2state$??_GTabOutOfRangeException@Util@MaxSDK@@UEAAPEAXI@Z
	DD	020H
	DD	00H
	DD	04H
CONST	ENDS
;	COMDAT xdata
xdata	SEGMENT
$unwind$??_GTabOutOfRangeException@Util@MaxSDK@@UEAAPEAXI@Z DD 041811H
	DD	093418H
	DD	07006520aH
	DD	imagerel __CxxFrameHandler3
	DD	imagerel $cppxdata$??_GTabOutOfRangeException@Util@MaxSDK@@UEAAPEAXI@Z
xdata	ENDS
;	COMDAT xdata
xdata	SEGMENT
$ip2state$??0TabOutOfRangeException@Util@MaxSDK@@QEAA@AEBV012@@Z DD imagerel ??0TabOutOfRangeException@Util@MaxSDK@@QEAA@AEBV012@@Z
	DD	0ffffffffH
	DD	imagerel ??0TabOutOfRangeException@Util@MaxSDK@@QEAA@AEBV012@@Z+29
	DD	00H
	DD	imagerel ??0TabOutOfRangeException@Util@MaxSDK@@QEAA@AEBV012@@Z+39
	DD	01H
	DD	imagerel ??0TabOutOfRangeException@Util@MaxSDK@@QEAA@AEBV012@@Z+49
	DD	0ffffffffH
xdata	ENDS
;	COMDAT xdata
xdata	SEGMENT
$stateUnwindMap$??0TabOutOfRangeException@Util@MaxSDK@@QEAA@AEBV012@@Z DD 0ffffffffH
	DD	imagerel ?dtor$1@?0???0TabOutOfRangeException@Util@MaxSDK@@QEAA@AEBV012@@Z@4HA
	DD	0ffffffffH
	DD	imagerel ?dtor$0@?0???0TabOutOfRangeException@Util@MaxSDK@@QEAA@AEBV012@@Z@4HA
xdata	ENDS
;	COMDAT CONST
CONST	SEGMENT
$cppxdata$??0TabOutOfRangeException@Util@MaxSDK@@QEAA@AEBV012@@Z DD 019930522H
	DD	02H
	DD	imagerel $stateUnwindMap$??0TabOutOfRangeException@Util@MaxSDK@@QEAA@AEBV012@@Z
	DD	00H
	DD	00H
	DD	04H
	DD	imagerel $ip2state$??0TabOutOfRangeException@Util@MaxSDK@@QEAA@AEBV012@@Z
	DD	020H
	DD	00H
	DD	00H
CONST	ENDS
;	COMDAT xdata
xdata	SEGMENT
$unwind$??0TabOutOfRangeException@Util@MaxSDK@@QEAA@AEBV012@@Z DD 021311H
	DD	03006520aH
	DD	imagerel __CxxFrameHandler3
	DD	imagerel $cppxdata$??0TabOutOfRangeException@Util@MaxSDK@@QEAA@AEBV012@@Z
xdata	ENDS
;	COMDAT xdata
xdata	SEGMENT
$ip2state$??1TabOutOfRangeException@Util@MaxSDK@@UEAA@XZ DD imagerel ??1TabOutOfRangeException@Util@MaxSDK@@UEAA@XZ
	DD	0ffffffffH
xdata	ENDS
;	COMDAT xdata
xdata	SEGMENT
$stateUnwindMap$??1TabOutOfRangeException@Util@MaxSDK@@UEAA@XZ DD 0ffffffffH
	DD	imagerel ?dtor$0@?0???1TabOutOfRangeException@Util@MaxSDK@@UEAA@XZ@4HA
	DD	0ffffffffH
	DD	imagerel ?dtor$1@?0???1TabOutOfRangeException@Util@MaxSDK@@UEAA@XZ@4HA
xdata	ENDS
;	COMDAT CONST
CONST	SEGMENT
$cppxdata$??1TabOutOfRangeException@Util@MaxSDK@@UEAA@XZ DD 019930522H
	DD	02H
	DD	imagerel $stateUnwindMap$??1TabOutOfRangeException@Util@MaxSDK@@UEAA@XZ
	DD	00H
	DD	00H
	DD	01H
	DD	imagerel $ip2state$??1TabOutOfRangeException@Util@MaxSDK@@UEAA@XZ
	DD	020H
	DD	00H
	DD	04H
CONST	ENDS
;	COMDAT xdata
xdata	SEGMENT
$unwind$??1TabOutOfRangeException@Util@MaxSDK@@UEAA@XZ DD 011211H
	DD	06209H
	DD	imagerel __CxxFrameHandler3
	DD	imagerel $cppxdata$??1TabOutOfRangeException@Util@MaxSDK@@UEAA@XZ
xdata	ENDS
;	COMDAT xdata
xdata	SEGMENT
$ip2state$??0TabOutOfRangeException@Util@MaxSDK@@QEAA@PEB_W@Z DD imagerel ??0TabOutOfRangeException@Util@MaxSDK@@QEAA@PEB_W@Z
	DD	0ffffffffH
	DD	imagerel ??0TabOutOfRangeException@Util@MaxSDK@@QEAA@PEB_W@Z+29
	DD	00H
	DD	imagerel ??0TabOutOfRangeException@Util@MaxSDK@@QEAA@PEB_W@Z+39
	DD	0ffffffffH
xdata	ENDS
;	COMDAT xdata
xdata	SEGMENT
$stateUnwindMap$??0TabOutOfRangeException@Util@MaxSDK@@QEAA@PEB_W@Z DD 0ffffffffH
	DD	imagerel ?dtor$0@?0???0TabOutOfRangeException@Util@MaxSDK@@QEAA@PEB_W@Z@4HA
xdata	ENDS
;	COMDAT CONST
CONST	SEGMENT
$cppxdata$??0TabOutOfRangeException@Util@MaxSDK@@QEAA@PEB_W@Z DD 019930522H
	DD	01H
	DD	imagerel $stateUnwindMap$??0TabOutOfRangeException@Util@MaxSDK@@QEAA@PEB_W@Z
	DD	00H
	DD	00H
	DD	03H
	DD	imagerel $ip2state$??0TabOutOfRangeException@Util@MaxSDK@@QEAA@PEB_W@Z
	DD	020H
	DD	00H
	DD	00H
CONST	ENDS
;	COMDAT xdata
xdata	SEGMENT
$unwind$??0TabOutOfRangeException@Util@MaxSDK@@QEAA@PEB_W@Z DD 021311H
	DD	03006520aH
	DD	imagerel __CxxFrameHandler3
	DD	imagerel $cppxdata$??0TabOutOfRangeException@Util@MaxSDK@@QEAA@PEB_W@Z
xdata	ENDS
;	COMDAT xdata
xdata	SEGMENT
$unwind$??_H@YAXPEAX_K1P6APEAX0@Z@Z DD 081901H
	DD	086419H
	DD	075419H
	DD	063419H
	DD	070153219H
xdata	ENDS
CRT$XCU	SEGMENT
?BerconNoiseDesc$initializer$@@3P6AXXZEA DQ FLAT:??__EBerconNoiseDesc@@YAXXZ ; BerconNoiseDesc$initializer$
CRT$XCU	ENDS
CRT$XCU	SEGMENT
?xyz_blk$initializer$@@3P6AXXZEA DQ FLAT:??__Exyz_blk@@YAXXZ ; xyz_blk$initializer$
CRT$XCU	ENDS
CRT$XCU	SEGMENT
?berconnoise_param_blk$initializer$@@3P6AXXZEA DQ FLAT:??__Eberconnoise_param_blk@@YAXXZ ; berconnoise_param_blk$initializer$
CRT$XCU	ENDS
CRT$XCU	SEGMENT
?BerconMap_param_blk$initializer$@@3P6AXXZEA DQ FLAT:??__EBerconMap_param_blk@@YAXXZ ; BerconMap_param_blk$initializer$
CRT$XCU	ENDS
; Function compile flags: /Odsp
;	COMDAT ?GetInterface@BerconNoise@@WJA@EAAPEAXK@Z
_TEXT	SEGMENT
?GetInterface@BerconNoise@@WJA@EAAPEAXK@Z PROC		; [thunk]:BerconNoise::GetInterface`adjustor{144}', COMDAT
	sub	rcx, 144				; 00000090H
	jmp	?GetInterface@BerconNoise@@UEAAPEAXK@Z	; BerconNoise::GetInterface
?GetInterface@BerconNoise@@WJA@EAAPEAXK@Z ENDP		; [thunk]:BerconNoise::GetInterface`adjustor{144}'
_TEXT	ENDS
; Function compile flags: /Odsp
;	COMDAT ??_EBerconNoise@@WEA@EAAPEAXI@Z
_TEXT	SEGMENT
??_EBerconNoise@@WEA@EAAPEAXI@Z PROC			; [thunk]:BerconNoise::`vector deleting destructor', COMDAT
	sub	rcx, 64					; 00000040H
	jmp	??_EBerconNoise@@UEAAPEAXI@Z
??_EBerconNoise@@WEA@EAAPEAXI@Z ENDP			; [thunk]:BerconNoise::`vector deleting destructor'
_TEXT	ENDS
; Function compile flags: /Ogtp
; File c:\program files\autodesk\3ds max 2019 sdk\maxsdk\include\iparamm2.h
;	COMDAT ??_GBerconNoiseDlgProc@@UEAAPEAXI@Z
_TEXT	SEGMENT
$T1 = 32
this$ = 64
__flags$ = 72
??_GBerconNoiseDlgProc@@UEAAPEAXI@Z PROC		; BerconNoiseDlgProc::`scalar deleting destructor', COMDAT
$LN15:
	mov	QWORD PTR [rsp+8], rcx
	push	rbx
	sub	rsp, 48					; 00000030H
	mov	QWORD PTR $T1[rsp], -2
	mov	rbx, rcx

; 59   : 		virtual ~ParamMap2UserDlgProc() { }

	lea	rax, OFFSET FLAT:??_7ParamMap2UserDlgProc@@6B@
	mov	QWORD PTR [rcx], rax
	test	dl, 1
	je	SHORT $LN12@scalar
	test	dl, 4
	jne	SHORT $LN3@scalar
	call	QWORD PTR __imp_??3MaxHeapOperators@@SAXPEAX@Z
	npad	1
	mov	rax, rbx
	add	rsp, 48					; 00000030H
	pop	rbx
	ret	0
$LN3@scalar:
	mov	edx, 16
	call	?__global_delete@@YAXPEAX_K@Z		; __global_delete
	npad	1
$LN12@scalar:
	mov	rax, rbx
	add	rsp, 48					; 00000030H
	pop	rbx
	ret	0
??_GBerconNoiseDlgProc@@UEAAPEAXI@Z ENDP		; BerconNoiseDlgProc::`scalar deleting destructor'
_TEXT	ENDS
;	COMDAT text$x
text$x	SEGMENT
$T1 = 32
this$ = 64
__flags$ = 72
?dtor$0@?0???_GBerconNoiseDlgProc@@UEAAPEAXI@Z@4HA PROC	; `BerconNoiseDlgProc::`scalar deleting destructor''::`1'::dtor$0
	mov	rcx, QWORD PTR this$[rdx]
	jmp	??1ParamMap2UserDlgProc@@UEAA@XZ	; ParamMap2UserDlgProc::~ParamMap2UserDlgProc
?dtor$0@?0???_GBerconNoiseDlgProc@@UEAAPEAXI@Z@4HA ENDP	; `BerconNoiseDlgProc::`scalar deleting destructor''::`1'::dtor$0
text$x	ENDS
; Function compile flags: /Ogtp
;	COMDAT text$x
text$x	SEGMENT
$T1 = 32
this$ = 64
__flags$ = 72
?dtor$0@?0???_GBerconNoiseDlgProc@@UEAAPEAXI@Z@4HA PROC	; `BerconNoiseDlgProc::`scalar deleting destructor''::`1'::dtor$0
	mov	rcx, QWORD PTR this$[rdx]
	jmp	??1ParamMap2UserDlgProc@@UEAA@XZ	; ParamMap2UserDlgProc::~ParamMap2UserDlgProc
?dtor$0@?0???_GBerconNoiseDlgProc@@UEAAPEAXI@Z@4HA ENDP	; `BerconNoiseDlgProc::`scalar deleting destructor''::`1'::dtor$0
text$x	ENDS
; Function compile flags: /Ogtp
; File c:\program files\autodesk\3ds max 2019 sdk\maxsdk\include\iparamm2.h
;	COMDAT ??1BerconNoiseDlgProc@@UEAA@XZ
_TEXT	SEGMENT
$T1 = 0
this$ = 32
??1BerconNoiseDlgProc@@UEAA@XZ PROC			; BerconNoiseDlgProc::~BerconNoiseDlgProc, COMDAT
$LN8:
	mov	QWORD PTR [rsp+8], rcx
	sub	rsp, 24
	mov	QWORD PTR $T1[rsp], -2

; 59   : 		virtual ~ParamMap2UserDlgProc() { }

	lea	rax, OFFSET FLAT:??_7ParamMap2UserDlgProc@@6B@
	mov	QWORD PTR [rcx], rax
	add	rsp, 24
	ret	0
??1BerconNoiseDlgProc@@UEAA@XZ ENDP			; BerconNoiseDlgProc::~BerconNoiseDlgProc
_TEXT	ENDS
;	COMDAT text$x
text$x	SEGMENT
$T1 = 0
this$ = 32
?dtor$0@?0???1BerconNoiseDlgProc@@UEAA@XZ@4HA PROC	; `BerconNoiseDlgProc::~BerconNoiseDlgProc'::`1'::dtor$0
	mov	rcx, QWORD PTR this$[rdx]
	jmp	??1ParamMap2UserDlgProc@@UEAA@XZ	; ParamMap2UserDlgProc::~ParamMap2UserDlgProc
?dtor$0@?0???1BerconNoiseDlgProc@@UEAA@XZ@4HA ENDP	; `BerconNoiseDlgProc::~BerconNoiseDlgProc'::`1'::dtor$0
text$x	ENDS
; Function compile flags: /Ogtp
;	COMDAT text$x
text$x	SEGMENT
$T1 = 0
this$ = 32
?dtor$0@?0???1BerconNoiseDlgProc@@UEAA@XZ@4HA PROC	; `BerconNoiseDlgProc::~BerconNoiseDlgProc'::`1'::dtor$0
	mov	rcx, QWORD PTR this$[rdx]
	jmp	??1ParamMap2UserDlgProc@@UEAA@XZ	; ParamMap2UserDlgProc::~ParamMap2UserDlgProc
?dtor$0@?0???1BerconNoiseDlgProc@@UEAA@XZ@4HA ENDP	; `BerconNoiseDlgProc::~BerconNoiseDlgProc'::`1'::dtor$0
text$x	ENDS
; Function compile flags: /Ogtp
; File g:\dropbox\github\berconmaps\src\berconnoise.cpp
;	COMDAT ?SetThing@BerconNoiseDlgProc@@UEAAXPEAVReferenceTarget@@@Z
_TEXT	SEGMENT
this$ = 8
m$ = 16
?SetThing@BerconNoiseDlgProc@@UEAAXPEAVReferenceTarget@@@Z PROC ; BerconNoiseDlgProc::SetThing, COMDAT

; 339  : 		berconNoise = (BerconNoise*)m;

	mov	QWORD PTR [rcx+8], rdx

; 340  : 		berconNoise->EnableStuff();

	mov	rcx, rdx
	jmp	?EnableStuff@BerconNoise@@QEAAXXZ	; BerconNoise::EnableStuff
?SetThing@BerconNoiseDlgProc@@UEAAXPEAVReferenceTarget@@@Z ENDP ; BerconNoiseDlgProc::SetThing
_TEXT	ENDS
; Function compile flags: /Ogtp
; File g:\dropbox\github\berconmaps\src\berconnoise.cpp
;	COMDAT ?DeleteThis@BerconNoiseDlgProc@@UEAAXXZ
_TEXT	SEGMENT
this$ = 8
?DeleteThis@BerconNoiseDlgProc@@UEAAXXZ PROC		; BerconNoiseDlgProc::DeleteThis, COMDAT

; 336  : 	virtual void DeleteThis() {delete this;}

	test	rcx, rcx
	je	SHORT $LN3@DeleteThis
	mov	rax, QWORD PTR [rcx]
	mov	edx, 1
	rex_jmp	QWORD PTR [rax]
$LN3@DeleteThis:
	ret	0
?DeleteThis@BerconNoiseDlgProc@@UEAAXXZ ENDP		; BerconNoiseDlgProc::DeleteThis
_TEXT	ENDS
; Function compile flags: /Ogtp
; File g:\dropbox\github\berconmaps\src\berconnoise.cpp
;	COMDAT ?DlgProc@BerconNoiseDlgProc@@UEAA_JHPEAVIParamMap2@@PEAUHWND__@@I_K_J@Z
_TEXT	SEGMENT
$T1 = 48
$T2 = 48
$T3 = 48
$T4 = 48
this$ = 96
t$ = 104
map$ = 112
hWnd$ = 120
curIndex$5 = 128
msg$ = 128
wParam$ = 136
lParam$ = 144
?DlgProc@BerconNoiseDlgProc@@UEAA_JHPEAVIParamMap2@@PEAUHWND__@@I_K_J@Z PROC ; BerconNoiseDlgProc::DlgProc, COMDAT

; 344  : INT_PTR BerconNoiseDlgProc::DlgProc(TimeValue t,IParamMap2 *map,HWND hWnd,UINT msg,WPARAM wParam,LPARAM lParam)	{	

$LN13:
	mov	QWORD PTR [rsp+8], rbx
	mov	QWORD PTR [rsp+16], rsi
	mov	QWORD PTR [rsp+24], rdi
	mov	QWORD PTR [rsp+32], r12
	push	rbp
	push	r14
	push	r15
	mov	rbp, rsp
	sub	rsp, 64					; 00000040H

; 345  : 	switch (msg) {	

	mov	eax, DWORD PTR msg$[rbp-64]
	mov	r14, r9
	mov	rsi, r8
	mov	r15d, edx
	cmp	eax, 24
	je	$LN5@DlgProc
	cmp	eax, 272				; 00000110H
	je	SHORT $LN4@DlgProc

; 399  : 			SendMessage(GetDlgItem(hWnd, IDC_NOISE_FUNCTION), CB_SETCURSEL, (WPARAM)curIndex, 0);						
; 400  : 			map->GetParamBlock()->GetValue(worley_distance, t, curIndex, FOREVER);
; 401  : 			SendMessage(GetDlgItem(hWnd, IDC_WORLEY_DISTANCE), CB_SETCURSEL, (WPARAM)curIndex, 0);			
; 402  : 			map->GetParamBlock()->GetValue(fractal_type, t, curIndex, FOREVER);
; 403  : 			SendMessage(GetDlgItem(hWnd, IDC_FRACTAL_TYPE), CB_SETCURSEL, (WPARAM)curIndex, 0);		
; 404  : 			map->GetParamBlock()->GetValue(uvw_dist, t, curIndex, FOREVER);
; 405  : 			SendMessage(GetDlgItem(hWnd, IDC_DIST_UVW), CB_SETCURSEL, (WPARAM)curIndex, 0);
; 406  : 			break;
; 407  : 		}
; 408  : 		default: return FALSE;

	xor	eax, eax
	jmp	$LN1@DlgProc
$LN4@DlgProc:

; 346  : 		case WM_INITDIALOG:	{			
; 347  : 			// UVW
; 348  : 			HWND hwndMap = GetDlgItem(hWnd, IDC_DIST_UVW);  

	mov	edx, 1007				; 000003efH
	mov	rcx, r14
	call	QWORD PTR __imp_GetDlgItem

; 349  : 			SendMessage(hwndMap, CB_ADDSTRING, 0, (LPARAM)GetString(IDS_UVW_NORMAL));

	mov	ecx, 139				; 0000008bH
	mov	rbx, rax
	call	?GetString@@YAPEA_WH@Z			; GetString
	mov	r9, rax
	xor	r8d, r8d
	mov	edx, 323				; 00000143H
	mov	rcx, rbx
	call	QWORD PTR __imp_SendMessageW

; 350  : 			SendMessage(hwndMap, CB_ADDSTRING, 0, (LPARAM)GetString(IDS_UVW_RADIAL));

	mov	ecx, 140				; 0000008cH
	call	?GetString@@YAPEA_WH@Z			; GetString
	mov	r9, rax
	xor	r8d, r8d
	mov	edx, 323				; 00000143H
	mov	rcx, rbx
	call	QWORD PTR __imp_SendMessageW

; 351  : 			SendMessage(hwndMap, CB_ADDSTRING, 0, (LPARAM)GetString(IDS_UVW_SPHERICAL));

	mov	ecx, 141				; 0000008dH
	call	?GetString@@YAPEA_WH@Z			; GetString
	mov	r9, rax
	xor	r8d, r8d
	mov	edx, 323				; 00000143H
	mov	rcx, rbx
	call	QWORD PTR __imp_SendMessageW

; 352  : 			
; 353  : 			// Noise type
; 354  : 			hwndMap = GetDlgItem(hWnd, IDC_NOISE_FUNCTION);  

	mov	edx, 1003				; 000003ebH
	mov	rcx, r14
	call	QWORD PTR __imp_GetDlgItem

; 355  : 			SendMessage(hwndMap, CB_ADDSTRING, 0, (LPARAM)GetString(IDS_NF_PERLIN2));

	mov	ecx, 225				; 000000e1H
	mov	rbx, rax
	call	?GetString@@YAPEA_WH@Z			; GetString
	mov	r9, rax
	xor	r8d, r8d
	mov	edx, 323				; 00000143H
	mov	rcx, rbx
	call	QWORD PTR __imp_SendMessageW

; 356  : 			SendMessage(hwndMap, CB_ADDSTRING, 0, (LPARAM)GetString(IDS_NF_PERLIN3));

	mov	ecx, 226				; 000000e2H
	call	?GetString@@YAPEA_WH@Z			; GetString
	mov	r9, rax
	xor	r8d, r8d
	mov	edx, 323				; 00000143H
	mov	rcx, rbx
	call	QWORD PTR __imp_SendMessageW

; 357  : 			SendMessage(hwndMap, CB_ADDSTRING, 0, (LPARAM)GetString(IDS_NF_PERLIN4));

	mov	ecx, 227				; 000000e3H
	call	?GetString@@YAPEA_WH@Z			; GetString
	mov	r9, rax
	xor	r8d, r8d
	mov	edx, 323				; 00000143H
	mov	rcx, rbx
	call	QWORD PTR __imp_SendMessageW

; 358  : 			SendMessage(hwndMap, CB_ADDSTRING, 0, (LPARAM)GetString(IDS_NF_SIMPLEX2));

	mov	ecx, 1066				; 0000042aH
	call	?GetString@@YAPEA_WH@Z			; GetString
	mov	r9, rax
	xor	r8d, r8d
	mov	edx, 323				; 00000143H
	mov	rcx, rbx
	call	QWORD PTR __imp_SendMessageW

; 359  : 			SendMessage(hwndMap, CB_ADDSTRING, 0, (LPARAM)GetString(IDS_NF_SIMPLEX3));

	mov	ecx, 223				; 000000dfH
	call	?GetString@@YAPEA_WH@Z			; GetString
	mov	r9, rax
	xor	r8d, r8d
	mov	edx, 323				; 00000143H
	mov	rcx, rbx
	call	QWORD PTR __imp_SendMessageW

; 360  : 			SendMessage(hwndMap, CB_ADDSTRING, 0, (LPARAM)GetString(IDS_NF_SIMPLEX4));

	mov	ecx, 224				; 000000e0H
	call	?GetString@@YAPEA_WH@Z			; GetString
	mov	r9, rax
	xor	r8d, r8d
	mov	edx, 323				; 00000143H
	mov	rcx, rbx
	call	QWORD PTR __imp_SendMessageW

; 361  : 			SendMessage(hwndMap, CB_ADDSTRING, 0, (LPARAM)GetString(IDS_NF_WORLEY));

	mov	ecx, 14
	call	?GetString@@YAPEA_WH@Z			; GetString
	mov	r9, rax
	xor	r8d, r8d
	mov	edx, 323				; 00000143H
	mov	rcx, rbx
	call	QWORD PTR __imp_SendMessageW

; 362  : 
; 363  : 			// Worley distance
; 364  : 			hwndMap = GetDlgItem(hWnd, IDC_WORLEY_DISTANCE);  

	mov	edx, 1004				; 000003ecH
	mov	rcx, r14
	call	QWORD PTR __imp_GetDlgItem

; 365  : 			SendMessage(hwndMap, CB_ADDSTRING, 0, (LPARAM)GetString(IDS_W_LIN));

	mov	ecx, 1071				; 0000042fH
	mov	rbx, rax
	call	?GetString@@YAPEA_WH@Z			; GetString
	mov	r9, rax
	xor	r8d, r8d
	mov	edx, 323				; 00000143H
	mov	rcx, rbx
	call	QWORD PTR __imp_SendMessageW

; 366  : 			SendMessage(hwndMap, CB_ADDSTRING, 0, (LPARAM)GetString(IDS_W_SQU));

	mov	ecx, 1072				; 00000430H
	call	?GetString@@YAPEA_WH@Z			; GetString
	mov	r9, rax
	xor	r8d, r8d
	mov	edx, 323				; 00000143H
	mov	rcx, rbx
	call	QWORD PTR __imp_SendMessageW

; 367  : 			SendMessage(hwndMap, CB_ADDSTRING, 0, (LPARAM)GetString(IDS_W_MAN));

	mov	ecx, 1073				; 00000431H
	call	?GetString@@YAPEA_WH@Z			; GetString
	mov	r9, rax
	xor	r8d, r8d
	mov	edx, 323				; 00000143H
	mov	rcx, rbx
	call	QWORD PTR __imp_SendMessageW

; 368  : 			SendMessage(hwndMap, CB_ADDSTRING, 0, (LPARAM)GetString(IDS_W_CHE));

	mov	ecx, 1074				; 00000432H
	call	?GetString@@YAPEA_WH@Z			; GetString
	mov	r9, rax
	xor	r8d, r8d
	mov	edx, 323				; 00000143H
	mov	rcx, rbx
	call	QWORD PTR __imp_SendMessageW

; 369  : 			SendMessage(hwndMap, CB_ADDSTRING, 0, (LPARAM)GetString(IDS_W_MI5));

	mov	ecx, 27
	call	?GetString@@YAPEA_WH@Z			; GetString
	mov	r9, rax
	xor	r8d, r8d
	mov	edx, 323				; 00000143H
	mov	rcx, rbx
	call	QWORD PTR __imp_SendMessageW

; 370  : 			SendMessage(hwndMap, CB_ADDSTRING, 0, (LPARAM)GetString(IDS_W_MI4));

	mov	ecx, 28
	call	?GetString@@YAPEA_WH@Z			; GetString
	mov	r9, rax
	xor	r8d, r8d
	mov	edx, 323				; 00000143H
	mov	rcx, rbx
	call	QWORD PTR __imp_SendMessageW

; 371  : 
; 372  : 			// Fractal type
; 373  : 			hwndMap = GetDlgItem(hWnd, IDC_FRACTAL_TYPE);  

	mov	edx, 1005				; 000003edH
	mov	rcx, r14
	call	QWORD PTR __imp_GetDlgItem

; 374  : 			SendMessage(hwndMap, CB_ADDSTRING, 0, (LPARAM)GetString(IDS_F_REGULAR));

	mov	ecx, 16
	mov	rbx, rax
	call	?GetString@@YAPEA_WH@Z			; GetString
	mov	r9, rax
	xor	r8d, r8d
	mov	edx, 323				; 00000143H
	mov	rcx, rbx
	call	QWORD PTR __imp_SendMessageW

; 375  : 			SendMessage(hwndMap, CB_ADDSTRING, 0, (LPARAM)GetString(IDS_F_FRACTAL));

	mov	ecx, 15
	call	?GetString@@YAPEA_WH@Z			; GetString
	mov	r9, rax
	xor	r8d, r8d
	mov	edx, 323				; 00000143H
	mov	rcx, rbx
	call	QWORD PTR __imp_SendMessageW

; 376  : 			SendMessage(hwndMap, CB_ADDSTRING, 0, (LPARAM)GetString(IDS_F_TURBULENCE));

	mov	ecx, 17
	call	?GetString@@YAPEA_WH@Z			; GetString
	mov	r9, rax
	xor	r8d, r8d
	mov	edx, 323				; 00000143H
	mov	rcx, rbx
	call	QWORD PTR __imp_SendMessageW

; 377  : 			SendMessage(hwndMap, CB_ADDSTRING, 0, (LPARAM)GetString(IDS_F_FBM));

	mov	ecx, 18
	call	?GetString@@YAPEA_WH@Z			; GetString
	mov	r9, rax
	xor	r8d, r8d
	mov	edx, 323				; 00000143H
	mov	rcx, rbx
	call	QWORD PTR __imp_SendMessageW

; 378  : 			SendMessage(hwndMap, CB_ADDSTRING, 0, (LPARAM)GetString(IDS_F_FBMTURB));

	mov	ecx, 143				; 0000008fH
	call	?GetString@@YAPEA_WH@Z			; GetString
	mov	r9, rax
	xor	r8d, r8d
	mov	edx, 323				; 00000143H
	mov	rcx, rbx
	call	QWORD PTR __imp_SendMessageW

; 379  : 			SendMessage(hwndMap, CB_ADDSTRING, 0, (LPARAM)GetString(IDS_F_HETEROTERRAIN));

	mov	ecx, 19
	call	?GetString@@YAPEA_WH@Z			; GetString
	mov	r9, rax
	xor	r8d, r8d
	mov	edx, 323				; 00000143H
	mov	rcx, rbx
	call	QWORD PTR __imp_SendMessageW

; 380  : 			SendMessage(hwndMap, CB_ADDSTRING, 0, (LPARAM)GetString(IDS_F_HYBRIDMULTIFRACTAL));

	mov	ecx, 20
	call	?GetString@@YAPEA_WH@Z			; GetString
	mov	r9, rax
	xor	r8d, r8d
	mov	edx, 323				; 00000143H
	mov	rcx, rbx
	call	QWORD PTR __imp_SendMessageW

; 381  : 			SendMessage(hwndMap, CB_ADDSTRING, 0, (LPARAM)GetString(IDS_F_RIDGEDMULTIFRACTAL));

	mov	ecx, 21
	call	?GetString@@YAPEA_WH@Z			; GetString
	mov	r9, rax
	xor	r8d, r8d
	mov	edx, 323				; 00000143H
	mov	rcx, rbx
	call	QWORD PTR __imp_SendMessageW

; 382  : 			
; 383  : 			// Set correct dropdown value
; 384  : 			int curIndex;
; 385  : 			map->GetParamBlock()->GetValue(noise_function_type, t, curIndex, FOREVER);

	mov	rax, QWORD PTR [rsi]

; 386  : 			SendMessage(GetDlgItem(hWnd, IDC_NOISE_FUNCTION), CB_SETCURSEL, (WPARAM)curIndex, 0);						
; 387  : 			map->GetParamBlock()->GetValue(worley_distance, t, curIndex, FOREVER);
; 388  : 			SendMessage(GetDlgItem(hWnd, IDC_WORLEY_DISTANCE), CB_SETCURSEL, (WPARAM)curIndex, 0);			
; 389  : 			map->GetParamBlock()->GetValue(fractal_type, t, curIndex, FOREVER);
; 390  : 			SendMessage(GetDlgItem(hWnd, IDC_FRACTAL_TYPE), CB_SETCURSEL, (WPARAM)curIndex, 0);
; 391  : 			map->GetParamBlock()->GetValue(uvw_dist, t, curIndex, FOREVER);
; 392  : 			SendMessage(GetDlgItem(hWnd, IDC_DIST_UVW), CB_SETCURSEL, (WPARAM)curIndex, 0);
; 393  : 			break;

	jmp	SHORT $LN11@DlgProc
$LN5@DlgProc:

; 394  : 		}		
; 395  : 		case WM_SHOWWINDOW:	{
; 396  : 			// Set correct dropdown value
; 397  : 			int curIndex;
; 398  : 			map->GetParamBlock()->GetValue(noise_function_type, t, curIndex, FOREVER);

	mov	rax, QWORD PTR [r8]
$LN11@DlgProc:

; 409  : 	}
; 410  : 	return TRUE;

	mov	rcx, rsi
	call	QWORD PTR [rax+136]
	mov	r8d, 2147483647				; 7fffffffH
	lea	rcx, QWORD PTR $T4[rbp-64]
	mov	edx, -2147483648			; ffffffff80000000H
	mov	rbx, rax
	mov	rdi, QWORD PTR [rax]
	call	QWORD PTR __imp_??0Interval@@QEAA@HH@Z
	xor	r12d, r12d
	lea	r9, QWORD PTR curIndex$5[rbp-64]
	mov	DWORD PTR [rsp+40], r12d
	mov	r8d, r15d
	mov	rcx, rbx
	mov	QWORD PTR [rsp+32], rax
	lea	edx, QWORD PTR [r12+13]
	call	QWORD PTR [rdi+1704]
	movsxd	rbx, DWORD PTR curIndex$5[rbp-64]
	mov	edx, 1003				; 000003ebH
	mov	rcx, r14
	call	QWORD PTR __imp_GetDlgItem
	xor	r9d, r9d
	mov	r8, rbx
	mov	rcx, rax
	mov	edx, 334				; 0000014eH
	call	QWORD PTR __imp_SendMessageW
	mov	rax, QWORD PTR [rsi]
	mov	rcx, rsi
	call	QWORD PTR [rax+136]
	mov	r8d, 2147483647				; 7fffffffH
	lea	rcx, QWORD PTR $T3[rbp-64]
	mov	edx, -2147483648			; ffffffff80000000H
	mov	rbx, rax
	mov	rdi, QWORD PTR [rax]
	call	QWORD PTR __imp_??0Interval@@QEAA@HH@Z
	mov	rcx, rbx
	mov	DWORD PTR [rsp+40], r12d
	mov	r8d, r15d
	mov	QWORD PTR [rsp+32], rax
	lea	r9, QWORD PTR curIndex$5[rbp-64]
	lea	edx, QWORD PTR [r12+14]
	call	QWORD PTR [rdi+1704]
	movsxd	rbx, DWORD PTR curIndex$5[rbp-64]
	mov	edx, 1004				; 000003ecH
	mov	rcx, r14
	call	QWORD PTR __imp_GetDlgItem
	xor	r9d, r9d
	mov	r8, rbx
	mov	rcx, rax
	mov	edx, 334				; 0000014eH
	call	QWORD PTR __imp_SendMessageW
	mov	rax, QWORD PTR [rsi]
	mov	rcx, rsi
	call	QWORD PTR [rax+136]
	mov	r8d, 2147483647				; 7fffffffH
	lea	rcx, QWORD PTR $T2[rbp-64]
	mov	edx, -2147483648			; ffffffff80000000H
	mov	rbx, rax
	mov	rdi, QWORD PTR [rax]
	call	QWORD PTR __imp_??0Interval@@QEAA@HH@Z
	lea	r9, QWORD PTR curIndex$5[rbp-64]
	mov	DWORD PTR [rsp+40], r12d
	mov	r8d, r15d
	mov	QWORD PTR [rsp+32], rax
	xor	edx, edx
	mov	rcx, rbx
	call	QWORD PTR [rdi+1704]
	movsxd	rbx, DWORD PTR curIndex$5[rbp-64]
	mov	edx, 1005				; 000003edH
	mov	rcx, r14
	call	QWORD PTR __imp_GetDlgItem
	xor	r9d, r9d
	mov	r8, rbx
	mov	rcx, rax
	mov	edx, 334				; 0000014eH
	call	QWORD PTR __imp_SendMessageW
	mov	rax, QWORD PTR [rsi]
	mov	rcx, rsi
	call	QWORD PTR [rax+136]
	mov	rbx, rax
	mov	r8d, 2147483647				; 7fffffffH
	mov	rdi, QWORD PTR [rax]
	mov	edx, -2147483648			; ffffffff80000000H
	lea	rcx, QWORD PTR $T1[rbp-64]
	call	QWORD PTR __imp_??0Interval@@QEAA@HH@Z
	lea	r9, QWORD PTR curIndex$5[rbp-64]
	mov	DWORD PTR [rsp+40], r12d
	mov	r8d, r15d
	mov	QWORD PTR [rsp+32], rax
	lea	edx, QWORD PTR [r12+12]
	mov	rcx, rbx
	call	QWORD PTR [rdi+1704]
	movsxd	rbx, DWORD PTR curIndex$5[rbp-64]
	mov	edx, 1007				; 000003efH
	mov	rcx, r14
	call	QWORD PTR __imp_GetDlgItem
	xor	r9d, r9d
	mov	r8, rbx
	mov	rcx, rax
	mov	edx, 334				; 0000014eH
	call	QWORD PTR __imp_SendMessageW
	lea	eax, QWORD PTR [r12+1]
$LN1@DlgProc:

; 411  : }

	mov	rbx, QWORD PTR [rsp+96]
	mov	rsi, QWORD PTR [rsp+104]
	mov	rdi, QWORD PTR [rsp+112]
	mov	r12, QWORD PTR [rsp+120]
	add	rsp, 64					; 00000040H
	pop	r15
	pop	r14
	pop	rbp
	ret	0
?DlgProc@BerconNoiseDlgProc@@UEAA_JHPEAVIParamMap2@@PEAUHWND__@@I_K_J@Z ENDP ; BerconNoiseDlgProc::DlgProc
_TEXT	ENDS
; Function compile flags: /Ogtp
; File g:\dropbox\github\berconmaps\src\berconnoise.cpp
;	COMDAT ??0BerconNoiseDlgProc@@QEAA@PEAVBerconNoise@@@Z
_TEXT	SEGMENT
$T1 = 0
this$ = 32
m$ = 40
??0BerconNoiseDlgProc@@QEAA@PEAVBerconNoise@@@Z PROC	; BerconNoiseDlgProc::BerconNoiseDlgProc, COMDAT

; 334  : 	BerconNoiseDlgProc(BerconNoise *m) {berconNoise = m;}

$LN8:
	mov	QWORD PTR [rsp+8], rcx
	sub	rsp, 24
	mov	QWORD PTR $T1[rsp], -2
	lea	rax, OFFSET FLAT:??_7ParamMap2UserDlgProc@@6B@
	mov	QWORD PTR [rcx], rax
	lea	rax, OFFSET FLAT:??_7BerconNoiseDlgProc@@6B@
	mov	QWORD PTR [rcx], rax
	mov	QWORD PTR [rcx+8], rdx
	mov	rax, rcx
	add	rsp, 24
	ret	0
??0BerconNoiseDlgProc@@QEAA@PEAVBerconNoise@@@Z ENDP	; BerconNoiseDlgProc::BerconNoiseDlgProc
_TEXT	ENDS
;	COMDAT text$x
text$x	SEGMENT
$T1 = 0
this$ = 32
m$ = 40
?dtor$0@?0???0BerconNoiseDlgProc@@QEAA@PEAVBerconNoise@@@Z@4HA PROC ; `BerconNoiseDlgProc::BerconNoiseDlgProc'::`1'::dtor$0
	mov	rcx, QWORD PTR this$[rdx]
	jmp	??1ParamMap2UserDlgProc@@UEAA@XZ	; ParamMap2UserDlgProc::~ParamMap2UserDlgProc
?dtor$0@?0???0BerconNoiseDlgProc@@QEAA@PEAVBerconNoise@@@Z@4HA ENDP ; `BerconNoiseDlgProc::BerconNoiseDlgProc'::`1'::dtor$0
text$x	ENDS
; Function compile flags: /Ogtp
;	COMDAT text$x
text$x	SEGMENT
$T1 = 0
this$ = 32
m$ = 40
?dtor$0@?0???0BerconNoiseDlgProc@@QEAA@PEAVBerconNoise@@@Z@4HA PROC ; `BerconNoiseDlgProc::BerconNoiseDlgProc'::`1'::dtor$0
	mov	rcx, QWORD PTR this$[rdx]
	jmp	??1ParamMap2UserDlgProc@@UEAA@XZ	; ParamMap2UserDlgProc::~ParamMap2UserDlgProc
?dtor$0@?0???0BerconNoiseDlgProc@@QEAA@PEAVBerconNoise@@@Z@4HA ENDP ; `BerconNoiseDlgProc::BerconNoiseDlgProc'::`1'::dtor$0
text$x	ENDS
; Function compile flags: /Ogtp
;	COMDAT ??__FBerconMap_param_blk@@YAXXZ
text$yd	SEGMENT
??__FBerconMap_param_blk@@YAXXZ PROC			; `dynamic atexit destructor for 'BerconMap_param_blk'', COMDAT
	lea	rcx, OFFSET FLAT:?BerconMap_param_blk@@3VParamBlockDesc2@@A
	rex_jmp	QWORD PTR __imp_??1ParamBlockDesc2@@UEAA@XZ
??__FBerconMap_param_blk@@YAXXZ ENDP			; `dynamic atexit destructor for 'BerconMap_param_blk''
text$yd	ENDS
; Function compile flags: /Ogtp
; File g:\dropbox\github\berconmaps\src\berconnoise.cpp
;	COMDAT ??__EBerconMap_param_blk@@YAXXZ
text$di	SEGMENT
??__EBerconMap_param_blk@@YAXXZ PROC			; `dynamic initializer for 'BerconMap_param_blk'', COMDAT

; 299  : );

	mov	r11, rsp
	sub	rsp, 2808				; 00000af8H

; 279  : static ParamBlockDesc2 BerconMap_param_blk ( BerconMap_params, _M("params"),  0, &BerconNoiseDesc, 

	mov	DWORD PTR [r11-24], -1073740800		; ffffffffc0000400H
	lea	rax, OFFSET FLAT:??_C@_1BM@LPCPHLGG@?$AAb?$AAm?$AAa?$AAp?$AA1?$AA4?$AAE?$AAn?$AAa?$AAb?$AAl?$AAe?$AAd@
	mov	DWORD PTR [r11-32], -1073740800		; ffffffffc0000400H
	xor	ecx, ecx
	mov	DWORD PTR [r11-40], 1653		; 00000675H
	mov	edx, 6
	mov	DWORD PTR [r11-48], 2
	mov	DWORD PTR [r11-56], -1073741821		; ffffffffc0000003H
	mov	DWORD PTR [r11-64], 1
	mov	DWORD PTR [r11-72], -1073741824		; ffffffffc0000000H
	lea	r10d, QWORD PTR [rdx-3]
	mov	DWORD PTR [r11-80], 102			; 00000066H
	mov	QWORD PTR [r11-88], rcx
	mov	DWORD PTR [r11-96], 4
	mov	QWORD PTR [r11-104], rax
	lea	rax, OFFSET FLAT:??_C@_1O@NHBAOFHK@?$AAb?$AAm?$AAa?$AAp?$AA1?$AA4@
	mov	DWORD PTR [r11-112], 27
	mov	DWORD PTR [r11-120], -1073740800	; ffffffffc0000400H
	mov	DWORD PTR [r11-128], 1046		; 00000416H
	mov	DWORD PTR [rsp+2672], 8
	mov	DWORD PTR [rsp+2664], -1073741821	; ffffffffc0000003H
	mov	DWORD PTR [rsp+2656], 17
	mov	DWORD PTR [rsp+2648], -1073741816	; ffffffffc0000008H
	mov	DWORD PTR [rsp+2640], 19
	mov	DWORD PTR [rsp+2632], -1073741817	; ffffffffc0000007H
	mov	DWORD PTR [rsp+2624], 86		; 00000056H
	mov	DWORD PTR [rsp+2616], 512		; 00000200H
	mov	DWORD PTR [rsp+2608], 15
	mov	QWORD PTR [r11-208], rax
	lea	rax, OFFSET FLAT:??_C@_1BM@FOABHBAC@?$AAb?$AAm?$AAa?$AAp?$AA1?$AA3?$AAE?$AAn?$AAa?$AAb?$AAl?$AAe?$AAd@
	mov	DWORD PTR [rsp+2592], 13
	mov	DWORD PTR [rsp+2584], -1073740800	; ffffffffc0000400H
	mov	DWORD PTR [rsp+2576], 1652		; 00000674H
	mov	DWORD PTR [rsp+2568], 2
	mov	DWORD PTR [rsp+2560], -1073741821	; ffffffffc0000003H
	mov	DWORD PTR [rsp+2552], 1
	mov	DWORD PTR [rsp+2544], -1073741824	; ffffffffc0000000H
	mov	DWORD PTR [rsp+2536], 101		; 00000065H
	mov	QWORD PTR [r11-280], rcx
	mov	DWORD PTR [rsp+2520], 4
	mov	QWORD PTR [r11-296], rax
	lea	rax, OFFSET FLAT:??_C@_1O@EKMHNNMD@?$AAb?$AAm?$AAa?$AAp?$AA1?$AA3@
	mov	DWORD PTR [rsp+2504], 26
	mov	DWORD PTR [rsp+2496], -1073740800	; ffffffffc0000400H
	mov	DWORD PTR [rsp+2488], 1045		; 00000415H
	mov	DWORD PTR [rsp+2480], 8
	mov	DWORD PTR [rsp+2472], -1073741821	; ffffffffc0000003H
	mov	DWORD PTR [rsp+2464], 16
	mov	DWORD PTR [rsp+2456], -1073741816	; ffffffffc0000008H
	mov	DWORD PTR [rsp+2448], 18
	mov	DWORD PTR [rsp+2440], -1073741817	; ffffffffc0000007H
	mov	DWORD PTR [rsp+2432], 85		; 00000055H
	mov	DWORD PTR [rsp+2424], 512		; 00000200H
	mov	DWORD PTR [rsp+2416], 15
	mov	QWORD PTR [r11-400], rax
	lea	rax, OFFSET FLAT:??_C@_1BM@LBFDMHOD@?$AAb?$AAm?$AAa?$AAp?$AA1?$AA2?$AAE?$AAn?$AAa?$AAb?$AAl?$AAe?$AAd@
	mov	DWORD PTR [rsp+2400], 12
	mov	DWORD PTR [rsp+2392], -1073740800	; ffffffffc0000400H
	mov	DWORD PTR [rsp+2384], 1651		; 00000673H
	mov	DWORD PTR [rsp+2376], 2
	mov	DWORD PTR [rsp+2368], -1073741821	; ffffffffc0000003H
	mov	DWORD PTR [rsp+2360], 1
	mov	DWORD PTR [rsp+2352], -1073741824	; ffffffffc0000000H
	mov	DWORD PTR [rsp+2344], 100		; 00000064H
	mov	QWORD PTR [r11-472], rcx
	mov	DWORD PTR [rsp+2328], 4
	mov	QWORD PTR [r11-488], rax
	lea	rax, OFFSET FLAT:??_C@_1O@PCHLLKKG@?$AAb?$AAm?$AAa?$AAp?$AA1?$AA2@
	mov	DWORD PTR [rsp+2312], 25
	mov	DWORD PTR [rsp+2304], -1073740800	; ffffffffc0000400H
	mov	DWORD PTR [rsp+2296], 1044		; 00000414H
	mov	DWORD PTR [rsp+2288], 8
	mov	DWORD PTR [rsp+2280], -1073741821	; ffffffffc0000003H
	mov	DWORD PTR [rsp+2272], 15
	mov	DWORD PTR [rsp+2264], -1073741816	; ffffffffc0000008H
	mov	DWORD PTR [rsp+2256], 17
	mov	DWORD PTR [rsp+2248], -1073741817	; ffffffffc0000007H
	mov	DWORD PTR [rsp+2240], 84		; 00000054H
	mov	DWORD PTR [rsp+2232], 512		; 00000200H
	mov	DWORD PTR [rsp+2224], 15
	mov	QWORD PTR [r11-592], rax
	mov	DWORD PTR [rsp+2208], 11
	lea	rax, OFFSET FLAT:??_C@_1BM@FLNFBKIB@?$AAb?$AAm?$AAa?$AAp?$AA1?$AA1?$AAE?$AAn?$AAa?$AAb?$AAl?$AAe?$AAd@
	mov	DWORD PTR [rsp+2200], -1073740800	; ffffffffc0000400H
	mov	DWORD PTR [rsp+2192], 1650		; 00000672H
	mov	DWORD PTR [rsp+2184], 2
	mov	DWORD PTR [rsp+2176], -1073741821	; ffffffffc0000003H
	mov	DWORD PTR [rsp+2168], 1
	mov	DWORD PTR [rsp+2160], -1073741824	; ffffffffc0000000H
	mov	DWORD PTR [rsp+2152], 99		; 00000063H
	mov	QWORD PTR [r11-664], rcx
	mov	DWORD PTR [rsp+2136], 4
	mov	QWORD PTR [r11-680], rax
	lea	rax, OFFSET FLAT:??_C@_1O@OAMOBFEI@?$AAb?$AAm?$AAa?$AAp?$AA1?$AA1@
	mov	DWORD PTR [rsp+2120], 24
	mov	DWORD PTR [rsp+2112], -1073740800	; ffffffffc0000400H
	mov	DWORD PTR [rsp+2104], 1043		; 00000413H
	mov	DWORD PTR [rsp+2096], 8
	mov	DWORD PTR [rsp+2088], -1073741821	; ffffffffc0000003H
	mov	DWORD PTR [rsp+2080], 14
	mov	DWORD PTR [rsp+2072], -1073741816	; ffffffffc0000008H
	mov	DWORD PTR [rsp+2064], 16
	mov	DWORD PTR [rsp+2056], -1073741817	; ffffffffc0000007H
	mov	DWORD PTR [rsp+2048], 83		; 00000053H
	mov	DWORD PTR [rsp+2040], 512		; 00000200H
	mov	DWORD PTR [rsp+2032], 15
	mov	QWORD PTR [r11-784], rax
	lea	rax, OFFSET FLAT:??_C@_1BM@LEIHKMGA@?$AAb?$AAm?$AAa?$AAp?$AA1?$AA0?$AAE?$AAn?$AAa?$AAb?$AAl?$AAe?$AAd@
	mov	DWORD PTR [rsp+2016], 10
	mov	DWORD PTR [rsp+2008], -1073740800	; ffffffffc0000400H
	mov	DWORD PTR [rsp+2000], 1649		; 00000671H
	mov	DWORD PTR [rsp+1992], 2
	mov	DWORD PTR [rsp+1984], -1073741821	; ffffffffc0000003H
	mov	DWORD PTR [rsp+1976], 1
	mov	DWORD PTR [rsp+1968], -1073741824	; ffffffffc0000000H
	mov	DWORD PTR [rsp+1960], 98		; 00000062H
	mov	QWORD PTR [r11-856], rcx
	mov	DWORD PTR [rsp+1944], 4
	mov	QWORD PTR [r11-872], rax
	lea	rax, OFFSET FLAT:??_C@_1O@FIHCHCCN@?$AAb?$AAm?$AAa?$AAp?$AA1?$AA0@
	mov	DWORD PTR [rsp+1928], 23
	mov	DWORD PTR [rsp+1920], -1073740800	; ffffffffc0000400H
	mov	DWORD PTR [rsp+1912], 1042		; 00000412H
	mov	DWORD PTR [rsp+1904], 8
	mov	DWORD PTR [rsp+1896], -1073741821	; ffffffffc0000003H
	mov	DWORD PTR [rsp+1888], 13
	mov	DWORD PTR [rsp+1880], -1073741816	; ffffffffc0000008H
	mov	DWORD PTR [rsp+1872], 15
	mov	DWORD PTR [rsp+1864], -1073741817	; ffffffffc0000007H
	mov	DWORD PTR [rsp+1856], 82		; 00000052H
	mov	DWORD PTR [rsp+1848], 512		; 00000200H
	mov	DWORD PTR [rsp+1840], 15
	mov	QWORD PTR [r11-976], rax
	lea	rax, OFFSET FLAT:??_C@_1BK@ODBCCCCG@?$AAb?$AAm?$AAa?$AAp?$AA9?$AAE?$AAn?$AAa?$AAb?$AAl?$AAe?$AAd@
	mov	DWORD PTR [rsp+1824], 9
	mov	DWORD PTR [rsp+1816], -1073740800	; ffffffffc0000400H
	mov	DWORD PTR [rsp+1808], 1648		; 00000670H
	mov	DWORD PTR [rsp+1800], 2
	mov	DWORD PTR [rsp+1792], -1073741821	; ffffffffc0000003H
	mov	DWORD PTR [rsp+1784], 1
	mov	DWORD PTR [rsp+1776], -1073741824	; ffffffffc0000000H
	mov	DWORD PTR [rsp+1768], 97		; 00000061H
	mov	QWORD PTR [r11-1048], rcx
	mov	DWORD PTR [rsp+1752], 4
	mov	QWORD PTR [r11-1064], rax
	lea	rax, OFFSET FLAT:??_C@_1M@POBKFOAI@?$AAb?$AAm?$AAa?$AAp?$AA9@
	mov	DWORD PTR [rsp+1736], 22
	mov	DWORD PTR [rsp+1728], -1073740800	; ffffffffc0000400H
	mov	DWORD PTR [rsp+1720], 1041		; 00000411H
	mov	DWORD PTR [rsp+1712], 8
	mov	DWORD PTR [rsp+1704], -1073741821	; ffffffffc0000003H
	mov	DWORD PTR [rsp+1696], 12
	mov	DWORD PTR [rsp+1688], -1073741816	; ffffffffc0000008H
	mov	DWORD PTR [rsp+1680], 14
	mov	DWORD PTR [rsp+1672], -1073741817	; ffffffffc0000007H
	mov	DWORD PTR [rsp+1664], 81		; 00000051H
	mov	DWORD PTR [rsp+1656], 512		; 00000200H
	mov	DWORD PTR [rsp+1648], 15
	mov	QWORD PTR [r11-1168], rax
	mov	DWORD PTR [rsp+1632], 8
	mov	DWORD PTR [rsp+1624], -1073740800	; ffffffffc0000400H
	mov	DWORD PTR [rsp+1616], 1647		; 0000066fH
	mov	DWORD PTR [rsp+1608], 2
	lea	rax, OFFSET FLAT:??_C@_1BK@MEAJEMH@?$AAb?$AAm?$AAa?$AAp?$AA8?$AAE?$AAn?$AAa?$AAb?$AAl?$AAe?$AAd@
	mov	DWORD PTR [rsp+1600], -1073741821	; ffffffffc0000003H
	mov	DWORD PTR [rsp+1592], 1
	mov	DWORD PTR [rsp+1584], -1073741824	; ffffffffc0000000H
	mov	DWORD PTR [rsp+1576], 96		; 00000060H
	mov	QWORD PTR [r11-1240], rcx
	mov	DWORD PTR [rsp+1560], 4
	mov	QWORD PTR [r11-1256], rax
	lea	rax, OFFSET FLAT:??_C@_1M@EGKGDJGN@?$AAb?$AAm?$AAa?$AAp?$AA8@
	mov	DWORD PTR [rsp+1544], 21
	mov	DWORD PTR [rsp+1536], -1073740800	; ffffffffc0000400H
	mov	DWORD PTR [rsp+1528], 1040		; 00000410H
	mov	DWORD PTR [rsp+1520], 8
	mov	DWORD PTR [rsp+1512], -1073741821	; ffffffffc0000003H
	mov	DWORD PTR [rsp+1504], 11
	mov	DWORD PTR [rsp+1496], -1073741816	; ffffffffc0000008H
	mov	DWORD PTR [rsp+1488], 13
	mov	DWORD PTR [rsp+1480], -1073741817	; ffffffffc0000007H
	mov	DWORD PTR [rsp+1472], 80		; 00000050H
	mov	DWORD PTR [rsp+1464], 512		; 00000200H
	mov	DWORD PTR [rsp+1456], 15
	mov	QWORD PTR [r11-1360], rax
	lea	rax, OFFSET FLAT:??_C@_1BK@PKDPDAKP@?$AAb?$AAm?$AAa?$AAp?$AA7?$AAE?$AAn?$AAa?$AAb?$AAl?$AAe?$AAd@
	mov	DWORD PTR [rsp+1440], 7
	mov	DWORD PTR [rsp+1432], -1073740800	; ffffffffc0000400H
	mov	DWORD PTR [rsp+1424], 1646		; 0000066eH
	mov	DWORD PTR [rsp+1416], 2
	mov	DWORD PTR [rsp+1408], -1073741821	; ffffffffc0000003H
	mov	DWORD PTR [rsp+1400], 1
	mov	DWORD PTR [rsp+1392], -1073741824	; ffffffffc0000000H
	mov	DWORD PTR [rsp+1384], 95		; 0000005fH
	mov	QWORD PTR [r11-1432], rcx
	mov	DWORD PTR [rsp+1368], 4
	mov	QWORD PTR [r11-1448], rax
	lea	rax, OFFSET FLAT:??_C@_1M@BOMFCJDL@?$AAb?$AAm?$AAa?$AAp?$AA7@
	mov	DWORD PTR [rsp+1352], 20
	mov	DWORD PTR [rsp+1344], -1073740800	; ffffffffc0000400H
	mov	DWORD PTR [rsp+1336], 1039		; 0000040fH
	mov	DWORD PTR [rsp+1328], 8
	mov	DWORD PTR [rsp+1320], -1073741821	; ffffffffc0000003H
	mov	DWORD PTR [rsp+1312], 10
	mov	DWORD PTR [rsp+1304], -1073741816	; ffffffffc0000008H
	mov	DWORD PTR [rsp+1296], 12
	mov	DWORD PTR [rsp+1288], -1073741817	; ffffffffc0000007H
	mov	DWORD PTR [rsp+1280], 79		; 0000004fH
	mov	DWORD PTR [rsp+1272], 512		; 00000200H
	mov	DWORD PTR [rsp+1264], 15
	mov	QWORD PTR [r11-1552], rax
	lea	rax, OFFSET FLAT:??_C@_1BK@BFGNIGEO@?$AAb?$AAm?$AAa?$AAp?$AA6?$AAE?$AAn?$AAa?$AAb?$AAl?$AAe?$AAd@
	mov	DWORD PTR [rsp+1248], edx
	mov	DWORD PTR [rsp+1240], -1073740800	; ffffffffc0000400H
	mov	DWORD PTR [rsp+1232], 1645		; 0000066dH
	mov	DWORD PTR [rsp+1224], 2
	mov	DWORD PTR [rsp+1216], -1073741821	; ffffffffc0000003H
	mov	DWORD PTR [rsp+1208], 1
	mov	DWORD PTR [rsp+1200], -1073741824	; ffffffffc0000000H
	mov	DWORD PTR [rsp+1192], 94		; 0000005eH
	mov	QWORD PTR [r11-1624], rcx
	mov	DWORD PTR [rsp+1176], 4
	mov	QWORD PTR [r11-1640], rax
	lea	rax, OFFSET FLAT:??_C@_1M@KGHJEOFO@?$AAb?$AAm?$AAa?$AAp?$AA6@
	mov	DWORD PTR [rsp+1160], 19
	mov	DWORD PTR [rsp+1152], -1073740800	; ffffffffc0000400H
	mov	DWORD PTR [rsp+1144], 1038		; 0000040eH
	mov	DWORD PTR [rsp+1136], 8
	mov	DWORD PTR [rsp+1128], -1073741821	; ffffffffc0000003H
	mov	DWORD PTR [rsp+1120], 9
	mov	DWORD PTR [rsp+1112], -1073741816	; ffffffffc0000008H
	mov	DWORD PTR [rsp+1104], 11
	mov	DWORD PTR [rsp+1096], -1073741817	; ffffffffc0000007H
	mov	DWORD PTR [rsp+1088], 78		; 0000004eH
	mov	DWORD PTR [rsp+1080], 512		; 00000200H
	mov	DWORD PTR [rsp+1072], 15
	mov	QWORD PTR [r11-1744], rax
	mov	DWORD PTR [rsp+1056], 5
	mov	DWORD PTR [rsp+1048], -1073740800	; ffffffffc0000400H
	mov	DWORD PTR [rsp+1040], 1643		; 0000066bH
	mov	DWORD PTR [rsp+1032], 2
	mov	DWORD PTR [rsp+1024], -1073741821	; ffffffffc0000003H
	mov	DWORD PTR [rsp+1016], 1
	mov	DWORD PTR [rsp+1008], -1073741824	; ffffffffc0000000H
	lea	rax, OFFSET FLAT:??_C@_1BK@PPOLFLCM@?$AAb?$AAm?$AAa?$AAp?$AA5?$AAE?$AAn?$AAa?$AAb?$AAl?$AAe?$AAd@
	mov	DWORD PTR [rsp+1000], 93		; 0000005dH
	mov	QWORD PTR [r11-1816], rcx
	mov	DWORD PTR [rsp+984], 4
	mov	QWORD PTR [r11-1832], rax
	lea	rax, OFFSET FLAT:??_C@_1M@LEMMOBLA@?$AAb?$AAm?$AAa?$AAp?$AA5@
	mov	DWORD PTR [rsp+968], 18
	mov	DWORD PTR [rsp+960], -1073740800	; ffffffffc0000400H
	mov	DWORD PTR [rsp+952], 1037		; 0000040dH
	mov	DWORD PTR [rsp+944], 8
	mov	DWORD PTR [rsp+936], -1073741821	; ffffffffc0000003H
	mov	DWORD PTR [rsp+928], 8
	mov	DWORD PTR [rsp+920], -1073741816	; ffffffffc0000008H
	mov	DWORD PTR [rsp+912], 10
	mov	DWORD PTR [rsp+904], -1073741817	; ffffffffc0000007H
	mov	DWORD PTR [rsp+896], 77			; 0000004dH
	mov	DWORD PTR [rsp+888], 512		; 00000200H
	mov	DWORD PTR [rsp+880], 15
	mov	QWORD PTR [r11-1936], rax
	lea	rax, OFFSET FLAT:??_C@_1BK@BALJONMN@?$AAb?$AAm?$AAa?$AAp?$AA4?$AAE?$AAn?$AAa?$AAb?$AAl?$AAe?$AAd@
	mov	DWORD PTR [rsp+864], 4
	mov	DWORD PTR [rsp+856], -1073740800	; ffffffffc0000400H
	mov	DWORD PTR [rsp+848], 1642		; 0000066aH
	mov	DWORD PTR [rsp+840], 2
	mov	DWORD PTR [rsp+832], -1073741821	; ffffffffc0000003H
	mov	DWORD PTR [rsp+824], 1
	mov	DWORD PTR [rsp+816], -1073741824	; ffffffffc0000000H
	mov	DWORD PTR [rsp+808], 92			; 0000005cH
	mov	QWORD PTR [r11-2008], rcx
	mov	DWORD PTR [rsp+792], 4
	mov	QWORD PTR [r11-2024], rax
	lea	rax, OFFSET FLAT:??_C@_1M@MHAIGNF@?$AAb?$AAm?$AAa?$AAp?$AA4@
	mov	DWORD PTR [rsp+776], 17
	mov	DWORD PTR [rsp+768], -1073740800	; ffffffffc0000400H
	mov	DWORD PTR [rsp+760], 1036		; 0000040cH
	mov	DWORD PTR [rsp+752], 8
	mov	DWORD PTR [rsp+744], -1073741821	; ffffffffc0000003H
	mov	DWORD PTR [rsp+736], 7
	mov	DWORD PTR [rsp+728], -1073741816	; ffffffffc0000008H
	mov	DWORD PTR [rsp+720], 9
	mov	DWORD PTR [rsp+712], -1073741817	; ffffffffc0000007H
	mov	DWORD PTR [rsp+704], 76			; 0000004cH
	mov	DWORD PTR [rsp+696], 512		; 00000200H
	mov	DWORD PTR [rsp+688], 15
	mov	QWORD PTR [r11-2128], rax
	lea	rax, OFFSET FLAT:??_C@_1BK@PBJHOHKJ@?$AAb?$AAm?$AAa?$AAp?$AA3?$AAE?$AAn?$AAa?$AAb?$AAl?$AAe?$AAd@
	mov	DWORD PTR [r11-2136], r10d
	mov	DWORD PTR [rsp+664], -1073740800	; ffffffffc0000400H
	mov	DWORD PTR [rsp+656], 1644		; 0000066cH
	mov	DWORD PTR [rsp+648], 2
	mov	DWORD PTR [rsp+640], -1073741821	; ffffffffc0000003H
	mov	DWORD PTR [rsp+632], 1
	mov	DWORD PTR [rsp+624], -1073741824	; ffffffffc0000000H
	mov	DWORD PTR [rsp+616], 91			; 0000005bH
	mov	QWORD PTR [r11-2200], rcx
	mov	DWORD PTR [rsp+600], 4
	mov	QWORD PTR [r11-2216], rax
	lea	rax, OFFSET FLAT:??_C@_1M@JBKHLOGM@?$AAb?$AAm?$AAa?$AAp?$AA3@
	mov	DWORD PTR [rsp+584], 16
	mov	DWORD PTR [rsp+576], -1073740800	; ffffffffc0000400H
	mov	DWORD PTR [rsp+568], 1035		; 0000040bH
	mov	DWORD PTR [rsp+560], 8
	mov	DWORD PTR [rsp+552], -1073741821	; ffffffffc0000003H
	mov	DWORD PTR [rsp+544], edx
	mov	DWORD PTR [rsp+536], -1073741816	; ffffffffc0000008H
	mov	DWORD PTR [rsp+528], 8
	mov	DWORD PTR [rsp+520], -1073741817	; ffffffffc0000007H
	mov	DWORD PTR [rsp+512], 75			; 0000004bH
	mov	DWORD PTR [rsp+504], 512		; 00000200H
	mov	DWORD PTR [rsp+496], 15
	mov	QWORD PTR [r11-2320], rax
	mov	DWORD PTR [rsp+480], 2
	mov	DWORD PTR [rsp+472], -1073740800	; ffffffffc0000400H
	mov	DWORD PTR [rsp+464], 1641		; 00000669H
	mov	DWORD PTR [rsp+456], 2
	mov	DWORD PTR [rsp+448], -1073741821	; ffffffffc0000003H
	mov	DWORD PTR [rsp+440], 1
	mov	DWORD PTR [rsp+432], -1073741824	; ffffffffc0000000H
	mov	DWORD PTR [rsp+424], 90			; 0000005aH
	mov	QWORD PTR [r11-2392], rcx
	mov	DWORD PTR [rsp+408], 4
	lea	rax, OFFSET FLAT:??_C@_1BK@BOMFFBEI@?$AAb?$AAm?$AAa?$AAp?$AA2?$AAE?$AAn?$AAa?$AAb?$AAl?$AAe?$AAd@
	mov	QWORD PTR [r11-2408], rax
	lea	r8, OFFSET FLAT:??_C@_1O@FEMBPDGM@?$AAp?$AAa?$AAr?$AAa?$AAm?$AAs@
	mov	DWORD PTR [rsp+392], 15
	lea	rax, OFFSET FLAT:??_C@_1M@CJBLNJAJ@?$AAb?$AAm?$AAa?$AAp?$AA2@
	mov	DWORD PTR [rsp+384], -1073740800	; ffffffffc0000400H
	xor	r9d, r9d
	mov	DWORD PTR [rsp+376], 1034		; 0000040aH
	mov	DWORD PTR [rsp+368], 8
	mov	DWORD PTR [rsp+360], -1073741821	; ffffffffc0000003H
	mov	DWORD PTR [rsp+352], 5
	mov	DWORD PTR [rsp+344], -1073741816	; ffffffffc0000008H
	mov	DWORD PTR [rsp+336], 7
	mov	DWORD PTR [rsp+328], -1073741817	; ffffffffc0000007H
	mov	DWORD PTR [rsp+320], 74			; 0000004aH
	mov	DWORD PTR [rsp+312], 512		; 00000200H
	mov	DWORD PTR [rsp+304], 15
	mov	QWORD PTR [r11-2512], rax
	lea	rax, OFFSET FLAT:??_C@_1BK@PEEDIMCK@?$AAb?$AAm?$AAa?$AAp?$AA1?$AAE?$AAn?$AAa?$AAb?$AAl?$AAe?$AAd@
	mov	DWORD PTR [rsp+288], 1
	mov	DWORD PTR [rsp+280], -1073740800	; ffffffffc0000400H
	mov	DWORD PTR [rsp+272], 1640		; 00000668H
	mov	DWORD PTR [rsp+264], 2
	mov	DWORD PTR [rsp+256], -1073741821	; ffffffffc0000003H
	mov	DWORD PTR [rsp+248], 1
	mov	DWORD PTR [rsp+240], -1073741824	; ffffffffc0000000H
	mov	DWORD PTR [rsp+232], 89			; 00000059H
	mov	QWORD PTR [r11-2584], rcx
	mov	DWORD PTR [rsp+216], 4
	mov	QWORD PTR [r11-2600], rax
	lea	rax, OFFSET FLAT:??_C@_1M@DLKOHGOH@?$AAb?$AAm?$AAa?$AAp?$AA1@
	mov	DWORD PTR [rsp+200], 14
	mov	DWORD PTR [rsp+192], -1073740800	; ffffffffc0000400H
	mov	DWORD PTR [rsp+184], 1033		; 00000409H
	mov	DWORD PTR [rsp+176], 8
	mov	DWORD PTR [rsp+168], -1073741821	; ffffffffc0000003H
	mov	DWORD PTR [rsp+160], 4
	mov	DWORD PTR [rsp+152], -1073741816	; ffffffffc0000008H
	mov	DWORD PTR [rsp+144], edx
	mov	DWORD PTR [rsp+136], -1073741817	; ffffffffc0000007H
	mov	DWORD PTR [rsp+128], 73			; 00000049H
	mov	DWORD PTR [rsp+120], 512		; 00000200H
	mov	DWORD PTR [rsp+112], 15
	mov	QWORD PTR [rsp+104], rax
	lea	rax, OFFSET FLAT:?BerconNoiseDesc@@3VBerconNoiseClassDesc@@A
	mov	QWORD PTR [rsp+96], rcx
	mov	QWORD PTR [rsp+88], rcx
	mov	DWORD PTR [rsp+80], 1
	mov	QWORD PTR [rsp+72], rcx
	lea	rcx, OFFSET FLAT:?BerconMap_param_blk@@3VParamBlockDesc2@@A
	mov	DWORD PTR [rsp+64], 72			; 00000048H
	mov	DWORD PTR [rsp+56], 108			; 0000006cH
	mov	DWORD PTR [rsp+48], 23
	mov	WORD PTR [rsp+40], dx
	movsx	edx, r10w
	mov	QWORD PTR [rsp+32], rax
	call	QWORD PTR __imp_??0ParamBlockDesc2@@QEAA@FPEB_W_JPEAVClassDesc2@@GZZ
	lea	rcx, OFFSET FLAT:??__FBerconMap_param_blk@@YAXXZ ; `dynamic atexit destructor for 'BerconMap_param_blk''
	add	rsp, 2808				; 00000af8H
	jmp	atexit
??__EBerconMap_param_blk@@YAXXZ ENDP			; `dynamic initializer for 'BerconMap_param_blk''
text$di	ENDS
; Function compile flags: /Ogtp
;	COMDAT ??__Fberconnoise_param_blk@@YAXXZ
text$yd	SEGMENT
??__Fberconnoise_param_blk@@YAXXZ PROC			; `dynamic atexit destructor for 'berconnoise_param_blk'', COMDAT
	lea	rcx, OFFSET FLAT:?berconnoise_param_blk@@3VParamBlockDesc2@@A
	rex_jmp	QWORD PTR __imp_??1ParamBlockDesc2@@UEAA@XZ
??__Fberconnoise_param_blk@@YAXXZ ENDP			; `dynamic atexit destructor for 'berconnoise_param_blk''
text$yd	ENDS
; Function compile flags: /Ogtp
; File g:\dropbox\github\berconmaps\src\berconnoise.cpp
; File c:\program files\autodesk\3ds max 2019 sdk\maxsdk\include\color.h
; File g:\dropbox\github\berconmaps\src\berconnoise.cpp
; File c:\program files\autodesk\3ds max 2019 sdk\maxsdk\include\color.h
; File g:\dropbox\github\berconmaps\src\berconnoise.cpp
; File c:\program files\autodesk\3ds max 2019 sdk\maxsdk\include\color.h
; File g:\dropbox\github\berconmaps\src\berconnoise.cpp
;	COMDAT ??__Eberconnoise_param_blk@@YAXXZ
text$di	SEGMENT
$T1 = 3456
$T2 = 3472
??__Eberconnoise_param_blk@@YAXXZ PROC			; `dynamic initializer for 'berconnoise_param_blk'', COMDAT

; 257  : );

	mov	r11, rsp
	sub	rsp, 3512				; 00000db8H

; 108  : static ParamBlockDesc2 berconnoise_param_blk ( berconnoise_params, _M("params"),  0, &BerconNoiseDesc, 

	mov	DWORD PTR [r11-72], -1073740800		; ffffffffc0000400H
	xor	ecx, ecx
	mov	DWORD PTR [r11-80], -1073740800		; ffffffffc0000400H
	mov	edx, 6
	mov	DWORD PTR [r11-88], 20
	mov	DWORD PTR [r11-96], -1073741817		; ffffffffc0000007H
	mov	DWORD PTR [r11-104], 8
	mov	DWORD PTR [r11-112], 512		; 00000200H
	lea	r10d, QWORD PTR [rdx-5]
	mov	DWORD PTR [r11-120], 18
; File c:\program files\autodesk\3ds max 2019 sdk\maxsdk\include\color.h

; 103  : 	Color(double R, double G, double B) { r = (float)R; g = (float)G; b = (float)B; }

	vmovss	xmm0, DWORD PTR __real@3f800000
; File g:\dropbox\github\berconmaps\src\berconnoise.cpp

; 108  : static ParamBlockDesc2 berconnoise_param_blk ( berconnoise_params, _M("params"),  0, &BerconNoiseDesc, 

	vmovsd	xmm4, QWORD PTR __real@bff0000000000000
	vmovsd	xmm2, QWORD PTR __real@408f400000000000
; File c:\program files\autodesk\3ds max 2019 sdk\maxsdk\include\color.h

; 103  : 	Color(double R, double G, double B) { r = (float)R; g = (float)G; b = (float)B; }

	vmovss	DWORD PTR [r11-32], xmm0
; File g:\dropbox\github\berconmaps\src\berconnoise.cpp

; 108  : static ParamBlockDesc2 berconnoise_param_blk ( berconnoise_params, _M("params"),  0, &BerconNoiseDesc, 

	mov	eax, DWORD PTR [r11-32]
	mov	DWORD PTR [r11-48], eax
	vunpcklps xmm0, xmm0, xmm0
	vmovsd	QWORD PTR [r11-56], xmm0
	vxorps	xmm0, xmm0, xmm0
; File c:\program files\autodesk\3ds max 2019 sdk\maxsdk\include\color.h

; 113  : 	Color(int R, int G, int B) { r = (float)R; g = (float)G; b = (float)B; }

	vmovss	DWORD PTR [r11-16], xmm0
; File g:\dropbox\github\berconmaps\src\berconnoise.cpp

; 108  : static ParamBlockDesc2 berconnoise_param_blk ( berconnoise_params, _M("params"),  0, &BerconNoiseDesc, 

	mov	eax, DWORD PTR [r11-16]
	mov	DWORD PTR [r11-32], eax
	lea	rax, OFFSET FLAT:??_C@_1O@KEKEFEMI@?$AAo?$AAu?$AAt?$AAp?$AAu?$AAt@
	mov	QWORD PTR [r11-128], rax
	lea	rax, OFFSET FLAT:??_C@_1BM@NGCAEKNK@?$AAU?$AAV?$AAW?$AAd?$AAi?$AAs?$AAt?$AAo?$AAr?$AAt?$AAi?$AAo?$AAn@
	mov	DWORD PTR [rsp+3376], 28
	mov	DWORD PTR [rsp+3368], -1073740800	; ffffffffc0000400H
	mov	QWORD PTR [r11-152], rcx
	mov	DWORD PTR [rsp+3352], 1007		; 000003efH
	mov	DWORD PTR [rsp+3344], 13
	mov	DWORD PTR [rsp+3336], -1073741821	; ffffffffc0000003H
	mov	DWORD PTR [r11-184], r10d
	mov	DWORD PTR [rsp+3320], -1073741824	; ffffffffc0000000H
	mov	DWORD PTR [rsp+3312], 138		; 0000008aH
	mov	QWORD PTR [r11-208], rcx
	mov	DWORD PTR [r11-216], r10d
	mov	QWORD PTR [r11-224], rax
	lea	rax, OFFSET FLAT:??_C@_1BM@HCNKLGAJ@?$AAu?$AAs?$AAe?$AAD?$AAi?$AAs?$AAt?$AAo?$AAr?$AAt?$AAi?$AAo?$AAn@
	mov	DWORD PTR [rsp+3280], 12
	mov	DWORD PTR [rsp+3272], -1073740800	; ffffffffc0000400H
	mov	DWORD PTR [rsp+3264], 1643		; 0000066bH
	mov	DWORD PTR [rsp+3256], 2
	mov	DWORD PTR [rsp+3248], -1073741821	; ffffffffc0000003H
	mov	QWORD PTR [r11-272], rcx
	mov	DWORD PTR [rsp+3232], -1073741824	; ffffffffc0000000H
	mov	DWORD PTR [rsp+3224], 39		; 00000027H
	mov	QWORD PTR [r11-296], rcx
	mov	DWORD PTR [rsp+3208], 4
	mov	QWORD PTR [r11-312], rax
	lea	rax, OFFSET FLAT:??_C@_1BM@DKGEJKPL@?$AAd?$AAi?$AAs?$AAt?$AAo?$AAr?$AAt?$AAi?$AAo?$AAn?$AAS?$AAt?$AAr@
	mov	DWORD PTR [rsp+3192], 10
	mov	DWORD PTR [rsp+3184], -1073740800	; ffffffffc0000400H
	vmovsd	QWORD PTR [rsp+3176], xmm4
	mov	DWORD PTR [rsp+3168], 1064		; 00000428H
	mov	DWORD PTR [rsp+3160], 1063		; 00000427H
	mov	DWORD PTR [r11-360], r10d
	mov	QWORD PTR [r11-368], rcx
	mov	DWORD PTR [rsp+3136], -1073741821	; ffffffffc0000003H
	vmovsd	QWORD PTR [rsp+3128], xmm2
	vunpcklps xmm0, xmm0, xmm0
	vxorpd	xmm3, xmm3, xmm3
	vmovsd	QWORD PTR [rsp+3120], xmm3
	mov	DWORD PTR [rsp+3112], -1073741822	; ffffffffc0000002H
	vmovsd	QWORD PTR [r11-40], xmm0
	vmovsd	xmm0, QWORD PTR __real@3fb99999a0000000
	vmovsd	QWORD PTR [rsp+3104], xmm0
	mov	DWORD PTR [rsp+3096], -1073741824	; ffffffffc0000000H
	mov	DWORD PTR [rsp+3088], 12
	mov	DWORD PTR [r11-432], r10d
	mov	QWORD PTR [r11-440], rcx
	mov	QWORD PTR [r11-448], rax
	mov	DWORD PTR [rsp+3056], 11
	mov	DWORD PTR [rsp+3048], -1073740800	; ffffffffc0000400H
