; Listing generated by Microsoft (R) Optimizing Compiler Version 19.16.27031.1 

include listing.inc

INCLUDELIB MSVCRT
INCLUDELIB OLDNAMES

PUBLIC	?What@TabOutOfRangeException@Util@MaxSDK@@UEBAPEB_WXZ ; MaxSDK::Util::TabOutOfRangeException::What
PUBLIC	??1TabOutOfRangeException@Util@MaxSDK@@UEAA@XZ	; MaxSDK::Util::TabOutOfRangeException::~TabOutOfRangeException
PUBLIC	??0TabOutOfRangeException@Util@MaxSDK@@QEAA@AEBV012@@Z ; MaxSDK::Util::TabOutOfRangeException::TabOutOfRangeException
PUBLIC	??_GTabOutOfRangeException@Util@MaxSDK@@UEAAPEAXI@Z ; MaxSDK::Util::TabOutOfRangeException::`scalar deleting destructor'
PUBLIC	?BeginCreate@ClassDesc@@UEAAHPEAVInterface@@@Z	; ClassDesc::BeginCreate
PUBLIC	?EndCreate@ClassDesc@@UEAAHPEAVInterface@@@Z	; ClassDesc::EndCreate
PUBLIC	?OkToCreate@ClassDesc@@UEAAHPEAVInterface@@@Z	; ClassDesc::OkToCreate
PUBLIC	?HasClassParams@ClassDesc@@UEAAHXZ		; ClassDesc::HasClassParams
PUBLIC	?EditClassParams@ClassDesc@@UEAAXPEAUHWND__@@@Z	; ClassDesc::EditClassParams
PUBLIC	?NumActionTables@ClassDesc@@UEAAHXZ		; ClassDesc::NumActionTables
PUBLIC	?GetActionTable@ClassDesc@@UEAAPEAVActionTable@@H@Z ; ClassDesc::GetActionTable
PUBLIC	?IsManipulator@ClassDesc@@UEAAHXZ		; ClassDesc::IsManipulator
PUBLIC	?CanManipulate@ClassDesc@@UEAAHPEAVReferenceTarget@@@Z ; ClassDesc::CanManipulate
PUBLIC	?CanManipulateNode@ClassDesc@@UEAAHPEAVINode@@@Z ; ClassDesc::CanManipulateNode
PUBLIC	?CreateManipulator@ClassDesc@@UEAAPEAVManipulator@@PEAVReferenceTarget@@PEAVINode@@@Z ; ClassDesc::CreateManipulator
PUBLIC	?CreateManipulator@ClassDesc@@UEAAPEAVManipulator@@PEAVINode@@@Z ; ClassDesc::CreateManipulator
PUBLIC	?NeedsToSave@ClassDesc@@UEAAHXZ			; ClassDesc::NeedsToSave
PUBLIC	?Save@ClassDesc@@UEAA?AW4IOResult@@PEAVISave@@@Z ; ClassDesc::Save
PUBLIC	?Load@ClassDesc@@UEAA?AW4IOResult@@PEAVILoad@@@Z ; ClassDesc::Load
PUBLIC	?InitialRollupPageState@ClassDesc@@UEAAKXZ	; ClassDesc::InitialRollupPageState
PUBLIC	?UseOnlyInternalNameForMAXScriptExposure@ClassDesc@@UEAA_NXZ ; ClassDesc::UseOnlyInternalNameForMAXScriptExposure
PUBLIC	?GetParamMap@ClassDesc@@UEAAPEAVIParamMap2@@PEAVParamBlockDesc2@@@Z ; ClassDesc::GetParamMap
PUBLIC	?GetUserDlgProc@ClassDesc@@UEAAPEAVParamMap2UserDlgProc@@PEAVParamBlockDesc2@@@Z ; ClassDesc::GetUserDlgProc
PUBLIC	?DrawRepresentation@ClassDesc@@UEAA_NKPEAUHDC__@@AEAVBox2@@@Z ; ClassDesc::DrawRepresentation
PUBLIC	?NumInterfaces@ClassDesc@@UEAAHXZ		; ClassDesc::NumInterfaces
PUBLIC	?GetInterfaceAt@ClassDesc@@UEAAPEAVFPInterface@@H@Z ; ClassDesc::GetInterfaceAt
PUBLIC	?ClearInterfaces@ClassDesc@@UEAAXXZ		; ClassDesc::ClearInterfaces
PUBLIC	?SubClassID@ClassDesc@@UEAA?AVClass_ID@@XZ	; ClassDesc::SubClassID
PUBLIC	?Execute@ClassDesc@@UEAA_JH_K00@Z		; ClassDesc::Execute
PUBLIC	?SetUserDlgProc@ClassDesc2@@UEAA_NPEAVParamBlockDesc2@@PEAVParamMap2UserDlgProc@@@Z ; ClassDesc2::SetUserDlgProc
PUBLIC	?CreateQtWidget@ClassDesc2@@UEAAPEAVQMaxParamBlockWidget@MaxSDK@@AEAVReferenceMaker@@AEAVIParamBlock2@@FAEAVWStr@@AEAH3@Z ; ClassDesc2::CreateQtWidget
PUBLIC	??_GXYZ_Desc@@UEAAPEAXI@Z			; XYZ_Desc::`scalar deleting destructor'
PUBLIC	?IsPublic@BerconDistortionClassDesc@@UEAAHXZ	; BerconDistortionClassDesc::IsPublic
PUBLIC	?Create@BerconDistortionClassDesc@@UEAAPEAXH@Z	; BerconDistortionClassDesc::Create
PUBLIC	?ClassName@BerconDistortionClassDesc@@UEAAPEB_WXZ ; BerconDistortionClassDesc::ClassName
PUBLIC	?SuperClassID@BerconDistortionClassDesc@@UEAAKXZ ; BerconDistortionClassDesc::SuperClassID
PUBLIC	?ClassID@BerconDistortionClassDesc@@UEAA?AVClass_ID@@XZ ; BerconDistortionClassDesc::ClassID
PUBLIC	?Category@BerconDistortionClassDesc@@UEAAPEB_WXZ ; BerconDistortionClassDesc::Category
PUBLIC	?InternalName@BerconDistortionClassDesc@@UEAAPEB_WXZ ; BerconDistortionClassDesc::InternalName
PUBLIC	?HInstance@BerconDistortionClassDesc@@UEAAPEAUHINSTANCE__@@XZ ; BerconDistortionClassDesc::HInstance
PUBLIC	??_GBerconDistortionClassDesc@@UEAAPEAXI@Z	; BerconDistortionClassDesc::`scalar deleting destructor'
PUBLIC	WinbaseIsolationAwarePrivateT_UnPgpgk
PUBLIC	IsolationAwarePrivateT_SqbjaYRiRY
PUBLIC	IsolationAwarePrivateT_SAbnPgpgk
PUBLIC	WinbaseIsolationAwarePrivateT_SpeRNgRQnPgpgk
PUBLIC	WinbaseIsolationAwarePrivateT_SpYRNahcpNYYRQ
PUBLIC	?__LINE__Var@?0???0Class_ID@@QEAA@XZ@4JA	; `Class_ID::Class_ID'::`1'::__LINE__Var
PUBLIC	?__LINE__Var@?0???0Class_ID@@QEAA@KK@Z@4JA	; `Class_ID::Class_ID'::`1'::__LINE__Var
PUBLIC	??_7TabOutOfRangeException@Util@MaxSDK@@6B@	; MaxSDK::Util::TabOutOfRangeException::`vftable'
PUBLIC	?__LINE__Var@?0???0TabOutOfRangeException@Util@MaxSDK@@QEAA@PEB_W@Z@4JA ; `MaxSDK::Util::TabOutOfRangeException::TabOutOfRangeException'::`1'::__LINE__Var
PUBLIC	?__LINE__Var@?0??What@TabOutOfRangeException@Util@MaxSDK@@UEBAPEB_WXZ@4JA ; `MaxSDK::Util::TabOutOfRangeException::What'::`1'::__LINE__Var
PUBLIC	??_C@_1EK@FOLBONAG@?$AAM?$AAa?$AAx?$AAS?$AAD?$AAK?$AA?3?$AA?3?$AAU?$AAt?$AAi?$AAl?$AA?3?$AA?3?$AAT@ ; `string'
PUBLIC	?__LINE__Var@?0???_GTabOutOfRangeException@Util@MaxSDK@@UEAAPEAXI@Z@4JA ; `MaxSDK::Util::TabOutOfRangeException::`scalar deleting destructor''::`1'::__LINE__Var
PUBLIC	?__LINE__Var@?0???1TabOutOfRangeException@Util@MaxSDK@@UEAA@XZ@4JA ; `MaxSDK::Util::TabOutOfRangeException::~TabOutOfRangeException'::`1'::__LINE__Var
PUBLIC	?__LINE__Var@?0???0AssetId@AssetManagement@MaxSDK@@QEAA@XZ@4JA ; `MaxSDK::AssetManagement::AssetId::AssetId'::`1'::__LINE__Var
PUBLIC	?__LINE__Var@?0??BeginCreate@ClassDesc@@UEAAHPEAVInterface@@@Z@4JA ; `ClassDesc::BeginCreate'::`1'::__LINE__Var
PUBLIC	?__LINE__Var@?0??EndCreate@ClassDesc@@UEAAHPEAVInterface@@@Z@4JA ; `ClassDesc::EndCreate'::`1'::__LINE__Var
PUBLIC	?__LINE__Var@?0??OkToCreate@ClassDesc@@UEAAHPEAVInterface@@@Z@4JA ; `ClassDesc::OkToCreate'::`1'::__LINE__Var
PUBLIC	?__LINE__Var@?0??HasClassParams@ClassDesc@@UEAAHXZ@4JA ; `ClassDesc::HasClassParams'::`1'::__LINE__Var
PUBLIC	?__LINE__Var@?0??EditClassParams@ClassDesc@@UEAAXPEAUHWND__@@@Z@4JA ; `ClassDesc::EditClassParams'::`1'::__LINE__Var
PUBLIC	?__LINE__Var@?0??NumActionTables@ClassDesc@@UEAAHXZ@4JA ; `ClassDesc::NumActionTables'::`1'::__LINE__Var
PUBLIC	?__LINE__Var@?0??GetActionTable@ClassDesc@@UEAAPEAVActionTable@@H@Z@4JA ; `ClassDesc::GetActionTable'::`1'::__LINE__Var
PUBLIC	?__LINE__Var@?0??IsManipulator@ClassDesc@@UEAAHXZ@4JA ; `ClassDesc::IsManipulator'::`1'::__LINE__Var
PUBLIC	?__LINE__Var@?0??CanManipulate@ClassDesc@@UEAAHPEAVReferenceTarget@@@Z@4JA ; `ClassDesc::CanManipulate'::`1'::__LINE__Var
PUBLIC	?__LINE__Var@?0??CanManipulateNode@ClassDesc@@UEAAHPEAVINode@@@Z@4JA ; `ClassDesc::CanManipulateNode'::`1'::__LINE__Var
PUBLIC	?__LINE__Var@?0??CreateManipulator@ClassDesc@@UEAAPEAVManipulator@@PEAVReferenceTarget@@PEAVINode@@@Z@4JA ; `ClassDesc::CreateManipulator'::`1'::__LINE__Var
PUBLIC	?__LINE__Var@?0??CreateManipulator@ClassDesc@@UEAAPEAVManipulator@@PEAVINode@@@Z@4JA ; `ClassDesc::CreateManipulator'::`1'::__LINE__Var
PUBLIC	?__LINE__Var@?0??NeedsToSave@ClassDesc@@UEAAHXZ@4JA ; `ClassDesc::NeedsToSave'::`1'::__LINE__Var
PUBLIC	?__LINE__Var@?0??Save@ClassDesc@@UEAA?AW4IOResult@@PEAVISave@@@Z@4JA ; `ClassDesc::Save'::`1'::__LINE__Var
PUBLIC	?__LINE__Var@?0??Load@ClassDesc@@UEAA?AW4IOResult@@PEAVILoad@@@Z@4JA ; `ClassDesc::Load'::`1'::__LINE__Var
PUBLIC	?__LINE__Var@?0??InitialRollupPageState@ClassDesc@@UEAAKXZ@4JA ; `ClassDesc::InitialRollupPageState'::`1'::__LINE__Var
PUBLIC	?__LINE__Var@?0??UseOnlyInternalNameForMAXScriptExposure@ClassDesc@@UEAA_NXZ@4JA ; `ClassDesc::UseOnlyInternalNameForMAXScriptExposure'::`1'::__LINE__Var
PUBLIC	?__LINE__Var@?0??GetParamMap@ClassDesc@@UEAAPEAVIParamMap2@@PEAVParamBlockDesc2@@@Z@4JA ; `ClassDesc::GetParamMap'::`1'::__LINE__Var
PUBLIC	?__LINE__Var@?0??GetUserDlgProc@ClassDesc@@UEAAPEAVParamMap2UserDlgProc@@PEAVParamBlockDesc2@@@Z@4JA ; `ClassDesc::GetUserDlgProc'::`1'::__LINE__Var
PUBLIC	?__LINE__Var@?0??DrawRepresentation@ClassDesc@@UEAA_NKPEAUHDC__@@AEAVBox2@@@Z@4JA ; `ClassDesc::DrawRepresentation'::`1'::__LINE__Var
PUBLIC	?__LINE__Var@?0??NumInterfaces@ClassDesc@@UEAAHXZ@4JA ; `ClassDesc::NumInterfaces'::`1'::__LINE__Var
PUBLIC	?__LINE__Var@?0??GetInterfaceAt@ClassDesc@@UEAAPEAVFPInterface@@H@Z@4JA ; `ClassDesc::GetInterfaceAt'::`1'::__LINE__Var
PUBLIC	?__LINE__Var@?0??ClearInterfaces@ClassDesc@@UEAAXXZ@4JA ; `ClassDesc::ClearInterfaces'::`1'::__LINE__Var
PUBLIC	?__LINE__Var@?0??SubClassID@ClassDesc@@UEAA?AVClass_ID@@XZ@4JA ; `ClassDesc::SubClassID'::`1'::__LINE__Var
PUBLIC	?__LINE__Var@?0??Execute@ClassDesc@@UEAA_JH_K00@Z@4JA ; `ClassDesc::Execute'::`1'::__LINE__Var
PUBLIC	?__LINE__Var@?0???0AColor@@QEAA@MMMM@Z@4JA	; `AColor::AColor'::`1'::__LINE__Var
PUBLIC	?__LINE__Var@?0??SetUserDlgProc@ClassDesc2@@UEAA_NPEAVParamBlockDesc2@@PEAVParamMap2UserDlgProc@@@Z@4JA ; `ClassDesc2::SetUserDlgProc'::`1'::__LINE__Var
PUBLIC	??_C@_1O@ILILCEBJ@?$AAi?$AA?5?$AA?$DO?$AA?$DN?$AA?5?$AA0@ ; `string'
PUBLIC	?__LINE__Var@?0??CreateQtWidget@ClassDesc2@@UEAAPEAVQMaxParamBlockWidget@MaxSDK@@AEAVReferenceMaker@@AEAVIParamBlock2@@FAEAVWStr@@AEAH3@Z@4JA ; `ClassDesc2::CreateQtWidget'::`1'::__LINE__Var
PUBLIC	??_R0?AVClassDesc2@@@8				; ClassDesc2 `RTTI Type Descriptor'
PUBLIC	??_R0?AVMaxHeapOperators@@@8			; MaxHeapOperators `RTTI Type Descriptor'
PUBLIC	_CT??_R0?AVMaxHeapOperators@@@818
PUBLIC	??_7XYZ_Desc@@6B@				; XYZ_Desc::`vftable'
PUBLIC	?__LINE__Var@?0???0XYZ_Desc@@QEAA@PEAVClassDesc2@@HHHHHHH@Z@4JA ; `XYZ_Desc::XYZ_Desc'::`1'::__LINE__Var
PUBLIC	??_C@_1BM@LCALCDFD@?$AAx?$AAy?$AAz?$AA_?$AAf?$AAi?$AAl?$AAt?$AAe?$AAr?$AAi?$AAn?$AAg@ ; `string'
PUBLIC	??_C@_1BC@JCCAEAIN@?$AAx?$AAy?$AAz?$AA_?$AAl?$AAo?$AAc?$AAk@ ; `string'
PUBLIC	??_C@_1BK@FLPLJMAJ@?$AAx?$AAy?$AAz?$AA_?$AAa?$AAn?$AAg?$AAl?$AAe?$AA_?$AAz?$AA2@ ; `string'
PUBLIC	??_C@_1BK@NNGPOOKH@?$AAx?$AAy?$AAz?$AA_?$AAa?$AAn?$AAg?$AAl?$AAe?$AA_?$AAy?$AA2@ ; `string'
PUBLIC	??_C@_1BK@BGDDDNAC@?$AAx?$AAy?$AAz?$AA_?$AAa?$AAn?$AAg?$AAl?$AAe?$AA_?$AAx?$AA2@ ; `string'
PUBLIC	??_C@_1BI@MHJCJGME@?$AAx?$AAy?$AAz?$AA_?$AAs?$AAi?$AAz?$AAe?$AA_?$AAz?$AA2@ ; `string'
PUBLIC	??_C@_1BI@EBAGOEGK@?$AAx?$AAy?$AAz?$AA_?$AAs?$AAi?$AAz?$AAe?$AA_?$AAy?$AA2@ ; `string'
PUBLIC	??_C@_1BI@IKFKDHMP@?$AAx?$AAy?$AAz?$AA_?$AAs?$AAi?$AAz?$AAe?$AA_?$AAx?$AA2@ ; `string'
PUBLIC	??_C@_1BM@HJOOPID@?$AAx?$AAy?$AAz?$AA_?$AAo?$AAf?$AAf?$AAs?$AAe?$AAt?$AA_?$AAz?$AA2@ ; `string'
PUBLIC	??_C@_1BM@IBAKJNCN@?$AAx?$AAy?$AAz?$AA_?$AAo?$AAf?$AAf?$AAs?$AAe?$AAt?$AA_?$AAy?$AA2@ ; `string'
PUBLIC	??_C@_1BM@EKFGEOII@?$AAx?$AAy?$AAz?$AA_?$AAo?$AAf?$AAf?$AAs?$AAe?$AAt?$AA_?$AAx?$AA2@ ; `string'
PUBLIC	??_C@_1BE@PALBIMHK@?$AAr?$AAa?$AAn?$AAd?$AAB?$AAy?$AAP?$AAa?$AAr@ ; `string'
PUBLIC	??_C@_1BE@EGBDKCCD@?$AAr?$AAa?$AAn?$AAd?$AAB?$AAy?$AAO?$AAb?$AAj@ ; `string'
PUBLIC	??_C@_1BE@DCGEPHFM@?$AAr?$AAa?$AAn?$AAd?$AAB?$AAy?$AAM?$AAa?$AAt@ ; `string'
PUBLIC	??_C@_19HFHNPJHA@?$AAs?$AAe?$AAe?$AAd@		; `string'
PUBLIC	??_C@_1BG@EDCBABDD@?$AAx?$AAy?$AAz?$AA_?$AAt?$AAi?$AAl?$AAe?$AA_?$AAz@ ; `string'
PUBLIC	??_C@_1BG@FBJEKONN@?$AAx?$AAy?$AAz?$AA_?$AAt?$AAi?$AAl?$AAe?$AA_?$AAy@ ; `string'
PUBLIC	??_C@_1BG@OJCIMJLI@?$AAx?$AAy?$AAz?$AA_?$AAt?$AAi?$AAl?$AAe?$AA_?$AAx@ ; `string'
PUBLIC	??_C@_1BI@LALGELMD@?$AAx?$AAy?$AAz?$AA_?$AAa?$AAn?$AAg?$AAl?$AAe?$AA_?$AAz@ ; `string'
PUBLIC	??_C@_1BI@KCADOECN@?$AAx?$AAy?$AAz?$AA_?$AAa?$AAn?$AAg?$AAl?$AAe?$AA_?$AAy@ ; `string'
PUBLIC	??_C@_1BI@BKLPIDEI@?$AAx?$AAy?$AAz?$AA_?$AAa?$AAn?$AAg?$AAl?$AAe?$AA_?$AAx@ ; `string'
PUBLIC	??_C@_1BG@MFMFKFM@?$AAx?$AAy?$AAz?$AA_?$AAs?$AAi?$AAz?$AAe?$AA_?$AAz@ ; `string'
PUBLIC	??_C@_1BG@BOOJPFLC@?$AAx?$AAy?$AAz?$AA_?$AAs?$AAi?$AAz?$AAe?$AA_?$AAy@ ; `string'
PUBLIC	??_C@_1BG@KGFFJCNH@?$AAx?$AAy?$AAz?$AA_?$AAs?$AAi?$AAz?$AAe?$AA_?$AAx@ ; `string'
PUBLIC	??_C@_1BK@HPJLBIGD@?$AAx?$AAy?$AAz?$AA_?$AAo?$AAf?$AAf?$AAs?$AAe?$AAt?$AA_?$AAz@ ; `string'
PUBLIC	??_C@_1BK@GNCOLHIN@?$AAx?$AAy?$AAz?$AA_?$AAo?$AAf?$AAf?$AAs?$AAe?$AAt?$AA_?$AAy@ ; `string'
PUBLIC	??_C@_1BK@NFJCNAOI@?$AAx?$AAy?$AAz?$AA_?$AAo?$AAf?$AAf?$AAs?$AAe?$AAt?$AA_?$AAx@ ; `string'
PUBLIC	??_C@_1BC@BDPIEDCA@?$AAx?$AAy?$AAz?$AA_?$AAc?$AAh?$AAa?$AAn@ ; `string'
PUBLIC	??_C@_1BA@JOBDKJKA@?$AAx?$AAy?$AAz?$AA_?$AAm?$AAa?$AAp@ ; `string'
PUBLIC	??_C@_1BA@KMAKHADK@?$AAM?$AAa?$AAp?$AAp?$AAi?$AAn?$AAg@ ; `string'
PUBLIC	?__LINE__Var@?0???_GXYZ_Desc@@UEAAPEAXI@Z@4JA	; `XYZ_Desc::`scalar deleting destructor''::`1'::__LINE__Var
PUBLIC	?__LINE__Var@?0???1XYZ_Desc@@UEAA@XZ@4JA	; `XYZ_Desc::~XYZ_Desc'::`1'::__LINE__Var
PUBLIC	??_7BerconDistortionClassDesc@@6B@		; BerconDistortionClassDesc::`vftable'
PUBLIC	?__LINE__Var@?0???0BerconDistortionClassDesc@@QEAA@XZ@4JA ; `BerconDistortionClassDesc::BerconDistortionClassDesc'::`1'::__LINE__Var
PUBLIC	?__LINE__Var@?0???1BerconDistortionClassDesc@@UEAA@XZ@4JA ; `BerconDistortionClassDesc::~BerconDistortionClassDesc'::`1'::__LINE__Var
PUBLIC	?__LINE__Var@?0??IsPublic@BerconDistortionClassDesc@@UEAAHXZ@4JA ; `BerconDistortionClassDesc::IsPublic'::`1'::__LINE__Var
PUBLIC	?__LINE__Var@?0??Create@BerconDistortionClassDesc@@UEAAPEAXH@Z@4JA ; `BerconDistortionClassDesc::Create'::`1'::__LINE__Var
PUBLIC	?__LINE__Var@?0??ClassName@BerconDistortionClassDesc@@UEAAPEB_WXZ@4JA ; `BerconDistortionClassDesc::ClassName'::`1'::__LINE__Var
PUBLIC	?__LINE__Var@?0??SuperClassID@BerconDistortionClassDesc@@UEAAKXZ@4JA ; `BerconDistortionClassDesc::SuperClassID'::`1'::__LINE__Var
PUBLIC	?__LINE__Var@?0??ClassID@BerconDistortionClassDesc@@UEAA?AVClass_ID@@XZ@4JA ; `BerconDistortionClassDesc::ClassID'::`1'::__LINE__Var
PUBLIC	?__LINE__Var@?0??Category@BerconDistortionClassDesc@@UEAAPEB_WXZ@4JA ; `BerconDistortionClassDesc::Category'::`1'::__LINE__Var
PUBLIC	?__LINE__Var@?0??InternalName@BerconDistortionClassDesc@@UEAAPEB_WXZ@4JA ; `BerconDistortionClassDesc::InternalName'::`1'::__LINE__Var
PUBLIC	??_C@_1BM@IANNOHHL@?$AAB?$AAe?$AAr?$AAc?$AAo?$AAn?$AAM?$AAa?$AAp?$AAp?$AAi?$AAn?$AAg@ ; `string'
PUBLIC	?__LINE__Var@?0??HInstance@BerconDistortionClassDesc@@UEAAPEAUHINSTANCE__@@XZ@4JA ; `BerconDistortionClassDesc::HInstance'::`1'::__LINE__Var
PUBLIC	?__LINE__Var@?0???_GBerconDistortionClassDesc@@UEAAPEAXI@Z@4JA ; `BerconDistortionClassDesc::`scalar deleting destructor''::`1'::__LINE__Var
PUBLIC	??_C@_1BM@HCNKLGAJ@?$AAu?$AAs?$AAe?$AAD?$AAi?$AAs?$AAt?$AAo?$AAr?$AAt?$AAi?$AAo?$AAn@ ; `string'
PUBLIC	??_C@_1BM@DKGEJKPL@?$AAd?$AAi?$AAs?$AAt?$AAo?$AAr?$AAt?$AAi?$AAo?$AAn?$AAS?$AAt?$AAr@ ; `string'
PUBLIC	??_C@_19HFCNIFIH@?$AAm?$AAa?$AAp?$AA2@		; `string'
PUBLIC	??_C@_19GHJICKGJ@?$AAm?$AAa?$AAp?$AA1@		; `string'
PUBLIC	??_C@_19MNJBOCOC@?$AAm?$AAa?$AAp?$AA3@		; `string'
PUBLIC	??_C@_1O@FEMBPDGM@?$AAp?$AAa?$AAr?$AAa?$AAm?$AAs@ ; `string'
PUBLIC	??_C@_15CABMMOGH@?$AAt?$AAh@			; `string'
PUBLIC	??_C@_1IA@LGDLJFJ@?$AAc?$AA?3?$AA?2?$AAp?$AAr?$AAo?$AAg?$AAr?$AAa?$AAm?$AA?5?$AAf?$AAi?$AAl?$AAe@ ; `string'
PUBLIC	??_C@_1CI@OKLGNBMM@?$AAt?$AAh?$AA?5?$AA?$CG?$AA?$CG?$AA?5?$AAi?$AA?5?$AA?$DM?$AA?5?$AAt?$AAh?$AA?9?$AA?$DO?$AAc@ ; `string'
PUBLIC	_TI4?AVTabOutOfRangeException@Util@MaxSDK@@
PUBLIC	_CTA4?AVTabOutOfRangeException@Util@MaxSDK@@
PUBLIC	??_R0?AVTabOutOfRangeException@Util@MaxSDK@@@8	; MaxSDK::Util::TabOutOfRangeException `RTTI Type Descriptor'
PUBLIC	_CT??_R0?AVTabOutOfRangeException@Util@MaxSDK@@@8??0TabOutOfRangeException@Util@MaxSDK@@QEAA@AEBV012@@Z16
PUBLIC	??_R0?AVOutOfRangeException@Util@MaxSDK@@@8	; MaxSDK::Util::OutOfRangeException `RTTI Type Descriptor'
PUBLIC	_CT??_R0?AVOutOfRangeException@Util@MaxSDK@@@8??0OutOfRangeException@Util@MaxSDK@@QEAA@AEBV012@@Z16
PUBLIC	??_R0?AVException@Util@MaxSDK@@@8		; MaxSDK::Util::Exception `RTTI Type Descriptor'
PUBLIC	_CT??_R0?AVException@Util@MaxSDK@@@8??0Exception@Util@MaxSDK@@QEAA@AEBV012@@Z16
PUBLIC	??_C@_1GI@NLEIFPEJ@?$AAI?$AAn?$AAv?$AAa?$AAl?$AAi?$AAd?$AA?5?$AAi?$AAn?$AAd?$AAe?$AAx?$AA?5?$AAp@ ; `string'
PUBLIC	?__LINE__Var@?0???A?$Tab@PEAVFPInterface@@@@QEBAAEAPEAVFPInterface@@_J@Z@4JA ; `Tab<FPInterface *>::operator[]'::`1'::__LINE__Var
PUBLIC	??_C@_1EM@PJAEPBLB@?$AAT?$AAa?$AAb?$AA?$DM?$AAc?$AAl?$AAa?$AAs?$AAs?$AA?5?$AAF?$AAP?$AAI?$AAn?$AAt@ ; `string'
PUBLIC	?__LINE__Var@?0??ZeroCount@?$Tab@PEAVFPInterface@@@@QEAAXXZ@4JA ; `Tab<FPInterface *>::ZeroCount'::`1'::__LINE__Var
PUBLIC	?__LINE__Var@?0??Count@?$Tab@PEAVFPInterface@@@@QEBAHXZ@4JA ; `Tab<FPInterface *>::Count'::`1'::__LINE__Var
PUBLIC	?__LINE__Var@?0???0TabOutOfRangeException@Util@MaxSDK@@QEAA@AEBV123@@Z@4JA ; `MaxSDK::Util::TabOutOfRangeException::TabOutOfRangeException'::`1'::__LINE__Var
PUBLIC	??_R4TabOutOfRangeException@Util@MaxSDK@@6B@	; MaxSDK::Util::TabOutOfRangeException::`RTTI Complete Object Locator'
PUBLIC	??_R3TabOutOfRangeException@Util@MaxSDK@@8	; MaxSDK::Util::TabOutOfRangeException::`RTTI Class Hierarchy Descriptor'
PUBLIC	??_R2TabOutOfRangeException@Util@MaxSDK@@8	; MaxSDK::Util::TabOutOfRangeException::`RTTI Base Class Array'
PUBLIC	??_R1A@?0A@EA@TabOutOfRangeException@Util@MaxSDK@@8 ; MaxSDK::Util::TabOutOfRangeException::`RTTI Base Class Descriptor at (0,-1,0,64)'
PUBLIC	??_R1A@?0A@EA@OutOfRangeException@Util@MaxSDK@@8 ; MaxSDK::Util::OutOfRangeException::`RTTI Base Class Descriptor at (0,-1,0,64)'
PUBLIC	??_R3OutOfRangeException@Util@MaxSDK@@8		; MaxSDK::Util::OutOfRangeException::`RTTI Class Hierarchy Descriptor'
PUBLIC	??_R2OutOfRangeException@Util@MaxSDK@@8		; MaxSDK::Util::OutOfRangeException::`RTTI Base Class Array'
PUBLIC	??_R1A@?0A@EA@Exception@Util@MaxSDK@@8		; MaxSDK::Util::Exception::`RTTI Base Class Descriptor at (0,-1,0,64)'
PUBLIC	??_R3Exception@Util@MaxSDK@@8			; MaxSDK::Util::Exception::`RTTI Class Hierarchy Descriptor'
PUBLIC	??_R2Exception@Util@MaxSDK@@8			; MaxSDK::Util::Exception::`RTTI Base Class Array'
PUBLIC	??_R17?0A@EA@MaxHeapOperators@@8		; MaxHeapOperators::`RTTI Base Class Descriptor at (8,-1,0,64)'
PUBLIC	??_R3MaxHeapOperators@@8			; MaxHeapOperators::`RTTI Class Hierarchy Descriptor'
PUBLIC	??_R2MaxHeapOperators@@8			; MaxHeapOperators::`RTTI Base Class Array'
PUBLIC	??_R1A@?0A@EA@MaxHeapOperators@@8		; MaxHeapOperators::`RTTI Base Class Descriptor at (0,-1,0,64)'
PUBLIC	??_R0?AVInterfaceServer@@@8			; InterfaceServer `RTTI Type Descriptor'
PUBLIC	??_R3InterfaceServer@@8				; InterfaceServer::`RTTI Class Hierarchy Descriptor'
PUBLIC	??_R2InterfaceServer@@8				; InterfaceServer::`RTTI Base Class Array'
PUBLIC	??_R1A@?0A@EA@InterfaceServer@@8		; InterfaceServer::`RTTI Base Class Descriptor at (0,-1,0,64)'
PUBLIC	??_R0?AVBaseInterfaceServer@@@8			; BaseInterfaceServer `RTTI Type Descriptor'
PUBLIC	??_R3BaseInterfaceServer@@8			; BaseInterfaceServer::`RTTI Class Hierarchy Descriptor'
PUBLIC	??_R2BaseInterfaceServer@@8			; BaseInterfaceServer::`RTTI Base Class Array'
PUBLIC	??_R1A@?0A@EA@BaseInterfaceServer@@8		; BaseInterfaceServer::`RTTI Base Class Descriptor at (0,-1,0,64)'
PUBLIC	??_R0?AVClassDesc@@@8				; ClassDesc `RTTI Type Descriptor'
PUBLIC	??_R3ClassDesc@@8				; ClassDesc::`RTTI Class Hierarchy Descriptor'
PUBLIC	??_R2ClassDesc@@8				; ClassDesc::`RTTI Base Class Array'
PUBLIC	??_R1A@?0A@EA@ClassDesc@@8			; ClassDesc::`RTTI Base Class Descriptor at (0,-1,0,64)'
PUBLIC	??_R4XYZ_Desc@@6B@				; XYZ_Desc::`RTTI Complete Object Locator'
PUBLIC	??_R0?AVXYZ_Desc@@@8				; XYZ_Desc `RTTI Type Descriptor'
PUBLIC	??_R3XYZ_Desc@@8				; XYZ_Desc::`RTTI Class Hierarchy Descriptor'
PUBLIC	??_R2XYZ_Desc@@8				; XYZ_Desc::`RTTI Base Class Array'
PUBLIC	??_R1A@?0A@EA@XYZ_Desc@@8			; XYZ_Desc::`RTTI Base Class Descriptor at (0,-1,0,64)'
PUBLIC	??_R1A@?0A@EA@ParamBlockDesc2@@8		; ParamBlockDesc2::`RTTI Base Class Descriptor at (0,-1,0,64)'
PUBLIC	??_R0?AVParamBlockDesc2@@@8			; ParamBlockDesc2 `RTTI Type Descriptor'
PUBLIC	??_R3ParamBlockDesc2@@8				; ParamBlockDesc2::`RTTI Class Hierarchy Descriptor'
PUBLIC	??_R2ParamBlockDesc2@@8				; ParamBlockDesc2::`RTTI Base Class Array'
PUBLIC	??_R4BerconDistortionClassDesc@@6B@		; BerconDistortionClassDesc::`RTTI Complete Object Locator'
PUBLIC	??_R0?AVBerconDistortionClassDesc@@@8		; BerconDistortionClassDesc `RTTI Type Descriptor'
PUBLIC	??_R3BerconDistortionClassDesc@@8		; BerconDistortionClassDesc::`RTTI Class Hierarchy Descriptor'
PUBLIC	??_R2BerconDistortionClassDesc@@8		; BerconDistortionClassDesc::`RTTI Base Class Array'
PUBLIC	??_R1A@?0A@EA@BerconDistortionClassDesc@@8	; BerconDistortionClassDesc::`RTTI Base Class Descriptor at (0,-1,0,64)'
PUBLIC	??_R1A@?0A@EA@ClassDesc2@@8			; ClassDesc2::`RTTI Base Class Descriptor at (0,-1,0,64)'
PUBLIC	??_R3ClassDesc2@@8				; ClassDesc2::`RTTI Class Hierarchy Descriptor'
PUBLIC	??_R2ClassDesc2@@8				; ClassDesc2::`RTTI Base Class Array'
EXTRN	??_ETabOutOfRangeException@Util@MaxSDK@@UEAAPEAXI@Z:PROC ; MaxSDK::Util::TabOutOfRangeException::`vector deleting destructor'
EXTRN	??_EXYZ_Desc@@UEAAPEAXI@Z:PROC			; XYZ_Desc::`vector deleting destructor'
EXTRN	??_EBerconDistortionClassDesc@@UEAAPEAXI@Z:PROC	; BerconDistortionClassDesc::`vector deleting destructor'
EXTRN	??0Exception@Util@MaxSDK@@QEAA@AEBV012@@Z:PROC	; MaxSDK::Util::Exception::Exception
EXTRN	??0OutOfRangeException@Util@MaxSDK@@QEAA@AEBV012@@Z:PROC ; MaxSDK::Util::OutOfRangeException::OutOfRangeException
EXTRN	?AddInterface@ClassDesc@@UEAAXPEAVFPInterface@@@Z:PROC ; ClassDesc::AddInterface
EXTRN	?AddParamBlockDesc@ClassDesc2@@UEAAXPEAVParamBlockDesc2@@@Z:PROC ; ClassDesc2::AddParamBlockDesc
EXTRN	?BeginEditParams@ClassDesc2@@UEAAXPEAVIObjParam@@PEAVReferenceMaker@@KPEAVAnimatable@@@Z:PROC ; ClassDesc2::BeginEditParams
EXTRN	?EndEditParams@ClassDesc2@@UEAAXPEAVIObjParam@@PEAVReferenceMaker@@KPEAVAnimatable@@@Z:PROC ; ClassDesc2::EndEditParams
EXTRN	?GetInterface@BaseInterfaceServer@@UEAAPEAVBaseInterface@@VInterface_ID@@@Z:PROC ; BaseInterfaceServer::GetInterface
EXTRN	?GetInterface@ClassDesc@@UEAAPEAVFPInterface@@PEB_W@Z:PROC ; ClassDesc::GetInterface
EXTRN	?GetInterface@ClassDesc@@UEAAPEAVFPInterface@@VInterface_ID@@@Z:PROC ; ClassDesc::GetInterface
EXTRN	?GetInterfaceAt@BaseInterfaceServer@@UEBAPEAVBaseInterface@@H@Z:PROC ; BaseInterfaceServer::GetInterfaceAt
EXTRN	?GetParamBlockDesc@ClassDesc2@@UEAAPEAVParamBlockDesc2@@H@Z:PROC ; ClassDesc2::GetParamBlockDesc
EXTRN	?GetParamBlockDescByID@ClassDesc2@@UEAAPEAVParamBlockDesc2@@F@Z:PROC ; ClassDesc2::GetParamBlockDescByID
EXTRN	?GetParamMap@ClassDesc2@@UEAAPEAVIParamMap2@@H@Z:PROC ; ClassDesc2::GetParamMap
EXTRN	?GetRsrcString@ClassDesc@@UEAAPEB_W_J@Z:PROC	; ClassDesc::GetRsrcString
EXTRN	?InvalidateUI@ClassDesc2@@UEAAXPEAVParamBlockDesc2@@@Z:PROC ; ClassDesc2::InvalidateUI
EXTRN	?MakeAutoParamBlocks@ClassDesc2@@UEAAXPEAVReferenceMaker@@@Z:PROC ; ClassDesc2::MakeAutoParamBlocks
EXTRN	?NumInterfaces@BaseInterfaceServer@@UEBAHXZ:PROC ; BaseInterfaceServer::NumInterfaces
EXTRN	?NumParamBlockDescs@ClassDesc2@@UEAAHXZ:PROC	; ClassDesc2::NumParamBlockDescs
EXTRN	?NumParamMaps@ClassDesc2@@UEAAHXZ:PROC		; ClassDesc2::NumParamMaps
EXTRN	?ResetClassParams@ClassDesc2@@UEAAXH@Z:PROC	; ClassDesc2::ResetClassParams
EXTRN	GUID_NULL:BYTE
EXTRN	??_7type_info@@6B@:BYTE				; type_info::`vftable'
EXTRN	__imp_?TEXMAP_CAT_3D@@3PA_WA:BYTE
EXTRN	?hInstance@@3PEAUHINSTANCE__@@EA:QWORD		; hInstance
;	COMDAT IsolationAwarePrivateT_SqbjaYRiRY
_BSS	SEGMENT
IsolationAwarePrivateT_SqbjaYRiRY DD 01H DUP (?)
_BSS	ENDS
;	COMDAT IsolationAwarePrivateT_SAbnPgpgk
_BSS	SEGMENT
IsolationAwarePrivateT_SAbnPgpgk DD 01H DUP (?)
_BSS	ENDS
;	COMDAT WinbaseIsolationAwarePrivateT_SpeRNgRQnPgpgk
_BSS	SEGMENT
WinbaseIsolationAwarePrivateT_SpeRNgRQnPgpgk DD 01H DUP (?)
_BSS	ENDS
;	COMDAT WinbaseIsolationAwarePrivateT_SpYRNahcpNYYRQ
_BSS	SEGMENT
WinbaseIsolationAwarePrivateT_SpYRNahcpNYYRQ DD 01H DUP (?)
_BSS	ENDS
;	COMDAT ??_R2ClassDesc2@@8
rdata$r	SEGMENT
??_R2ClassDesc2@@8 DD imagerel ??_R1A@?0A@EA@ClassDesc2@@8 ; ClassDesc2::`RTTI Base Class Array'
	DD	imagerel ??_R1A@?0A@EA@ClassDesc@@8
	DD	imagerel ??_R17?0A@EA@MaxHeapOperators@@8
	ORG $+3
rdata$r	ENDS
;	COMDAT ??_R3ClassDesc2@@8
rdata$r	SEGMENT
??_R3ClassDesc2@@8 DD 00H				; ClassDesc2::`RTTI Class Hierarchy Descriptor'
	DD	00H
	DD	03H
	DD	imagerel ??_R2ClassDesc2@@8
rdata$r	ENDS
;	COMDAT ??_R1A@?0A@EA@ClassDesc2@@8
rdata$r	SEGMENT
??_R1A@?0A@EA@ClassDesc2@@8 DD imagerel ??_R0?AVClassDesc2@@@8 ; ClassDesc2::`RTTI Base Class Descriptor at (0,-1,0,64)'
	DD	02H
	DD	00H
	DD	0ffffffffH
	DD	00H
	DD	040H
	DD	imagerel ??_R3ClassDesc2@@8
rdata$r	ENDS
;	COMDAT ??_R1A@?0A@EA@BerconDistortionClassDesc@@8
rdata$r	SEGMENT
??_R1A@?0A@EA@BerconDistortionClassDesc@@8 DD imagerel ??_R0?AVBerconDistortionClassDesc@@@8 ; BerconDistortionClassDesc::`RTTI Base Class Descriptor at (0,-1,0,64)'
	DD	03H
	DD	00H
	DD	0ffffffffH
	DD	00H
	DD	040H
	DD	imagerel ??_R3BerconDistortionClassDesc@@8
rdata$r	ENDS
;	COMDAT ??_R2BerconDistortionClassDesc@@8
rdata$r	SEGMENT
??_R2BerconDistortionClassDesc@@8 DD imagerel ??_R1A@?0A@EA@BerconDistortionClassDesc@@8 ; BerconDistortionClassDesc::`RTTI Base Class Array'
	DD	imagerel ??_R1A@?0A@EA@ClassDesc2@@8
	DD	imagerel ??_R1A@?0A@EA@ClassDesc@@8
	DD	imagerel ??_R17?0A@EA@MaxHeapOperators@@8
	ORG $+3
rdata$r	ENDS
;	COMDAT ??_R3BerconDistortionClassDesc@@8
rdata$r	SEGMENT
??_R3BerconDistortionClassDesc@@8 DD 00H		; BerconDistortionClassDesc::`RTTI Class Hierarchy Descriptor'
	DD	00H
	DD	04H
	DD	imagerel ??_R2BerconDistortionClassDesc@@8
rdata$r	ENDS
;	COMDAT ??_R0?AVBerconDistortionClassDesc@@@8
data$r	SEGMENT
??_R0?AVBerconDistortionClassDesc@@@8 DQ FLAT:??_7type_info@@6B@ ; BerconDistortionClassDesc `RTTI Type Descriptor'
	DQ	0000000000000000H
	DB	'.?AVBerconDistortionClassDesc@@', 00H
data$r	ENDS
;	COMDAT ??_R4BerconDistortionClassDesc@@6B@
rdata$r	SEGMENT
??_R4BerconDistortionClassDesc@@6B@ DD 01H		; BerconDistortionClassDesc::`RTTI Complete Object Locator'
	DD	00H
	DD	00H
	DD	imagerel ??_R0?AVBerconDistortionClassDesc@@@8
	DD	imagerel ??_R3BerconDistortionClassDesc@@8
	DD	imagerel ??_R4BerconDistortionClassDesc@@6B@
rdata$r	ENDS
;	COMDAT ??_R2ParamBlockDesc2@@8
rdata$r	SEGMENT
??_R2ParamBlockDesc2@@8 DD imagerel ??_R1A@?0A@EA@ParamBlockDesc2@@8 ; ParamBlockDesc2::`RTTI Base Class Array'
	DD	imagerel ??_R1A@?0A@EA@BaseInterfaceServer@@8
	DD	imagerel ??_R1A@?0A@EA@InterfaceServer@@8
	DD	imagerel ??_R17?0A@EA@MaxHeapOperators@@8
	ORG $+3
rdata$r	ENDS
;	COMDAT ??_R3ParamBlockDesc2@@8
rdata$r	SEGMENT
??_R3ParamBlockDesc2@@8 DD 00H				; ParamBlockDesc2::`RTTI Class Hierarchy Descriptor'
	DD	00H
	DD	04H
	DD	imagerel ??_R2ParamBlockDesc2@@8
rdata$r	ENDS
;	COMDAT ??_R0?AVParamBlockDesc2@@@8
data$r	SEGMENT
??_R0?AVParamBlockDesc2@@@8 DQ FLAT:??_7type_info@@6B@	; ParamBlockDesc2 `RTTI Type Descriptor'
	DQ	0000000000000000H
	DB	'.?AVParamBlockDesc2@@', 00H
data$r	ENDS
;	COMDAT ??_R1A@?0A@EA@ParamBlockDesc2@@8
rdata$r	SEGMENT
??_R1A@?0A@EA@ParamBlockDesc2@@8 DD imagerel ??_R0?AVParamBlockDesc2@@@8 ; ParamBlockDesc2::`RTTI Base Class Descriptor at (0,-1,0,64)'
	DD	03H
	DD	00H
	DD	0ffffffffH
	DD	00H
	DD	040H
	DD	imagerel ??_R3ParamBlockDesc2@@8
rdata$r	ENDS
;	COMDAT ??_R1A@?0A@EA@XYZ_Desc@@8
rdata$r	SEGMENT
??_R1A@?0A@EA@XYZ_Desc@@8 DD imagerel ??_R0?AVXYZ_Desc@@@8 ; XYZ_Desc::`RTTI Base Class Descriptor at (0,-1,0,64)'
	DD	04H
	DD	00H
	DD	0ffffffffH
	DD	00H
	DD	040H
	DD	imagerel ??_R3XYZ_Desc@@8
rdata$r	ENDS
;	COMDAT ??_R2XYZ_Desc@@8
rdata$r	SEGMENT
??_R2XYZ_Desc@@8 DD imagerel ??_R1A@?0A@EA@XYZ_Desc@@8	; XYZ_Desc::`RTTI Base Class Array'
	DD	imagerel ??_R1A@?0A@EA@ParamBlockDesc2@@8
	DD	imagerel ??_R1A@?0A@EA@BaseInterfaceServer@@8
	DD	imagerel ??_R1A@?0A@EA@InterfaceServer@@8
	DD	imagerel ??_R17?0A@EA@MaxHeapOperators@@8
	ORG $+3
rdata$r	ENDS
;	COMDAT ??_R3XYZ_Desc@@8
rdata$r	SEGMENT
??_R3XYZ_Desc@@8 DD 00H					; XYZ_Desc::`RTTI Class Hierarchy Descriptor'
	DD	00H
	DD	05H
	DD	imagerel ??_R2XYZ_Desc@@8
rdata$r	ENDS
;	COMDAT ??_R0?AVXYZ_Desc@@@8
data$r	SEGMENT
??_R0?AVXYZ_Desc@@@8 DQ FLAT:??_7type_info@@6B@		; XYZ_Desc `RTTI Type Descriptor'
	DQ	0000000000000000H
	DB	'.?AVXYZ_Desc@@', 00H
data$r	ENDS
;	COMDAT ??_R4XYZ_Desc@@6B@
rdata$r	SEGMENT
??_R4XYZ_Desc@@6B@ DD 01H				; XYZ_Desc::`RTTI Complete Object Locator'
	DD	00H
	DD	00H
	DD	imagerel ??_R0?AVXYZ_Desc@@@8
	DD	imagerel ??_R3XYZ_Desc@@8
	DD	imagerel ??_R4XYZ_Desc@@6B@
rdata$r	ENDS
;	COMDAT ??_R1A@?0A@EA@ClassDesc@@8
rdata$r	SEGMENT
??_R1A@?0A@EA@ClassDesc@@8 DD imagerel ??_R0?AVClassDesc@@@8 ; ClassDesc::`RTTI Base Class Descriptor at (0,-1,0,64)'
	DD	01H
	DD	00H
	DD	0ffffffffH
	DD	00H
	DD	040H
	DD	imagerel ??_R3ClassDesc@@8
rdata$r	ENDS
;	COMDAT ??_R2ClassDesc@@8
rdata$r	SEGMENT
??_R2ClassDesc@@8 DD imagerel ??_R1A@?0A@EA@ClassDesc@@8 ; ClassDesc::`RTTI Base Class Array'
	DD	imagerel ??_R17?0A@EA@MaxHeapOperators@@8
	ORG $+3
rdata$r	ENDS
;	COMDAT ??_R3ClassDesc@@8
rdata$r	SEGMENT
??_R3ClassDesc@@8 DD 00H				; ClassDesc::`RTTI Class Hierarchy Descriptor'
	DD	00H
	DD	02H
	DD	imagerel ??_R2ClassDesc@@8
rdata$r	ENDS
;	COMDAT ??_R0?AVClassDesc@@@8
data$r	SEGMENT
??_R0?AVClassDesc@@@8 DQ FLAT:??_7type_info@@6B@	; ClassDesc `RTTI Type Descriptor'
	DQ	0000000000000000H
	DB	'.?AVClassDesc@@', 00H
data$r	ENDS
;	COMDAT ??_R1A@?0A@EA@BaseInterfaceServer@@8
rdata$r	SEGMENT
??_R1A@?0A@EA@BaseInterfaceServer@@8 DD imagerel ??_R0?AVBaseInterfaceServer@@@8 ; BaseInterfaceServer::`RTTI Base Class Descriptor at (0,-1,0,64)'
	DD	02H
	DD	00H
	DD	0ffffffffH
	DD	00H
	DD	040H
	DD	imagerel ??_R3BaseInterfaceServer@@8
rdata$r	ENDS
;	COMDAT ??_R2BaseInterfaceServer@@8
rdata$r	SEGMENT
??_R2BaseInterfaceServer@@8 DD imagerel ??_R1A@?0A@EA@BaseInterfaceServer@@8 ; BaseInterfaceServer::`RTTI Base Class Array'
	DD	imagerel ??_R1A@?0A@EA@InterfaceServer@@8
	DD	imagerel ??_R17?0A@EA@MaxHeapOperators@@8
	ORG $+3
rdata$r	ENDS
;	COMDAT ??_R3BaseInterfaceServer@@8
rdata$r	SEGMENT
??_R3BaseInterfaceServer@@8 DD 00H			; BaseInterfaceServer::`RTTI Class Hierarchy Descriptor'
	DD	00H
	DD	03H
	DD	imagerel ??_R2BaseInterfaceServer@@8
rdata$r	ENDS
;	COMDAT ??_R0?AVBaseInterfaceServer@@@8
data$r	SEGMENT
??_R0?AVBaseInterfaceServer@@@8 DQ FLAT:??_7type_info@@6B@ ; BaseInterfaceServer `RTTI Type Descriptor'
	DQ	0000000000000000H
	DB	'.?AVBaseInterfaceServer@@', 00H
data$r	ENDS
;	COMDAT ??_R1A@?0A@EA@InterfaceServer@@8
rdata$r	SEGMENT
??_R1A@?0A@EA@InterfaceServer@@8 DD imagerel ??_R0?AVInterfaceServer@@@8 ; InterfaceServer::`RTTI Base Class Descriptor at (0,-1,0,64)'
	DD	01H
	DD	00H
	DD	0ffffffffH
	DD	00H
	DD	040H
	DD	imagerel ??_R3InterfaceServer@@8
rdata$r	ENDS
;	COMDAT ??_R2InterfaceServer@@8
rdata$r	SEGMENT
??_R2InterfaceServer@@8 DD imagerel ??_R1A@?0A@EA@InterfaceServer@@8 ; InterfaceServer::`RTTI Base Class Array'
	DD	imagerel ??_R17?0A@EA@MaxHeapOperators@@8
	ORG $+3
rdata$r	ENDS
;	COMDAT ??_R3InterfaceServer@@8
rdata$r	SEGMENT
??_R3InterfaceServer@@8 DD 00H				; InterfaceServer::`RTTI Class Hierarchy Descriptor'
	DD	00H
	DD	02H
	DD	imagerel ??_R2InterfaceServer@@8
rdata$r	ENDS
;	COMDAT ??_R0?AVInterfaceServer@@@8
data$r	SEGMENT
??_R0?AVInterfaceServer@@@8 DQ FLAT:??_7type_info@@6B@	; InterfaceServer `RTTI Type Descriptor'
	DQ	0000000000000000H
	DB	'.?AVInterfaceServer@@', 00H
data$r	ENDS
;	COMDAT ??_R1A@?0A@EA@MaxHeapOperators@@8
rdata$r	SEGMENT
??_R1A@?0A@EA@MaxHeapOperators@@8 DD imagerel ??_R0?AVMaxHeapOperators@@@8 ; MaxHeapOperators::`RTTI Base Class Descriptor at (0,-1,0,64)'
	DD	00H
	DD	00H
	DD	0ffffffffH
	DD	00H
	DD	040H
	DD	imagerel ??_R3MaxHeapOperators@@8
rdata$r	ENDS
;	COMDAT ??_R2MaxHeapOperators@@8
rdata$r	SEGMENT
??_R2MaxHeapOperators@@8 DD imagerel ??_R1A@?0A@EA@MaxHeapOperators@@8 ; MaxHeapOperators::`RTTI Base Class Array'
	ORG $+3
rdata$r	ENDS
;	COMDAT ??_R3MaxHeapOperators@@8
rdata$r	SEGMENT
??_R3MaxHeapOperators@@8 DD 00H				; MaxHeapOperators::`RTTI Class Hierarchy Descriptor'
	DD	00H
	DD	01H
	DD	imagerel ??_R2MaxHeapOperators@@8
rdata$r	ENDS
;	COMDAT ??_R17?0A@EA@MaxHeapOperators@@8
rdata$r	SEGMENT
??_R17?0A@EA@MaxHeapOperators@@8 DD imagerel ??_R0?AVMaxHeapOperators@@@8 ; MaxHeapOperators::`RTTI Base Class Descriptor at (8,-1,0,64)'
	DD	00H
	DD	08H
	DD	0ffffffffH
	DD	00H
	DD	040H
	DD	imagerel ??_R3MaxHeapOperators@@8
rdata$r	ENDS
;	COMDAT ??_R2Exception@Util@MaxSDK@@8
rdata$r	SEGMENT
??_R2Exception@Util@MaxSDK@@8 DD imagerel ??_R1A@?0A@EA@Exception@Util@MaxSDK@@8 ; MaxSDK::Util::Exception::`RTTI Base Class Array'
	DD	imagerel ??_R17?0A@EA@MaxHeapOperators@@8
	ORG $+3
rdata$r	ENDS
;	COMDAT ??_R3Exception@Util@MaxSDK@@8
rdata$r	SEGMENT
??_R3Exception@Util@MaxSDK@@8 DD 00H			; MaxSDK::Util::Exception::`RTTI Class Hierarchy Descriptor'
	DD	00H
	DD	02H
	DD	imagerel ??_R2Exception@Util@MaxSDK@@8
rdata$r	ENDS
;	COMDAT ??_R1A@?0A@EA@Exception@Util@MaxSDK@@8
rdata$r	SEGMENT
??_R1A@?0A@EA@Exception@Util@MaxSDK@@8 DD imagerel ??_R0?AVException@Util@MaxSDK@@@8 ; MaxSDK::Util::Exception::`RTTI Base Class Descriptor at (0,-1,0,64)'
	DD	01H
	DD	00H
	DD	0ffffffffH
	DD	00H
	DD	040H
	DD	imagerel ??_R3Exception@Util@MaxSDK@@8
rdata$r	ENDS
;	COMDAT ??_R2OutOfRangeException@Util@MaxSDK@@8
rdata$r	SEGMENT
??_R2OutOfRangeException@Util@MaxSDK@@8 DD imagerel ??_R1A@?0A@EA@OutOfRangeException@Util@MaxSDK@@8 ; MaxSDK::Util::OutOfRangeException::`RTTI Base Class Array'
	DD	imagerel ??_R1A@?0A@EA@Exception@Util@MaxSDK@@8
	DD	imagerel ??_R17?0A@EA@MaxHeapOperators@@8
	ORG $+3
rdata$r	ENDS
;	COMDAT ??_R3OutOfRangeException@Util@MaxSDK@@8
rdata$r	SEGMENT
??_R3OutOfRangeException@Util@MaxSDK@@8 DD 00H		; MaxSDK::Util::OutOfRangeException::`RTTI Class Hierarchy Descriptor'
	DD	00H
	DD	03H
	DD	imagerel ??_R2OutOfRangeException@Util@MaxSDK@@8
rdata$r	ENDS
;	COMDAT ??_R1A@?0A@EA@OutOfRangeException@Util@MaxSDK@@8
rdata$r	SEGMENT
??_R1A@?0A@EA@OutOfRangeException@Util@MaxSDK@@8 DD imagerel ??_R0?AVOutOfRangeException@Util@MaxSDK@@@8 ; MaxSDK::Util::OutOfRangeException::`RTTI Base Class Descriptor at (0,-1,0,64)'
	DD	02H
	DD	00H
	DD	0ffffffffH
	DD	00H
	DD	040H
	DD	imagerel ??_R3OutOfRangeException@Util@MaxSDK@@8
rdata$r	ENDS
;	COMDAT ??_R1A@?0A@EA@TabOutOfRangeException@Util@MaxSDK@@8
rdata$r	SEGMENT
??_R1A@?0A@EA@TabOutOfRangeException@Util@MaxSDK@@8 DD imagerel ??_R0?AVTabOutOfRangeException@Util@MaxSDK@@@8 ; MaxSDK::Util::TabOutOfRangeException::`RTTI Base Class Descriptor at (0,-1,0,64)'
	DD	03H
	DD	00H
	DD	0ffffffffH
	DD	00H
	DD	040H
	DD	imagerel ??_R3TabOutOfRangeException@Util@MaxSDK@@8
rdata$r	ENDS
;	COMDAT ??_R2TabOutOfRangeException@Util@MaxSDK@@8
rdata$r	SEGMENT
??_R2TabOutOfRangeException@Util@MaxSDK@@8 DD imagerel ??_R1A@?0A@EA@TabOutOfRangeException@Util@MaxSDK@@8 ; MaxSDK::Util::TabOutOfRangeException::`RTTI Base Class Array'
	DD	imagerel ??_R1A@?0A@EA@OutOfRangeException@Util@MaxSDK@@8
	DD	imagerel ??_R1A@?0A@EA@Exception@Util@MaxSDK@@8
	DD	imagerel ??_R17?0A@EA@MaxHeapOperators@@8
	ORG $+3
rdata$r	ENDS
;	COMDAT ??_R3TabOutOfRangeException@Util@MaxSDK@@8
rdata$r	SEGMENT
??_R3TabOutOfRangeException@Util@MaxSDK@@8 DD 00H	; MaxSDK::Util::TabOutOfRangeException::`RTTI Class Hierarchy Descriptor'
	DD	00H
	DD	04H
	DD	imagerel ??_R2TabOutOfRangeException@Util@MaxSDK@@8
rdata$r	ENDS
;	COMDAT ??_R4TabOutOfRangeException@Util@MaxSDK@@6B@
rdata$r	SEGMENT
??_R4TabOutOfRangeException@Util@MaxSDK@@6B@ DD 01H	; MaxSDK::Util::TabOutOfRangeException::`RTTI Complete Object Locator'
	DD	00H
	DD	00H
	DD	imagerel ??_R0?AVTabOutOfRangeException@Util@MaxSDK@@@8
	DD	imagerel ??_R3TabOutOfRangeException@Util@MaxSDK@@8
	DD	imagerel ??_R4TabOutOfRangeException@Util@MaxSDK@@6B@
rdata$r	ENDS
;	COMDAT ?__LINE__Var@?0???0TabOutOfRangeException@Util@MaxSDK@@QEAA@AEBV123@@Z@4JA
_DATA	SEGMENT
?__LINE__Var@?0???0TabOutOfRangeException@Util@MaxSDK@@QEAA@AEBV123@@Z@4JA DD 0feH ; `MaxSDK::Util::TabOutOfRangeException::TabOutOfRangeException'::`1'::__LINE__Var
_DATA	ENDS
;	COMDAT ?__LINE__Var@?0??Count@?$Tab@PEAVFPInterface@@@@QEBAHXZ@4JA
_DATA	SEGMENT
?__LINE__Var@?0??Count@?$Tab@PEAVFPInterface@@@@QEBAHXZ@4JA DD 0dcH ; `Tab<FPInterface *>::Count'::`1'::__LINE__Var
_DATA	ENDS
;	COMDAT ?__LINE__Var@?0??ZeroCount@?$Tab@PEAVFPInterface@@@@QEAAXXZ@4JA
_DATA	SEGMENT
?__LINE__Var@?0??ZeroCount@?$Tab@PEAVFPInterface@@@@QEAAXXZ@4JA DD 0e8H ; `Tab<FPInterface *>::ZeroCount'::`1'::__LINE__Var
_DATA	ENDS
;	COMDAT ??_C@_1EM@PJAEPBLB@?$AAT?$AAa?$AAb?$AA?$DM?$AAc?$AAl?$AAa?$AAs?$AAs?$AA?5?$AAF?$AAP?$AAI?$AAn?$AAt@
CONST	SEGMENT
??_C@_1EM@PJAEPBLB@?$AAT?$AAa?$AAb?$AA?$DM?$AAc?$AAl?$AAa?$AAs?$AAs?$AA?5?$AAF?$AAP?$AAI?$AAn?$AAt@ DB 'T'
	DB	00H, 'a', 00H, 'b', 00H, '<', 00H, 'c', 00H, 'l', 00H, 'a', 00H
	DB	's', 00H, 's', 00H, ' ', 00H, 'F', 00H, 'P', 00H, 'I', 00H, 'n'
	DB	00H, 't', 00H, 'e', 00H, 'r', 00H, 'f', 00H, 'a', 00H, 'c', 00H
	DB	'e', 00H, ' ', 00H, '*', 00H, '>', 00H, ':', 00H, ':', 00H, 'o'
	DB	00H, 'p', 00H, 'e', 00H, 'r', 00H, 'a', 00H, 't', 00H, 'o', 00H
	DB	'r', 00H, ' ', 00H, '[', 00H, ']', 00H, 00H, 00H ; `string'
CONST	ENDS
;	COMDAT ?__LINE__Var@?0???A?$Tab@PEAVFPInterface@@@@QEBAAEAPEAVFPInterface@@_J@Z@4JA
_DATA	SEGMENT
?__LINE__Var@?0???A?$Tab@PEAVFPInterface@@@@QEBAAEAPEAVFPInterface@@_J@Z@4JA DD 0165H ; `Tab<FPInterface *>::operator[]'::`1'::__LINE__Var
_DATA	ENDS
;	COMDAT ??_C@_1GI@NLEIFPEJ@?$AAI?$AAn?$AAv?$AAa?$AAl?$AAi?$AAd?$AA?5?$AAi?$AAn?$AAd?$AAe?$AAx?$AA?5?$AAp@
CONST	SEGMENT
??_C@_1GI@NLEIFPEJ@?$AAI?$AAn?$AAv?$AAa?$AAl?$AAi?$AAd?$AA?5?$AAi?$AAn?$AAd?$AAe?$AAx?$AA?5?$AAp@ DB 'I'
	DB	00H, 'n', 00H, 'v', 00H, 'a', 00H, 'l', 00H, 'i', 00H, 'd', 00H
	DB	' ', 00H, 'i', 00H, 'n', 00H, 'd', 00H, 'e', 00H, 'x', 00H, ' '
	DB	00H, 'p', 00H, 'a', 00H, 's', 00H, 's', 00H, 'e', 00H, 'd', 00H
	DB	' ', 00H, 'i', 00H, 'n', 00H, 't', 00H, 'o', 00H, ' ', 00H, 'a'
	DB	00H, ' ', 00H, 'M', 00H, 'a', 00H, 'x', 00H, ' ', 00H, 'S', 00H
	DB	'D', 00H, 'K', 00H, ' ', 00H, 'T', 00H, 'a', 00H, 'b', 00H, ':'
	DB	00H, ':', 00H, 'o', 00H, 'p', 00H, 'e', 00H, 'r', 00H, 'a', 00H
	DB	't', 00H, 'o', 00H, 'r', 00H, '[', 00H, ']', 00H, 00H, 00H ; `string'
CONST	ENDS
;	COMDAT _CT??_R0?AVException@Util@MaxSDK@@@8??0Exception@Util@MaxSDK@@QEAA@AEBV012@@Z16
xdata$x	SEGMENT
_CT??_R0?AVException@Util@MaxSDK@@@8??0Exception@Util@MaxSDK@@QEAA@AEBV012@@Z16 DD 00H
	DD	imagerel ??_R0?AVException@Util@MaxSDK@@@8
	DD	00H
	DD	0ffffffffH
	ORG $+4
	DD	010H
	DD	imagerel __imp_??0Exception@Util@MaxSDK@@QEAA@AEBV012@@Z
xdata$x	ENDS
;	COMDAT ??_R0?AVException@Util@MaxSDK@@@8
data$r	SEGMENT
??_R0?AVException@Util@MaxSDK@@@8 DQ FLAT:??_7type_info@@6B@ ; MaxSDK::Util::Exception `RTTI Type Descriptor'
	DQ	0000000000000000H
	DB	'.?AVException@Util@MaxSDK@@', 00H
data$r	ENDS
;	COMDAT _CT??_R0?AVOutOfRangeException@Util@MaxSDK@@@8??0OutOfRangeException@Util@MaxSDK@@QEAA@AEBV012@@Z16
xdata$x	SEGMENT
_CT??_R0?AVOutOfRangeException@Util@MaxSDK@@@8??0OutOfRangeException@Util@MaxSDK@@QEAA@AEBV012@@Z16 DD 00H
	DD	imagerel ??_R0?AVOutOfRangeException@Util@MaxSDK@@@8
	DD	00H
	DD	0ffffffffH
	ORG $+4
	DD	010H
	DD	imagerel __imp_??0OutOfRangeException@Util@MaxSDK@@QEAA@AEBV012@@Z
xdata$x	ENDS
;	COMDAT ??_R0?AVOutOfRangeException@Util@MaxSDK@@@8
data$r	SEGMENT
??_R0?AVOutOfRangeException@Util@MaxSDK@@@8 DQ FLAT:??_7type_info@@6B@ ; MaxSDK::Util::OutOfRangeException `RTTI Type Descriptor'
	DQ	0000000000000000H
	DB	'.?AVOutOfRangeException@Util@MaxSDK@@', 00H
data$r	ENDS
;	COMDAT _CT??_R0?AVTabOutOfRangeException@Util@MaxSDK@@@8??0TabOutOfRangeException@Util@MaxSDK@@QEAA@AEBV012@@Z16
xdata$x	SEGMENT
_CT??_R0?AVTabOutOfRangeException@Util@MaxSDK@@@8??0TabOutOfRangeException@Util@MaxSDK@@QEAA@AEBV012@@Z16 DD 00H
	DD	imagerel ??_R0?AVTabOutOfRangeException@Util@MaxSDK@@@8
	DD	00H
	DD	0ffffffffH
	ORG $+4
	DD	010H
	DD	imagerel ??0TabOutOfRangeException@Util@MaxSDK@@QEAA@AEBV012@@Z
xdata$x	ENDS
;	COMDAT ??_R0?AVTabOutOfRangeException@Util@MaxSDK@@@8
data$r	SEGMENT
??_R0?AVTabOutOfRangeException@Util@MaxSDK@@@8 DQ FLAT:??_7type_info@@6B@ ; MaxSDK::Util::TabOutOfRangeException `RTTI Type Descriptor'
	DQ	0000000000000000H
	DB	'.?AVTabOutOfRangeException@Util@MaxSDK@@', 00H
data$r	ENDS
;	COMDAT _CTA4?AVTabOutOfRangeException@Util@MaxSDK@@
xdata$x	SEGMENT
_CTA4?AVTabOutOfRangeException@Util@MaxSDK@@ DD 04H
	DD	imagerel _CT??_R0?AVTabOutOfRangeException@Util@MaxSDK@@@8??0TabOutOfRangeException@Util@MaxSDK@@QEAA@AEBV012@@Z16
	DD	imagerel _CT??_R0?AVOutOfRangeException@Util@MaxSDK@@@8??0OutOfRangeException@Util@MaxSDK@@QEAA@AEBV012@@Z16
	DD	imagerel _CT??_R0?AVException@Util@MaxSDK@@@8??0Exception@Util@MaxSDK@@QEAA@AEBV012@@Z16
	DD	imagerel _CT??_R0?AVMaxHeapOperators@@@818
xdata$x	ENDS
;	COMDAT _TI4?AVTabOutOfRangeException@Util@MaxSDK@@
xdata$x	SEGMENT
_TI4?AVTabOutOfRangeException@Util@MaxSDK@@ DD 00H
	DD	imagerel ??1TabOutOfRangeException@Util@MaxSDK@@UEAA@XZ
	DD	00H
	DD	imagerel _CTA4?AVTabOutOfRangeException@Util@MaxSDK@@
xdata$x	ENDS
;	COMDAT ??_C@_1CI@OKLGNBMM@?$AAt?$AAh?$AA?5?$AA?$CG?$AA?$CG?$AA?5?$AAi?$AA?5?$AA?$DM?$AA?5?$AAt?$AAh?$AA?9?$AA?$DO?$AAc@
CONST	SEGMENT
??_C@_1CI@OKLGNBMM@?$AAt?$AAh?$AA?5?$AA?$CG?$AA?$CG?$AA?5?$AAi?$AA?5?$AA?$DM?$AA?5?$AAt?$AAh?$AA?9?$AA?$DO?$AAc@ DB 't'
	DB	00H, 'h', 00H, ' ', 00H, '&', 00H, '&', 00H, ' ', 00H, 'i', 00H
	DB	' ', 00H, '<', 00H, ' ', 00H, 't', 00H, 'h', 00H, '-', 00H, '>'
	DB	00H, 'c', 00H, 'o', 00H, 'u', 00H, 'n', 00H, 't', 00H, 00H, 00H ; `string'
CONST	ENDS
;	COMDAT ??_C@_1IA@LGDLJFJ@?$AAc?$AA?3?$AA?2?$AAp?$AAr?$AAo?$AAg?$AAr?$AAa?$AAm?$AA?5?$AAf?$AAi?$AAl?$AAe@
CONST	SEGMENT
??_C@_1IA@LGDLJFJ@?$AAc?$AA?3?$AA?2?$AAp?$AAr?$AAo?$AAg?$AAr?$AAa?$AAm?$AA?5?$AAf?$AAi?$AAl?$AAe@ DB 'c'
	DB	00H, ':', 00H, '\', 00H, 'p', 00H, 'r', 00H, 'o', 00H, 'g', 00H
	DB	'r', 00H, 'a', 00H, 'm', 00H, ' ', 00H, 'f', 00H, 'i', 00H, 'l'
	DB	00H, 'e', 00H, 's', 00H, '\', 00H, 'a', 00H, 'u', 00H, 't', 00H
	DB	'o', 00H, 'd', 00H, 'e', 00H, 's', 00H, 'k', 00H, '\', 00H, '3'
	DB	00H, 'd', 00H, 's', 00H, ' ', 00H, 'm', 00H, 'a', 00H, 'x', 00H
	DB	' ', 00H, '2', 00H, '0', 00H, '1', 00H, '9', 00H, ' ', 00H, 's'
	DB	00H, 'd', 00H, 'k', 00H, '\', 00H, 'm', 00H, 'a', 00H, 'x', 00H
	DB	's', 00H, 'd', 00H, 'k', 00H, '\', 00H, 'i', 00H, 'n', 00H, 'c'
	DB	00H, 'l', 00H, 'u', 00H, 'd', 00H, 'e', 00H, '\', 00H, 't', 00H
	DB	'a', 00H, 'b', 00H, '.', 00H, 'h', 00H, 00H, 00H ; `string'
CONST	ENDS
;	COMDAT ??_C@_15CABMMOGH@?$AAt?$AAh@
CONST	SEGMENT
??_C@_15CABMMOGH@?$AAt?$AAh@ DB 't', 00H, 'h', 00H, 00H, 00H ; `string'
CONST	ENDS
;	COMDAT ??_C@_1O@FEMBPDGM@?$AAp?$AAa?$AAr?$AAa?$AAm?$AAs@
CONST	SEGMENT
??_C@_1O@FEMBPDGM@?$AAp?$AAa?$AAr?$AAa?$AAm?$AAs@ DB 'p', 00H, 'a', 00H, 'r'
	DB	00H, 'a', 00H, 'm', 00H, 's', 00H, 00H, 00H	; `string'
CONST	ENDS
;	COMDAT ??_C@_19MNJBOCOC@?$AAm?$AAa?$AAp?$AA3@
CONST	SEGMENT
??_C@_19MNJBOCOC@?$AAm?$AAa?$AAp?$AA3@ DB 'm', 00H, 'a', 00H, 'p', 00H, '3'
	DB	00H, 00H, 00H				; `string'
CONST	ENDS
;	COMDAT ??_C@_19GHJICKGJ@?$AAm?$AAa?$AAp?$AA1@
CONST	SEGMENT
??_C@_19GHJICKGJ@?$AAm?$AAa?$AAp?$AA1@ DB 'm', 00H, 'a', 00H, 'p', 00H, '1'
	DB	00H, 00H, 00H				; `string'
CONST	ENDS
;	COMDAT ??_C@_19HFCNIFIH@?$AAm?$AAa?$AAp?$AA2@
CONST	SEGMENT
??_C@_19HFCNIFIH@?$AAm?$AAa?$AAp?$AA2@ DB 'm', 00H, 'a', 00H, 'p', 00H, '2'
	DB	00H, 00H, 00H				; `string'
CONST	ENDS
;	COMDAT ??_C@_1BM@DKGEJKPL@?$AAd?$AAi?$AAs?$AAt?$AAo?$AAr?$AAt?$AAi?$AAo?$AAn?$AAS?$AAt?$AAr@
CONST	SEGMENT
??_C@_1BM@DKGEJKPL@?$AAd?$AAi?$AAs?$AAt?$AAo?$AAr?$AAt?$AAi?$AAo?$AAn?$AAS?$AAt?$AAr@ DB 'd'
	DB	00H, 'i', 00H, 's', 00H, 't', 00H, 'o', 00H, 'r', 00H, 't', 00H
	DB	'i', 00H, 'o', 00H, 'n', 00H, 'S', 00H, 't', 00H, 'r', 00H, 00H
	DB	00H						; `string'
CONST	ENDS
;	COMDAT ??_C@_1BM@HCNKLGAJ@?$AAu?$AAs?$AAe?$AAD?$AAi?$AAs?$AAt?$AAo?$AAr?$AAt?$AAi?$AAo?$AAn@
CONST	SEGMENT
??_C@_1BM@HCNKLGAJ@?$AAu?$AAs?$AAe?$AAD?$AAi?$AAs?$AAt?$AAo?$AAr?$AAt?$AAi?$AAo?$AAn@ DB 'u'
	DB	00H, 's', 00H, 'e', 00H, 'D', 00H, 'i', 00H, 's', 00H, 't', 00H
	DB	'o', 00H, 'r', 00H, 't', 00H, 'i', 00H, 'o', 00H, 'n', 00H, 00H
	DB	00H						; `string'
CONST	ENDS
;	COMDAT ?__LINE__Var@?0???_GBerconDistortionClassDesc@@UEAAPEAXI@Z@4JA
_DATA	SEGMENT
?__LINE__Var@?0???_GBerconDistortionClassDesc@@UEAAPEAXI@Z@4JA DD 07cH ; `BerconDistortionClassDesc::`scalar deleting destructor''::`1'::__LINE__Var
_DATA	ENDS
;	COMDAT ?__LINE__Var@?0??HInstance@BerconDistortionClassDesc@@UEAAPEAUHINSTANCE__@@XZ@4JA
_DATA	SEGMENT
?__LINE__Var@?0??HInstance@BerconDistortionClassDesc@@UEAAPEAUHINSTANCE__@@XZ@4JA DD 07bH ; `BerconDistortionClassDesc::HInstance'::`1'::__LINE__Var
_DATA	ENDS
;	COMDAT ??_C@_1BM@IANNOHHL@?$AAB?$AAe?$AAr?$AAc?$AAo?$AAn?$AAM?$AAa?$AAp?$AAp?$AAi?$AAn?$AAg@
CONST	SEGMENT
??_C@_1BM@IANNOHHL@?$AAB?$AAe?$AAr?$AAc?$AAo?$AAn?$AAM?$AAa?$AAp?$AAp?$AAi?$AAn?$AAg@ DB 'B'
	DB	00H, 'e', 00H, 'r', 00H, 'c', 00H, 'o', 00H, 'n', 00H, 'M', 00H
	DB	'a', 00H, 'p', 00H, 'p', 00H, 'i', 00H, 'n', 00H, 'g', 00H, 00H
	DB	00H						; `string'
CONST	ENDS
;	COMDAT ?__LINE__Var@?0??InternalName@BerconDistortionClassDesc@@UEAAPEB_WXZ@4JA
_DATA	SEGMENT
?__LINE__Var@?0??InternalName@BerconDistortionClassDesc@@UEAAPEB_WXZ@4JA DD 07aH ; `BerconDistortionClassDesc::InternalName'::`1'::__LINE__Var
_DATA	ENDS
;	COMDAT ?__LINE__Var@?0??Category@BerconDistortionClassDesc@@UEAAPEB_WXZ@4JA
_DATA	SEGMENT
?__LINE__Var@?0??Category@BerconDistortionClassDesc@@UEAAPEB_WXZ@4JA DD 078H ; `BerconDistortionClassDesc::Category'::`1'::__LINE__Var
_DATA	ENDS
;	COMDAT ?__LINE__Var@?0??ClassID@BerconDistortionClassDesc@@UEAA?AVClass_ID@@XZ@4JA
_DATA	SEGMENT
?__LINE__Var@?0??ClassID@BerconDistortionClassDesc@@UEAA?AVClass_ID@@XZ@4JA DD 077H ; `BerconDistortionClassDesc::ClassID'::`1'::__LINE__Var
_DATA	ENDS
;	COMDAT ?__LINE__Var@?0??SuperClassID@BerconDistortionClassDesc@@UEAAKXZ@4JA
_DATA	SEGMENT
?__LINE__Var@?0??SuperClassID@BerconDistortionClassDesc@@UEAAKXZ@4JA DD 076H ; `BerconDistortionClassDesc::SuperClassID'::`1'::__LINE__Var
_DATA	ENDS
;	COMDAT ?__LINE__Var@?0??ClassName@BerconDistortionClassDesc@@UEAAPEB_WXZ@4JA
_DATA	SEGMENT
?__LINE__Var@?0??ClassName@BerconDistortionClassDesc@@UEAAPEB_WXZ@4JA DD 075H ; `BerconDistortionClassDesc::ClassName'::`1'::__LINE__Var
_DATA	ENDS
;	COMDAT ?__LINE__Var@?0??Create@BerconDistortionClassDesc@@UEAAPEAXH@Z@4JA
_DATA	SEGMENT
?__LINE__Var@?0??Create@BerconDistortionClassDesc@@UEAAPEAXH@Z@4JA DD 074H ; `BerconDistortionClassDesc::Create'::`1'::__LINE__Var
_DATA	ENDS
;	COMDAT ?__LINE__Var@?0??IsPublic@BerconDistortionClassDesc@@UEAAHXZ@4JA
_DATA	SEGMENT
?__LINE__Var@?0??IsPublic@BerconDistortionClassDesc@@UEAAHXZ@4JA DD 073H ; `BerconDistortionClassDesc::IsPublic'::`1'::__LINE__Var
_DATA	ENDS
;	COMDAT ?__LINE__Var@?0???1BerconDistortionClassDesc@@UEAA@XZ@4JA
_DATA	SEGMENT
?__LINE__Var@?0???1BerconDistortionClassDesc@@UEAA@XZ@4JA DD 072H ; `BerconDistortionClassDesc::~BerconDistortionClassDesc'::`1'::__LINE__Var
_DATA	ENDS
;	COMDAT ?__LINE__Var@?0???0BerconDistortionClassDesc@@QEAA@XZ@4JA
_DATA	SEGMENT
?__LINE__Var@?0???0BerconDistortionClassDesc@@QEAA@XZ@4JA DD 071H ; `BerconDistortionClassDesc::BerconDistortionClassDesc'::`1'::__LINE__Var
_DATA	ENDS
;	COMDAT ??_7BerconDistortionClassDesc@@6B@
CONST	SEGMENT
??_7BerconDistortionClassDesc@@6B@ DQ FLAT:??_R4BerconDistortionClassDesc@@6B@ ; BerconDistortionClassDesc::`vftable'
	DQ	FLAT:??_EBerconDistortionClassDesc@@UEAAPEAXI@Z
	DQ	FLAT:?IsPublic@BerconDistortionClassDesc@@UEAAHXZ
	DQ	FLAT:?Create@BerconDistortionClassDesc@@UEAAPEAXH@Z
	DQ	FLAT:?BeginCreate@ClassDesc@@UEAAHPEAVInterface@@@Z
	DQ	FLAT:?EndCreate@ClassDesc@@UEAAHPEAVInterface@@@Z
	DQ	FLAT:?OkToCreate@ClassDesc@@UEAAHPEAVInterface@@@Z
	DQ	FLAT:?ClassName@BerconDistortionClassDesc@@UEAAPEB_WXZ
	DQ	FLAT:?SuperClassID@BerconDistortionClassDesc@@UEAAKXZ
	DQ	FLAT:?ClassID@BerconDistortionClassDesc@@UEAA?AVClass_ID@@XZ
	DQ	FLAT:?Category@BerconDistortionClassDesc@@UEAAPEB_WXZ
	DQ	FLAT:?HasClassParams@ClassDesc@@UEAAHXZ
	DQ	FLAT:?EditClassParams@ClassDesc@@UEAAXPEAUHWND__@@@Z
	DQ	FLAT:?ResetClassParams@ClassDesc2@@UEAAXH@Z
	DQ	FLAT:?NumActionTables@ClassDesc@@UEAAHXZ
	DQ	FLAT:?GetActionTable@ClassDesc@@UEAAPEAVActionTable@@H@Z
	DQ	FLAT:?IsManipulator@ClassDesc@@UEAAHXZ
	DQ	FLAT:?CanManipulate@ClassDesc@@UEAAHPEAVReferenceTarget@@@Z
	DQ	FLAT:?CanManipulateNode@ClassDesc@@UEAAHPEAVINode@@@Z
	DQ	FLAT:?CreateManipulator@ClassDesc@@UEAAPEAVManipulator@@PEAVINode@@@Z
	DQ	FLAT:?CreateManipulator@ClassDesc@@UEAAPEAVManipulator@@PEAVReferenceTarget@@PEAVINode@@@Z
	DQ	FLAT:?NeedsToSave@ClassDesc@@UEAAHXZ
	DQ	FLAT:?Save@ClassDesc@@UEAA?AW4IOResult@@PEAVISave@@@Z
	DQ	FLAT:?Load@ClassDesc@@UEAA?AW4IOResult@@PEAVILoad@@@Z
	DQ	FLAT:?InitialRollupPageState@ClassDesc@@UEAAKXZ
	DQ	FLAT:?InternalName@BerconDistortionClassDesc@@UEAAPEB_WXZ
	DQ	FLAT:?UseOnlyInternalNameForMAXScriptExposure@ClassDesc@@UEAA_NXZ
	DQ	FLAT:?HInstance@BerconDistortionClassDesc@@UEAAPEAUHINSTANCE__@@XZ
	DQ	FLAT:?NumParamBlockDescs@ClassDesc2@@UEAAHXZ
	DQ	FLAT:?GetParamBlockDesc@ClassDesc2@@UEAAPEAVParamBlockDesc2@@H@Z
	DQ	FLAT:?GetParamBlockDescByID@ClassDesc2@@UEAAPEAVParamBlockDesc2@@F@Z
	DQ	FLAT:?AddParamBlockDesc@ClassDesc2@@UEAAXPEAVParamBlockDesc2@@@Z
	DQ	FLAT:?BeginEditParams@ClassDesc2@@UEAAXPEAVIObjParam@@PEAVReferenceMaker@@KPEAVAnimatable@@@Z
	DQ	FLAT:?EndEditParams@ClassDesc2@@UEAAXPEAVIObjParam@@PEAVReferenceMaker@@KPEAVAnimatable@@@Z
	DQ	FLAT:?InvalidateUI@ClassDesc2@@UEAAXPEAVParamBlockDesc2@@@Z
	DQ	FLAT:?GetRsrcString@ClassDesc@@UEAAPEB_W_J@Z
	DQ	FLAT:?MakeAutoParamBlocks@ClassDesc2@@UEAAXPEAVReferenceMaker@@@Z
	DQ	FLAT:?NumParamMaps@ClassDesc2@@UEAAHXZ
	DQ	FLAT:?GetParamMap@ClassDesc@@UEAAPEAVIParamMap2@@PEAVParamBlockDesc2@@@Z
	DQ	FLAT:?GetParamMap@ClassDesc2@@UEAAPEAVIParamMap2@@H@Z
	DQ	FLAT:?SetUserDlgProc@ClassDesc2@@UEAA_NPEAVParamBlockDesc2@@PEAVParamMap2UserDlgProc@@@Z
	DQ	FLAT:?GetUserDlgProc@ClassDesc@@UEAAPEAVParamMap2UserDlgProc@@PEAVParamBlockDesc2@@@Z
	DQ	FLAT:?DrawRepresentation@ClassDesc@@UEAA_NKPEAUHDC__@@AEAVBox2@@@Z
	DQ	FLAT:?NumInterfaces@ClassDesc@@UEAAHXZ
	DQ	FLAT:?GetInterfaceAt@ClassDesc@@UEAAPEAVFPInterface@@H@Z
	DQ	FLAT:?GetInterface@ClassDesc@@UEAAPEAVFPInterface@@PEB_W@Z
	DQ	FLAT:?GetInterface@ClassDesc@@UEAAPEAVFPInterface@@VInterface_ID@@@Z
	DQ	FLAT:?AddInterface@ClassDesc@@UEAAXPEAVFPInterface@@@Z
	DQ	FLAT:?ClearInterfaces@ClassDesc@@UEAAXXZ
	DQ	FLAT:?SubClassID@ClassDesc@@UEAA?AVClass_ID@@XZ
	DQ	FLAT:?Execute@ClassDesc@@UEAA_JH_K00@Z
	DQ	FLAT:?CreateQtWidget@ClassDesc2@@UEAAPEAVQMaxParamBlockWidget@MaxSDK@@AEAVReferenceMaker@@AEAVIParamBlock2@@FAEAVWStr@@AEAH3@Z
CONST	ENDS
;	COMDAT ?__LINE__Var@?0???1XYZ_Desc@@UEAA@XZ@4JA
_DATA	SEGMENT
?__LINE__Var@?0???1XYZ_Desc@@UEAA@XZ@4JA DD 0101H	; `XYZ_Desc::~XYZ_Desc'::`1'::__LINE__Var
_DATA	ENDS
;	COMDAT ?__LINE__Var@?0???_GXYZ_Desc@@UEAAPEAXI@Z@4JA
_DATA	SEGMENT
?__LINE__Var@?0???_GXYZ_Desc@@UEAAPEAXI@Z@4JA DD 0101H	; `XYZ_Desc::`scalar deleting destructor''::`1'::__LINE__Var
_DATA	ENDS
;	COMDAT ??_C@_1BA@KMAKHADK@?$AAM?$AAa?$AAp?$AAp?$AAi?$AAn?$AAg@
CONST	SEGMENT
??_C@_1BA@KMAKHADK@?$AAM?$AAa?$AAp?$AAp?$AAi?$AAn?$AAg@ DB 'M', 00H, 'a', 00H
	DB	'p', 00H, 'p', 00H, 'i', 00H, 'n', 00H, 'g', 00H, 00H, 00H ; `string'
CONST	ENDS
;	COMDAT ??_C@_1BA@JOBDKJKA@?$AAx?$AAy?$AAz?$AA_?$AAm?$AAa?$AAp@
CONST	SEGMENT
??_C@_1BA@JOBDKJKA@?$AAx?$AAy?$AAz?$AA_?$AAm?$AAa?$AAp@ DB 'x', 00H, 'y', 00H
	DB	'z', 00H, '_', 00H, 'm', 00H, 'a', 00H, 'p', 00H, 00H, 00H ; `string'
CONST	ENDS
;	COMDAT ??_C@_1BC@BDPIEDCA@?$AAx?$AAy?$AAz?$AA_?$AAc?$AAh?$AAa?$AAn@
CONST	SEGMENT
??_C@_1BC@BDPIEDCA@?$AAx?$AAy?$AAz?$AA_?$AAc?$AAh?$AAa?$AAn@ DB 'x', 00H, 'y'
	DB	00H, 'z', 00H, '_', 00H, 'c', 00H, 'h', 00H, 'a', 00H, 'n', 00H
	DB	00H, 00H					; `string'
CONST	ENDS
;	COMDAT ??_C@_1BK@NFJCNAOI@?$AAx?$AAy?$AAz?$AA_?$AAo?$AAf?$AAf?$AAs?$AAe?$AAt?$AA_?$AAx@
CONST	SEGMENT
??_C@_1BK@NFJCNAOI@?$AAx?$AAy?$AAz?$AA_?$AAo?$AAf?$AAf?$AAs?$AAe?$AAt?$AA_?$AAx@ DB 'x'
	DB	00H, 'y', 00H, 'z', 00H, '_', 00H, 'o', 00H, 'f', 00H, 'f', 00H
	DB	's', 00H, 'e', 00H, 't', 00H, '_', 00H, 'x', 00H, 00H, 00H ; `string'
CONST	ENDS
;	COMDAT ??_C@_1BK@GNCOLHIN@?$AAx?$AAy?$AAz?$AA_?$AAo?$AAf?$AAf?$AAs?$AAe?$AAt?$AA_?$AAy@
CONST	SEGMENT
??_C@_1BK@GNCOLHIN@?$AAx?$AAy?$AAz?$AA_?$AAo?$AAf?$AAf?$AAs?$AAe?$AAt?$AA_?$AAy@ DB 'x'
	DB	00H, 'y', 00H, 'z', 00H, '_', 00H, 'o', 00H, 'f', 00H, 'f', 00H
	DB	's', 00H, 'e', 00H, 't', 00H, '_', 00H, 'y', 00H, 00H, 00H ; `string'
CONST	ENDS
;	COMDAT ??_C@_1BK@HPJLBIGD@?$AAx?$AAy?$AAz?$AA_?$AAo?$AAf?$AAf?$AAs?$AAe?$AAt?$AA_?$AAz@
CONST	SEGMENT
??_C@_1BK@HPJLBIGD@?$AAx?$AAy?$AAz?$AA_?$AAo?$AAf?$AAf?$AAs?$AAe?$AAt?$AA_?$AAz@ DB 'x'
	DB	00H, 'y', 00H, 'z', 00H, '_', 00H, 'o', 00H, 'f', 00H, 'f', 00H
	DB	's', 00H, 'e', 00H, 't', 00H, '_', 00H, 'z', 00H, 00H, 00H ; `string'
CONST	ENDS
;	COMDAT ??_C@_1BG@KGFFJCNH@?$AAx?$AAy?$AAz?$AA_?$AAs?$AAi?$AAz?$AAe?$AA_?$AAx@
CONST	SEGMENT
??_C@_1BG@KGFFJCNH@?$AAx?$AAy?$AAz?$AA_?$AAs?$AAi?$AAz?$AAe?$AA_?$AAx@ DB 'x'
	DB	00H, 'y', 00H, 'z', 00H, '_', 00H, 's', 00H, 'i', 00H, 'z', 00H
	DB	'e', 00H, '_', 00H, 'x', 00H, 00H, 00H	; `string'
CONST	ENDS
;	COMDAT ??_C@_1BG@BOOJPFLC@?$AAx?$AAy?$AAz?$AA_?$AAs?$AAi?$AAz?$AAe?$AA_?$AAy@
CONST	SEGMENT
??_C@_1BG@BOOJPFLC@?$AAx?$AAy?$AAz?$AA_?$AAs?$AAi?$AAz?$AAe?$AA_?$AAy@ DB 'x'
	DB	00H, 'y', 00H, 'z', 00H, '_', 00H, 's', 00H, 'i', 00H, 'z', 00H
	DB	'e', 00H, '_', 00H, 'y', 00H, 00H, 00H	; `string'
CONST	ENDS
;	COMDAT ??_C@_1BG@MFMFKFM@?$AAx?$AAy?$AAz?$AA_?$AAs?$AAi?$AAz?$AAe?$AA_?$AAz@
CONST	SEGMENT
??_C@_1BG@MFMFKFM@?$AAx?$AAy?$AAz?$AA_?$AAs?$AAi?$AAz?$AAe?$AA_?$AAz@ DB 'x'
	DB	00H, 'y', 00H, 'z', 00H, '_', 00H, 's', 00H, 'i', 00H, 'z', 00H
	DB	'e', 00H, '_', 00H, 'z', 00H, 00H, 00H	; `string'
CONST	ENDS
;	COMDAT ??_C@_1BI@BKLPIDEI@?$AAx?$AAy?$AAz?$AA_?$AAa?$AAn?$AAg?$AAl?$AAe?$AA_?$AAx@
CONST	SEGMENT
??_C@_1BI@BKLPIDEI@?$AAx?$AAy?$AAz?$AA_?$AAa?$AAn?$AAg?$AAl?$AAe?$AA_?$AAx@ DB 'x'
	DB	00H, 'y', 00H, 'z', 00H, '_', 00H, 'a', 00H, 'n', 00H, 'g', 00H
	DB	'l', 00H, 'e', 00H, '_', 00H, 'x', 00H, 00H, 00H ; `string'
CONST	ENDS
;	COMDAT ??_C@_1BI@KCADOECN@?$AAx?$AAy?$AAz?$AA_?$AAa?$AAn?$AAg?$AAl?$AAe?$AA_?$AAy@
CONST	SEGMENT
??_C@_1BI@KCADOECN@?$AAx?$AAy?$AAz?$AA_?$AAa?$AAn?$AAg?$AAl?$AAe?$AA_?$AAy@ DB 'x'
	DB	00H, 'y', 00H, 'z', 00H, '_', 00H, 'a', 00H, 'n', 00H, 'g', 00H
	DB	'l', 00H, 'e', 00H, '_', 00H, 'y', 00H, 00H, 00H ; `string'
CONST	ENDS
;	COMDAT ??_C@_1BI@LALGELMD@?$AAx?$AAy?$AAz?$AA_?$AAa?$AAn?$AAg?$AAl?$AAe?$AA_?$AAz@
CONST	SEGMENT
??_C@_1BI@LALGELMD@?$AAx?$AAy?$AAz?$AA_?$AAa?$AAn?$AAg?$AAl?$AAe?$AA_?$AAz@ DB 'x'
	DB	00H, 'y', 00H, 'z', 00H, '_', 00H, 'a', 00H, 'n', 00H, 'g', 00H
	DB	'l', 00H, 'e', 00H, '_', 00H, 'z', 00H, 00H, 00H ; `string'
CONST	ENDS
;	COMDAT ??_C@_1BG@OJCIMJLI@?$AAx?$AAy?$AAz?$AA_?$AAt?$AAi?$AAl?$AAe?$AA_?$AAx@
CONST	SEGMENT
??_C@_1BG@OJCIMJLI@?$AAx?$AAy?$AAz?$AA_?$AAt?$AAi?$AAl?$AAe?$AA_?$AAx@ DB 'x'
	DB	00H, 'y', 00H, 'z', 00H, '_', 00H, 't', 00H, 'i', 00H, 'l', 00H
	DB	'e', 00H, '_', 00H, 'x', 00H, 00H, 00H	; `string'
CONST	ENDS
;	COMDAT ??_C@_1BG@FBJEKONN@?$AAx?$AAy?$AAz?$AA_?$AAt?$AAi?$AAl?$AAe?$AA_?$AAy@
CONST	SEGMENT
??_C@_1BG@FBJEKONN@?$AAx?$AAy?$AAz?$AA_?$AAt?$AAi?$AAl?$AAe?$AA_?$AAy@ DB 'x'
	DB	00H, 'y', 00H, 'z', 00H, '_', 00H, 't', 00H, 'i', 00H, 'l', 00H
	DB	'e', 00H, '_', 00H, 'y', 00H, 00H, 00H	; `string'
CONST	ENDS
;	COMDAT ??_C@_1BG@EDCBABDD@?$AAx?$AAy?$AAz?$AA_?$AAt?$AAi?$AAl?$AAe?$AA_?$AAz@
CONST	SEGMENT
??_C@_1BG@EDCBABDD@?$AAx?$AAy?$AAz?$AA_?$AAt?$AAi?$AAl?$AAe?$AA_?$AAz@ DB 'x'
	DB	00H, 'y', 00H, 'z', 00H, '_', 00H, 't', 00H, 'i', 00H, 'l', 00H
	DB	'e', 00H, '_', 00H, 'z', 00H, 00H, 00H	; `string'
CONST	ENDS
;	COMDAT ??_C@_19HFHNPJHA@?$AAs?$AAe?$AAe?$AAd@
CONST	SEGMENT
??_C@_19HFHNPJHA@?$AAs?$AAe?$AAe?$AAd@ DB 's', 00H, 'e', 00H, 'e', 00H, 'd'
	DB	00H, 00H, 00H				; `string'
CONST	ENDS
;	COMDAT ??_C@_1BE@DCGEPHFM@?$AAr?$AAa?$AAn?$AAd?$AAB?$AAy?$AAM?$AAa?$AAt@
CONST	SEGMENT
??_C@_1BE@DCGEPHFM@?$AAr?$AAa?$AAn?$AAd?$AAB?$AAy?$AAM?$AAa?$AAt@ DB 'r', 00H
	DB	'a', 00H, 'n', 00H, 'd', 00H, 'B', 00H, 'y', 00H, 'M', 00H, 'a'
	DB	00H, 't', 00H, 00H, 00H			; `string'
CONST	ENDS
;	COMDAT ??_C@_1BE@EGBDKCCD@?$AAr?$AAa?$AAn?$AAd?$AAB?$AAy?$AAO?$AAb?$AAj@
CONST	SEGMENT
??_C@_1BE@EGBDKCCD@?$AAr?$AAa?$AAn?$AAd?$AAB?$AAy?$AAO?$AAb?$AAj@ DB 'r', 00H
	DB	'a', 00H, 'n', 00H, 'd', 00H, 'B', 00H, 'y', 00H, 'O', 00H, 'b'
	DB	00H, 'j', 00H, 00H, 00H			; `string'
CONST	ENDS
;	COMDAT ??_C@_1BE@PALBIMHK@?$AAr?$AAa?$AAn?$AAd?$AAB?$AAy?$AAP?$AAa?$AAr@
CONST	SEGMENT
??_C@_1BE@PALBIMHK@?$AAr?$AAa?$AAn?$AAd?$AAB?$AAy?$AAP?$AAa?$AAr@ DB 'r', 00H
	DB	'a', 00H, 'n', 00H, 'd', 00H, 'B', 00H, 'y', 00H, 'P', 00H, 'a'
	DB	00H, 'r', 00H, 00H, 00H			; `string'
CONST	ENDS
;	COMDAT ??_C@_1BM@EKFGEOII@?$AAx?$AAy?$AAz?$AA_?$AAo?$AAf?$AAf?$AAs?$AAe?$AAt?$AA_?$AAx?$AA2@
CONST	SEGMENT
??_C@_1BM@EKFGEOII@?$AAx?$AAy?$AAz?$AA_?$AAo?$AAf?$AAf?$AAs?$AAe?$AAt?$AA_?$AAx?$AA2@ DB 'x'
	DB	00H, 'y', 00H, 'z', 00H, '_', 00H, 'o', 00H, 'f', 00H, 'f', 00H
	DB	's', 00H, 'e', 00H, 't', 00H, '_', 00H, 'x', 00H, '2', 00H, 00H
	DB	00H						; `string'
CONST	ENDS
;	COMDAT ??_C@_1BM@IBAKJNCN@?$AAx?$AAy?$AAz?$AA_?$AAo?$AAf?$AAf?$AAs?$AAe?$AAt?$AA_?$AAy?$AA2@
CONST	SEGMENT
??_C@_1BM@IBAKJNCN@?$AAx?$AAy?$AAz?$AA_?$AAo?$AAf?$AAf?$AAs?$AAe?$AAt?$AA_?$AAy?$AA2@ DB 'x'
	DB	00H, 'y', 00H, 'z', 00H, '_', 00H, 'o', 00H, 'f', 00H, 'f', 00H
	DB	's', 00H, 'e', 00H, 't', 00H, '_', 00H, 'y', 00H, '2', 00H, 00H
	DB	00H						; `string'
CONST	ENDS
;	COMDAT ??_C@_1BM@HJOOPID@?$AAx?$AAy?$AAz?$AA_?$AAo?$AAf?$AAf?$AAs?$AAe?$AAt?$AA_?$AAz?$AA2@
CONST	SEGMENT
??_C@_1BM@HJOOPID@?$AAx?$AAy?$AAz?$AA_?$AAo?$AAf?$AAf?$AAs?$AAe?$AAt?$AA_?$AAz?$AA2@ DB 'x'
	DB	00H, 'y', 00H, 'z', 00H, '_', 00H, 'o', 00H, 'f', 00H, 'f', 00H
	DB	's', 00H, 'e', 00H, 't', 00H, '_', 00H, 'z', 00H, '2', 00H, 00H
	DB	00H						; `string'
CONST	ENDS
;	COMDAT ??_C@_1BI@IKFKDHMP@?$AAx?$AAy?$AAz?$AA_?$AAs?$AAi?$AAz?$AAe?$AA_?$AAx?$AA2@
CONST	SEGMENT
??_C@_1BI@IKFKDHMP@?$AAx?$AAy?$AAz?$AA_?$AAs?$AAi?$AAz?$AAe?$AA_?$AAx?$AA2@ DB 'x'
	DB	00H, 'y', 00H, 'z', 00H, '_', 00H, 's', 00H, 'i', 00H, 'z', 00H
	DB	'e', 00H, '_', 00H, 'x', 00H, '2', 00H, 00H, 00H ; `string'
CONST	ENDS
;	COMDAT ??_C@_1BI@EBAGOEGK@?$AAx?$AAy?$AAz?$AA_?$AAs?$AAi?$AAz?$AAe?$AA_?$AAy?$AA2@
CONST	SEGMENT
??_C@_1BI@EBAGOEGK@?$AAx?$AAy?$AAz?$AA_?$AAs?$AAi?$AAz?$AAe?$AA_?$AAy?$AA2@ DB 'x'
	DB	00H, 'y', 00H, 'z', 00H, '_', 00H, 's', 00H, 'i', 00H, 'z', 00H
	DB	'e', 00H, '_', 00H, 'y', 00H, '2', 00H, 00H, 00H ; `string'
CONST	ENDS
;	COMDAT ??_C@_1BI@MHJCJGME@?$AAx?$AAy?$AAz?$AA_?$AAs?$AAi?$AAz?$AAe?$AA_?$AAz?$AA2@
CONST	SEGMENT
??_C@_1BI@MHJCJGME@?$AAx?$AAy?$AAz?$AA_?$AAs?$AAi?$AAz?$AAe?$AA_?$AAz?$AA2@ DB 'x'
	DB	00H, 'y', 00H, 'z', 00H, '_', 00H, 's', 00H, 'i', 00H, 'z', 00H
	DB	'e', 00H, '_', 00H, 'z', 00H, '2', 00H, 00H, 00H ; `string'
CONST	ENDS
;	COMDAT ??_C@_1BK@BGDDDNAC@?$AAx?$AAy?$AAz?$AA_?$AAa?$AAn?$AAg?$AAl?$AAe?$AA_?$AAx?$AA2@
CONST	SEGMENT
??_C@_1BK@BGDDDNAC@?$AAx?$AAy?$AAz?$AA_?$AAa?$AAn?$AAg?$AAl?$AAe?$AA_?$AAx?$AA2@ DB 'x'
	DB	00H, 'y', 00H, 'z', 00H, '_', 00H, 'a', 00H, 'n', 00H, 'g', 00H
	DB	'l', 00H, 'e', 00H, '_', 00H, 'x', 00H, '2', 00H, 00H, 00H ; `string'
CONST	ENDS
;	COMDAT ??_C@_1BK@NNGPOOKH@?$AAx?$AAy?$AAz?$AA_?$AAa?$AAn?$AAg?$AAl?$AAe?$AA_?$AAy?$AA2@
CONST	SEGMENT
??_C@_1BK@NNGPOOKH@?$AAx?$AAy?$AAz?$AA_?$AAa?$AAn?$AAg?$AAl?$AAe?$AA_?$AAy?$AA2@ DB 'x'
	DB	00H, 'y', 00H, 'z', 00H, '_', 00H, 'a', 00H, 'n', 00H, 'g', 00H
	DB	'l', 00H, 'e', 00H, '_', 00H, 'y', 00H, '2', 00H, 00H, 00H ; `string'
CONST	ENDS
;	COMDAT ??_C@_1BK@FLPLJMAJ@?$AAx?$AAy?$AAz?$AA_?$AAa?$AAn?$AAg?$AAl?$AAe?$AA_?$AAz?$AA2@
CONST	SEGMENT
??_C@_1BK@FLPLJMAJ@?$AAx?$AAy?$AAz?$AA_?$AAa?$AAn?$AAg?$AAl?$AAe?$AA_?$AAz?$AA2@ DB 'x'
	DB	00H, 'y', 00H, 'z', 00H, '_', 00H, 'a', 00H, 'n', 00H, 'g', 00H
	DB	'l', 00H, 'e', 00H, '_', 00H, 'z', 00H, '2', 00H, 00H, 00H ; `string'
CONST	ENDS
;	COMDAT ??_C@_1BC@JCCAEAIN@?$AAx?$AAy?$AAz?$AA_?$AAl?$AAo?$AAc?$AAk@
CONST	SEGMENT
??_C@_1BC@JCCAEAIN@?$AAx?$AAy?$AAz?$AA_?$AAl?$AAo?$AAc?$AAk@ DB 'x', 00H, 'y'
	DB	00H, 'z', 00H, '_', 00H, 'l', 00H, 'o', 00H, 'c', 00H, 'k', 00H
	DB	00H, 00H					; `string'
CONST	ENDS
;	COMDAT ??_C@_1BM@LCALCDFD@?$AAx?$AAy?$AAz?$AA_?$AAf?$AAi?$AAl?$AAt?$AAe?$AAr?$AAi?$AAn?$AAg@
CONST	SEGMENT
??_C@_1BM@LCALCDFD@?$AAx?$AAy?$AAz?$AA_?$AAf?$AAi?$AAl?$AAt?$AAe?$AAr?$AAi?$AAn?$AAg@ DB 'x'
	DB	00H, 'y', 00H, 'z', 00H, '_', 00H, 'f', 00H, 'i', 00H, 'l', 00H
	DB	't', 00H, 'e', 00H, 'r', 00H, 'i', 00H, 'n', 00H, 'g', 00H, 00H
	DB	00H						; `string'
CONST	ENDS
;	COMDAT ?__LINE__Var@?0???0XYZ_Desc@@QEAA@PEAVClassDesc2@@HHHHHHH@Z@4JA
_DATA	SEGMENT
?__LINE__Var@?0???0XYZ_Desc@@QEAA@PEAVClassDesc2@@HHHHHHH@Z@4JA DD 083H ; `XYZ_Desc::XYZ_Desc'::`1'::__LINE__Var
_DATA	ENDS
;	COMDAT ??_7XYZ_Desc@@6B@
CONST	SEGMENT
??_7XYZ_Desc@@6B@ DQ FLAT:??_R4XYZ_Desc@@6B@		; XYZ_Desc::`vftable'
	DQ	FLAT:??_EXYZ_Desc@@UEAAPEAXI@Z
	DQ	FLAT:?GetInterface@BaseInterfaceServer@@UEAAPEAVBaseInterface@@VInterface_ID@@@Z
	DQ	FLAT:?NumInterfaces@BaseInterfaceServer@@UEBAHXZ
	DQ	FLAT:?GetInterfaceAt@BaseInterfaceServer@@UEBAPEAVBaseInterface@@H@Z
CONST	ENDS
;	COMDAT _CT??_R0?AVMaxHeapOperators@@@818
xdata$x	SEGMENT
_CT??_R0?AVMaxHeapOperators@@@818 DD 00H
	DD	imagerel ??_R0?AVMaxHeapOperators@@@8
	DD	08H
	DD	0ffffffffH
	DD	00H
	DD	01H
	DD	00H
xdata$x	ENDS
;	COMDAT ??_R0?AVMaxHeapOperators@@@8
data$r	SEGMENT
??_R0?AVMaxHeapOperators@@@8 DQ FLAT:??_7type_info@@6B@	; MaxHeapOperators `RTTI Type Descriptor'
	DQ	0000000000000000H
	DB	'.?AVMaxHeapOperators@@', 00H
data$r	ENDS
;	COMDAT ??_R0?AVClassDesc2@@@8
data$r	SEGMENT
??_R0?AVClassDesc2@@@8 DQ FLAT:??_7type_info@@6B@	; ClassDesc2 `RTTI Type Descriptor'
	DQ	0000000000000000H
	DB	'.?AVClassDesc2@@', 00H
data$r	ENDS
;	COMDAT ?__LINE__Var@?0??CreateQtWidget@ClassDesc2@@UEAAPEAVQMaxParamBlockWidget@MaxSDK@@AEAVReferenceMaker@@AEAVIParamBlock2@@FAEAVWStr@@AEAH3@Z@4JA
_DATA	SEGMENT
?__LINE__Var@?0??CreateQtWidget@ClassDesc2@@UEAAPEAVQMaxParamBlockWidget@MaxSDK@@AEAVReferenceMaker@@AEAVIParamBlock2@@FAEAVWStr@@AEAH3@Z@4JA DD 0122H ; `ClassDesc2::CreateQtWidget'::`1'::__LINE__Var
_DATA	ENDS
;	COMDAT ??_C@_1O@ILILCEBJ@?$AAi?$AA?5?$AA?$DO?$AA?$DN?$AA?5?$AA0@
CONST	SEGMENT
??_C@_1O@ILILCEBJ@?$AAi?$AA?5?$AA?$DO?$AA?$DN?$AA?5?$AA0@ DB 'i', 00H, ' '
	DB	00H, '>', 00H, '=', 00H, ' ', 00H, '0', 00H, 00H, 00H ; `string'
CONST	ENDS
;	COMDAT ?__LINE__Var@?0??SetUserDlgProc@ClassDesc2@@UEAA_NPEAVParamBlockDesc2@@PEAVParamMap2UserDlgProc@@@Z@4JA
_DATA	SEGMENT
?__LINE__Var@?0??SetUserDlgProc@ClassDesc2@@UEAA_NPEAVParamBlockDesc2@@PEAVParamMap2UserDlgProc@@@Z@4JA DD 0a5eH ; `ClassDesc2::SetUserDlgProc'::`1'::__LINE__Var
_DATA	ENDS
;	COMDAT ?__LINE__Var@?0???0AColor@@QEAA@MMMM@Z@4JA
_DATA	SEGMENT
?__LINE__Var@?0???0AColor@@QEAA@MMMM@Z@4JA DD 02cH	; `AColor::AColor'::`1'::__LINE__Var
_DATA	ENDS
;	COMDAT ?__LINE__Var@?0??Execute@ClassDesc@@UEAA_JH_K00@Z@4JA
_DATA	SEGMENT
?__LINE__Var@?0??Execute@ClassDesc@@UEAA_JH_K00@Z@4JA DD 059aH ; `ClassDesc::Execute'::`1'::__LINE__Var
_DATA	ENDS
;	COMDAT ?__LINE__Var@?0??SubClassID@ClassDesc@@UEAA?AVClass_ID@@XZ@4JA
_DATA	SEGMENT
?__LINE__Var@?0??SubClassID@ClassDesc@@UEAA?AVClass_ID@@XZ@4JA DD 058cH ; `ClassDesc::SubClassID'::`1'::__LINE__Var
_DATA	ENDS
;	COMDAT ?__LINE__Var@?0??ClearInterfaces@ClassDesc@@UEAAXXZ@4JA
_DATA	SEGMENT
?__LINE__Var@?0??ClearInterfaces@ClassDesc@@UEAAXXZ@4JA DD 0583H ; `ClassDesc::ClearInterfaces'::`1'::__LINE__Var
_DATA	ENDS
;	COMDAT ?__LINE__Var@?0??GetInterfaceAt@ClassDesc@@UEAAPEAVFPInterface@@H@Z@4JA
_DATA	SEGMENT
?__LINE__Var@?0??GetInterfaceAt@ClassDesc@@UEAAPEAVFPInterface@@H@Z@4JA DD 0572H ; `ClassDesc::GetInterfaceAt'::`1'::__LINE__Var
_DATA	ENDS
;	COMDAT ?__LINE__Var@?0??NumInterfaces@ClassDesc@@UEAAHXZ@4JA
_DATA	SEGMENT
?__LINE__Var@?0??NumInterfaces@ClassDesc@@UEAAHXZ@4JA DD 056fH ; `ClassDesc::NumInterfaces'::`1'::__LINE__Var
_DATA	ENDS
;	COMDAT ?__LINE__Var@?0??DrawRepresentation@ClassDesc@@UEAA_NKPEAUHDC__@@AEAVBox2@@@Z@4JA
_DATA	SEGMENT
?__LINE__Var@?0??DrawRepresentation@ClassDesc@@UEAA_NKPEAUHDC__@@AEAVBox2@@@Z@4JA DD 0569H ; `ClassDesc::DrawRepresentation'::`1'::__LINE__Var
_DATA	ENDS
;	COMDAT ?__LINE__Var@?0??GetUserDlgProc@ClassDesc@@UEAAPEAVParamMap2UserDlgProc@@PEAVParamBlockDesc2@@@Z@4JA
_DATA	SEGMENT
?__LINE__Var@?0??GetUserDlgProc@ClassDesc@@UEAAPEAVParamMap2UserDlgProc@@PEAVParamBlockDesc2@@@Z@4JA DD 055dH ; `ClassDesc::GetUserDlgProc'::`1'::__LINE__Var
_DATA	ENDS
;	COMDAT ?__LINE__Var@?0??GetParamMap@ClassDesc@@UEAAPEAVIParamMap2@@PEAVParamBlockDesc2@@@Z@4JA
_DATA	SEGMENT
?__LINE__Var@?0??GetParamMap@ClassDesc@@UEAAPEAVIParamMap2@@PEAVParamBlockDesc2@@@Z@4JA DD 054cH ; `ClassDesc::GetParamMap'::`1'::__LINE__Var
_DATA	ENDS
;	COMDAT ?__LINE__Var@?0??UseOnlyInternalNameForMAXScriptExposure@ClassDesc@@UEAA_NXZ@4JA
_DATA	SEGMENT
?__LINE__Var@?0??UseOnlyInternalNameForMAXScriptExposure@ClassDesc@@UEAA_NXZ@4JA DD 04faH ; `ClassDesc::UseOnlyInternalNameForMAXScriptExposure'::`1'::__LINE__Var
_DATA	ENDS
;	COMDAT ?__LINE__Var@?0??InitialRollupPageState@ClassDesc@@UEAAKXZ@4JA
_DATA	SEGMENT
?__LINE__Var@?0??InitialRollupPageState@ClassDesc@@UEAAKXZ@4JA DD 04efH ; `ClassDesc::InitialRollupPageState'::`1'::__LINE__Var
_DATA	ENDS
;	COMDAT ?__LINE__Var@?0??Load@ClassDesc@@UEAA?AW4IOResult@@PEAVILoad@@@Z@4JA
_DATA	SEGMENT
?__LINE__Var@?0??Load@ClassDesc@@UEAA?AW4IOResult@@PEAVILoad@@@Z@4JA DD 04e0H ; `ClassDesc::Load'::`1'::__LINE__Var
_DATA	ENDS
;	COMDAT ?__LINE__Var@?0??Save@ClassDesc@@UEAA?AW4IOResult@@PEAVISave@@@Z@4JA
_DATA	SEGMENT
?__LINE__Var@?0??Save@ClassDesc@@UEAA?AW4IOResult@@PEAVISave@@@Z@4JA DD 04d9H ; `ClassDesc::Save'::`1'::__LINE__Var
_DATA	ENDS
;	COMDAT ?__LINE__Var@?0??NeedsToSave@ClassDesc@@UEAAHXZ@4JA
_DATA	SEGMENT
?__LINE__Var@?0??NeedsToSave@ClassDesc@@UEAAHXZ@4JA DD 04d3H ; `ClassDesc::NeedsToSave'::`1'::__LINE__Var
_DATA	ENDS
;	COMDAT ?__LINE__Var@?0??CreateManipulator@ClassDesc@@UEAAPEAVManipulator@@PEAVINode@@@Z@4JA
_DATA	SEGMENT
?__LINE__Var@?0??CreateManipulator@ClassDesc@@UEAAPEAVManipulator@@PEAVINode@@@Z@4JA DD 04caH ; `ClassDesc::CreateManipulator'::`1'::__LINE__Var
_DATA	ENDS
;	COMDAT ?__LINE__Var@?0??CreateManipulator@ClassDesc@@UEAAPEAVManipulator@@PEAVReferenceTarget@@PEAVINode@@@Z@4JA
_DATA	SEGMENT
?__LINE__Var@?0??CreateManipulator@ClassDesc@@UEAAPEAVManipulator@@PEAVReferenceTarget@@PEAVINode@@@Z@4JA DD 04c2H ; `ClassDesc::CreateManipulator'::`1'::__LINE__Var
_DATA	ENDS
;	COMDAT ?__LINE__Var@?0??CanManipulateNode@ClassDesc@@UEAAHPEAVINode@@@Z@4JA
_DATA	SEGMENT
?__LINE__Var@?0??CanManipulateNode@ClassDesc@@UEAAHPEAVINode@@@Z@4JA DD 04b0H ; `ClassDesc::CanManipulateNode'::`1'::__LINE__Var
_DATA	ENDS
;	COMDAT ?__LINE__Var@?0??CanManipulate@ClassDesc@@UEAAHPEAVReferenceTarget@@@Z@4JA
_DATA	SEGMENT
?__LINE__Var@?0??CanManipulate@ClassDesc@@UEAAHPEAVReferenceTarget@@@Z@4JA DD 04a9H ; `ClassDesc::CanManipulate'::`1'::__LINE__Var
_DATA	ENDS
;	COMDAT ?__LINE__Var@?0??IsManipulator@ClassDesc@@UEAAHXZ@4JA
_DATA	SEGMENT
?__LINE__Var@?0??IsManipulator@ClassDesc@@UEAAHXZ@4JA DD 04a0H ; `ClassDesc::IsManipulator'::`1'::__LINE__Var
_DATA	ENDS
;	COMDAT ?__LINE__Var@?0??GetActionTable@ClassDesc@@UEAAPEAVActionTable@@H@Z@4JA
_DATA	SEGMENT
?__LINE__Var@?0??GetActionTable@ClassDesc@@UEAAPEAVActionTable@@H@Z@4JA DD 0499H ; `ClassDesc::GetActionTable'::`1'::__LINE__Var
_DATA	ENDS
;	COMDAT ?__LINE__Var@?0??NumActionTables@ClassDesc@@UEAAHXZ@4JA
_DATA	SEGMENT
?__LINE__Var@?0??NumActionTables@ClassDesc@@UEAAHXZ@4JA DD 0492H ; `ClassDesc::NumActionTables'::`1'::__LINE__Var
_DATA	ENDS
;	COMDAT ?__LINE__Var@?0??EditClassParams@ClassDesc@@UEAAXPEAUHWND__@@@Z@4JA
_DATA	SEGMENT
?__LINE__Var@?0??EditClassParams@ClassDesc@@UEAAXPEAUHWND__@@@Z@4JA DD 0479H ; `ClassDesc::EditClassParams'::`1'::__LINE__Var
_DATA	ENDS
;	COMDAT ?__LINE__Var@?0??HasClassParams@ClassDesc@@UEAAHXZ@4JA
_DATA	SEGMENT
?__LINE__Var@?0??HasClassParams@ClassDesc@@UEAAHXZ@4JA DD 0472H ; `ClassDesc::HasClassParams'::`1'::__LINE__Var
_DATA	ENDS
;	COMDAT ?__LINE__Var@?0??OkToCreate@ClassDesc@@UEAAHPEAVInterface@@@Z@4JA
_DATA	SEGMENT
?__LINE__Var@?0??OkToCreate@ClassDesc@@UEAAHPEAVInterface@@@Z@4JA DD 0426H ; `ClassDesc::OkToCreate'::`1'::__LINE__Var
_DATA	ENDS
;	COMDAT ?__LINE__Var@?0??EndCreate@ClassDesc@@UEAAHPEAVInterface@@@Z@4JA
_DATA	SEGMENT
?__LINE__Var@?0??EndCreate@ClassDesc@@UEAAHPEAVInterface@@@Z@4JA DD 0405H ; `ClassDesc::EndCreate'::`1'::__LINE__Var
_DATA	ENDS
;	COMDAT ?__LINE__Var@?0??BeginCreate@ClassDesc@@UEAAHPEAVInterface@@@Z@4JA
_DATA	SEGMENT
?__LINE__Var@?0??BeginCreate@ClassDesc@@UEAAHPEAVInterface@@@Z@4JA DD 03fbH ; `ClassDesc::BeginCreate'::`1'::__LINE__Var
_DATA	ENDS
;	COMDAT ?__LINE__Var@?0???0AssetId@AssetManagement@MaxSDK@@QEAA@XZ@4JA
_DATA	SEGMENT
?__LINE__Var@?0???0AssetId@AssetManagement@MaxSDK@@QEAA@XZ@4JA DD 01dH ; `MaxSDK::AssetManagement::AssetId::AssetId'::`1'::__LINE__Var
_DATA	ENDS
;	COMDAT ?__LINE__Var@?0???1TabOutOfRangeException@Util@MaxSDK@@UEAA@XZ@4JA
_DATA	SEGMENT
?__LINE__Var@?0???1TabOutOfRangeException@Util@MaxSDK@@UEAA@XZ@4JA DD 066H ; `MaxSDK::Util::TabOutOfRangeException::~TabOutOfRangeException'::`1'::__LINE__Var
_DATA	ENDS
;	COMDAT ?__LINE__Var@?0???_GTabOutOfRangeException@Util@MaxSDK@@UEAAPEAXI@Z@4JA
_DATA	SEGMENT
?__LINE__Var@?0???_GTabOutOfRangeException@Util@MaxSDK@@UEAAPEAXI@Z@4JA DD 066H ; `MaxSDK::Util::TabOutOfRangeException::`scalar deleting destructor''::`1'::__LINE__Var
_DATA	ENDS
;	COMDAT ??_C@_1EK@FOLBONAG@?$AAM?$AAa?$AAx?$AAS?$AAD?$AAK?$AA?3?$AA?3?$AAU?$AAt?$AAi?$AAl?$AA?3?$AA?3?$AAT@
CONST	SEGMENT
??_C@_1EK@FOLBONAG@?$AAM?$AAa?$AAx?$AAS?$AAD?$AAK?$AA?3?$AA?3?$AAU?$AAt?$AAi?$AAl?$AA?3?$AA?3?$AAT@ DB 'M'
	DB	00H, 'a', 00H, 'x', 00H, 'S', 00H, 'D', 00H, 'K', 00H, ':', 00H
	DB	':', 00H, 'U', 00H, 't', 00H, 'i', 00H, 'l', 00H, ':', 00H, ':'
	DB	00H, 'T', 00H, 'a', 00H, 'b', 00H, 'O', 00H, 'u', 00H, 't', 00H
	DB	'O', 00H, 'f', 00H, 'R', 00H, 'a', 00H, 'n', 00H, 'g', 00H, 'e'
	DB	00H, 'E', 00H, 'x', 00H, 'c', 00H, 'e', 00H, 'p', 00H, 't', 00H
	DB	'i', 00H, 'o', 00H, 'n', 00H, 00H, 00H	; `string'
CONST	ENDS
;	COMDAT ?__LINE__Var@?0??What@TabOutOfRangeException@Util@MaxSDK@@UEBAPEB_WXZ@4JA
_DATA	SEGMENT
?__LINE__Var@?0??What@TabOutOfRangeException@Util@MaxSDK@@UEBAPEB_WXZ@4JA DD 063H ; `MaxSDK::Util::TabOutOfRangeException::What'::`1'::__LINE__Var
_DATA	ENDS
;	COMDAT ?__LINE__Var@?0???0TabOutOfRangeException@Util@MaxSDK@@QEAA@PEB_W@Z@4JA
_DATA	SEGMENT
?__LINE__Var@?0???0TabOutOfRangeException@Util@MaxSDK@@QEAA@PEB_W@Z@4JA DD 05eH ; `MaxSDK::Util::TabOutOfRangeException::TabOutOfRangeException'::`1'::__LINE__Var
_DATA	ENDS
;	COMDAT ??_7TabOutOfRangeException@Util@MaxSDK@@6B@
CONST	SEGMENT
??_7TabOutOfRangeException@Util@MaxSDK@@6B@ DQ FLAT:??_R4TabOutOfRangeException@Util@MaxSDK@@6B@ ; MaxSDK::Util::TabOutOfRangeException::`vftable'
	DQ	FLAT:??_ETabOutOfRangeException@Util@MaxSDK@@UEAAPEAXI@Z
	DQ	FLAT:?What@TabOutOfRangeException@Util@MaxSDK@@UEBAPEB_WXZ
CONST	ENDS
;	COMDAT ?__LINE__Var@?0???0Class_ID@@QEAA@KK@Z@4JA
_DATA	SEGMENT
?__LINE__Var@?0???0Class_ID@@QEAA@KK@Z@4JA DD 0a0H	; `Class_ID::Class_ID'::`1'::__LINE__Var
_DATA	ENDS
;	COMDAT ?__LINE__Var@?0???0Class_ID@@QEAA@XZ@4JA
_DATA	SEGMENT
?__LINE__Var@?0???0Class_ID@@QEAA@XZ@4JA DD 091H	; `Class_ID::Class_ID'::`1'::__LINE__Var
_DATA	ENDS
;	COMDAT WinbaseIsolationAwarePrivateT_UnPgpgk
_DATA	SEGMENT
WinbaseIsolationAwarePrivateT_UnPgpgk DQ ffffffffffffffffH
_DATA	ENDS
PUBLIC	??_H@YAXPEAX_K1P6APEAX0@Z@Z			; `vector constructor iterator'
PUBLIC	?__empty_global_delete@@YAXPEAX@Z		; __empty_global_delete
PUBLIC	?__empty_global_delete@@YAXPEAX_K@Z		; __empty_global_delete
PUBLIC	??0TabOutOfRangeException@Util@MaxSDK@@QEAA@PEB_W@Z ; MaxSDK::Util::TabOutOfRangeException::TabOutOfRangeException
PUBLIC	??_GInterfaceServer@@UEAAPEAXI@Z		; InterfaceServer::`scalar deleting destructor'
PUBLIC	??1?$Tab@PEAVBaseInterface@@@@QEAA@XZ		; Tab<BaseInterface *>::~Tab<BaseInterface *>
PUBLIC	??_GBaseInterfaceServer@@UEAAPEAXI@Z		; BaseInterfaceServer::`scalar deleting destructor'
PUBLIC	?FreeCaches@Animatable@@UEAAXXZ			; Animatable::FreeCaches
PUBLIC	?BeginEditParams@Animatable@@UEAAXPEAVIObjParam@@KPEAV1@@Z ; Animatable::BeginEditParams
PUBLIC	?EndEditParams@Animatable@@UEAAXPEAVIObjParam@@KPEAV1@@Z ; Animatable::EndEditParams
PUBLIC	?BypassTreeView@Animatable@@UEAAHXZ		; Animatable::BypassTreeView
PUBLIC	?BypassTrackBar@Animatable@@UEAAHXZ		; Animatable::BypassTrackBar
PUBLIC	?BypassPropertyLevel@Animatable@@UEAAHXZ	; Animatable::BypassPropertyLevel
PUBLIC	?InvisibleProperty@Animatable@@UEAAHXZ		; Animatable::InvisibleProperty
PUBLIC	?AssignController@Animatable@@UEAAHPEAV1@H@Z	; Animatable::AssignController
PUBLIC	?CanAssignController@Animatable@@UEAAHH@Z	; Animatable::CanAssignController
PUBLIC	?CanDeleteSubAnim@Animatable@@UEAAHH@Z		; Animatable::CanDeleteSubAnim
PUBLIC	?DeleteSubAnim@Animatable@@UEAAXH@Z		; Animatable::DeleteSubAnim
PUBLIC	?GetSubAnimCurveColor@Animatable@@UEAAKH@Z	; Animatable::GetSubAnimCurveColor
PUBLIC	?CanCopyAnim@Animatable@@UEAAHXZ		; Animatable::CanCopyAnim
PUBLIC	?CanMakeUnique@Animatable@@UEAAHXZ		; Animatable::CanMakeUnique
PUBLIC	?NumChildren@Animatable@@UEAAHXZ		; Animatable::NumChildren
PUBLIC	?ChildAnim@Animatable@@UEAAPEAV1@H@Z		; Animatable::ChildAnim
PUBLIC	?RenderBegin@Animatable@@UEAAHHK@Z		; Animatable::RenderBegin
PUBLIC	?RenderEnd@Animatable@@UEAAHH@Z			; Animatable::RenderEnd
PUBLIC	?EditTrack@Animatable@@UEAAXXZ			; Animatable::EditTrack
PUBLIC	?NumKeys@Animatable@@UEAAHXZ			; Animatable::NumKeys
PUBLIC	?GetKeyTime@Animatable@@UEAAHH@Z		; Animatable::GetKeyTime
PUBLIC	?GetKeyIndex@Animatable@@UEAAHH@Z		; Animatable::GetKeyIndex
PUBLIC	?GetNextKeyTime@Animatable@@UEAAHHKAEAH@Z	; Animatable::GetNextKeyTime
PUBLIC	?CopyKeysFromTime@Animatable@@UEAAXHHK@Z	; Animatable::CopyKeysFromTime
PUBLIC	?DeleteKeyAtTime@Animatable@@UEAAXH@Z		; Animatable::DeleteKeyAtTime
PUBLIC	?IsKeyAtTime@Animatable@@UEAAHHK@Z		; Animatable::IsKeyAtTime
PUBLIC	?GetKeyTimes@Animatable@@UEAAHAEAV?$Tab@H@@VInterval@@K@Z ; Animatable::GetKeyTimes
PUBLIC	?GetKeySelState@Animatable@@UEAAHAEAVBitArray@@VInterval@@K@Z ; Animatable::GetKeySelState
PUBLIC	?EditTimeRange@Animatable@@UEAAXVInterval@@K@Z	; Animatable::EditTimeRange
PUBLIC	?DeleteTime@Animatable@@UEAAXVInterval@@K@Z	; Animatable::DeleteTime
PUBLIC	?ReverseTime@Animatable@@UEAAXVInterval@@K@Z	; Animatable::ReverseTime
PUBLIC	?ScaleTime@Animatable@@UEAAXVInterval@@M@Z	; Animatable::ScaleTime
PUBLIC	?InsertTime@Animatable@@UEAAXHH@Z		; Animatable::InsertTime
PUBLIC	?SupportTimeOperations@Animatable@@UEAAHXZ	; Animatable::SupportTimeOperations
PUBLIC	?DeleteKeys@Animatable@@UEAAXK@Z		; Animatable::DeleteKeys
PUBLIC	?DeleteKeyByIndex@Animatable@@UEAAXH@Z		; Animatable::DeleteKeyByIndex
PUBLIC	?SelectKeys@Animatable@@UEAAXAEAV?$Tab@VTrackHitRecord@@@@K@Z ; Animatable::SelectKeys
PUBLIC	?SelectSubKeys@Animatable@@UEAAXHAEAV?$Tab@VTrackHitRecord@@@@K@Z ; Animatable::SelectSubKeys
PUBLIC	?SelectSubCurve@Animatable@@UEAAXHH@Z		; Animatable::SelectSubCurve
PUBLIC	?SelectKeyByIndex@Animatable@@UEAAXHH@Z		; Animatable::SelectKeyByIndex
PUBLIC	?IsKeySelected@Animatable@@UEAAHH@Z		; Animatable::IsKeySelected
PUBLIC	?FlagKey@Animatable@@UEAAXVTrackHitRecord@@@Z	; Animatable::FlagKey
PUBLIC	?GetFlagKeyIndex@Animatable@@UEAAHXZ		; Animatable::GetFlagKeyIndex
PUBLIC	?NumSelKeys@Animatable@@UEAAHXZ			; Animatable::NumSelKeys
PUBLIC	?CloneSelectedKeys@Animatable@@UEAAXH@Z		; Animatable::CloneSelectedKeys
PUBLIC	?AddNewKey@Animatable@@UEAAXHK@Z		; Animatable::AddNewKey
PUBLIC	?MoveKeys@Animatable@@UEAAXPEAVParamDimensionBase@@MK@Z ; Animatable::MoveKeys
PUBLIC	?ScaleKeyValues@Animatable@@UEAAXPEAVParamDimensionBase@@MMK@Z ; Animatable::ScaleKeyValues
PUBLIC	?SelectCurve@Animatable@@UEAAXH@Z		; Animatable::SelectCurve
PUBLIC	?IsCurveSelected@Animatable@@UEAAHXZ		; Animatable::IsCurveSelected
PUBLIC	?IsSubCurveSelected@Animatable@@UEAAHH@Z	; Animatable::IsSubCurveSelected
PUBLIC	?GetSelKeyCoords@Animatable@@UEAAHAEAHAEAMK@Z	; Animatable::GetSelKeyCoords
PUBLIC	?SetSelKeyCoords@Animatable@@UEAAXHMK@Z		; Animatable::SetSelKeyCoords
PUBLIC	?SetSelKeyCoordsExpr@Animatable@@UEAAHPEAVParamDimension@@PEB_W1K@Z ; Animatable::SetSelKeyCoordsExpr
PUBLIC	?AdjustTangents@Animatable@@UEAAXVTrackHitRecord@@PEAVParamDimensionBase@@AEAVBox2@@MHMHHHK@Z ; Animatable::AdjustTangents
PUBLIC	?AdjustTangents@Animatable@@UEAAXVTrackHitRecord@@PEAVParamDimensionBase@@MMK@Z ; Animatable::AdjustTangents
PUBLIC	?SetKeyBufferPresent@Animatable@@UEAAHXZ	; Animatable::SetKeyBufferPresent
PUBLIC	?CommitSetKeyBuffer@Animatable@@UEAAXH@Z	; Animatable::CommitSetKeyBuffer
PUBLIC	?RevertSetKeyBuffer@Animatable@@UEAAXXZ		; Animatable::RevertSetKeyBuffer
PUBLIC	?CanCopyTrack@Animatable@@UEAAHVInterval@@K@Z	; Animatable::CanCopyTrack
PUBLIC	?CanPasteTrack@Animatable@@UEAAHPEAVTrackClipObject@@VInterval@@K@Z ; Animatable::CanPasteTrack
PUBLIC	?CopyTrack@Animatable@@UEAAPEAVTrackClipObject@@VInterval@@K@Z ; Animatable::CopyTrack
PUBLIC	?PasteTrack@Animatable@@UEAAXPEAVTrackClipObject@@VInterval@@K@Z ; Animatable::PasteTrack
PUBLIC	?CanCopySubTrack@Animatable@@UEAAHHVInterval@@K@Z ; Animatable::CanCopySubTrack
PUBLIC	?CanPasteSubTrack@Animatable@@UEAAHHPEAVTrackClipObject@@VInterval@@K@Z ; Animatable::CanPasteSubTrack
PUBLIC	?CopySubTrack@Animatable@@UEAAPEAVTrackClipObject@@HVInterval@@K@Z ; Animatable::CopySubTrack
PUBLIC	?PasteSubTrack@Animatable@@UEAAXHPEAVTrackClipObject@@VInterval@@K@Z ; Animatable::PasteSubTrack
PUBLIC	?GetTrackVSpace@Animatable@@UEAAHH@Z		; Animatable::GetTrackVSpace
PUBLIC	?HitTestTrack@Animatable@@UEAAHAEAV?$Tab@VTrackHitRecord@@@@AEAVBox2@@1MHK@Z ; Animatable::HitTestTrack
PUBLIC	?PaintTrack@Animatable@@UEAAHPEAVParamDimensionBase@@PEAUHDC__@@AEAVBox2@@2MHK@Z ; Animatable::PaintTrack
PUBLIC	?PaintSubTrack@Animatable@@UEAAHHPEAVParamDimensionBase@@PEAUHDC__@@AEAVBox2@@2MHK@Z ; Animatable::PaintSubTrack
PUBLIC	?PaintFCurves@Animatable@@UEAAHPEAVParamDimensionBase@@PEAUHDC__@@AEAVBox2@@2MHMHK@Z ; Animatable::PaintFCurves
PUBLIC	?HitTestFCurves@Animatable@@UEAAHPEAVParamDimensionBase@@AEAV?$Tab@VTrackHitRecord@@@@AEAVBox2@@2MHMHK@Z ; Animatable::HitTestFCurves
PUBLIC	?PaintSubFCurves@Animatable@@UEAAHHPEAVParamDimensionBase@@PEAUHDC__@@AEAVBox2@@2MHMHK@Z ; Animatable::PaintSubFCurves
PUBLIC	?HitTestSubFCurves@Animatable@@UEAAHHPEAVParamDimensionBase@@AEAV?$Tab@VTrackHitRecord@@@@AEAVBox2@@2MHMHK@Z ; Animatable::HitTestSubFCurves
PUBLIC	?EditTrackParams@Animatable@@UEAAXHPEAVParamDimensionBase@@PEB_WPEAUHWND__@@PEAVIObjParam@@K@Z ; Animatable::EditTrackParams
PUBLIC	?TrackParamsType@Animatable@@UEAAHXZ		; Animatable::TrackParamsType
PUBLIC	?GetFCurveExtents@Animatable@@UEAAHPEAVParamDimensionBase@@AEAM1K@Z ; Animatable::GetFCurveExtents
PUBLIC	?GetSubFCurveExtents@Animatable@@UEAAHHPEAVParamDimensionBase@@AEAM1K@Z ; Animatable::GetSubFCurveExtents
PUBLIC	?GetParamDimension@Animatable@@UEAAPEAVParamDimension@@H@Z ; Animatable::GetParamDimension
PUBLIC	?TrackViewWinProc@Animatable@@UEAA_JPEAUHWND__@@I_K_J@Z ; Animatable::TrackViewWinProc
PUBLIC	?SelectSubAnim@Animatable@@UEAAHH@Z		; Animatable::SelectSubAnim
PUBLIC	?FreeAllBitmaps@Animatable@@UEAAXXZ		; Animatable::FreeAllBitmaps
PUBLIC	?GetSystemNodes@Animatable@@UEAAXAEAVINodeTab@@W4SysNodeContext@@@Z ; Animatable::GetSystemNodes
PUBLIC	?IsSubClassOf@Animatable@@UEAAHVClass_ID@@@Z	; Animatable::IsSubClassOf
PUBLIC	?IsParamBlockDesc2Used@Animatable@@UEAA_NPEAVParamBlockDesc2@@@Z ; Animatable::IsParamBlockDesc2Used
PUBLIC	?GetMacroRecorderName@Animatable@@UEAA_N_NAEAVWStr@@@Z ; Animatable::GetMacroRecorderName
PUBLIC	?CanTransferReference@ReferenceMaker@@UEAAHH@Z	; ReferenceMaker::CanTransferReference
PUBLIC	?RemapRefOnLoad@ReferenceMaker@@UEAAHH@Z	; ReferenceMaker::RemapRefOnLoad
PUBLIC	?NotifyDependents@ReferenceMaker@@EEAA?AW4RefResult@@AEBVInterval@@_KIKHPEAVReferenceTarget@@@Z ; ReferenceMaker::NotifyDependents
PUBLIC	?IsRefMaker@ReferenceMaker@@UEAAHXZ		; ReferenceMaker::IsRefMaker
PUBLIC	?IsRealDependency@ReferenceMaker@@UEAAHPEAVReferenceTarget@@@Z ; ReferenceMaker::IsRealDependency
PUBLIC	?ShouldPersistWeakRef@ReferenceMaker@@UEAAHPEAVReferenceTarget@@@Z ; ReferenceMaker::ShouldPersistWeakRef
PUBLIC	?IsRefTarget@ReferenceTarget@@UEAAHXZ		; ReferenceTarget::IsRefTarget
PUBLIC	?RefAddedUndoRedo@ReferenceTarget@@UEAAXPEAVReferenceMaker@@@Z ; ReferenceTarget::RefAddedUndoRedo
PUBLIC	?RefDeleted@ReferenceTarget@@UEAAXXZ		; ReferenceTarget::RefDeleted
PUBLIC	?RefDeletedUndoRedo@ReferenceTarget@@UEAAXXZ	; ReferenceTarget::RefDeletedUndoRedo
PUBLIC	?NotifyForeground@ReferenceTarget@@UEAAXH@Z	; ReferenceTarget::NotifyForeground
PUBLIC	?NotifyTarget@ReferenceTarget@@UEAAXHPEAVReferenceMaker@@@Z ; ReferenceTarget::NotifyTarget
PUBLIC	?Set@BitArray@@QEAAXH@Z				; BitArray::Set
PUBLIC	??0AColor@@QEAA@XZ				; AColor::AColor
PUBLIC	?GetAAFilterKernel@RenderGlobalContext@@UEAAPEAVFilterKernel@@XZ ; RenderGlobalContext::GetAAFilterKernel
PUBLIC	?GetAAFilterSize@RenderGlobalContext@@UEAAMXZ	; RenderGlobalContext::GetAAFilterSize
PUBLIC	?NumRenderInstances@RenderGlobalContext@@UEAAHXZ ; RenderGlobalContext::NumRenderInstances
PUBLIC	?GetRenderInstance@RenderGlobalContext@@UEAAPEAVRenderInstance@@H@Z ; RenderGlobalContext::GetRenderInstance
PUBLIC	?EvalGlobalEnvironMap@RenderGlobalContext@@UEAA?AVAColor@@AEAVShadeContext@@AEAVRay@@H@Z ; RenderGlobalContext::EvalGlobalEnvironMap
PUBLIC	?IntersectRay@RenderGlobalContext@@UEAAXPEAVRenderInstance@@AEAVRay@@AEAUISect@@AEAVISectList@@H@Z ; RenderGlobalContext::IntersectRay
PUBLIC	?IntersectWorld@RenderGlobalContext@@UEAAHAEAVRay@@HAEAUISect@@AEAVISectList@@H@Z ; RenderGlobalContext::IntersectWorld
PUBLIC	?GetViewParams@RenderGlobalContext@@UEAAPEAVViewParams@@XZ ; RenderGlobalContext::GetViewParams
PUBLIC	?DebugFile@RenderGlobalContext@@UEAAPEAU_iobuf@@XZ ; RenderGlobalContext::DebugFile
PUBLIC	?Execute@RenderGlobalContext@@UEAA_JH_K00@Z	; RenderGlobalContext::Execute
PUBLIC	??1RenderGlobalContext@@UEAA@XZ			; RenderGlobalContext::~RenderGlobalContext
PUBLIC	??_GRenderGlobalContext@@UEAAPEAXI@Z		; RenderGlobalContext::`scalar deleting destructor'
PUBLIC	??1ShadeOutput@@UEAA@XZ				; ShadeOutput::~ShadeOutput
PUBLIC	??_GShadeOutput@@UEAAPEAXI@Z			; ShadeOutput::`scalar deleting destructor'
PUBLIC	?ClassID@ShadeContext@@UEAA?AVClass_ID@@XZ	; ShadeContext::ClassID
PUBLIC	?Antialias@ShadeContext@@UEAAHXZ		; ShadeContext::Antialias
PUBLIC	?ProjType@ShadeContext@@UEAAHXZ			; ShadeContext::ProjType
PUBLIC	?NodeID@ShadeContext@@UEAAHXZ			; ShadeContext::NodeID
PUBLIC	?Node@ShadeContext@@UEAAPEAVINode@@XZ		; ShadeContext::Node
PUBLIC	?GetEvalObject@ShadeContext@@UEAAPEAVObject@@XZ	; ShadeContext::GetEvalObject
PUBLIC	?BarycentricCoords@ShadeContext@@UEAA?AVPoint3@@XZ ; ShadeContext::BarycentricCoords
PUBLIC	?SetNormal@ShadeContext@@UEAAXVPoint3@@@Z	; ShadeContext::SetNormal
PUBLIC	?OrigNormal@ShadeContext@@UEAA?AVPoint3@@XZ	; ShadeContext::OrigNormal
PUBLIC	?Curve@ShadeContext@@UEAAMXZ			; ShadeContext::Curve
PUBLIC	?OrigView@ShadeContext@@UEAA?AVPoint3@@XZ	; ShadeContext::OrigView
PUBLIC	?SetIOR@ShadeContext@@UEAAXM@Z			; ShadeContext::SetIOR
PUBLIC	?GetIOR@ShadeContext@@UEAAMXZ			; ShadeContext::GetIOR
PUBLIC	?DP@ShadeContext@@UEAAXAEAVPoint3@@0@Z		; ShadeContext::DP
PUBLIC	?SurfacePtScreen@ShadeContext@@UEAA?AVPoint2@@XZ ; ShadeContext::SurfacePtScreen
PUBLIC	?BumpBasisVectors@ShadeContext@@UEAAHQEAVPoint3@@HH@Z ; ShadeContext::BumpBasisVectors
PUBLIC	?IsSuperSampleOn@ShadeContext@@UEAAHXZ		; ShadeContext::IsSuperSampleOn
PUBLIC	?IsTextureSuperSampleOn@ShadeContext@@UEAAHXZ	; ShadeContext::IsTextureSuperSampleOn
PUBLIC	?GetNSuperSample@ShadeContext@@UEAAHXZ		; ShadeContext::GetNSuperSample
PUBLIC	?GetSampleSizeScale@ShadeContext@@UEAAMXZ	; ShadeContext::GetSampleSizeScale
PUBLIC	?UVWNormal@ShadeContext@@UEAA?AVPoint3@@H@Z	; ShadeContext::UVWNormal
PUBLIC	?RayDiam@ShadeContext@@UEAAMXZ			; ShadeContext::RayDiam
PUBLIC	?RayConeAngle@ShadeContext@@UEAAMXZ		; ShadeContext::RayConeAngle
PUBLIC	?CamNearRange@ShadeContext@@UEAAMXZ		; ShadeContext::CamNearRange
PUBLIC	?CamFarRange@ShadeContext@@UEAAMXZ		; ShadeContext::CamFarRange
PUBLIC	?SetGBufferID@ShadeContext@@UEAAXH@Z		; ShadeContext::SetGBufferID
PUBLIC	?DebugFile@ShadeContext@@UEAAPEAU_iobuf@@XZ	; ShadeContext::DebugFile
PUBLIC	?EvalGlobalEnvironMap@ShadeContext@@UEAA?AVAColor@@VPoint3@@@Z ; ShadeContext::EvalGlobalEnvironMap
PUBLIC	?GetCache@ShadeContext@@UEAAHPEAVTexmap@@AEAVAColor@@@Z ; ShadeContext::GetCache
PUBLIC	?GetCache@ShadeContext@@UEAAHPEAVTexmap@@AEAM@Z	; ShadeContext::GetCache
PUBLIC	?GetCache@ShadeContext@@UEAAHPEAVTexmap@@AEAVPoint3@@@Z ; ShadeContext::GetCache
PUBLIC	?PutCache@ShadeContext@@UEAAXPEAVTexmap@@AEBVAColor@@@Z ; ShadeContext::PutCache
PUBLIC	?PutCache@ShadeContext@@UEAAXPEAVTexmap@@M@Z	; ShadeContext::PutCache
PUBLIC	?PutCache@ShadeContext@@UEAAXPEAVTexmap@@AEBVPoint3@@@Z ; ShadeContext::PutCache
PUBLIC	?TossCache@ShadeContext@@UEAAXPEAVTexmap@@@Z	; ShadeContext::TossCache
PUBLIC	?Execute@ShadeContext@@UEAA_JH_K00@Z		; ShadeContext::Execute
PUBLIC	?NRenderElements@ShadeContext@@UEAAHXZ		; ShadeContext::NRenderElements
PUBLIC	?GetRenderElement@ShadeContext@@UEAAPEAVIRenderElement@@H@Z ; ShadeContext::GetRenderElement
PUBLIC	??1ShadeContext@@UEAA@XZ			; ShadeContext::~ShadeContext
PUBLIC	??_GShadeContext@@UEAAPEAXI@Z			; ShadeContext::`scalar deleting destructor'
PUBLIC	?SubTexmapOn@ISubMap@@UEAAHH@Z			; ISubMap::SubTexmapOn
PUBLIC	?BuildMaps@MtlBase@@UEAAHHAEAVRenderMapsContext@@@Z ; MtlBase::BuildMaps
PUBLIC	?LocalMappingsRequired@MtlBase@@UEAAXHAEAVBitArray@@0@Z ; MtlBase::LocalMappingsRequired
PUBLIC	?IsMultiMtl@MtlBase@@UEAAHXZ			; MtlBase::IsMultiMtl
PUBLIC	?SupportsMultiMapsInViewport@MtlBase@@UEAAHXZ	; MtlBase::SupportsMultiMapsInViewport
PUBLIC	?SetupGfxMultiMaps@MtlBase@@UEAAXHPEAVMaterial@@AEAVMtlMakerCallback@@@Z ; MtlBase::SetupGfxMultiMaps
PUBLIC	?GetInterface@MtlBase@@UEAAPEAVBaseInterface@@VInterface_ID@@@Z ; MtlBase::GetInterface
PUBLIC	?GetRefTarget@MtlBase@@UEAAPEAVReferenceTarget@@XZ ; MtlBase::GetRefTarget
PUBLIC	?GetTransparencyHint@MtlBase@@UEAAHHAEAVInterval@@@Z ; MtlBase::GetTransparencyHint
PUBLIC	?HandleOwnViewPerturb@Texmap@@UEAAHXZ		; Texmap::HandleOwnViewPerturb
PUBLIC	?GetUVTransform@Texmap@@UEAAXAEAVMatrix3@@@Z	; Texmap::GetUVTransform
PUBLIC	?GetTextureTiling@Texmap@@UEAAHXZ		; Texmap::GetTextureTiling
PUBLIC	?GetUVWSource@Texmap@@UEAAHXZ			; Texmap::GetUVWSource
PUBLIC	?GetMapChannel@Texmap@@UEAAHXZ			; Texmap::GetMapChannel
PUBLIC	?InitSlotType@Texmap@@UEAAXH@Z			; Texmap::InitSlotType
PUBLIC	?MapSlotType@Texmap@@UEAAHH@Z			; Texmap::MapSlotType
PUBLIC	?GetTheUVGen@Texmap@@UEAAPEAVUVGen@@XZ		; Texmap::GetTheUVGen
PUBLIC	?GetTheXYZGen@Texmap@@UEAAPEAVXYZGen@@XZ	; Texmap::GetTheXYZGen
PUBLIC	?SetOutputLevel@Texmap@@UEAAXHM@Z		; Texmap::SetOutputLevel
PUBLIC	?IsLocalOutputMeaningful@Texmap@@UEAA_NAEAVShadeContext@@@Z ; Texmap::IsLocalOutputMeaningful
PUBLIC	?LoadMapFiles@Texmap@@UEAAHH@Z			; Texmap::LoadMapFiles
PUBLIC	?IsHighDynamicRange@Texmap@@UEBAHXZ		; Texmap::IsHighDynamicRange
PUBLIC	??1Texmap@@UEAA@XZ				; Texmap::~Texmap
PUBLIC	??1?$Tab@PEAVVertexNormalsCallback@@@@QEAA@XZ	; Tab<VertexNormalsCallback *>::~Tab<VertexNormalsCallback *>
PUBLIC	??0VertexNormalsControl@@QEAA@XZ		; VertexNormalsControl::VertexNormalsControl
PUBLIC	??1ParamMap2UserDlgProc@@UEAA@XZ		; ParamMap2UserDlgProc::~ParamMap2UserDlgProc
PUBLIC	?SetThing@ParamMap2UserDlgProc@@UEAAXPEAVReferenceTarget@@@Z ; ParamMap2UserDlgProc::SetThing
PUBLIC	?Update@ParamMap2UserDlgProc@@UEAAXH@Z		; ParamMap2UserDlgProc::Update
PUBLIC	?SetParamBlock@ParamMap2UserDlgProc@@UEAAXPEAVIParamBlock2@@@Z ; ParamMap2UserDlgProc::SetParamBlock
PUBLIC	?Update@ParamMap2UserDlgProc@@UEAAXHAEAVInterval@@PEAVIParamMap2@@@Z ; ParamMap2UserDlgProc::Update
PUBLIC	??_GParamMap2UserDlgProc@@UEAAPEAXI@Z		; ParamMap2UserDlgProc::`scalar deleting destructor'
PUBLIC	??0BerconSC@@QEAA@QEAVShadeContext@@@Z		; BerconSC::BerconSC
PUBLIC	?ClassID@BerconSC@@UEAA?AVClass_ID@@XZ		; BerconSC::ClassID
PUBLIC	?InMtlEditor@BerconSC@@UEAAHXZ			; BerconSC::InMtlEditor
PUBLIC	?Antialias@BerconSC@@UEAAHXZ			; BerconSC::Antialias
PUBLIC	?ProjType@BerconSC@@UEAAHXZ			; BerconSC::ProjType
PUBLIC	?Light@BerconSC@@UEAAPEAVLightDesc@@H@Z		; BerconSC::Light
PUBLIC	?CurTime@BerconSC@@UEAAHXZ			; BerconSC::CurTime
PUBLIC	?NodeID@BerconSC@@UEAAHXZ			; BerconSC::NodeID
PUBLIC	?Node@BerconSC@@UEAAPEAVINode@@XZ		; BerconSC::Node
PUBLIC	?GetEvalObject@BerconSC@@UEAAPEAVObject@@XZ	; BerconSC::GetEvalObject
PUBLIC	?BarycentricCoords@BerconSC@@UEAA?AVPoint3@@XZ	; BerconSC::BarycentricCoords
PUBLIC	?FaceNumber@BerconSC@@UEAAHXZ			; BerconSC::FaceNumber
PUBLIC	?Normal@BerconSC@@UEAA?AVPoint3@@XZ		; BerconSC::Normal
PUBLIC	?SetNormal@BerconSC@@UEAAXVPoint3@@@Z		; BerconSC::SetNormal
PUBLIC	?OrigNormal@BerconSC@@UEAA?AVPoint3@@XZ		; BerconSC::OrigNormal
PUBLIC	?GNormal@BerconSC@@UEAA?AVPoint3@@XZ		; BerconSC::GNormal
PUBLIC	?Curve@BerconSC@@UEAAMXZ			; BerconSC::Curve
PUBLIC	?V@BerconSC@@UEAA?AVPoint3@@XZ			; BerconSC::V
PUBLIC	?SetView@BerconSC@@UEAAXVPoint3@@@Z		; BerconSC::SetView
PUBLIC	?OrigView@BerconSC@@UEAA?AVPoint3@@XZ		; BerconSC::OrigView
PUBLIC	?ReflectVector@BerconSC@@UEAA?AVPoint3@@XZ	; BerconSC::ReflectVector
PUBLIC	?RefractVector@BerconSC@@UEAA?AVPoint3@@M@Z	; BerconSC::RefractVector
PUBLIC	?SetIOR@BerconSC@@UEAAXM@Z			; BerconSC::SetIOR
PUBLIC	?GetIOR@BerconSC@@UEAAMXZ			; BerconSC::GetIOR
PUBLIC	?CamPos@BerconSC@@UEAA?AVPoint3@@XZ		; BerconSC::CamPos
PUBLIC	?P@BerconSC@@UEAA?AVPoint3@@XZ			; BerconSC::P
PUBLIC	?DP@BerconSC@@UEAA?AVPoint3@@XZ			; BerconSC::DP
PUBLIC	?DP@BerconSC@@UEAAXAEAVPoint3@@0@Z		; BerconSC::DP
PUBLIC	?PObj@BerconSC@@UEAA?AVPoint3@@XZ		; BerconSC::PObj
PUBLIC	?DPObj@BerconSC@@UEAA?AVPoint3@@XZ		; BerconSC::DPObj
PUBLIC	?ObjectBox@BerconSC@@UEAA?AVBox3@@XZ		; BerconSC::ObjectBox
PUBLIC	?PObjRelBox@BerconSC@@UEAA?AVPoint3@@XZ		; BerconSC::PObjRelBox
PUBLIC	?DPObjRelBox@BerconSC@@UEAA?AVPoint3@@XZ	; BerconSC::DPObjRelBox
PUBLIC	?ScreenUV@BerconSC@@UEAAXAEAVPoint2@@0@Z	; BerconSC::ScreenUV
PUBLIC	?ScreenCoord@BerconSC@@UEAA?AVIPoint2@@XZ	; BerconSC::ScreenCoord
PUBLIC	?SurfacePtScreen@BerconSC@@UEAA?AVPoint2@@XZ	; BerconSC::SurfacePtScreen
PUBLIC	?UVW@BerconSC@@UEAA?AVPoint3@@H@Z		; BerconSC::UVW
PUBLIC	?DUVW@BerconSC@@UEAA?AVPoint3@@H@Z		; BerconSC::DUVW
PUBLIC	?DPdUVW@BerconSC@@UEAAXQEAVPoint3@@H@Z		; BerconSC::DPdUVW
PUBLIC	?BumpBasisVectors@BerconSC@@UEAAHQEAVPoint3@@HH@Z ; BerconSC::BumpBasisVectors
PUBLIC	?IsSuperSampleOn@BerconSC@@UEAAHXZ		; BerconSC::IsSuperSampleOn
PUBLIC	?IsTextureSuperSampleOn@BerconSC@@UEAAHXZ	; BerconSC::IsTextureSuperSampleOn
PUBLIC	?GetNSuperSample@BerconSC@@UEAAHXZ		; BerconSC::GetNSuperSample
PUBLIC	?GetSampleSizeScale@BerconSC@@UEAAMXZ		; BerconSC::GetSampleSizeScale
PUBLIC	?UVWNormal@BerconSC@@UEAA?AVPoint3@@H@Z		; BerconSC::UVWNormal
PUBLIC	?RayDiam@BerconSC@@UEAAMXZ			; BerconSC::RayDiam
PUBLIC	?RayConeAngle@BerconSC@@UEAAMXZ			; BerconSC::RayConeAngle
PUBLIC	?EvalEnvironMap@BerconSC@@UEAA?AVAColor@@PEAVTexmap@@VPoint3@@@Z ; BerconSC::EvalEnvironMap
PUBLIC	?GetBGColor@BerconSC@@UEAAXAEAVColor@@0H@Z	; BerconSC::GetBGColor
PUBLIC	?CamNearRange@BerconSC@@UEAAMXZ			; BerconSC::CamNearRange
PUBLIC	?CamFarRange@BerconSC@@UEAAMXZ			; BerconSC::CamFarRange
PUBLIC	?PointTo@BerconSC@@UEAA?AVPoint3@@AEBV2@W4RefFrame@@@Z ; BerconSC::PointTo
PUBLIC	?PointFrom@BerconSC@@UEAA?AVPoint3@@AEBV2@W4RefFrame@@@Z ; BerconSC::PointFrom
PUBLIC	?VectorTo@BerconSC@@UEAA?AVPoint3@@AEBV2@W4RefFrame@@@Z ; BerconSC::VectorTo
PUBLIC	?VectorFrom@BerconSC@@UEAA?AVPoint3@@AEBV2@W4RefFrame@@@Z ; BerconSC::VectorFrom
PUBLIC	?VectorToNoScale@BerconSC@@UEAA?AVPoint3@@AEBV2@W4RefFrame@@@Z ; BerconSC::VectorToNoScale
PUBLIC	?VectorFromNoScale@BerconSC@@UEAA?AVPoint3@@AEBV2@W4RefFrame@@@Z ; BerconSC::VectorFromNoScale
PUBLIC	?SetGBufferID@BerconSC@@UEAAXH@Z		; BerconSC::SetGBufferID
PUBLIC	?DebugFile@BerconSC@@UEAAPEAU_iobuf@@XZ		; BerconSC::DebugFile
PUBLIC	?EvalGlobalEnvironMap@BerconSC@@UEAA?AVAColor@@VPoint3@@@Z ; BerconSC::EvalGlobalEnvironMap
PUBLIC	?GetCache@BerconSC@@UEAAHPEAVTexmap@@AEAVAColor@@@Z ; BerconSC::GetCache
PUBLIC	?GetCache@BerconSC@@UEAAHPEAVTexmap@@AEAM@Z	; BerconSC::GetCache
PUBLIC	?GetCache@BerconSC@@UEAAHPEAVTexmap@@AEAVPoint3@@@Z ; BerconSC::GetCache
PUBLIC	?PutCache@BerconSC@@UEAAXPEAVTexmap@@AEBVAColor@@@Z ; BerconSC::PutCache
PUBLIC	?PutCache@BerconSC@@UEAAXPEAVTexmap@@M@Z	; BerconSC::PutCache
PUBLIC	?PutCache@BerconSC@@UEAAXPEAVTexmap@@AEBVPoint3@@@Z ; BerconSC::PutCache
PUBLIC	?TossCache@BerconSC@@UEAAXPEAVTexmap@@@Z	; BerconSC::TossCache
PUBLIC	?Execute@BerconSC@@UEAA_JH_K00@Z		; BerconSC::Execute
PUBLIC	?NRenderElements@BerconSC@@UEAAHXZ		; BerconSC::NRenderElements
PUBLIC	?GetRenderElement@BerconSC@@UEAAPEAVIRenderElement@@H@Z ; BerconSC::GetRenderElement
PUBLIC	?DiffuseIllum@BerconSC@@UEAA?AVColor@@XZ	; BerconSC::DiffuseIllum
PUBLIC	?IsPhysicalSpace@BerconSC@@UEBAPEAVToneOperator@@XZ ; BerconSC::IsPhysicalSpace
PUBLIC	?ScaledToRGB@BerconSC@@UEBAPEAVToneOperator@@M@Z ; BerconSC::ScaledToRGB
PUBLIC	?ScaledToRGB@BerconSC@@UEBAPEAVToneOperator@@XZ	; BerconSC::ScaledToRGB
PUBLIC	?ScaleRGB@BerconSC@@UEBAPEAVToneOperator@@M@Z	; BerconSC::ScaleRGB
PUBLIC	??1BerconSC@@UEAA@XZ				; BerconSC::~BerconSC
PUBLIC	??_GBerconSC@@UEAAPEAXI@Z			; BerconSC::`scalar deleting destructor'
PUBLIC	??0XYZ_Desc@@QEAA@PEAVClassDesc2@@HHHHHHH@Z	; XYZ_Desc::XYZ_Desc
PUBLIC	?DlgProc@BerconXYZDlgProc@@UEAA_JHPEAVIParamMap2@@PEAUHWND__@@I_K_J@Z ; BerconXYZDlgProc::DlgProc
PUBLIC	?DeleteThis@BerconXYZDlgProc@@UEAAXXZ		; BerconXYZDlgProc::DeleteThis
PUBLIC	?SetThing@BerconXYZDlgProc@@UEAAXPEAVReferenceTarget@@@Z ; BerconXYZDlgProc::SetThing
PUBLIC	??_GBerconXYZDlgProc@@UEAAPEAXI@Z		; BerconXYZDlgProc::`scalar deleting destructor'
PUBLIC	?getDistVector@BerconDistortion@@QEAA?AVPoint3@@AEAVShadeContext@@@Z ; BerconDistortion::getDistVector
PUBLIC	?SupportTexDisplay@BerconDistortion@@UEAAHXZ	; BerconDistortion::SupportTexDisplay
PUBLIC	?ActivateTexDisplay@BerconDistortion@@UEAAXH@Z	; BerconDistortion::ActivateTexDisplay
PUBLIC	?GetActiveTexHandle@BerconDistortion@@UEAA_KHAEAVTexHandleMaker@@@Z ; BerconDistortion::GetActiveTexHandle
PUBLIC	?CreateParamDlg@BerconDistortion@@UEAAPEAVParamDlg@@PEAUHWND__@@PEAVIMtlParams@@@Z ; BerconDistortion::CreateParamDlg
PUBLIC	?SetDlgThing@BerconDistortion@@UEAAHPEAVParamDlg@@@Z ; BerconDistortion::SetDlgThing
PUBLIC	?Update@BerconDistortion@@UEAAXHAEAVInterval@@@Z ; BerconDistortion::Update
PUBLIC	?Reset@BerconDistortion@@UEAAXXZ		; BerconDistortion::Reset
PUBLIC	?Validity@BerconDistortion@@UEAA?AVInterval@@H@Z ; BerconDistortion::Validity
PUBLIC	?LocalRequirements@BerconDistortion@@UEAAKH@Z	; BerconDistortion::LocalRequirements
PUBLIC	?MappingsRequired@BerconDistortion@@UEAAXHAEAVBitArray@@0@Z ; BerconDistortion::MappingsRequired
PUBLIC	?NumSubTexmaps@BerconDistortion@@UEAAHXZ	; BerconDistortion::NumSubTexmaps
PUBLIC	?GetSubTexmap@BerconDistortion@@UEAAPEAVTexmap@@H@Z ; BerconDistortion::GetSubTexmap
PUBLIC	?SetSubTexmap@BerconDistortion@@UEAAXHPEAVTexmap@@@Z ; BerconDistortion::SetSubTexmap
PUBLIC	?GetSubTexmapSlotName@BerconDistortion@@UEAA?AVWStr@@H@Z ; BerconDistortion::GetSubTexmapSlotName
PUBLIC	?EvalColor@BerconDistortion@@UEAA?AVAColor@@AEAVShadeContext@@@Z ; BerconDistortion::EvalColor
PUBLIC	?EvalMono@BerconDistortion@@UEAAMAEAVShadeContext@@@Z ; BerconDistortion::EvalMono
PUBLIC	?EvalNormalPerturb@BerconDistortion@@UEAA?AVPoint3@@AEAVShadeContext@@@Z ; BerconDistortion::EvalNormalPerturb
PUBLIC	?SubNumToRefNum@BerconDistortion@@UEAAHH@Z	; BerconDistortion::SubNumToRefNum
PUBLIC	?ClassID@BerconDistortion@@UEAA?AVClass_ID@@XZ	; BerconDistortion::ClassID
PUBLIC	?SuperClassID@BerconDistortion@@UEAAKXZ		; BerconDistortion::SuperClassID
PUBLIC	?GetClassName@BerconDistortion@@UEAAXAEAVWStr@@@Z ; BerconDistortion::GetClassName
PUBLIC	?Clone@BerconDistortion@@UEAAPEAVReferenceTarget@@AEAVRemapDir@@@Z ; BerconDistortion::Clone
PUBLIC	?NotifyRefChanged@BerconDistortion@@UEAA?AW4RefResult@@AEBVInterval@@PEAVReferenceTarget@@AEA_KIH@Z ; BerconDistortion::NotifyRefChanged
PUBLIC	?NumSubs@BerconDistortion@@UEAAHXZ		; BerconDistortion::NumSubs
PUBLIC	?SubAnim@BerconDistortion@@UEAAPEAVAnimatable@@H@Z ; BerconDistortion::SubAnim
PUBLIC	?SubAnimName@BerconDistortion@@UEAA?AVWStr@@H@Z	; BerconDistortion::SubAnimName
PUBLIC	?NumRefs@BerconDistortion@@UEAAHXZ		; BerconDistortion::NumRefs
PUBLIC	?GetReference@BerconDistortion@@UEAAPEAVReferenceTarget@@H@Z ; BerconDistortion::GetReference
PUBLIC	?SetReference@BerconDistortion@@EEAAXHPEAVReferenceTarget@@@Z ; BerconDistortion::SetReference
PUBLIC	?NumParamBlocks@BerconDistortion@@UEAAHXZ	; BerconDistortion::NumParamBlocks
PUBLIC	?GetParamBlock@BerconDistortion@@UEAAPEAVIParamBlock2@@H@Z ; BerconDistortion::GetParamBlock
PUBLIC	?GetParamBlockByID@BerconDistortion@@UEAAPEAVIParamBlock2@@F@Z ; BerconDistortion::GetParamBlockByID
PUBLIC	?DeleteThis@BerconDistortion@@UEAAXXZ		; BerconDistortion::DeleteThis
PUBLIC	??0BerconDistortion@@QEAA@XZ			; BerconDistortion::BerconDistortion
PUBLIC	??1BerconDistortion@@UEAA@XZ			; BerconDistortion::~BerconDistortion
PUBLIC	??_GBerconDistortion@@UEAAPEAXI@Z		; BerconDistortion::`scalar deleting destructor'
PUBLIC	??1BerconDistortionClassDesc@@UEAA@XZ		; BerconDistortionClassDesc::~BerconDistortionClassDesc
PUBLIC	?GetBerconDistortionDesc@@YAPEAVClassDesc2@@XZ	; GetBerconDistortionDesc
PUBLIC	??_EBerconSC@@WCII@EAAPEAXI@Z			; [thunk]:BerconSC::`vector deleting destructor'
PUBLIC	?DebugFile@BerconSC@@WCII@EAAPEAU_iobuf@@XZ	; [thunk]:BerconSC::DebugFile`adjustor{648}'
PUBLIC	?Execute@BerconSC@@WCII@EAA_JH_K00@Z		; [thunk]:BerconSC::Execute`adjustor{648}'
PUBLIC	??_EBerconDistortion@@WEA@EAAPEAXI@Z		; [thunk]:BerconDistortion::`vector deleting destructor'
PUBLIC	??_7InterfaceServer@@6B@			; InterfaceServer::`vftable'
PUBLIC	??_7BaseInterfaceServer@@6B@			; BaseInterfaceServer::`vftable'
PUBLIC	??_C@_11LOCGONAA@@				; `string'
PUBLIC	??_C@_13COJANIEC@?$AA0@				; `string'
PUBLIC	??_C@_1CM@HBLCKHLG@?$AAA?$AAn?$AAi?$AAm?$AAa?$AAt?$AAa?$AAb?$AAl?$AAe?$AA?3?$AA?3?$AAE?$AAd?$AAi@ ; `string'
PUBLIC	??_C@_1IO@PNJJEDOF@?$AAc?$AA?3?$AA?2?$AAp?$AAr?$AAo?$AAg?$AAr?$AAa?$AAm?$AA?5?$AAf?$AAi?$AAl?$AAe@ ; `string'
PUBLIC	??_C@_1M@HLGKFCJM@?$AAf?$AAa?$AAl?$AAs?$AAe@	; `string'
PUBLIC	??_C@_1EC@POJFJEHG@?$AAR?$AAe?$AAf?$AAe?$AAr?$AAe?$AAn?$AAc?$AAe?$AAM?$AAa?$AAk?$AAe?$AAr?$AA?3@ ; `string'
PUBLIC	??_C@_1IA@GJPPLCDJ@?$AAc?$AA?3?$AA?2?$AAp?$AAr?$AAo?$AAg?$AAr?$AAa?$AAm?$AA?5?$AAf?$AAi?$AAl?$AAe@ ; `string'
PUBLIC	??_C@_1IK@JMJDIAL@?$AAc?$AA?3?$AA?2?$AAp?$AAr?$AAo?$AAg?$AAr?$AAa?$AAm?$AA?5?$AAf?$AAi?$AAl?$AAe@ ; `string'
PUBLIC	??_C@_1CE@GBNPOKPK@?$AAi?$AA?$DO?$AA?9?$AA1?$AA?5?$AA?$CG?$AA?$CG?$AA?5?$AAi?$AA?$DM?$AAn?$AAu?$AAm?$AAB?$AAi@ ; `string'
PUBLIC	??_C@_1BM@HADNIIA@?$AAB?$AAi?$AAt?$AAA?$AAr?$AAr?$AAa?$AAy?$AA?3?$AA?3?$AAS?$AAe?$AAt@ ; `string'
PUBLIC	??_7RenderGlobalContext@@6B@			; RenderGlobalContext::`vftable'
PUBLIC	??_7ShadeOutput@@6B@				; ShadeOutput::`vftable'
PUBLIC	??_7ShadeContext@@6B@				; ShadeContext::`vftable'
PUBLIC	??_7ParamMap2UserDlgProc@@6B@			; ParamMap2UserDlgProc::`vftable'
PUBLIC	??_7BerconSC@@6BShadeContext@@@			; BerconSC::`vftable'
PUBLIC	??_7BerconSC@@6BRenderGlobalContext@@@		; BerconSC::`vftable'
PUBLIC	??_7BerconXYZDlgProc@@6B@			; BerconXYZDlgProc::`vftable'
PUBLIC	??_C@_13PHJMHGG@?$AAL@				; `string'
PUBLIC	??_7BerconDistortion@@6BReferenceTarget@@@	; BerconDistortion::`vftable'
PUBLIC	??_7BerconDistortion@@6BISubMap@@@		; BerconDistortion::`vftable'
PUBLIC	??_R4InterfaceServer@@6B@			; InterfaceServer::`RTTI Complete Object Locator'
PUBLIC	??_R4BaseInterfaceServer@@6B@			; BaseInterfaceServer::`RTTI Complete Object Locator'
PUBLIC	??_R1A@?0A@EA@ReferenceTarget@@8		; ReferenceTarget::`RTTI Base Class Descriptor at (0,-1,0,64)'
PUBLIC	??_R0?AVReferenceTarget@@@8			; ReferenceTarget `RTTI Type Descriptor'
PUBLIC	??_R3ReferenceTarget@@8				; ReferenceTarget::`RTTI Class Hierarchy Descriptor'
PUBLIC	??_R2ReferenceTarget@@8				; ReferenceTarget::`RTTI Base Class Array'
PUBLIC	??_R1A@?0A@EA@ReferenceMaker@@8			; ReferenceMaker::`RTTI Base Class Descriptor at (0,-1,0,64)'
PUBLIC	??_R0?AVReferenceMaker@@@8			; ReferenceMaker `RTTI Type Descriptor'
PUBLIC	??_R3ReferenceMaker@@8				; ReferenceMaker::`RTTI Class Hierarchy Descriptor'
PUBLIC	??_R2ReferenceMaker@@8				; ReferenceMaker::`RTTI Base Class Array'
PUBLIC	??_R1A@?0A@EA@Animatable@@8			; Animatable::`RTTI Base Class Descriptor at (0,-1,0,64)'
PUBLIC	??_R0?AVAnimatable@@@8				; Animatable `RTTI Type Descriptor'
PUBLIC	??_R3Animatable@@8				; Animatable::`RTTI Class Hierarchy Descriptor'
PUBLIC	??_R2Animatable@@8				; Animatable::`RTTI Base Class Array'
PUBLIC	??_R17?0A@EC@MaxHeapOperators@@8		; MaxHeapOperators::`RTTI Base Class Descriptor at (8,-1,0,66)'
PUBLIC	??_R18?0A@EA@Noncopyable@Util@MaxSDK@@8		; MaxSDK::Util::Noncopyable::`RTTI Base Class Descriptor at (9,-1,0,64)'
PUBLIC	??_R0?AVNoncopyable@Util@MaxSDK@@@8		; MaxSDK::Util::Noncopyable `RTTI Type Descriptor'
PUBLIC	??_R3Noncopyable@Util@MaxSDK@@8			; MaxSDK::Util::Noncopyable::`RTTI Class Hierarchy Descriptor'
PUBLIC	??_R2Noncopyable@Util@MaxSDK@@8			; MaxSDK::Util::Noncopyable::`RTTI Base Class Array'
PUBLIC	??_R1A@?0A@EA@Noncopyable@Util@MaxSDK@@8	; MaxSDK::Util::Noncopyable::`RTTI Base Class Descriptor at (0,-1,0,64)'
PUBLIC	??_R18?0A@EC@MaxHeapOperators@@8		; MaxHeapOperators::`RTTI Base Class Descriptor at (9,-1,0,66)'
PUBLIC	??_R1A@?0A@EC@InterfaceServer@@8		; InterfaceServer::`RTTI Base Class Descriptor at (0,-1,0,66)'
PUBLIC	??_R1EI@?0A@EC@MaxHeapOperators@@8		; MaxHeapOperators::`RTTI Base Class Descriptor at (72,-1,0,66)'
PUBLIC	??_R4ParamMap2UserDlgProc@@6B@			; ParamMap2UserDlgProc::`RTTI Complete Object Locator'
PUBLIC	??_R0?AVParamMap2UserDlgProc@@@8		; ParamMap2UserDlgProc `RTTI Type Descriptor'
PUBLIC	??_R3ParamMap2UserDlgProc@@8			; ParamMap2UserDlgProc::`RTTI Class Hierarchy Descriptor'
PUBLIC	??_R2ParamMap2UserDlgProc@@8			; ParamMap2UserDlgProc::`RTTI Base Class Array'
PUBLIC	??_R1A@?0A@EA@ParamMap2UserDlgProc@@8		; ParamMap2UserDlgProc::`RTTI Base Class Descriptor at (0,-1,0,64)'
PUBLIC	??_R4ShadeContext@@6B@				; ShadeContext::`RTTI Complete Object Locator'
PUBLIC	??_R0?AVShadeContext@@@8			; ShadeContext `RTTI Type Descriptor'
PUBLIC	??_R3ShadeContext@@8				; ShadeContext::`RTTI Class Hierarchy Descriptor'
PUBLIC	??_R2ShadeContext@@8				; ShadeContext::`RTTI Base Class Array'
PUBLIC	??_R1A@?0A@EA@ShadeContext@@8			; ShadeContext::`RTTI Base Class Descriptor at (0,-1,0,64)'
PUBLIC	??_R4RenderGlobalContext@@6B@			; RenderGlobalContext::`RTTI Complete Object Locator'
PUBLIC	??_R0?AVRenderGlobalContext@@@8			; RenderGlobalContext `RTTI Type Descriptor'
PUBLIC	??_R3RenderGlobalContext@@8			; RenderGlobalContext::`RTTI Class Hierarchy Descriptor'
PUBLIC	??_R2RenderGlobalContext@@8			; RenderGlobalContext::`RTTI Base Class Array'
PUBLIC	??_R1A@?0A@EA@RenderGlobalContext@@8		; RenderGlobalContext::`RTTI Base Class Descriptor at (0,-1,0,64)'
PUBLIC	??_R4ShadeOutput@@6B@				; ShadeOutput::`RTTI Complete Object Locator'
PUBLIC	??_R0?AVShadeOutput@@@8				; ShadeOutput `RTTI Type Descriptor'
PUBLIC	??_R3ShadeOutput@@8				; ShadeOutput::`RTTI Class Hierarchy Descriptor'
PUBLIC	??_R2ShadeOutput@@8				; ShadeOutput::`RTTI Base Class Array'
PUBLIC	??_R1A@?0A@EA@ShadeOutput@@8			; ShadeOutput::`RTTI Base Class Descriptor at (0,-1,0,64)'
PUBLIC	??_R0?AVISubMap@@@8				; ISubMap `RTTI Type Descriptor'
PUBLIC	??_R3ISubMap@@8					; ISubMap::`RTTI Class Hierarchy Descriptor'
PUBLIC	??_R2ISubMap@@8					; ISubMap::`RTTI Base Class Array'
PUBLIC	??_R1A@?0A@EA@ISubMap@@8			; ISubMap::`RTTI Base Class Descriptor at (0,-1,0,64)'
PUBLIC	??_R4BerconSC@@6BShadeContext@@@		; BerconSC::`RTTI Complete Object Locator'
PUBLIC	??_R0?AVBerconSC@@@8				; BerconSC `RTTI Type Descriptor'
PUBLIC	??_R3BerconSC@@8				; BerconSC::`RTTI Class Hierarchy Descriptor'
PUBLIC	??_R2BerconSC@@8				; BerconSC::`RTTI Base Class Array'
PUBLIC	??_R1A@?0A@EA@BerconSC@@8			; BerconSC::`RTTI Base Class Descriptor at (0,-1,0,64)'
PUBLIC	??_R1CII@?0A@EA@RenderGlobalContext@@8		; RenderGlobalContext::`RTTI Base Class Descriptor at (648,-1,0,64)'
PUBLIC	??_R1CII@?0A@EA@BaseInterfaceServer@@8		; BaseInterfaceServer::`RTTI Base Class Descriptor at (648,-1,0,64)'
PUBLIC	??_R1CII@?0A@EC@InterfaceServer@@8		; InterfaceServer::`RTTI Base Class Descriptor at (648,-1,0,66)'
PUBLIC	??_R1CJA@?0A@EC@MaxHeapOperators@@8		; MaxHeapOperators::`RTTI Base Class Descriptor at (656,-1,0,66)'
PUBLIC	??_R4BerconSC@@6BRenderGlobalContext@@@		; BerconSC::`RTTI Complete Object Locator'
PUBLIC	??_R4BerconXYZDlgProc@@6B@			; BerconXYZDlgProc::`RTTI Complete Object Locator'
PUBLIC	??_R0?AVBerconXYZDlgProc@@@8			; BerconXYZDlgProc `RTTI Type Descriptor'
PUBLIC	??_R3BerconXYZDlgProc@@8			; BerconXYZDlgProc::`RTTI Class Hierarchy Descriptor'
PUBLIC	??_R2BerconXYZDlgProc@@8			; BerconXYZDlgProc::`RTTI Base Class Array'
PUBLIC	??_R1A@?0A@EA@BerconXYZDlgProc@@8		; BerconXYZDlgProc::`RTTI Base Class Descriptor at (0,-1,0,64)'
PUBLIC	??_R4BerconDistortion@@6BReferenceTarget@@@	; BerconDistortion::`RTTI Complete Object Locator'
PUBLIC	??_R0?AVBerconDistortion@@@8			; BerconDistortion `RTTI Type Descriptor'
PUBLIC	??_R3BerconDistortion@@8			; BerconDistortion::`RTTI Class Hierarchy Descriptor'
PUBLIC	??_R2BerconDistortion@@8			; BerconDistortion::`RTTI Base Class Array'
PUBLIC	??_R1A@?0A@EA@BerconDistortion@@8		; BerconDistortion::`RTTI Base Class Descriptor at (0,-1,0,64)'
PUBLIC	??_R1A@?0A@EA@Texmap@@8				; Texmap::`RTTI Base Class Descriptor at (0,-1,0,64)'
PUBLIC	??_R0?AVTexmap@@@8				; Texmap `RTTI Type Descriptor'
PUBLIC	??_R3Texmap@@8					; Texmap::`RTTI Class Hierarchy Descriptor'
PUBLIC	??_R2Texmap@@8					; Texmap::`RTTI Base Class Array'
PUBLIC	??_R1A@?0A@EA@MtlBase@@8			; MtlBase::`RTTI Base Class Descriptor at (0,-1,0,64)'
PUBLIC	??_R0?AVMtlBase@@@8				; MtlBase `RTTI Type Descriptor'
PUBLIC	??_R3MtlBase@@8					; MtlBase::`RTTI Class Hierarchy Descriptor'
PUBLIC	??_R2MtlBase@@8					; MtlBase::`RTTI Base Class Array'
PUBLIC	??_R1EA@?0A@EA@ISubMap@@8			; ISubMap::`RTTI Base Class Descriptor at (64,-1,0,64)'
PUBLIC	??_R4BerconDistortion@@6BISubMap@@@		; BerconDistortion::`RTTI Complete Object Locator'
PUBLIC	__real@3f1a36e2e0000000
PUBLIC	__real@3f50624de0000000
PUBLIC	__real@3f800000
PUBLIC	__real@3fb99999a0000000
PUBLIC	__real@3ff0000000000000
PUBLIC	__real@408f400000000000
PUBLIC	__real@412e848000000000
PUBLIC	__real@bff0000000000000
PUBLIC	__real@c12e848000000000
EXTRN	_purecall:PROC
EXTRN	?__global_delete@@YAXPEAX_K@Z:PROC		; __global_delete
EXTRN	atexit:PROC
EXTRN	__imp_SendMessageW:PROC
EXTRN	__imp_GetDlgItem:PROC
EXTRN	__imp_??2MaxHeapOperators@@SAPEAX_K@Z:PROC
EXTRN	__imp_??3MaxHeapOperators@@SAXPEAX@Z:PROC
EXTRN	__imp_??0OutOfRangeException@Util@MaxSDK@@QEAA@PEB_W@Z:PROC
EXTRN	__imp_??1OutOfRangeException@Util@MaxSDK@@UEAA@XZ:PROC
EXTRN	__imp_??0OutOfRangeException@Util@MaxSDK@@QEAA@AEBV012@@Z:PROC
EXTRN	__imp_?assert1@@YAHHPEB_W00@Z:PROC
EXTRN	__imp_?zfree@@YAXPEAPEAX@Z:PROC
EXTRN	__imp_??1InterfaceServer@@UEAA@XZ:PROC
EXTRN	??_EInterfaceServer@@UEAAPEAXI@Z:PROC		; InterfaceServer::`vector deleting destructor'
EXTRN	__imp_??1BaseInterfaceServer@@UEAA@XZ:PROC
EXTRN	??_EBaseInterfaceServer@@UEAAPEAXI@Z:PROC	; BaseInterfaceServer::`vector deleting destructor'
EXTRN	__imp_??0WStr@@QEAA@PEB_W@Z:PROC
EXTRN	__imp_??1WStr@@QEAA@XZ:PROC
EXTRN	__imp_??4WStr@@QEAAAEAV0@PEB_W@Z:PROC
EXTRN	__imp_??0Interval@@QEAA@HH@Z:PROC
EXTRN	__imp_?InInterval@Interval@@QEBAHH@Z:PROC
EXTRN	__imp_??IInterval@@QEBA?AV0@V0@@Z:PROC
EXTRN	__imp_??0Point2@@QEAA@NN@Z:PROC
EXTRN	__imp_?ReplaceReference@ReferenceMaker@@QEAA?AW4RefResult@@HPEAVReferenceTarget@@H@Z:PROC
EXTRN	__imp_?DeleteReference@ReferenceMaker@@QEAA?AW4RefResult@@H@Z:PROC
EXTRN	__imp_?GetInterface@ReferenceTarget@@UEAAPEAVBaseInterface@@VInterface_ID@@@Z:PROC
EXTRN	__imp_??0Point3@@QEAA@XZ:PROC
EXTRN	__imp_??0Point3@@QEAA@MMM@Z:PROC
EXTRN	__imp_??0Point3@@QEAA@HHH@Z:PROC
EXTRN	__imp_??0Point3@@QEAA@AEBV0@@Z:PROC
EXTRN	__imp_?Length@@YAMAEBVPoint3@@@Z:PROC
EXTRN	__imp_?IdentityMatrix@Matrix3@@QEAAXXZ:PROC
EXTRN	??_ERenderGlobalContext@@UEAAPEAXI@Z:PROC	; RenderGlobalContext::`vector deleting destructor'
EXTRN	??_EShadeOutput@@UEAAPEAXI@Z:PROC		; ShadeOutput::`vector deleting destructor'
EXTRN	??_EShadeContext@@UEAAPEAXI@Z:PROC		; ShadeContext::`vector deleting destructor'
EXTRN	__imp_?GetSubTexmapTVName@ISubMap@@QEAA?AVWStr@@H@Z:PROC
EXTRN	__imp_??1MtlBase@@UEAA@XZ:PROC
EXTRN	__imp_??4MtlBase@@QEAAAEAV0@AEBV0@@Z:PROC
EXTRN	__imp_?GetICustButton@@YAPEAVICustButton@@PEAUHWND__@@@Z:PROC
EXTRN	__imp_?ReleaseICustButton@@YAXPEAVICustButton@@@Z:PROC
EXTRN	__imp_??0Texmap@@QEAA@XZ:PROC
EXTRN	__imp_??0ClassDesc2@@QEAA@XZ:PROC
EXTRN	__imp_??1ClassDesc2@@UEAA@XZ:PROC
EXTRN	__imp_?MakeAutoParamBlocks@ClassDesc2@@UEAAXPEAVReferenceMaker@@@Z:PROC
EXTRN	__imp_?SetUserDlgProc@ClassDesc2@@QEAA_NPEAVParamBlockDesc2@@FPEAVParamMap2UserDlgProc@@@Z:PROC
EXTRN	__imp_?CreateParamDlgs@ClassDesc2@@QEAAPEAVIAutoMParamDlg@@PEAUHWND__@@PEAVIMtlParams@@PEAVReferenceTarget@@@Z:PROC
EXTRN	__imp_??0ParamBlockDesc2@@QEAA@FPEB_W_JPEAVClassDesc2@@GZZ:PROC
EXTRN	__imp_??1ParamBlockDesc2@@UEAA@XZ:PROC
EXTRN	__imp_?InvalidateUI@ParamBlockDesc2@@QEAAXFH@Z:PROC
EXTRN	__imp_?SetUserDlgProc@ParamBlockDesc2@@QEAAXFPEAVParamMap2UserDlgProc@@@Z:PROC
EXTRN	??_EParamMap2UserDlgProc@@UEAAPEAXI@Z:PROC	; ParamMap2UserDlgProc::`vector deleting destructor'
EXTRN	?GetString@@YAPEA_WH@Z:PROC			; GetString
EXTRN	??_EBerconSC@@UEAAPEAXI@Z:PROC			; BerconSC::`vector deleting destructor'
EXTRN	??_EBerconXYZDlgProc@@UEAAPEAXI@Z:PROC		; BerconXYZDlgProc::`vector deleting destructor'
EXTRN	?update@BerconXYZ@@QEAAXPEAVIParamBlock2@@HAEAVInterval@@@Z:PROC ; BerconXYZ::update
EXTRN	?update@BerconXYZ@@QEAAXXZ:PROC			; BerconXYZ::update
EXTRN	?reset@BerconXYZ@@QEAAXPEAVIParamBlock2@@AEAVInterval@@HHHH@Z:PROC ; BerconXYZ::reset
EXTRN	?get@BerconXYZ@@QEAAHAEAVShadeContext@@AEAVPoint3@@@Z:PROC ; BerconXYZ::get
EXTRN	??_EBerconDistortion@@UEAAPEAXI@Z:PROC		; BerconDistortion::`vector deleting destructor'
EXTRN	?AutoDelete@ReferenceTarget@@UEAA?AW4RefResult@@XZ:PROC ; ReferenceTarget::AutoDelete
EXTRN	?BaseClone@MtlBase@@UEAAXPEAVReferenceTarget@@0AEAVRemapDir@@@Z:PROC ; MtlBase::BaseClone
EXTRN	?CreatePStamp@MtlBase@@UEAAPEAVPStamp@@HH@Z:PROC ; MtlBase::CreatePStamp
EXTRN	?DeleteAllRefsToMe@ReferenceTarget@@UEAA?AW4RefResult@@XZ:PROC ; ReferenceTarget::DeleteAllRefsToMe
EXTRN	?DiffuseIllum@ShadeContext@@UEAA?AVColor@@XZ:PROC ; ShadeContext::DiffuseIllum
EXTRN	?DiscardPStamp@MtlBase@@UEAAXH@Z:PROC		; MtlBase::DiscardPStamp
EXTRN	?DoEnumDependentsImpl@ReferenceTarget@@MEAAHPEAVDependentEnumProc@@@Z:PROC ; ReferenceTarget::DoEnumDependentsImpl
EXTRN	?EnumAuxFiles@MtlBase@@UEAAXAEAVAssetEnumCallback@@K@Z:PROC ; MtlBase::EnumAuxFiles
EXTRN	?EvalEnvironMap@ShadeContext@@UEAA?AVAColor@@PEAVTexmap@@VPoint3@@@Z:PROC ; ShadeContext::EvalEnvironMap
EXTRN	?GetFullName@MtlBase@@UEAA?AVWStr@@XZ:PROC	; MtlBase::GetFullName
EXTRN	?GetInterface@InterfaceServer@@UEAAPEAVBaseInterface@@VInterface_ID@@@Z:PROC ; InterfaceServer::GetInterface
EXTRN	?GetInterface@MtlBase@@UEAAPEAXK@Z:PROC		; MtlBase::GetInterface
EXTRN	?GetPStamp@MtlBase@@UEAAPEAVPStamp@@H@Z:PROC	; MtlBase::GetPStamp
EXTRN	?GetProperty@MtlBase@@UEAAPEAXK@Z:PROC		; MtlBase::GetProperty
EXTRN	?GetTimeRange@Animatable@@UEAA?AVInterval@@K@Z:PROC ; Animatable::GetTimeRange
EXTRN	?GetVPDisplayDIB@Texmap@@UEAAPEAUtagBITMAPINFO@@HAEAVTexHandleMaker@@AEAVInterval@@HHH@Z:PROC ; Texmap::GetVPDisplayDIB
EXTRN	?IsAnimated@Animatable@@UEAAHXZ:PROC		; Animatable::IsAnimated
EXTRN	?IsOutputMeaningful@Texmap@@UEAA_NAEAVShadeContext@@@Z:PROC ; Texmap::IsOutputMeaningful
EXTRN	?Load@MtlBase@@UEAA?AW4IOResult@@PEAVILoad@@@Z:PROC ; MtlBase::Load
EXTRN	?MapKeys@Animatable@@UEAAXPEAVTimeMap@@K@Z:PROC	; Animatable::MapKeys
EXTRN	?MouseCycleCompleted@Animatable@@UEAAXH@Z:PROC	; Animatable::MouseCycleCompleted
EXTRN	?MouseCycleStarted@Animatable@@UEAAXH@Z:PROC	; Animatable::MouseCycleStarted
EXTRN	?NodeName@Animatable@@UEAA?AVWStr@@XZ:PROC	; Animatable::NodeName
EXTRN	?NotifyDependents@ReferenceTarget@@UEAA?AW4RefResult@@AEBVInterval@@_KIKHPEAV1@W4NotifyDependentsOption@@@Z:PROC ; ReferenceTarget::NotifyDependents
EXTRN	?RefAdded@Texmap@@UEAAXPEAVReferenceMaker@@@Z:PROC ; Texmap::RefAdded
EXTRN	?ReleaseInterface@Animatable@@UEAAXKPEAX@Z:PROC	; Animatable::ReleaseInterface
EXTRN	?RenderBitmap@Texmap@@UEAAXHPEAVBitmap@@MH@Z:PROC ; Texmap::RenderBitmap
EXTRN	?Requirements@MtlBase@@UEAAKH@Z:PROC		; MtlBase::Requirements
EXTRN	?RescaleWorldUnits@ReferenceMaker@@UEAAXM@Z:PROC ; ReferenceMaker::RescaleWorldUnits
EXTRN	?Save@MtlBase@@UEAA?AW4IOResult@@PEAVISave@@@Z:PROC ; MtlBase::Save
EXTRN	?SaveEnum@ReferenceMaker@@UEAAXAEAVSaveEnumProc@@H@Z:PROC ; ReferenceMaker::SaveEnum
EXTRN	?SetProperty@MtlBase@@UEAAHKPEAX@Z:PROC		; MtlBase::SetProperty
EXTRN	?SpecifySaveReferences@ReferenceMaker@@UEAA_NAEAVReferenceSaveManager@@@Z:PROC ; ReferenceMaker::SpecifySaveReferences
EXTRN	?SubAnimCommitSetKeyBuffer@Animatable@@UEAAXHH@Z:PROC ; Animatable::SubAnimCommitSetKeyBuffer
EXTRN	?SubAnimRevertSetKeyBuffer@Animatable@@UEAAXH@Z:PROC ; Animatable::SubAnimRevertSetKeyBuffer
EXTRN	?SubAnimSetKeyBufferPresent@Animatable@@UEAAHH@Z:PROC ; Animatable::SubAnimSetKeyBufferPresent
EXTRN	?SvCanConcludeLink@Animatable@@UEAA_NPEAVIGraphObjectManager@@PEAVIGraphNode@@1@Z:PROC ; Animatable::SvCanConcludeLink
EXTRN	?SvCanDetach@Animatable@@UEAA_NPEAVIGraphObjectManager@@PEAVIGraphNode@@@Z:PROC ; Animatable::SvCanDetach
EXTRN	?SvCanDetachRel@Animatable@@UEAA_NPEAVIGraphObjectManager@@PEAVIGraphNode@@H1@Z:PROC ; Animatable::SvCanDetachRel
EXTRN	?SvCanInitiateLink@Animatable@@UEAA_NPEAVIGraphObjectManager@@PEAVIGraphNode@@@Z:PROC ; Animatable::SvCanInitiateLink
EXTRN	?SvCanRemoveThis@Animatable@@UEAA_NPEAVIGraphObjectManager@@PEAVIGraphNode@@@Z:PROC ; Animatable::SvCanRemoveThis
EXTRN	?SvCanSelect@MtlBase@@UEAA_NPEAVIGraphObjectManager@@PEAVIGraphNode@@@Z:PROC ; MtlBase::SvCanSelect
EXTRN	?SvCanSetName@MtlBase@@UEAA_NPEAVIGraphObjectManager@@PEAVIGraphNode@@@Z:PROC ; MtlBase::SvCanSetName
EXTRN	?SvDetach@Animatable@@UEAA_NPEAVIGraphObjectManager@@PEAVIGraphNode@@@Z:PROC ; Animatable::SvDetach
EXTRN	?SvDetachRel@Animatable@@UEAA_NPEAVIGraphObjectManager@@PEAVIGraphNode@@H1@Z:PROC ; Animatable::SvDetachRel
EXTRN	?SvEditProperties@Animatable@@UEAA_NPEAVIGraphObjectManager@@PEAVIGraphNode@@@Z:PROC ; Animatable::SvEditProperties
EXTRN	?SvGetMultiSelectCallback@MtlBase@@UEAAPEAVMultiSelectCallback@@PEAVIGraphObjectManager@@PEAVIGraphNode@@@Z:PROC ; MtlBase::SvGetMultiSelectCallback
EXTRN	?SvGetName@MtlBase@@UEAA?AVWStr@@PEAVIGraphObjectManager@@PEAVIGraphNode@@_N@Z:PROC ; MtlBase::SvGetName
EXTRN	?SvGetRefTip@Animatable@@UEAA?AVWStr@@PEAVIGraphObjectManager@@PEAVIGraphNode@@1@Z:PROC ; Animatable::SvGetRefTip
EXTRN	?SvGetRelTip@Animatable@@UEAA?AVWStr@@PEAVIGraphObjectManager@@PEAVIGraphNode@@H1@Z:PROC ; Animatable::SvGetRelTip
EXTRN	?SvGetSwatchColor@Animatable@@UEAAKPEAVIGraphObjectManager@@PEAVIGraphNode@@@Z:PROC ; Animatable::SvGetSwatchColor
EXTRN	?SvGetTip@Animatable@@UEAA?AVWStr@@PEAVIGraphObjectManager@@PEAVIGraphNode@@@Z:PROC ; Animatable::SvGetTip
EXTRN	?SvHandleDoubleClick@MtlBase@@UEAA_NPEAVIGraphObjectManager@@PEAVIGraphNode@@@Z:PROC ; MtlBase::SvHandleDoubleClick
EXTRN	?SvHandleRelDoubleClick@Animatable@@UEAA_NPEAVIGraphObjectManager@@PEAVIGraphNode@@H1@Z:PROC ; Animatable::SvHandleRelDoubleClick
EXTRN	?SvHighlightColor@MtlBase@@UEAAKPEAVIGraphObjectManager@@PEAVIGraphNode@@@Z:PROC ; MtlBase::SvHighlightColor
EXTRN	?SvIsHighlighted@Animatable@@UEAA_NPEAVIGraphObjectManager@@PEAVIGraphNode@@@Z:PROC ; Animatable::SvIsHighlighted
EXTRN	?SvIsInactive@Animatable@@UEAA_NPEAVIGraphObjectManager@@PEAVIGraphNode@@@Z:PROC ; Animatable::SvIsInactive
EXTRN	?SvIsSelected@MtlBase@@UEAA_NPEAVIGraphObjectManager@@PEAVIGraphNode@@@Z:PROC ; MtlBase::SvIsSelected
EXTRN	?SvLinkChild@Animatable@@UEAA_NPEAVIGraphObjectManager@@PEAVIGraphNode@@1@Z:PROC ; Animatable::SvLinkChild
EXTRN	?SvRemoveThis@Animatable@@UEAA_NPEAVIGraphObjectManager@@PEAVIGraphNode@@@Z:PROC ; Animatable::SvRemoveThis
EXTRN	?SvSetName@MtlBase@@UEAA_NPEAVIGraphObjectManager@@PEAVIGraphNode@@AEBVWStr@@@Z:PROC ; MtlBase::SvSetName
EXTRN	?SvTraverseAnimGraph@Texmap@@UEAA?AVSvGraphNodeReference@@PEAVIGraphObjectManager@@PEAVAnimatable@@HK@Z:PROC ; Texmap::SvTraverseAnimGraph
EXTRN	?VectorFromNoScale@ShadeContext@@UEAA?AVPoint3@@AEBV2@W4RefFrame@@@Z:PROC ; ShadeContext::VectorFromNoScale
EXTRN	?VectorToNoScale@ShadeContext@@UEAA?AVPoint3@@AEBV2@W4RefFrame@@@Z:PROC ; ShadeContext::VectorToNoScale
EXTRN	_CxxThrowException:PROC
EXTRN	__CxxFrameHandler3:PROC
EXTRN	__imp_?defaultDim@@3PEAVParamDimension@@EA:QWORD
EXTRN	_fltused:DWORD
_BSS	SEGMENT
?kInvalidId@AssetManagement@MaxSDK@@3UAssetId@12@A DB 010H DUP (?) ; MaxSDK::AssetManagement::kInvalidId
?BerconDistortionDesc@@3VBerconDistortionClassDesc@@A DB 038H DUP (?) ; BerconDistortionDesc
?xyz_blk@@3VXYZ_Desc@@A DB 080H DUP (?)			; xyz_blk
?BerconDistortion_param_blk@@3VParamBlockDesc2@@A DB 080H DUP (?) ; BerconDistortion_param_blk
_BSS	ENDS
;	COMDAT pdata
pdata	SEGMENT
$pdata$??_H@YAXPEAX_K1P6APEAX0@Z@Z DD imagerel $LN12
	DD	imagerel $LN12+72
	DD	imagerel $unwind$??_H@YAXPEAX_K1P6APEAX0@Z@Z
pdata	ENDS
;	COMDAT pdata
pdata	SEGMENT
$pdata$??0TabOutOfRangeException@Util@MaxSDK@@QEAA@PEB_W@Z DD imagerel $LN6
	DD	imagerel $LN6+48
	DD	imagerel $unwind$??0TabOutOfRangeException@Util@MaxSDK@@QEAA@PEB_W@Z
pdata	ENDS
;	COMDAT pdata
pdata	SEGMENT
$pdata$??1TabOutOfRangeException@Util@MaxSDK@@UEAA@XZ DD imagerel $LN6
	DD	imagerel $LN6+29
	DD	imagerel $unwind$??1TabOutOfRangeException@Util@MaxSDK@@UEAA@XZ
pdata	ENDS
;	COMDAT pdata
pdata	SEGMENT
$pdata$??0TabOutOfRangeException@Util@MaxSDK@@QEAA@AEBV012@@Z DD imagerel $LN6
	DD	imagerel $LN6+48
	DD	imagerel $unwind$??0TabOutOfRangeException@Util@MaxSDK@@QEAA@AEBV012@@Z
pdata	ENDS
;	COMDAT pdata
pdata	SEGMENT
$pdata$??_GTabOutOfRangeException@Util@MaxSDK@@UEAAPEAXI@Z DD imagerel $LN13
	DD	imagerel $LN13+97
	DD	imagerel $unwind$??_GTabOutOfRangeException@Util@MaxSDK@@UEAAPEAXI@Z
pdata	ENDS
;	COMDAT pdata
pdata	SEGMENT
$pdata$??_GInterfaceServer@@UEAAPEAXI@Z DD imagerel $LN9
	DD	imagerel $LN9+80
	DD	imagerel $unwind$??_GInterfaceServer@@UEAAPEAXI@Z
pdata	ENDS
;	COMDAT pdata
pdata	SEGMENT
$pdata$??1?$Tab@PEAVBaseInterface@@@@QEAA@XZ DD imagerel $LN5
	DD	imagerel $LN5+25
	DD	imagerel $unwind$??1?$Tab@PEAVBaseInterface@@@@QEAA@XZ
pdata	ENDS
;	COMDAT pdata
pdata	SEGMENT
$pdata$??0BaseInterfaceServer@@QEAA@XZ DD imagerel $LN11
	DD	imagerel $LN11+53
	DD	imagerel $unwind$??0BaseInterfaceServer@@QEAA@XZ
pdata	ENDS
;	COMDAT pdata
pdata	SEGMENT
$pdata$??_GBaseInterfaceServer@@UEAAPEAXI@Z DD imagerel $LN9
	DD	imagerel $LN9+80
	DD	imagerel $unwind$??_GBaseInterfaceServer@@UEAAPEAXI@Z
pdata	ENDS
;	COMDAT pdata
pdata	SEGMENT
$pdata$??_4Interval@@QEAAAEAV0@V0@@Z DD imagerel $LN4
	DD	imagerel $LN4+38
	DD	imagerel $unwind$??_4Interval@@QEAAAEAV0@V0@@Z
pdata	ENDS
;	COMDAT pdata
pdata	SEGMENT
$pdata$?IsSubClassOf@Animatable@@UEAAHVClass_ID@@@Z DD imagerel $LN8
	DD	imagerel $LN8+53
	DD	imagerel $unwind$?IsSubClassOf@Animatable@@UEAAHVClass_ID@@@Z
pdata	ENDS
;	COMDAT pdata
pdata	SEGMENT
$pdata$?NotifyDependents@ReferenceMaker@@EEAA?AW4RefResult@@AEBVInterval@@_KIKHPEAVReferenceTarget@@@Z DD imagerel $LN5
	DD	imagerel $LN5+43
	DD	imagerel $unwind$?NotifyDependents@ReferenceMaker@@EEAA?AW4RefResult@@AEBVInterval@@_KIKHPEAVReferenceTarget@@@Z
pdata	ENDS
;	COMDAT pdata
pdata	SEGMENT
$pdata$?NotifyForeground@ReferenceTarget@@UEAAXH@Z DD imagerel $LN4
	DD	imagerel $LN4+88
	DD	imagerel $unwind$?NotifyForeground@ReferenceTarget@@UEAAXH@Z
pdata	ENDS
;	COMDAT pdata
pdata	SEGMENT
$pdata$??A?$Tab@PEAVFPInterface@@@@QEBAAEAPEAVFPInterface@@_J@Z DD imagerel $LN11
	DD	imagerel $LN11+214
	DD	imagerel $unwind$??A?$Tab@PEAVFPInterface@@@@QEBAAEAPEAVFPInterface@@_J@Z
pdata	ENDS
;	COMDAT pdata
pdata	SEGMENT
$pdata$?GetInterfaceAt@ClassDesc@@UEAAPEAVFPInterface@@H@Z DD imagerel $LN14
	DD	imagerel $LN14+214
	DD	imagerel $unwind$?GetInterfaceAt@ClassDesc@@UEAAPEAVFPInterface@@H@Z
pdata	ENDS
;	COMDAT pdata
pdata	SEGMENT
$pdata$??D@YA?AVPoint3@@AEBV0@M@Z DD imagerel $LN4
	DD	imagerel $LN4+42
	DD	imagerel $unwind$??D@YA?AVPoint3@@AEBV0@M@Z
pdata	ENDS
;	COMDAT pdata
pdata	SEGMENT
$pdata$?Set@BitArray@@QEAAXH@Z DD imagerel $LN21
	DD	imagerel $LN21+153
	DD	imagerel $unwind$?Set@BitArray@@QEAAXH@Z
pdata	ENDS
;	COMDAT pdata
pdata	SEGMENT
$pdata$??0RenderGlobalContext@@QEAA@XZ DD imagerel $LN20
	DD	imagerel $LN20+81
	DD	imagerel $unwind$??0RenderGlobalContext@@QEAA@XZ
pdata	ENDS
;	COMDAT pdata
pdata	SEGMENT
$pdata$??1RenderGlobalContext@@UEAA@XZ DD imagerel $LN6
	DD	imagerel $LN6+29
	DD	imagerel $unwind$??1RenderGlobalContext@@UEAA@XZ
pdata	ENDS
;	COMDAT pdata
pdata	SEGMENT
$pdata$??_GRenderGlobalContext@@UEAAPEAXI@Z DD imagerel $LN13
	DD	imagerel $LN13+97
	DD	imagerel $unwind$??_GRenderGlobalContext@@UEAAPEAXI@Z
pdata	ENDS
;	COMDAT pdata
pdata	SEGMENT
$pdata$??0ShadeOutput@@QEAA@XZ DD imagerel $LN29
	DD	imagerel $LN29+68
	DD	imagerel $unwind$??0ShadeOutput@@QEAA@XZ
pdata	ENDS
;	COMDAT pdata
pdata	SEGMENT
$pdata$??1ShadeOutput@@UEAA@XZ DD imagerel $LN6
	DD	imagerel $LN6+29
	DD	imagerel $unwind$??1ShadeOutput@@UEAA@XZ
pdata	ENDS
;	COMDAT pdata
pdata	SEGMENT
$pdata$??_GShadeOutput@@UEAAPEAXI@Z DD imagerel $LN13
	DD	imagerel $LN13+97
	DD	imagerel $unwind$??_GShadeOutput@@UEAAPEAXI@Z
pdata	ENDS
;	COMDAT pdata
pdata	SEGMENT
$pdata$?BarycentricCoords@ShadeContext@@UEAA?AVPoint3@@XZ DD imagerel $LN4
	DD	imagerel $LN4+35
	DD	imagerel $unwind$?BarycentricCoords@ShadeContext@@UEAA?AVPoint3@@XZ
pdata	ENDS
;	COMDAT pdata
pdata	SEGMENT
$pdata$?OrigNormal@ShadeContext@@UEAA?AVPoint3@@XZ DD imagerel $LN4
	DD	imagerel $LN4+24
	DD	imagerel $unwind$?OrigNormal@ShadeContext@@UEAA?AVPoint3@@XZ
pdata	ENDS
;	COMDAT pdata
pdata	SEGMENT
$pdata$?OrigView@ShadeContext@@UEAA?AVPoint3@@XZ DD imagerel $LN4
	DD	imagerel $LN4+27
	DD	imagerel $unwind$?OrigView@ShadeContext@@UEAA?AVPoint3@@XZ
pdata	ENDS
;	COMDAT pdata
pdata	SEGMENT
$pdata$?SurfacePtScreen@ShadeContext@@UEAA?AVPoint2@@XZ DD imagerel $LN4
	DD	imagerel $LN4+35
	DD	imagerel $unwind$?SurfacePtScreen@ShadeContext@@UEAA?AVPoint2@@XZ
pdata	ENDS
;	COMDAT pdata
pdata	SEGMENT
$pdata$?UVWNormal@ShadeContext@@UEAA?AVPoint3@@H@Z DD imagerel $LN4
	DD	imagerel $LN4+38
	DD	imagerel $unwind$?UVWNormal@ShadeContext@@UEAA?AVPoint3@@H@Z
pdata	ENDS
;	COMDAT pdata
pdata	SEGMENT
$pdata$?RayDiam@ShadeContext@@UEAAMXZ DD imagerel $LN4
	DD	imagerel $LN4+32
	DD	imagerel $unwind$?RayDiam@ShadeContext@@UEAAMXZ
pdata	ENDS
;	COMDAT pdata
pdata	SEGMENT
$pdata$??0ShadeContext@@QEAA@XZ DD imagerel $LN37
	DD	imagerel $LN37+115
	DD	imagerel $unwind$??0ShadeContext@@QEAA@XZ
pdata	ENDS
;	COMDAT pdata
pdata	SEGMENT
$pdata$??1ShadeContext@@UEAA@XZ DD imagerel $LN10
	DD	imagerel $LN10+53
	DD	imagerel $unwind$??1ShadeContext@@UEAA@XZ
pdata	ENDS
;	COMDAT pdata
pdata	SEGMENT
$pdata$??_GShadeContext@@UEAAPEAXI@Z DD imagerel $LN17
	DD	imagerel $LN17+116
	DD	imagerel $unwind$??_GShadeContext@@UEAAPEAXI@Z
pdata	ENDS
;	COMDAT pdata
pdata	SEGMENT
$pdata$?GetInterface@MtlBase@@UEAAPEAVBaseInterface@@VInterface_ID@@@Z DD imagerel $LN6
	DD	imagerel $LN6+33
	DD	imagerel $unwind$?GetInterface@MtlBase@@UEAAPEAVBaseInterface@@VInterface_ID@@@Z
pdata	ENDS
;	COMDAT pdata
pdata	SEGMENT
$pdata$??1Texmap@@UEAA@XZ DD imagerel $LN6
	DD	imagerel $LN6+29
	DD	imagerel $unwind$??1Texmap@@UEAA@XZ
pdata	ENDS
;	COMDAT pdata
pdata	SEGMENT
$pdata$??1?$Tab@PEAVVertexNormalsCallback@@@@QEAA@XZ DD imagerel $LN5
	DD	imagerel $LN5+25
	DD	imagerel $unwind$??1?$Tab@PEAVVertexNormalsCallback@@@@QEAA@XZ
pdata	ENDS
;	COMDAT pdata
pdata	SEGMENT
$pdata$??0VertexNormalsControl@@QEAA@XZ DD imagerel $LN8
	DD	imagerel $LN8+36
	DD	imagerel $unwind$??0VertexNormalsControl@@QEAA@XZ
pdata	ENDS
;	COMDAT pdata
pdata	SEGMENT
$pdata$??_GParamMap2UserDlgProc@@UEAAPEAXI@Z DD imagerel $LN11
	DD	imagerel $LN11+63
	DD	imagerel $unwind$??_GParamMap2UserDlgProc@@UEAAPEAXI@Z
pdata	ENDS
;	COMDAT pdata
pdata	SEGMENT
$pdata$??0BerconSC@@QEAA@QEAVShadeContext@@@Z DD imagerel $LN67
	DD	imagerel $LN67+466
	DD	imagerel $unwind$??0BerconSC@@QEAA@QEAVShadeContext@@@Z
pdata	ENDS
;	COMDAT pdata
pdata	SEGMENT
$pdata$?BarycentricCoords@BerconSC@@UEAA?AVPoint3@@XZ DD imagerel $LN4
	DD	imagerel $LN4+31
	DD	imagerel $unwind$?BarycentricCoords@BerconSC@@UEAA?AVPoint3@@XZ
pdata	ENDS
;	COMDAT pdata
pdata	SEGMENT
$pdata$?Normal@BerconSC@@UEAA?AVPoint3@@XZ DD imagerel $LN4
	DD	imagerel $LN4+31
	DD	imagerel $unwind$?Normal@BerconSC@@UEAA?AVPoint3@@XZ
pdata	ENDS
;	COMDAT pdata
pdata	SEGMENT
$pdata$?SetNormal@BerconSC@@UEAAXVPoint3@@@Z DD imagerel $LN4
	DD	imagerel $LN4+58
	DD	imagerel $unwind$?SetNormal@BerconSC@@UEAAXVPoint3@@@Z
pdata	ENDS
;	COMDAT pdata
pdata	SEGMENT
$pdata$?OrigNormal@BerconSC@@UEAA?AVPoint3@@XZ DD imagerel $LN4
	DD	imagerel $LN4+31
	DD	imagerel $unwind$?OrigNormal@BerconSC@@UEAA?AVPoint3@@XZ
pdata	ENDS
;	COMDAT pdata
pdata	SEGMENT
$pdata$?GNormal@BerconSC@@UEAA?AVPoint3@@XZ DD imagerel $LN4
	DD	imagerel $LN4+34
	DD	imagerel $unwind$?GNormal@BerconSC@@UEAA?AVPoint3@@XZ
pdata	ENDS
;	COMDAT pdata
pdata	SEGMENT
$pdata$?V@BerconSC@@UEAA?AVPoint3@@XZ DD imagerel $LN4
	DD	imagerel $LN4+34
	DD	imagerel $unwind$?V@BerconSC@@UEAA?AVPoint3@@XZ
pdata	ENDS
;	COMDAT pdata
pdata	SEGMENT
$pdata$?SetView@BerconSC@@UEAAXVPoint3@@@Z DD imagerel $LN4
	DD	imagerel $LN4+61
	DD	imagerel $unwind$?SetView@BerconSC@@UEAAXVPoint3@@@Z
pdata	ENDS
;	COMDAT pdata
pdata	SEGMENT
$pdata$?OrigView@BerconSC@@UEAA?AVPoint3@@XZ DD imagerel $LN4
	DD	imagerel $LN4+34
	DD	imagerel $unwind$?OrigView@BerconSC@@UEAA?AVPoint3@@XZ
pdata	ENDS
;	COMDAT pdata
pdata	SEGMENT
$pdata$?ReflectVector@BerconSC@@UEAA?AVPoint3@@XZ DD imagerel $LN4
	DD	imagerel $LN4+34
	DD	imagerel $unwind$?ReflectVector@BerconSC@@UEAA?AVPoint3@@XZ
pdata	ENDS
;	COMDAT pdata
pdata	SEGMENT
$pdata$?RefractVector@BerconSC@@UEAA?AVPoint3@@M@Z DD imagerel $LN4
	DD	imagerel $LN4+34
	DD	imagerel $unwind$?RefractVector@BerconSC@@UEAA?AVPoint3@@M@Z
pdata	ENDS
;	COMDAT pdata
pdata	SEGMENT
$pdata$?CamPos@BerconSC@@UEAA?AVPoint3@@XZ DD imagerel $LN4
	DD	imagerel $LN4+34
	DD	imagerel $unwind$?CamPos@BerconSC@@UEAA?AVPoint3@@XZ
pdata	ENDS
;	COMDAT pdata
pdata	SEGMENT
$pdata$?P@BerconSC@@UEAA?AVPoint3@@XZ DD imagerel $LN6
	DD	imagerel $LN6+80
	DD	imagerel $unwind$?P@BerconSC@@UEAA?AVPoint3@@XZ
pdata	ENDS
;	COMDAT pdata
pdata	SEGMENT
$pdata$?DP@BerconSC@@UEAA?AVPoint3@@XZ DD imagerel $LN4
	DD	imagerel $LN4+34
	DD	imagerel $unwind$?DP@BerconSC@@UEAA?AVPoint3@@XZ
pdata	ENDS
;	COMDAT pdata
pdata	SEGMENT
$pdata$?PObj@BerconSC@@UEAA?AVPoint3@@XZ DD imagerel $LN6
	DD	imagerel $LN6+80
	DD	imagerel $unwind$?PObj@BerconSC@@UEAA?AVPoint3@@XZ
pdata	ENDS
;	COMDAT pdata
pdata	SEGMENT
$pdata$?DPObj@BerconSC@@UEAA?AVPoint3@@XZ DD imagerel $LN4
	DD	imagerel $LN4+34
	DD	imagerel $unwind$?DPObj@BerconSC@@UEAA?AVPoint3@@XZ
pdata	ENDS
;	COMDAT pdata
pdata	SEGMENT
$pdata$?ObjectBox@BerconSC@@UEAA?AVBox3@@XZ DD imagerel $LN4
	DD	imagerel $LN4+34
	DD	imagerel $unwind$?ObjectBox@BerconSC@@UEAA?AVBox3@@XZ
pdata	ENDS
;	COMDAT pdata
pdata	SEGMENT
$pdata$?PObjRelBox@BerconSC@@UEAA?AVPoint3@@XZ DD imagerel $LN4
	DD	imagerel $LN4+34
	DD	imagerel $unwind$?PObjRelBox@BerconSC@@UEAA?AVPoint3@@XZ
pdata	ENDS
;	COMDAT pdata
pdata	SEGMENT
$pdata$?DPObjRelBox@BerconSC@@UEAA?AVPoint3@@XZ DD imagerel $LN4
	DD	imagerel $LN4+34
	DD	imagerel $unwind$?DPObjRelBox@BerconSC@@UEAA?AVPoint3@@XZ
pdata	ENDS
;	COMDAT pdata
pdata	SEGMENT
$pdata$?ScreenUV@BerconSC@@UEAAXAEAVPoint2@@0@Z DD imagerel $LN5
	DD	imagerel $LN5+69
	DD	imagerel $unwind$?ScreenUV@BerconSC@@UEAAXAEAVPoint2@@0@Z
pdata	ENDS
;	COMDAT pdata
pdata	SEGMENT
$pdata$?ScreenCoord@BerconSC@@UEAA?AVIPoint2@@XZ DD imagerel $LN4
	DD	imagerel $LN4+34
	DD	imagerel $unwind$?ScreenCoord@BerconSC@@UEAA?AVIPoint2@@XZ
pdata	ENDS
;	COMDAT pdata
pdata	SEGMENT
$pdata$?SurfacePtScreen@BerconSC@@UEAA?AVPoint2@@XZ DD imagerel $LN4
	DD	imagerel $LN4+34
	DD	imagerel $unwind$?SurfacePtScreen@BerconSC@@UEAA?AVPoint2@@XZ
pdata	ENDS
;	COMDAT pdata
pdata	SEGMENT
$pdata$?UVW@BerconSC@@UEAA?AVPoint3@@H@Z DD imagerel $LN14
	DD	imagerel $LN14+181
	DD	imagerel $unwind$?UVW@BerconSC@@UEAA?AVPoint3@@H@Z
pdata	ENDS
;	COMDAT pdata
pdata	SEGMENT
$pdata$?DUVW@BerconSC@@UEAA?AVPoint3@@H@Z DD imagerel $LN4
	DD	imagerel $LN4+34
	DD	imagerel $unwind$?DUVW@BerconSC@@UEAA?AVPoint3@@H@Z
pdata	ENDS
;	COMDAT pdata
pdata	SEGMENT
$pdata$?UVWNormal@BerconSC@@UEAA?AVPoint3@@H@Z DD imagerel $LN4
	DD	imagerel $LN4+34
	DD	imagerel $unwind$?UVWNormal@BerconSC@@UEAA?AVPoint3@@H@Z
pdata	ENDS
;	COMDAT pdata
pdata	SEGMENT
$pdata$?EvalEnvironMap@BerconSC@@UEAA?AVAColor@@PEAVTexmap@@VPoint3@@@Z DD imagerel $LN4
	DD	imagerel $LN4+99
	DD	imagerel $unwind$?EvalEnvironMap@BerconSC@@UEAA?AVAColor@@PEAVTexmap@@VPoint3@@@Z
pdata	ENDS
;	COMDAT pdata
pdata	SEGMENT
$pdata$?PointTo@BerconSC@@UEAA?AVPoint3@@AEBV2@W4RefFrame@@@Z DD imagerel $LN4
	DD	imagerel $LN4+34
	DD	imagerel $unwind$?PointTo@BerconSC@@UEAA?AVPoint3@@AEBV2@W4RefFrame@@@Z
pdata	ENDS
;	COMDAT pdata
pdata	SEGMENT
$pdata$?PointFrom@BerconSC@@UEAA?AVPoint3@@AEBV2@W4RefFrame@@@Z DD imagerel $LN4
	DD	imagerel $LN4+34
	DD	imagerel $unwind$?PointFrom@BerconSC@@UEAA?AVPoint3@@AEBV2@W4RefFrame@@@Z
pdata	ENDS
;	COMDAT pdata
pdata	SEGMENT
$pdata$?VectorTo@BerconSC@@UEAA?AVPoint3@@AEBV2@W4RefFrame@@@Z DD imagerel $LN4
	DD	imagerel $LN4+34
	DD	imagerel $unwind$?VectorTo@BerconSC@@UEAA?AVPoint3@@AEBV2@W4RefFrame@@@Z
pdata	ENDS
;	COMDAT pdata
pdata	SEGMENT
$pdata$?VectorFrom@BerconSC@@UEAA?AVPoint3@@AEBV2@W4RefFrame@@@Z DD imagerel $LN4
	DD	imagerel $LN4+34
	DD	imagerel $unwind$?VectorFrom@BerconSC@@UEAA?AVPoint3@@AEBV2@W4RefFrame@@@Z
pdata	ENDS
;	COMDAT pdata
pdata	SEGMENT
$pdata$?VectorToNoScale@BerconSC@@UEAA?AVPoint3@@AEBV2@W4RefFrame@@@Z DD imagerel $LN4
	DD	imagerel $LN4+34
	DD	imagerel $unwind$?VectorToNoScale@BerconSC@@UEAA?AVPoint3@@AEBV2@W4RefFrame@@@Z
pdata	ENDS
;	COMDAT pdata
pdata	SEGMENT
$pdata$?VectorFromNoScale@BerconSC@@UEAA?AVPoint3@@AEBV2@W4RefFrame@@@Z DD imagerel $LN4
	DD	imagerel $LN4+34
	DD	imagerel $unwind$?VectorFromNoScale@BerconSC@@UEAA?AVPoint3@@AEBV2@W4RefFrame@@@Z
pdata	ENDS
;	COMDAT pdata
pdata	SEGMENT
$pdata$?EvalGlobalEnvironMap@BerconSC@@UEAA?AVAColor@@VPoint3@@@Z DD imagerel $LN4
	DD	imagerel $LN4+83
	DD	imagerel $unwind$?EvalGlobalEnvironMap@BerconSC@@UEAA?AVAColor@@VPoint3@@@Z
pdata	ENDS
;	COMDAT pdata
pdata	SEGMENT
$pdata$?DiffuseIllum@BerconSC@@UEAA?AVColor@@XZ DD imagerel $LN4
	DD	imagerel $LN4+34
	DD	imagerel $unwind$?DiffuseIllum@BerconSC@@UEAA?AVColor@@XZ
pdata	ENDS
;	COMDAT pdata
pdata	SEGMENT
$pdata$??1BerconSC@@UEAA@XZ DD imagerel $LN17
	DD	imagerel $LN17+72
	DD	imagerel $unwind$??1BerconSC@@UEAA@XZ
pdata	ENDS
;	COMDAT pdata
pdata	SEGMENT
$pdata$??_GBerconSC@@UEAAPEAXI@Z DD imagerel $LN24
	DD	imagerel $LN24+135
	DD	imagerel $unwind$??_GBerconSC@@UEAAPEAXI@Z
pdata	ENDS
;	COMDAT pdata
pdata	SEGMENT
$pdata$??0XYZ_Desc@@QEAA@PEAVClassDesc2@@HHHHHHH@Z DD imagerel $LN6
	DD	imagerel $LN6+4816
	DD	imagerel $unwind$??0XYZ_Desc@@QEAA@PEAVClassDesc2@@HHHHHHH@Z
pdata	ENDS
;	COMDAT pdata
pdata	SEGMENT
$pdata$??1XYZ_Desc@@UEAA@XZ DD imagerel $LN6
	DD	imagerel $LN6+29
	DD	imagerel $unwind$??1XYZ_Desc@@UEAA@XZ
pdata	ENDS
;	COMDAT pdata
pdata	SEGMENT
$pdata$??_GXYZ_Desc@@UEAAPEAXI@Z DD imagerel $LN13
	DD	imagerel $LN13+97
	DD	imagerel $unwind$??_GXYZ_Desc@@UEAAPEAXI@Z
pdata	ENDS
;	COMDAT pdata
pdata	SEGMENT
$pdata$??0BerconXYZDlgProc@@QEAA@PEAVReferenceTarget@@@Z DD imagerel $LN8
	DD	imagerel $LN8+49
	DD	imagerel $unwind$??0BerconXYZDlgProc@@QEAA@PEAVReferenceTarget@@@Z
pdata	ENDS
;	COMDAT pdata
pdata	SEGMENT
$pdata$?DlgProc@BerconXYZDlgProc@@UEAA_JHPEAVIParamMap2@@PEAUHWND__@@I_K_J@Z DD imagerel $LN9
	DD	imagerel $LN9+787
	DD	imagerel $unwind$?DlgProc@BerconXYZDlgProc@@UEAA_JHPEAVIParamMap2@@PEAUHWND__@@I_K_J@Z
pdata	ENDS
;	COMDAT pdata
pdata	SEGMENT
$pdata$1$?DlgProc@BerconXYZDlgProc@@UEAA_JHPEAVIParamMap2@@PEAUHWND__@@I_K_J@Z DD imagerel $LN9+787
	DD	imagerel $LN9+1284
	DD	imagerel $chain$1$?DlgProc@BerconXYZDlgProc@@UEAA_JHPEAVIParamMap2@@PEAUHWND__@@I_K_J@Z
pdata	ENDS
;	COMDAT pdata
pdata	SEGMENT
$pdata$??1BerconXYZDlgProc@@UEAA@XZ DD imagerel $LN8
	DD	imagerel $LN8+32
	DD	imagerel $unwind$??1BerconXYZDlgProc@@UEAA@XZ
pdata	ENDS
;	COMDAT pdata
pdata	SEGMENT
$pdata$??_GBerconXYZDlgProc@@UEAAPEAXI@Z DD imagerel $LN15
	DD	imagerel $LN15+78
	DD	imagerel $unwind$??_GBerconXYZDlgProc@@UEAAPEAXI@Z
pdata	ENDS
;	COMDAT pdata
pdata	SEGMENT
$pdata$??0BerconXYZ@@QEAA@XZ DD imagerel $LN17
	DD	imagerel $LN17+158
	DD	imagerel $unwind$??0BerconXYZ@@QEAA@XZ
pdata	ENDS
;	COMDAT pdata
pdata	SEGMENT
$pdata$?getDistVector@BerconDistortion@@QEAA?AVPoint3@@AEAVShadeContext@@@Z DD imagerel $LN13
	DD	imagerel $LN13+188
	DD	imagerel $unwind$?getDistVector@BerconDistortion@@QEAA?AVPoint3@@AEAVShadeContext@@@Z
pdata	ENDS
;	COMDAT pdata
pdata	SEGMENT
$pdata$?DiscardTexHandle@BerconDistortion@@QEAAXXZ DD imagerel $LN5
	DD	imagerel $LN5+44
	DD	imagerel $unwind$?DiscardTexHandle@BerconDistortion@@QEAAXXZ
pdata	ENDS
;	COMDAT pdata
pdata	SEGMENT
$pdata$?ActivateTexDisplay@BerconDistortion@@UEAAXH@Z DD imagerel $LN9
	DD	imagerel $LN9+47
	DD	imagerel $unwind$?ActivateTexDisplay@BerconDistortion@@UEAAXH@Z
pdata	ENDS
;	COMDAT pdata
pdata	SEGMENT
$pdata$?GetActiveTexHandle@BerconDistortion@@UEAA_KHAEAVTexHandleMaker@@@Z DD imagerel $LN10
	DD	imagerel $LN10+107
	DD	imagerel $unwind$?GetActiveTexHandle@BerconDistortion@@UEAA_KHAEAVTexHandleMaker@@@Z
pdata	ENDS
;	COMDAT pdata
pdata	SEGMENT
$pdata$0$?GetActiveTexHandle@BerconDistortion@@UEAA_KHAEAVTexHandleMaker@@@Z DD imagerel $LN10+107
	DD	imagerel $LN10+164
	DD	imagerel $chain$0$?GetActiveTexHandle@BerconDistortion@@UEAA_KHAEAVTexHandleMaker@@@Z
pdata	ENDS
;	COMDAT pdata
pdata	SEGMENT
$pdata$1$?GetActiveTexHandle@BerconDistortion@@UEAA_KHAEAVTexHandleMaker@@@Z DD imagerel $LN10+164
	DD	imagerel $LN10+186
	DD	imagerel $chain$1$?GetActiveTexHandle@BerconDistortion@@UEAA_KHAEAVTexHandleMaker@@@Z
pdata	ENDS
;	COMDAT pdata
pdata	SEGMENT
$pdata$?CreateParamDlg@BerconDistortion@@UEAAPEAVParamDlg@@PEAUHWND__@@PEAVIMtlParams@@@Z DD imagerel $LN15
	DD	imagerel $LN15+119
	DD	imagerel $unwind$?CreateParamDlg@BerconDistortion@@UEAAPEAVParamDlg@@PEAUHWND__@@PEAVIMtlParams@@@Z
pdata	ENDS
;	COMDAT pdata
pdata	SEGMENT
$pdata$?Update@BerconDistortion@@UEAAXHAEAVInterval@@@Z DD imagerel $LN18
	DD	imagerel $LN18+32
	DD	imagerel $unwind$?Update@BerconDistortion@@UEAAXHAEAVInterval@@@Z
pdata	ENDS
;	COMDAT pdata
pdata	SEGMENT
$pdata$0$?Update@BerconDistortion@@UEAAXHAEAVInterval@@@Z DD imagerel $LN18+32
	DD	imagerel $LN18+61
	DD	imagerel $chain$0$?Update@BerconDistortion@@UEAAXHAEAVInterval@@@Z
pdata	ENDS
;	COMDAT pdata
pdata	SEGMENT
$pdata$2$?Update@BerconDistortion@@UEAAXHAEAVInterval@@@Z DD imagerel $LN18+61
	DD	imagerel $LN18+241
	DD	imagerel $chain$2$?Update@BerconDistortion@@UEAAXHAEAVInterval@@@Z
pdata	ENDS
;	COMDAT pdata
pdata	SEGMENT
$pdata$3$?Update@BerconDistortion@@UEAAXHAEAVInterval@@@Z DD imagerel $LN18+241
	DD	imagerel $LN18+269
	DD	imagerel $chain$3$?Update@BerconDistortion@@UEAAXHAEAVInterval@@@Z
pdata	ENDS
;	COMDAT pdata
pdata	SEGMENT
$pdata$4$?Update@BerconDistortion@@UEAAXHAEAVInterval@@@Z DD imagerel $LN18+269
	DD	imagerel $LN18+279
	DD	imagerel $chain$4$?Update@BerconDistortion@@UEAAXHAEAVInterval@@@Z
pdata	ENDS
;	COMDAT pdata
pdata	SEGMENT
$pdata$?Reset@BerconDistortion@@UEAAXXZ DD imagerel $LN13
	DD	imagerel $LN13+113
	DD	imagerel $unwind$?Reset@BerconDistortion@@UEAAXXZ
pdata	ENDS
;	COMDAT pdata
pdata	SEGMENT
$pdata$?Validity@BerconDistortion@@UEAA?AVInterval@@H@Z DD imagerel $LN8
	DD	imagerel $LN8+76
	DD	imagerel $unwind$?Validity@BerconDistortion@@UEAA?AVInterval@@H@Z
pdata	ENDS
;	COMDAT pdata
pdata	SEGMENT
$pdata$?SetSubTexmap@BerconDistortion@@UEAAXHPEAVTexmap@@@Z DD imagerel $LN16
	DD	imagerel $LN16+103
	DD	imagerel $unwind$?SetSubTexmap@BerconDistortion@@UEAAXHPEAVTexmap@@@Z
pdata	ENDS
;	COMDAT pdata
pdata	SEGMENT
$pdata$?GetSubTexmapSlotName@BerconDistortion@@UEAA?AVWStr@@H@Z DD imagerel $LN15
	DD	imagerel $LN15+137
	DD	imagerel $unwind$?GetSubTexmapSlotName@BerconDistortion@@UEAA?AVWStr@@H@Z
pdata	ENDS
;	COMDAT pdata
pdata	SEGMENT
$pdata$?dtor$0@?0??GetSubTexmapSlotName@BerconDistortion@@UEAA?AVWStr@@H@Z@4HA DD imagerel ?dtor$0@?0??GetSubTexmapSlotName@BerconDistortion@@UEAA?AVWStr@@H@Z@4HA
	DD	imagerel ?dtor$0@?0??GetSubTexmapSlotName@BerconDistortion@@UEAA?AVWStr@@H@Z@4HA+39
	DD	imagerel $unwind$?dtor$0@?0??GetSubTexmapSlotName@BerconDistortion@@UEAA?AVWStr@@H@Z@4HA
pdata	ENDS
;	COMDAT pdata
pdata	SEGMENT
$pdata$?EvalColor@BerconDistortion@@UEAA?AVAColor@@AEAVShadeContext@@@Z DD imagerel $LN33
	DD	imagerel $LN33+430
	DD	imagerel $unwind$?EvalColor@BerconDistortion@@UEAA?AVAColor@@AEAVShadeContext@@@Z
pdata	ENDS
;	COMDAT pdata
pdata	SEGMENT
$pdata$?EvalMono@BerconDistortion@@UEAAMAEAVShadeContext@@@Z DD imagerel $LN30
	DD	imagerel $LN30+379
	DD	imagerel $unwind$?EvalMono@BerconDistortion@@UEAAMAEAVShadeContext@@@Z
pdata	ENDS
;	COMDAT pdata
pdata	SEGMENT
$pdata$?EvalNormalPerturb@BerconDistortion@@UEAA?AVPoint3@@AEAVShadeContext@@@Z DD imagerel $LN31
	DD	imagerel $LN31+397
	DD	imagerel $unwind$?EvalNormalPerturb@BerconDistortion@@UEAA?AVPoint3@@AEAVShadeContext@@@Z
pdata	ENDS
;	COMDAT pdata
pdata	SEGMENT
$pdata$?GetClassName@BerconDistortion@@UEAAXAEAVWStr@@@Z DD imagerel $LN4
	DD	imagerel $LN4+37
	DD	imagerel $unwind$?GetClassName@BerconDistortion@@UEAAXAEAVWStr@@@Z
pdata	ENDS
;	COMDAT pdata
pdata	SEGMENT
$pdata$?Clone@BerconDistortion@@UEAAPEAVReferenceTarget@@AEAVRemapDir@@@Z DD imagerel $LN18
	DD	imagerel $LN18+295
	DD	imagerel $unwind$?Clone@BerconDistortion@@UEAAPEAVReferenceTarget@@AEAVRemapDir@@@Z
pdata	ENDS
;	COMDAT pdata
pdata	SEGMENT
$pdata$?NotifyRefChanged@BerconDistortion@@UEAA?AW4RefResult@@AEBVInterval@@PEAVReferenceTarget@@AEA_KIH@Z DD imagerel $LN18
	DD	imagerel $LN18+51
	DD	imagerel $unwind$?NotifyRefChanged@BerconDistortion@@UEAA?AW4RefResult@@AEBVInterval@@PEAVReferenceTarget@@AEA_KIH@Z
pdata	ENDS
;	COMDAT pdata
pdata	SEGMENT
$pdata$0$?NotifyRefChanged@BerconDistortion@@UEAA?AW4RefResult@@AEBVInterval@@PEAVReferenceTarget@@AEA_KIH@Z DD imagerel $LN18+51
	DD	imagerel $LN18+98
	DD	imagerel $chain$0$?NotifyRefChanged@BerconDistortion@@UEAA?AW4RefResult@@AEBVInterval@@PEAVReferenceTarget@@AEA_KIH@Z
pdata	ENDS
;	COMDAT pdata
pdata	SEGMENT
$pdata$1$?NotifyRefChanged@BerconDistortion@@UEAA?AW4RefResult@@AEBVInterval@@PEAVReferenceTarget@@AEA_KIH@Z DD imagerel $LN18+98
	DD	imagerel $LN18+138
	DD	imagerel $chain$1$?NotifyRefChanged@BerconDistortion@@UEAA?AW4RefResult@@AEBVInterval@@PEAVReferenceTarget@@AEA_KIH@Z
pdata	ENDS
;	COMDAT pdata
pdata	SEGMENT
$pdata$?SubAnimName@BerconDistortion@@UEAA?AVWStr@@H@Z DD imagerel $LN13
	DD	imagerel $LN13+121
	DD	imagerel $unwind$?SubAnimName@BerconDistortion@@UEAA?AVWStr@@H@Z
pdata	ENDS
;	COMDAT pdata
pdata	SEGMENT
$pdata$?dtor$0@?0??SubAnimName@BerconDistortion@@UEAA?AVWStr@@H@Z@4HA DD imagerel ?dtor$0@?0??SubAnimName@BerconDistortion@@UEAA?AVWStr@@H@Z@4HA
	DD	imagerel ?dtor$0@?0??SubAnimName@BerconDistortion@@UEAA?AVWStr@@H@Z@4HA+39
	DD	imagerel $unwind$?dtor$0@?0??SubAnimName@BerconDistortion@@UEAA?AVWStr@@H@Z@4HA
pdata	ENDS
;	COMDAT pdata
pdata	SEGMENT
$pdata$?GetParamBlockByID@BerconDistortion@@UEAAPEAVIParamBlock2@@F@Z DD imagerel $LN6
	DD	imagerel $LN6+73
	DD	imagerel $unwind$?GetParamBlockByID@BerconDistortion@@UEAAPEAVIParamBlock2@@F@Z
pdata	ENDS
;	COMDAT pdata
pdata	SEGMENT
$pdata$??0BerconDistortion@@QEAA@XZ DD imagerel $LN49
	DD	imagerel $LN49+437
	DD	imagerel $unwind$??0BerconDistortion@@QEAA@XZ
pdata	ENDS
;	COMDAT pdata
pdata	SEGMENT
$pdata$??1BerconDistortion@@UEAA@XZ DD imagerel $LN14
	DD	imagerel $LN14+88
	DD	imagerel $unwind$??1BerconDistortion@@UEAA@XZ
pdata	ENDS
;	COMDAT pdata
pdata	SEGMENT
$pdata$??_GBerconDistortion@@UEAAPEAXI@Z DD imagerel $LN21
	DD	imagerel $LN21+151
	DD	imagerel $unwind$??_GBerconDistortion@@UEAAPEAXI@Z
pdata	ENDS
;	COMDAT pdata
pdata	SEGMENT
$pdata$??0BerconDistortionClassDesc@@QEAA@XZ DD imagerel $LN6
	DD	imagerel $LN6+48
	DD	imagerel $unwind$??0BerconDistortionClassDesc@@QEAA@XZ
pdata	ENDS
;	COMDAT pdata
pdata	SEGMENT
$pdata$??1BerconDistortionClassDesc@@UEAA@XZ DD imagerel $LN6
	DD	imagerel $LN6+39
	DD	imagerel $unwind$??1BerconDistortionClassDesc@@UEAA@XZ
pdata	ENDS
;	COMDAT pdata
pdata	SEGMENT
$pdata$?Create@BerconDistortionClassDesc@@UEAAPEAXH@Z DD imagerel $LN8
	DD	imagerel $LN8+55
	DD	imagerel $unwind$?Create@BerconDistortionClassDesc@@UEAAPEAXH@Z
pdata	ENDS
;	COMDAT pdata
pdata	SEGMENT
$pdata$??_GBerconDistortionClassDesc@@UEAAPEAXI@Z DD imagerel $LN13
	DD	imagerel $LN13+107
	DD	imagerel $unwind$??_GBerconDistortionClassDesc@@UEAAPEAXI@Z
pdata	ENDS
;	COMDAT pdata
pdata	SEGMENT
$pdata$??__EBerconDistortionDesc@@YAXXZ DD imagerel ??__EBerconDistortionDesc@@YAXXZ
	DD	imagerel ??__EBerconDistortionDesc@@YAXXZ+57
	DD	imagerel $unwind$??__EBerconDistortionDesc@@YAXXZ
pdata	ENDS
;	COMDAT pdata
pdata	SEGMENT
$pdata$??__FBerconDistortionDesc@@YAXXZ DD imagerel ??__FBerconDistortionDesc@@YAXXZ
	DD	imagerel ??__FBerconDistortionDesc@@YAXXZ+45
	DD	imagerel $unwind$??__FBerconDistortionDesc@@YAXXZ
pdata	ENDS
;	COMDAT pdata
pdata	SEGMENT
$pdata$??__Exyz_blk@@YAXXZ DD imagerel ??__Exyz_blk@@YAXXZ
	DD	imagerel ??__Exyz_blk@@YAXXZ+81
	DD	imagerel $unwind$??__Exyz_blk@@YAXXZ
pdata	ENDS
;	COMDAT pdata
pdata	SEGMENT
$pdata$??__Fxyz_blk@@YAXXZ DD imagerel ??__Fxyz_blk@@YAXXZ
	DD	imagerel ??__Fxyz_blk@@YAXXZ+31
	DD	imagerel $unwind$??__Fxyz_blk@@YAXXZ
pdata	ENDS
;	COMDAT pdata
pdata	SEGMENT
$pdata$??__EBerconDistortion_param_blk@@YAXXZ DD imagerel ??__EBerconDistortion_param_blk@@YAXXZ
	DD	imagerel ??__EBerconDistortion_param_blk@@YAXXZ+819
	DD	imagerel $unwind$??__EBerconDistortion_param_blk@@YAXXZ
pdata	ENDS
CRT$XCU	SEGMENT
?kInvalidId$initializer$@AssetManagement@MaxSDK@@3P6AXXZEA DQ FLAT:??__EkInvalidId@AssetManagement@MaxSDK@@YAXXZ ; MaxSDK::AssetManagement::kInvalidId$initializer$
CRT$XCU	ENDS
;	COMDAT __real@c12e848000000000
CONST	SEGMENT
__real@c12e848000000000 DQ 0c12e848000000000r	; -1e+06
CONST	ENDS
;	COMDAT __real@bff0000000000000
CONST	SEGMENT
__real@bff0000000000000 DQ 0bff0000000000000r	; -1
CONST	ENDS
;	COMDAT __real@412e848000000000
CONST	SEGMENT
__real@412e848000000000 DQ 0412e848000000000r	; 1e+06
CONST	ENDS
;	COMDAT __real@408f400000000000
CONST	SEGMENT
__real@408f400000000000 DQ 0408f400000000000r	; 1000
CONST	ENDS
;	COMDAT __real@3ff0000000000000
CONST	SEGMENT
__real@3ff0000000000000 DQ 03ff0000000000000r	; 1
CONST	ENDS
;	COMDAT __real@3fb99999a0000000
CONST	SEGMENT
__real@3fb99999a0000000 DQ 03fb99999a0000000r	; 0.1
CONST	ENDS
;	COMDAT __real@3f800000
CONST	SEGMENT
__real@3f800000 DD 03f800000r			; 1
CONST	ENDS
;	COMDAT __real@3f50624de0000000
CONST	SEGMENT
__real@3f50624de0000000 DQ 03f50624de0000000r	; 0.001
CONST	ENDS
;	COMDAT __real@3f1a36e2e0000000
CONST	SEGMENT
__real@3f1a36e2e0000000 DQ 03f1a36e2e0000000r	; 0.0001
CONST	ENDS
;	COMDAT ??_R4BerconDistortion@@6BISubMap@@@
rdata$r	SEGMENT
??_R4BerconDistortion@@6BISubMap@@@ DD 01H		; BerconDistortion::`RTTI Complete Object Locator'
	DD	040H
	DD	00H
	DD	imagerel ??_R0?AVBerconDistortion@@@8
	DD	imagerel ??_R3BerconDistortion@@8
	DD	imagerel ??_R4BerconDistortion@@6BISubMap@@@
rdata$r	ENDS
;	COMDAT ??_R1EA@?0A@EA@ISubMap@@8
rdata$r	SEGMENT
??_R1EA@?0A@EA@ISubMap@@8 DD imagerel ??_R0?AVISubMap@@@8 ; ISubMap::`RTTI Base Class Descriptor at (64,-1,0,64)'
	DD	01H
	DD	040H
	DD	0ffffffffH
	DD	00H
	DD	040H
	DD	imagerel ??_R3ISubMap@@8
rdata$r	ENDS
;	COMDAT ??_R2MtlBase@@8
rdata$r	SEGMENT
??_R2MtlBase@@8 DD imagerel ??_R1A@?0A@EA@MtlBase@@8	; MtlBase::`RTTI Base Class Array'
	DD	imagerel ??_R1A@?0A@EA@ReferenceTarget@@8
	DD	imagerel ??_R1A@?0A@EA@ReferenceMaker@@8
	DD	imagerel ??_R1A@?0A@EA@Animatable@@8
	DD	imagerel ??_R1A@?0A@EA@InterfaceServer@@8
	DD	imagerel ??_R17?0A@EC@MaxHeapOperators@@8
	DD	imagerel ??_R18?0A@EA@Noncopyable@Util@MaxSDK@@8
	DD	imagerel ??_R18?0A@EC@MaxHeapOperators@@8
	DD	imagerel ??_R1EA@?0A@EA@ISubMap@@8
	DD	imagerel ??_R1EI@?0A@EC@MaxHeapOperators@@8
	ORG $+3
rdata$r	ENDS
;	COMDAT ??_R3MtlBase@@8
rdata$r	SEGMENT
??_R3MtlBase@@8 DD 00H					; MtlBase::`RTTI Class Hierarchy Descriptor'
	DD	01H
	DD	0aH
	DD	imagerel ??_R2MtlBase@@8
rdata$r	ENDS
;	COMDAT ??_R0?AVMtlBase@@@8
data$r	SEGMENT
??_R0?AVMtlBase@@@8 DQ FLAT:??_7type_info@@6B@		; MtlBase `RTTI Type Descriptor'
	DQ	0000000000000000H
	DB	'.?AVMtlBase@@', 00H
data$r	ENDS
;	COMDAT ??_R1A@?0A@EA@MtlBase@@8
rdata$r	SEGMENT
??_R1A@?0A@EA@MtlBase@@8 DD imagerel ??_R0?AVMtlBase@@@8 ; MtlBase::`RTTI Base Class Descriptor at (0,-1,0,64)'
	DD	09H
	DD	00H
	DD	0ffffffffH
	DD	00H
	DD	040H
	DD	imagerel ??_R3MtlBase@@8
rdata$r	ENDS
;	COMDAT ??_R2Texmap@@8
rdata$r	SEGMENT
??_R2Texmap@@8 DD imagerel ??_R1A@?0A@EA@Texmap@@8	; Texmap::`RTTI Base Class Array'
	DD	imagerel ??_R1A@?0A@EA@MtlBase@@8
	DD	imagerel ??_R1A@?0A@EA@ReferenceTarget@@8
	DD	imagerel ??_R1A@?0A@EA@ReferenceMaker@@8
	DD	imagerel ??_R1A@?0A@EA@Animatable@@8
	DD	imagerel ??_R1A@?0A@EA@InterfaceServer@@8
	DD	imagerel ??_R17?0A@EC@MaxHeapOperators@@8
	DD	imagerel ??_R18?0A@EA@Noncopyable@Util@MaxSDK@@8
	DD	imagerel ??_R18?0A@EC@MaxHeapOperators@@8
	DD	imagerel ??_R1EA@?0A@EA@ISubMap@@8
	DD	imagerel ??_R1EI@?0A@EC@MaxHeapOperators@@8
	ORG $+3
rdata$r	ENDS
;	COMDAT ??_R3Texmap@@8
rdata$r	SEGMENT
??_R3Texmap@@8 DD 00H					; Texmap::`RTTI Class Hierarchy Descriptor'
	DD	01H
	DD	0bH
	DD	imagerel ??_R2Texmap@@8
rdata$r	ENDS
;	COMDAT ??_R0?AVTexmap@@@8
data$r	SEGMENT
??_R0?AVTexmap@@@8 DQ FLAT:??_7type_info@@6B@		; Texmap `RTTI Type Descriptor'
	DQ	0000000000000000H
	DB	'.?AVTexmap@@', 00H
data$r	ENDS
;	COMDAT ??_R1A@?0A@EA@Texmap@@8
rdata$r	SEGMENT
??_R1A@?0A@EA@Texmap@@8 DD imagerel ??_R0?AVTexmap@@@8	; Texmap::`RTTI Base Class Descriptor at (0,-1,0,64)'
	DD	0aH
	DD	00H
	DD	0ffffffffH
	DD	00H
	DD	040H
	DD	imagerel ??_R3Texmap@@8
rdata$r	ENDS
;	COMDAT ??_R1A@?0A@EA@BerconDistortion@@8
rdata$r	SEGMENT
??_R1A@?0A@EA@BerconDistortion@@8 DD imagerel ??_R0?AVBerconDistortion@@@8 ; BerconDistortion::`RTTI Base Class Descriptor at (0,-1,0,64)'
	DD	0bH
	DD	00H
	DD	0ffffffffH
	DD	00H
	DD	040H
	DD	imagerel ??_R3BerconDistortion@@8
rdata$r	ENDS
;	COMDAT ??_R2BerconDistortion@@8
rdata$r	SEGMENT
??_R2BerconDistortion@@8 DD imagerel ??_R1A@?0A@EA@BerconDistortion@@8 ; BerconDistortion::`RTTI Base Class Array'
	DD	imagerel ??_R1A@?0A@EA@Texmap@@8
	DD	imagerel ??_R1A@?0A@EA@MtlBase@@8
	DD	imagerel ??_R1A@?0A@EA@ReferenceTarget@@8
	DD	imagerel ??_R1A@?0A@EA@ReferenceMaker@@8
	DD	imagerel ??_R1A@?0A@EA@Animatable@@8
	DD	imagerel ??_R1A@?0A@EA@InterfaceServer@@8
	DD	imagerel ??_R17?0A@EC@MaxHeapOperators@@8
	DD	imagerel ??_R18?0A@EA@Noncopyable@Util@MaxSDK@@8
	DD	imagerel ??_R18?0A@EC@MaxHeapOperators@@8
	DD	imagerel ??_R1EA@?0A@EA@ISubMap@@8
	DD	imagerel ??_R1EI@?0A@EC@MaxHeapOperators@@8
	ORG $+3
rdata$r	ENDS
;	COMDAT ??_R3BerconDistortion@@8
rdata$r	SEGMENT
??_R3BerconDistortion@@8 DD 00H				; BerconDistortion::`RTTI Class Hierarchy Descriptor'
	DD	01H
	DD	0cH
	DD	imagerel ??_R2BerconDistortion@@8
rdata$r	ENDS
;	COMDAT ??_R0?AVBerconDistortion@@@8
data$r	SEGMENT
??_R0?AVBerconDistortion@@@8 DQ FLAT:??_7type_info@@6B@	; BerconDistortion `RTTI Type Descriptor'
	DQ	0000000000000000H
	DB	'.?AVBerconDistortion@@', 00H
data$r	ENDS
;	COMDAT ??_R4BerconDistortion@@6BReferenceTarget@@@
rdata$r	SEGMENT
??_R4BerconDistortion@@6BReferenceTarget@@@ DD 01H	; BerconDistortion::`RTTI Complete Object Locator'
	DD	00H
	DD	00H
	DD	imagerel ??_R0?AVBerconDistortion@@@8
	DD	imagerel ??_R3BerconDistortion@@8
	DD	imagerel ??_R4BerconDistortion@@6BReferenceTarget@@@
rdata$r	ENDS
;	COMDAT ??_R1A@?0A@EA@BerconXYZDlgProc@@8
rdata$r	SEGMENT
??_R1A@?0A@EA@BerconXYZDlgProc@@8 DD imagerel ??_R0?AVBerconXYZDlgProc@@@8 ; BerconXYZDlgProc::`RTTI Base Class Descriptor at (0,-1,0,64)'
	DD	02H
	DD	00H
	DD	0ffffffffH
	DD	00H
	DD	040H
	DD	imagerel ??_R3BerconXYZDlgProc@@8
rdata$r	ENDS
;	COMDAT ??_R2BerconXYZDlgProc@@8
rdata$r	SEGMENT
??_R2BerconXYZDlgProc@@8 DD imagerel ??_R1A@?0A@EA@BerconXYZDlgProc@@8 ; BerconXYZDlgProc::`RTTI Base Class Array'
	DD	imagerel ??_R1A@?0A@EA@ParamMap2UserDlgProc@@8
	DD	imagerel ??_R17?0A@EA@MaxHeapOperators@@8
	ORG $+3
rdata$r	ENDS
;	COMDAT ??_R3BerconXYZDlgProc@@8
rdata$r	SEGMENT
??_R3BerconXYZDlgProc@@8 DD 00H				; BerconXYZDlgProc::`RTTI Class Hierarchy Descriptor'
	DD	00H
	DD	03H
	DD	imagerel ??_R2BerconXYZDlgProc@@8
rdata$r	ENDS
;	COMDAT ??_R0?AVBerconXYZDlgProc@@@8
data$r	SEGMENT
??_R0?AVBerconXYZDlgProc@@@8 DQ FLAT:??_7type_info@@6B@	; BerconXYZDlgProc `RTTI Type Descriptor'
	DQ	0000000000000000H
	DB	'.?AVBerconXYZDlgProc@@', 00H
data$r	ENDS
;	COMDAT ??_R4BerconXYZDlgProc@@6B@
rdata$r	SEGMENT
??_R4BerconXYZDlgProc@@6B@ DD 01H			; BerconXYZDlgProc::`RTTI Complete Object Locator'
	DD	00H
	DD	00H
	DD	imagerel ??_R0?AVBerconXYZDlgProc@@@8
	DD	imagerel ??_R3BerconXYZDlgProc@@8
	DD	imagerel ??_R4BerconXYZDlgProc@@6B@
rdata$r	ENDS
;	COMDAT ??_R4BerconSC@@6BRenderGlobalContext@@@
rdata$r	SEGMENT
??_R4BerconSC@@6BRenderGlobalContext@@@ DD 01H		; BerconSC::`RTTI Complete Object Locator'
	DD	0288H
	DD	00H
	DD	imagerel ??_R0?AVBerconSC@@@8
	DD	imagerel ??_R3BerconSC@@8
	DD	imagerel ??_R4BerconSC@@6BRenderGlobalContext@@@
rdata$r	ENDS
;	COMDAT ??_R1CJA@?0A@EC@MaxHeapOperators@@8
rdata$r	SEGMENT
??_R1CJA@?0A@EC@MaxHeapOperators@@8 DD imagerel ??_R0?AVMaxHeapOperators@@@8 ; MaxHeapOperators::`RTTI Base Class Descriptor at (656,-1,0,66)'
	DD	00H
	DD	0290H
	DD	0ffffffffH
	DD	00H
	DD	042H
	DD	imagerel ??_R3MaxHeapOperators@@8
rdata$r	ENDS
;	COMDAT ??_R1CII@?0A@EC@InterfaceServer@@8
rdata$r	SEGMENT
??_R1CII@?0A@EC@InterfaceServer@@8 DD imagerel ??_R0?AVInterfaceServer@@@8 ; InterfaceServer::`RTTI Base Class Descriptor at (648,-1,0,66)'
	DD	01H
	DD	0288H
	DD	0ffffffffH
	DD	00H
	DD	042H
	DD	imagerel ??_R3InterfaceServer@@8
rdata$r	ENDS
;	COMDAT ??_R1CII@?0A@EA@BaseInterfaceServer@@8
rdata$r	SEGMENT
??_R1CII@?0A@EA@BaseInterfaceServer@@8 DD imagerel ??_R0?AVBaseInterfaceServer@@@8 ; BaseInterfaceServer::`RTTI Base Class Descriptor at (648,-1,0,64)'
	DD	02H
	DD	0288H
	DD	0ffffffffH
	DD	00H
	DD	040H
	DD	imagerel ??_R3BaseInterfaceServer@@8
rdata$r	ENDS
;	COMDAT ??_R1CII@?0A@EA@RenderGlobalContext@@8
rdata$r	SEGMENT
??_R1CII@?0A@EA@RenderGlobalContext@@8 DD imagerel ??_R0?AVRenderGlobalContext@@@8 ; RenderGlobalContext::`RTTI Base Class Descriptor at (648,-1,0,64)'
	DD	03H
	DD	0288H
	DD	0ffffffffH
	DD	00H
	DD	040H
	DD	imagerel ??_R3RenderGlobalContext@@8
rdata$r	ENDS
;	COMDAT ??_R1A@?0A@EA@BerconSC@@8
rdata$r	SEGMENT
??_R1A@?0A@EA@BerconSC@@8 DD imagerel ??_R0?AVBerconSC@@@8 ; BerconSC::`RTTI Base Class Descriptor at (0,-1,0,64)'
	DD	07H
	DD	00H
	DD	0ffffffffH
	DD	00H
	DD	040H
	DD	imagerel ??_R3BerconSC@@8
rdata$r	ENDS
;	COMDAT ??_R2BerconSC@@8
rdata$r	SEGMENT
??_R2BerconSC@@8 DD imagerel ??_R1A@?0A@EA@BerconSC@@8	; BerconSC::`RTTI Base Class Array'
	DD	imagerel ??_R1A@?0A@EA@ShadeContext@@8
	DD	imagerel ??_R1A@?0A@EC@InterfaceServer@@8
	DD	imagerel ??_R17?0A@EC@MaxHeapOperators@@8
	DD	imagerel ??_R1CII@?0A@EA@RenderGlobalContext@@8
	DD	imagerel ??_R1CII@?0A@EA@BaseInterfaceServer@@8
	DD	imagerel ??_R1CII@?0A@EC@InterfaceServer@@8
	DD	imagerel ??_R1CJA@?0A@EC@MaxHeapOperators@@8
	ORG $+3
rdata$r	ENDS
;	COMDAT ??_R3BerconSC@@8
rdata$r	SEGMENT
??_R3BerconSC@@8 DD 00H					; BerconSC::`RTTI Class Hierarchy Descriptor'
	DD	05H
	DD	08H
	DD	imagerel ??_R2BerconSC@@8
rdata$r	ENDS
;	COMDAT ??_R0?AVBerconSC@@@8
data$r	SEGMENT
??_R0?AVBerconSC@@@8 DQ FLAT:??_7type_info@@6B@		; BerconSC `RTTI Type Descriptor'
	DQ	0000000000000000H
	DB	'.?AVBerconSC@@', 00H
data$r	ENDS
;	COMDAT ??_R4BerconSC@@6BShadeContext@@@
rdata$r	SEGMENT
??_R4BerconSC@@6BShadeContext@@@ DD 01H			; BerconSC::`RTTI Complete Object Locator'
	DD	00H
	DD	00H
	DD	imagerel ??_R0?AVBerconSC@@@8
	DD	imagerel ??_R3BerconSC@@8
	DD	imagerel ??_R4BerconSC@@6BShadeContext@@@
rdata$r	ENDS
;	COMDAT ??_R1A@?0A@EA@ISubMap@@8
rdata$r	SEGMENT
??_R1A@?0A@EA@ISubMap@@8 DD imagerel ??_R0?AVISubMap@@@8 ; ISubMap::`RTTI Base Class Descriptor at (0,-1,0,64)'
	DD	01H
	DD	00H
	DD	0ffffffffH
	DD	00H
	DD	040H
	DD	imagerel ??_R3ISubMap@@8
rdata$r	ENDS
;	COMDAT ??_R2ISubMap@@8
rdata$r	SEGMENT
??_R2ISubMap@@8 DD imagerel ??_R1A@?0A@EA@ISubMap@@8	; ISubMap::`RTTI Base Class Array'
	DD	imagerel ??_R17?0A@EA@MaxHeapOperators@@8
	ORG $+3
rdata$r	ENDS
;	COMDAT ??_R3ISubMap@@8
rdata$r	SEGMENT
??_R3ISubMap@@8 DD 00H					; ISubMap::`RTTI Class Hierarchy Descriptor'
	DD	00H
	DD	02H
	DD	imagerel ??_R2ISubMap@@8
rdata$r	ENDS
;	COMDAT ??_R0?AVISubMap@@@8
data$r	SEGMENT
??_R0?AVISubMap@@@8 DQ FLAT:??_7type_info@@6B@		; ISubMap `RTTI Type Descriptor'
	DQ	0000000000000000H
	DB	'.?AVISubMap@@', 00H
data$r	ENDS
;	COMDAT ??_R1A@?0A@EA@ShadeOutput@@8
rdata$r	SEGMENT
??_R1A@?0A@EA@ShadeOutput@@8 DD imagerel ??_R0?AVShadeOutput@@@8 ; ShadeOutput::`RTTI Base Class Descriptor at (0,-1,0,64)'
	DD	03H
	DD	00H
	DD	0ffffffffH
	DD	00H
	DD	040H
	DD	imagerel ??_R3ShadeOutput@@8
rdata$r	ENDS
;	COMDAT ??_R2ShadeOutput@@8
rdata$r	SEGMENT
??_R2ShadeOutput@@8 DD imagerel ??_R1A@?0A@EA@ShadeOutput@@8 ; ShadeOutput::`RTTI Base Class Array'
	DD	imagerel ??_R1A@?0A@EA@BaseInterfaceServer@@8
	DD	imagerel ??_R1A@?0A@EA@InterfaceServer@@8
	DD	imagerel ??_R17?0A@EA@MaxHeapOperators@@8
	ORG $+3
rdata$r	ENDS
;	COMDAT ??_R3ShadeOutput@@8
rdata$r	SEGMENT
??_R3ShadeOutput@@8 DD 00H				; ShadeOutput::`RTTI Class Hierarchy Descriptor'
	DD	00H
	DD	04H
	DD	imagerel ??_R2ShadeOutput@@8
rdata$r	ENDS
;	COMDAT ??_R0?AVShadeOutput@@@8
data$r	SEGMENT
??_R0?AVShadeOutput@@@8 DQ FLAT:??_7type_info@@6B@	; ShadeOutput `RTTI Type Descriptor'
	DQ	0000000000000000H
	DB	'.?AVShadeOutput@@', 00H
data$r	ENDS
;	COMDAT ??_R4ShadeOutput@@6B@
rdata$r	SEGMENT
??_R4ShadeOutput@@6B@ DD 01H				; ShadeOutput::`RTTI Complete Object Locator'
	DD	00H
	DD	00H
	DD	imagerel ??_R0?AVShadeOutput@@@8
	DD	imagerel ??_R3ShadeOutput@@8
	DD	imagerel ??_R4ShadeOutput@@6B@
rdata$r	ENDS
;	COMDAT ??_R1A@?0A@EA@RenderGlobalContext@@8
rdata$r	SEGMENT
??_R1A@?0A@EA@RenderGlobalContext@@8 DD imagerel ??_R0?AVRenderGlobalContext@@@8 ; RenderGlobalContext::`RTTI Base Class Descriptor at (0,-1,0,64)'
	DD	03H
	DD	00H
	DD	0ffffffffH
	DD	00H
	DD	040H
	DD	imagerel ??_R3RenderGlobalContext@@8
rdata$r	ENDS
;	COMDAT ??_R2RenderGlobalContext@@8
rdata$r	SEGMENT
??_R2RenderGlobalContext@@8 DD imagerel ??_R1A@?0A@EA@RenderGlobalContext@@8 ; RenderGlobalContext::`RTTI Base Class Array'
	DD	imagerel ??_R1A@?0A@EA@BaseInterfaceServer@@8
	DD	imagerel ??_R1A@?0A@EA@InterfaceServer@@8
	DD	imagerel ??_R17?0A@EA@MaxHeapOperators@@8
	ORG $+3
rdata$r	ENDS
;	COMDAT ??_R3RenderGlobalContext@@8
rdata$r	SEGMENT
??_R3RenderGlobalContext@@8 DD 00H			; RenderGlobalContext::`RTTI Class Hierarchy Descriptor'
	DD	00H
	DD	04H
	DD	imagerel ??_R2RenderGlobalContext@@8
rdata$r	ENDS
;	COMDAT ??_R0?AVRenderGlobalContext@@@8
data$r	SEGMENT
??_R0?AVRenderGlobalContext@@@8 DQ FLAT:??_7type_info@@6B@ ; RenderGlobalContext `RTTI Type Descriptor'
	DQ	0000000000000000H
	DB	'.?AVRenderGlobalContext@@', 00H
data$r	ENDS
;	COMDAT ??_R4RenderGlobalContext@@6B@
rdata$r	SEGMENT
??_R4RenderGlobalContext@@6B@ DD 01H			; RenderGlobalContext::`RTTI Complete Object Locator'
	DD	00H
	DD	00H
	DD	imagerel ??_R0?AVRenderGlobalContext@@@8
	DD	imagerel ??_R3RenderGlobalContext@@8
	DD	imagerel ??_R4RenderGlobalContext@@6B@
rdata$r	ENDS
;	COMDAT ??_R1A@?0A@EA@ShadeContext@@8
rdata$r	SEGMENT
??_R1A@?0A@EA@ShadeContext@@8 DD imagerel ??_R0?AVShadeContext@@@8 ; ShadeContext::`RTTI Base Class Descriptor at (0,-1,0,64)'
	DD	02H
	DD	00H
	DD	0ffffffffH
	DD	00H
	DD	040H
	DD	imagerel ??_R3ShadeContext@@8
rdata$r	ENDS
;	COMDAT ??_R2ShadeContext@@8
rdata$r	SEGMENT
??_R2ShadeContext@@8 DD imagerel ??_R1A@?0A@EA@ShadeContext@@8 ; ShadeContext::`RTTI Base Class Array'
	DD	imagerel ??_R1A@?0A@EA@InterfaceServer@@8
	DD	imagerel ??_R17?0A@EA@MaxHeapOperators@@8
	ORG $+3
rdata$r	ENDS
;	COMDAT ??_R3ShadeContext@@8
rdata$r	SEGMENT
??_R3ShadeContext@@8 DD 00H				; ShadeContext::`RTTI Class Hierarchy Descriptor'
	DD	00H
	DD	03H
	DD	imagerel ??_R2ShadeContext@@8
rdata$r	ENDS
;	COMDAT ??_R0?AVShadeContext@@@8
data$r	SEGMENT
??_R0?AVShadeContext@@@8 DQ FLAT:??_7type_info@@6B@	; ShadeContext `RTTI Type Descriptor'
	DQ	0000000000000000H
	DB	'.?AVShadeContext@@', 00H
data$r	ENDS
;	COMDAT ??_R4ShadeContext@@6B@
rdata$r	SEGMENT
??_R4ShadeContext@@6B@ DD 01H				; ShadeContext::`RTTI Complete Object Locator'
	DD	00H
	DD	00H
	DD	imagerel ??_R0?AVShadeContext@@@8
	DD	imagerel ??_R3ShadeContext@@8
	DD	imagerel ??_R4ShadeContext@@6B@
rdata$r	ENDS
;	COMDAT ??_R1A@?0A@EA@ParamMap2UserDlgProc@@8
rdata$r	SEGMENT
??_R1A@?0A@EA@ParamMap2UserDlgProc@@8 DD imagerel ??_R0?AVParamMap2UserDlgProc@@@8 ; ParamMap2UserDlgProc::`RTTI Base Class Descriptor at (0,-1,0,64)'
	DD	01H
	DD	00H
	DD	0ffffffffH
	DD	00H
	DD	040H
	DD	imagerel ??_R3ParamMap2UserDlgProc@@8
rdata$r	ENDS
;	COMDAT ??_R2ParamMap2UserDlgProc@@8
rdata$r	SEGMENT
??_R2ParamMap2UserDlgProc@@8 DD imagerel ??_R1A@?0A@EA@ParamMap2UserDlgProc@@8 ; ParamMap2UserDlgProc::`RTTI Base Class Array'
	DD	imagerel ??_R17?0A@EA@MaxHeapOperators@@8
	ORG $+3
rdata$r	ENDS
;	COMDAT ??_R3ParamMap2UserDlgProc@@8
rdata$r	SEGMENT
??_R3ParamMap2UserDlgProc@@8 DD 00H			; ParamMap2UserDlgProc::`RTTI Class Hierarchy Descriptor'
	DD	00H
	DD	02H
	DD	imagerel ??_R2ParamMap2UserDlgProc@@8
rdata$r	ENDS
;	COMDAT ??_R0?AVParamMap2UserDlgProc@@@8
data$r	SEGMENT
??_R0?AVParamMap2UserDlgProc@@@8 DQ FLAT:??_7type_info@@6B@ ; ParamMap2UserDlgProc `RTTI Type Descriptor'
	DQ	0000000000000000H
	DB	'.?AVParamMap2UserDlgProc@@', 00H
data$r	ENDS
;	COMDAT ??_R4ParamMap2UserDlgProc@@6B@
rdata$r	SEGMENT
??_R4ParamMap2UserDlgProc@@6B@ DD 01H			; ParamMap2UserDlgProc::`RTTI Complete Object Locator'
	DD	00H
	DD	00H
	DD	imagerel ??_R0?AVParamMap2UserDlgProc@@@8
	DD	imagerel ??_R3ParamMap2UserDlgProc@@8
	DD	imagerel ??_R4ParamMap2UserDlgProc@@6B@
rdata$r	ENDS
;	COMDAT ??_R1EI@?0A@EC@MaxHeapOperators@@8
rdata$r	SEGMENT
??_R1EI@?0A@EC@MaxHeapOperators@@8 DD imagerel ??_R0?AVMaxHeapOperators@@@8 ; MaxHeapOperators::`RTTI Base Class Descriptor at (72,-1,0,66)'
	DD	00H
	DD	048H
	DD	0ffffffffH
	DD	00H
	DD	042H
	DD	imagerel ??_R3MaxHeapOperators@@8
rdata$r	ENDS
;	COMDAT ??_R1A@?0A@EC@InterfaceServer@@8
rdata$r	SEGMENT
??_R1A@?0A@EC@InterfaceServer@@8 DD imagerel ??_R0?AVInterfaceServer@@@8 ; InterfaceServer::`RTTI Base Class Descriptor at (0,-1,0,66)'
	DD	01H
	DD	00H
	DD	0ffffffffH
	DD	00H
	DD	042H
	DD	imagerel ??_R3InterfaceServer@@8
rdata$r	ENDS
;	COMDAT ??_R18?0A@EC@MaxHeapOperators@@8
rdata$r	SEGMENT
??_R18?0A@EC@MaxHeapOperators@@8 DD imagerel ??_R0?AVMaxHeapOperators@@@8 ; MaxHeapOperators::`RTTI Base Class Descriptor at (9,-1,0,66)'
	DD	00H
	DD	09H
	DD	0ffffffffH
	DD	00H
	DD	042H
	DD	imagerel ??_R3MaxHeapOperators@@8
rdata$r	ENDS
;	COMDAT ??_R1A@?0A@EA@Noncopyable@Util@MaxSDK@@8
rdata$r	SEGMENT
??_R1A@?0A@EA@Noncopyable@Util@MaxSDK@@8 DD imagerel ??_R0?AVNoncopyable@Util@MaxSDK@@@8 ; MaxSDK::Util::Noncopyable::`RTTI Base Class Descriptor at (0,-1,0,64)'
	DD	01H
	DD	00H
	DD	0ffffffffH
	DD	00H
	DD	040H
	DD	imagerel ??_R3Noncopyable@Util@MaxSDK@@8
rdata$r	ENDS
;	COMDAT ??_R2Noncopyable@Util@MaxSDK@@8
rdata$r	SEGMENT
??_R2Noncopyable@Util@MaxSDK@@8 DD imagerel ??_R1A@?0A@EA@Noncopyable@Util@MaxSDK@@8 ; MaxSDK::Util::Noncopyable::`RTTI Base Class Array'
	DD	imagerel ??_R1A@?0A@EA@MaxHeapOperators@@8
	ORG $+3
rdata$r	ENDS
;	COMDAT ??_R3Noncopyable@Util@MaxSDK@@8
rdata$r	SEGMENT
??_R3Noncopyable@Util@MaxSDK@@8 DD 00H			; MaxSDK::Util::Noncopyable::`RTTI Class Hierarchy Descriptor'
	DD	00H
	DD	02H
	DD	imagerel ??_R2Noncopyable@Util@MaxSDK@@8
rdata$r	ENDS
;	COMDAT ??_R0?AVNoncopyable@Util@MaxSDK@@@8
data$r	SEGMENT
??_R0?AVNoncopyable@Util@MaxSDK@@@8 DQ FLAT:??_7type_info@@6B@ ; MaxSDK::Util::Noncopyable `RTTI Type Descriptor'
	DQ	0000000000000000H
	DB	'.?AVNoncopyable@Util@MaxSDK@@', 00H
data$r	ENDS
;	COMDAT ??_R18?0A@EA@Noncopyable@Util@MaxSDK@@8
rdata$r	SEGMENT
??_R18?0A@EA@Noncopyable@Util@MaxSDK@@8 DD imagerel ??_R0?AVNoncopyable@Util@MaxSDK@@@8 ; MaxSDK::Util::Noncopyable::`RTTI Base Class Descriptor at (9,-1,0,64)'
	DD	01H
	DD	09H
	DD	0ffffffffH
	DD	00H
	DD	040H
	DD	imagerel ??_R3Noncopyable@Util@MaxSDK@@8
rdata$r	ENDS
;	COMDAT ??_R17?0A@EC@MaxHeapOperators@@8
rdata$r	SEGMENT
??_R17?0A@EC@MaxHeapOperators@@8 DD imagerel ??_R0?AVMaxHeapOperators@@@8 ; MaxHeapOperators::`RTTI Base Class Descriptor at (8,-1,0,66)'
	DD	00H
	DD	08H
	DD	0ffffffffH
	DD	00H
	DD	042H
	DD	imagerel ??_R3MaxHeapOperators@@8
rdata$r	ENDS
;	COMDAT ??_R2Animatable@@8
rdata$r	SEGMENT
??_R2Animatable@@8 DD imagerel ??_R1A@?0A@EA@Animatable@@8 ; Animatable::`RTTI Base Class Array'
	DD	imagerel ??_R1A@?0A@EA@InterfaceServer@@8
	DD	imagerel ??_R17?0A@EC@MaxHeapOperators@@8
	DD	imagerel ??_R18?0A@EA@Noncopyable@Util@MaxSDK@@8
	DD	imagerel ??_R18?0A@EC@MaxHeapOperators@@8
	ORG $+3
rdata$r	ENDS
;	COMDAT ??_R3Animatable@@8
rdata$r	SEGMENT
??_R3Animatable@@8 DD 00H				; Animatable::`RTTI Class Hierarchy Descriptor'
	DD	05H
	DD	05H
	DD	imagerel ??_R2Animatable@@8
rdata$r	ENDS
;	COMDAT ??_R0?AVAnimatable@@@8
data$r	SEGMENT
??_R0?AVAnimatable@@@8 DQ FLAT:??_7type_info@@6B@	; Animatable `RTTI Type Descriptor'
	DQ	0000000000000000H
	DB	'.?AVAnimatable@@', 00H
data$r	ENDS
;	COMDAT ??_R1A@?0A@EA@Animatable@@8
rdata$r	SEGMENT
??_R1A@?0A@EA@Animatable@@8 DD imagerel ??_R0?AVAnimatable@@@8 ; Animatable::`RTTI Base Class Descriptor at (0,-1,0,64)'
	DD	04H
	DD	00H
	DD	0ffffffffH
	DD	00H
	DD	040H
	DD	imagerel ??_R3Animatable@@8
rdata$r	ENDS
;	COMDAT ??_R2ReferenceMaker@@8
rdata$r	SEGMENT
??_R2ReferenceMaker@@8 DD imagerel ??_R1A@?0A@EA@ReferenceMaker@@8 ; ReferenceMaker::`RTTI Base Class Array'
	DD	imagerel ??_R1A@?0A@EA@Animatable@@8
	DD	imagerel ??_R1A@?0A@EA@InterfaceServer@@8
	DD	imagerel ??_R17?0A@EC@MaxHeapOperators@@8
	DD	imagerel ??_R18?0A@EA@Noncopyable@Util@MaxSDK@@8
	DD	imagerel ??_R18?0A@EC@MaxHeapOperators@@8
	ORG $+3
rdata$r	ENDS
;	COMDAT ??_R3ReferenceMaker@@8
rdata$r	SEGMENT
??_R3ReferenceMaker@@8 DD 00H				; ReferenceMaker::`RTTI Class Hierarchy Descriptor'
	DD	01H
	DD	06H
	DD	imagerel ??_R2ReferenceMaker@@8
rdata$r	ENDS
;	COMDAT ??_R0?AVReferenceMaker@@@8
data$r	SEGMENT
??_R0?AVReferenceMaker@@@8 DQ FLAT:??_7type_info@@6B@	; ReferenceMaker `RTTI Type Descriptor'
	DQ	0000000000000000H
	DB	'.?AVReferenceMaker@@', 00H
data$r	ENDS
;	COMDAT ??_R1A@?0A@EA@ReferenceMaker@@8
rdata$r	SEGMENT
??_R1A@?0A@EA@ReferenceMaker@@8 DD imagerel ??_R0?AVReferenceMaker@@@8 ; ReferenceMaker::`RTTI Base Class Descriptor at (0,-1,0,64)'
	DD	05H
	DD	00H
	DD	0ffffffffH
	DD	00H
	DD	040H
	DD	imagerel ??_R3ReferenceMaker@@8
rdata$r	ENDS
;	COMDAT ??_R2ReferenceTarget@@8
rdata$r	SEGMENT
??_R2ReferenceTarget@@8 DD imagerel ??_R1A@?0A@EA@ReferenceTarget@@8 ; ReferenceTarget::`RTTI Base Class Array'
	DD	imagerel ??_R1A@?0A@EA@ReferenceMaker@@8
	DD	imagerel ??_R1A@?0A@EA@Animatable@@8
	DD	imagerel ??_R1A@?0A@EA@InterfaceServer@@8
	DD	imagerel ??_R17?0A@EC@MaxHeapOperators@@8
	DD	imagerel ??_R18?0A@EA@Noncopyable@Util@MaxSDK@@8
	DD	imagerel ??_R18?0A@EC@MaxHeapOperators@@8
	ORG $+3
rdata$r	ENDS
;	COMDAT ??_R3ReferenceTarget@@8
rdata$r	SEGMENT
??_R3ReferenceTarget@@8 DD 00H				; ReferenceTarget::`RTTI Class Hierarchy Descriptor'
	DD	01H
	DD	07H
	DD	imagerel ??_R2ReferenceTarget@@8
rdata$r	ENDS
;	COMDAT ??_R0?AVReferenceTarget@@@8
data$r	SEGMENT
??_R0?AVReferenceTarget@@@8 DQ FLAT:??_7type_info@@6B@	; ReferenceTarget `RTTI Type Descriptor'
	DQ	0000000000000000H
	DB	'.?AVReferenceTarget@@', 00H
data$r	ENDS
;	COMDAT ??_R1A@?0A@EA@ReferenceTarget@@8
rdata$r	SEGMENT
??_R1A@?0A@EA@ReferenceTarget@@8 DD imagerel ??_R0?AVReferenceTarget@@@8 ; ReferenceTarget::`RTTI Base Class Descriptor at (0,-1,0,64)'
	DD	06H
	DD	00H
	DD	0ffffffffH
	DD	00H
	DD	040H
	DD	imagerel ??_R3ReferenceTarget@@8
rdata$r	ENDS
;	COMDAT ??_R4BaseInterfaceServer@@6B@
rdata$r	SEGMENT
??_R4BaseInterfaceServer@@6B@ DD 01H			; BaseInterfaceServer::`RTTI Complete Object Locator'
	DD	00H
	DD	00H
	DD	imagerel ??_R0?AVBaseInterfaceServer@@@8
	DD	imagerel ??_R3BaseInterfaceServer@@8
	DD	imagerel ??_R4BaseInterfaceServer@@6B@
rdata$r	ENDS
;	COMDAT ??_R4InterfaceServer@@6B@
rdata$r	SEGMENT
??_R4InterfaceServer@@6B@ DD 01H			; InterfaceServer::`RTTI Complete Object Locator'
	DD	00H
	DD	00H
	DD	imagerel ??_R0?AVInterfaceServer@@@8
	DD	imagerel ??_R3InterfaceServer@@8
	DD	imagerel ??_R4InterfaceServer@@6B@
rdata$r	ENDS
;	COMDAT ??_7BerconDistortion@@6BISubMap@@@
CONST	SEGMENT
??_7BerconDistortion@@6BISubMap@@@ DQ FLAT:??_R4BerconDistortion@@6BISubMap@@@ ; BerconDistortion::`vftable'
	DQ	FLAT:??_EBerconDistortion@@WEA@EAAPEAXI@Z
	DQ	FLAT:?NumSubTexmaps@BerconDistortion@@UEAAHXZ
	DQ	FLAT:?GetSubTexmap@BerconDistortion@@UEAAPEAVTexmap@@H@Z
	DQ	FLAT:?MapSlotType@Texmap@@UEAAHH@Z
	DQ	FLAT:?SetSubTexmap@BerconDistortion@@UEAAXHPEAVTexmap@@@Z
	DQ	FLAT:?SubTexmapOn@ISubMap@@UEAAHH@Z
	DQ	FLAT:?GetSubTexmapSlotName@BerconDistortion@@UEAA?AVWStr@@H@Z
	DQ	FLAT:?SetDlgThing@BerconDistortion@@UEAAHPEAVParamDlg@@@Z
	DQ	FLAT:?GetRefTarget@MtlBase@@UEAAPEAVReferenceTarget@@XZ
CONST	ENDS
;	COMDAT ??_7BerconDistortion@@6BReferenceTarget@@@
CONST	SEGMENT
??_7BerconDistortion@@6BReferenceTarget@@@ DQ FLAT:??_R4BerconDistortion@@6BReferenceTarget@@@ ; BerconDistortion::`vftable'
	DQ	FLAT:??_EBerconDistortion@@UEAAPEAXI@Z
	DQ	FLAT:?GetInterface@MtlBase@@UEAAPEAVBaseInterface@@VInterface_ID@@@Z
	DQ	FLAT:?DeleteThis@BerconDistortion@@UEAAXXZ
	DQ	FLAT:?GetClassName@BerconDistortion@@UEAAXAEAVWStr@@@Z
	DQ	FLAT:?SuperClassID@BerconDistortion@@UEAAKXZ
	DQ	FLAT:?ClassID@BerconDistortion@@UEAA?AVClass_ID@@XZ
	DQ	FLAT:?FreeCaches@Animatable@@UEAAXXZ
	DQ	FLAT:?BeginEditParams@Animatable@@UEAAXPEAVIObjParam@@KPEAV1@@Z
	DQ	FLAT:?EndEditParams@Animatable@@UEAAXPEAVIObjParam@@KPEAV1@@Z
	DQ	FLAT:?GetInterface@MtlBase@@UEAAPEAXK@Z
	DQ	FLAT:?ReleaseInterface@Animatable@@UEAAXKPEAX@Z
	DQ	FLAT:?SetProperty@MtlBase@@UEAAHKPEAX@Z
	DQ	FLAT:?GetProperty@MtlBase@@UEAAPEAXK@Z
	DQ	FLAT:?NumSubs@BerconDistortion@@UEAAHXZ
	DQ	FLAT:?SubAnim@BerconDistortion@@UEAAPEAVAnimatable@@H@Z
	DQ	FLAT:?SubAnimName@BerconDistortion@@UEAA?AVWStr@@H@Z
	DQ	FLAT:?BypassTreeView@Animatable@@UEAAHXZ
	DQ	FLAT:?BypassTrackBar@Animatable@@UEAAHXZ
	DQ	FLAT:?BypassPropertyLevel@Animatable@@UEAAHXZ
	DQ	FLAT:?InvisibleProperty@Animatable@@UEAAHXZ
	DQ	FLAT:?AssignController@Animatable@@UEAAHPEAV1@H@Z
	DQ	FLAT:?CanAssignController@Animatable@@UEAAHH@Z
	DQ	FLAT:?CanDeleteSubAnim@Animatable@@UEAAHH@Z
	DQ	FLAT:?DeleteSubAnim@Animatable@@UEAAXH@Z
	DQ	FLAT:?GetSubAnimCurveColor@Animatable@@UEAAKH@Z
	DQ	FLAT:?SubNumToRefNum@BerconDistortion@@UEAAHH@Z
	DQ	FLAT:?CanCopyAnim@Animatable@@UEAAHXZ
	DQ	FLAT:?CanMakeUnique@Animatable@@UEAAHXZ
	DQ	FLAT:?NumChildren@Animatable@@UEAAHXZ
	DQ	FLAT:?ChildAnim@Animatable@@UEAAPEAV1@H@Z
	DQ	FLAT:?NodeName@Animatable@@UEAA?AVWStr@@XZ
	DQ	FLAT:?RenderBegin@Animatable@@UEAAHHK@Z
	DQ	FLAT:?RenderEnd@Animatable@@UEAAHH@Z
	DQ	FLAT:?EditTrack@Animatable@@UEAAXXZ
	DQ	FLAT:?NumKeys@Animatable@@UEAAHXZ
	DQ	FLAT:?GetKeyTime@Animatable@@UEAAHH@Z
	DQ	FLAT:?GetKeyIndex@Animatable@@UEAAHH@Z
	DQ	FLAT:?GetNextKeyTime@Animatable@@UEAAHHKAEAH@Z
	DQ	FLAT:?CopyKeysFromTime@Animatable@@UEAAXHHK@Z
	DQ	FLAT:?DeleteKeyAtTime@Animatable@@UEAAXH@Z
	DQ	FLAT:?IsKeyAtTime@Animatable@@UEAAHHK@Z
	DQ	FLAT:?GetKeyTimes@Animatable@@UEAAHAEAV?$Tab@H@@VInterval@@K@Z
	DQ	FLAT:?GetKeySelState@Animatable@@UEAAHAEAVBitArray@@VInterval@@K@Z
	DQ	FLAT:?GetTimeRange@Animatable@@UEAA?AVInterval@@K@Z
	DQ	FLAT:?EditTimeRange@Animatable@@UEAAXVInterval@@K@Z
	DQ	FLAT:?DeleteTime@Animatable@@UEAAXVInterval@@K@Z
	DQ	FLAT:?ReverseTime@Animatable@@UEAAXVInterval@@K@Z
	DQ	FLAT:?ScaleTime@Animatable@@UEAAXVInterval@@M@Z
	DQ	FLAT:?InsertTime@Animatable@@UEAAXHH@Z
	DQ	FLAT:?SupportTimeOperations@Animatable@@UEAAHXZ
	DQ	FLAT:?MapKeys@Animatable@@UEAAXPEAVTimeMap@@K@Z
	DQ	FLAT:?DeleteKeys@Animatable@@UEAAXK@Z
	DQ	FLAT:?DeleteKeyByIndex@Animatable@@UEAAXH@Z
	DQ	FLAT:?SelectKeys@Animatable@@UEAAXAEAV?$Tab@VTrackHitRecord@@@@K@Z
	DQ	FLAT:?SelectSubKeys@Animatable@@UEAAXHAEAV?$Tab@VTrackHitRecord@@@@K@Z
	DQ	FLAT:?SelectSubCurve@Animatable@@UEAAXHH@Z
	DQ	FLAT:?SelectKeyByIndex@Animatable@@UEAAXHH@Z
	DQ	FLAT:?IsKeySelected@Animatable@@UEAAHH@Z
	DQ	FLAT:?FlagKey@Animatable@@UEAAXVTrackHitRecord@@@Z
	DQ	FLAT:?GetFlagKeyIndex@Animatable@@UEAAHXZ
	DQ	FLAT:?NumSelKeys@Animatable@@UEAAHXZ
	DQ	FLAT:?CloneSelectedKeys@Animatable@@UEAAXH@Z
	DQ	FLAT:?AddNewKey@Animatable@@UEAAXHK@Z
	DQ	FLAT:?MoveKeys@Animatable@@UEAAXPEAVParamDimensionBase@@MK@Z
	DQ	FLAT:?ScaleKeyValues@Animatable@@UEAAXPEAVParamDimensionBase@@MMK@Z
	DQ	FLAT:?SelectCurve@Animatable@@UEAAXH@Z
	DQ	FLAT:?IsCurveSelected@Animatable@@UEAAHXZ
	DQ	FLAT:?IsSubCurveSelected@Animatable@@UEAAHH@Z
	DQ	FLAT:?GetSelKeyCoords@Animatable@@UEAAHAEAHAEAMK@Z
	DQ	FLAT:?SetSelKeyCoords@Animatable@@UEAAXHMK@Z
	DQ	FLAT:?SetSelKeyCoordsExpr@Animatable@@UEAAHPEAVParamDimension@@PEB_W1K@Z
	DQ	FLAT:?AdjustTangents@Animatable@@UEAAXVTrackHitRecord@@PEAVParamDimensionBase@@MMK@Z
	DQ	FLAT:?AdjustTangents@Animatable@@UEAAXVTrackHitRecord@@PEAVParamDimensionBase@@AEAVBox2@@MHMHHHK@Z
	DQ	FLAT:?SubAnimSetKeyBufferPresent@Animatable@@UEAAHH@Z
	DQ	FLAT:?SetKeyBufferPresent@Animatable@@UEAAHXZ
	DQ	FLAT:?SubAnimCommitSetKeyBuffer@Animatable@@UEAAXHH@Z
	DQ	FLAT:?CommitSetKeyBuffer@Animatable@@UEAAXH@Z
	DQ	FLAT:?SubAnimRevertSetKeyBuffer@Animatable@@UEAAXH@Z
	DQ	FLAT:?RevertSetKeyBuffer@Animatable@@UEAAXXZ
	DQ	FLAT:?IsAnimated@Animatable@@UEAAHXZ
	DQ	FLAT:?CanCopyTrack@Animatable@@UEAAHVInterval@@K@Z
	DQ	FLAT:?CanPasteTrack@Animatable@@UEAAHPEAVTrackClipObject@@VInterval@@K@Z
	DQ	FLAT:?CopyTrack@Animatable@@UEAAPEAVTrackClipObject@@VInterval@@K@Z
	DQ	FLAT:?PasteTrack@Animatable@@UEAAXPEAVTrackClipObject@@VInterval@@K@Z
	DQ	FLAT:?CanCopySubTrack@Animatable@@UEAAHHVInterval@@K@Z
	DQ	FLAT:?CanPasteSubTrack@Animatable@@UEAAHHPEAVTrackClipObject@@VInterval@@K@Z
	DQ	FLAT:?CopySubTrack@Animatable@@UEAAPEAVTrackClipObject@@HVInterval@@K@Z
	DQ	FLAT:?PasteSubTrack@Animatable@@UEAAXHPEAVTrackClipObject@@VInterval@@K@Z
	DQ	FLAT:?GetTrackVSpace@Animatable@@UEAAHH@Z
	DQ	FLAT:?HitTestTrack@Animatable@@UEAAHAEAV?$Tab@VTrackHitRecord@@@@AEAVBox2@@1MHK@Z
	DQ	FLAT:?PaintTrack@Animatable@@UEAAHPEAVParamDimensionBase@@PEAUHDC__@@AEAVBox2@@2MHK@Z
	DQ	FLAT:?PaintSubTrack@Animatable@@UEAAHHPEAVParamDimensionBase@@PEAUHDC__@@AEAVBox2@@2MHK@Z
	DQ	FLAT:?PaintFCurves@Animatable@@UEAAHPEAVParamDimensionBase@@PEAUHDC__@@AEAVBox2@@2MHMHK@Z
	DQ	FLAT:?HitTestFCurves@Animatable@@UEAAHPEAVParamDimensionBase@@AEAV?$Tab@VTrackHitRecord@@@@AEAVBox2@@2MHMHK@Z
	DQ	FLAT:?PaintSubFCurves@Animatable@@UEAAHHPEAVParamDimensionBase@@PEAUHDC__@@AEAVBox2@@2MHMHK@Z
	DQ	FLAT:?HitTestSubFCurves@Animatable@@UEAAHHPEAVParamDimensionBase@@AEAV?$Tab@VTrackHitRecord@@@@AEAVBox2@@2MHMHK@Z
	DQ	FLAT:?EditTrackParams@Animatable@@UEAAXHPEAVParamDimensionBase@@PEB_WPEAUHWND__@@PEAVIObjParam@@K@Z
	DQ	FLAT:?TrackParamsType@Animatable@@UEAAHXZ
	DQ	FLAT:?GetFCurveExtents@Animatable@@UEAAHPEAVParamDimensionBase@@AEAM1K@Z
	DQ	FLAT:?GetSubFCurveExtents@Animatable@@UEAAHHPEAVParamDimensionBase@@AEAM1K@Z
	DQ	FLAT:?GetParamDimension@Animatable@@UEAAPEAVParamDimension@@H@Z
	DQ	FLAT:?TrackViewWinProc@Animatable@@UEAA_JPEAUHWND__@@I_K_J@Z
	DQ	FLAT:?SelectSubAnim@Animatable@@UEAAHH@Z
	DQ	FLAT:?EnumAuxFiles@MtlBase@@UEAAXAEAVAssetEnumCallback@@K@Z
	DQ	FLAT:?FreeAllBitmaps@Animatable@@UEAAXXZ
	DQ	FLAT:?GetSystemNodes@Animatable@@UEAAXAEAVINodeTab@@W4SysNodeContext@@@Z
	DQ	FLAT:?IsSubClassOf@Animatable@@UEAAHVClass_ID@@@Z
	DQ	FLAT:?IsRefMaker@ReferenceMaker@@UEAAHXZ
	DQ	FLAT:?MouseCycleCompleted@Animatable@@UEAAXH@Z
	DQ	FLAT:?MouseCycleStarted@Animatable@@UEAAXH@Z
	DQ	FLAT:?NumParamBlocks@BerconDistortion@@UEAAHXZ
	DQ	FLAT:?GetParamBlock@BerconDistortion@@UEAAPEAVIParamBlock2@@H@Z
	DQ	FLAT:?GetParamBlockByID@BerconDistortion@@UEAAPEAVIParamBlock2@@F@Z
	DQ	FLAT:?SvTraverseAnimGraph@Texmap@@UEAA?AVSvGraphNodeReference@@PEAVIGraphObjectManager@@PEAVAnimatable@@HK@Z
	DQ	FLAT:?SvCanInitiateLink@Animatable@@UEAA_NPEAVIGraphObjectManager@@PEAVIGraphNode@@@Z
	DQ	FLAT:?SvCanConcludeLink@Animatable@@UEAA_NPEAVIGraphObjectManager@@PEAVIGraphNode@@1@Z
	DQ	FLAT:?SvGetName@MtlBase@@UEAA?AVWStr@@PEAVIGraphObjectManager@@PEAVIGraphNode@@_N@Z
	DQ	FLAT:?SvCanSetName@MtlBase@@UEAA_NPEAVIGraphObjectManager@@PEAVIGraphNode@@@Z
	DQ	FLAT:?SvSetName@MtlBase@@UEAA_NPEAVIGraphObjectManager@@PEAVIGraphNode@@AEBVWStr@@@Z
	DQ	FLAT:?SvCanRemoveThis@Animatable@@UEAA_NPEAVIGraphObjectManager@@PEAVIGraphNode@@@Z
	DQ	FLAT:?SvRemoveThis@Animatable@@UEAA_NPEAVIGraphObjectManager@@PEAVIGraphNode@@@Z
	DQ	FLAT:?SvIsSelected@MtlBase@@UEAA_NPEAVIGraphObjectManager@@PEAVIGraphNode@@@Z
	DQ	FLAT:?SvIsHighlighted@Animatable@@UEAA_NPEAVIGraphObjectManager@@PEAVIGraphNode@@@Z
	DQ	FLAT:?SvHighlightColor@MtlBase@@UEAAKPEAVIGraphObjectManager@@PEAVIGraphNode@@@Z
	DQ	FLAT:?SvGetSwatchColor@Animatable@@UEAAKPEAVIGraphObjectManager@@PEAVIGraphNode@@@Z
	DQ	FLAT:?SvIsInactive@Animatable@@UEAA_NPEAVIGraphObjectManager@@PEAVIGraphNode@@@Z
	DQ	FLAT:?SvLinkChild@Animatable@@UEAA_NPEAVIGraphObjectManager@@PEAVIGraphNode@@1@Z
	DQ	FLAT:?SvHandleDoubleClick@MtlBase@@UEAA_NPEAVIGraphObjectManager@@PEAVIGraphNode@@@Z
	DQ	FLAT:?SvGetMultiSelectCallback@MtlBase@@UEAAPEAVMultiSelectCallback@@PEAVIGraphObjectManager@@PEAVIGraphNode@@@Z
	DQ	FLAT:?SvCanSelect@MtlBase@@UEAA_NPEAVIGraphObjectManager@@PEAVIGraphNode@@@Z
	DQ	FLAT:?SvEditProperties@Animatable@@UEAA_NPEAVIGraphObjectManager@@PEAVIGraphNode@@@Z
	DQ	FLAT:?SvGetTip@Animatable@@UEAA?AVWStr@@PEAVIGraphObjectManager@@PEAVIGraphNode@@@Z
	DQ	FLAT:?SvGetRefTip@Animatable@@UEAA?AVWStr@@PEAVIGraphObjectManager@@PEAVIGraphNode@@1@Z
	DQ	FLAT:?SvCanDetach@Animatable@@UEAA_NPEAVIGraphObjectManager@@PEAVIGraphNode@@@Z
	DQ	FLAT:?SvDetach@Animatable@@UEAA_NPEAVIGraphObjectManager@@PEAVIGraphNode@@@Z
	DQ	FLAT:?SvGetRelTip@Animatable@@UEAA?AVWStr@@PEAVIGraphObjectManager@@PEAVIGraphNode@@H1@Z
	DQ	FLAT:?SvCanDetachRel@Animatable@@UEAA_NPEAVIGraphObjectManager@@PEAVIGraphNode@@H1@Z
	DQ	FLAT:?SvDetachRel@Animatable@@UEAA_NPEAVIGraphObjectManager@@PEAVIGraphNode@@H1@Z
	DQ	FLAT:?SvHandleRelDoubleClick@Animatable@@UEAA_NPEAVIGraphObjectManager@@PEAVIGraphNode@@H1@Z
	DQ	FLAT:?IsParamBlockDesc2Used@Animatable@@UEAA_NPEAVParamBlockDesc2@@@Z
	DQ	FLAT:?GetMacroRecorderName@Animatable@@UEAA_N_NAEAVWStr@@@Z
	DQ	FLAT:?DeleteAllRefsToMe@ReferenceTarget@@UEAA?AW4RefResult@@XZ
	DQ	FLAT:?CanTransferReference@ReferenceMaker@@UEAAHH@Z
	DQ	FLAT:?NumRefs@BerconDistortion@@UEAAHXZ
	DQ	FLAT:?GetReference@BerconDistortion@@UEAAPEAVReferenceTarget@@H@Z
	DQ	FLAT:?SetReference@BerconDistortion@@EEAAXHPEAVReferenceTarget@@@Z
	DQ	FLAT:?Save@MtlBase@@UEAA?AW4IOResult@@PEAVISave@@@Z
	DQ	FLAT:?Load@MtlBase@@UEAA?AW4IOResult@@PEAVILoad@@@Z
	DQ	FLAT:?RemapRefOnLoad@ReferenceMaker@@UEAAHH@Z
	DQ	FLAT:?RescaleWorldUnits@ReferenceMaker@@UEAAXM@Z
	DQ	FLAT:?NotifyDependents@ReferenceTarget@@UEAA?AW4RefResult@@AEBVInterval@@_KIKHPEAV1@W4NotifyDependentsOption@@@Z
	DQ	FLAT:?NotifyDependents@ReferenceMaker@@EEAA?AW4RefResult@@AEBVInterval@@_KIKHPEAVReferenceTarget@@@Z
	DQ	FLAT:?SaveEnum@ReferenceMaker@@UEAAXAEAVSaveEnumProc@@H@Z
	DQ	FLAT:?SpecifySaveReferences@ReferenceMaker@@UEAA_NAEAVReferenceSaveManager@@@Z
	DQ	FLAT:?DoEnumDependentsImpl@ReferenceTarget@@MEAAHPEAVDependentEnumProc@@@Z
	DQ	FLAT:?IsRefTarget@ReferenceTarget@@UEAAHXZ
	DQ	FLAT:?IsRealDependency@ReferenceMaker@@UEAAHPEAVReferenceTarget@@@Z
	DQ	FLAT:?ShouldPersistWeakRef@ReferenceMaker@@UEAAHPEAVReferenceTarget@@@Z
	DQ	FLAT:?NotifyRefChanged@BerconDistortion@@UEAA?AW4RefResult@@AEBVInterval@@PEAVReferenceTarget@@AEA_KIH@Z
	DQ	FLAT:?AutoDelete@ReferenceTarget@@UEAA?AW4RefResult@@XZ
	DQ	FLAT:?RefAdded@Texmap@@UEAAXPEAVReferenceMaker@@@Z
	DQ	FLAT:?RefAddedUndoRedo@ReferenceTarget@@UEAAXPEAVReferenceMaker@@@Z
	DQ	FLAT:?RefDeleted@ReferenceTarget@@UEAAXXZ
	DQ	FLAT:?RefDeletedUndoRedo@ReferenceTarget@@UEAAXXZ
	DQ	FLAT:?Clone@BerconDistortion@@UEAAPEAVReferenceTarget@@AEAVRemapDir@@@Z
	DQ	FLAT:?BaseClone@MtlBase@@UEAAXPEAVReferenceTarget@@0AEAVRemapDir@@@Z
	DQ	FLAT:?NotifyForeground@ReferenceTarget@@UEAAXH@Z
	DQ	FLAT:?NotifyTarget@ReferenceTarget@@UEAAXHPEAVReferenceMaker@@@Z
	DQ	FLAT:?GetFullName@MtlBase@@UEAA?AVWStr@@XZ
	DQ	FLAT:?BuildMaps@MtlBase@@UEAAHHAEAVRenderMapsContext@@@Z
	DQ	FLAT:?Requirements@MtlBase@@UEAAKH@Z
	DQ	FLAT:?LocalRequirements@BerconDistortion@@UEAAKH@Z
	DQ	FLAT:?MappingsRequired@BerconDistortion@@UEAAXHAEAVBitArray@@0@Z
	DQ	FLAT:?LocalMappingsRequired@MtlBase@@UEAAXHAEAVBitArray@@0@Z
	DQ	FLAT:?IsMultiMtl@MtlBase@@UEAAHXZ
	DQ	FLAT:?Update@BerconDistortion@@UEAAXHAEAVInterval@@@Z
	DQ	FLAT:?Reset@BerconDistortion@@UEAAXXZ
	DQ	FLAT:?Validity@BerconDistortion@@UEAA?AVInterval@@H@Z
	DQ	FLAT:?CreateParamDlg@BerconDistortion@@UEAAPEAVParamDlg@@PEAUHWND__@@PEAVIMtlParams@@@Z
	DQ	FLAT:?GetPStamp@MtlBase@@UEAAPEAVPStamp@@H@Z
	DQ	FLAT:?CreatePStamp@MtlBase@@UEAAPEAVPStamp@@HH@Z
	DQ	FLAT:?DiscardPStamp@MtlBase@@UEAAXH@Z
	DQ	FLAT:?SupportTexDisplay@BerconDistortion@@UEAAHXZ
	DQ	FLAT:?GetActiveTexHandle@BerconDistortion@@UEAA_KHAEAVTexHandleMaker@@@Z
	DQ	FLAT:?ActivateTexDisplay@BerconDistortion@@UEAAXH@Z
	DQ	FLAT:?SupportsMultiMapsInViewport@MtlBase@@UEAAHXZ
	DQ	FLAT:?SetupGfxMultiMaps@MtlBase@@UEAAXHPEAVMaterial@@AEAVMtlMakerCallback@@@Z
	DQ	FLAT:?GetTransparencyHint@MtlBase@@UEAAHHAEAVInterval@@@Z
	DQ	FLAT:?EvalColor@BerconDistortion@@UEAA?AVAColor@@AEAVShadeContext@@@Z
	DQ	FLAT:?EvalMono@BerconDistortion@@UEAAMAEAVShadeContext@@@Z
	DQ	FLAT:?EvalNormalPerturb@BerconDistortion@@UEAA?AVPoint3@@AEAVShadeContext@@@Z
	DQ	FLAT:?HandleOwnViewPerturb@Texmap@@UEAAHXZ
	DQ	FLAT:?GetVPDisplayDIB@Texmap@@UEAAPEAUtagBITMAPINFO@@HAEAVTexHandleMaker@@AEAVInterval@@HHH@Z
	DQ	FLAT:?GetUVTransform@Texmap@@UEAAXAEAVMatrix3@@@Z
	DQ	FLAT:?GetTextureTiling@Texmap@@UEAAHXZ
	DQ	FLAT:?GetUVWSource@Texmap@@UEAAHXZ
	DQ	FLAT:?GetMapChannel@Texmap@@UEAAHXZ
	DQ	FLAT:?InitSlotType@Texmap@@UEAAXH@Z
	DQ	FLAT:?GetTheUVGen@Texmap@@UEAAPEAVUVGen@@XZ
	DQ	FLAT:?GetTheXYZGen@Texmap@@UEAAPEAVXYZGen@@XZ
	DQ	FLAT:?SetOutputLevel@Texmap@@UEAAXHM@Z
	DQ	FLAT:?IsOutputMeaningful@Texmap@@UEAA_NAEAVShadeContext@@@Z
	DQ	FLAT:?IsLocalOutputMeaningful@Texmap@@UEAA_NAEAVShadeContext@@@Z
	DQ	FLAT:?LoadMapFiles@Texmap@@UEAAHH@Z
	DQ	FLAT:?RenderBitmap@Texmap@@UEAAXHPEAVBitmap@@MH@Z
	DQ	FLAT:?IsHighDynamicRange@Texmap@@UEBAHXZ
CONST	ENDS
;	COMDAT ??_C@_13PHJMHGG@?$AAL@
CONST	SEGMENT
??_C@_13PHJMHGG@?$AAL@ DB 'L', 00H, 00H, 00H		; `string'
CONST	ENDS
;	COMDAT ??_7BerconXYZDlgProc@@6B@
CONST	SEGMENT
??_7BerconXYZDlgProc@@6B@ DQ FLAT:??_R4BerconXYZDlgProc@@6B@ ; BerconXYZDlgProc::`vftable'
	DQ	FLAT:??_EBerconXYZDlgProc@@UEAAPEAXI@Z
	DQ	FLAT:?DlgProc@BerconXYZDlgProc@@UEAA_JHPEAVIParamMap2@@PEAUHWND__@@I_K_J@Z
	DQ	FLAT:?DeleteThis@BerconXYZDlgProc@@UEAAXXZ
	DQ	FLAT:?SetThing@BerconXYZDlgProc@@UEAAXPEAVReferenceTarget@@@Z
	DQ	FLAT:?Update@ParamMap2UserDlgProc@@UEAAXHAEAVInterval@@PEAVIParamMap2@@@Z
	DQ	FLAT:?Update@ParamMap2UserDlgProc@@UEAAXH@Z
	DQ	FLAT:?SetParamBlock@ParamMap2UserDlgProc@@UEAAXPEAVIParamBlock2@@@Z
CONST	ENDS
;	COMDAT ??_7BerconSC@@6BRenderGlobalContext@@@
CONST	SEGMENT
??_7BerconSC@@6BRenderGlobalContext@@@ DQ FLAT:??_R4BerconSC@@6BRenderGlobalContext@@@ ; BerconSC::`vftable'
	DQ	FLAT:??_EBerconSC@@WCII@EAAPEAXI@Z
	DQ	FLAT:?GetInterface@BaseInterfaceServer@@UEAAPEAVBaseInterface@@VInterface_ID@@@Z
	DQ	FLAT:?NumInterfaces@BaseInterfaceServer@@UEBAHXZ
	DQ	FLAT:?GetInterfaceAt@BaseInterfaceServer@@UEBAPEAVBaseInterface@@H@Z
	DQ	FLAT:?GetAAFilterKernel@RenderGlobalContext@@UEAAPEAVFilterKernel@@XZ
	DQ	FLAT:?GetAAFilterSize@RenderGlobalContext@@UEAAMXZ
	DQ	FLAT:?NumRenderInstances@RenderGlobalContext@@UEAAHXZ
	DQ	FLAT:?GetRenderInstance@RenderGlobalContext@@UEAAPEAVRenderInstance@@H@Z
	DQ	FLAT:?EvalGlobalEnvironMap@RenderGlobalContext@@UEAA?AVAColor@@AEAVShadeContext@@AEAVRay@@H@Z
	DQ	FLAT:?IntersectRay@RenderGlobalContext@@UEAAXPEAVRenderInstance@@AEAVRay@@AEAUISect@@AEAVISectList@@H@Z
	DQ	FLAT:?IntersectWorld@RenderGlobalContext@@UEAAHAEAVRay@@HAEAUISect@@AEAVISectList@@H@Z
	DQ	FLAT:?GetViewParams@RenderGlobalContext@@UEAAPEAVViewParams@@XZ
	DQ	FLAT:?DebugFile@BerconSC@@WCII@EAAPEAU_iobuf@@XZ
	DQ	FLAT:?Execute@BerconSC@@WCII@EAA_JH_K00@Z
CONST	ENDS
;	COMDAT ??_7BerconSC@@6BShadeContext@@@
CONST	SEGMENT
??_7BerconSC@@6BShadeContext@@@ DQ FLAT:??_R4BerconSC@@6BShadeContext@@@ ; BerconSC::`vftable'
	DQ	FLAT:??_EBerconSC@@UEAAPEAXI@Z
	DQ	FLAT:?GetInterface@InterfaceServer@@UEAAPEAVBaseInterface@@VInterface_ID@@@Z
	DQ	FLAT:?ClassID@BerconSC@@UEAA?AVClass_ID@@XZ
	DQ	FLAT:?InMtlEditor@BerconSC@@UEAAHXZ
	DQ	FLAT:?Antialias@BerconSC@@UEAAHXZ
	DQ	FLAT:?ProjType@BerconSC@@UEAAHXZ
	DQ	FLAT:?Light@BerconSC@@UEAAPEAVLightDesc@@H@Z
	DQ	FLAT:?CurTime@BerconSC@@UEAAHXZ
	DQ	FLAT:?NodeID@BerconSC@@UEAAHXZ
	DQ	FLAT:?Node@BerconSC@@UEAAPEAVINode@@XZ
	DQ	FLAT:?GetEvalObject@BerconSC@@UEAAPEAVObject@@XZ
	DQ	FLAT:?BarycentricCoords@BerconSC@@UEAA?AVPoint3@@XZ
	DQ	FLAT:?FaceNumber@BerconSC@@UEAAHXZ
	DQ	FLAT:?Normal@BerconSC@@UEAA?AVPoint3@@XZ
	DQ	FLAT:?SetNormal@BerconSC@@UEAAXVPoint3@@@Z
	DQ	FLAT:?OrigNormal@BerconSC@@UEAA?AVPoint3@@XZ
	DQ	FLAT:?GNormal@BerconSC@@UEAA?AVPoint3@@XZ
	DQ	FLAT:?Curve@BerconSC@@UEAAMXZ
	DQ	FLAT:?V@BerconSC@@UEAA?AVPoint3@@XZ
	DQ	FLAT:?SetView@BerconSC@@UEAAXVPoint3@@@Z
	DQ	FLAT:?OrigView@BerconSC@@UEAA?AVPoint3@@XZ
	DQ	FLAT:?ReflectVector@BerconSC@@UEAA?AVPoint3@@XZ
	DQ	FLAT:?RefractVector@BerconSC@@UEAA?AVPoint3@@M@Z
	DQ	FLAT:?SetIOR@BerconSC@@UEAAXM@Z
	DQ	FLAT:?GetIOR@BerconSC@@UEAAMXZ
	DQ	FLAT:?CamPos@BerconSC@@UEAA?AVPoint3@@XZ
	DQ	FLAT:?P@BerconSC@@UEAA?AVPoint3@@XZ
	DQ	FLAT:?DP@BerconSC@@UEAAXAEAVPoint3@@0@Z
	DQ	FLAT:?DP@BerconSC@@UEAA?AVPoint3@@XZ
	DQ	FLAT:?PObj@BerconSC@@UEAA?AVPoint3@@XZ
	DQ	FLAT:?DPObj@BerconSC@@UEAA?AVPoint3@@XZ
	DQ	FLAT:?ObjectBox@BerconSC@@UEAA?AVBox3@@XZ
	DQ	FLAT:?PObjRelBox@BerconSC@@UEAA?AVPoint3@@XZ
	DQ	FLAT:?DPObjRelBox@BerconSC@@UEAA?AVPoint3@@XZ
	DQ	FLAT:?ScreenUV@BerconSC@@UEAAXAEAVPoint2@@0@Z
	DQ	FLAT:?ScreenCoord@BerconSC@@UEAA?AVIPoint2@@XZ
	DQ	FLAT:?SurfacePtScreen@BerconSC@@UEAA?AVPoint2@@XZ
	DQ	FLAT:?UVW@BerconSC@@UEAA?AVPoint3@@H@Z
	DQ	FLAT:?DUVW@BerconSC@@UEAA?AVPoint3@@H@Z
	DQ	FLAT:?DPdUVW@BerconSC@@UEAAXQEAVPoint3@@H@Z
	DQ	FLAT:?BumpBasisVectors@BerconSC@@UEAAHQEAVPoint3@@HH@Z
	DQ	FLAT:?IsSuperSampleOn@BerconSC@@UEAAHXZ
	DQ	FLAT:?IsTextureSuperSampleOn@BerconSC@@UEAAHXZ
	DQ	FLAT:?GetNSuperSample@BerconSC@@UEAAHXZ
	DQ	FLAT:?GetSampleSizeScale@BerconSC@@UEAAMXZ
	DQ	FLAT:?UVWNormal@BerconSC@@UEAA?AVPoint3@@H@Z
	DQ	FLAT:?RayDiam@BerconSC@@UEAAMXZ
	DQ	FLAT:?RayConeAngle@BerconSC@@UEAAMXZ
	DQ	FLAT:?EvalEnvironMap@BerconSC@@UEAA?AVAColor@@PEAVTexmap@@VPoint3@@@Z
	DQ	FLAT:?GetBGColor@BerconSC@@UEAAXAEAVColor@@0H@Z
	DQ	FLAT:?CamNearRange@BerconSC@@UEAAMXZ
	DQ	FLAT:?CamFarRange@BerconSC@@UEAAMXZ
	DQ	FLAT:?PointTo@BerconSC@@UEAA?AVPoint3@@AEBV2@W4RefFrame@@@Z
	DQ	FLAT:?PointFrom@BerconSC@@UEAA?AVPoint3@@AEBV2@W4RefFrame@@@Z
	DQ	FLAT:?VectorTo@BerconSC@@UEAA?AVPoint3@@AEBV2@W4RefFrame@@@Z
	DQ	FLAT:?VectorFrom@BerconSC@@UEAA?AVPoint3@@AEBV2@W4RefFrame@@@Z
	DQ	FLAT:?VectorToNoScale@BerconSC@@UEAA?AVPoint3@@AEBV2@W4RefFrame@@@Z
	DQ	FLAT:?VectorFromNoScale@BerconSC@@UEAA?AVPoint3@@AEBV2@W4RefFrame@@@Z
	DQ	FLAT:?SetGBufferID@BerconSC@@UEAAXH@Z
	DQ	FLAT:?DebugFile@BerconSC@@UEAAPEAU_iobuf@@XZ
	DQ	FLAT:?EvalGlobalEnvironMap@BerconSC@@UEAA?AVAColor@@VPoint3@@@Z
	DQ	FLAT:?GetCache@BerconSC@@UEAAHPEAVTexmap@@AEAVPoint3@@@Z
	DQ	FLAT:?GetCache@BerconSC@@UEAAHPEAVTexmap@@AEAM@Z
	DQ	FLAT:?GetCache@BerconSC@@UEAAHPEAVTexmap@@AEAVAColor@@@Z
	DQ	FLAT:?PutCache@BerconSC@@UEAAXPEAVTexmap@@AEBVPoint3@@@Z
	DQ	FLAT:?PutCache@BerconSC@@UEAAXPEAVTexmap@@M@Z
	DQ	FLAT:?PutCache@BerconSC@@UEAAXPEAVTexmap@@AEBVAColor@@@Z
	DQ	FLAT:?TossCache@BerconSC@@UEAAXPEAVTexmap@@@Z
	DQ	FLAT:?Execute@BerconSC@@UEAA_JH_K00@Z
	DQ	FLAT:?NRenderElements@BerconSC@@UEAAHXZ
	DQ	FLAT:?GetRenderElement@BerconSC@@UEAAPEAVIRenderElement@@H@Z
	DQ	FLAT:?DiffuseIllum@BerconSC@@UEAA?AVColor@@XZ
	DQ	FLAT:?IsPhysicalSpace@BerconSC@@UEBAPEAVToneOperator@@XZ
	DQ	FLAT:?ScaledToRGB@BerconSC@@UEBAPEAVToneOperator@@XZ
	DQ	FLAT:?ScaledToRGB@BerconSC@@UEBAPEAVToneOperator@@M@Z
	DQ	FLAT:?ScaleRGB@BerconSC@@UEBAPEAVToneOperator@@M@Z
CONST	ENDS
_DATA	SEGMENT
?BlinnClassID@@3VClass_ID@@A DD 038H			; BlinnClassID
	DD	00H
?AnisoShaderClassID@@3VClass_ID@@A DD 02857f460H	; AnisoShaderClassID
	DD	00H
?AnisoShaderDlgClassID@@3VClass_ID@@A DD 02857f460H	; AnisoShaderDlgClassID
	DD	00H
?OrenNayarBlinnShaderClassID@@3VClass_ID@@A DD 02857f421H ; OrenNayarBlinnShaderClassID
	DD	00H
?OrenNayarShaderDlgClassID@@3VClass_ID@@A DD 02857f422H	; OrenNayarShaderDlgClassID
	DD	00H
?StraussShaderClassID@@3VClass_ID@@A DD 02857f450H	; StraussShaderClassID
	DD	00H
?kTriObjNormalXTCID@@3VClass_ID@@B DD 0730a33d7H	; kTriObjNormalXTCID
	DD	027246c55H
?black@@3VAColor@@A DD 000000000r		; 0	; black
	DD	000000000r			; 0
	DD	000000000r			; 0
	DD	03f800000r			; 1
_DATA	ENDS
;	COMDAT ??_7ParamMap2UserDlgProc@@6B@
CONST	SEGMENT
??_7ParamMap2UserDlgProc@@6B@ DQ FLAT:??_R4ParamMap2UserDlgProc@@6B@ ; ParamMap2UserDlgProc::`vftable'
	DQ	FLAT:??_EParamMap2UserDlgProc@@UEAAPEAXI@Z
	DQ	FLAT:_purecall
	DQ	FLAT:_purecall
	DQ	FLAT:?SetThing@ParamMap2UserDlgProc@@UEAAXPEAVReferenceTarget@@@Z
	DQ	FLAT:?Update@ParamMap2UserDlgProc@@UEAAXHAEAVInterval@@PEAVIParamMap2@@@Z
	DQ	FLAT:?Update@ParamMap2UserDlgProc@@UEAAXH@Z
	DQ	FLAT:?SetParamBlock@ParamMap2UserDlgProc@@UEAAXPEAVIParamBlock2@@@Z
CONST	ENDS
;	COMDAT ??_7ShadeContext@@6B@
CONST	SEGMENT
??_7ShadeContext@@6B@ DQ FLAT:??_R4ShadeContext@@6B@	; ShadeContext::`vftable'
	DQ	FLAT:??_EShadeContext@@UEAAPEAXI@Z
	DQ	FLAT:?GetInterface@InterfaceServer@@UEAAPEAVBaseInterface@@VInterface_ID@@@Z
	DQ	FLAT:?ClassID@ShadeContext@@UEAA?AVClass_ID@@XZ
	DQ	FLAT:_purecall
	DQ	FLAT:?Antialias@ShadeContext@@UEAAHXZ
	DQ	FLAT:?ProjType@ShadeContext@@UEAAHXZ
	DQ	FLAT:_purecall
	DQ	FLAT:_purecall
	DQ	FLAT:?NodeID@ShadeContext@@UEAAHXZ
	DQ	FLAT:?Node@ShadeContext@@UEAAPEAVINode@@XZ
	DQ	FLAT:?GetEvalObject@ShadeContext@@UEAAPEAVObject@@XZ
	DQ	FLAT:?BarycentricCoords@ShadeContext@@UEAA?AVPoint3@@XZ
	DQ	FLAT:_purecall
	DQ	FLAT:_purecall
	DQ	FLAT:?SetNormal@ShadeContext@@UEAAXVPoint3@@@Z
	DQ	FLAT:?OrigNormal@ShadeContext@@UEAA?AVPoint3@@XZ
	DQ	FLAT:_purecall
	DQ	FLAT:?Curve@ShadeContext@@UEAAMXZ
	DQ	FLAT:_purecall
	DQ	FLAT:_purecall
	DQ	FLAT:?OrigView@ShadeContext@@UEAA?AVPoint3@@XZ
	DQ	FLAT:_purecall
	DQ	FLAT:_purecall
	DQ	FLAT:?SetIOR@ShadeContext@@UEAAXM@Z
	DQ	FLAT:?GetIOR@ShadeContext@@UEAAMXZ
	DQ	FLAT:_purecall
	DQ	FLAT:_purecall
	DQ	FLAT:?DP@ShadeContext@@UEAAXAEAVPoint3@@0@Z
	DQ	FLAT:_purecall
	DQ	FLAT:_purecall
	DQ	FLAT:_purecall
	DQ	FLAT:_purecall
	DQ	FLAT:_purecall
	DQ	FLAT:_purecall
	DQ	FLAT:_purecall
	DQ	FLAT:_purecall
	DQ	FLAT:?SurfacePtScreen@ShadeContext@@UEAA?AVPoint2@@XZ
	DQ	FLAT:_purecall
	DQ	FLAT:_purecall
	DQ	FLAT:_purecall
	DQ	FLAT:?BumpBasisVectors@ShadeContext@@UEAAHQEAVPoint3@@HH@Z
	DQ	FLAT:?IsSuperSampleOn@ShadeContext@@UEAAHXZ
	DQ	FLAT:?IsTextureSuperSampleOn@ShadeContext@@UEAAHXZ
	DQ	FLAT:?GetNSuperSample@ShadeContext@@UEAAHXZ
	DQ	FLAT:?GetSampleSizeScale@ShadeContext@@UEAAMXZ
	DQ	FLAT:?UVWNormal@ShadeContext@@UEAA?AVPoint3@@H@Z
	DQ	FLAT:?RayDiam@ShadeContext@@UEAAMXZ
	DQ	FLAT:?RayConeAngle@ShadeContext@@UEAAMXZ
	DQ	FLAT:?EvalEnvironMap@ShadeContext@@UEAA?AVAColor@@PEAVTexmap@@VPoint3@@@Z
	DQ	FLAT:_purecall
	DQ	FLAT:?CamNearRange@ShadeContext@@UEAAMXZ
	DQ	FLAT:?CamFarRange@ShadeContext@@UEAAMXZ
	DQ	FLAT:_purecall
	DQ	FLAT:_purecall
	DQ	FLAT:_purecall
	DQ	FLAT:_purecall
	DQ	FLAT:?VectorToNoScale@ShadeContext@@UEAA?AVPoint3@@AEBV2@W4RefFrame@@@Z
	DQ	FLAT:?VectorFromNoScale@ShadeContext@@UEAA?AVPoint3@@AEBV2@W4RefFrame@@@Z
	DQ	FLAT:?SetGBufferID@ShadeContext@@UEAAXH@Z
	DQ	FLAT:?DebugFile@ShadeContext@@UEAAPEAU_iobuf@@XZ
	DQ	FLAT:?EvalGlobalEnvironMap@ShadeContext@@UEAA?AVAColor@@VPoint3@@@Z
	DQ	FLAT:?GetCache@ShadeContext@@UEAAHPEAVTexmap@@AEAVPoint3@@@Z
	DQ	FLAT:?GetCache@ShadeContext@@UEAAHPEAVTexmap@@AEAM@Z
	DQ	FLAT:?GetCache@ShadeContext@@UEAAHPEAVTexmap@@AEAVAColor@@@Z
	DQ	FLAT:?PutCache@ShadeContext@@UEAAXPEAVTexmap@@AEBVPoint3@@@Z
	DQ	FLAT:?PutCache@ShadeContext@@UEAAXPEAVTexmap@@M@Z
	DQ	FLAT:?PutCache@ShadeContext@@UEAAXPEAVTexmap@@AEBVAColor@@@Z
	DQ	FLAT:?TossCache@ShadeContext@@UEAAXPEAVTexmap@@@Z
	DQ	FLAT:?Execute@ShadeContext@@UEAA_JH_K00@Z
	DQ	FLAT:?NRenderElements@ShadeContext@@UEAAHXZ
	DQ	FLAT:?GetRenderElement@ShadeContext@@UEAAPEAVIRenderElement@@H@Z
	DQ	FLAT:?DiffuseIllum@ShadeContext@@UEAA?AVColor@@XZ
CONST	ENDS
;	COMDAT ??_7ShadeOutput@@6B@
CONST	SEGMENT
??_7ShadeOutput@@6B@ DQ FLAT:??_R4ShadeOutput@@6B@	; ShadeOutput::`vftable'
	DQ	FLAT:??_EShadeOutput@@UEAAPEAXI@Z
	DQ	FLAT:?GetInterface@BaseInterfaceServer@@UEAAPEAVBaseInterface@@VInterface_ID@@@Z
	DQ	FLAT:?NumInterfaces@BaseInterfaceServer@@UEBAHXZ
	DQ	FLAT:?GetInterfaceAt@BaseInterfaceServer@@UEBAPEAVBaseInterface@@H@Z
CONST	ENDS
;	COMDAT ??_7RenderGlobalContext@@6B@
CONST	SEGMENT
??_7RenderGlobalContext@@6B@ DQ FLAT:??_R4RenderGlobalContext@@6B@ ; RenderGlobalContext::`vftable'
	DQ	FLAT:??_ERenderGlobalContext@@UEAAPEAXI@Z
	DQ	FLAT:?GetInterface@BaseInterfaceServer@@UEAAPEAVBaseInterface@@VInterface_ID@@@Z
	DQ	FLAT:?NumInterfaces@BaseInterfaceServer@@UEBAHXZ
	DQ	FLAT:?GetInterfaceAt@BaseInterfaceServer@@UEBAPEAVBaseInterface@@H@Z
	DQ	FLAT:?GetAAFilterKernel@RenderGlobalContext@@UEAAPEAVFilterKernel@@XZ
	DQ	FLAT:?GetAAFilterSize@RenderGlobalContext@@UEAAMXZ
	DQ	FLAT:?NumRenderInstances@RenderGlobalContext@@UEAAHXZ
	DQ	FLAT:?GetRenderInstance@RenderGlobalContext@@UEAAPEAVRenderInstance@@H@Z
	DQ	FLAT:?EvalGlobalEnvironMap@RenderGlobalContext@@UEAA?AVAColor@@AEAVShadeContext@@AEAVRay@@H@Z
	DQ	FLAT:?IntersectRay@RenderGlobalContext@@UEAAXPEAVRenderInstance@@AEAVRay@@AEAUISect@@AEAVISectList@@H@Z
	DQ	FLAT:?IntersectWorld@RenderGlobalContext@@UEAAHAEAVRay@@HAEAUISect@@AEAVISectList@@H@Z
	DQ	FLAT:?GetViewParams@RenderGlobalContext@@UEAAPEAVViewParams@@XZ
	DQ	FLAT:?DebugFile@RenderGlobalContext@@UEAAPEAU_iobuf@@XZ
	DQ	FLAT:?Execute@RenderGlobalContext@@UEAA_JH_K00@Z
CONST	ENDS
;	COMDAT ??_C@_1BM@HADNIIA@?$AAB?$AAi?$AAt?$AAA?$AAr?$AAr?$AAa?$AAy?$AA?3?$AA?3?$AAS?$AAe?$AAt@
CONST	SEGMENT
??_C@_1BM@HADNIIA@?$AAB?$AAi?$AAt?$AAA?$AAr?$AAr?$AAa?$AAy?$AA?3?$AA?3?$AAS?$AAe?$AAt@ DB 'B'
	DB	00H, 'i', 00H, 't', 00H, 'A', 00H, 'r', 00H, 'r', 00H, 'a', 00H
	DB	'y', 00H, ':', 00H, ':', 00H, 'S', 00H, 'e', 00H, 't', 00H, 00H
	DB	00H						; `string'
CONST	ENDS
;	COMDAT ??_C@_1CE@GBNPOKPK@?$AAi?$AA?$DO?$AA?9?$AA1?$AA?5?$AA?$CG?$AA?$CG?$AA?5?$AAi?$AA?$DM?$AAn?$AAu?$AAm?$AAB?$AAi@
CONST	SEGMENT
??_C@_1CE@GBNPOKPK@?$AAi?$AA?$DO?$AA?9?$AA1?$AA?5?$AA?$CG?$AA?$CG?$AA?5?$AAi?$AA?$DM?$AAn?$AAu?$AAm?$AAB?$AAi@ DB 'i'
	DB	00H, '>', 00H, '-', 00H, '1', 00H, ' ', 00H, '&', 00H, '&', 00H
	DB	' ', 00H, 'i', 00H, '<', 00H, 'n', 00H, 'u', 00H, 'm', 00H, 'B'
	DB	00H, 'i', 00H, 't', 00H, 's', 00H, 00H, 00H	; `string'
CONST	ENDS
;	COMDAT ??_C@_1IK@JMJDIAL@?$AAc?$AA?3?$AA?2?$AAp?$AAr?$AAo?$AAg?$AAr?$AAa?$AAm?$AA?5?$AAf?$AAi?$AAl?$AAe@
CONST	SEGMENT
??_C@_1IK@JMJDIAL@?$AAc?$AA?3?$AA?2?$AAp?$AAr?$AAo?$AAg?$AAr?$AAa?$AAm?$AA?5?$AAf?$AAi?$AAl?$AAe@ DB 'c'
	DB	00H, ':', 00H, '\', 00H, 'p', 00H, 'r', 00H, 'o', 00H, 'g', 00H
	DB	'r', 00H, 'a', 00H, 'm', 00H, ' ', 00H, 'f', 00H, 'i', 00H, 'l'
	DB	00H, 'e', 00H, 's', 00H, '\', 00H, 'a', 00H, 'u', 00H, 't', 00H
	DB	'o', 00H, 'd', 00H, 'e', 00H, 's', 00H, 'k', 00H, '\', 00H, '3'
	DB	00H, 'd', 00H, 's', 00H, ' ', 00H, 'm', 00H, 'a', 00H, 'x', 00H
	DB	' ', 00H, '2', 00H, '0', 00H, '1', 00H, '9', 00H, ' ', 00H, 's'
	DB	00H, 'd', 00H, 'k', 00H, '\', 00H, 'm', 00H, 'a', 00H, 'x', 00H
	DB	's', 00H, 'd', 00H, 'k', 00H, '\', 00H, 'i', 00H, 'n', 00H, 'c'
	DB	00H, 'l', 00H, 'u', 00H, 'd', 00H, 'e', 00H, '\', 00H, 'b', 00H
	DB	'i', 00H, 't', 00H, 'a', 00H, 'r', 00H, 'r', 00H, 'a', 00H, 'y'
	DB	00H, '.', 00H, 'h', 00H, 00H, 00H		; `string'
CONST	ENDS
;	COMDAT ??_C@_1IA@GJPPLCDJ@?$AAc?$AA?3?$AA?2?$AAp?$AAr?$AAo?$AAg?$AAr?$AAa?$AAm?$AA?5?$AAf?$AAi?$AAl?$AAe@
CONST	SEGMENT
??_C@_1IA@GJPPLCDJ@?$AAc?$AA?3?$AA?2?$AAp?$AAr?$AAo?$AAg?$AAr?$AAa?$AAm?$AA?5?$AAf?$AAi?$AAl?$AAe@ DB 'c'
	DB	00H, ':', 00H, '\', 00H, 'p', 00H, 'r', 00H, 'o', 00H, 'g', 00H
	DB	'r', 00H, 'a', 00H, 'm', 00H, ' ', 00H, 'f', 00H, 'i', 00H, 'l'
	DB	00H, 'e', 00H, 's', 00H, '\', 00H, 'a', 00H, 'u', 00H, 't', 00H
	DB	'o', 00H, 'd', 00H, 'e', 00H, 's', 00H, 'k', 00H, '\', 00H, '3'
	DB	00H, 'd', 00H, 's', 00H, ' ', 00H, 'm', 00H, 'a', 00H, 'x', 00H
	DB	' ', 00H, '2', 00H, '0', 00H, '1', 00H, '9', 00H, ' ', 00H, 's'
	DB	00H, 'd', 00H, 'k', 00H, '\', 00H, 'm', 00H, 'a', 00H, 'x', 00H
	DB	's', 00H, 'd', 00H, 'k', 00H, '\', 00H, 'i', 00H, 'n', 00H, 'c'
	DB	00H, 'l', 00H, 'u', 00H, 'd', 00H, 'e', 00H, '\', 00H, 'r', 00H
	DB	'e', 00H, 'f', 00H, '.', 00H, 'h', 00H, 00H, 00H ; `string'
CONST	ENDS
;	COMDAT ??_C@_1EC@POJFJEHG@?$AAR?$AAe?$AAf?$AAe?$AAr?$AAe?$AAn?$AAc?$AAe?$AAM?$AAa?$AAk?$AAe?$AAr?$AA?3@
CONST	SEGMENT
??_C@_1EC@POJFJEHG@?$AAR?$AAe?$AAf?$AAe?$AAr?$AAe?$AAn?$AAc?$AAe?$AAM?$AAa?$AAk?$AAe?$AAr?$AA?3@ DB 'R'
	DB	00H, 'e', 00H, 'f', 00H, 'e', 00H, 'r', 00H, 'e', 00H, 'n', 00H
	DB	'c', 00H, 'e', 00H, 'M', 00H, 'a', 00H, 'k', 00H, 'e', 00H, 'r'
	DB	00H, ':', 00H, ':', 00H, 'N', 00H, 'o', 00H, 't', 00H, 'i', 00H
	DB	'f', 00H, 'y', 00H, 'D', 00H, 'e', 00H, 'p', 00H, 'e', 00H, 'n'
	DB	00H, 'd', 00H, 'e', 00H, 'n', 00H, 't', 00H, 's', 00H, 00H, 00H ; `string'
CONST	ENDS
;	COMDAT ??_C@_1M@HLGKFCJM@?$AAf?$AAa?$AAl?$AAs?$AAe@
CONST	SEGMENT
??_C@_1M@HLGKFCJM@?$AAf?$AAa?$AAl?$AAs?$AAe@ DB 'f', 00H, 'a', 00H, 'l', 00H
	DB	's', 00H, 'e', 00H, 00H, 00H			; `string'
CONST	ENDS
;	COMDAT ??_C@_1IO@PNJJEDOF@?$AAc?$AA?3?$AA?2?$AAp?$AAr?$AAo?$AAg?$AAr?$AAa?$AAm?$AA?5?$AAf?$AAi?$AAl?$AAe@
CONST	SEGMENT
??_C@_1IO@PNJJEDOF@?$AAc?$AA?3?$AA?2?$AAp?$AAr?$AAo?$AAg?$AAr?$AAa?$AAm?$AA?5?$AAf?$AAi?$AAl?$AAe@ DB 'c'
	DB	00H, ':', 00H, '\', 00H, 'p', 00H, 'r', 00H, 'o', 00H, 'g', 00H
	DB	'r', 00H, 'a', 00H, 'm', 00H, ' ', 00H, 'f', 00H, 'i', 00H, 'l'
	DB	00H, 'e', 00H, 's', 00H, '\', 00H, 'a', 00H, 'u', 00H, 't', 00H
	DB	'o', 00H, 'd', 00H, 'e', 00H, 's', 00H, 'k', 00H, '\', 00H, '3'
	DB	00H, 'd', 00H, 's', 00H, ' ', 00H, 'm', 00H, 'a', 00H, 'x', 00H
	DB	' ', 00H, '2', 00H, '0', 00H, '1', 00H, '9', 00H, ' ', 00H, 's'
	DB	00H, 'd', 00H, 'k', 00H, '\', 00H, 'm', 00H, 'a', 00H, 'x', 00H
	DB	's', 00H, 'd', 00H, 'k', 00H, '\', 00H, 'i', 00H, 'n', 00H, 'c'
	DB	00H, 'l', 00H, 'u', 00H, 'd', 00H, 'e', 00H, '\', 00H, 'a', 00H
	DB	'n', 00H, 'i', 00H, 'm', 00H, 'a', 00H, 't', 00H, 'a', 00H, 'b'
	DB	00H, 'l', 00H, 'e', 00H, '.', 00H, 'h', 00H, 00H, 00H ; `string'
CONST	ENDS
;	COMDAT ??_C@_1CM@HBLCKHLG@?$AAA?$AAn?$AAi?$AAm?$AAa?$AAt?$AAa?$AAb?$AAl?$AAe?$AA?3?$AA?3?$AAE?$AAd?$AAi@
CONST	SEGMENT
??_C@_1CM@HBLCKHLG@?$AAA?$AAn?$AAi?$AAm?$AAa?$AAt?$AAa?$AAb?$AAl?$AAe?$AA?3?$AA?3?$AAE?$AAd?$AAi@ DB 'A'
	DB	00H, 'n', 00H, 'i', 00H, 'm', 00H, 'a', 00H, 't', 00H, 'a', 00H
	DB	'b', 00H, 'l', 00H, 'e', 00H, ':', 00H, ':', 00H, 'E', 00H, 'd'
	DB	00H, 'i', 00H, 't', 00H, 'T', 00H, 'r', 00H, 'a', 00H, 'c', 00H
	DB	'k', 00H, 00H, 00H				; `string'
CONST	ENDS
;	COMDAT ??_C@_13COJANIEC@?$AA0@
CONST	SEGMENT
??_C@_13COJANIEC@?$AA0@ DB '0', 00H, 00H, 00H		; `string'
CONST	ENDS
;	COMDAT ??_C@_11LOCGONAA@@
CONST	SEGMENT
??_C@_11LOCGONAA@@ DB 00H, 00H				; `string'
CONST	ENDS
;	COMDAT ??_7BaseInterfaceServer@@6B@
CONST	SEGMENT
??_7BaseInterfaceServer@@6B@ DQ FLAT:??_R4BaseInterfaceServer@@6B@ ; BaseInterfaceServer::`vftable'
	DQ	FLAT:??_EBaseInterfaceServer@@UEAAPEAXI@Z
	DQ	FLAT:?GetInterface@BaseInterfaceServer@@UEAAPEAVBaseInterface@@VInterface_ID@@@Z
	DQ	FLAT:?NumInterfaces@BaseInterfaceServer@@UEBAHXZ
	DQ	FLAT:?GetInterfaceAt@BaseInterfaceServer@@UEBAPEAVBaseInterface@@H@Z
CONST	ENDS
;	COMDAT ??_7InterfaceServer@@6B@
CONST	SEGMENT
??_7InterfaceServer@@6B@ DQ FLAT:??_R4InterfaceServer@@6B@ ; InterfaceServer::`vftable'
	DQ	FLAT:??_EInterfaceServer@@UEAAPEAXI@Z
	DQ	FLAT:?GetInterface@InterfaceServer@@UEAAPEAVBaseInterface@@VInterface_ID@@@Z
CONST	ENDS
;	COMDAT xdata
xdata	SEGMENT
$unwind$??__EBerconDistortion_param_blk@@YAXXZ DD 020a01H
	DD	051010aH
xdata	ENDS
;	COMDAT xdata
xdata	SEGMENT
$ip2state$??__Fxyz_blk@@YAXXZ DD imagerel ??__Fxyz_blk@@YAXXZ
	DD	0ffffffffH
xdata	ENDS
;	COMDAT xdata
xdata	SEGMENT
$stateUnwindMap$??__Fxyz_blk@@YAXXZ DD 0ffffffffH
	DD	imagerel ?dtor$0@?0???__Fxyz_blk@@YAXXZ@4HA
xdata	ENDS
;	COMDAT CONST
CONST	SEGMENT
$cppxdata$??__Fxyz_blk@@YAXXZ DD 019930522H
	DD	01H
	DD	imagerel $stateUnwindMap$??__Fxyz_blk@@YAXXZ
	DD	00H
	DD	00H
	DD	01H
	DD	imagerel $ip2state$??__Fxyz_blk@@YAXXZ
	DD	020H
	DD	00H
	DD	00H
CONST	ENDS
;	COMDAT xdata
xdata	SEGMENT
$unwind$??__Fxyz_blk@@YAXXZ DD 010d11H
	DD	06204H
	DD	imagerel __CxxFrameHandler3
	DD	imagerel $cppxdata$??__Fxyz_blk@@YAXXZ
xdata	ENDS
;	COMDAT xdata
xdata	SEGMENT
$unwind$??__Exyz_blk@@YAXXZ DD 010401H
	DD	0a204H
xdata	ENDS
;	COMDAT xdata
xdata	SEGMENT
$ip2state$??__FBerconDistortionDesc@@YAXXZ DD imagerel ??__FBerconDistortionDesc@@YAXXZ
	DD	0ffffffffH
xdata	ENDS
;	COMDAT xdata
xdata	SEGMENT
$stateUnwindMap$??__FBerconDistortionDesc@@YAXXZ DD 0ffffffffH
	DD	imagerel ?dtor$0@?0???__FBerconDistortionDesc@@YAXXZ@4HA
xdata	ENDS
;	COMDAT CONST
CONST	SEGMENT
$cppxdata$??__FBerconDistortionDesc@@YAXXZ DD 019930522H
	DD	01H
	DD	imagerel $stateUnwindMap$??__FBerconDistortionDesc@@YAXXZ
	DD	00H
	DD	00H
	DD	01H
	DD	imagerel $ip2state$??__FBerconDistortionDesc@@YAXXZ
	DD	020H
	DD	00H
	DD	00H
CONST	ENDS
;	COMDAT xdata
xdata	SEGMENT
$unwind$??__FBerconDistortionDesc@@YAXXZ DD 010d11H
	DD	06204H
	DD	imagerel __CxxFrameHandler3
	DD	imagerel $cppxdata$??__FBerconDistortionDesc@@YAXXZ
xdata	ENDS
;	COMDAT xdata
xdata	SEGMENT
$ip2state$??__EBerconDistortionDesc@@YAXXZ DD imagerel ??__EBerconDistortionDesc@@YAXXZ
	DD	0ffffffffH
	DD	imagerel ??__EBerconDistortionDesc@@YAXXZ+27
	DD	00H
	DD	imagerel ??__EBerconDistortionDesc@@YAXXZ+41
	DD	0ffffffffH
xdata	ENDS
;	COMDAT xdata
xdata	SEGMENT
$stateUnwindMap$??__EBerconDistortionDesc@@YAXXZ DD 0ffffffffH
	DD	imagerel ?dtor$0@?0???__EBerconDistortionDesc@@YAXXZ@4HA
xdata	ENDS
;	COMDAT CONST
CONST	SEGMENT
$cppxdata$??__EBerconDistortionDesc@@YAXXZ DD 019930522H
	DD	01H
	DD	imagerel $stateUnwindMap$??__EBerconDistortionDesc@@YAXXZ
	DD	00H
	DD	00H
	DD	03H
	DD	imagerel $ip2state$??__EBerconDistortionDesc@@YAXXZ
	DD	020H
	DD	00H
	DD	00H
CONST	ENDS
;	COMDAT xdata
xdata	SEGMENT
$unwind$??__EBerconDistortionDesc@@YAXXZ DD 010d11H
	DD	06204H
	DD	imagerel __CxxFrameHandler3
	DD	imagerel $cppxdata$??__EBerconDistortionDesc@@YAXXZ
xdata	ENDS
;	COMDAT xdata
xdata	SEGMENT
$ip2state$??_GBerconDistortionClassDesc@@UEAAPEAXI@Z DD imagerel ??_GBerconDistortionClassDesc@@UEAAPEAXI@Z
	DD	0ffffffffH
xdata	ENDS
;	COMDAT xdata
xdata	SEGMENT
$stateUnwindMap$??_GBerconDistortionClassDesc@@UEAAPEAXI@Z DD 0ffffffffH
	DD	imagerel ?dtor$0@?0???_GBerconDistortionClassDesc@@UEAAPEAXI@Z@4HA
xdata	ENDS
;	COMDAT CONST
CONST	SEGMENT
$cppxdata$??_GBerconDistortionClassDesc@@UEAAPEAXI@Z DD 019930522H
	DD	01H
	DD	imagerel $stateUnwindMap$??_GBerconDistortionClassDesc@@UEAAPEAXI@Z
	DD	00H
	DD	00H
	DD	01H
	DD	imagerel $ip2state$??_GBerconDistortionClassDesc@@UEAAPEAXI@Z
	DD	020H
	DD	00H
	DD	04H
CONST	ENDS
;	COMDAT xdata
xdata	SEGMENT
$unwind$??_GBerconDistortionClassDesc@@UEAAPEAXI@Z DD 041811H
	DD	093418H
	DD	07006520aH
	DD	imagerel __CxxFrameHandler3
	DD	imagerel $cppxdata$??_GBerconDistortionClassDesc@@UEAAPEAXI@Z
xdata	ENDS
;	COMDAT xdata
xdata	SEGMENT
$ip2state$?Create@BerconDistortionClassDesc@@UEAAPEAXH@Z DD imagerel ?Create@BerconDistortionClassDesc@@UEAAPEAXH@Z
	DD	0ffffffffH
	DD	imagerel ?Create@BerconDistortionClassDesc@@UEAAPEAXH@Z+29
	DD	00H
	DD	imagerel ?Create@BerconDistortionClassDesc@@UEAAPEAXH@Z+43
	DD	0ffffffffH
xdata	ENDS
;	COMDAT xdata
xdata	SEGMENT
$stateUnwindMap$?Create@BerconDistortionClassDesc@@UEAAPEAXH@Z DD 0ffffffffH
	DD	imagerel ?dtor$0@?0??Create@BerconDistortionClassDesc@@UEAAPEAXH@Z@4HA
xdata	ENDS
;	COMDAT CONST
CONST	SEGMENT
$cppxdata$?Create@BerconDistortionClassDesc@@UEAAPEAXH@Z DD 019930522H
	DD	01H
	DD	imagerel $stateUnwindMap$?Create@BerconDistortionClassDesc@@UEAAPEAXH@Z
	DD	00H
	DD	00H
	DD	03H
	DD	imagerel $ip2state$?Create@BerconDistortionClassDesc@@UEAAPEAXH@Z
	DD	020H
	DD	00H
	DD	00H
CONST	ENDS
;	COMDAT xdata
xdata	SEGMENT
$unwind$?Create@BerconDistortionClassDesc@@UEAAPEAXH@Z DD 010d11H
	DD	06204H
	DD	imagerel __CxxFrameHandler3
	DD	imagerel $cppxdata$?Create@BerconDistortionClassDesc@@UEAAPEAXH@Z
xdata	ENDS
;	COMDAT xdata
xdata	SEGMENT
$ip2state$??1BerconDistortionClassDesc@@UEAA@XZ DD imagerel ??1BerconDistortionClassDesc@@UEAA@XZ
	DD	0ffffffffH
xdata	ENDS
;	COMDAT xdata
xdata	SEGMENT
$stateUnwindMap$??1BerconDistortionClassDesc@@UEAA@XZ DD 0ffffffffH
	DD	imagerel ?dtor$0@?0???1BerconDistortionClassDesc@@UEAA@XZ@4HA
xdata	ENDS
;	COMDAT CONST
CONST	SEGMENT
$cppxdata$??1BerconDistortionClassDesc@@UEAA@XZ DD 019930522H
	DD	01H
	DD	imagerel $stateUnwindMap$??1BerconDistortionClassDesc@@UEAA@XZ
	DD	00H
	DD	00H
	DD	01H
	DD	imagerel $ip2state$??1BerconDistortionClassDesc@@UEAA@XZ
	DD	020H
	DD	00H
	DD	04H
CONST	ENDS
;	COMDAT xdata
xdata	SEGMENT
$unwind$??1BerconDistortionClassDesc@@UEAA@XZ DD 011211H
	DD	06209H
	DD	imagerel __CxxFrameHandler3
	DD	imagerel $cppxdata$??1BerconDistortionClassDesc@@UEAA@XZ
xdata	ENDS
;	COMDAT xdata
xdata	SEGMENT
$ip2state$??0BerconDistortionClassDesc@@QEAA@XZ DD imagerel ??0BerconDistortionClassDesc@@QEAA@XZ
	DD	0ffffffffH
	DD	imagerel ??0BerconDistortionClassDesc@@QEAA@XZ+29
	DD	00H
	DD	imagerel ??0BerconDistortionClassDesc@@QEAA@XZ+39
	DD	0ffffffffH
xdata	ENDS
;	COMDAT xdata
xdata	SEGMENT
$stateUnwindMap$??0BerconDistortionClassDesc@@QEAA@XZ DD 0ffffffffH
	DD	imagerel ?dtor$0@?0???0BerconDistortionClassDesc@@QEAA@XZ@4HA
xdata	ENDS
;	COMDAT CONST
CONST	SEGMENT
$cppxdata$??0BerconDistortionClassDesc@@QEAA@XZ DD 019930522H
	DD	01H
	DD	imagerel $stateUnwindMap$??0BerconDistortionClassDesc@@QEAA@XZ
	DD	00H
	DD	00H
	DD	03H
	DD	imagerel $ip2state$??0BerconDistortionClassDesc@@QEAA@XZ
	DD	020H
	DD	00H
	DD	00H
CONST	ENDS
;	COMDAT xdata
xdata	SEGMENT
$unwind$??0BerconDistortionClassDesc@@QEAA@XZ DD 021311H
	DD	03006520aH
	DD	imagerel __CxxFrameHandler3
	DD	imagerel $cppxdata$??0BerconDistortionClassDesc@@QEAA@XZ
xdata	ENDS
;	COMDAT xdata
xdata	SEGMENT
$ip2state$??_GBerconDistortion@@UEAAPEAXI@Z DD imagerel ??_GBerconDistortion@@UEAAPEAXI@Z
	DD	0ffffffffH
	DD	imagerel ??_GBerconDistortion@@UEAAPEAXI@Z+50
	DD	00H
	DD	imagerel ??_GBerconDistortion@@UEAAPEAXI@Z+80
	DD	0ffffffffH
xdata	ENDS
;	COMDAT xdata
xdata	SEGMENT
$stateUnwindMap$??_GBerconDistortion@@UEAAPEAXI@Z DD 0ffffffffH
	DD	imagerel ?dtor$0@?0???_GBerconDistortion@@UEAAPEAXI@Z@4HA
	DD	0ffffffffH
	DD	imagerel ?dtor$1@?0???_GBerconDistortion@@UEAAPEAXI@Z@4HA
xdata	ENDS
;	COMDAT CONST
CONST	SEGMENT
$cppxdata$??_GBerconDistortion@@UEAAPEAXI@Z DD 019930522H
	DD	02H
	DD	imagerel $stateUnwindMap$??_GBerconDistortion@@UEAAPEAXI@Z
	DD	00H
	DD	00H
	DD	03H
	DD	imagerel $ip2state$??_GBerconDistortion@@UEAAPEAXI@Z
	DD	020H
	DD	00H
	DD	04H
CONST	ENDS
;	COMDAT xdata
xdata	SEGMENT
$unwind$??_GBerconDistortion@@UEAAPEAXI@Z DD 041819H
	DD	093418H
	DD	07006520aH
	DD	imagerel __CxxFrameHandler3
	DD	imagerel $cppxdata$??_GBerconDistortion@@UEAAPEAXI@Z
xdata	ENDS
;	COMDAT xdata
xdata	SEGMENT
$ip2state$??1BerconDistortion@@UEAA@XZ DD imagerel ??1BerconDistortion@@UEAA@XZ
	DD	0ffffffffH
	DD	imagerel ??1BerconDistortion@@UEAA@XZ+43
	DD	00H
	DD	imagerel ??1BerconDistortion@@UEAA@XZ+73
	DD	0ffffffffH
xdata	ENDS
;	COMDAT xdata
xdata	SEGMENT
$stateUnwindMap$??1BerconDistortion@@UEAA@XZ DD 0ffffffffH
	DD	imagerel ?dtor$0@?0???1BerconDistortion@@UEAA@XZ@4HA
	DD	0ffffffffH
	DD	imagerel ?dtor$1@?0???1BerconDistortion@@UEAA@XZ@4HA
xdata	ENDS
;	COMDAT CONST
CONST	SEGMENT
$cppxdata$??1BerconDistortion@@UEAA@XZ DD 019930522H
	DD	02H
	DD	imagerel $stateUnwindMap$??1BerconDistortion@@UEAA@XZ
	DD	00H
	DD	00H
	DD	03H
	DD	imagerel $ip2state$??1BerconDistortion@@UEAA@XZ
	DD	020H
	DD	00H
	DD	04H
CONST	ENDS
;	COMDAT xdata
xdata	SEGMENT
$unwind$??1BerconDistortion@@UEAA@XZ DD 021319H
	DD	03006520aH
	DD	imagerel __CxxFrameHandler3
	DD	imagerel $cppxdata$??1BerconDistortion@@UEAA@XZ
xdata	ENDS
;	COMDAT xdata
xdata	SEGMENT
$ip2state$??0BerconDistortion@@QEAA@XZ DD imagerel ??0BerconDistortion@@QEAA@XZ
	DD	0ffffffffH
	DD	imagerel ??0BerconDistortion@@QEAA@XZ+46
	DD	00H
	DD	imagerel ??0BerconDistortion@@QEAA@XZ+408
	DD	0ffffffffH
xdata	ENDS
;	COMDAT xdata
xdata	SEGMENT
$stateUnwindMap$??0BerconDistortion@@QEAA@XZ DD 0ffffffffH
	DD	imagerel ?dtor$0@?0???0BerconDistortion@@QEAA@XZ@4HA
xdata	ENDS
;	COMDAT CONST
CONST	SEGMENT
$cppxdata$??0BerconDistortion@@QEAA@XZ DD 019930522H
	DD	01H
	DD	imagerel $stateUnwindMap$??0BerconDistortion@@QEAA@XZ
	DD	00H
	DD	00H
	DD	03H
	DD	imagerel $ip2state$??0BerconDistortion@@QEAA@XZ
	DD	040H
	DD	00H
	DD	00H
CONST	ENDS
;	COMDAT xdata
xdata	SEGMENT
$unwind$??0BerconDistortion@@QEAA@XZ DD 0a2411H
	DD	0116424H
	DD	0105420H
	DD	0f341cH
	DD	0f00c9210H
	DD	07008e00aH
	DD	imagerel __CxxFrameHandler3
	DD	imagerel $cppxdata$??0BerconDistortion@@QEAA@XZ
xdata	ENDS
;	COMDAT xdata
xdata	SEGMENT
$unwind$?GetParamBlockByID@BerconDistortion@@UEAAPEAVIParamBlock2@@F@Z DD 040a01H
	DD	06340aH
	DD	07006320aH
xdata	ENDS
;	COMDAT xdata
xdata	SEGMENT
$unwind$?dtor$0@?0??SubAnimName@BerconDistortion@@UEAA?AVWStr@@H@Z@4HA DD 020601H
	DD	050023206H
xdata	ENDS
;	COMDAT xdata
xdata	SEGMENT
$ip2state$?SubAnimName@BerconDistortion@@UEAA?AVWStr@@H@Z DD imagerel ?SubAnimName@BerconDistortion@@UEAA?AVWStr@@H@Z
	DD	0ffffffffH
	DD	imagerel ?SubAnimName@BerconDistortion@@UEAA?AVWStr@@H@Z+103
	DD	00H
xdata	ENDS
;	COMDAT xdata
xdata	SEGMENT
$stateUnwindMap$?SubAnimName@BerconDistortion@@UEAA?AVWStr@@H@Z DD 0ffffffffH
	DD	imagerel ?dtor$0@?0??SubAnimName@BerconDistortion@@UEAA?AVWStr@@H@Z@4HA
xdata	ENDS
;	COMDAT CONST
CONST	SEGMENT
$cppxdata$?SubAnimName@BerconDistortion@@UEAA?AVWStr@@H@Z DD 019930522H
	DD	01H
	DD	imagerel $stateUnwindMap$?SubAnimName@BerconDistortion@@UEAA?AVWStr@@H@Z
	DD	00H
	DD	00H
	DD	02H
	DD	imagerel $ip2state$?SubAnimName@BerconDistortion@@UEAA?AVWStr@@H@Z
	DD	028H
	DD	00H
	DD	00H
CONST	ENDS
;	COMDAT xdata
xdata	SEGMENT
$unwind$?SubAnimName@BerconDistortion@@UEAA?AVWStr@@H@Z DD 021311H
	DD	03006520aH
	DD	imagerel __CxxFrameHandler3
	DD	imagerel $cppxdata$?SubAnimName@BerconDistortion@@UEAA?AVWStr@@H@Z
xdata	ENDS
;	COMDAT xdata
xdata	SEGMENT
$chain$1$?NotifyRefChanged@BerconDistortion@@UEAA?AW4RefResult@@AEBVInterval@@PEAVReferenceTarget@@AEA_KIH@Z DD 021H
	DD	imagerel $LN18
	DD	imagerel $LN18+51
	DD	imagerel $unwind$?NotifyRefChanged@BerconDistortion@@UEAA?AW4RefResult@@AEBVInterval@@PEAVReferenceTarget@@AEA_KIH@Z
xdata	ENDS
;	COMDAT xdata
xdata	SEGMENT
$chain$0$?NotifyRefChanged@BerconDistortion@@UEAA?AW4RefResult@@AEBVInterval@@PEAVReferenceTarget@@AEA_KIH@Z DD 020521H
	DD	063405H
	DD	imagerel $LN18
	DD	imagerel $LN18+51
	DD	imagerel $unwind$?NotifyRefChanged@BerconDistortion@@UEAA?AW4RefResult@@AEBVInterval@@PEAVReferenceTarget@@AEA_KIH@Z
xdata	ENDS
;	COMDAT xdata
xdata	SEGMENT
$unwind$?NotifyRefChanged@BerconDistortion@@UEAA?AW4RefResult@@AEBVInterval@@PEAVReferenceTarget@@AEA_KIH@Z DD 020601H
	DD	070023206H
xdata	ENDS
;	COMDAT xdata
xdata	SEGMENT
$ip2state$?Clone@BerconDistortion@@UEAAPEAVReferenceTarget@@AEAVRemapDir@@@Z DD imagerel ?Clone@BerconDistortion@@UEAAPEAVReferenceTarget@@AEAVRemapDir@@@Z
	DD	0ffffffffH
	DD	imagerel ?Clone@BerconDistortion@@UEAAPEAVReferenceTarget@@AEAVRemapDir@@@Z+54
	DD	00H
	DD	imagerel ?Clone@BerconDistortion@@UEAAPEAVReferenceTarget@@AEAVRemapDir@@@Z+77
	DD	0ffffffffH
xdata	ENDS
;	COMDAT xdata
xdata	SEGMENT
$stateUnwindMap$?Clone@BerconDistortion@@UEAAPEAVReferenceTarget@@AEAVRemapDir@@@Z DD 0ffffffffH
	DD	imagerel ?dtor$0@?0??Clone@BerconDistortion@@UEAAPEAVReferenceTarget@@AEAVRemapDir@@@Z@4HA
xdata	ENDS
;	COMDAT CONST
CONST	SEGMENT
$cppxdata$?Clone@BerconDistortion@@UEAAPEAVReferenceTarget@@AEAVRemapDir@@@Z DD 019930522H
	DD	01H
	DD	imagerel $stateUnwindMap$?Clone@BerconDistortion@@UEAAPEAVReferenceTarget@@AEAVRemapDir@@@Z
	DD	00H
	DD	00H
	DD	03H
	DD	imagerel $ip2state$?Clone@BerconDistortion@@UEAAPEAVReferenceTarget@@AEAVRemapDir@@@Z
	DD	020H
	DD	00H
	DD	00H
CONST	ENDS
;	COMDAT xdata
xdata	SEGMENT
$unwind$?Clone@BerconDistortion@@UEAAPEAVReferenceTarget@@AEAVRemapDir@@@Z DD 0a2011H
	DD	0e5420H
	DD	0d341bH
	DD	0f009520dH
	DD	0c005e007H
	DD	060027003H
	DD	imagerel __CxxFrameHandler3
	DD	imagerel $cppxdata$?Clone@BerconDistortion@@UEAAPEAVReferenceTarget@@AEAVRemapDir@@@Z
xdata	ENDS
;	COMDAT xdata
xdata	SEGMENT
$unwind$?GetClassName@BerconDistortion@@UEAAXAEAVWStr@@@Z DD 020601H
	DD	030023206H
xdata	ENDS
;	COMDAT xdata
xdata	SEGMENT
$ip2state$?EvalNormalPerturb@BerconDistortion@@UEAA?AVPoint3@@AEAVShadeContext@@@Z DD imagerel ?EvalNormalPerturb@BerconDistortion@@UEAA?AVPoint3@@AEAVShadeContext@@@Z
	DD	0ffffffffH
	DD	imagerel ?EvalNormalPerturb@BerconDistortion@@UEAA?AVPoint3@@AEAVShadeContext@@@Z+133
	DD	00H
	DD	imagerel ?EvalNormalPerturb@BerconDistortion@@UEAA?AVPoint3@@AEAVShadeContext@@@Z+304
	DD	01H
	DD	imagerel ?EvalNormalPerturb@BerconDistortion@@UEAA?AVPoint3@@AEAVShadeContext@@@Z+332
	DD	04H
	DD	imagerel ?EvalNormalPerturb@BerconDistortion@@UEAA?AVPoint3@@AEAVShadeContext@@@Z+354
	DD	0ffffffffH
xdata	ENDS
;	COMDAT xdata
xdata	SEGMENT
$stateUnwindMap$?EvalNormalPerturb@BerconDistortion@@UEAA?AVPoint3@@AEAVShadeContext@@@Z DD 0ffffffffH
	DD	imagerel ?dtor$0@?0??EvalNormalPerturb@BerconDistortion@@UEAA?AVPoint3@@AEAVShadeContext@@@Z@4HA
	DD	0ffffffffH
	DD	imagerel ?dtor$1@?0??EvalNormalPerturb@BerconDistortion@@UEAA?AVPoint3@@AEAVShadeContext@@@Z@4HA
	DD	01H
	DD	imagerel ?dtor$2@?0??EvalNormalPerturb@BerconDistortion@@UEAA?AVPoint3@@AEAVShadeContext@@@Z@4HA
	DD	01H
	DD	imagerel ?dtor$3@?0??EvalNormalPerturb@BerconDistortion@@UEAA?AVPoint3@@AEAVShadeContext@@@Z@4HA
	DD	0ffffffffH
	DD	imagerel ?dtor$4@?0??EvalNormalPerturb@BerconDistortion@@UEAA?AVPoint3@@AEAVShadeContext@@@Z@4HA
	DD	04H
	DD	imagerel ?dtor$5@?0??EvalNormalPerturb@BerconDistortion@@UEAA?AVPoint3@@AEAVShadeContext@@@Z@4HA
	DD	04H
	DD	imagerel ?dtor$6@?0??EvalNormalPerturb@BerconDistortion@@UEAA?AVPoint3@@AEAVShadeContext@@@Z@4HA
xdata	ENDS
;	COMDAT CONST
CONST	SEGMENT
$cppxdata$?EvalNormalPerturb@BerconDistortion@@UEAA?AVPoint3@@AEAVShadeContext@@@Z DD 019930522H
	DD	07H
	DD	imagerel $stateUnwindMap$?EvalNormalPerturb@BerconDistortion@@UEAA?AVPoint3@@AEAVShadeContext@@@Z
	DD	00H
	DD	00H
	DD	05H
	DD	imagerel $ip2state$?EvalNormalPerturb@BerconDistortion@@UEAA?AVPoint3@@AEAVShadeContext@@@Z
	DD	040H
	DD	00H
	DD	00H
CONST	ENDS
;	COMDAT xdata
xdata	SEGMENT
$unwind$?EvalNormalPerturb@BerconDistortion@@UEAA?AVPoint3@@AEAVShadeContext@@@Z DD 0b2b11H
	DD	08b742bH
	DD	08a6427H
	DD	0893423H
	DD	0840116H
	DD	0e006f008H
	DD	05004H
	DD	imagerel __CxxFrameHandler3
	DD	imagerel $cppxdata$?EvalNormalPerturb@BerconDistortion@@UEAA?AVPoint3@@AEAVShadeContext@@@Z
xdata	ENDS
;	COMDAT xdata
xdata	SEGMENT
$ip2state$?EvalMono@BerconDistortion@@UEAAMAEAVShadeContext@@@Z DD imagerel ?EvalMono@BerconDistortion@@UEAAMAEAVShadeContext@@@Z
	DD	0ffffffffH
	DD	imagerel ?EvalMono@BerconDistortion@@UEAAMAEAVShadeContext@@@Z+113
	DD	00H
	DD	imagerel ?EvalMono@BerconDistortion@@UEAAMAEAVShadeContext@@@Z+284
	DD	01H
	DD	imagerel ?EvalMono@BerconDistortion@@UEAAMAEAVShadeContext@@@Z+312
	DD	04H
	DD	imagerel ?EvalMono@BerconDistortion@@UEAAMAEAVShadeContext@@@Z+334
	DD	0ffffffffH
xdata	ENDS
;	COMDAT xdata
xdata	SEGMENT
$stateUnwindMap$?EvalMono@BerconDistortion@@UEAAMAEAVShadeContext@@@Z DD 0ffffffffH
	DD	imagerel ?dtor$0@?0??EvalMono@BerconDistortion@@UEAAMAEAVShadeContext@@@Z@4HA
	DD	0ffffffffH
	DD	imagerel ?dtor$1@?0??EvalMono@BerconDistortion@@UEAAMAEAVShadeContext@@@Z@4HA
	DD	01H
	DD	imagerel ?dtor$2@?0??EvalMono@BerconDistortion@@UEAAMAEAVShadeContext@@@Z@4HA
	DD	01H
	DD	imagerel ?dtor$3@?0??EvalMono@BerconDistortion@@UEAAMAEAVShadeContext@@@Z@4HA
	DD	0ffffffffH
	DD	imagerel ?dtor$4@?0??EvalMono@BerconDistortion@@UEAAMAEAVShadeContext@@@Z@4HA
	DD	04H
	DD	imagerel ?dtor$5@?0??EvalMono@BerconDistortion@@UEAAMAEAVShadeContext@@@Z@4HA
	DD	04H
	DD	imagerel ?dtor$6@?0??EvalMono@BerconDistortion@@UEAAMAEAVShadeContext@@@Z@4HA
xdata	ENDS
;	COMDAT CONST
CONST	SEGMENT
$cppxdata$?EvalMono@BerconDistortion@@UEAAMAEAVShadeContext@@@Z DD 019930522H
	DD	07H
	DD	imagerel $stateUnwindMap$?EvalMono@BerconDistortion@@UEAAMAEAVShadeContext@@@Z
	DD	00H
	DD	00H
	DD	05H
	DD	imagerel $ip2state$?EvalMono@BerconDistortion@@UEAAMAEAVShadeContext@@@Z
	DD	040H
	DD	00H
	DD	00H
CONST	ENDS
;	COMDAT xdata
xdata	SEGMENT
$unwind$?EvalMono@BerconDistortion@@UEAAMAEAVShadeContext@@@Z DD 0b2b11H
	DD	042682bH
	DD	08c6426H
	DD	08b3422H
	DD	0860115H
	DD	07005e007H
	DD	05004H
	DD	imagerel __CxxFrameHandler3
	DD	imagerel $cppxdata$?EvalMono@BerconDistortion@@UEAAMAEAVShadeContext@@@Z
xdata	ENDS
;	COMDAT xdata
xdata	SEGMENT
$ip2state$?EvalColor@BerconDistortion@@UEAA?AVAColor@@AEAVShadeContext@@@Z DD imagerel ?EvalColor@BerconDistortion@@UEAA?AVAColor@@AEAVShadeContext@@@Z
	DD	0ffffffffH
	DD	imagerel ?EvalColor@BerconDistortion@@UEAA?AVAColor@@AEAVShadeContext@@@Z+163
	DD	00H
	DD	imagerel ?EvalColor@BerconDistortion@@UEAA?AVAColor@@AEAVShadeContext@@@Z+337
	DD	01H
	DD	imagerel ?EvalColor@BerconDistortion@@UEAA?AVAColor@@AEAVShadeContext@@@Z+365
	DD	04H
	DD	imagerel ?EvalColor@BerconDistortion@@UEAA?AVAColor@@AEAVShadeContext@@@Z+387
	DD	0ffffffffH
xdata	ENDS
;	COMDAT xdata
xdata	SEGMENT
$stateUnwindMap$?EvalColor@BerconDistortion@@UEAA?AVAColor@@AEAVShadeContext@@@Z DD 0ffffffffH
	DD	imagerel ?dtor$0@?0??EvalColor@BerconDistortion@@UEAA?AVAColor@@AEAVShadeContext@@@Z@4HA
	DD	0ffffffffH
	DD	imagerel ?dtor$1@?0??EvalColor@BerconDistortion@@UEAA?AVAColor@@AEAVShadeContext@@@Z@4HA
	DD	01H
	DD	imagerel ?dtor$2@?0??EvalColor@BerconDistortion@@UEAA?AVAColor@@AEAVShadeContext@@@Z@4HA
	DD	01H
	DD	imagerel ?dtor$3@?0??EvalColor@BerconDistortion@@UEAA?AVAColor@@AEAVShadeContext@@@Z@4HA
	DD	0ffffffffH
	DD	imagerel ?dtor$4@?0??EvalColor@BerconDistortion@@UEAA?AVAColor@@AEAVShadeContext@@@Z@4HA
	DD	04H
	DD	imagerel ?dtor$5@?0??EvalColor@BerconDistortion@@UEAA?AVAColor@@AEAVShadeContext@@@Z@4HA
	DD	04H
	DD	imagerel ?dtor$6@?0??EvalColor@BerconDistortion@@UEAA?AVAColor@@AEAVShadeContext@@@Z@4HA
xdata	ENDS
;	COMDAT CONST
CONST	SEGMENT
$cppxdata$?EvalColor@BerconDistortion@@UEAA?AVAColor@@AEAVShadeContext@@@Z DD 019930522H
	DD	07H
	DD	imagerel $stateUnwindMap$?EvalColor@BerconDistortion@@UEAA?AVAColor@@AEAVShadeContext@@@Z
	DD	00H
	DD	00H
	DD	05H
	DD	imagerel $ip2state$?EvalColor@BerconDistortion@@UEAA?AVAColor@@AEAVShadeContext@@@Z
	DD	040H
	DD	00H
	DD	00H
CONST	ENDS
;	COMDAT xdata
xdata	SEGMENT
$unwind$?EvalColor@BerconDistortion@@UEAA?AVAColor@@AEAVShadeContext@@@Z DD 0b2b11H
	DD	08b742bH
	DD	08a6427H
	DD	0893423H
	DD	0840116H
	DD	0e006f008H
	DD	05004H
	DD	imagerel __CxxFrameHandler3
	DD	imagerel $cppxdata$?EvalColor@BerconDistortion@@UEAA?AVAColor@@AEAVShadeContext@@@Z
xdata	ENDS
;	COMDAT xdata
xdata	SEGMENT
$unwind$?dtor$0@?0??GetSubTexmapSlotName@BerconDistortion@@UEAA?AVWStr@@H@Z@4HA DD 020601H
	DD	050023206H
xdata	ENDS
;	COMDAT xdata
xdata	SEGMENT
$ip2state$?GetSubTexmapSlotName@BerconDistortion@@UEAA?AVWStr@@H@Z DD imagerel ?GetSubTexmapSlotName@BerconDistortion@@UEAA?AVWStr@@H@Z
	DD	0ffffffffH
	DD	imagerel ?GetSubTexmapSlotName@BerconDistortion@@UEAA?AVWStr@@H@Z+119
	DD	00H
xdata	ENDS
;	COMDAT xdata
xdata	SEGMENT
$stateUnwindMap$?GetSubTexmapSlotName@BerconDistortion@@UEAA?AVWStr@@H@Z DD 0ffffffffH
	DD	imagerel ?dtor$0@?0??GetSubTexmapSlotName@BerconDistortion@@UEAA?AVWStr@@H@Z@4HA
xdata	ENDS
;	COMDAT CONST
CONST	SEGMENT
$cppxdata$?GetSubTexmapSlotName@BerconDistortion@@UEAA?AVWStr@@H@Z DD 019930522H
	DD	01H
	DD	imagerel $stateUnwindMap$?GetSubTexmapSlotName@BerconDistortion@@UEAA?AVWStr@@H@Z
	DD	00H
	DD	00H
	DD	02H
	DD	imagerel $ip2state$?GetSubTexmapSlotName@BerconDistortion@@UEAA?AVWStr@@H@Z
	DD	028H
	DD	00H
	DD	00H
CONST	ENDS
;	COMDAT xdata
xdata	SEGMENT
$unwind$?GetSubTexmapSlotName@BerconDistortion@@UEAA?AVWStr@@H@Z DD 021311H
	DD	03006520aH
	DD	imagerel __CxxFrameHandler3
	DD	imagerel $cppxdata$?GetSubTexmapSlotName@BerconDistortion@@UEAA?AVWStr@@H@Z
xdata	ENDS
;	COMDAT xdata
xdata	SEGMENT
$unwind$?SetSubTexmap@BerconDistortion@@UEAAXHPEAVTexmap@@@Z DD 040a01H
	DD	06340aH
	DD	07006320aH
xdata	ENDS
;	COMDAT xdata
xdata	SEGMENT
$unwind$?Validity@BerconDistortion@@UEAA?AVInterval@@H@Z DD 040a01H
	DD	07340aH
	DD	07006320aH
xdata	ENDS
;	COMDAT xdata
xdata	SEGMENT
$unwind$?Reset@BerconDistortion@@UEAAXXZ DD 040a01H
	DD	0a340aH
	DD	07006720aH
xdata	ENDS
;	COMDAT xdata
xdata	SEGMENT
$chain$4$?Update@BerconDistortion@@UEAAXHAEAVInterval@@@Z DD 021H
	DD	imagerel $LN18
	DD	imagerel $LN18+32
	DD	imagerel $unwind$?Update@BerconDistortion@@UEAAXHAEAVInterval@@@Z
xdata	ENDS
;	COMDAT xdata
xdata	SEGMENT
$chain$3$?Update@BerconDistortion@@UEAAXHAEAVInterval@@@Z DD 021H
	DD	imagerel $LN18+32
	DD	imagerel $LN18+61
	DD	imagerel $chain$0$?Update@BerconDistortion@@UEAAXHAEAVInterval@@@Z
xdata	ENDS
;	COMDAT xdata
xdata	SEGMENT
$chain$2$?Update@BerconDistortion@@UEAAXHAEAVInterval@@@Z DD 041121H
	DD	0d7411H
	DD	0b3405H
	DD	imagerel $LN18+32
	DD	imagerel $LN18+61
	DD	imagerel $chain$0$?Update@BerconDistortion@@UEAAXHAEAVInterval@@@Z
xdata	ENDS
;	COMDAT xdata
xdata	SEGMENT
$chain$0$?Update@BerconDistortion@@UEAAXHAEAVInterval@@@Z DD 020521H
	DD	0c6405H
	DD	imagerel $LN18
	DD	imagerel $LN18+32
	DD	imagerel $unwind$?Update@BerconDistortion@@UEAAXHAEAVInterval@@@Z
xdata	ENDS
;	COMDAT xdata
xdata	SEGMENT
$unwind$?Update@BerconDistortion@@UEAAXHAEAVInterval@@@Z DD 040a01H
	DD	0f006520aH
	DD	05002e004H
xdata	ENDS
;	COMDAT xdata
xdata	SEGMENT
$ip2state$?CreateParamDlg@BerconDistortion@@UEAAPEAVParamDlg@@PEAUHWND__@@PEAVIMtlParams@@@Z DD imagerel ?CreateParamDlg@BerconDistortion@@UEAAPEAVParamDlg@@PEAUHWND__@@PEAVIMtlParams@@@Z
	DD	0ffffffffH
	DD	imagerel ?CreateParamDlg@BerconDistortion@@UEAAPEAVParamDlg@@PEAUHWND__@@PEAVIMtlParams@@@Z+58
	DD	00H
	DD	imagerel ?CreateParamDlg@BerconDistortion@@UEAAPEAVParamDlg@@PEAUHWND__@@PEAVIMtlParams@@@Z+73
	DD	01H
	DD	imagerel ?CreateParamDlg@BerconDistortion@@UEAAPEAVParamDlg@@PEAUHWND__@@PEAVIMtlParams@@@Z+87
	DD	0ffffffffH
xdata	ENDS
;	COMDAT xdata
xdata	SEGMENT
$stateUnwindMap$?CreateParamDlg@BerconDistortion@@UEAAPEAVParamDlg@@PEAUHWND__@@PEAVIMtlParams@@@Z DD 0ffffffffH
	DD	imagerel ?dtor$0@?0??CreateParamDlg@BerconDistortion@@UEAAPEAVParamDlg@@PEAUHWND__@@PEAVIMtlParams@@@Z@4HA
	DD	00H
	DD	imagerel ?dtor$1@?0??CreateParamDlg@BerconDistortion@@UEAAPEAVParamDlg@@PEAUHWND__@@PEAVIMtlParams@@@Z@4HA
xdata	ENDS
;	COMDAT CONST
CONST	SEGMENT
$cppxdata$?CreateParamDlg@BerconDistortion@@UEAAPEAVParamDlg@@PEAUHWND__@@PEAVIMtlParams@@@Z DD 019930522H
	DD	02H
	DD	imagerel $stateUnwindMap$?CreateParamDlg@BerconDistortion@@UEAAPEAVParamDlg@@PEAUHWND__@@PEAVIMtlParams@@@Z
	DD	00H
	DD	00H
	DD	04H
	DD	imagerel $ip2state$?CreateParamDlg@BerconDistortion@@UEAAPEAVParamDlg@@PEAUHWND__@@PEAVIMtlParams@@@Z
	DD	020H
	DD	00H
	DD	00H
CONST	ENDS
;	COMDAT xdata
xdata	SEGMENT
$unwind$?CreateParamDlg@BerconDistortion@@UEAAPEAVParamDlg@@PEAUHWND__@@PEAVIMtlParams@@@Z DD 041411H
	DD	083414H
	DD	070025206H
	DD	imagerel __CxxFrameHandler3
	DD	imagerel $cppxdata$?CreateParamDlg@BerconDistortion@@UEAAPEAVParamDlg@@PEAUHWND__@@PEAVIMtlParams@@@Z
xdata	ENDS
;	COMDAT xdata
xdata	SEGMENT
$chain$1$?GetActiveTexHandle@BerconDistortion@@UEAA_KHAEAVTexHandleMaker@@@Z DD 021H
	DD	imagerel $LN10
	DD	imagerel $LN10+107
	DD	imagerel $unwind$?GetActiveTexHandle@BerconDistortion@@UEAA_KHAEAVTexHandleMaker@@@Z
xdata	ENDS
;	COMDAT xdata
xdata	SEGMENT
$chain$0$?GetActiveTexHandle@BerconDistortion@@UEAA_KHAEAVTexHandleMaker@@@Z DD 020521H
	DD	0a3405H
	DD	imagerel $LN10
	DD	imagerel $LN10+107
	DD	imagerel $unwind$?GetActiveTexHandle@BerconDistortion@@UEAA_KHAEAVTexHandleMaker@@@Z
xdata	ENDS
;	COMDAT xdata
xdata	SEGMENT
$unwind$?GetActiveTexHandle@BerconDistortion@@UEAA_KHAEAVTexHandleMaker@@@Z DD 081501H
	DD	0d7415H
	DD	0c6415H
	DD	0b5415H
	DD	0e0117215H
xdata	ENDS
;	COMDAT xdata
xdata	SEGMENT
$unwind$?ActivateTexDisplay@BerconDistortion@@UEAAXH@Z DD 020901H
	DD	030053209H
xdata	ENDS
;	COMDAT xdata
xdata	SEGMENT
$unwind$?DiscardTexHandle@BerconDistortion@@QEAAXXZ DD 020601H
	DD	030023206H
xdata	ENDS
;	COMDAT xdata
xdata	SEGMENT
$unwind$?getDistVector@BerconDistortion@@QEAA?AVPoint3@@AEAVShadeContext@@@Z DD 081801H
	DD	046818H
	DD	0d640fH
	DD	0c340fH
	DD	0700b920fH
xdata	ENDS
;	COMDAT xdata
xdata	SEGMENT
$unwind$??0BerconXYZ@@QEAA@XZ DD 081401H
	DD	086414H
	DD	075414H
	DD	063414H
	DD	070103214H
xdata	ENDS
;	COMDAT xdata
xdata	SEGMENT
$ip2state$??_GBerconXYZDlgProc@@UEAAPEAXI@Z DD imagerel ??_GBerconXYZDlgProc@@UEAAPEAXI@Z
	DD	0ffffffffH
xdata	ENDS
;	COMDAT xdata
xdata	SEGMENT
$stateUnwindMap$??_GBerconXYZDlgProc@@UEAAPEAXI@Z DD 0ffffffffH
	DD	imagerel ?dtor$0@?0???_GBerconXYZDlgProc@@UEAAPEAXI@Z@4HA
xdata	ENDS
;	COMDAT CONST
CONST	SEGMENT
$cppxdata$??_GBerconXYZDlgProc@@UEAAPEAXI@Z DD 019930522H
	DD	01H
	DD	imagerel $stateUnwindMap$??_GBerconXYZDlgProc@@UEAAPEAXI@Z
	DD	00H
	DD	00H
	DD	01H
	DD	imagerel $ip2state$??_GBerconXYZDlgProc@@UEAAPEAXI@Z
	DD	020H
	DD	00H
	DD	04H
CONST	ENDS
;	COMDAT xdata
xdata	SEGMENT
$unwind$??_GBerconXYZDlgProc@@UEAAPEAXI@Z DD 021311H
	DD	03006520aH
	DD	imagerel __CxxFrameHandler3
	DD	imagerel $cppxdata$??_GBerconXYZDlgProc@@UEAAPEAXI@Z
xdata	ENDS
;	COMDAT xdata
xdata	SEGMENT
$ip2state$??1BerconXYZDlgProc@@UEAA@XZ DD imagerel ??1BerconXYZDlgProc@@UEAA@XZ
	DD	0ffffffffH
xdata	ENDS
;	COMDAT xdata
xdata	SEGMENT
$stateUnwindMap$??1BerconXYZDlgProc@@UEAA@XZ DD 0ffffffffH
	DD	imagerel ?dtor$0@?0???1BerconXYZDlgProc@@UEAA@XZ@4HA
xdata	ENDS
;	COMDAT CONST
CONST	SEGMENT
$cppxdata$??1BerconXYZDlgProc@@UEAA@XZ DD 019930522H
	DD	01H
	DD	imagerel $stateUnwindMap$??1BerconXYZDlgProc@@UEAA@XZ
	DD	00H
	DD	00H
	DD	01H
	DD	imagerel $ip2state$??1BerconXYZDlgProc@@UEAA@XZ
	DD	00H
	DD	00H
	DD	04H
CONST	ENDS
;	COMDAT xdata
xdata	SEGMENT
$unwind$??1BerconXYZDlgProc@@UEAA@XZ DD 011111H
	DD	02209H
	DD	imagerel __CxxFrameHandler3
	DD	imagerel $cppxdata$??1BerconXYZDlgProc@@UEAA@XZ
xdata	ENDS
;	COMDAT xdata
xdata	SEGMENT
$chain$1$?DlgProc@BerconXYZDlgProc@@UEAA_JHPEAVIParamMap2@@PEAUHWND__@@I_K_J@Z DD 040a21H
	DD	0df40aH
	DD	0c7405H
	DD	imagerel $LN9
	DD	imagerel $LN9+787
	DD	imagerel $unwind$?DlgProc@BerconXYZDlgProc@@UEAA_JHPEAVIParamMap2@@PEAUHWND__@@I_K_J@Z
xdata	ENDS
;	COMDAT xdata
xdata	SEGMENT
$unwind$?DlgProc@BerconXYZDlgProc@@UEAA_JHPEAVIParamMap2@@PEAUHWND__@@I_K_J@Z DD 060d01H
	DD	0e340dH
	DD	0e009720dH
	DD	050066007H
xdata	ENDS
;	COMDAT xdata
xdata	SEGMENT
$ip2state$??0BerconXYZDlgProc@@QEAA@PEAVReferenceTarget@@@Z DD imagerel ??0BerconXYZDlgProc@@QEAA@PEAVReferenceTarget@@@Z
	DD	0ffffffffH
	DD	imagerel ??0BerconXYZDlgProc@@QEAA@PEAVReferenceTarget@@@Z+27
	DD	00H
	DD	imagerel ??0BerconXYZDlgProc@@QEAA@PEAVReferenceTarget@@@Z+41
	DD	0ffffffffH
xdata	ENDS
;	COMDAT xdata
xdata	SEGMENT
$stateUnwindMap$??0BerconXYZDlgProc@@QEAA@PEAVReferenceTarget@@@Z DD 0ffffffffH
	DD	imagerel ?dtor$0@?0???0BerconXYZDlgProc@@QEAA@PEAVReferenceTarget@@@Z@4HA
xdata	ENDS
;	COMDAT CONST
CONST	SEGMENT
$cppxdata$??0BerconXYZDlgProc@@QEAA@PEAVReferenceTarget@@@Z DD 019930522H
	DD	01H
	DD	imagerel $stateUnwindMap$??0BerconXYZDlgProc@@QEAA@PEAVReferenceTarget@@@Z
	DD	00H
	DD	00H
	DD	03H
	DD	imagerel $ip2state$??0BerconXYZDlgProc@@QEAA@PEAVReferenceTarget@@@Z
	DD	00H
	DD	00H
	DD	00H
CONST	ENDS
;	COMDAT xdata
xdata	SEGMENT
$unwind$??0BerconXYZDlgProc@@QEAA@PEAVReferenceTarget@@@Z DD 011111H
	DD	02209H
	DD	imagerel __CxxFrameHandler3
	DD	imagerel $cppxdata$??0BerconXYZDlgProc@@QEAA@PEAVReferenceTarget@@@Z
xdata	ENDS
;	COMDAT xdata
xdata	SEGMENT
$ip2state$??_GXYZ_Desc@@UEAAPEAXI@Z DD imagerel ??_GXYZ_Desc@@UEAAPEAXI@Z
	DD	0ffffffffH
xdata	ENDS
;	COMDAT xdata
xdata	SEGMENT
$stateUnwindMap$??_GXYZ_Desc@@UEAAPEAXI@Z DD 0ffffffffH
	DD	imagerel ?dtor$0@?0???_GXYZ_Desc@@UEAAPEAXI@Z@4HA
xdata	ENDS
;	COMDAT CONST
CONST	SEGMENT
$cppxdata$??_GXYZ_Desc@@UEAAPEAXI@Z DD 019930522H
	DD	01H
	DD	imagerel $stateUnwindMap$??_GXYZ_Desc@@UEAAPEAXI@Z
	DD	00H
	DD	00H
	DD	01H
	DD	imagerel $ip2state$??_GXYZ_Desc@@UEAAPEAXI@Z
	DD	020H
	DD	00H
	DD	04H
CONST	ENDS
;	COMDAT xdata
xdata	SEGMENT
$unwind$??_GXYZ_Desc@@UEAAPEAXI@Z DD 041811H
	DD	093418H
	DD	07006520aH
	DD	imagerel __CxxFrameHandler3
	DD	imagerel $cppxdata$??_GXYZ_Desc@@UEAAPEAXI@Z
xdata	ENDS
;	COMDAT xdata
xdata	SEGMENT
$ip2state$??1XYZ_Desc@@UEAA@XZ DD imagerel ??1XYZ_Desc@@UEAA@XZ
	DD	0ffffffffH
xdata	ENDS
;	COMDAT xdata
xdata	SEGMENT
$stateUnwindMap$??1XYZ_Desc@@UEAA@XZ DD 0ffffffffH
	DD	imagerel ?dtor$0@?0???1XYZ_Desc@@UEAA@XZ@4HA
xdata	ENDS
;	COMDAT CONST
CONST	SEGMENT
$cppxdata$??1XYZ_Desc@@UEAA@XZ DD 019930522H
	DD	01H
	DD	imagerel $stateUnwindMap$??1XYZ_Desc@@UEAA@XZ
	DD	00H
	DD	00H
	DD	01H
	DD	imagerel $ip2state$??1XYZ_Desc@@UEAA@XZ
	DD	020H
	DD	00H
	DD	04H
CONST	ENDS
;	COMDAT xdata
xdata	SEGMENT
$unwind$??1XYZ_Desc@@UEAA@XZ DD 011211H
	DD	06209H
	DD	imagerel __CxxFrameHandler3
	DD	imagerel $cppxdata$??1XYZ_Desc@@UEAA@XZ
xdata	ENDS
;	COMDAT xdata
xdata	SEGMENT
$ip2state$??0XYZ_Desc@@QEAA@PEAVClassDesc2@@HHHHHHH@Z DD imagerel ??0XYZ_Desc@@QEAA@PEAVClassDesc2@@HHHHHHH@Z
	DD	0ffffffffH
	DD	imagerel ??0XYZ_Desc@@QEAA@PEAVClassDesc2@@HHHHHHH@Z+4794
	DD	00H
	DD	imagerel ??0XYZ_Desc@@QEAA@PEAVClassDesc2@@HHHHHHH@Z+4804
	DD	0ffffffffH
xdata	ENDS
;	COMDAT xdata
xdata	SEGMENT
$stateUnwindMap$??0XYZ_Desc@@QEAA@PEAVClassDesc2@@HHHHHHH@Z DD 0ffffffffH
	DD	imagerel ?dtor$0@?0???0XYZ_Desc@@QEAA@PEAVClassDesc2@@HHHHHHH@Z@4HA
xdata	ENDS
;	COMDAT CONST
CONST	SEGMENT
$cppxdata$??0XYZ_Desc@@QEAA@PEAVClassDesc2@@HHHHHHH@Z DD 019930522H
	DD	01H
	DD	imagerel $stateUnwindMap$??0XYZ_Desc@@QEAA@PEAVClassDesc2@@HHHHHHH@Z
	DD	00H
	DD	00H
	DD	03H
	DD	imagerel $ip2state$??0XYZ_Desc@@QEAA@PEAVClassDesc2@@HHHHHHH@Z
	DD	0e70H
	DD	00H
	DD	00H
CONST	ENDS
;	COMDAT xdata
xdata	SEGMENT
$unwind$??0XYZ_Desc@@QEAA@PEAVClassDesc2@@HHHHHHH@Z DD 031711H
	DD	01d0010fH
	DD	03008H
	DD	imagerel __CxxFrameHandler3
	DD	imagerel $cppxdata$??0XYZ_Desc@@QEAA@PEAVClassDesc2@@HHHHHHH@Z
xdata	ENDS
;	COMDAT xdata
xdata	SEGMENT
$ip2state$??_GBerconSC@@UEAAPEAXI@Z DD imagerel ??_GBerconSC@@UEAAPEAXI@Z
	DD	0ffffffffH
	DD	imagerel ??_GBerconSC@@UEAAPEAXI@Z+29
	DD	00H
	DD	imagerel ??_GBerconSC@@UEAAPEAXI@Z+48
	DD	03H
	DD	imagerel ??_GBerconSC@@UEAAPEAXI@Z+64
	DD	0ffffffffH
xdata	ENDS
;	COMDAT xdata
xdata	SEGMENT
$stateUnwindMap$??_GBerconSC@@UEAAPEAXI@Z DD 0ffffffffH
	DD	imagerel ?dtor$0@?0???_GBerconSC@@UEAAPEAXI@Z@4HA
	DD	00H
	DD	imagerel ?dtor$1@?0???_GBerconSC@@UEAAPEAXI@Z@4HA
	DD	00H
	DD	imagerel ?dtor$2@?0???_GBerconSC@@UEAAPEAXI@Z@4HA
	DD	0ffffffffH
	DD	imagerel ?dtor$3@?0???_GBerconSC@@UEAAPEAXI@Z@4HA
	DD	03H
	DD	imagerel ?dtor$4@?0???_GBerconSC@@UEAAPEAXI@Z@4HA
	DD	03H
	DD	imagerel ?dtor$5@?0???_GBerconSC@@UEAAPEAXI@Z@4HA
xdata	ENDS
;	COMDAT CONST
CONST	SEGMENT
$cppxdata$??_GBerconSC@@UEAAPEAXI@Z DD 019930522H
	DD	06H
	DD	imagerel $stateUnwindMap$??_GBerconSC@@UEAAPEAXI@Z
	DD	00H
	DD	00H
	DD	04H
	DD	imagerel $ip2state$??_GBerconSC@@UEAAPEAXI@Z
	DD	020H
	DD	00H
	DD	04H
CONST	ENDS
;	COMDAT xdata
xdata	SEGMENT
$unwind$??_GBerconSC@@UEAAPEAXI@Z DD 041811H
	DD	093418H
	DD	07006520aH
	DD	imagerel __CxxFrameHandler3
	DD	imagerel $cppxdata$??_GBerconSC@@UEAAPEAXI@Z
xdata	ENDS
;	COMDAT xdata
xdata	SEGMENT
$ip2state$??1BerconSC@@UEAA@XZ DD imagerel ??1BerconSC@@UEAA@XZ
	DD	0ffffffffH
	DD	imagerel ??1BerconSC@@UEAA@XZ+22
	DD	00H
	DD	imagerel ??1BerconSC@@UEAA@XZ+41
	DD	03H
	DD	imagerel ??1BerconSC@@UEAA@XZ+57
	DD	0ffffffffH
xdata	ENDS
;	COMDAT xdata
xdata	SEGMENT
$stateUnwindMap$??1BerconSC@@UEAA@XZ DD 0ffffffffH
	DD	imagerel ?dtor$0@?0???1BerconSC@@UEAA@XZ@4HA
	DD	00H
	DD	imagerel ?dtor$1@?0???1BerconSC@@UEAA@XZ@4HA
	DD	00H
	DD	imagerel ?dtor$2@?0???1BerconSC@@UEAA@XZ@4HA
	DD	0ffffffffH
	DD	imagerel ?dtor$3@?0???1BerconSC@@UEAA@XZ@4HA
	DD	03H
	DD	imagerel ?dtor$4@?0???1BerconSC@@UEAA@XZ@4HA
	DD	03H
	DD	imagerel ?dtor$5@?0???1BerconSC@@UEAA@XZ@4HA
xdata	ENDS
;	COMDAT CONST
CONST	SEGMENT
$cppxdata$??1BerconSC@@UEAA@XZ DD 019930522H
	DD	06H
	DD	imagerel $stateUnwindMap$??1BerconSC@@UEAA@XZ
	DD	00H
	DD	00H
	DD	04H
	DD	imagerel $ip2state$??1BerconSC@@UEAA@XZ
	DD	020H
	DD	00H
	DD	04H
CONST	ENDS
;	COMDAT xdata
xdata	SEGMENT
$unwind$??1BerconSC@@UEAA@XZ DD 021311H
	DD	03006520aH
	DD	imagerel __CxxFrameHandler3
	DD	imagerel $cppxdata$??1BerconSC@@UEAA@XZ
xdata	ENDS
;	COMDAT xdata
xdata	SEGMENT
$unwind$?DiffuseIllum@BerconSC@@UEAA?AVColor@@XZ DD 020601H
	DD	030023206H
xdata	ENDS
;	COMDAT xdata
xdata	SEGMENT
$unwind$?EvalGlobalEnvironMap@BerconSC@@UEAA?AVAColor@@VPoint3@@@Z DD 060f01H
	DD	09640fH
	DD	08340fH
	DD	0700b520fH
xdata	ENDS
;	COMDAT xdata
xdata	SEGMENT
$unwind$?VectorFromNoScale@BerconSC@@UEAA?AVPoint3@@AEBV2@W4RefFrame@@@Z DD 020601H
	DD	030023206H
xdata	ENDS
;	COMDAT xdata
xdata	SEGMENT
$unwind$?VectorToNoScale@BerconSC@@UEAA?AVPoint3@@AEBV2@W4RefFrame@@@Z DD 020601H
	DD	030023206H
xdata	ENDS
;	COMDAT xdata
xdata	SEGMENT
$unwind$?VectorFrom@BerconSC@@UEAA?AVPoint3@@AEBV2@W4RefFrame@@@Z DD 020601H
	DD	030023206H
xdata	ENDS
;	COMDAT xdata
xdata	SEGMENT
$unwind$?VectorTo@BerconSC@@UEAA?AVPoint3@@AEBV2@W4RefFrame@@@Z DD 020601H
	DD	030023206H
xdata	ENDS
;	COMDAT xdata
xdata	SEGMENT
$unwind$?PointFrom@BerconSC@@UEAA?AVPoint3@@AEBV2@W4RefFrame@@@Z DD 020601H
	DD	030023206H
xdata	ENDS
;	COMDAT xdata
xdata	SEGMENT
$unwind$?PointTo@BerconSC@@UEAA?AVPoint3@@AEBV2@W4RefFrame@@@Z DD 020601H
	DD	030023206H
xdata	ENDS
;	COMDAT xdata
xdata	SEGMENT
$unwind$?EvalEnvironMap@BerconSC@@UEAA?AVAColor@@PEAVTexmap@@VPoint3@@@Z DD 081401H
	DD	0a6414H
	DD	095414H
	DD	083414H
	DD	070105214H
xdata	ENDS
;	COMDAT xdata
xdata	SEGMENT
$unwind$?UVWNormal@BerconSC@@UEAA?AVPoint3@@H@Z DD 020601H
	DD	030023206H
xdata	ENDS
;	COMDAT xdata
xdata	SEGMENT
$unwind$?DUVW@BerconSC@@UEAA?AVPoint3@@H@Z DD 020601H
	DD	030023206H
xdata	ENDS
;	COMDAT xdata
xdata	SEGMENT
$unwind$?UVW@BerconSC@@UEAA?AVPoint3@@H@Z DD 020601H
	DD	030023206H
xdata	ENDS
;	COMDAT xdata
xdata	SEGMENT
$unwind$?SurfacePtScreen@BerconSC@@UEAA?AVPoint2@@XZ DD 020601H
	DD	030023206H
xdata	ENDS
;	COMDAT xdata
xdata	SEGMENT
$unwind$?ScreenCoord@BerconSC@@UEAA?AVIPoint2@@XZ DD 020601H
	DD	030023206H
xdata	ENDS
;	COMDAT xdata
xdata	SEGMENT
$unwind$?ScreenUV@BerconSC@@UEAAXAEAVPoint2@@0@Z DD 040a01H
	DD	06340aH
	DD	07006320aH
xdata	ENDS
;	COMDAT xdata
xdata	SEGMENT
$unwind$?DPObjRelBox@BerconSC@@UEAA?AVPoint3@@XZ DD 020601H
	DD	030023206H
xdata	ENDS
;	COMDAT xdata
xdata	SEGMENT
$unwind$?PObjRelBox@BerconSC@@UEAA?AVPoint3@@XZ DD 020601H
	DD	030023206H
xdata	ENDS
;	COMDAT xdata
xdata	SEGMENT
$unwind$?ObjectBox@BerconSC@@UEAA?AVBox3@@XZ DD 020601H
	DD	030023206H
xdata	ENDS
;	COMDAT xdata
xdata	SEGMENT
$unwind$?DPObj@BerconSC@@UEAA?AVPoint3@@XZ DD 020601H
	DD	030023206H
xdata	ENDS
;	COMDAT xdata
xdata	SEGMENT
$unwind$?PObj@BerconSC@@UEAA?AVPoint3@@XZ DD 020601H
	DD	030027206H
xdata	ENDS
;	COMDAT xdata
xdata	SEGMENT
$unwind$?DP@BerconSC@@UEAA?AVPoint3@@XZ DD 020601H
	DD	030023206H
xdata	ENDS
;	COMDAT xdata
xdata	SEGMENT
$unwind$?P@BerconSC@@UEAA?AVPoint3@@XZ DD 020601H
	DD	030027206H
xdata	ENDS
;	COMDAT xdata
xdata	SEGMENT
$unwind$?CamPos@BerconSC@@UEAA?AVPoint3@@XZ DD 020601H
	DD	030023206H
xdata	ENDS
;	COMDAT xdata
xdata	SEGMENT
$unwind$?RefractVector@BerconSC@@UEAA?AVPoint3@@M@Z DD 020601H
	DD	030023206H
xdata	ENDS
;	COMDAT xdata
xdata	SEGMENT
$unwind$?ReflectVector@BerconSC@@UEAA?AVPoint3@@XZ DD 020601H
	DD	030023206H
xdata	ENDS
;	COMDAT xdata
xdata	SEGMENT
$unwind$?OrigView@BerconSC@@UEAA?AVPoint3@@XZ DD 020601H
	DD	030023206H
xdata	ENDS
;	COMDAT xdata
xdata	SEGMENT
$unwind$?SetView@BerconSC@@UEAAXVPoint3@@@Z DD 040a01H
	DD	08340aH
	DD	07006520aH
xdata	ENDS
;	COMDAT xdata
xdata	SEGMENT
$unwind$?V@BerconSC@@UEAA?AVPoint3@@XZ DD 020601H
	DD	030023206H
xdata	ENDS
;	COMDAT xdata
xdata	SEGMENT
$unwind$?GNormal@BerconSC@@UEAA?AVPoint3@@XZ DD 020601H
	DD	030023206H
xdata	ENDS
;	COMDAT xdata
xdata	SEGMENT
$unwind$?OrigNormal@BerconSC@@UEAA?AVPoint3@@XZ DD 020601H
	DD	030023206H
xdata	ENDS
;	COMDAT xdata
xdata	SEGMENT
$unwind$?SetNormal@BerconSC@@UEAAXVPoint3@@@Z DD 040a01H
	DD	08340aH
	DD	07006520aH
xdata	ENDS
;	COMDAT xdata
xdata	SEGMENT
$unwind$?Normal@BerconSC@@UEAA?AVPoint3@@XZ DD 020601H
	DD	030023206H
xdata	ENDS
;	COMDAT xdata
xdata	SEGMENT
$unwind$?BarycentricCoords@BerconSC@@UEAA?AVPoint3@@XZ DD 020601H
	DD	030023206H
xdata	ENDS
;	COMDAT xdata
xdata	SEGMENT
$ip2state$??0BerconSC@@QEAA@QEAVShadeContext@@@Z DD imagerel ??0BerconSC@@QEAA@QEAVShadeContext@@@Z
	DD	0ffffffffH
	DD	imagerel ??0BerconSC@@QEAA@QEAVShadeContext@@@Z+43
	DD	00H
	DD	imagerel ??0BerconSC@@QEAA@QEAVShadeContext@@@Z+65
	DD	01H
	DD	imagerel ??0BerconSC@@QEAA@QEAVShadeContext@@@Z+81
	DD	03H
	DD	imagerel ??0BerconSC@@QEAA@QEAVShadeContext@@@Z+99
	DD	04H
	DD	imagerel ??0BerconSC@@QEAA@QEAVShadeContext@@@Z+121
	DD	05H
	DD	imagerel ??0BerconSC@@QEAA@QEAVShadeContext@@@Z+136
	DD	06H
	DD	imagerel ??0BerconSC@@QEAA@QEAVShadeContext@@@Z+143
	DD	08H
	DD	imagerel ??0BerconSC@@QEAA@QEAVShadeContext@@@Z+173
	DD	09H
	DD	imagerel ??0BerconSC@@QEAA@QEAVShadeContext@@@Z+449
	DD	0ffffffffH
xdata	ENDS
;	COMDAT xdata
xdata	SEGMENT
$stateUnwindMap$??0BerconSC@@QEAA@QEAVShadeContext@@@Z DD 0ffffffffH
	DD	imagerel ?dtor$2@?0???0BerconSC@@QEAA@QEAVShadeContext@@@Z@4HA
	DD	00H
	DD	imagerel ?dtor$5@?0???0BerconSC@@QEAA@QEAVShadeContext@@@Z@4HA
	DD	01H
	DD	imagerel ?dtor$6@?0???0BerconSC@@QEAA@QEAVShadeContext@@@Z@4HA
	DD	00H
	DD	imagerel ?dtor$4@?0???0BerconSC@@QEAA@QEAVShadeContext@@@Z@4HA
	DD	00H
	DD	imagerel ?dtor$3@?0???0BerconSC@@QEAA@QEAVShadeContext@@@Z@4HA
	DD	0ffffffffH
	DD	imagerel ?dtor$0@?0???0BerconSC@@QEAA@QEAVShadeContext@@@Z@4HA
	DD	05H
	DD	imagerel ?dtor$8@?0???0BerconSC@@QEAA@QEAVShadeContext@@@Z@4HA
	DD	06H
	DD	imagerel ?dtor$9@?0???0BerconSC@@QEAA@QEAVShadeContext@@@Z@4HA
	DD	05H
	DD	imagerel ?dtor$7@?0???0BerconSC@@QEAA@QEAVShadeContext@@@Z@4HA
	DD	05H
	DD	imagerel ?dtor$1@?0???0BerconSC@@QEAA@QEAVShadeContext@@@Z@4HA
xdata	ENDS
;	COMDAT CONST
CONST	SEGMENT
$cppxdata$??0BerconSC@@QEAA@QEAVShadeContext@@@Z DD 019930522H
	DD	0aH
	DD	imagerel $stateUnwindMap$??0BerconSC@@QEAA@QEAVShadeContext@@@Z
	DD	00H
	DD	00H
	DD	0aH
	DD	imagerel $ip2state$??0BerconSC@@QEAA@QEAVShadeContext@@@Z
	DD	020H
	DD	00H
	DD	00H
CONST	ENDS
;	COMDAT xdata
xdata	SEGMENT
$unwind$??0BerconSC@@QEAA@QEAVShadeContext@@@Z DD 061b11H
	DD	0c341bH
	DD	0e009520dH
	DD	060067007H
	DD	imagerel __CxxFrameHandler3
	DD	imagerel $cppxdata$??0BerconSC@@QEAA@QEAVShadeContext@@@Z
xdata	ENDS
;	COMDAT xdata
xdata	SEGMENT
$unwind$??_GParamMap2UserDlgProc@@UEAAPEAXI@Z DD 020601H
	DD	030023206H
xdata	ENDS
;	COMDAT xdata
xdata	SEGMENT
$ip2state$??0VertexNormalsControl@@QEAA@XZ DD imagerel ??0VertexNormalsControl@@QEAA@XZ
	DD	0ffffffffH
xdata	ENDS
;	COMDAT xdata
xdata	SEGMENT
$stateUnwindMap$??0VertexNormalsControl@@QEAA@XZ DD 0ffffffffH
	DD	imagerel ?dtor$0@?0???0VertexNormalsControl@@QEAA@XZ@4HA
xdata	ENDS
;	COMDAT CONST
CONST	SEGMENT
$cppxdata$??0VertexNormalsControl@@QEAA@XZ DD 019930522H
	DD	01H
	DD	imagerel $stateUnwindMap$??0VertexNormalsControl@@QEAA@XZ
	DD	00H
	DD	00H
	DD	01H
	DD	imagerel $ip2state$??0VertexNormalsControl@@QEAA@XZ
	DD	00H
	DD	00H
	DD	00H
CONST	ENDS
;	COMDAT xdata
xdata	SEGMENT
$unwind$??0VertexNormalsControl@@QEAA@XZ DD 011111H
	DD	02209H
	DD	imagerel __CxxFrameHandler3
	DD	imagerel $cppxdata$??0VertexNormalsControl@@QEAA@XZ
xdata	ENDS
;	COMDAT xdata
xdata	SEGMENT
$ip2state$??1?$Tab@PEAVVertexNormalsCallback@@@@QEAA@XZ DD imagerel ??1?$Tab@PEAVVertexNormalsCallback@@@@QEAA@XZ
	DD	0ffffffffH
xdata	ENDS
;	COMDAT CONST
CONST	SEGMENT
$cppxdata$??1?$Tab@PEAVVertexNormalsCallback@@@@QEAA@XZ DD 019930522H
	DD	00H
	DD	00H
	DD	00H
	DD	00H
	DD	01H
	DD	imagerel $ip2state$??1?$Tab@PEAVVertexNormalsCallback@@@@QEAA@XZ
	DD	020H
	DD	00H
	DD	04H
CONST	ENDS
;	COMDAT xdata
xdata	SEGMENT
$unwind$??1?$Tab@PEAVVertexNormalsCallback@@@@QEAA@XZ DD 010d19H
	DD	06204H
	DD	imagerel __CxxFrameHandler3
	DD	imagerel $cppxdata$??1?$Tab@PEAVVertexNormalsCallback@@@@QEAA@XZ
xdata	ENDS
;	COMDAT xdata
xdata	SEGMENT
$ip2state$??1Texmap@@UEAA@XZ DD imagerel ??1Texmap@@UEAA@XZ
	DD	0ffffffffH
xdata	ENDS
;	COMDAT xdata
xdata	SEGMENT
$stateUnwindMap$??1Texmap@@UEAA@XZ DD 0ffffffffH
	DD	imagerel ?dtor$0@?0???1Texmap@@UEAA@XZ@4HA
xdata	ENDS
;	COMDAT CONST
CONST	SEGMENT
$cppxdata$??1Texmap@@UEAA@XZ DD 019930522H
	DD	01H
	DD	imagerel $stateUnwindMap$??1Texmap@@UEAA@XZ
	DD	00H
	DD	00H
	DD	01H
	DD	imagerel $ip2state$??1Texmap@@UEAA@XZ
	DD	020H
	DD	00H
	DD	04H
CONST	ENDS
;	COMDAT xdata
xdata	SEGMENT
$unwind$??1Texmap@@UEAA@XZ DD 011211H
	DD	06209H
	DD	imagerel __CxxFrameHandler3
	DD	imagerel $cppxdata$??1Texmap@@UEAA@XZ
xdata	ENDS
;	COMDAT xdata
xdata	SEGMENT
$unwind$?GetInterface@MtlBase@@UEAAPEAVBaseInterface@@VInterface_ID@@@Z DD 010401H
	DD	04204H
xdata	ENDS
;	COMDAT xdata
xdata	SEGMENT
$ip2state$??_GShadeContext@@UEAAPEAXI@Z DD imagerel ??_GShadeContext@@UEAAPEAXI@Z
	DD	0ffffffffH
	DD	imagerel ??_GShadeContext@@UEAAPEAXI@Z+29
	DD	00H
	DD	imagerel ??_GShadeContext@@UEAAPEAXI@Z+45
	DD	0ffffffffH
xdata	ENDS
;	COMDAT xdata
xdata	SEGMENT
$stateUnwindMap$??_GShadeContext@@UEAAPEAXI@Z DD 0ffffffffH
	DD	imagerel ?dtor$0@?0???_GShadeContext@@UEAAPEAXI@Z@4HA
	DD	00H
	DD	imagerel ?dtor$1@?0???_GShadeContext@@UEAAPEAXI@Z@4HA
	DD	00H
	DD	imagerel ?dtor$2@?0???_GShadeContext@@UEAAPEAXI@Z@4HA
xdata	ENDS
;	COMDAT CONST
CONST	SEGMENT
$cppxdata$??_GShadeContext@@UEAAPEAXI@Z DD 019930522H
	DD	03H
	DD	imagerel $stateUnwindMap$??_GShadeContext@@UEAAPEAXI@Z
	DD	00H
	DD	00H
	DD	03H
	DD	imagerel $ip2state$??_GShadeContext@@UEAAPEAXI@Z
	DD	020H
	DD	00H
	DD	04H
CONST	ENDS
;	COMDAT xdata
xdata	SEGMENT
$unwind$??_GShadeContext@@UEAAPEAXI@Z DD 041811H
	DD	093418H
	DD	07006520aH
	DD	imagerel __CxxFrameHandler3
	DD	imagerel $cppxdata$??_GShadeContext@@UEAAPEAXI@Z
xdata	ENDS
;	COMDAT xdata
xdata	SEGMENT
$ip2state$??1ShadeContext@@UEAA@XZ DD imagerel ??1ShadeContext@@UEAA@XZ
	DD	0ffffffffH
	DD	imagerel ??1ShadeContext@@UEAA@XZ+22
	DD	00H
	DD	imagerel ??1ShadeContext@@UEAA@XZ+38
	DD	0ffffffffH
xdata	ENDS
;	COMDAT xdata
xdata	SEGMENT
$stateUnwindMap$??1ShadeContext@@UEAA@XZ DD 0ffffffffH
	DD	imagerel ?dtor$0@?0???1ShadeContext@@UEAA@XZ@4HA
	DD	00H
	DD	imagerel ?dtor$1@?0???1ShadeContext@@UEAA@XZ@4HA
	DD	00H
	DD	imagerel ?dtor$2@?0???1ShadeContext@@UEAA@XZ@4HA
xdata	ENDS
;	COMDAT CONST
CONST	SEGMENT
$cppxdata$??1ShadeContext@@UEAA@XZ DD 019930522H
	DD	03H
	DD	imagerel $stateUnwindMap$??1ShadeContext@@UEAA@XZ
	DD	00H
	DD	00H
	DD	03H
	DD	imagerel $ip2state$??1ShadeContext@@UEAA@XZ
	DD	020H
	DD	00H
	DD	04H
CONST	ENDS
;	COMDAT xdata
xdata	SEGMENT
$unwind$??1ShadeContext@@UEAA@XZ DD 021311H
	DD	03006520aH
	DD	imagerel __CxxFrameHandler3
	DD	imagerel $cppxdata$??1ShadeContext@@UEAA@XZ
xdata	ENDS
;	COMDAT xdata
xdata	SEGMENT
$ip2state$??0ShadeContext@@QEAA@XZ DD imagerel ??0ShadeContext@@QEAA@XZ
	DD	0ffffffffH
	DD	imagerel ??0ShadeContext@@QEAA@XZ+27
	DD	00H
	DD	imagerel ??0ShadeContext@@QEAA@XZ+49
	DD	01H
	DD	imagerel ??0ShadeContext@@QEAA@XZ+66
	DD	03H
	DD	imagerel ??0ShadeContext@@QEAA@XZ+84
	DD	04H
	DD	imagerel ??0ShadeContext@@QEAA@XZ+107
	DD	0ffffffffH
xdata	ENDS
;	COMDAT xdata
xdata	SEGMENT
$stateUnwindMap$??0ShadeContext@@QEAA@XZ DD 0ffffffffH
	DD	imagerel ?dtor$0@?0???0ShadeContext@@QEAA@XZ@4HA
	DD	00H
	DD	imagerel ?dtor$3@?0???0ShadeContext@@QEAA@XZ@4HA
	DD	01H
	DD	imagerel ?dtor$4@?0???0ShadeContext@@QEAA@XZ@4HA
	DD	00H
	DD	imagerel ?dtor$2@?0???0ShadeContext@@QEAA@XZ@4HA
	DD	00H
	DD	imagerel ?dtor$1@?0???0ShadeContext@@QEAA@XZ@4HA
xdata	ENDS
;	COMDAT CONST
CONST	SEGMENT
$cppxdata$??0ShadeContext@@QEAA@XZ DD 019930522H
	DD	05H
	DD	imagerel $stateUnwindMap$??0ShadeContext@@QEAA@XZ
	DD	00H
	DD	00H
	DD	06H
	DD	imagerel $ip2state$??0ShadeContext@@QEAA@XZ
	DD	00H
	DD	00H
	DD	00H
CONST	ENDS
;	COMDAT xdata
xdata	SEGMENT
$unwind$??0ShadeContext@@QEAA@XZ DD 011111H
	DD	02209H
	DD	imagerel __CxxFrameHandler3
	DD	imagerel $cppxdata$??0ShadeContext@@QEAA@XZ
xdata	ENDS
;	COMDAT xdata
xdata	SEGMENT
$unwind$?RayDiam@ShadeContext@@UEAAMXZ DD 010401H
	DD	06204H
xdata	ENDS
;	COMDAT xdata
xdata	SEGMENT
$unwind$?UVWNormal@ShadeContext@@UEAA?AVPoint3@@H@Z DD 020601H
	DD	030023206H
xdata	ENDS
;	COMDAT xdata
xdata	SEGMENT
$unwind$?SurfacePtScreen@ShadeContext@@UEAA?AVPoint2@@XZ DD 020601H
	DD	030023206H
xdata	ENDS
;	COMDAT xdata
xdata	SEGMENT
$unwind$?OrigView@ShadeContext@@UEAA?AVPoint3@@XZ DD 020601H
	DD	030023206H
xdata	ENDS
;	COMDAT xdata
xdata	SEGMENT
$unwind$?OrigNormal@ShadeContext@@UEAA?AVPoint3@@XZ DD 020601H
	DD	030023206H
xdata	ENDS
;	COMDAT xdata
xdata	SEGMENT
$unwind$?BarycentricCoords@ShadeContext@@UEAA?AVPoint3@@XZ DD 020601H
	DD	030023206H
xdata	ENDS
;	COMDAT xdata
xdata	SEGMENT
$ip2state$??_GShadeOutput@@UEAAPEAXI@Z DD imagerel ??_GShadeOutput@@UEAAPEAXI@Z
	DD	0ffffffffH
xdata	ENDS
;	COMDAT xdata
xdata	SEGMENT
$stateUnwindMap$??_GShadeOutput@@UEAAPEAXI@Z DD 0ffffffffH
	DD	imagerel ?dtor$0@?0???_GShadeOutput@@UEAAPEAXI@Z@4HA
xdata	ENDS
;	COMDAT CONST
CONST	SEGMENT
$cppxdata$??_GShadeOutput@@UEAAPEAXI@Z DD 019930522H
	DD	01H
	DD	imagerel $stateUnwindMap$??_GShadeOutput@@UEAAPEAXI@Z
	DD	00H
	DD	00H
	DD	01H
	DD	imagerel $ip2state$??_GShadeOutput@@UEAAPEAXI@Z
	DD	020H
	DD	00H
	DD	04H
CONST	ENDS
;	COMDAT xdata
xdata	SEGMENT
$unwind$??_GShadeOutput@@UEAAPEAXI@Z DD 041811H
	DD	093418H
	DD	07006520aH
	DD	imagerel __CxxFrameHandler3
	DD	imagerel $cppxdata$??_GShadeOutput@@UEAAPEAXI@Z
xdata	ENDS
;	COMDAT xdata
xdata	SEGMENT
$ip2state$??1ShadeOutput@@UEAA@XZ DD imagerel ??1ShadeOutput@@UEAA@XZ
	DD	0ffffffffH
xdata	ENDS
;	COMDAT xdata
xdata	SEGMENT
$stateUnwindMap$??1ShadeOutput@@UEAA@XZ DD 0ffffffffH
	DD	imagerel ?dtor$0@?0???1ShadeOutput@@UEAA@XZ@4HA
xdata	ENDS
;	COMDAT CONST
CONST	SEGMENT
$cppxdata$??1ShadeOutput@@UEAA@XZ DD 019930522H
	DD	01H
	DD	imagerel $stateUnwindMap$??1ShadeOutput@@UEAA@XZ
	DD	00H
	DD	00H
	DD	01H
	DD	imagerel $ip2state$??1ShadeOutput@@UEAA@XZ
	DD	020H
	DD	00H
	DD	04H
CONST	ENDS
;	COMDAT xdata
xdata	SEGMENT
$unwind$??1ShadeOutput@@UEAA@XZ DD 011211H
	DD	06209H
	DD	imagerel __CxxFrameHandler3
	DD	imagerel $cppxdata$??1ShadeOutput@@UEAA@XZ
xdata	ENDS
;	COMDAT xdata
xdata	SEGMENT
$ip2state$??0ShadeOutput@@QEAA@XZ DD imagerel ??0ShadeOutput@@QEAA@XZ
	DD	0ffffffffH
	DD	imagerel ??0ShadeOutput@@QEAA@XZ+27
	DD	00H
	DD	imagerel ??0ShadeOutput@@QEAA@XZ+43
	DD	02H
	DD	imagerel ??0ShadeOutput@@QEAA@XZ+60
	DD	0ffffffffH
xdata	ENDS
;	COMDAT xdata
xdata	SEGMENT
$stateUnwindMap$??0ShadeOutput@@QEAA@XZ DD 0ffffffffH
	DD	imagerel ?dtor$1@?0???0ShadeOutput@@QEAA@XZ@4HA
	DD	00H
	DD	imagerel ?dtor$2@?0???0ShadeOutput@@QEAA@XZ@4HA
	DD	0ffffffffH
	DD	imagerel ?dtor$0@?0???0ShadeOutput@@QEAA@XZ@4HA
xdata	ENDS
;	COMDAT CONST
CONST	SEGMENT
$cppxdata$??0ShadeOutput@@QEAA@XZ DD 019930522H
	DD	03H
	DD	imagerel $stateUnwindMap$??0ShadeOutput@@QEAA@XZ
	DD	00H
	DD	00H
	DD	04H
	DD	imagerel $ip2state$??0ShadeOutput@@QEAA@XZ
	DD	00H
	DD	00H
	DD	00H
CONST	ENDS
;	COMDAT xdata
xdata	SEGMENT
$unwind$??0ShadeOutput@@QEAA@XZ DD 011111H
	DD	02209H
	DD	imagerel __CxxFrameHandler3
	DD	imagerel $cppxdata$??0ShadeOutput@@QEAA@XZ
xdata	ENDS
;	COMDAT xdata
xdata	SEGMENT
$ip2state$??_GRenderGlobalContext@@UEAAPEAXI@Z DD imagerel ??_GRenderGlobalContext@@UEAAPEAXI@Z
	DD	0ffffffffH
xdata	ENDS
;	COMDAT xdata
xdata	SEGMENT
$stateUnwindMap$??_GRenderGlobalContext@@UEAAPEAXI@Z DD 0ffffffffH
	DD	imagerel ?dtor$0@?0???_GRenderGlobalContext@@UEAAPEAXI@Z@4HA
xdata	ENDS
;	COMDAT CONST
CONST	SEGMENT
$cppxdata$??_GRenderGlobalContext@@UEAAPEAXI@Z DD 019930522H
	DD	01H
	DD	imagerel $stateUnwindMap$??_GRenderGlobalContext@@UEAAPEAXI@Z
	DD	00H
	DD	00H
	DD	01H
	DD	imagerel $ip2state$??_GRenderGlobalContext@@UEAAPEAXI@Z
	DD	020H
	DD	00H
	DD	04H
CONST	ENDS
;	COMDAT xdata
xdata	SEGMENT
$unwind$??_GRenderGlobalContext@@UEAAPEAXI@Z DD 041811H
	DD	093418H
	DD	07006520aH
	DD	imagerel __CxxFrameHandler3
	DD	imagerel $cppxdata$??_GRenderGlobalContext@@UEAAPEAXI@Z
xdata	ENDS
;	COMDAT xdata
xdata	SEGMENT
$ip2state$??1RenderGlobalContext@@UEAA@XZ DD imagerel ??1RenderGlobalContext@@UEAA@XZ
	DD	0ffffffffH
xdata	ENDS
;	COMDAT xdata
xdata	SEGMENT
$stateUnwindMap$??1RenderGlobalContext@@UEAA@XZ DD 0ffffffffH
	DD	imagerel ?dtor$0@?0???1RenderGlobalContext@@UEAA@XZ@4HA
xdata	ENDS
;	COMDAT CONST
CONST	SEGMENT
$cppxdata$??1RenderGlobalContext@@UEAA@XZ DD 019930522H
	DD	01H
	DD	imagerel $stateUnwindMap$??1RenderGlobalContext@@UEAA@XZ
	DD	00H
	DD	00H
	DD	01H
	DD	imagerel $ip2state$??1RenderGlobalContext@@UEAA@XZ
	DD	020H
	DD	00H
	DD	04H
CONST	ENDS
;	COMDAT xdata
xdata	SEGMENT
$unwind$??1RenderGlobalContext@@UEAA@XZ DD 011211H
	DD	06209H
	DD	imagerel __CxxFrameHandler3
	DD	imagerel $cppxdata$??1RenderGlobalContext@@UEAA@XZ
xdata	ENDS
;	COMDAT xdata
xdata	SEGMENT
$ip2state$??0RenderGlobalContext@@QEAA@XZ DD imagerel ??0RenderGlobalContext@@QEAA@XZ
	DD	0ffffffffH
	DD	imagerel ??0RenderGlobalContext@@QEAA@XZ+27
	DD	00H
	DD	imagerel ??0RenderGlobalContext@@QEAA@XZ+43
	DD	02H
	DD	imagerel ??0RenderGlobalContext@@QEAA@XZ+73
	DD	0ffffffffH
xdata	ENDS
;	COMDAT xdata
xdata	SEGMENT
$stateUnwindMap$??0RenderGlobalContext@@QEAA@XZ DD 0ffffffffH
	DD	imagerel ?dtor$1@?0???0RenderGlobalContext@@QEAA@XZ@4HA
	DD	00H
	DD	imagerel ?dtor$2@?0???0RenderGlobalContext@@QEAA@XZ@4HA
	DD	0ffffffffH
	DD	imagerel ?dtor$0@?0???0RenderGlobalContext@@QEAA@XZ@4HA
xdata	ENDS
;	COMDAT CONST
CONST	SEGMENT
$cppxdata$??0RenderGlobalContext@@QEAA@XZ DD 019930522H
	DD	03H
	DD	imagerel $stateUnwindMap$??0RenderGlobalContext@@QEAA@XZ
	DD	00H
	DD	00H
	DD	04H
	DD	imagerel $ip2state$??0RenderGlobalContext@@QEAA@XZ
	DD	00H
	DD	00H
	DD	00H
CONST	ENDS
;	COMDAT xdata
xdata	SEGMENT
$unwind$??0RenderGlobalContext@@QEAA@XZ DD 011111H
	DD	02209H
	DD	imagerel __CxxFrameHandler3
	DD	imagerel $cppxdata$??0RenderGlobalContext@@QEAA@XZ
xdata	ENDS
;	COMDAT xdata
xdata	SEGMENT
$unwind$?Set@BitArray@@QEAAXH@Z DD 040a01H
	DD	06340aH
	DD	07006320aH
xdata	ENDS
;	COMDAT xdata
xdata	SEGMENT
$unwind$??D@YA?AVPoint3@@AEBV0@M@Z DD 020601H
	DD	030023206H
xdata	ENDS
;	COMDAT xdata
xdata	SEGMENT
$unwind$?GetInterfaceAt@ClassDesc@@UEAAPEAVFPInterface@@H@Z DD 040a01H
	DD	08340aH
	DD	07006520aH
xdata	ENDS
;	COMDAT xdata
xdata	SEGMENT
$unwind$??A?$Tab@PEAVFPInterface@@@@QEBAAEAPEAVFPInterface@@_J@Z DD 040a01H
	DD	08340aH
	DD	07006520aH
xdata	ENDS
;	COMDAT xdata
xdata	SEGMENT
$unwind$?NotifyForeground@ReferenceTarget@@UEAAXH@Z DD 040a01H
	DD	0b340aH
	DD	07006720aH
xdata	ENDS
;	COMDAT xdata
xdata	SEGMENT
$unwind$?NotifyDependents@ReferenceMaker@@EEAA?AW4RefResult@@AEBVInterval@@_KIKHPEAVReferenceTarget@@@Z DD 010401H
	DD	04204H
xdata	ENDS
;	COMDAT xdata
xdata	SEGMENT
$unwind$?IsSubClassOf@Animatable@@UEAAHVClass_ID@@@Z DD 020601H
	DD	030023206H
xdata	ENDS
;	COMDAT xdata
xdata	SEGMENT
$unwind$??_4Interval@@QEAAAEAV0@V0@@Z DD 020601H
	DD	030023206H
xdata	ENDS
;	COMDAT xdata
xdata	SEGMENT
$unwind$??_GBaseInterfaceServer@@UEAAPEAXI@Z DD 040a01H
	DD	06340aH
	DD	07006320aH
xdata	ENDS
;	COMDAT xdata
xdata	SEGMENT
$ip2state$??0BaseInterfaceServer@@QEAA@XZ DD imagerel ??0BaseInterfaceServer@@QEAA@XZ
	DD	0ffffffffH
	DD	imagerel ??0BaseInterfaceServer@@QEAA@XZ+27
	DD	00H
	DD	imagerel ??0BaseInterfaceServer@@QEAA@XZ+45
	DD	0ffffffffH
xdata	ENDS
;	COMDAT xdata
xdata	SEGMENT
$stateUnwindMap$??0BaseInterfaceServer@@QEAA@XZ DD 0ffffffffH
	DD	imagerel ?dtor$0@?0???0BaseInterfaceServer@@QEAA@XZ@4HA
	DD	00H
	DD	imagerel ?dtor$1@?0???0BaseInterfaceServer@@QEAA@XZ@4HA
xdata	ENDS
;	COMDAT CONST
CONST	SEGMENT
$cppxdata$??0BaseInterfaceServer@@QEAA@XZ DD 019930522H
	DD	02H
	DD	imagerel $stateUnwindMap$??0BaseInterfaceServer@@QEAA@XZ
	DD	00H
	DD	00H
	DD	03H
	DD	imagerel $ip2state$??0BaseInterfaceServer@@QEAA@XZ
	DD	00H
	DD	00H
	DD	00H
CONST	ENDS
;	COMDAT xdata
xdata	SEGMENT
$unwind$??0BaseInterfaceServer@@QEAA@XZ DD 011111H
	DD	02209H
	DD	imagerel __CxxFrameHandler3
	DD	imagerel $cppxdata$??0BaseInterfaceServer@@QEAA@XZ
xdata	ENDS
;	COMDAT xdata
xdata	SEGMENT
$ip2state$??1?$Tab@PEAVBaseInterface@@@@QEAA@XZ DD imagerel ??1?$Tab@PEAVBaseInterface@@@@QEAA@XZ
	DD	0ffffffffH
xdata	ENDS
;	COMDAT CONST
CONST	SEGMENT
$cppxdata$??1?$Tab@PEAVBaseInterface@@@@QEAA@XZ DD 019930522H
	DD	00H
	DD	00H
	DD	00H
	DD	00H
	DD	01H
	DD	imagerel $ip2state$??1?$Tab@PEAVBaseInterface@@@@QEAA@XZ
	DD	020H
	DD	00H
	DD	04H
CONST	ENDS
;	COMDAT xdata
xdata	SEGMENT
$unwind$??1?$Tab@PEAVBaseInterface@@@@QEAA@XZ DD 010d19H
	DD	06204H
	DD	imagerel __CxxFrameHandler3
	DD	imagerel $cppxdata$??1?$Tab@PEAVBaseInterface@@@@QEAA@XZ
xdata	ENDS
;	COMDAT xdata
xdata	SEGMENT
$unwind$??_GInterfaceServer@@UEAAPEAXI@Z DD 040a01H
	DD	06340aH
	DD	07006320aH
xdata	ENDS
;	COMDAT xdata
xdata	SEGMENT
$ip2state$??_GTabOutOfRangeException@Util@MaxSDK@@UEAAPEAXI@Z DD imagerel ??_GTabOutOfRangeException@Util@MaxSDK@@UEAAPEAXI@Z
	DD	0ffffffffH
xdata	ENDS
;	COMDAT xdata
xdata	SEGMENT
$stateUnwindMap$??_GTabOutOfRangeException@Util@MaxSDK@@UEAAPEAXI@Z DD 0ffffffffH
	DD	imagerel ?dtor$0@?0???_GTabOutOfRangeException@Util@MaxSDK@@UEAAPEAXI@Z@4HA
xdata	ENDS
;	COMDAT CONST
CONST	SEGMENT
$cppxdata$??_GTabOutOfRangeException@Util@MaxSDK@@UEAAPEAXI@Z DD 019930522H
	DD	01H
	DD	imagerel $stateUnwindMap$??_GTabOutOfRangeException@Util@MaxSDK@@UEAAPEAXI@Z
	DD	00H
	DD	00H
	DD	01H
	DD	imagerel $ip2state$??_GTabOutOfRangeException@Util@MaxSDK@@UEAAPEAXI@Z
	DD	020H
	DD	00H
	DD	04H
CONST	ENDS
;	COMDAT xdata
xdata	SEGMENT
$unwind$??_GTabOutOfRangeException@Util@MaxSDK@@UEAAPEAXI@Z DD 041811H
	DD	093418H
	DD	07006520aH
	DD	imagerel __CxxFrameHandler3
	DD	imagerel $cppxdata$??_GTabOutOfRangeException@Util@MaxSDK@@UEAAPEAXI@Z
xdata	ENDS
;	COMDAT xdata
xdata	SEGMENT
$ip2state$??0TabOutOfRangeException@Util@MaxSDK@@QEAA@AEBV012@@Z DD imagerel ??0TabOutOfRangeException@Util@MaxSDK@@QEAA@AEBV012@@Z
	DD	0ffffffffH
	DD	imagerel ??0TabOutOfRangeException@Util@MaxSDK@@QEAA@AEBV012@@Z+29
	DD	00H
	DD	imagerel ??0TabOutOfRangeException@Util@MaxSDK@@QEAA@AEBV012@@Z+39
	DD	0ffffffffH
xdata	ENDS
;	COMDAT xdata
xdata	SEGMENT
$stateUnwindMap$??0TabOutOfRangeException@Util@MaxSDK@@QEAA@AEBV012@@Z DD 0ffffffffH
	DD	imagerel ?dtor$0@?0???0TabOutOfRangeException@Util@MaxSDK@@QEAA@AEBV012@@Z@4HA
xdata	ENDS
;	COMDAT CONST
CONST	SEGMENT
$cppxdata$??0TabOutOfRangeException@Util@MaxSDK@@QEAA@AEBV012@@Z DD 019930522H
	DD	01H
	DD	imagerel $stateUnwindMap$??0TabOutOfRangeException@Util@MaxSDK@@QEAA@AEBV012@@Z
	DD	00H
	DD	00H
	DD	03H
	DD	imagerel $ip2state$??0TabOutOfRangeException@Util@MaxSDK@@QEAA@AEBV012@@Z
	DD	020H
	DD	00H
	DD	00H
CONST	ENDS
;	COMDAT xdata
xdata	SEGMENT
$unwind$??0TabOutOfRangeException@Util@MaxSDK@@QEAA@AEBV012@@Z DD 021311H
	DD	03006520aH
	DD	imagerel __CxxFrameHandler3
	DD	imagerel $cppxdata$??0TabOutOfRangeException@Util@MaxSDK@@QEAA@AEBV012@@Z
xdata	ENDS
;	COMDAT xdata
xdata	SEGMENT
$ip2state$??1TabOutOfRangeException@Util@MaxSDK@@UEAA@XZ DD imagerel ??1TabOutOfRangeException@Util@MaxSDK@@UEAA@XZ
	DD	0ffffffffH
xdata	ENDS
;	COMDAT xdata
xdata	SEGMENT
$stateUnwindMap$??1TabOutOfRangeException@Util@MaxSDK@@UEAA@XZ DD 0ffffffffH
	DD	imagerel ?dtor$0@?0???1TabOutOfRangeException@Util@MaxSDK@@UEAA@XZ@4HA
xdata	ENDS
;	COMDAT CONST
CONST	SEGMENT
$cppxdata$??1TabOutOfRangeException@Util@MaxSDK@@UEAA@XZ DD 019930522H
	DD	01H
	DD	imagerel $stateUnwindMap$??1TabOutOfRangeException@Util@MaxSDK@@UEAA@XZ
	DD	00H
	DD	00H
	DD	01H
	DD	imagerel $ip2state$??1TabOutOfRangeException@Util@MaxSDK@@UEAA@XZ
	DD	020H
	DD	00H
	DD	04H
CONST	ENDS
;	COMDAT xdata
xdata	SEGMENT
$unwind$??1TabOutOfRangeException@Util@MaxSDK@@UEAA@XZ DD 011211H
	DD	06209H
	DD	imagerel __CxxFrameHandler3
	DD	imagerel $cppxdata$??1TabOutOfRangeException@Util@MaxSDK@@UEAA@XZ
xdata	ENDS
;	COMDAT xdata
xdata	SEGMENT
$ip2state$??0TabOutOfRangeException@Util@MaxSDK@@QEAA@PEB_W@Z DD imagerel ??0TabOutOfRangeException@Util@MaxSDK@@QEAA@PEB_W@Z
	DD	0ffffffffH
	DD	imagerel ??0TabOutOfRangeException@Util@MaxSDK@@QEAA@PEB_W@Z+29
	DD	00H
	DD	imagerel ??0TabOutOfRangeException@Util@MaxSDK@@QEAA@PEB_W@Z+39
	DD	0ffffffffH
xdata	ENDS
;	COMDAT xdata
xdata	SEGMENT
$stateUnwindMap$??0TabOutOfRangeException@Util@MaxSDK@@QEAA@PEB_W@Z DD 0ffffffffH
	DD	imagerel ?dtor$0@?0???0TabOutOfRangeException@Util@MaxSDK@@QEAA@PEB_W@Z@4HA
xdata	ENDS
;	COMDAT CONST
CONST	SEGMENT
