; Listing generated by Microsoft (R) Optimizing Compiler Version 19.16.27031.1 

include listing.inc

INCLUDELIB MSVCRT
INCLUDELIB OLDNAMES

PUBLIC	WinbaseIsolationAwarePrivateT_UnPgpgk
PUBLIC	IsolationAwarePrivateT_SqbjaYRiRY
PUBLIC	IsolationAwarePrivateT_SAbnPgpgk
PUBLIC	WinbaseIsolationAwarePrivateT_SpeRNgRQnPgpgk
PUBLIC	WinbaseIsolationAwarePrivateT_SpYRNahcpNYYRQ
PUBLIC	?__LINE__Var@?0???0Class_ID@@QEAA@KK@Z@4JA	; `Class_ID::Class_ID'::`1'::__LINE__Var
PUBLIC	?__LINE__Var@?0???0AssetId@AssetManagement@MaxSDK@@QEAA@XZ@4JA ; `MaxSDK::AssetManagement::AssetId::AssetId'::`1'::__LINE__Var
EXTRN	GUID_NULL:BYTE
;	COMDAT IsolationAwarePrivateT_SqbjaYRiRY
_BSS	SEGMENT
IsolationAwarePrivateT_SqbjaYRiRY DD 01H DUP (?)
_BSS	ENDS
;	COMDAT IsolationAwarePrivateT_SAbnPgpgk
_BSS	SEGMENT
IsolationAwarePrivateT_SAbnPgpgk DD 01H DUP (?)
_BSS	ENDS
;	COMDAT WinbaseIsolationAwarePrivateT_SpeRNgRQnPgpgk
_BSS	SEGMENT
WinbaseIsolationAwarePrivateT_SpeRNgRQnPgpgk DD 01H DUP (?)
_BSS	ENDS
;	COMDAT WinbaseIsolationAwarePrivateT_SpYRNahcpNYYRQ
_BSS	SEGMENT
WinbaseIsolationAwarePrivateT_SpYRNahcpNYYRQ DD 01H DUP (?)
_BSS	ENDS
;	COMDAT ?__LINE__Var@?0???0AssetId@AssetManagement@MaxSDK@@QEAA@XZ@4JA
_DATA	SEGMENT
?__LINE__Var@?0???0AssetId@AssetManagement@MaxSDK@@QEAA@XZ@4JA DD 01dH ; `MaxSDK::AssetManagement::AssetId::AssetId'::`1'::__LINE__Var
_DATA	ENDS
;	COMDAT ?__LINE__Var@?0???0Class_ID@@QEAA@KK@Z@4JA
_DATA	SEGMENT
?__LINE__Var@?0???0Class_ID@@QEAA@KK@Z@4JA DD 0a0H	; `Class_ID::Class_ID'::`1'::__LINE__Var
_DATA	ENDS
;	COMDAT WinbaseIsolationAwarePrivateT_UnPgpgk
_DATA	SEGMENT
WinbaseIsolationAwarePrivateT_UnPgpgk DQ ffffffffffffffffH
_DATA	ENDS
PUBLIC	??_H@YAXPEAX_K1P6APEAX0@Z@Z			; `vector constructor iterator'
PUBLIC	?__empty_global_delete@@YAXPEAX@Z		; __empty_global_delete
PUBLIC	?__empty_global_delete@@YAXPEAX_K@Z		; __empty_global_delete
PUBLIC	?smooth@@YAMM@Z					; smooth
PUBLIC	?smooth@@YAMMMM@Z				; smooth
PUBLIC	__real@3f800000
PUBLIC	__real@40400000
EXTRN	_fltused:DWORD
_BSS	SEGMENT
?kInvalidId@AssetManagement@MaxSDK@@3UAssetId@12@A DB 010H DUP (?) ; MaxSDK::AssetManagement::kInvalidId
_BSS	ENDS
;	COMDAT pdata
pdata	SEGMENT
$pdata$??_H@YAXPEAX_K1P6APEAX0@Z@Z DD imagerel $LN12
	DD	imagerel $LN12+72
	DD	imagerel $unwind$??_H@YAXPEAX_K1P6APEAX0@Z@Z
pdata	ENDS
CRT$XCU	SEGMENT
?kInvalidId$initializer$@AssetManagement@MaxSDK@@3P6AXXZEA DQ FLAT:??__EkInvalidId@AssetManagement@MaxSDK@@YAXXZ ; MaxSDK::AssetManagement::kInvalidId$initializer$
CRT$XCU	ENDS
;	COMDAT __real@40400000
CONST	SEGMENT
__real@40400000 DD 040400000r			; 3
CONST	ENDS
;	COMDAT __real@3f800000
CONST	SEGMENT
__real@3f800000 DD 03f800000r			; 1
CONST	ENDS
_DATA	SEGMENT
?kTriObjNormalXTCID@@3VClass_ID@@B DD 0730a33d7H	; kTriObjNormalXTCID
	DD	027246c55H
_DATA	ENDS
;	COMDAT xdata
xdata	SEGMENT
$unwind$??_H@YAXPEAX_K1P6APEAX0@Z@Z DD 081901H
	DD	086419H
	DD	075419H
	DD	063419H
	DD	070153219H
xdata	ENDS
; Function compile flags: /Ogtp
; File g:\dropbox\github\berconmaps\src\commonmath.cpp
;	COMDAT ?smooth@@YAMMMM@Z
_TEXT	SEGMENT
d$ = 8
low$ = 16
high$ = 24
?smooth@@YAMMMM@Z PROC					; smooth, COMDAT

; 27   : 	d = (d-low)/(high-low);

	vsubss	xmm3, xmm0, xmm1
	vsubss	xmm0, xmm2, xmm1
	vdivss	xmm4, xmm3, xmm0
	vxorps	xmm0, xmm0, xmm0

; 28   : 	if (d < 0) return 0.f;

	vcomiss	xmm0, xmm4
	ja	SHORT $LN1@smooth

; 29   : 	if (d > 1) return 1.f;

	vmovss	xmm0, DWORD PTR __real@3f800000
	vcomiss	xmm4, xmm0
	ja	SHORT $LN1@smooth

; 30   : 	return (d*d*(3.f-2.f*d));

	vmovss	xmm0, DWORD PTR __real@40400000
	vaddss	xmm1, xmm4, xmm4
	vsubss	xmm2, xmm0, xmm1
	vmulss	xmm1, xmm4, xmm4
	vmulss	xmm0, xmm2, xmm1
$LN1@smooth:

; 31   : }

	ret	0
?smooth@@YAMMMM@Z ENDP					; smooth
_TEXT	ENDS
; Function compile flags: /Ogtp
; File g:\dropbox\github\berconmaps\src\commonmath.cpp
;	COMDAT ?smooth@@YAMM@Z
_TEXT	SEGMENT
d$ = 8
?smooth@@YAMM@Z PROC					; smooth, COMDAT

; 23   : 	return (d*d*(3.f-2.f*d));

	vmovss	xmm1, DWORD PTR __real@40400000
	vaddss	xmm2, xmm0, xmm0
	vsubss	xmm3, xmm1, xmm2
	vmulss	xmm0, xmm0, xmm0
	vmulss	xmm0, xmm3, xmm0

; 24   : }

	ret	0
?smooth@@YAMM@Z ENDP					; smooth
_TEXT	ENDS
; Function compile flags: /Ogtp
; File c:\program files\autodesk\3ds max 2019 sdk\maxsdk\include\assetmanagement\assetid.h
;	COMDAT ??__EkInvalidId@AssetManagement@MaxSDK@@YAXXZ
text$di	SEGMENT
??__EkInvalidId@AssetManagement@MaxSDK@@YAXXZ PROC	; MaxSDK::AssetManagement::`dynamic initializer for 'kInvalidId'', COMDAT

; 29   : 			AssetId() { *static_cast<GUID*>(this) = CLSID_NULL; }

	vmovups	xmm0, XMMWORD PTR GUID_NULL
	vmovups	XMMWORD PTR ?kInvalidId@AssetManagement@MaxSDK@@3UAssetId@12@A, xmm0

; 32   : 		static AssetId kInvalidId;

	ret	0
??__EkInvalidId@AssetManagement@MaxSDK@@YAXXZ ENDP	; MaxSDK::AssetManagement::`dynamic initializer for 'kInvalidId''
text$di	ENDS
; Function compile flags: /Ogtp
; File c:\program files\autodesk\3ds max 2019 sdk\maxsdk\include\assetmanagement\assetid.h
;	COMDAT ??0AssetId@AssetManagement@MaxSDK@@QEAA@XZ
_TEXT	SEGMENT
this$ = 8
??0AssetId@AssetManagement@MaxSDK@@QEAA@XZ PROC		; MaxSDK::AssetManagement::AssetId::AssetId, COMDAT

; 29   : 			AssetId() { *static_cast<GUID*>(this) = CLSID_NULL; }

	vmovups	xmm0, XMMWORD PTR GUID_NULL
	vmovups	XMMWORD PTR [rcx], xmm0
	mov	rax, rcx
	ret	0
??0AssetId@AssetManagement@MaxSDK@@QEAA@XZ ENDP		; MaxSDK::AssetManagement::AssetId::AssetId
_TEXT	ENDS
; Function compile flags: /Ogtp
; File c:\program files\autodesk\3ds max 2019 sdk\maxsdk\include\maxtypes.h
;	COMDAT ??0Class_ID@@QEAA@KK@Z
_TEXT	SEGMENT
this$ = 8
aa$ = 16
bb$ = 24
??0Class_ID@@QEAA@KK@Z PROC				; Class_ID::Class_ID, COMDAT

; 160  : 	Class_ID(ulong aa, ulong bb) { a = aa; b = bb; }

	mov	DWORD PTR [rcx], edx
	mov	rax, rcx
	mov	DWORD PTR [rcx+4], r8d
	ret	0
??0Class_ID@@QEAA@KK@Z ENDP				; Class_ID::Class_ID
_TEXT	ENDS
; Function compile flags: /Ogtp
; File g:\dropbox\github\berconmaps\src\commonmath.cpp
;	COMDAT ?__empty_global_delete@@YAXPEAX_K@Z
_TEXT	SEGMENT
__formal$ = 8
__formal$ = 16
?__empty_global_delete@@YAXPEAX_K@Z PROC		; __empty_global_delete, COMDAT

	ret	0
?__empty_global_delete@@YAXPEAX_K@Z ENDP		; __empty_global_delete
_TEXT	ENDS
; Function compile flags: /Ogtp
; File g:\dropbox\github\berconmaps\src\commonmath.cpp
;	COMDAT ?__empty_global_delete@@YAXPEAX@Z
_TEXT	SEGMENT
__formal$ = 8
?__empty_global_delete@@YAXPEAX@Z PROC			; __empty_global_delete, COMDAT

	ret	0
?__empty_global_delete@@YAXPEAX@Z ENDP			; __empty_global_delete
_TEXT	ENDS
; Function compile flags: /Ogtp
;	COMDAT ??_H@YAXPEAX_K1P6APEAX0@Z@Z
_TEXT	SEGMENT
__t$ = 48
__s$ = 56
__n$ = 64
__f$ = 72
??_H@YAXPEAX_K1P6APEAX0@Z@Z PROC			; `vector constructor iterator', COMDAT
$LN12:
	test	r8, r8
	je	SHORT $LN10@vector
	mov	QWORD PTR [rsp+8], rbx
	mov	QWORD PTR [rsp+16], rbp
	mov	QWORD PTR [rsp+24], rsi
	push	rdi
	sub	rsp, 32					; 00000020H
	mov	rsi, r9
	mov	rbx, r8
	mov	rbp, rdx
	mov	rdi, rcx
$LL2@vector:
	mov	rcx, rdi
	call	rsi
	add	rdi, rbp
	sub	rbx, 1
	jne	SHORT $LL2@vector
	mov	rbx, QWORD PTR [rsp+48]
	mov	rbp, QWORD PTR [rsp+56]
	mov	rsi, QWORD PTR [rsp+64]
	add	rsp, 32					; 00000020H
	pop	rdi
$LN10@vector:
	ret	0
??_H@YAXPEAX_K1P6APEAX0@Z@Z ENDP			; `vector constructor iterator'
_TEXT	ENDS
END
