; Listing generated by Microsoft (R) Optimizing Compiler Version 19.16.27031.1 

include listing.inc

INCLUDELIB MSVCRT
INCLUDELIB OLDNAMES

PUBLIC	WinbaseIsolationAwarePrivateT_UnPgpgk
PUBLIC	IsolationAwarePrivateT_SqbjaYRiRY
PUBLIC	IsolationAwarePrivateT_SAbnPgpgk
PUBLIC	WinbaseIsolationAwarePrivateT_SpeRNgRQnPgpgk
PUBLIC	WinbaseIsolationAwarePrivateT_SpYRNahcpNYYRQ
EXTRN	GUID_NULL:BYTE
;	COMDAT IsolationAwarePrivateT_SqbjaYRiRY
_BSS	SEGMENT
IsolationAwarePrivateT_SqbjaYRiRY DD 01H DUP (?)
_BSS	ENDS
;	COMDAT IsolationAwarePrivateT_SAbnPgpgk
_BSS	SEGMENT
IsolationAwarePrivateT_SAbnPgpgk DD 01H DUP (?)
_BSS	ENDS
;	COMDAT WinbaseIsolationAwarePrivateT_SpeRNgRQnPgpgk
_BSS	SEGMENT
WinbaseIsolationAwarePrivateT_SpeRNgRQnPgpgk DD 01H DUP (?)
_BSS	ENDS
;	COMDAT WinbaseIsolationAwarePrivateT_SpYRNahcpNYYRQ
_BSS	SEGMENT
WinbaseIsolationAwarePrivateT_SpYRNahcpNYYRQ DD 01H DUP (?)
_BSS	ENDS
;	COMDAT WinbaseIsolationAwarePrivateT_UnPgpgk
_DATA	SEGMENT
WinbaseIsolationAwarePrivateT_UnPgpgk DQ ffffffffffffffffH
_DATA	ENDS
PUBLIC	??_H@YAXPEAX_K1P6APEAX0@Z@Z			; `vector constructor iterator'
PUBLIC	?__empty_global_delete@@YAXPEAX@Z		; __empty_global_delete
PUBLIC	?__empty_global_delete@@YAXPEAX_K@Z		; __empty_global_delete
PUBLIC	?deallocate@?$allocator@_W@std@@QEAAXQEA_W_K@Z	; std::allocator<wchar_t>::deallocate
PUBLIC	?allocate@?$allocator@_W@std@@QEAAPEA_W_K@Z	; std::allocator<wchar_t>::allocate
PUBLIC	?_Xran@?$_String_val@U?$_Simple_types@_W@std@@@std@@SAXXZ ; std::_String_val<std::_Simple_types<wchar_t> >::_Xran
PUBLIC	??1?$basic_string@_WU?$char_traits@_W@std@@V?$allocator@_W@2@@std@@QEAA@XZ ; std::basic_string<wchar_t,std::char_traits<wchar_t>,std::allocator<wchar_t> >::~basic_string<wchar_t,std::char_traits<wchar_t>,std::allocator<wchar_t> >
PUBLIC	?assign@?$basic_string@_WU?$char_traits@_W@std@@V?$allocator@_W@2@@std@@QEAAAEAV12@QEB_W_K@Z ; std::basic_string<wchar_t,std::char_traits<wchar_t>,std::allocator<wchar_t> >::assign
PUBLIC	?find_first_of@?$basic_string@_WU?$char_traits@_W@std@@V?$allocator@_W@2@@std@@QEBA_KAEBV12@_K@Z ; std::basic_string<wchar_t,std::char_traits<wchar_t>,std::allocator<wchar_t> >::find_first_of
PUBLIC	?find_first_not_of@?$basic_string@_WU?$char_traits@_W@std@@V?$allocator@_W@2@@std@@QEBA_KAEBV12@_K@Z ; std::basic_string<wchar_t,std::char_traits<wchar_t>,std::allocator<wchar_t> >::find_first_not_of
PUBLIC	?_Tidy_deallocate@?$basic_string@_WU?$char_traits@_W@std@@V?$allocator@_W@2@@std@@QEAAXXZ ; std::basic_string<wchar_t,std::char_traits<wchar_t>,std::allocator<wchar_t> >::_Tidy_deallocate
PUBLIC	?_Xlen@?$basic_string@_WU?$char_traits@_W@std@@V?$allocator@_W@2@@std@@SAXXZ ; std::basic_string<wchar_t,std::char_traits<wchar_t>,std::allocator<wchar_t> >::_Xlen
PUBLIC	?deallocate@?$allocator@M@std@@QEAAXQEAM_K@Z	; std::allocator<float>::deallocate
PUBLIC	?allocate@?$allocator@M@std@@QEAAPEAM_K@Z	; std::allocator<float>::allocate
PUBLIC	??0?$vector@MV?$allocator@M@std@@@std@@QEAA@AEBV01@@Z ; std::vector<float,std::allocator<float> >::vector<float,std::allocator<float> >
PUBLIC	??1?$vector@MV?$allocator@M@std@@@std@@QEAA@XZ	; std::vector<float,std::allocator<float> >::~vector<float,std::allocator<float> >
PUBLIC	?_Change_array@?$vector@MV?$allocator@M@std@@@std@@AEAAXQEAM_K1@Z ; std::vector<float,std::allocator<float> >::_Change_array
PUBLIC	?_Tidy@?$vector@MV?$allocator@M@std@@@std@@AEAAXXZ ; std::vector<float,std::allocator<float> >::_Tidy
PUBLIC	?_Xlength@?$vector@MV?$allocator@M@std@@@std@@CAXXZ ; std::vector<float,std::allocator<float> >::_Xlength
PUBLIC	??1TileRow@@QEAA@XZ				; TileRow::~TileRow
PUBLIC	?deallocate@?$allocator@VTileRow@@@std@@QEAAXQEAVTileRow@@_K@Z ; std::allocator<TileRow>::deallocate
PUBLIC	?_Destroy@?$vector@VTileRow@@V?$allocator@VTileRow@@@std@@@std@@AEAAXPEAVTileRow@@0@Z ; std::vector<TileRow,std::allocator<TileRow> >::_Destroy
PUBLIC	?_Xlength@?$vector@VTileRow@@V?$allocator@VTileRow@@@std@@@std@@CAXXZ ; std::vector<TileRow,std::allocator<TileRow> >::_Xlength
PUBLIC	?setPattern@TilePattern@@QEAAXV?$basic_string@_WU?$char_traits@_W@std@@V?$allocator@_W@2@@std@@@Z ; TilePattern::setPattern
PUBLIC	?setPreset@TilePattern@@QEAAXH@Z		; TilePattern::setPreset
PUBLIC	?edgeBlur@Tile@@CAMMMH@Z			; Tile::edgeBlur
PUBLIC	?corner@Tile@@CA?AVTilePoint@@MMMMAEAVTileParam@@@Z ; Tile::corner
PUBLIC	?rotatePoint2@Tile@@CAXAEAVPoint3@@M@Z		; Tile::rotatePoint2
PUBLIC	?rotateUV@Tile@@CAXHMAEAVPoint3@@@Z		; Tile::rotateUV
PUBLIC	?uvMapping@Tile@@CAXAEAVTilePoint@@VPoint3@@QEAMAEAVTileParam@@H@Z ; Tile::uvMapping
PUBLIC	?drawTile@Tile@@CA?AVTilePoint@@VPoint3@@QEAMAEAVTileParam@@HH@Z ; Tile::drawTile
PUBLIC	?pat_xBond@Tile@@CA?AVTilePoint@@VPoint3@@AEAVTileParam@@@Z ; Tile::pat_xBond
PUBLIC	?pat_herring@Tile@@CA?AVTilePoint@@VPoint3@@AEAVTileParam@@@Z ; Tile::pat_herring
PUBLIC	?draw@Tile@@SA?AVTilePoint@@VPoint3@@AEAVTileParam@@@Z ; Tile::draw
PUBLIC	?deallocate@?$allocator@V?$basic_string@_WU?$char_traits@_W@std@@V?$allocator@_W@2@@std@@@std@@QEAAXQEAV?$basic_string@_WU?$char_traits@_W@std@@V?$allocator@_W@2@@2@_K@Z ; std::allocator<std::basic_string<wchar_t,std::char_traits<wchar_t>,std::allocator<wchar_t> > >::deallocate
PUBLIC	??1?$vector@V?$basic_string@_WU?$char_traits@_W@std@@V?$allocator@_W@2@@std@@V?$allocator@V?$basic_string@_WU?$char_traits@_W@std@@V?$allocator@_W@2@@std@@@2@@std@@QEAA@XZ ; std::vector<std::basic_string<wchar_t,std::char_traits<wchar_t>,std::allocator<wchar_t> >,std::allocator<std::basic_string<wchar_t,std::char_traits<wchar_t>,std::allocator<wchar_t> > > >::~vector<std::basic_string<wchar_t,std::char_traits<wchar_t>,std::allocator<wchar_t> >,std::allocator<std::basic_string<wchar_t,std::char_traits<wchar_t>,std::allocator<wchar_t> > > >
PUBLIC	?_Destroy@?$vector@V?$basic_string@_WU?$char_traits@_W@std@@V?$allocator@_W@2@@std@@V?$allocator@V?$basic_string@_WU?$char_traits@_W@std@@V?$allocator@_W@2@@std@@@2@@std@@AEAAXPEAV?$basic_string@_WU?$char_traits@_W@std@@V?$allocator@_W@2@@2@0@Z ; std::vector<std::basic_string<wchar_t,std::char_traits<wchar_t>,std::allocator<wchar_t> >,std::allocator<std::basic_string<wchar_t,std::char_traits<wchar_t>,std::allocator<wchar_t> > > >::_Destroy
PUBLIC	?_Xlength@?$vector@V?$basic_string@_WU?$char_traits@_W@std@@V?$allocator@_W@2@@std@@V?$allocator@V?$basic_string@_WU?$char_traits@_W@std@@V?$allocator@_W@2@@std@@@2@@std@@CAXXZ ; std::vector<std::basic_string<wchar_t,std::char_traits<wchar_t>,std::allocator<wchar_t> >,std::allocator<std::basic_string<wchar_t,std::char_traits<wchar_t>,std::allocator<wchar_t> > > >::_Xlength
PUBLIC	??1?$basic_stringstream@_WU?$char_traits@_W@std@@V?$allocator@_W@2@@std@@UEAA@XZ ; std::basic_stringstream<wchar_t,std::char_traits<wchar_t>,std::allocator<wchar_t> >::~basic_stringstream<wchar_t,std::char_traits<wchar_t>,std::allocator<wchar_t> >
PUBLIC	??0?$basic_stringbuf@_WU?$char_traits@_W@std@@V?$allocator@_W@2@@std@@QEAA@AEBV?$basic_string@_WU?$char_traits@_W@std@@V?$allocator@_W@2@@1@H@Z ; std::basic_stringbuf<wchar_t,std::char_traits<wchar_t>,std::allocator<wchar_t> >::basic_stringbuf<wchar_t,std::char_traits<wchar_t>,std::allocator<wchar_t> >
PUBLIC	??1?$basic_stringbuf@_WU?$char_traits@_W@std@@V?$allocator@_W@2@@std@@UEAA@XZ ; std::basic_stringbuf<wchar_t,std::char_traits<wchar_t>,std::allocator<wchar_t> >::~basic_stringbuf<wchar_t,std::char_traits<wchar_t>,std::allocator<wchar_t> >
PUBLIC	?overflow@?$basic_stringbuf@_WU?$char_traits@_W@std@@V?$allocator@_W@2@@std@@MEAAGG@Z ; std::basic_stringbuf<wchar_t,std::char_traits<wchar_t>,std::allocator<wchar_t> >::overflow
PUBLIC	?pbackfail@?$basic_stringbuf@_WU?$char_traits@_W@std@@V?$allocator@_W@2@@std@@MEAAGG@Z ; std::basic_stringbuf<wchar_t,std::char_traits<wchar_t>,std::allocator<wchar_t> >::pbackfail
PUBLIC	?underflow@?$basic_stringbuf@_WU?$char_traits@_W@std@@V?$allocator@_W@2@@std@@MEAAGXZ ; std::basic_stringbuf<wchar_t,std::char_traits<wchar_t>,std::allocator<wchar_t> >::underflow
PUBLIC	?seekoff@?$basic_stringbuf@_WU?$char_traits@_W@std@@V?$allocator@_W@2@@std@@MEAA?AV?$fpos@U_Mbstatet@@@2@_JHH@Z ; std::basic_stringbuf<wchar_t,std::char_traits<wchar_t>,std::allocator<wchar_t> >::seekoff
PUBLIC	?seekpos@?$basic_stringbuf@_WU?$char_traits@_W@std@@V?$allocator@_W@2@@std@@MEAA?AV?$fpos@U_Mbstatet@@@2@V32@H@Z ; std::basic_stringbuf<wchar_t,std::char_traits<wchar_t>,std::allocator<wchar_t> >::seekpos
PUBLIC	??_G?$basic_stringbuf@_WU?$char_traits@_W@std@@V?$allocator@_W@2@@std@@UEAAPEAXI@Z ; std::basic_stringbuf<wchar_t,std::char_traits<wchar_t>,std::allocator<wchar_t> >::`scalar deleting destructor'
PUBLIC	??_G?$basic_stringstream@_WU?$char_traits@_W@std@@V?$allocator@_W@2@@std@@UEAAPEAXI@Z ; std::basic_stringstream<wchar_t,std::char_traits<wchar_t>,std::allocator<wchar_t> >::`scalar deleting destructor'
PUBLIC	??_D?$basic_stringstream@_WU?$char_traits@_W@std@@V?$allocator@_W@2@@std@@QEAAXXZ ; std::basic_stringstream<wchar_t,std::char_traits<wchar_t>,std::allocator<wchar_t> >::`vbase destructor'
PUBLIC	??$_Emplace_reallocate@V?$basic_string@_WU?$char_traits@_W@std@@V?$allocator@_W@2@@std@@@?$vector@V?$basic_string@_WU?$char_traits@_W@std@@V?$allocator@_W@2@@std@@V?$allocator@V?$basic_string@_WU?$char_traits@_W@std@@V?$allocator@_W@2@@std@@@2@@std@@QEAAPEAV?$basic_string@_WU?$char_traits@_W@std@@V?$allocator@_W@2@@1@QEAV21@$$QEAV21@@Z ; std::vector<std::basic_string<wchar_t,std::char_traits<wchar_t>,std::allocator<wchar_t> >,std::allocator<std::basic_string<wchar_t,std::char_traits<wchar_t>,std::allocator<wchar_t> > > >::_Emplace_reallocate<std::basic_string<wchar_t,std::char_traits<wchar_t>,std::allocator<wchar_t> > >
PUBLIC	??$_Emplace_reallocate@AEBVTileRow@@@?$vector@VTileRow@@V?$allocator@VTileRow@@@std@@@std@@QEAAPEAVTileRow@@QEAV2@AEBV2@@Z ; std::vector<TileRow,std::allocator<TileRow> >::_Emplace_reallocate<TileRow const &>
PUBLIC	??$_Emplace_reallocate@M@?$vector@MV?$allocator@M@std@@@std@@QEAAPEAMQEAM$$QEAM@Z ; std::vector<float,std::allocator<float> >::_Emplace_reallocate<float>
PUBLIC	??$_Emplace_reallocate@AEBM@?$vector@MV?$allocator@M@std@@@std@@QEAAPEAMQEAMAEBM@Z ; std::vector<float,std::allocator<float> >::_Emplace_reallocate<float const &>
PUBLIC	??$_Uninitialized_move@PEAVTileRow@@PEAV1@V?$allocator@VTileRow@@@std@@@std@@YAPEAVTileRow@@QEAV1@0PEAV1@AEAV?$allocator@VTileRow@@@0@@Z ; std::_Uninitialized_move<TileRow *,TileRow *,std::allocator<TileRow> >
PUBLIC	??1?$_Uninitialized_backout_al@PEAV?$basic_string@_WU?$char_traits@_W@std@@V?$allocator@_W@2@@std@@V?$allocator@V?$basic_string@_WU?$char_traits@_W@std@@V?$allocator@_W@2@@std@@@2@@std@@QEAA@XZ ; std::_Uninitialized_backout_al<std::basic_string<wchar_t,std::char_traits<wchar_t>,std::allocator<wchar_t> > *,std::allocator<std::basic_string<wchar_t,std::char_traits<wchar_t>,std::allocator<wchar_t> > > >::~_Uninitialized_backout_al<std::basic_string<wchar_t,std::char_traits<wchar_t>,std::allocator<wchar_t> > *,std::allocator<std::basic_string<wchar_t,std::char_traits<wchar_t>,std::allocator<wchar_t> > > >
PUBLIC	??1?$_Uninitialized_backout_al@PEAVTileRow@@V?$allocator@VTileRow@@@std@@@std@@QEAA@XZ ; std::_Uninitialized_backout_al<TileRow *,std::allocator<TileRow> >::~_Uninitialized_backout_al<TileRow *,std::allocator<TileRow> >
PUBLIC	??_E?$basic_stringstream@_WU?$char_traits@_W@std@@V?$allocator@_W@2@@std@@$4PPPPPPPM@A@EAAPEAXI@Z ; std::basic_stringstream<wchar_t,std::char_traits<wchar_t>,std::allocator<wchar_t> >::`vector deleting destructor'
PUBLIC	??_C@_1BA@HLCPMHKJ@?$AA0?$AA?0?$AA?5?$AA1?$AA?0?$AA?5?$AA1@ ; `string'
PUBLIC	??_C@_1CI@MGOLCOH@?$AA0?$AA?0?$AA?5?$AA1?$AA?0?$AA?5?$AA1?$AA?5?$AA?1?$AA?5?$AA0?$AA?4?$AA5?$AA?0?$AA?5@ ; `string'
PUBLIC	??_C@_1HM@KFKBNDNL@?$AA?4?$AA2?$AA5?$AA?0?$AA?5?$AA1?$AA?0?$AA?5?$AA1?$AA?0?$AA?5?$AA?4?$AA5?$AA?5?$AA?1@ ; `string'
PUBLIC	??_C@_1HG@LGFFBGEF@?$AA?4?$AA2?$AA5?$AA?0?$AA?5?$AA1?$AA?0?$AA?5?$AA?4?$AA5?$AA?5?$AA?1?$AA?5?$AA?9?$AA?4@ ; `string'
PUBLIC	??_C@_1DI@OGPGLDJP@?$AA0?$AA?0?$AA?5?$AA1?$AA?0?$AA?5?$AA1?$AA?0?$AA?5?$AA?4?$AA5?$AA?5?$AA?1?$AA?5?$AA?4@ ; `string'
PUBLIC	??_C@_1EG@NKHPAEJM@?$AA0?$AA?0?$AA?5?$AA1?$AA?0?$AA?5?$AA1?$AA?0?$AA?5?$AA1?$AA?0?$AA?5?$AA?4?$AA5?$AA?5@ ; `string'
PUBLIC	??_C@_1FC@MFPKJHBG@?$AA0?$AA?0?$AA?5?$AA1?$AA?0?$AA?5?$AA1?$AA?0?$AA?5?$AA1?$AA?0?$AA?5?$AA1?$AA?0?$AA?5@ ; `string'
PUBLIC	??_C@_1CK@FBIPLABB@?$AA?4?$AA2?$AA5?$AA?0?$AA?5?$AA1?$AA?0?$AA?5?$AA?4?$AA5?$AA?5?$AA?1?$AA?5?$AA0?$AA?0@ ; `string'
PUBLIC	??_C@_1FC@LEIJMHNO@?$AA0?$AA?0?$AA1?$AA?0?$AA1?$AA?5?$AA?1?$AA?5?$AA?9?$AA?4?$AA2?$AA5?$AA?0?$AA1?$AA?0@ ; `string'
PUBLIC	??_C@_1FC@DKDGEDND@?$AA0?$AA?0?$AA1?$AA?0?$AA?4?$AA5?$AA?5?$AA?1?$AA?5?$AA?9?$AA?4?$AA2?$AA5?$AA?0?$AA1@ ; `string'
PUBLIC	??_7?$basic_stringbuf@_WU?$char_traits@_W@std@@V?$allocator@_W@2@@std@@6B@ ; std::basic_stringbuf<wchar_t,std::char_traits<wchar_t>,std::allocator<wchar_t> >::`vftable'
PUBLIC	??_7?$basic_stringstream@_WU?$char_traits@_W@std@@V?$allocator@_W@2@@std@@6B@ ; std::basic_stringstream<wchar_t,std::char_traits<wchar_t>,std::allocator<wchar_t> >::`vftable'
PUBLIC	??_8?$basic_stringstream@_WU?$char_traits@_W@std@@V?$allocator@_W@2@@std@@7B?$basic_istream@_WU?$char_traits@_W@std@@@1@@ ; std::basic_stringstream<wchar_t,std::char_traits<wchar_t>,std::allocator<wchar_t> >::`vbtable'
PUBLIC	??_8?$basic_stringstream@_WU?$char_traits@_W@std@@V?$allocator@_W@2@@std@@7B?$basic_ostream@_WU?$char_traits@_W@std@@@1@@ ; std::basic_stringstream<wchar_t,std::char_traits<wchar_t>,std::allocator<wchar_t> >::`vbtable'
PUBLIC	??_C@_13CGOKJPIL@?$AA?1@			; `string'
PUBLIC	??_C@_13DEFPDAGF@?$AA?0@			; `string'
PUBLIC	??_C@_0BI@CFPLBAOH@invalid?5string?5position@	; `string'
PUBLIC	??_C@_0BD@OLBABOEK@vector?$DMT?$DO?5too?5long@	; `string'
PUBLIC	??_C@_0BA@JFNIOLAK@string?5too?5long@		; `string'
PUBLIC	??_R4?$basic_stringbuf@_WU?$char_traits@_W@std@@V?$allocator@_W@2@@std@@6B@ ; std::basic_stringbuf<wchar_t,std::char_traits<wchar_t>,std::allocator<wchar_t> >::`RTTI Complete Object Locator'
PUBLIC	??_R0?AV?$basic_stringbuf@_WU?$char_traits@_W@std@@V?$allocator@_W@2@@std@@@8 ; std::basic_stringbuf<wchar_t,std::char_traits<wchar_t>,std::allocator<wchar_t> > `RTTI Type Descriptor'
PUBLIC	??_R3?$basic_stringbuf@_WU?$char_traits@_W@std@@V?$allocator@_W@2@@std@@8 ; std::basic_stringbuf<wchar_t,std::char_traits<wchar_t>,std::allocator<wchar_t> >::`RTTI Class Hierarchy Descriptor'
PUBLIC	??_R2?$basic_stringbuf@_WU?$char_traits@_W@std@@V?$allocator@_W@2@@std@@8 ; std::basic_stringbuf<wchar_t,std::char_traits<wchar_t>,std::allocator<wchar_t> >::`RTTI Base Class Array'
PUBLIC	??_R1A@?0A@EA@?$basic_stringbuf@_WU?$char_traits@_W@std@@V?$allocator@_W@2@@std@@8 ; std::basic_stringbuf<wchar_t,std::char_traits<wchar_t>,std::allocator<wchar_t> >::`RTTI Base Class Descriptor at (0,-1,0,64)'
PUBLIC	??_R1A@?0A@EA@?$basic_streambuf@_WU?$char_traits@_W@std@@@std@@8 ; std::basic_streambuf<wchar_t,std::char_traits<wchar_t> >::`RTTI Base Class Descriptor at (0,-1,0,64)'
PUBLIC	??_R0?AV?$basic_streambuf@_WU?$char_traits@_W@std@@@std@@@8 ; std::basic_streambuf<wchar_t,std::char_traits<wchar_t> > `RTTI Type Descriptor'
PUBLIC	??_R3?$basic_streambuf@_WU?$char_traits@_W@std@@@std@@8 ; std::basic_streambuf<wchar_t,std::char_traits<wchar_t> >::`RTTI Class Hierarchy Descriptor'
PUBLIC	??_R2?$basic_streambuf@_WU?$char_traits@_W@std@@@std@@8 ; std::basic_streambuf<wchar_t,std::char_traits<wchar_t> >::`RTTI Base Class Array'
PUBLIC	??_R4?$basic_stringstream@_WU?$char_traits@_W@std@@V?$allocator@_W@2@@std@@6B@ ; std::basic_stringstream<wchar_t,std::char_traits<wchar_t>,std::allocator<wchar_t> >::`RTTI Complete Object Locator'
PUBLIC	??_R0?AV?$basic_stringstream@_WU?$char_traits@_W@std@@V?$allocator@_W@2@@std@@@8 ; std::basic_stringstream<wchar_t,std::char_traits<wchar_t>,std::allocator<wchar_t> > `RTTI Type Descriptor'
PUBLIC	??_R3?$basic_stringstream@_WU?$char_traits@_W@std@@V?$allocator@_W@2@@std@@8 ; std::basic_stringstream<wchar_t,std::char_traits<wchar_t>,std::allocator<wchar_t> >::`RTTI Class Hierarchy Descriptor'
PUBLIC	??_R2?$basic_stringstream@_WU?$char_traits@_W@std@@V?$allocator@_W@2@@std@@8 ; std::basic_stringstream<wchar_t,std::char_traits<wchar_t>,std::allocator<wchar_t> >::`RTTI Base Class Array'
PUBLIC	??_R1A@?0A@EA@?$basic_stringstream@_WU?$char_traits@_W@std@@V?$allocator@_W@2@@std@@8 ; std::basic_stringstream<wchar_t,std::char_traits<wchar_t>,std::allocator<wchar_t> >::`RTTI Base Class Descriptor at (0,-1,0,64)'
PUBLIC	??_R1A@?0A@EA@?$basic_iostream@_WU?$char_traits@_W@std@@@std@@8 ; std::basic_iostream<wchar_t,std::char_traits<wchar_t> >::`RTTI Base Class Descriptor at (0,-1,0,64)'
PUBLIC	??_R0?AV?$basic_iostream@_WU?$char_traits@_W@std@@@std@@@8 ; std::basic_iostream<wchar_t,std::char_traits<wchar_t> > `RTTI Type Descriptor'
PUBLIC	??_R3?$basic_iostream@_WU?$char_traits@_W@std@@@std@@8 ; std::basic_iostream<wchar_t,std::char_traits<wchar_t> >::`RTTI Class Hierarchy Descriptor'
PUBLIC	??_R2?$basic_iostream@_WU?$char_traits@_W@std@@@std@@8 ; std::basic_iostream<wchar_t,std::char_traits<wchar_t> >::`RTTI Base Class Array'
PUBLIC	??_R1A@?0A@EA@?$basic_istream@_WU?$char_traits@_W@std@@@std@@8 ; std::basic_istream<wchar_t,std::char_traits<wchar_t> >::`RTTI Base Class Descriptor at (0,-1,0,64)'
PUBLIC	??_R0?AV?$basic_istream@_WU?$char_traits@_W@std@@@std@@@8 ; std::basic_istream<wchar_t,std::char_traits<wchar_t> > `RTTI Type Descriptor'
PUBLIC	??_R3?$basic_istream@_WU?$char_traits@_W@std@@@std@@8 ; std::basic_istream<wchar_t,std::char_traits<wchar_t> >::`RTTI Class Hierarchy Descriptor'
PUBLIC	??_R2?$basic_istream@_WU?$char_traits@_W@std@@@std@@8 ; std::basic_istream<wchar_t,std::char_traits<wchar_t> >::`RTTI Base Class Array'
PUBLIC	??_R1A@A@3FA@?$basic_ios@_WU?$char_traits@_W@std@@@std@@8 ; std::basic_ios<wchar_t,std::char_traits<wchar_t> >::`RTTI Base Class Descriptor at (0,0,4,80)'
PUBLIC	??_R0?AV?$basic_ios@_WU?$char_traits@_W@std@@@std@@@8 ; std::basic_ios<wchar_t,std::char_traits<wchar_t> > `RTTI Type Descriptor'
PUBLIC	??_R3?$basic_ios@_WU?$char_traits@_W@std@@@std@@8 ; std::basic_ios<wchar_t,std::char_traits<wchar_t> >::`RTTI Class Hierarchy Descriptor'
PUBLIC	??_R2?$basic_ios@_WU?$char_traits@_W@std@@@std@@8 ; std::basic_ios<wchar_t,std::char_traits<wchar_t> >::`RTTI Base Class Array'
PUBLIC	??_R1A@?0A@EA@?$basic_ios@_WU?$char_traits@_W@std@@@std@@8 ; std::basic_ios<wchar_t,std::char_traits<wchar_t> >::`RTTI Base Class Descriptor at (0,-1,0,64)'
PUBLIC	??_R1A@?0A@EA@ios_base@std@@8			; std::ios_base::`RTTI Base Class Descriptor at (0,-1,0,64)'
PUBLIC	??_R0?AVios_base@std@@@8			; std::ios_base `RTTI Type Descriptor'
PUBLIC	??_R3ios_base@std@@8				; std::ios_base::`RTTI Class Hierarchy Descriptor'
PUBLIC	??_R2ios_base@std@@8				; std::ios_base::`RTTI Base Class Array'
PUBLIC	??_R17?0A@EA@?$_Iosb@H@std@@8			; std::_Iosb<int>::`RTTI Base Class Descriptor at (8,-1,0,64)'
PUBLIC	??_R0?AV?$_Iosb@H@std@@@8			; std::_Iosb<int> `RTTI Type Descriptor'
PUBLIC	??_R3?$_Iosb@H@std@@8				; std::_Iosb<int>::`RTTI Class Hierarchy Descriptor'
PUBLIC	??_R2?$_Iosb@H@std@@8				; std::_Iosb<int>::`RTTI Base Class Array'
PUBLIC	??_R1A@?0A@EA@?$_Iosb@H@std@@8			; std::_Iosb<int>::`RTTI Base Class Descriptor at (0,-1,0,64)'
PUBLIC	??_R1A@A@3EA@ios_base@std@@8			; std::ios_base::`RTTI Base Class Descriptor at (0,0,4,64)'
PUBLIC	??_R17A@3EA@?$_Iosb@H@std@@8			; std::_Iosb<int>::`RTTI Base Class Descriptor at (8,0,4,64)'
PUBLIC	??_R1BA@?0A@EA@?$basic_ostream@_WU?$char_traits@_W@std@@@std@@8 ; std::basic_ostream<wchar_t,std::char_traits<wchar_t> >::`RTTI Base Class Descriptor at (16,-1,0,64)'
PUBLIC	??_R0?AV?$basic_ostream@_WU?$char_traits@_W@std@@@std@@@8 ; std::basic_ostream<wchar_t,std::char_traits<wchar_t> > `RTTI Type Descriptor'
PUBLIC	??_R3?$basic_ostream@_WU?$char_traits@_W@std@@@std@@8 ; std::basic_ostream<wchar_t,std::char_traits<wchar_t> >::`RTTI Class Hierarchy Descriptor'
PUBLIC	??_R2?$basic_ostream@_WU?$char_traits@_W@std@@@std@@8 ; std::basic_ostream<wchar_t,std::char_traits<wchar_t> >::`RTTI Base Class Array'
PUBLIC	??_R1A@?0A@EA@?$basic_ostream@_WU?$char_traits@_W@std@@@std@@8 ; std::basic_ostream<wchar_t,std::char_traits<wchar_t> >::`RTTI Base Class Descriptor at (0,-1,0,64)'
PUBLIC	__real@38d1b717
PUBLIC	__real@3dfcb924
PUBLIC	__real@3f000000
PUBLIC	__real@3f490fdb
PUBLIC	__real@3f800000
PUBLIC	__real@3f9d70a4
PUBLIC	__real@3fa9999a
PUBLIC	__real@3fb504f3
PUBLIC	__real@3fc90fdb
PUBLIC	__real@3ff0000000000000
PUBLIC	__real@403f666666666666
PUBLIC	__real@4048f5c3
PUBLIC	__real@40490fdb
PUBLIC	__real@4096cbe4
PUBLIC	__real@40dfffc000000000
PUBLIC	__real@41fb4c0b
PUBLIC	__real@5f800000
PUBLIC	__xmm@00000000000000070000000000000000
PUBLIC	__xmm@7fffffff7fffffff7fffffff7fffffff
PUBLIC	__xmm@80000000800000008000000080000000
EXTRN	??2@YAPEAX_K@Z:PROC				; operator new
EXTRN	??3@YAXPEAX_K@Z:PROC				; operator delete
EXTRN	__imp__invalid_parameter_noinfo_noreturn:PROC
EXTRN	__imp_srand:PROC
EXTRN	__imp_rand:PROC
EXTRN	?_Xbad_alloc@std@@YAXXZ:PROC			; std::_Xbad_alloc
EXTRN	?_Xlength_error@std@@YAXPEBD@Z:PROC		; std::_Xlength_error
EXTRN	?_Xout_of_range@std@@YAXPEBD@Z:PROC		; std::_Xout_of_range
EXTRN	__imp_??1ios_base@std@@UEAA@XZ:PROC
EXTRN	__imp_?_Ios_base_dtor@ios_base@std@@CAXPEAV12@@Z:PROC
EXTRN	__imp_??0?$basic_streambuf@_WU?$char_traits@_W@std@@@std@@IEAA@XZ:PROC
EXTRN	__imp_??1?$basic_streambuf@_WU?$char_traits@_W@std@@@std@@UEAA@XZ:PROC
EXTRN	__imp_?_Pninc@?$basic_streambuf@_WU?$char_traits@_W@std@@@std@@IEAAPEA_WXZ:PROC
EXTRN	__imp_??1?$basic_ios@_WU?$char_traits@_W@std@@@std@@UEAA@XZ:PROC
EXTRN	__imp_??0?$basic_ios@_WU?$char_traits@_W@std@@@std@@IEAA@XZ:PROC
EXTRN	__imp_??5?$basic_istream@_WU?$char_traits@_W@std@@@std@@QEAAAEAV01@AEAN@Z:PROC
EXTRN	__imp_??0?$basic_iostream@_WU?$char_traits@_W@std@@@std@@QEAA@PEAV?$basic_streambuf@_WU?$char_traits@_W@std@@@1@@Z:PROC
EXTRN	__imp_??1?$basic_iostream@_WU?$char_traits@_W@std@@@std@@UEAA@XZ:PROC
EXTRN	__imp_??0Point3@@QEAA@AEBV0@@Z:PROC
EXTRN	?smooth@@YAMMMM@Z:PROC				; smooth
EXTRN	?snoise@Perlin@@SAMM@Z:PROC			; Perlin::snoise
EXTRN	??_E?$basic_stringbuf@_WU?$char_traits@_W@std@@V?$allocator@_W@2@@std@@UEAAPEAXI@Z:PROC ; std::basic_stringbuf<wchar_t,std::char_traits<wchar_t>,std::allocator<wchar_t> >::`vector deleting destructor'
EXTRN	??_E?$basic_stringstream@_WU?$char_traits@_W@std@@V?$allocator@_W@2@@std@@UEAAPEAXI@Z:PROC ; std::basic_stringstream<wchar_t,std::char_traits<wchar_t>,std::allocator<wchar_t> >::`vector deleting destructor'
EXTRN	?_Lock@?$basic_streambuf@_WU?$char_traits@_W@std@@@std@@UEAAXXZ:PROC ; std::basic_streambuf<wchar_t,std::char_traits<wchar_t> >::_Lock
EXTRN	?_Unlock@?$basic_streambuf@_WU?$char_traits@_W@std@@@std@@UEAAXXZ:PROC ; std::basic_streambuf<wchar_t,std::char_traits<wchar_t> >::_Unlock
EXTRN	?imbue@?$basic_streambuf@_WU?$char_traits@_W@std@@@std@@MEAAXAEBVlocale@2@@Z:PROC ; std::basic_streambuf<wchar_t,std::char_traits<wchar_t> >::imbue
EXTRN	?setbuf@?$basic_streambuf@_WU?$char_traits@_W@std@@@std@@MEAAPEAV12@PEA_W_J@Z:PROC ; std::basic_streambuf<wchar_t,std::char_traits<wchar_t> >::setbuf
EXTRN	?showmanyc@?$basic_streambuf@_WU?$char_traits@_W@std@@@std@@MEAA_JXZ:PROC ; std::basic_streambuf<wchar_t,std::char_traits<wchar_t> >::showmanyc
EXTRN	?sync@?$basic_streambuf@_WU?$char_traits@_W@std@@@std@@MEAAHXZ:PROC ; std::basic_streambuf<wchar_t,std::char_traits<wchar_t> >::sync
EXTRN	?uflow@?$basic_streambuf@_WU?$char_traits@_W@std@@@std@@MEAAGXZ:PROC ; std::basic_streambuf<wchar_t,std::char_traits<wchar_t> >::uflow
EXTRN	?xsgetn@?$basic_streambuf@_WU?$char_traits@_W@std@@@std@@MEAA_JPEA_W_J@Z:PROC ; std::basic_streambuf<wchar_t,std::char_traits<wchar_t> >::xsgetn
EXTRN	?xsputn@?$basic_streambuf@_WU?$char_traits@_W@std@@@std@@MEAA_JPEB_W_J@Z:PROC ; std::basic_streambuf<wchar_t,std::char_traits<wchar_t> >::xsputn
EXTRN	_CxxThrowException:PROC
EXTRN	__CxxFrameHandler3:PROC
EXTRN	cosf:PROC
EXTRN	fmodf:PROC
EXTRN	memcpy:PROC
EXTRN	memmove:PROC
EXTRN	memset:PROC
EXTRN	sinf:PROC
EXTRN	sqrtf:PROC
EXTRN	??_7type_info@@6B@:BYTE				; type_info::`vftable'
EXTRN	__imp_??_7ios_base@std@@6B@:BYTE
EXTRN	__imp_??_7?$basic_ios@_WU?$char_traits@_W@std@@@std@@6B@:BYTE
EXTRN	__ImageBase:BYTE
EXTRN	_fltused:DWORD
_BSS	SEGMENT
?kInvalidId@AssetManagement@MaxSDK@@3UAssetId@12@A DB 010H DUP (?) ; MaxSDK::AssetManagement::kInvalidId
_BSS	ENDS
;	COMDAT pdata
pdata	SEGMENT
$pdata$??_H@YAXPEAX_K1P6APEAX0@Z@Z DD imagerel $LN12
	DD	imagerel $LN12+72
	DD	imagerel $unwind$??_H@YAXPEAX_K1P6APEAX0@Z@Z
pdata	ENDS
;	COMDAT pdata
pdata	SEGMENT
$pdata$wmemcpy DD imagerel $LN4
	DD	imagerel $LN4+26
	DD	imagerel $unwind$wmemcpy
pdata	ENDS
;	COMDAT pdata
pdata	SEGMENT
$pdata$?copy@?$_WChar_traits@_W@std@@SAPEA_WQEA_WQEB_W_K@Z DD imagerel $LN6
	DD	imagerel $LN6+26
	DD	imagerel $unwind$?copy@?$_WChar_traits@_W@std@@SAPEA_WQEA_WQEB_W_K@Z
pdata	ENDS
;	COMDAT pdata
pdata	SEGMENT
$pdata$?_Adjust_manually_vector_aligned@std@@YAXAEAPEAXAEA_K@Z DD imagerel $LN13
	DD	imagerel $LN13+43
	DD	imagerel $unwind$?_Adjust_manually_vector_aligned@std@@YAXAEAPEAXAEA_K@Z
pdata	ENDS
;	COMDAT pdata
pdata	SEGMENT
$pdata$?deallocate@?$allocator@_W@std@@QEAAXQEA_W_K@Z DD imagerel $LN20
	DD	imagerel $LN20+63
	DD	imagerel $unwind$?deallocate@?$allocator@_W@std@@QEAAXQEA_W_K@Z
pdata	ENDS
;	COMDAT pdata
pdata	SEGMENT
$pdata$?allocate@?$allocator@_W@std@@QEAAPEA_W_K@Z DD imagerel $LN30
	DD	imagerel $LN30+113
	DD	imagerel $unwind$?allocate@?$allocator@_W@std@@QEAAPEA_W_K@Z
pdata	ENDS
;	COMDAT pdata
pdata	SEGMENT
$pdata$?_Check_offset@?$_String_val@U?$_Simple_types@_W@std@@@std@@QEBAX_K@Z DD imagerel $LN7
	DD	imagerel $LN7+21
	DD	imagerel $unwind$?_Check_offset@?$_String_val@U?$_Simple_types@_W@std@@@std@@QEBAX_K@Z
pdata	ENDS
;	COMDAT pdata
pdata	SEGMENT
$pdata$?_Xran@?$_String_val@U?$_Simple_types@_W@std@@@std@@SAXXZ DD imagerel $LN4
	DD	imagerel $LN4+17
	DD	imagerel $unwind$?_Xran@?$_String_val@U?$_Simple_types@_W@std@@@std@@SAXXZ
pdata	ENDS
;	COMDAT pdata
pdata	SEGMENT
$pdata$??0?$basic_string@_WU?$char_traits@_W@std@@V?$allocator@_W@2@@std@@QEAA@AEBV01@@Z DD imagerel $LN77
	DD	imagerel $LN77+158
	DD	imagerel $unwind$??0?$basic_string@_WU?$char_traits@_W@std@@V?$allocator@_W@2@@std@@QEAA@AEBV01@@Z
pdata	ENDS
;	COMDAT pdata
pdata	SEGMENT
$pdata$??0?$basic_string@_WU?$char_traits@_W@std@@V?$allocator@_W@2@@std@@QEAA@AEBV01@_K1AEBV?$allocator@_W@1@@Z DD imagerel $LN47
	DD	imagerel $LN47+82
	DD	imagerel $unwind$??0?$basic_string@_WU?$char_traits@_W@std@@V?$allocator@_W@2@@std@@QEAA@AEBV01@_K1AEBV?$allocator@_W@1@@Z
pdata	ENDS
;	COMDAT pdata
pdata	SEGMENT
$pdata$??0?$basic_string@_WU?$char_traits@_W@std@@V?$allocator@_W@2@@std@@QEAA@QEB_W@Z DD imagerel $LN28
	DD	imagerel $LN28+57
	DD	imagerel $unwind$??0?$basic_string@_WU?$char_traits@_W@std@@V?$allocator@_W@2@@std@@QEAA@QEB_W@Z
pdata	ENDS
;	COMDAT pdata
pdata	SEGMENT
$pdata$?_Construct_lv_contents@?$basic_string@_WU?$char_traits@_W@std@@V?$allocator@_W@2@@std@@QEAAXAEBV12@@Z DD imagerel $LN58
	DD	imagerel $LN58+166
	DD	imagerel $unwind$?_Construct_lv_contents@?$basic_string@_WU?$char_traits@_W@std@@V?$allocator@_W@2@@std@@QEAAXAEBV12@@Z
pdata	ENDS
;	COMDAT pdata
pdata	SEGMENT
$pdata$??1?$basic_string@_WU?$char_traits@_W@std@@V?$allocator@_W@2@@std@@QEAA@XZ DD imagerel $LN13
	DD	imagerel $LN13+24
	DD	imagerel $unwind$??1?$basic_string@_WU?$char_traits@_W@std@@V?$allocator@_W@2@@std@@QEAA@XZ
pdata	ENDS
;	COMDAT pdata
pdata	SEGMENT
$pdata$?assign@?$basic_string@_WU?$char_traits@_W@std@@V?$allocator@_W@2@@std@@QEAAAEAV12@AEBV12@_K_K@Z DD imagerel $LN25
	DD	imagerel $LN25+55
	DD	imagerel $unwind$?assign@?$basic_string@_WU?$char_traits@_W@std@@V?$allocator@_W@2@@std@@QEAAAEAV12@AEBV12@_K_K@Z
pdata	ENDS
;	COMDAT pdata
pdata	SEGMENT
$pdata$?assign@?$basic_string@_WU?$char_traits@_W@std@@V?$allocator@_W@2@@std@@QEAAAEAV12@QEB_W_K@Z DD imagerel $LN115
	DD	imagerel $LN115+292
	DD	imagerel $unwind$?assign@?$basic_string@_WU?$char_traits@_W@std@@V?$allocator@_W@2@@std@@QEAAAEAV12@QEB_W_K@Z
pdata	ENDS
;	COMDAT pdata
pdata	SEGMENT
$pdata$?find_first_of@?$basic_string@_WU?$char_traits@_W@std@@V?$allocator@_W@2@@std@@QEBA_KAEBV12@_K@Z DD imagerel $LN87
	DD	imagerel $LN87+315
	DD	imagerel $unwind$?find_first_of@?$basic_string@_WU?$char_traits@_W@std@@V?$allocator@_W@2@@std@@QEBA_KAEBV12@_K@Z
pdata	ENDS
;	COMDAT pdata
pdata	SEGMENT
$pdata$?find_first_not_of@?$basic_string@_WU?$char_traits@_W@std@@V?$allocator@_W@2@@std@@QEBA_KAEBV12@_K@Z DD imagerel $LN86
	DD	imagerel $LN86+302
	DD	imagerel $unwind$?find_first_not_of@?$basic_string@_WU?$char_traits@_W@std@@V?$allocator@_W@2@@std@@QEBA_KAEBV12@_K@Z
pdata	ENDS
;	COMDAT pdata
pdata	SEGMENT
$pdata$?substr@?$basic_string@_WU?$char_traits@_W@std@@V?$allocator@_W@2@@std@@QEBA?AV12@_K0@Z DD imagerel $LN58
	DD	imagerel $LN58+111
	DD	imagerel $unwind$?substr@?$basic_string@_WU?$char_traits@_W@std@@V?$allocator@_W@2@@std@@QEBA?AV12@_K0@Z
pdata	ENDS
;	COMDAT pdata
pdata	SEGMENT
$pdata$?dtor$0@?0??substr@?$basic_string@_WU?$char_traits@_W@std@@V?$allocator@_W@2@@std@@QEBA?AV12@_K0@Z@4HA DD imagerel ?dtor$0@?0??substr@?$basic_string@_WU?$char_traits@_W@std@@V?$allocator@_W@2@@std@@QEBA?AV12@_K0@Z@4HA
	DD	imagerel ?dtor$0@?0??substr@?$basic_string@_WU?$char_traits@_W@std@@V?$allocator@_W@2@@std@@QEBA?AV12@_K0@Z@4HA+38
	DD	imagerel $unwind$?dtor$0@?0??substr@?$basic_string@_WU?$char_traits@_W@std@@V?$allocator@_W@2@@std@@QEBA?AV12@_K0@Z@4HA
pdata	ENDS
;	COMDAT pdata
pdata	SEGMENT
$pdata$?_Tidy_deallocate@?$basic_string@_WU?$char_traits@_W@std@@V?$allocator@_W@2@@std@@QEAAXXZ DD imagerel $LN48
	DD	imagerel $LN48+98
	DD	imagerel $unwind$?_Tidy_deallocate@?$basic_string@_WU?$char_traits@_W@std@@V?$allocator@_W@2@@std@@QEAAXXZ
pdata	ENDS
;	COMDAT pdata
pdata	SEGMENT
$pdata$?_Xlen@?$basic_string@_WU?$char_traits@_W@std@@V?$allocator@_W@2@@std@@SAXXZ DD imagerel $LN4
	DD	imagerel $LN4+17
	DD	imagerel $unwind$?_Xlen@?$basic_string@_WU?$char_traits@_W@std@@V?$allocator@_W@2@@std@@SAXXZ
pdata	ENDS
;	COMDAT pdata
pdata	SEGMENT
$pdata$??_G?$basic_string@_WU?$char_traits@_W@std@@V?$allocator@_W@2@@std@@QEAAPEAXI@Z DD imagerel $LN17
	DD	imagerel $LN17+64
	DD	imagerel $unwind$??_G?$basic_string@_WU?$char_traits@_W@std@@V?$allocator@_W@2@@std@@QEAAPEAXI@Z
pdata	ENDS
;	COMDAT pdata
pdata	SEGMENT
$pdata$??0TileRow@@QEAA@M@Z DD imagerel $LN16
	DD	imagerel $LN16+43
	DD	imagerel $unwind$??0TileRow@@QEAA@M@Z
pdata	ENDS
;	COMDAT pdata
pdata	SEGMENT
$pdata$?deallocate@?$allocator@M@std@@QEAAXQEAM_K@Z DD imagerel $LN20
	DD	imagerel $LN20+67
	DD	imagerel $unwind$?deallocate@?$allocator@M@std@@QEAAXQEAM_K@Z
pdata	ENDS
;	COMDAT pdata
pdata	SEGMENT
$pdata$?allocate@?$allocator@M@std@@QEAAPEAM_K@Z DD imagerel $LN30
	DD	imagerel $LN30+117
	DD	imagerel $unwind$?allocate@?$allocator@M@std@@QEAAPEAM_K@Z
pdata	ENDS
;	COMDAT pdata
pdata	SEGMENT
$pdata$??0?$vector@MV?$allocator@M@std@@@std@@QEAA@AEBV01@@Z DD imagerel $LN162
	DD	imagerel $LN162+171
	DD	imagerel $unwind$??0?$vector@MV?$allocator@M@std@@@std@@QEAA@AEBV01@@Z
pdata	ENDS
;	COMDAT pdata
pdata	SEGMENT
$pdata$?catch$0@?0???0?$vector@MV?$allocator@M@std@@@std@@QEAA@AEBV01@@Z@4HA DD imagerel ?catch$0@?0???0?$vector@MV?$allocator@M@std@@@std@@QEAA@AEBV01@@Z@4HA
	DD	imagerel ?catch$0@?0???0?$vector@MV?$allocator@M@std@@@std@@QEAA@AEBV01@@Z@4HA+32
	DD	imagerel $unwind$?catch$0@?0???0?$vector@MV?$allocator@M@std@@@std@@QEAA@AEBV01@@Z@4HA
pdata	ENDS
;	COMDAT pdata
pdata	SEGMENT
$pdata$??1?$vector@MV?$allocator@M@std@@@std@@QEAA@XZ DD imagerel $LN106
	DD	imagerel $LN106+102
	DD	imagerel $unwind$??1?$vector@MV?$allocator@M@std@@@std@@QEAA@XZ
pdata	ENDS
;	COMDAT pdata
pdata	SEGMENT
$pdata$?_Umove@?$vector@MV?$allocator@M@std@@@std@@AEAAPEAMPEAM00@Z DD imagerel $LN28
	DD	imagerel $LN28+45
	DD	imagerel $unwind$?_Umove@?$vector@MV?$allocator@M@std@@@std@@AEAAPEAMPEAM00@Z
pdata	ENDS
;	COMDAT pdata
pdata	SEGMENT
$pdata$?_Buy@?$vector@MV?$allocator@M@std@@@std@@AEAA_N_K@Z DD imagerel $LN72
	DD	imagerel $LN72+88
	DD	imagerel $unwind$?_Buy@?$vector@MV?$allocator@M@std@@@std@@AEAA_N_K@Z
pdata	ENDS
;	COMDAT pdata
pdata	SEGMENT
$pdata$?_Change_array@?$vector@MV?$allocator@M@std@@@std@@AEAAXQEAM_K1@Z DD imagerel $LN102
	DD	imagerel $LN102+136
	DD	imagerel $unwind$?_Change_array@?$vector@MV?$allocator@M@std@@@std@@AEAAXQEAM_K1@Z
pdata	ENDS
;	COMDAT pdata
pdata	SEGMENT
$pdata$?_Tidy@?$vector@MV?$allocator@M@std@@@std@@AEAAXXZ DD imagerel $LN102
	DD	imagerel $LN102+92
	DD	imagerel $unwind$?_Tidy@?$vector@MV?$allocator@M@std@@@std@@AEAAXXZ
pdata	ENDS
;	COMDAT pdata
pdata	SEGMENT
$pdata$?_Xlength@?$vector@MV?$allocator@M@std@@@std@@CAXXZ DD imagerel $LN4
	DD	imagerel $LN4+17
	DD	imagerel $unwind$?_Xlength@?$vector@MV?$allocator@M@std@@@std@@CAXXZ
pdata	ENDS
;	COMDAT pdata
pdata	SEGMENT
$pdata$??1TileRow@@QEAA@XZ DD imagerel $LN6
	DD	imagerel $LN6+31
	DD	imagerel $unwind$??1TileRow@@QEAA@XZ
pdata	ENDS
;	COMDAT pdata
pdata	SEGMENT
$pdata$??0TileRow@@QEAA@AEBV0@@Z DD imagerel $LN6
	DD	imagerel $LN6+55
	DD	imagerel $unwind$??0TileRow@@QEAA@AEBV0@@Z
pdata	ENDS
;	COMDAT pdata
pdata	SEGMENT
$pdata$??0TileRow@@QEAA@$$QEAV0@@Z DD imagerel $LN94
	DD	imagerel $LN94+86
	DD	imagerel $unwind$??0TileRow@@QEAA@$$QEAV0@@Z
pdata	ENDS
;	COMDAT pdata
pdata	SEGMENT
$pdata$??_GTileRow@@QEAAPEAXI@Z DD imagerel $LN10
	DD	imagerel $LN10+72
	DD	imagerel $unwind$??_GTileRow@@QEAAPEAXI@Z
pdata	ENDS
;	COMDAT pdata
pdata	SEGMENT
$pdata$?deallocate@?$allocator@VTileRow@@@std@@QEAAXQEAVTileRow@@_K@Z DD imagerel $LN20
	DD	imagerel $LN20+66
	DD	imagerel $unwind$?deallocate@?$allocator@VTileRow@@@std@@QEAAXQEAVTileRow@@_K@Z
pdata	ENDS
;	COMDAT pdata
pdata	SEGMENT
$pdata$?allocate@?$allocator@VTileRow@@@std@@QEAAPEAVTileRow@@_K@Z DD imagerel $LN30
	DD	imagerel $LN30+116
	DD	imagerel $unwind$?allocate@?$allocator@VTileRow@@@std@@QEAAPEAVTileRow@@_K@Z
pdata	ENDS
;	COMDAT pdata
pdata	SEGMENT
$pdata$?push_back@?$vector@VTileRow@@V?$allocator@VTileRow@@@std@@@std@@QEAAXAEBVTileRow@@@Z DD imagerel $LN83
	DD	imagerel $LN83+86
	DD	imagerel $unwind$?push_back@?$vector@VTileRow@@V?$allocator@VTileRow@@@std@@@std@@QEAAXAEBVTileRow@@@Z
pdata	ENDS
;	COMDAT pdata
pdata	SEGMENT
$pdata$?clear@?$vector@VTileRow@@V?$allocator@VTileRow@@@std@@@std@@QEAAXXZ DD imagerel $LN65
	DD	imagerel $LN65+115
	DD	imagerel $unwind$?clear@?$vector@VTileRow@@V?$allocator@VTileRow@@@std@@@std@@QEAAXXZ
pdata	ENDS
;	COMDAT pdata
pdata	SEGMENT
$pdata$?_Destroy@?$vector@VTileRow@@V?$allocator@VTileRow@@@std@@@std@@AEAAXPEAVTileRow@@0@Z DD imagerel $LN31
	DD	imagerel $LN31+69
	DD	imagerel $unwind$?_Destroy@?$vector@VTileRow@@V?$allocator@VTileRow@@@std@@@std@@AEAAXPEAVTileRow@@0@Z
pdata	ENDS
;	COMDAT pdata
pdata	SEGMENT
$pdata$?_Change_array@?$vector@VTileRow@@V?$allocator@VTileRow@@@std@@@std@@AEAAXQEAVTileRow@@_K1@Z DD imagerel $LN120
	DD	imagerel $LN120+203
	DD	imagerel $unwind$?_Change_array@?$vector@VTileRow@@V?$allocator@VTileRow@@@std@@@std@@AEAAXQEAVTileRow@@_K1@Z
pdata	ENDS
;	COMDAT pdata
pdata	SEGMENT
$pdata$?_Xlength@?$vector@VTileRow@@V?$allocator@VTileRow@@@std@@@std@@CAXXZ DD imagerel $LN4
	DD	imagerel $LN4+17
	DD	imagerel $unwind$?_Xlength@?$vector@VTileRow@@V?$allocator@VTileRow@@@std@@@std@@CAXXZ
pdata	ENDS
;	COMDAT pdata
pdata	SEGMENT
$pdata$?setPattern@TilePattern@@QEAAXV?$basic_string@_WU?$char_traits@_W@std@@V?$allocator@_W@2@@std@@@Z DD imagerel $LN164
	DD	imagerel $LN164+393
	DD	imagerel $unwind$?setPattern@TilePattern@@QEAAXV?$basic_string@_WU?$char_traits@_W@std@@V?$allocator@_W@2@@std@@@Z
pdata	ENDS
;	COMDAT pdata
pdata	SEGMENT
$pdata$?update@TilePattern@@QEAAXXZ DD imagerel $LN74
	DD	imagerel $LN74+39
	DD	imagerel $unwind$?update@TilePattern@@QEAAXXZ
pdata	ENDS
;	COMDAT pdata
pdata	SEGMENT
$pdata$1$?update@TilePattern@@QEAAXXZ DD imagerel $LN74+39
	DD	imagerel $LN74+218
	DD	imagerel $chain$1$?update@TilePattern@@QEAAXXZ
pdata	ENDS
;	COMDAT pdata
pdata	SEGMENT
$pdata$2$?update@TilePattern@@QEAAXXZ DD imagerel $LN74+218
	DD	imagerel $LN74+225
	DD	imagerel $chain$2$?update@TilePattern@@QEAAXXZ
pdata	ENDS
;	COMDAT pdata
pdata	SEGMENT
$pdata$?setPreset@TilePattern@@QEAAXH@Z DD imagerel $LN270
	DD	imagerel $LN270+628
	DD	imagerel $unwind$?setPreset@TilePattern@@QEAAXH@Z
pdata	ENDS
;	COMDAT pdata
pdata	SEGMENT
$pdata$?corner@Tile@@CA?AVTilePoint@@MMMMAEAVTileParam@@@Z DD imagerel $LN90
	DD	imagerel $LN90+748
	DD	imagerel $unwind$?corner@Tile@@CA?AVTilePoint@@MMMMAEAVTileParam@@@Z
pdata	ENDS
;	COMDAT pdata
pdata	SEGMENT
$pdata$?rotatePoint2@Tile@@CAXAEAVPoint3@@M@Z DD imagerel $LN12
	DD	imagerel $LN12+116
	DD	imagerel $unwind$?rotatePoint2@Tile@@CAXAEAVPoint3@@M@Z
pdata	ENDS
;	COMDAT pdata
pdata	SEGMENT
$pdata$?uvMapping@Tile@@CAXAEAVTilePoint@@VPoint3@@QEAMAEAVTileParam@@H@Z DD imagerel $LN67
	DD	imagerel $LN67+55
	DD	imagerel $unwind$?uvMapping@Tile@@CAXAEAVTilePoint@@VPoint3@@QEAMAEAVTileParam@@H@Z
pdata	ENDS
;	COMDAT pdata
pdata	SEGMENT
$pdata$0$?uvMapping@Tile@@CAXAEAVTilePoint@@VPoint3@@QEAMAEAVTileParam@@H@Z DD imagerel $LN67+55
	DD	imagerel $LN67+62
	DD	imagerel $chain$0$?uvMapping@Tile@@CAXAEAVTilePoint@@VPoint3@@QEAMAEAVTileParam@@H@Z
pdata	ENDS
;	COMDAT pdata
pdata	SEGMENT
$pdata$8$?uvMapping@Tile@@CAXAEAVTilePoint@@VPoint3@@QEAMAEAVTileParam@@H@Z DD imagerel $LN67+62
	DD	imagerel $LN67+703
	DD	imagerel $chain$8$?uvMapping@Tile@@CAXAEAVTilePoint@@VPoint3@@QEAMAEAVTileParam@@H@Z
pdata	ENDS
;	COMDAT pdata
pdata	SEGMENT
$pdata$9$?uvMapping@Tile@@CAXAEAVTilePoint@@VPoint3@@QEAMAEAVTileParam@@H@Z DD imagerel $LN67+703
	DD	imagerel $LN67+753
	DD	imagerel $chain$9$?uvMapping@Tile@@CAXAEAVTilePoint@@VPoint3@@QEAMAEAVTileParam@@H@Z
pdata	ENDS
;	COMDAT pdata
pdata	SEGMENT
$pdata$10$?uvMapping@Tile@@CAXAEAVTilePoint@@VPoint3@@QEAMAEAVTileParam@@H@Z DD imagerel $LN67+753
	DD	imagerel $LN67+998
	DD	imagerel $chain$10$?uvMapping@Tile@@CAXAEAVTilePoint@@VPoint3@@QEAMAEAVTileParam@@H@Z
pdata	ENDS
;	COMDAT pdata
pdata	SEGMENT
$pdata$11$?uvMapping@Tile@@CAXAEAVTilePoint@@VPoint3@@QEAMAEAVTileParam@@H@Z DD imagerel $LN67+998
	DD	imagerel $LN67+1128
	DD	imagerel $chain$11$?uvMapping@Tile@@CAXAEAVTilePoint@@VPoint3@@QEAMAEAVTileParam@@H@Z
pdata	ENDS
;	COMDAT pdata
pdata	SEGMENT
$pdata$12$?uvMapping@Tile@@CAXAEAVTilePoint@@VPoint3@@QEAMAEAVTileParam@@H@Z DD imagerel $LN67+1128
	DD	imagerel $LN67+1225
	DD	imagerel $chain$12$?uvMapping@Tile@@CAXAEAVTilePoint@@VPoint3@@QEAMAEAVTileParam@@H@Z
pdata	ENDS
;	COMDAT pdata
pdata	SEGMENT
$pdata$13$?uvMapping@Tile@@CAXAEAVTilePoint@@VPoint3@@QEAMAEAVTileParam@@H@Z DD imagerel $LN67+1225
	DD	imagerel $LN67+1296
	DD	imagerel $chain$13$?uvMapping@Tile@@CAXAEAVTilePoint@@VPoint3@@QEAMAEAVTileParam@@H@Z
pdata	ENDS
;	COMDAT pdata
pdata	SEGMENT
$pdata$?drawTile@Tile@@CA?AVTilePoint@@VPoint3@@QEAMAEAVTileParam@@HH@Z DD imagerel $LN130
	DD	imagerel $LN130+140
	DD	imagerel $unwind$?drawTile@Tile@@CA?AVTilePoint@@VPoint3@@QEAMAEAVTileParam@@HH@Z
pdata	ENDS
;	COMDAT pdata
pdata	SEGMENT
$pdata$0$?drawTile@Tile@@CA?AVTilePoint@@VPoint3@@QEAMAEAVTileParam@@HH@Z DD imagerel $LN130+140
	DD	imagerel $LN130+720
	DD	imagerel $chain$0$?drawTile@Tile@@CA?AVTilePoint@@VPoint3@@QEAMAEAVTileParam@@HH@Z
pdata	ENDS
;	COMDAT pdata
pdata	SEGMENT
$pdata$1$?drawTile@Tile@@CA?AVTilePoint@@VPoint3@@QEAMAEAVTileParam@@HH@Z DD imagerel $LN130+720
	DD	imagerel $LN130+1621
	DD	imagerel $chain$1$?drawTile@Tile@@CA?AVTilePoint@@VPoint3@@QEAMAEAVTileParam@@HH@Z
pdata	ENDS
;	COMDAT pdata
pdata	SEGMENT
$pdata$?pat_xBond@Tile@@CA?AVTilePoint@@VPoint3@@AEAVTileParam@@@Z DD imagerel $LN57
	DD	imagerel $LN57+237
	DD	imagerel $unwind$?pat_xBond@Tile@@CA?AVTilePoint@@VPoint3@@AEAVTileParam@@@Z
pdata	ENDS
;	COMDAT pdata
pdata	SEGMENT
$pdata$0$?pat_xBond@Tile@@CA?AVTilePoint@@VPoint3@@AEAVTileParam@@@Z DD imagerel $LN57+237
	DD	imagerel $LN57+492
	DD	imagerel $chain$0$?pat_xBond@Tile@@CA?AVTilePoint@@VPoint3@@AEAVTileParam@@@Z
pdata	ENDS
;	COMDAT pdata
pdata	SEGMENT
$pdata$1$?pat_xBond@Tile@@CA?AVTilePoint@@VPoint3@@AEAVTileParam@@@Z DD imagerel $LN57+492
	DD	imagerel $LN57+519
	DD	imagerel $chain$1$?pat_xBond@Tile@@CA?AVTilePoint@@VPoint3@@AEAVTileParam@@@Z
pdata	ENDS
;	COMDAT pdata
pdata	SEGMENT
$pdata$?pat_herring@Tile@@CA?AVTilePoint@@VPoint3@@AEAVTileParam@@@Z DD imagerel $LN21
	DD	imagerel $LN21+515
	DD	imagerel $unwind$?pat_herring@Tile@@CA?AVTilePoint@@VPoint3@@AEAVTileParam@@@Z
pdata	ENDS
;	COMDAT pdata
pdata	SEGMENT
$pdata$?draw@Tile@@SA?AVTilePoint@@VPoint3@@AEAVTileParam@@@Z DD imagerel $LN82
	DD	imagerel $LN82+101
	DD	imagerel $unwind$?draw@Tile@@SA?AVTilePoint@@VPoint3@@AEAVTileParam@@@Z
pdata	ENDS
;	COMDAT pdata
pdata	SEGMENT
$pdata$0$?draw@Tile@@SA?AVTilePoint@@VPoint3@@AEAVTileParam@@@Z DD imagerel $LN82+101
	DD	imagerel $LN82+480
	DD	imagerel $chain$0$?draw@Tile@@SA?AVTilePoint@@VPoint3@@AEAVTileParam@@@Z
pdata	ENDS
;	COMDAT pdata
pdata	SEGMENT
$pdata$2$?draw@Tile@@SA?AVTilePoint@@VPoint3@@AEAVTileParam@@@Z DD imagerel $LN82+480
	DD	imagerel $LN82+877
	DD	imagerel $chain$2$?draw@Tile@@SA?AVTilePoint@@VPoint3@@AEAVTileParam@@@Z
pdata	ENDS
;	COMDAT pdata
pdata	SEGMENT
$pdata$1$?draw@Tile@@SA?AVTilePoint@@VPoint3@@AEAVTileParam@@@Z DD imagerel $LN82+877
	DD	imagerel $LN82+923
	DD	imagerel $chain$1$?draw@Tile@@SA?AVTilePoint@@VPoint3@@AEAVTileParam@@@Z
pdata	ENDS
;	COMDAT pdata
pdata	SEGMENT
$pdata$?getAngle@@YAMHM@Z DD imagerel ?getAngle@@YAMHM@Z
	DD	imagerel ?getAngle@@YAMHM@Z+232
	DD	imagerel $unwind$?getAngle@@YAMHM@Z
pdata	ENDS
;	COMDAT pdata
pdata	SEGMENT
$pdata$?rowcol@@YAHAEAM0AEAHMMAEAV?$vector@MV?$allocator@M@std@@@std@@MMM@Z DD imagerel ?rowcol@@YAHAEAM0AEAHMMAEAV?$vector@MV?$allocator@M@std@@@std@@MMM@Z
	DD	imagerel ?rowcol@@YAHAEAM0AEAHMMAEAV?$vector@MV?$allocator@M@std@@@std@@MMM@Z+245
	DD	imagerel $unwind$?rowcol@@YAHAEAM0AEAHMMAEAV?$vector@MV?$allocator@M@std@@@std@@MMM@Z
pdata	ENDS
;	COMDAT pdata
pdata	SEGMENT
$pdata$8$?rowcol@@YAHAEAM0AEAHMMAEAV?$vector@MV?$allocator@M@std@@@std@@MMM@Z DD imagerel ?rowcol@@YAHAEAM0AEAHMMAEAV?$vector@MV?$allocator@M@std@@@std@@MMM@Z+245
	DD	imagerel ?rowcol@@YAHAEAM0AEAHMMAEAV?$vector@MV?$allocator@M@std@@@std@@MMM@Z+813
	DD	imagerel $chain$8$?rowcol@@YAHAEAM0AEAHMMAEAV?$vector@MV?$allocator@M@std@@@std@@MMM@Z
pdata	ENDS
;	COMDAT pdata
pdata	SEGMENT
$pdata$9$?rowcol@@YAHAEAM0AEAHMMAEAV?$vector@MV?$allocator@M@std@@@std@@MMM@Z DD imagerel ?rowcol@@YAHAEAM0AEAHMMAEAV?$vector@MV?$allocator@M@std@@@std@@MMM@Z+813
	DD	imagerel ?rowcol@@YAHAEAM0AEAHMMAEAV?$vector@MV?$allocator@M@std@@@std@@MMM@Z+869
	DD	imagerel $chain$9$?rowcol@@YAHAEAM0AEAHMMAEAV?$vector@MV?$allocator@M@std@@@std@@MMM@Z
pdata	ENDS
;	COMDAT pdata
pdata	SEGMENT
$pdata$?tokenize@@YAXAEBV?$basic_string@_WU?$char_traits@_W@std@@V?$allocator@_W@2@@std@@AEAV?$vector@V?$basic_string@_WU?$char_traits@_W@std@@V?$allocator@_W@2@@std@@V?$allocator@V?$basic_string@_WU?$char_traits@_W@std@@V?$allocator@_W@2@@std@@@2@@2@0@Z DD imagerel ?tokenize@@YAXAEBV?$basic_string@_WU?$char_traits@_W@std@@V?$allocator@_W@2@@std@@AEAV?$vector@V?$basic_string@_WU?$char_traits@_W@std@@V?$allocator@_W@2@@std@@V?$allocator@V?$basic_string@_WU?$char_traits@_W@std@@V?$allocator@_W@2@@std@@@2@@2@0@Z
	DD	imagerel ?tokenize@@YAXAEBV?$basic_string@_WU?$char_traits@_W@std@@V?$allocator@_W@2@@std@@AEAV?$vector@V?$basic_string@_WU?$char_traits@_W@std@@V?$allocator@_W@2@@std@@V?$allocator@V?$basic_string@_WU?$char_traits@_W@std@@V?$allocator@_W@2@@std@@@2@@2@0@Z+902
	DD	imagerel $unwind$?tokenize@@YAXAEBV?$basic_string@_WU?$char_traits@_W@std@@V?$allocator@_W@2@@std@@AEAV?$vector@V?$basic_string@_WU?$char_traits@_W@std@@V?$allocator@_W@2@@std@@V?$allocator@V?$basic_string@_WU?$char_traits@_W@std@@V?$allocator@_W@2@@std@@@2@@2@0@Z
pdata	ENDS
;	COMDAT pdata
pdata	SEGMENT
$pdata$?dtor$1@?0??tokenize@@YAXAEBV?$basic_string@_WU?$char_traits@_W@std@@V?$allocator@_W@2@@std@@AEAV?$vector@V?$basic_string@_WU?$char_traits@_W@std@@V?$allocator@_W@2@@std@@V?$allocator@V?$basic_string@_WU?$char_traits@_W@std@@V?$allocator@_W@2@@std@@@2@@2@0@Z@4HA DD imagerel ?dtor$1@?0??tokenize@@YAXAEBV?$basic_string@_WU?$char_traits@_W@std@@V?$allocator@_W@2@@std@@AEAV?$vector@V?$basic_string@_WU?$char_traits@_W@std@@V?$allocator@_W@2@@std@@V?$allocator@V?$basic_string@_WU?$char_traits@_W@std@@V?$allocator@_W@2@@std@@@2@@2@0@Z@4HA
	DD	imagerel ?dtor$1@?0??tokenize@@YAXAEBV?$basic_string@_WU?$char_traits@_W@std@@V?$allocator@_W@2@@std@@AEAV?$vector@V?$basic_string@_WU?$char_traits@_W@std@@V?$allocator@_W@2@@std@@V?$allocator@V?$basic_string@_WU?$char_traits@_W@std@@V?$allocator@_W@2@@std@@@2@@2@0@Z@4HA+38
	DD	imagerel $unwind$?dtor$1@?0??tokenize@@YAXAEBV?$basic_string@_WU?$char_traits@_W@std@@V?$allocator@_W@2@@std@@AEAV?$vector@V?$basic_string@_WU?$char_traits@_W@std@@V?$allocator@_W@2@@std@@V?$allocator@V?$basic_string@_WU?$char_traits@_W@std@@V?$allocator@_W@2@@std@@@2@@2@0@Z@4HA
pdata	ENDS
;	COMDAT pdata
pdata	SEGMENT
$pdata$?deallocate@?$allocator@V?$basic_string@_WU?$char_traits@_W@std@@V?$allocator@_W@2@@std@@@std@@QEAAXQEAV?$basic_string@_WU?$char_traits@_W@std@@V?$allocator@_W@2@@2@_K@Z DD imagerel $LN20
	DD	imagerel $LN20+66
	DD	imagerel $unwind$?deallocate@?$allocator@V?$basic_string@_WU?$char_traits@_W@std@@V?$allocator@_W@2@@std@@@std@@QEAAXQEAV?$basic_string@_WU?$char_traits@_W@std@@V?$allocator@_W@2@@2@_K@Z
pdata	ENDS
;	COMDAT pdata
pdata	SEGMENT
$pdata$?allocate@?$allocator@V?$basic_string@_WU?$char_traits@_W@std@@V?$allocator@_W@2@@std@@@std@@QEAAPEAV?$basic_string@_WU?$char_traits@_W@std@@V?$allocator@_W@2@@2@_K@Z DD imagerel $LN30
	DD	imagerel $LN30+116
	DD	imagerel $unwind$?allocate@?$allocator@V?$basic_string@_WU?$char_traits@_W@std@@V?$allocator@_W@2@@std@@@std@@QEAAPEAV?$basic_string@_WU?$char_traits@_W@std@@V?$allocator@_W@2@@2@_K@Z
pdata	ENDS
;	COMDAT pdata
pdata	SEGMENT
$pdata$??1?$vector@V?$basic_string@_WU?$char_traits@_W@std@@V?$allocator@_W@2@@std@@V?$allocator@V?$basic_string@_WU?$char_traits@_W@std@@V?$allocator@_W@2@@std@@@2@@std@@QEAA@XZ DD imagerel $LN130
	DD	imagerel $LN130+158
	DD	imagerel $unwind$??1?$vector@V?$basic_string@_WU?$char_traits@_W@std@@V?$allocator@_W@2@@std@@V?$allocator@V?$basic_string@_WU?$char_traits@_W@std@@V?$allocator@_W@2@@std@@@2@@std@@QEAA@XZ
pdata	ENDS
;	COMDAT pdata
pdata	SEGMENT
$pdata$?push_back@?$vector@V?$basic_string@_WU?$char_traits@_W@std@@V?$allocator@_W@2@@std@@V?$allocator@V?$basic_string@_WU?$char_traits@_W@std@@V?$allocator@_W@2@@std@@@2@@std@@QEAAX$$QEAV?$basic_string@_WU?$char_traits@_W@std@@V?$allocator@_W@2@@2@@Z DD imagerel $LN124
	DD	imagerel $LN124+78
	DD	imagerel $unwind$?push_back@?$vector@V?$basic_string@_WU?$char_traits@_W@std@@V?$allocator@_W@2@@std@@V?$allocator@V?$basic_string@_WU?$char_traits@_W@std@@V?$allocator@_W@2@@std@@@2@@std@@QEAAX$$QEAV?$basic_string@_WU?$char_traits@_W@std@@V?$allocator@_W@2@@2@@Z
pdata	ENDS
;	COMDAT pdata
pdata	SEGMENT
$pdata$?_Umove@?$vector@V?$basic_string@_WU?$char_traits@_W@std@@V?$allocator@_W@2@@std@@V?$allocator@V?$basic_string@_WU?$char_traits@_W@std@@V?$allocator@_W@2@@std@@@2@@std@@AEAAPEAV?$basic_string@_WU?$char_traits@_W@std@@V?$allocator@_W@2@@2@PEAV32@00@Z DD imagerel $LN127
	DD	imagerel $LN127+100
	DD	imagerel $unwind$?_Umove@?$vector@V?$basic_string@_WU?$char_traits@_W@std@@V?$allocator@_W@2@@std@@V?$allocator@V?$basic_string@_WU?$char_traits@_W@std@@V?$allocator@_W@2@@std@@@2@@std@@AEAAPEAV?$basic_string@_WU?$char_traits@_W@std@@V?$allocator@_W@2@@2@PEAV32@00@Z
pdata	ENDS
;	COMDAT pdata
pdata	SEGMENT
$pdata$?_Umove_if_noexcept1@?$vector@V?$basic_string@_WU?$char_traits@_W@std@@V?$allocator@_W@2@@std@@V?$allocator@V?$basic_string@_WU?$char_traits@_W@std@@V?$allocator@_W@2@@std@@@2@@std@@AEAAXPEAV?$basic_string@_WU?$char_traits@_W@std@@V?$allocator@_W@2@@2@00U?$integral_constant@_N$00@2@@Z DD imagerel $LN128
	DD	imagerel $LN128+97
	DD	imagerel $unwind$?_Umove_if_noexcept1@?$vector@V?$basic_string@_WU?$char_traits@_W@std@@V?$allocator@_W@2@@std@@V?$allocator@V?$basic_string@_WU?$char_traits@_W@std@@V?$allocator@_W@2@@std@@@2@@std@@AEAAXPEAV?$basic_string@_WU?$char_traits@_W@std@@V?$allocator@_W@2@@2@00U?$integral_constant@_N$00@2@@Z
pdata	ENDS
;	COMDAT pdata
pdata	SEGMENT
$pdata$?_Umove_if_noexcept@?$vector@V?$basic_string@_WU?$char_traits@_W@std@@V?$allocator@_W@2@@std@@V?$allocator@V?$basic_string@_WU?$char_traits@_W@std@@V?$allocator@_W@2@@std@@@2@@std@@AEAAXPEAV?$basic_string@_WU?$char_traits@_W@std@@V?$allocator@_W@2@@2@00@Z DD imagerel $LN130
	DD	imagerel $LN130+97
	DD	imagerel $unwind$?_Umove_if_noexcept@?$vector@V?$basic_string@_WU?$char_traits@_W@std@@V?$allocator@_W@2@@std@@V?$allocator@V?$basic_string@_WU?$char_traits@_W@std@@V?$allocator@_W@2@@std@@@2@@std@@AEAAXPEAV?$basic_string@_WU?$char_traits@_W@std@@V?$allocator@_W@2@@2@00@Z
pdata	ENDS
;	COMDAT pdata
pdata	SEGMENT
$pdata$?_Destroy@?$vector@V?$basic_string@_WU?$char_traits@_W@std@@V?$allocator@_W@2@@std@@V?$allocator@V?$basic_string@_WU?$char_traits@_W@std@@V?$allocator@_W@2@@std@@@2@@std@@AEAAXPEAV?$basic_string@_WU?$char_traits@_W@std@@V?$allocator@_W@2@@2@0@Z DD imagerel $LN38
	DD	imagerel $LN38+49
	DD	imagerel $unwind$?_Destroy@?$vector@V?$basic_string@_WU?$char_traits@_W@std@@V?$allocator@_W@2@@std@@V?$allocator@V?$basic_string@_WU?$char_traits@_W@std@@V?$allocator@_W@2@@std@@@2@@std@@AEAAXPEAV?$basic_string@_WU?$char_traits@_W@std@@V?$allocator@_W@2@@2@0@Z
pdata	ENDS
;	COMDAT pdata
pdata	SEGMENT
$pdata$?_Change_array@?$vector@V?$basic_string@_WU?$char_traits@_W@std@@V?$allocator@_W@2@@std@@V?$allocator@V?$basic_string@_WU?$char_traits@_W@std@@V?$allocator@_W@2@@std@@@2@@std@@AEAAXQEAV?$basic_string@_WU?$char_traits@_W@std@@V?$allocator@_W@2@@2@_K1@Z DD imagerel $LN127
	DD	imagerel $LN127+39
	DD	imagerel $unwind$?_Change_array@?$vector@V?$basic_string@_WU?$char_traits@_W@std@@V?$allocator@_W@2@@std@@V?$allocator@V?$basic_string@_WU?$char_traits@_W@std@@V?$allocator@_W@2@@std@@@2@@std@@AEAAXQEAV?$basic_string@_WU?$char_traits@_W@std@@V?$allocator@_W@2@@2@_K1@Z
pdata	ENDS
;	COMDAT pdata
pdata	SEGMENT
$pdata$0$?_Change_array@?$vector@V?$basic_string@_WU?$char_traits@_W@std@@V?$allocator@_W@2@@std@@V?$allocator@V?$basic_string@_WU?$char_traits@_W@std@@V?$allocator@_W@2@@std@@@2@@std@@AEAAXQEAV?$basic_string@_WU?$char_traits@_W@std@@V?$allocator@_W@2@@2@_K1@Z DD imagerel $LN127+39
	DD	imagerel $LN127+98
	DD	imagerel $chain$0$?_Change_array@?$vector@V?$basic_string@_WU?$char_traits@_W@std@@V?$allocator@_W@2@@std@@V?$allocator@V?$basic_string@_WU?$char_traits@_W@std@@V?$allocator@_W@2@@std@@@2@@std@@AEAAXQEAV?$basic_string@_WU?$char_traits@_W@std@@V?$allocator@_W@2@@2@_K1@Z
pdata	ENDS
;	COMDAT pdata
pdata	SEGMENT
$pdata$1$?_Change_array@?$vector@V?$basic_string@_WU?$char_traits@_W@std@@V?$allocator@_W@2@@std@@V?$allocator@V?$basic_string@_WU?$char_traits@_W@std@@V?$allocator@_W@2@@std@@@2@@std@@AEAAXQEAV?$basic_string@_WU?$char_traits@_W@std@@V?$allocator@_W@2@@2@_K1@Z DD imagerel $LN127+98
	DD	imagerel $LN127+182
	DD	imagerel $chain$1$?_Change_array@?$vector@V?$basic_string@_WU?$char_traits@_W@std@@V?$allocator@_W@2@@std@@V?$allocator@V?$basic_string@_WU?$char_traits@_W@std@@V?$allocator@_W@2@@std@@@2@@std@@AEAAXQEAV?$basic_string@_WU?$char_traits@_W@std@@V?$allocator@_W@2@@2@_K1@Z
pdata	ENDS
;	COMDAT pdata
pdata	SEGMENT
$pdata$?_Tidy@?$vector@V?$basic_string@_WU?$char_traits@_W@std@@V?$allocator@_W@2@@std@@V?$allocator@V?$basic_string@_WU?$char_traits@_W@std@@V?$allocator@_W@2@@std@@@2@@std@@AEAAXXZ DD imagerel $LN127
	DD	imagerel $LN127+21
	DD	imagerel $unwind$?_Tidy@?$vector@V?$basic_string@_WU?$char_traits@_W@std@@V?$allocator@_W@2@@std@@V?$allocator@V?$basic_string@_WU?$char_traits@_W@std@@V?$allocator@_W@2@@std@@@2@@std@@AEAAXXZ
pdata	ENDS
;	COMDAT pdata
pdata	SEGMENT
$pdata$0$?_Tidy@?$vector@V?$basic_string@_WU?$char_traits@_W@std@@V?$allocator@_W@2@@std@@V?$allocator@V?$basic_string@_WU?$char_traits@_W@std@@V?$allocator@_W@2@@std@@@2@@std@@AEAAXXZ DD imagerel $LN127+21
	DD	imagerel $LN127+80
	DD	imagerel $chain$0$?_Tidy@?$vector@V?$basic_string@_WU?$char_traits@_W@std@@V?$allocator@_W@2@@std@@V?$allocator@V?$basic_string@_WU?$char_traits@_W@std@@V?$allocator@_W@2@@std@@@2@@std@@AEAAXXZ
pdata	ENDS
;	COMDAT pdata
pdata	SEGMENT
$pdata$1$?_Tidy@?$vector@V?$basic_string@_WU?$char_traits@_W@std@@V?$allocator@_W@2@@std@@V?$allocator@V?$basic_string@_WU?$char_traits@_W@std@@V?$allocator@_W@2@@std@@@2@@std@@AEAAXXZ DD imagerel $LN127+80
	DD	imagerel $LN127+143
	DD	imagerel $chain$1$?_Tidy@?$vector@V?$basic_string@_WU?$char_traits@_W@std@@V?$allocator@_W@2@@std@@V?$allocator@V?$basic_string@_WU?$char_traits@_W@std@@V?$allocator@_W@2@@std@@@2@@std@@AEAAXXZ
pdata	ENDS
;	COMDAT pdata
pdata	SEGMENT
$pdata$?_Xlength@?$vector@V?$basic_string@_WU?$char_traits@_W@std@@V?$allocator@_W@2@@std@@V?$allocator@V?$basic_string@_WU?$char_traits@_W@std@@V?$allocator@_W@2@@std@@@2@@std@@CAXXZ DD imagerel $LN4
	DD	imagerel $LN4+17
	DD	imagerel $unwind$?_Xlength@?$vector@V?$basic_string@_WU?$char_traits@_W@std@@V?$allocator@_W@2@@std@@V?$allocator@V?$basic_string@_WU?$char_traits@_W@std@@V?$allocator@_W@2@@std@@@2@@std@@CAXXZ
pdata	ENDS
;	COMDAT pdata
pdata	SEGMENT
$pdata$?parsePattern@@YAHV?$basic_string@_WU?$char_traits@_W@std@@V?$allocator@_W@2@@std@@PEAVTilePattern@@@Z DD imagerel ?parsePattern@@YAHV?$basic_string@_WU?$char_traits@_W@std@@V?$allocator@_W@2@@std@@PEAVTilePattern@@@Z
	DD	imagerel ?parsePattern@@YAHV?$basic_string@_WU?$char_traits@_W@std@@V?$allocator@_W@2@@std@@PEAVTilePattern@@@Z+2345
	DD	imagerel $unwind$?parsePattern@@YAHV?$basic_string@_WU?$char_traits@_W@std@@V?$allocator@_W@2@@std@@PEAVTilePattern@@@Z
pdata	ENDS
;	COMDAT pdata
pdata	SEGMENT
$pdata$?dtor$10@?0??parsePattern@@YAHV?$basic_string@_WU?$char_traits@_W@std@@V?$allocator@_W@2@@std@@PEAVTilePattern@@@Z@4HA DD imagerel ?dtor$10@?0??parsePattern@@YAHV?$basic_string@_WU?$char_traits@_W@std@@V?$allocator@_W@2@@std@@PEAVTilePattern@@@Z@4HA
	DD	imagerel ?dtor$10@?0??parsePattern@@YAHV?$basic_string@_WU?$char_traits@_W@std@@V?$allocator@_W@2@@std@@PEAVTilePattern@@@Z@4HA+49
	DD	imagerel $unwind$?dtor$10@?0??parsePattern@@YAHV?$basic_string@_WU?$char_traits@_W@std@@V?$allocator@_W@2@@std@@PEAVTilePattern@@@Z@4HA
pdata	ENDS
;	COMDAT pdata
pdata	SEGMENT
$pdata$?dtor$13@?0??parsePattern@@YAHV?$basic_string@_WU?$char_traits@_W@std@@V?$allocator@_W@2@@std@@PEAVTilePattern@@@Z@4HA DD imagerel ?dtor$13@?0??parsePattern@@YAHV?$basic_string@_WU?$char_traits@_W@std@@V?$allocator@_W@2@@std@@PEAVTilePattern@@@Z@4HA
	DD	imagerel ?dtor$13@?0??parsePattern@@YAHV?$basic_string@_WU?$char_traits@_W@std@@V?$allocator@_W@2@@std@@PEAVTilePattern@@@Z@4HA+49
	DD	imagerel $unwind$?dtor$13@?0??parsePattern@@YAHV?$basic_string@_WU?$char_traits@_W@std@@V?$allocator@_W@2@@std@@PEAVTilePattern@@@Z@4HA
pdata	ENDS
;	COMDAT pdata
pdata	SEGMENT
$pdata$?dtor$17@?0??parsePattern@@YAHV?$basic_string@_WU?$char_traits@_W@std@@V?$allocator@_W@2@@std@@PEAVTilePattern@@@Z@4HA DD imagerel ?dtor$17@?0??parsePattern@@YAHV?$basic_string@_WU?$char_traits@_W@std@@V?$allocator@_W@2@@std@@PEAVTilePattern@@@Z@4HA
	DD	imagerel ?dtor$17@?0??parsePattern@@YAHV?$basic_string@_WU?$char_traits@_W@std@@V?$allocator@_W@2@@std@@PEAVTilePattern@@@Z@4HA+49
	DD	imagerel $unwind$?dtor$17@?0??parsePattern@@YAHV?$basic_string@_WU?$char_traits@_W@std@@V?$allocator@_W@2@@std@@PEAVTilePattern@@@Z@4HA
pdata	ENDS
;	COMDAT pdata
pdata	SEGMENT
$pdata$??0?$basic_stringstream@_WU?$char_traits@_W@std@@V?$allocator@_W@2@@std@@QEAA@AEBV?$basic_string@_WU?$char_traits@_W@std@@V?$allocator@_W@2@@1@H@Z DD imagerel $LN15
	DD	imagerel $LN15+208
	DD	imagerel $unwind$??0?$basic_stringstream@_WU?$char_traits@_W@std@@V?$allocator@_W@2@@std@@QEAA@AEBV?$basic_string@_WU?$char_traits@_W@std@@V?$allocator@_W@2@@1@H@Z
pdata	ENDS
;	COMDAT pdata
pdata	SEGMENT
$pdata$?dtor$0@?0???0?$basic_stringstream@_WU?$char_traits@_W@std@@V?$allocator@_W@2@@std@@QEAA@AEBV?$basic_string@_WU?$char_traits@_W@std@@V?$allocator@_W@2@@1@H@Z@4HA DD imagerel ?dtor$0@?0???0?$basic_stringstream@_WU?$char_traits@_W@std@@V?$allocator@_W@2@@std@@QEAA@AEBV?$basic_string@_WU?$char_traits@_W@std@@V?$allocator@_W@2@@1@H@Z@4HA
	DD	imagerel ?dtor$0@?0???0?$basic_stringstream@_WU?$char_traits@_W@std@@V?$allocator@_W@2@@std@@QEAA@AEBV?$basic_string@_WU?$char_traits@_W@std@@V?$allocator@_W@2@@1@H@Z@4HA+46
	DD	imagerel $unwind$?dtor$0@?0???0?$basic_stringstream@_WU?$char_traits@_W@std@@V?$allocator@_W@2@@std@@QEAA@AEBV?$basic_string@_WU?$char_traits@_W@std@@V?$allocator@_W@2@@1@H@Z@4HA
pdata	ENDS
;	COMDAT pdata
pdata	SEGMENT
$pdata$??1?$basic_stringstream@_WU?$char_traits@_W@std@@V?$allocator@_W@2@@std@@UEAA@XZ DD imagerel $LN15
	DD	imagerel $LN15+100
	DD	imagerel $unwind$??1?$basic_stringstream@_WU?$char_traits@_W@std@@V?$allocator@_W@2@@std@@UEAA@XZ
pdata	ENDS
;	COMDAT pdata
pdata	SEGMENT
$pdata$??0?$basic_stringbuf@_WU?$char_traits@_W@std@@V?$allocator@_W@2@@std@@QEAA@AEBV?$basic_string@_WU?$char_traits@_W@std@@V?$allocator@_W@2@@1@H@Z DD imagerel $LN62
	DD	imagerel $LN62+365
	DD	imagerel $unwind$??0?$basic_stringbuf@_WU?$char_traits@_W@std@@V?$allocator@_W@2@@std@@QEAA@AEBV?$basic_string@_WU?$char_traits@_W@std@@V?$allocator@_W@2@@1@H@Z
pdata	ENDS
;	COMDAT pdata
pdata	SEGMENT
$pdata$??1?$basic_stringbuf@_WU?$char_traits@_W@std@@V?$allocator@_W@2@@std@@UEAA@XZ DD imagerel $LN49
	DD	imagerel $LN49+208
	DD	imagerel $unwind$??1?$basic_stringbuf@_WU?$char_traits@_W@std@@V?$allocator@_W@2@@std@@UEAA@XZ
pdata	ENDS
;	COMDAT pdata
pdata	SEGMENT
$pdata$?overflow@?$basic_stringbuf@_WU?$char_traits@_W@std@@V?$allocator@_W@2@@std@@MEAAGG@Z DD imagerel $LN66
	DD	imagerel $LN66+204
	DD	imagerel $unwind$?overflow@?$basic_stringbuf@_WU?$char_traits@_W@std@@V?$allocator@_W@2@@std@@MEAAGG@Z
pdata	ENDS
;	COMDAT pdata
pdata	SEGMENT
$pdata$0$?overflow@?$basic_stringbuf@_WU?$char_traits@_W@std@@V?$allocator@_W@2@@std@@MEAAGG@Z DD imagerel $LN66+204
	DD	imagerel $LN66+375
	DD	imagerel $chain$0$?overflow@?$basic_stringbuf@_WU?$char_traits@_W@std@@V?$allocator@_W@2@@std@@MEAAGG@Z
pdata	ENDS
;	COMDAT pdata
pdata	SEGMENT
$pdata$1$?overflow@?$basic_stringbuf@_WU?$char_traits@_W@std@@V?$allocator@_W@2@@std@@MEAAGG@Z DD imagerel $LN66+375
	DD	imagerel $LN66+419
	DD	imagerel $chain$1$?overflow@?$basic_stringbuf@_WU?$char_traits@_W@std@@V?$allocator@_W@2@@std@@MEAAGG@Z
pdata	ENDS
;	COMDAT pdata
pdata	SEGMENT
$pdata$?seekoff@?$basic_stringbuf@_WU?$char_traits@_W@std@@V?$allocator@_W@2@@std@@MEAA?AV?$fpos@U_Mbstatet@@@2@_JHH@Z DD imagerel $LN45
	DD	imagerel $LN45+344
	DD	imagerel $unwind$?seekoff@?$basic_stringbuf@_WU?$char_traits@_W@std@@V?$allocator@_W@2@@std@@MEAA?AV?$fpos@U_Mbstatet@@@2@_JHH@Z
pdata	ENDS
;	COMDAT pdata
pdata	SEGMENT
$pdata$?seekpos@?$basic_stringbuf@_WU?$char_traits@_W@std@@V?$allocator@_W@2@@std@@MEAA?AV?$fpos@U_Mbstatet@@@2@V32@H@Z DD imagerel $LN32
	DD	imagerel $LN32+115
	DD	imagerel $unwind$?seekpos@?$basic_stringbuf@_WU?$char_traits@_W@std@@V?$allocator@_W@2@@std@@MEAA?AV?$fpos@U_Mbstatet@@@2@V32@H@Z
pdata	ENDS
;	COMDAT pdata
pdata	SEGMENT
$pdata$0$?seekpos@?$basic_stringbuf@_WU?$char_traits@_W@std@@V?$allocator@_W@2@@std@@MEAA?AV?$fpos@U_Mbstatet@@@2@V32@H@Z DD imagerel $LN32+115
	DD	imagerel $LN32+214
	DD	imagerel $chain$0$?seekpos@?$basic_stringbuf@_WU?$char_traits@_W@std@@V?$allocator@_W@2@@std@@MEAA?AV?$fpos@U_Mbstatet@@@2@V32@H@Z
pdata	ENDS
;	COMDAT pdata
pdata	SEGMENT
$pdata$1$?seekpos@?$basic_stringbuf@_WU?$char_traits@_W@std@@V?$allocator@_W@2@@std@@MEAA?AV?$fpos@U_Mbstatet@@@2@V32@H@Z DD imagerel $LN32+214
	DD	imagerel $LN32+244
	DD	imagerel $chain$1$?seekpos@?$basic_stringbuf@_WU?$char_traits@_W@std@@V?$allocator@_W@2@@std@@MEAA?AV?$fpos@U_Mbstatet@@@2@V32@H@Z
pdata	ENDS
;	COMDAT pdata
pdata	SEGMENT
$pdata$?_Init@?$basic_stringbuf@_WU?$char_traits@_W@std@@V?$allocator@_W@2@@std@@IEAAXPEB_W_KH@Z DD imagerel $LN26
	DD	imagerel $LN26+62
	DD	imagerel $unwind$?_Init@?$basic_stringbuf@_WU?$char_traits@_W@std@@V?$allocator@_W@2@@std@@IEAAXPEB_W_KH@Z
pdata	ENDS
;	COMDAT pdata
pdata	SEGMENT
$pdata$1$?_Init@?$basic_stringbuf@_WU?$char_traits@_W@std@@V?$allocator@_W@2@@std@@IEAAXPEB_W_KH@Z DD imagerel $LN26+62
	DD	imagerel $LN26+127
	DD	imagerel $chain$1$?_Init@?$basic_stringbuf@_WU?$char_traits@_W@std@@V?$allocator@_W@2@@std@@IEAAXPEB_W_KH@Z
pdata	ENDS
;	COMDAT pdata
pdata	SEGMENT
$pdata$2$?_Init@?$basic_stringbuf@_WU?$char_traits@_W@std@@V?$allocator@_W@2@@std@@IEAAXPEB_W_KH@Z DD imagerel $LN26+127
	DD	imagerel $LN26+253
	DD	imagerel $chain$2$?_Init@?$basic_stringbuf@_WU?$char_traits@_W@std@@V?$allocator@_W@2@@std@@IEAAXPEB_W_KH@Z
pdata	ENDS
;	COMDAT pdata
pdata	SEGMENT
$pdata$3$?_Init@?$basic_stringbuf@_WU?$char_traits@_W@std@@V?$allocator@_W@2@@std@@IEAAXPEB_W_KH@Z DD imagerel $LN26+253
	DD	imagerel $LN26+285
	DD	imagerel $chain$3$?_Init@?$basic_stringbuf@_WU?$char_traits@_W@std@@V?$allocator@_W@2@@std@@IEAAXPEB_W_KH@Z
pdata	ENDS
;	COMDAT pdata
pdata	SEGMENT
$pdata$?_Tidy@?$basic_stringbuf@_WU?$char_traits@_W@std@@V?$allocator@_W@2@@std@@IEAAXXZ DD imagerel $LN45
	DD	imagerel $LN45+171
	DD	imagerel $unwind$?_Tidy@?$basic_stringbuf@_WU?$char_traits@_W@std@@V?$allocator@_W@2@@std@@IEAAXXZ
pdata	ENDS
;	COMDAT pdata
pdata	SEGMENT
$pdata$??_G?$basic_stringbuf@_WU?$char_traits@_W@std@@V?$allocator@_W@2@@std@@UEAAPEAXI@Z DD imagerel $LN6
	DD	imagerel $LN6+52
	DD	imagerel $unwind$??_G?$basic_stringbuf@_WU?$char_traits@_W@std@@V?$allocator@_W@2@@std@@UEAAPEAXI@Z
pdata	ENDS
;	COMDAT pdata
pdata	SEGMENT
$pdata$??_G?$basic_stringstream@_WU?$char_traits@_W@std@@V?$allocator@_W@2@@std@@UEAAPEAXI@Z DD imagerel $LN6
	DD	imagerel $LN6+59
	DD	imagerel $unwind$??_G?$basic_stringstream@_WU?$char_traits@_W@std@@V?$allocator@_W@2@@std@@UEAAPEAXI@Z
pdata	ENDS
;	COMDAT pdata
pdata	SEGMENT
$pdata$??_D?$basic_stringstream@_WU?$char_traits@_W@std@@V?$allocator@_W@2@@std@@QEAAXXZ DD imagerel $LN22
	DD	imagerel $LN22+139
	DD	imagerel $unwind$??_D?$basic_stringstream@_WU?$char_traits@_W@std@@V?$allocator@_W@2@@std@@QEAAXXZ
pdata	ENDS
;	COMDAT pdata
pdata	SEGMENT
$pdata$??$emplace_back@V?$basic_string@_WU?$char_traits@_W@std@@V?$allocator@_W@2@@std@@@?$vector@V?$basic_string@_WU?$char_traits@_W@std@@V?$allocator@_W@2@@std@@V?$allocator@V?$basic_string@_WU?$char_traits@_W@std@@V?$allocator@_W@2@@std@@@2@@std@@QEAAX$$QEAV?$basic_string@_WU?$char_traits@_W@std@@V?$allocator@_W@2@@1@@Z DD imagerel $LN120
	DD	imagerel $LN120+78
	DD	imagerel $unwind$??$emplace_back@V?$basic_string@_WU?$char_traits@_W@std@@V?$allocator@_W@2@@std@@@?$vector@V?$basic_string@_WU?$char_traits@_W@std@@V?$allocator@_W@2@@std@@V?$allocator@V?$basic_string@_WU?$char_traits@_W@std@@V?$allocator@_W@2@@std@@@2@@std@@QEAAX$$QEAV?$basic_string@_WU?$char_traits@_W@std@@V?$allocator@_W@2@@1@@Z
pdata	ENDS
;	COMDAT pdata
pdata	SEGMENT
$pdata$??$_Emplace_reallocate@V?$basic_string@_WU?$char_traits@_W@std@@V?$allocator@_W@2@@std@@@?$vector@V?$basic_string@_WU?$char_traits@_W@std@@V?$allocator@_W@2@@std@@V?$allocator@V?$basic_string@_WU?$char_traits@_W@std@@V?$allocator@_W@2@@std@@@2@@std@@QEAAPEAV?$basic_string@_WU?$char_traits@_W@std@@V?$allocator@_W@2@@1@QEAV21@$$QEAV21@@Z DD imagerel $LN690
	DD	imagerel $LN690+935
	DD	imagerel $unwind$??$_Emplace_reallocate@V?$basic_string@_WU?$char_traits@_W@std@@V?$allocator@_W@2@@std@@@?$vector@V?$basic_string@_WU?$char_traits@_W@std@@V?$allocator@_W@2@@std@@V?$allocator@V?$basic_string@_WU?$char_traits@_W@std@@V?$allocator@_W@2@@std@@@2@@std@@QEAAPEAV?$basic_string@_WU?$char_traits@_W@std@@V?$allocator@_W@2@@1@QEAV21@$$QEAV21@@Z
pdata	ENDS
;	COMDAT pdata
pdata	SEGMENT
$pdata$?catch$3@?0???$_Emplace_reallocate@V?$basic_string@_WU?$char_traits@_W@std@@V?$allocator@_W@2@@std@@@?$vector@V?$basic_string@_WU?$char_traits@_W@std@@V?$allocator@_W@2@@std@@V?$allocator@V?$basic_string@_WU?$char_traits@_W@std@@V?$allocator@_W@2@@std@@@2@@std@@QEAAPEAV?$basic_string@_WU?$char_traits@_W@std@@V?$allocator@_W@2@@1@QEAV21@$$QEAV21@@Z@4HA DD imagerel ?catch$3@?0???$_Emplace_reallocate@V?$basic_string@_WU?$char_traits@_W@std@@V?$allocator@_W@2@@std@@@?$vector@V?$basic_string@_WU?$char_traits@_W@std@@V?$allocator@_W@2@@std@@V?$allocator@V?$basic_string@_WU?$char_traits@_W@std@@V?$allocator@_W@2@@std@@@2@@std@@QEAAPEAV?$basic_string@_WU?$char_traits@_W@std@@V?$allocator@_W@2@@1@QEAV21@$$QEAV21@@Z@4HA
	DD	imagerel ?catch$3@?0???$_Emplace_reallocate@V?$basic_string@_WU?$char_traits@_W@std@@V?$allocator@_W@2@@std@@@?$vector@V?$basic_string@_WU?$char_traits@_W@std@@V?$allocator@_W@2@@std@@V?$allocator@V?$basic_string@_WU?$char_traits@_W@std@@V?$allocator@_W@2@@std@@@2@@std@@QEAAPEAV?$basic_string@_WU?$char_traits@_W@std@@V?$allocator@_W@2@@1@QEAV21@$$QEAV21@@Z@4HA+66
	DD	imagerel $unwind$?catch$3@?0???$_Emplace_reallocate@V?$basic_string@_WU?$char_traits@_W@std@@V?$allocator@_W@2@@std@@@?$vector@V?$basic_string@_WU?$char_traits@_W@std@@V?$allocator@_W@2@@std@@V?$allocator@V?$basic_string@_WU?$char_traits@_W@std@@V?$allocator@_W@2@@std@@@2@@std@@QEAAPEAV?$basic_string@_WU?$char_traits@_W@std@@V?$allocator@_W@2@@1@QEAV21@$$QEAV21@@Z@4HA
pdata	ENDS
;	COMDAT pdata
pdata	SEGMENT
$pdata$??$emplace_back@AEBVTileRow@@@?$vector@VTileRow@@V?$allocator@VTileRow@@@std@@@std@@QEAAXAEBVTileRow@@@Z DD imagerel $LN81
	DD	imagerel $LN81+86
	DD	imagerel $unwind$??$emplace_back@AEBVTileRow@@@?$vector@VTileRow@@V?$allocator@VTileRow@@@std@@@std@@QEAAXAEBVTileRow@@@Z
pdata	ENDS
;	COMDAT pdata
pdata	SEGMENT
$pdata$??$_Emplace_back_with_unused_capacity@AEBVTileRow@@@?$vector@VTileRow@@V?$allocator@VTileRow@@@std@@@std@@AEAAXAEBVTileRow@@@Z DD imagerel $LN54
	DD	imagerel $LN54+62
	DD	imagerel $unwind$??$_Emplace_back_with_unused_capacity@AEBVTileRow@@@?$vector@VTileRow@@V?$allocator@VTileRow@@@std@@@std@@AEAAXAEBVTileRow@@@Z
pdata	ENDS
;	COMDAT pdata
pdata	SEGMENT
$pdata$??$construct@VTileRow@@AEBV1@@?$_Default_allocator_traits@V?$allocator@VTileRow@@@std@@@std@@SAXAEAV?$allocator@VTileRow@@@1@QEAVTileRow@@AEBV3@@Z DD imagerel $LN12
	DD	imagerel $LN12+52
	DD	imagerel $unwind$??$construct@VTileRow@@AEBV1@@?$_Default_allocator_traits@V?$allocator@VTileRow@@@std@@@std@@SAXAEAV?$allocator@VTileRow@@@1@QEAVTileRow@@AEBV3@@Z
pdata	ENDS
;	COMDAT pdata
pdata	SEGMENT
$pdata$??$_Emplace_reallocate@AEBVTileRow@@@?$vector@VTileRow@@V?$allocator@VTileRow@@@std@@@std@@QEAAPEAVTileRow@@QEAV2@AEBV2@@Z DD imagerel $LN296
	DD	imagerel $LN296+537
	DD	imagerel $unwind$??$_Emplace_reallocate@AEBVTileRow@@@?$vector@VTileRow@@V?$allocator@VTileRow@@@std@@@std@@QEAAPEAVTileRow@@QEAV2@AEBV2@@Z
pdata	ENDS
;	COMDAT pdata
pdata	SEGMENT
$pdata$?catch$2@?0???$_Emplace_reallocate@AEBVTileRow@@@?$vector@VTileRow@@V?$allocator@VTileRow@@@std@@@std@@QEAAPEAVTileRow@@QEAV2@AEBV2@@Z@4HA DD imagerel ?catch$2@?0???$_Emplace_reallocate@AEBVTileRow@@@?$vector@VTileRow@@V?$allocator@VTileRow@@@std@@@std@@QEAAPEAVTileRow@@QEAV2@AEBV2@@Z@4HA
	DD	imagerel ?catch$2@?0???$_Emplace_reallocate@AEBVTileRow@@@?$vector@VTileRow@@V?$allocator@VTileRow@@@std@@@std@@QEAAPEAVTileRow@@QEAV2@AEBV2@@Z@4HA+70
	DD	imagerel $unwind$?catch$2@?0???$_Emplace_reallocate@AEBVTileRow@@@?$vector@VTileRow@@V?$allocator@VTileRow@@@std@@@std@@QEAAPEAVTileRow@@QEAV2@AEBV2@@Z@4HA
pdata	ENDS
;	COMDAT pdata
pdata	SEGMENT
$pdata$??$_Emplace_reallocate@M@?$vector@MV?$allocator@M@std@@@std@@QEAAPEAMQEAM$$QEAM@Z DD imagerel $LN208
	DD	imagerel $LN208+262
	DD	imagerel $unwind$??$_Emplace_reallocate@M@?$vector@MV?$allocator@M@std@@@std@@QEAAPEAMQEAM$$QEAM@Z
pdata	ENDS
;	COMDAT pdata
pdata	SEGMENT
$pdata$?catch$0@?0???$_Emplace_reallocate@M@?$vector@MV?$allocator@M@std@@@std@@QEAAPEAMQEAM$$QEAM@Z@4HA DD imagerel ?catch$0@?0???$_Emplace_reallocate@M@?$vector@MV?$allocator@M@std@@@std@@QEAAPEAMQEAM$$QEAM@Z@4HA
	DD	imagerel ?catch$0@?0???$_Emplace_reallocate@M@?$vector@MV?$allocator@M@std@@@std@@QEAAPEAMQEAM$$QEAM@Z@4HA+43
	DD	imagerel $unwind$?catch$0@?0???$_Emplace_reallocate@M@?$vector@MV?$allocator@M@std@@@std@@QEAAPEAMQEAM$$QEAM@Z@4HA
pdata	ENDS
;	COMDAT pdata
pdata	SEGMENT
$pdata$??$_Emplace_reallocate@AEBM@?$vector@MV?$allocator@M@std@@@std@@QEAAPEAMQEAMAEBM@Z DD imagerel $LN208
	DD	imagerel $LN208+262
	DD	imagerel $unwind$??$_Emplace_reallocate@AEBM@?$vector@MV?$allocator@M@std@@@std@@QEAAPEAMQEAMAEBM@Z
pdata	ENDS
;	COMDAT pdata
pdata	SEGMENT
$pdata$?catch$0@?0???$_Emplace_reallocate@AEBM@?$vector@MV?$allocator@M@std@@@std@@QEAAPEAMQEAMAEBM@Z@4HA DD imagerel ?catch$0@?0???$_Emplace_reallocate@AEBM@?$vector@MV?$allocator@M@std@@@std@@QEAAPEAMQEAMAEBM@Z@4HA
	DD	imagerel ?catch$0@?0???$_Emplace_reallocate@AEBM@?$vector@MV?$allocator@M@std@@@std@@QEAAPEAMQEAMAEBM@Z@4HA+43
	DD	imagerel $unwind$?catch$0@?0???$_Emplace_reallocate@AEBM@?$vector@MV?$allocator@M@std@@@std@@QEAAPEAMQEAMAEBM@Z@4HA
pdata	ENDS
;	COMDAT pdata
pdata	SEGMENT
$pdata$??$_Traits_find_first_not_of@U?$char_traits@_W@std@@@std@@YA_KQEB_W_K101U?$integral_constant@_N$00@0@@Z DD imagerel $LN62
	DD	imagerel $LN62+283
	DD	imagerel $unwind$??$_Traits_find_first_not_of@U?$char_traits@_W@std@@@std@@YA_KQEB_W_K101U?$integral_constant@_N$00@0@@Z
pdata	ENDS
;	COMDAT pdata
pdata	SEGMENT
$pdata$??$_Traits_find_first_not_of@U?$char_traits@_W@std@@@std@@YA_KQEB_W_K101U?$integral_constant@_N$0A@@0@@Z DD imagerel $LN29
	DD	imagerel $LN29+100
	DD	imagerel $unwind$??$_Traits_find_first_not_of@U?$char_traits@_W@std@@@std@@YA_KQEB_W_K101U?$integral_constant@_N$0A@@0@@Z
pdata	ENDS
;	COMDAT pdata
pdata	SEGMENT
$pdata$??$_Traits_find_first_of@U?$char_traits@_W@std@@@std@@YA_KQEB_W_K101U?$integral_constant@_N$00@0@@Z DD imagerel $LN63
	DD	imagerel $LN63+284
	DD	imagerel $unwind$??$_Traits_find_first_of@U?$char_traits@_W@std@@@std@@YA_KQEB_W_K101U?$integral_constant@_N$00@0@@Z
pdata	ENDS
;	COMDAT pdata
pdata	SEGMENT
$pdata$??$_Traits_find_first_of@U?$char_traits@_W@std@@@std@@YA_KQEB_W_K101U?$integral_constant@_N$0A@@0@@Z DD imagerel $LN29
	DD	imagerel $LN29+104
	DD	imagerel $unwind$??$_Traits_find_first_of@U?$char_traits@_W@std@@@std@@YA_KQEB_W_K101U?$integral_constant@_N$0A@@0@@Z
pdata	ENDS
;	COMDAT pdata
pdata	SEGMENT
$pdata$??$_Destroy_range@V?$allocator@VTileRow@@@std@@@std@@YAXPEAVTileRow@@0AEAV?$allocator@VTileRow@@@0@@Z DD imagerel $LN25
	DD	imagerel $LN25+69
	DD	imagerel $unwind$??$_Destroy_range@V?$allocator@VTileRow@@@std@@@std@@YAXPEAVTileRow@@0AEAV?$allocator@VTileRow@@@0@@Z
pdata	ENDS
;	COMDAT pdata
pdata	SEGMENT
$pdata$??R<lambda_3fa8b2c8193a0f3144fc4b1b8f243931>@@QEBAXQEA_W_KQEB_W@Z DD imagerel $LN10
	DD	imagerel $LN10+48
	DD	imagerel $unwind$??R<lambda_3fa8b2c8193a0f3144fc4b1b8f243931>@@QEBAXQEA_W_KQEB_W@Z
pdata	ENDS
;	COMDAT pdata
pdata	SEGMENT
$pdata$??$_Reallocate_for@V<lambda_3fa8b2c8193a0f3144fc4b1b8f243931>@@PEB_W@?$basic_string@_WU?$char_traits@_W@std@@V?$allocator@_W@2@@std@@QEAAAEAV01@_KV<lambda_3fa8b2c8193a0f3144fc4b1b8f243931>@@PEB_W@Z DD imagerel $LN95
	DD	imagerel $LN95+42
	DD	imagerel $unwind$??$_Reallocate_for@V<lambda_3fa8b2c8193a0f3144fc4b1b8f243931>@@PEB_W@?$basic_string@_WU?$char_traits@_W@std@@V?$allocator@_W@2@@std@@QEAAAEAV01@_KV<lambda_3fa8b2c8193a0f3144fc4b1b8f243931>@@PEB_W@Z
pdata	ENDS
;	COMDAT pdata
pdata	SEGMENT
$pdata$1$??$_Reallocate_for@V<lambda_3fa8b2c8193a0f3144fc4b1b8f243931>@@PEB_W@?$basic_string@_WU?$char_traits@_W@std@@V?$allocator@_W@2@@std@@QEAAAEAV01@_KV<lambda_3fa8b2c8193a0f3144fc4b1b8f243931>@@PEB_W@Z DD imagerel $LN95+42
	DD	imagerel $LN95+232
	DD	imagerel $chain$1$??$_Reallocate_for@V<lambda_3fa8b2c8193a0f3144fc4b1b8f243931>@@PEB_W@?$basic_string@_WU?$char_traits@_W@std@@V?$allocator@_W@2@@std@@QEAAAEAV01@_KV<lambda_3fa8b2c8193a0f3144fc4b1b8f243931>@@PEB_W@Z
pdata	ENDS
;	COMDAT pdata
pdata	SEGMENT
$pdata$3$??$_Reallocate_for@V<lambda_3fa8b2c8193a0f3144fc4b1b8f243931>@@PEB_W@?$basic_string@_WU?$char_traits@_W@std@@V?$allocator@_W@2@@std@@QEAAAEAV01@_KV<lambda_3fa8b2c8193a0f3144fc4b1b8f243931>@@PEB_W@Z DD imagerel $LN95+232
	DD	imagerel $LN95+239
	DD	imagerel $chain$3$??$_Reallocate_for@V<lambda_3fa8b2c8193a0f3144fc4b1b8f243931>@@PEB_W@?$basic_string@_WU?$char_traits@_W@std@@V?$allocator@_W@2@@std@@QEAAAEAV01@_KV<lambda_3fa8b2c8193a0f3144fc4b1b8f243931>@@PEB_W@Z
pdata	ENDS
;	COMDAT pdata
pdata	SEGMENT
$pdata$4$??$_Reallocate_for@V<lambda_3fa8b2c8193a0f3144fc4b1b8f243931>@@PEB_W@?$basic_string@_WU?$char_traits@_W@std@@V?$allocator@_W@2@@std@@QEAAAEAV01@_KV<lambda_3fa8b2c8193a0f3144fc4b1b8f243931>@@PEB_W@Z DD imagerel $LN95+239
	DD	imagerel $LN95+245
	DD	imagerel $chain$4$??$_Reallocate_for@V<lambda_3fa8b2c8193a0f3144fc4b1b8f243931>@@PEB_W@?$basic_string@_WU?$char_traits@_W@std@@V?$allocator@_W@2@@std@@QEAAAEAV01@_KV<lambda_3fa8b2c8193a0f3144fc4b1b8f243931>@@PEB_W@Z
pdata	ENDS
;	COMDAT pdata
pdata	SEGMENT
$pdata$??$_Allocate@$0BA@U_Default_allocate_traits@std@@$0A@@std@@YAPEAX_K@Z DD imagerel $LN23
	DD	imagerel $LN23+90
	DD	imagerel $unwind$??$_Allocate@$0BA@U_Default_allocate_traits@std@@$0A@@std@@YAPEAX_K@Z
pdata	ENDS
;	COMDAT pdata
pdata	SEGMENT
$pdata$??$_Deallocate@$0BA@$0A@@std@@YAXPEAX_K@Z DD imagerel $LN17
	DD	imagerel $LN17+53
	DD	imagerel $unwind$??$_Deallocate@$0BA@$0A@@std@@YAXPEAX_K@Z
pdata	ENDS
;	COMDAT pdata
pdata	SEGMENT
$pdata$??$_Destroy_range@V?$allocator@V?$basic_string@_WU?$char_traits@_W@std@@V?$allocator@_W@2@@std@@@std@@@std@@YAXPEAV?$basic_string@_WU?$char_traits@_W@std@@V?$allocator@_W@2@@0@0AEAV?$allocator@V?$basic_string@_WU?$char_traits@_W@std@@V?$allocator@_W@2@@std@@@0@@Z DD imagerel $LN32
	DD	imagerel $LN32+49
	DD	imagerel $unwind$??$_Destroy_range@V?$allocator@V?$basic_string@_WU?$char_traits@_W@std@@V?$allocator@_W@2@@std@@@std@@@std@@YAXPEAV?$basic_string@_WU?$char_traits@_W@std@@V?$allocator@_W@2@@0@0AEAV?$allocator@V?$basic_string@_WU?$char_traits@_W@std@@V?$allocator@_W@2@@std@@@0@@Z
pdata	ENDS
;	COMDAT pdata
pdata	SEGMENT
$pdata$??0?$_String_bitmap@_W$0A@@std@@QEAA@XZ DD imagerel $LN4
	DD	imagerel $LN4+31
	DD	imagerel $unwind$??0?$_String_bitmap@_W$0A@@std@@QEAA@XZ
pdata	ENDS
;	COMDAT pdata
pdata	SEGMENT
$pdata$??$_Destroy_range1@V?$allocator@VTileRow@@@std@@@std@@YAXPEAVTileRow@@0AEAV?$allocator@VTileRow@@@0@U?$integral_constant@_N$0A@@0@@Z DD imagerel $LN23
	DD	imagerel $LN23+69
	DD	imagerel $unwind$??$_Destroy_range1@V?$allocator@VTileRow@@@std@@@std@@YAXPEAVTileRow@@0AEAV?$allocator@VTileRow@@@0@U?$integral_constant@_N$0A@@0@@Z
pdata	ENDS
;	COMDAT pdata
pdata	SEGMENT
$pdata$??$_Allocate_manually_vector_aligned@U_Default_allocate_traits@std@@@std@@YAPEAX_K@Z DD imagerel $LN16
	DD	imagerel $LN16+62
	DD	imagerel $unwind$??$_Allocate_manually_vector_aligned@U_Default_allocate_traits@std@@@std@@YAPEAX_K@Z
pdata	ENDS
;	COMDAT pdata
pdata	SEGMENT
$pdata$??$_Destroy_range1@V?$allocator@V?$basic_string@_WU?$char_traits@_W@std@@V?$allocator@_W@2@@std@@@std@@@std@@YAXPEAV?$basic_string@_WU?$char_traits@_W@std@@V?$allocator@_W@2@@0@0AEAV?$allocator@V?$basic_string@_WU?$char_traits@_W@std@@V?$allocator@_W@2@@std@@@0@U?$integral_constant@_N$0A@@0@@Z DD imagerel $LN30
	DD	imagerel $LN30+49
	DD	imagerel $unwind$??$_Destroy_range1@V?$allocator@V?$basic_string@_WU?$char_traits@_W@std@@V?$allocator@_W@2@@std@@@std@@@std@@YAXPEAV?$basic_string@_WU?$char_traits@_W@std@@V?$allocator@_W@2@@0@0AEAV?$allocator@V?$basic_string@_WU?$char_traits@_W@std@@V?$allocator@_W@2@@std@@@0@U?$integral_constant@_N$0A@@0@@Z
pdata	ENDS
;	COMDAT pdata
pdata	SEGMENT
$pdata$??$_Uninitialized_move@PEAV?$basic_string@_WU?$char_traits@_W@std@@V?$allocator@_W@2@@std@@PEAV12@V?$allocator@V?$basic_string@_WU?$char_traits@_W@std@@V?$allocator@_W@2@@std@@@2@@std@@YAPEAV?$basic_string@_WU?$char_traits@_W@std@@V?$allocator@_W@2@@0@QEAV10@0PEAV10@AEAV?$allocator@V?$basic_string@_WU?$char_traits@_W@std@@V?$allocator@_W@2@@std@@@0@@Z DD imagerel $LN121
	DD	imagerel $LN121+100
	DD	imagerel $unwind$??$_Uninitialized_move@PEAV?$basic_string@_WU?$char_traits@_W@std@@V?$allocator@_W@2@@std@@PEAV12@V?$allocator@V?$basic_string@_WU?$char_traits@_W@std@@V?$allocator@_W@2@@std@@@2@@std@@YAPEAV?$basic_string@_WU?$char_traits@_W@std@@V?$allocator@_W@2@@0@QEAV10@0PEAV10@AEAV?$allocator@V?$basic_string@_WU?$char_traits@_W@std@@V?$allocator@_W@2@@std@@@0@@Z
pdata	ENDS
;	COMDAT pdata
pdata	SEGMENT
$pdata$??$_Uninitialized_move@PEAVTileRow@@PEAV1@V?$allocator@VTileRow@@@std@@@std@@YAPEAVTileRow@@QEAV1@0PEAV1@AEAV?$allocator@VTileRow@@@0@@Z DD imagerel $LN163
	DD	imagerel $LN163+149
	DD	imagerel $unwind$??$_Uninitialized_move@PEAVTileRow@@PEAV1@V?$allocator@VTileRow@@@std@@@std@@YAPEAVTileRow@@QEAV1@0PEAV1@AEAV?$allocator@VTileRow@@@0@@Z
pdata	ENDS
;	COMDAT pdata
pdata	SEGMENT
$pdata$??$_Uninitialized_move@PEAMPEAMV?$allocator@M@std@@@std@@YAPEAMQEAM0PEAMAEAV?$allocator@M@0@@Z DD imagerel $LN22
	DD	imagerel $LN22+48
	DD	imagerel $unwind$??$_Uninitialized_move@PEAMPEAMV?$allocator@M@std@@@std@@YAPEAMQEAM0PEAMAEAV?$allocator@M@0@@Z
pdata	ENDS
;	COMDAT pdata
pdata	SEGMENT
$pdata$??$_Ucopy@PEAM@?$vector@MV?$allocator@M@std@@@std@@AEAAPEAMPEAM00@Z DD imagerel $LN28
	DD	imagerel $LN28+45
	DD	imagerel $unwind$??$_Ucopy@PEAM@?$vector@MV?$allocator@M@std@@@std@@AEAAPEAMPEAM00@Z
pdata	ENDS
;	COMDAT pdata
pdata	SEGMENT
$pdata$??$destroy@VTileRow@@@?$_Default_allocator_traits@V?$allocator@VTileRow@@@std@@@std@@SAXAEAV?$allocator@VTileRow@@@1@QEAVTileRow@@@Z DD imagerel $LN11
	DD	imagerel $LN11+31
	DD	imagerel $unwind$??$destroy@VTileRow@@@?$_Default_allocator_traits@V?$allocator@VTileRow@@@std@@@std@@SAXAEAV?$allocator@VTileRow@@@1@QEAVTileRow@@@Z
pdata	ENDS
;	COMDAT pdata
pdata	SEGMENT
$pdata$??$_Uninitialized_move_al_unchecked@PEAV?$basic_string@_WU?$char_traits@_W@std@@V?$allocator@_W@2@@std@@PEAV12@V?$allocator@V?$basic_string@_WU?$char_traits@_W@std@@V?$allocator@_W@2@@std@@@2@@std@@YAPEAV?$basic_string@_WU?$char_traits@_W@std@@V?$allocator@_W@2@@0@PEAV10@QEAV10@1AEAV?$allocator@V?$basic_string@_WU?$char_traits@_W@std@@V?$allocator@_W@2@@std@@@0@U_General_ptr_iterator_tag@0@U_Unused_parameter@0@@Z DD imagerel $LN103
	DD	imagerel $LN103+100
	DD	imagerel $unwind$??$_Uninitialized_move_al_unchecked@PEAV?$basic_string@_WU?$char_traits@_W@std@@V?$allocator@_W@2@@std@@PEAV12@V?$allocator@V?$basic_string@_WU?$char_traits@_W@std@@V?$allocator@_W@2@@std@@@2@@std@@YAPEAV?$basic_string@_WU?$char_traits@_W@std@@V?$allocator@_W@2@@0@PEAV10@QEAV10@1AEAV?$allocator@V?$basic_string@_WU?$char_traits@_W@std@@V?$allocator@_W@2@@std@@@0@U_General_ptr_iterator_tag@0@U_Unused_parameter@0@@Z
pdata	ENDS
;	COMDAT pdata
pdata	SEGMENT
$pdata$??$_Uninitialized_move_al_unchecked@PEAVTileRow@@PEAV1@V?$allocator@VTileRow@@@std@@@std@@YAPEAVTileRow@@PEAV1@QEAV1@1AEAV?$allocator@VTileRow@@@0@U_General_ptr_iterator_tag@0@U_Unused_parameter@0@@Z DD imagerel $LN145
	DD	imagerel $LN145+149
	DD	imagerel $unwind$??$_Uninitialized_move_al_unchecked@PEAVTileRow@@PEAV1@V?$allocator@VTileRow@@@std@@@std@@YAPEAVTileRow@@PEAV1@QEAV1@1AEAV?$allocator@VTileRow@@@0@U_General_ptr_iterator_tag@0@U_Unused_parameter@0@@Z
pdata	ENDS
;	COMDAT pdata
pdata	SEGMENT
$pdata$??$_Uninitialized_move_al_unchecked@MMV?$allocator@M@std@@@std@@YAPEAMQEAM00AEAV?$allocator@M@0@U_Really_trivial_ptr_iterator_tag@0@U?$integral_constant@_N$00@0@@Z DD imagerel $LN6
	DD	imagerel $LN6+48
	DD	imagerel $unwind$??$_Uninitialized_move_al_unchecked@MMV?$allocator@M@std@@@std@@YAPEAMQEAM00AEAV?$allocator@M@0@U_Really_trivial_ptr_iterator_tag@0@U?$integral_constant@_N$00@0@@Z
pdata	ENDS
;	COMDAT pdata
pdata	SEGMENT
$pdata$??$_Uninitialized_copy@PEAMPEAMV?$allocator@M@std@@@std@@YAPEAMQEAM0PEAMAEAV?$allocator@M@0@@Z DD imagerel $LN22
	DD	imagerel $LN22+48
	DD	imagerel $unwind$??$_Uninitialized_copy@PEAMPEAMV?$allocator@M@std@@@std@@YAPEAMQEAM0PEAMAEAV?$allocator@M@0@@Z
pdata	ENDS
;	COMDAT pdata
pdata	SEGMENT
$pdata$??1?$_Uninitialized_backout_al@PEAV?$basic_string@_WU?$char_traits@_W@std@@V?$allocator@_W@2@@std@@V?$allocator@V?$basic_string@_WU?$char_traits@_W@std@@V?$allocator@_W@2@@std@@@2@@std@@QEAA@XZ DD imagerel $LN33
	DD	imagerel $LN33+61
	DD	imagerel $unwind$??1?$_Uninitialized_backout_al@PEAV?$basic_string@_WU?$char_traits@_W@std@@V?$allocator@_W@2@@std@@V?$allocator@V?$basic_string@_WU?$char_traits@_W@std@@V?$allocator@_W@2@@std@@@2@@std@@QEAA@XZ
pdata	ENDS
;	COMDAT pdata
pdata	SEGMENT
$pdata$??1?$_Uninitialized_backout_al@PEAVTileRow@@V?$allocator@VTileRow@@@std@@@std@@QEAA@XZ DD imagerel $LN26
	DD	imagerel $LN26+72
	DD	imagerel $unwind$??1?$_Uninitialized_backout_al@PEAVTileRow@@V?$allocator@VTileRow@@@std@@@std@@QEAA@XZ
pdata	ENDS
;	COMDAT pdata
pdata	SEGMENT
$pdata$??$_Emplace_back@VTileRow@@@?$_Uninitialized_backout_al@PEAVTileRow@@V?$allocator@VTileRow@@@std@@@std@@QEAAX$$QEAVTileRow@@@Z DD imagerel $LN106
	DD	imagerel $LN106+94
	DD	imagerel $unwind$??$_Emplace_back@VTileRow@@@?$_Uninitialized_backout_al@PEAVTileRow@@V?$allocator@VTileRow@@@std@@@std@@QEAAX$$QEAVTileRow@@@Z
pdata	ENDS
;	COMDAT pdata
pdata	SEGMENT
$pdata$??$_Copy_memmove@PEAMPEAM@std@@YAPEAMPEAM00@Z DD imagerel $LN4
	DD	imagerel $LN4+48
	DD	imagerel $unwind$??$_Copy_memmove@PEAMPEAM@std@@YAPEAMPEAM00@Z
pdata	ENDS
;	COMDAT pdata
pdata	SEGMENT
$pdata$??$_Uninitialized_copy_al_unchecked@MMV?$allocator@M@std@@@std@@YAPEAMQEAM00AEAV?$allocator@M@0@U_Really_trivial_ptr_iterator_tag@0@U?$integral_constant@_N$00@0@@Z DD imagerel $LN6
	DD	imagerel $LN6+48
	DD	imagerel $unwind$??$_Uninitialized_copy_al_unchecked@MMV?$allocator@M@std@@@std@@YAPEAMQEAM00AEAV?$allocator@M@0@U_Really_trivial_ptr_iterator_tag@0@U?$integral_constant@_N$00@0@@Z
pdata	ENDS
;	COMDAT pdata
pdata	SEGMENT
$pdata$??$construct@VTileRow@@V1@@?$_Default_allocator_traits@V?$allocator@VTileRow@@@std@@@std@@SAXAEAV?$allocator@VTileRow@@@1@QEAVTileRow@@$$QEAV3@@Z DD imagerel $LN100
	DD	imagerel $LN100+84
	DD	imagerel $unwind$??$construct@VTileRow@@V1@@?$_Default_allocator_traits@V?$allocator@VTileRow@@@std@@@std@@SAXAEAV?$allocator@VTileRow@@@1@QEAVTileRow@@$$QEAV3@@Z
pdata	ENDS
CRT$XCU	SEGMENT
?kInvalidId$initializer$@AssetManagement@MaxSDK@@3P6AXXZEA DQ FLAT:??__EkInvalidId@AssetManagement@MaxSDK@@YAXXZ ; MaxSDK::AssetManagement::kInvalidId$initializer$
CRT$XCU	ENDS
;	COMDAT __xmm@80000000800000008000000080000000
CONST	SEGMENT
__xmm@80000000800000008000000080000000 DB 00H, 00H, 00H, 080H, 00H, 00H, 00H
	DB	080H, 00H, 00H, 00H, 080H, 00H, 00H, 00H, 080H
CONST	ENDS
;	COMDAT __xmm@7fffffff7fffffff7fffffff7fffffff
CONST	SEGMENT
__xmm@7fffffff7fffffff7fffffff7fffffff DB 0ffH, 0ffH, 0ffH, 07fH, 0ffH, 0ffH
	DB	0ffH, 07fH, 0ffH, 0ffH, 0ffH, 07fH, 0ffH, 0ffH, 0ffH, 07fH
CONST	ENDS
;	COMDAT __xmm@00000000000000070000000000000000
CONST	SEGMENT
__xmm@00000000000000070000000000000000 DB 00H, 00H, 00H, 00H, 00H, 00H, 00H
	DB	00H, 07H, 00H, 00H, 00H, 00H, 00H, 00H, 00H
CONST	ENDS
;	COMDAT __real@5f800000
CONST	SEGMENT
__real@5f800000 DD 05f800000r			; 1.84467e+19
CONST	ENDS
;	COMDAT __real@41fb4c0b
CONST	SEGMENT
__real@41fb4c0b DD 041fb4c0br			; 31.4121
CONST	ENDS
;	COMDAT __real@40dfffc000000000
CONST	SEGMENT
__real@40dfffc000000000 DQ 040dfffc000000000r	; 32767
CONST	ENDS
;	COMDAT __real@4096cbe4
CONST	SEGMENT
__real@4096cbe4 DD 04096cbe4r			; 4.71239
CONST	ENDS
;	COMDAT __real@40490fdb
CONST	SEGMENT
__real@40490fdb DD 040490fdbr			; 3.14159
CONST	ENDS
;	COMDAT __real@4048f5c3
CONST	SEGMENT
__real@4048f5c3 DD 04048f5c3r			; 3.14
CONST	ENDS
;	COMDAT __real@403f666666666666
CONST	SEGMENT
__real@403f666666666666 DQ 0403f666666666666r	; 31.4
CONST	ENDS
;	COMDAT __real@3ff0000000000000
CONST	SEGMENT
__real@3ff0000000000000 DQ 03ff0000000000000r	; 1
CONST	ENDS
;	COMDAT __real@3fc90fdb
CONST	SEGMENT
__real@3fc90fdb DD 03fc90fdbr			; 1.5708
CONST	ENDS
;	COMDAT __real@3fb504f3
CONST	SEGMENT
__real@3fb504f3 DD 03fb504f3r			; 1.41421
CONST	ENDS
;	COMDAT __real@3fa9999a
CONST	SEGMENT
__real@3fa9999a DD 03fa9999ar			; 1.325
CONST	ENDS
;	COMDAT __real@3f9d70a4
CONST	SEGMENT
__real@3f9d70a4 DD 03f9d70a4r			; 1.23
CONST	ENDS
;	COMDAT __real@3f800000
CONST	SEGMENT
__real@3f800000 DD 03f800000r			; 1
CONST	ENDS
;	COMDAT __real@3f490fdb
CONST	SEGMENT
__real@3f490fdb DD 03f490fdbr			; 0.785398
CONST	ENDS
;	COMDAT __real@3f000000
CONST	SEGMENT
__real@3f000000 DD 03f000000r			; 0.5
CONST	ENDS
;	COMDAT __real@3dfcb924
CONST	SEGMENT
__real@3dfcb924 DD 03dfcb924r			; 0.1234
CONST	ENDS
;	COMDAT __real@38d1b717
CONST	SEGMENT
__real@38d1b717 DD 038d1b717r			; 0.0001
CONST	ENDS
;	COMDAT ??_R1A@?0A@EA@?$basic_ostream@_WU?$char_traits@_W@std@@@std@@8
rdata$r	SEGMENT
??_R1A@?0A@EA@?$basic_ostream@_WU?$char_traits@_W@std@@@std@@8 DD imagerel ??_R0?AV?$basic_ostream@_WU?$char_traits@_W@std@@@std@@@8 ; std::basic_ostream<wchar_t,std::char_traits<wchar_t> >::`RTTI Base Class Descriptor at (0,-1,0,64)'
	DD	03H
	DD	00H
	DD	0ffffffffH
	DD	00H
	DD	040H
	DD	imagerel ??_R3?$basic_ostream@_WU?$char_traits@_W@std@@@std@@8
rdata$r	ENDS
;	COMDAT ??_R2?$basic_ostream@_WU?$char_traits@_W@std@@@std@@8
rdata$r	SEGMENT
??_R2?$basic_ostream@_WU?$char_traits@_W@std@@@std@@8 DD imagerel ??_R1A@?0A@EA@?$basic_ostream@_WU?$char_traits@_W@std@@@std@@8 ; std::basic_ostream<wchar_t,std::char_traits<wchar_t> >::`RTTI Base Class Array'
	DD	imagerel ??_R1A@A@3FA@?$basic_ios@_WU?$char_traits@_W@std@@@std@@8
	DD	imagerel ??_R1A@A@3EA@ios_base@std@@8
	DD	imagerel ??_R17A@3EA@?$_Iosb@H@std@@8
	ORG $+3
rdata$r	ENDS
;	COMDAT ??_R3?$basic_ostream@_WU?$char_traits@_W@std@@@std@@8
rdata$r	SEGMENT
??_R3?$basic_ostream@_WU?$char_traits@_W@std@@@std@@8 DD 00H ; std::basic_ostream<wchar_t,std::char_traits<wchar_t> >::`RTTI Class Hierarchy Descriptor'
	DD	00H
	DD	04H
	DD	imagerel ??_R2?$basic_ostream@_WU?$char_traits@_W@std@@@std@@8
rdata$r	ENDS
;	COMDAT ??_R0?AV?$basic_ostream@_WU?$char_traits@_W@std@@@std@@@8
data$r	SEGMENT
??_R0?AV?$basic_ostream@_WU?$char_traits@_W@std@@@std@@@8 DQ FLAT:??_7type_info@@6B@ ; std::basic_ostream<wchar_t,std::char_traits<wchar_t> > `RTTI Type Descriptor'
	DQ	0000000000000000H
	DB	'.?AV?$basic_ostream@_WU?$char_traits@_W@std@@@std@@', 00H
data$r	ENDS
;	COMDAT ??_R1BA@?0A@EA@?$basic_ostream@_WU?$char_traits@_W@std@@@std@@8
rdata$r	SEGMENT
??_R1BA@?0A@EA@?$basic_ostream@_WU?$char_traits@_W@std@@@std@@8 DD imagerel ??_R0?AV?$basic_ostream@_WU?$char_traits@_W@std@@@std@@@8 ; std::basic_ostream<wchar_t,std::char_traits<wchar_t> >::`RTTI Base Class Descriptor at (16,-1,0,64)'
	DD	03H
	DD	010H
	DD	0ffffffffH
	DD	00H
	DD	040H
	DD	imagerel ??_R3?$basic_ostream@_WU?$char_traits@_W@std@@@std@@8
rdata$r	ENDS
;	COMDAT ??_R17A@3EA@?$_Iosb@H@std@@8
rdata$r	SEGMENT
??_R17A@3EA@?$_Iosb@H@std@@8 DD imagerel ??_R0?AV?$_Iosb@H@std@@@8 ; std::_Iosb<int>::`RTTI Base Class Descriptor at (8,0,4,64)'
	DD	00H
	DD	08H
	DD	00H
	DD	04H
	DD	040H
	DD	imagerel ??_R3?$_Iosb@H@std@@8
rdata$r	ENDS
;	COMDAT ??_R1A@A@3EA@ios_base@std@@8
rdata$r	SEGMENT
??_R1A@A@3EA@ios_base@std@@8 DD imagerel ??_R0?AVios_base@std@@@8 ; std::ios_base::`RTTI Base Class Descriptor at (0,0,4,64)'
	DD	01H
	DD	00H
	DD	00H
	DD	04H
	DD	040H
	DD	imagerel ??_R3ios_base@std@@8
rdata$r	ENDS
;	COMDAT ??_R1A@?0A@EA@?$_Iosb@H@std@@8
rdata$r	SEGMENT
??_R1A@?0A@EA@?$_Iosb@H@std@@8 DD imagerel ??_R0?AV?$_Iosb@H@std@@@8 ; std::_Iosb<int>::`RTTI Base Class Descriptor at (0,-1,0,64)'
	DD	00H
	DD	00H
	DD	0ffffffffH
	DD	00H
	DD	040H
	DD	imagerel ??_R3?$_Iosb@H@std@@8
rdata$r	ENDS
;	COMDAT ??_R2?$_Iosb@H@std@@8
rdata$r	SEGMENT
??_R2?$_Iosb@H@std@@8 DD imagerel ??_R1A@?0A@EA@?$_Iosb@H@std@@8 ; std::_Iosb<int>::`RTTI Base Class Array'
	ORG $+3
rdata$r	ENDS
;	COMDAT ??_R3?$_Iosb@H@std@@8
rdata$r	SEGMENT
??_R3?$_Iosb@H@std@@8 DD 00H				; std::_Iosb<int>::`RTTI Class Hierarchy Descriptor'
	DD	00H
	DD	01H
	DD	imagerel ??_R2?$_Iosb@H@std@@8
rdata$r	ENDS
;	COMDAT ??_R0?AV?$_Iosb@H@std@@@8
data$r	SEGMENT
??_R0?AV?$_Iosb@H@std@@@8 DQ FLAT:??_7type_info@@6B@	; std::_Iosb<int> `RTTI Type Descriptor'
	DQ	0000000000000000H
	DB	'.?AV?$_Iosb@H@std@@', 00H
data$r	ENDS
;	COMDAT ??_R17?0A@EA@?$_Iosb@H@std@@8
rdata$r	SEGMENT
??_R17?0A@EA@?$_Iosb@H@std@@8 DD imagerel ??_R0?AV?$_Iosb@H@std@@@8 ; std::_Iosb<int>::`RTTI Base Class Descriptor at (8,-1,0,64)'
	DD	00H
	DD	08H
	DD	0ffffffffH
	DD	00H
	DD	040H
	DD	imagerel ??_R3?$_Iosb@H@std@@8
rdata$r	ENDS
;	COMDAT ??_R2ios_base@std@@8
rdata$r	SEGMENT
??_R2ios_base@std@@8 DD imagerel ??_R1A@?0A@EA@ios_base@std@@8 ; std::ios_base::`RTTI Base Class Array'
	DD	imagerel ??_R17?0A@EA@?$_Iosb@H@std@@8
	ORG $+3
rdata$r	ENDS
;	COMDAT ??_R3ios_base@std@@8
rdata$r	SEGMENT
??_R3ios_base@std@@8 DD 00H				; std::ios_base::`RTTI Class Hierarchy Descriptor'
	DD	00H
	DD	02H
	DD	imagerel ??_R2ios_base@std@@8
rdata$r	ENDS
;	COMDAT ??_R0?AVios_base@std@@@8
data$r	SEGMENT
??_R0?AVios_base@std@@@8 DQ FLAT:??_7type_info@@6B@	; std::ios_base `RTTI Type Descriptor'
	DQ	0000000000000000H
	DB	'.?AVios_base@std@@', 00H
data$r	ENDS
;	COMDAT ??_R1A@?0A@EA@ios_base@std@@8
rdata$r	SEGMENT
??_R1A@?0A@EA@ios_base@std@@8 DD imagerel ??_R0?AVios_base@std@@@8 ; std::ios_base::`RTTI Base Class Descriptor at (0,-1,0,64)'
	DD	01H
	DD	00H
	DD	0ffffffffH
	DD	00H
	DD	040H
	DD	imagerel ??_R3ios_base@std@@8
rdata$r	ENDS
;	COMDAT ??_R1A@?0A@EA@?$basic_ios@_WU?$char_traits@_W@std@@@std@@8
rdata$r	SEGMENT
??_R1A@?0A@EA@?$basic_ios@_WU?$char_traits@_W@std@@@std@@8 DD imagerel ??_R0?AV?$basic_ios@_WU?$char_traits@_W@std@@@std@@@8 ; std::basic_ios<wchar_t,std::char_traits<wchar_t> >::`RTTI Base Class Descriptor at (0,-1,0,64)'
	DD	02H
	DD	00H
	DD	0ffffffffH
	DD	00H
	DD	040H
	DD	imagerel ??_R3?$basic_ios@_WU?$char_traits@_W@std@@@std@@8
rdata$r	ENDS
;	COMDAT ??_R2?$basic_ios@_WU?$char_traits@_W@std@@@std@@8
rdata$r	SEGMENT
??_R2?$basic_ios@_WU?$char_traits@_W@std@@@std@@8 DD imagerel ??_R1A@?0A@EA@?$basic_ios@_WU?$char_traits@_W@std@@@std@@8 ; std::basic_ios<wchar_t,std::char_traits<wchar_t> >::`RTTI Base Class Array'
	DD	imagerel ??_R1A@?0A@EA@ios_base@std@@8
	DD	imagerel ??_R17?0A@EA@?$_Iosb@H@std@@8
	ORG $+3
rdata$r	ENDS
;	COMDAT ??_R3?$basic_ios@_WU?$char_traits@_W@std@@@std@@8
rdata$r	SEGMENT
??_R3?$basic_ios@_WU?$char_traits@_W@std@@@std@@8 DD 00H ; std::basic_ios<wchar_t,std::char_traits<wchar_t> >::`RTTI Class Hierarchy Descriptor'
	DD	00H
	DD	03H
	DD	imagerel ??_R2?$basic_ios@_WU?$char_traits@_W@std@@@std@@8
rdata$r	ENDS
;	COMDAT ??_R0?AV?$basic_ios@_WU?$char_traits@_W@std@@@std@@@8
data$r	SEGMENT
??_R0?AV?$basic_ios@_WU?$char_traits@_W@std@@@std@@@8 DQ FLAT:??_7type_info@@6B@ ; std::basic_ios<wchar_t,std::char_traits<wchar_t> > `RTTI Type Descriptor'
	DQ	0000000000000000H
	DB	'.?AV?$basic_ios@_WU?$char_traits@_W@std@@@std@@', 00H
data$r	ENDS
;	COMDAT ??_R1A@A@3FA@?$basic_ios@_WU?$char_traits@_W@std@@@std@@8
rdata$r	SEGMENT
??_R1A@A@3FA@?$basic_ios@_WU?$char_traits@_W@std@@@std@@8 DD imagerel ??_R0?AV?$basic_ios@_WU?$char_traits@_W@std@@@std@@@8 ; std::basic_ios<wchar_t,std::char_traits<wchar_t> >::`RTTI Base Class Descriptor at (0,0,4,80)'
	DD	02H
	DD	00H
	DD	00H
	DD	04H
	DD	050H
	DD	imagerel ??_R3?$basic_ios@_WU?$char_traits@_W@std@@@std@@8
rdata$r	ENDS
;	COMDAT ??_R2?$basic_istream@_WU?$char_traits@_W@std@@@std@@8
rdata$r	SEGMENT
??_R2?$basic_istream@_WU?$char_traits@_W@std@@@std@@8 DD imagerel ??_R1A@?0A@EA@?$basic_istream@_WU?$char_traits@_W@std@@@std@@8 ; std::basic_istream<wchar_t,std::char_traits<wchar_t> >::`RTTI Base Class Array'
	DD	imagerel ??_R1A@A@3FA@?$basic_ios@_WU?$char_traits@_W@std@@@std@@8
	DD	imagerel ??_R1A@A@3EA@ios_base@std@@8
	DD	imagerel ??_R17A@3EA@?$_Iosb@H@std@@8
	ORG $+3
rdata$r	ENDS
;	COMDAT ??_R3?$basic_istream@_WU?$char_traits@_W@std@@@std@@8
rdata$r	SEGMENT
??_R3?$basic_istream@_WU?$char_traits@_W@std@@@std@@8 DD 00H ; std::basic_istream<wchar_t,std::char_traits<wchar_t> >::`RTTI Class Hierarchy Descriptor'
	DD	00H
	DD	04H
	DD	imagerel ??_R2?$basic_istream@_WU?$char_traits@_W@std@@@std@@8
rdata$r	ENDS
;	COMDAT ??_R0?AV?$basic_istream@_WU?$char_traits@_W@std@@@std@@@8
data$r	SEGMENT
??_R0?AV?$basic_istream@_WU?$char_traits@_W@std@@@std@@@8 DQ FLAT:??_7type_info@@6B@ ; std::basic_istream<wchar_t,std::char_traits<wchar_t> > `RTTI Type Descriptor'
	DQ	0000000000000000H
	DB	'.?AV?$basic_istream@_WU?$char_traits@_W@std@@@std@@', 00H
data$r	ENDS
;	COMDAT ??_R1A@?0A@EA@?$basic_istream@_WU?$char_traits@_W@std@@@std@@8
rdata$r	SEGMENT
??_R1A@?0A@EA@?$basic_istream@_WU?$char_traits@_W@std@@@std@@8 DD imagerel ??_R0?AV?$basic_istream@_WU?$char_traits@_W@std@@@std@@@8 ; std::basic_istream<wchar_t,std::char_traits<wchar_t> >::`RTTI Base Class Descriptor at (0,-1,0,64)'
	DD	03H
	DD	00H
	DD	0ffffffffH
	DD	00H
	DD	040H
	DD	imagerel ??_R3?$basic_istream@_WU?$char_traits@_W@std@@@std@@8
rdata$r	ENDS
;	COMDAT ??_R2?$basic_iostream@_WU?$char_traits@_W@std@@@std@@8
rdata$r	SEGMENT
??_R2?$basic_iostream@_WU?$char_traits@_W@std@@@std@@8 DD imagerel ??_R1A@?0A@EA@?$basic_iostream@_WU?$char_traits@_W@std@@@std@@8 ; std::basic_iostream<wchar_t,std::char_traits<wchar_t> >::`RTTI Base Class Array'
	DD	imagerel ??_R1A@?0A@EA@?$basic_istream@_WU?$char_traits@_W@std@@@std@@8
	DD	imagerel ??_R1A@A@3FA@?$basic_ios@_WU?$char_traits@_W@std@@@std@@8
	DD	imagerel ??_R1A@A@3EA@ios_base@std@@8
	DD	imagerel ??_R17A@3EA@?$_Iosb@H@std@@8
	DD	imagerel ??_R1BA@?0A@EA@?$basic_ostream@_WU?$char_traits@_W@std@@@std@@8
	DD	imagerel ??_R1A@A@3FA@?$basic_ios@_WU?$char_traits@_W@std@@@std@@8
	DD	imagerel ??_R1A@A@3EA@ios_base@std@@8
	DD	imagerel ??_R17A@3EA@?$_Iosb@H@std@@8
	ORG $+3
rdata$r	ENDS
;	COMDAT ??_R3?$basic_iostream@_WU?$char_traits@_W@std@@@std@@8
rdata$r	SEGMENT
??_R3?$basic_iostream@_WU?$char_traits@_W@std@@@std@@8 DD 00H ; std::basic_iostream<wchar_t,std::char_traits<wchar_t> >::`RTTI Class Hierarchy Descriptor'
	DD	03H
	DD	09H
	DD	imagerel ??_R2?$basic_iostream@_WU?$char_traits@_W@std@@@std@@8
rdata$r	ENDS
;	COMDAT ??_R0?AV?$basic_iostream@_WU?$char_traits@_W@std@@@std@@@8
data$r	SEGMENT
??_R0?AV?$basic_iostream@_WU?$char_traits@_W@std@@@std@@@8 DQ FLAT:??_7type_info@@6B@ ; std::basic_iostream<wchar_t,std::char_traits<wchar_t> > `RTTI Type Descriptor'
	DQ	0000000000000000H
	DB	'.?AV?$basic_iostream@_WU?$char_traits@_W@std@@@std@@', 00H
data$r	ENDS
;	COMDAT ??_R1A@?0A@EA@?$basic_iostream@_WU?$char_traits@_W@std@@@std@@8
rdata$r	SEGMENT
??_R1A@?0A@EA@?$basic_iostream@_WU?$char_traits@_W@std@@@std@@8 DD imagerel ??_R0?AV?$basic_iostream@_WU?$char_traits@_W@std@@@std@@@8 ; std::basic_iostream<wchar_t,std::char_traits<wchar_t> >::`RTTI Base Class Descriptor at (0,-1,0,64)'
	DD	08H
	DD	00H
	DD	0ffffffffH
	DD	00H
	DD	040H
	DD	imagerel ??_R3?$basic_iostream@_WU?$char_traits@_W@std@@@std@@8
rdata$r	ENDS
;	COMDAT ??_R1A@?0A@EA@?$basic_stringstream@_WU?$char_traits@_W@std@@V?$allocator@_W@2@@std@@8
rdata$r	SEGMENT
??_R1A@?0A@EA@?$basic_stringstream@_WU?$char_traits@_W@std@@V?$allocator@_W@2@@std@@8 DD imagerel ??_R0?AV?$basic_stringstream@_WU?$char_traits@_W@std@@V?$allocator@_W@2@@std@@@8 ; std::basic_stringstream<wchar_t,std::char_traits<wchar_t>,std::allocator<wchar_t> >::`RTTI Base Class Descriptor at (0,-1,0,64)'
	DD	09H
	DD	00H
	DD	0ffffffffH
	DD	00H
	DD	040H
	DD	imagerel ??_R3?$basic_stringstream@_WU?$char_traits@_W@std@@V?$allocator@_W@2@@std@@8
rdata$r	ENDS
;	COMDAT ??_R2?$basic_stringstream@_WU?$char_traits@_W@std@@V?$allocator@_W@2@@std@@8
rdata$r	SEGMENT
??_R2?$basic_stringstream@_WU?$char_traits@_W@std@@V?$allocator@_W@2@@std@@8 DD imagerel ??_R1A@?0A@EA@?$basic_stringstream@_WU?$char_traits@_W@std@@V?$allocator@_W@2@@std@@8 ; std::basic_stringstream<wchar_t,std::char_traits<wchar_t>,std::allocator<wchar_t> >::`RTTI Base Class Array'
	DD	imagerel ??_R1A@?0A@EA@?$basic_iostream@_WU?$char_traits@_W@std@@@std@@8
	DD	imagerel ??_R1A@?0A@EA@?$basic_istream@_WU?$char_traits@_W@std@@@std@@8
	DD	imagerel ??_R1A@A@3FA@?$basic_ios@_WU?$char_traits@_W@std@@@std@@8
	DD	imagerel ??_R1A@A@3EA@ios_base@std@@8
	DD	imagerel ??_R17A@3EA@?$_Iosb@H@std@@8
	DD	imagerel ??_R1BA@?0A@EA@?$basic_ostream@_WU?$char_traits@_W@std@@@std@@8
	DD	imagerel ??_R1A@A@3FA@?$basic_ios@_WU?$char_traits@_W@std@@@std@@8
	DD	imagerel ??_R1A@A@3EA@ios_base@std@@8
	DD	imagerel ??_R17A@3EA@?$_Iosb@H@std@@8
	ORG $+3
rdata$r	ENDS
;	COMDAT ??_R3?$basic_stringstream@_WU?$char_traits@_W@std@@V?$allocator@_W@2@@std@@8
rdata$r	SEGMENT
??_R3?$basic_stringstream@_WU?$char_traits@_W@std@@V?$allocator@_W@2@@std@@8 DD 00H ; std::basic_stringstream<wchar_t,std::char_traits<wchar_t>,std::allocator<wchar_t> >::`RTTI Class Hierarchy Descriptor'
	DD	03H
	DD	0aH
	DD	imagerel ??_R2?$basic_stringstream@_WU?$char_traits@_W@std@@V?$allocator@_W@2@@std@@8
rdata$r	ENDS
;	COMDAT ??_R0?AV?$basic_stringstream@_WU?$char_traits@_W@std@@V?$allocator@_W@2@@std@@@8
data$r	SEGMENT
??_R0?AV?$basic_stringstream@_WU?$char_traits@_W@std@@V?$allocator@_W@2@@std@@@8 DQ FLAT:??_7type_info@@6B@ ; std::basic_stringstream<wchar_t,std::char_traits<wchar_t>,std::allocator<wchar_t> > `RTTI Type Descriptor'
	DQ	0000000000000000H
	DB	'.?AV?$basic_stringstream@_WU?$char_traits@_W@std@@V?$all'
	DB	'ocator@_W@2@@std@@', 00H
data$r	ENDS
;	COMDAT ??_R4?$basic_stringstream@_WU?$char_traits@_W@std@@V?$allocator@_W@2@@std@@6B@
rdata$r	SEGMENT
??_R4?$basic_stringstream@_WU?$char_traits@_W@std@@V?$allocator@_W@2@@std@@6B@ DD 01H ; std::basic_stringstream<wchar_t,std::char_traits<wchar_t>,std::allocator<wchar_t> >::`RTTI Complete Object Locator'
	DD	098H
	DD	04H
	DD	imagerel ??_R0?AV?$basic_stringstream@_WU?$char_traits@_W@std@@V?$allocator@_W@2@@std@@@8
	DD	imagerel ??_R3?$basic_stringstream@_WU?$char_traits@_W@std@@V?$allocator@_W@2@@std@@8
	DD	imagerel ??_R4?$basic_stringstream@_WU?$char_traits@_W@std@@V?$allocator@_W@2@@std@@6B@
rdata$r	ENDS
;	COMDAT ??_R2?$basic_streambuf@_WU?$char_traits@_W@std@@@std@@8
rdata$r	SEGMENT
??_R2?$basic_streambuf@_WU?$char_traits@_W@std@@@std@@8 DD imagerel ??_R1A@?0A@EA@?$basic_streambuf@_WU?$char_traits@_W@std@@@std@@8 ; std::basic_streambuf<wchar_t,std::char_traits<wchar_t> >::`RTTI Base Class Array'
	ORG $+3
rdata$r	ENDS
;	COMDAT ??_R3?$basic_streambuf@_WU?$char_traits@_W@std@@@std@@8
rdata$r	SEGMENT
??_R3?$basic_streambuf@_WU?$char_traits@_W@std@@@std@@8 DD 00H ; std::basic_streambuf<wchar_t,std::char_traits<wchar_t> >::`RTTI Class Hierarchy Descriptor'
	DD	00H
	DD	01H
	DD	imagerel ??_R2?$basic_streambuf@_WU?$char_traits@_W@std@@@std@@8
rdata$r	ENDS
;	COMDAT ??_R0?AV?$basic_streambuf@_WU?$char_traits@_W@std@@@std@@@8
data$r	SEGMENT
??_R0?AV?$basic_streambuf@_WU?$char_traits@_W@std@@@std@@@8 DQ FLAT:??_7type_info@@6B@ ; std::basic_streambuf<wchar_t,std::char_traits<wchar_t> > `RTTI Type Descriptor'
	DQ	0000000000000000H
	DB	'.?AV?$basic_streambuf@_WU?$char_traits@_W@std@@@std@@', 00H
data$r	ENDS
;	COMDAT ??_R1A@?0A@EA@?$basic_streambuf@_WU?$char_traits@_W@std@@@std@@8
rdata$r	SEGMENT
??_R1A@?0A@EA@?$basic_streambuf@_WU?$char_traits@_W@std@@@std@@8 DD imagerel ??_R0?AV?$basic_streambuf@_WU?$char_traits@_W@std@@@std@@@8 ; std::basic_streambuf<wchar_t,std::char_traits<wchar_t> >::`RTTI Base Class Descriptor at (0,-1,0,64)'
	DD	00H
	DD	00H
	DD	0ffffffffH
	DD	00H
	DD	040H
	DD	imagerel ??_R3?$basic_streambuf@_WU?$char_traits@_W@std@@@std@@8
rdata$r	ENDS
;	COMDAT ??_R1A@?0A@EA@?$basic_stringbuf@_WU?$char_traits@_W@std@@V?$allocator@_W@2@@std@@8
rdata$r	SEGMENT
??_R1A@?0A@EA@?$basic_stringbuf@_WU?$char_traits@_W@std@@V?$allocator@_W@2@@std@@8 DD imagerel ??_R0?AV?$basic_stringbuf@_WU?$char_traits@_W@std@@V?$allocator@_W@2@@std@@@8 ; std::basic_stringbuf<wchar_t,std::char_traits<wchar_t>,std::allocator<wchar_t> >::`RTTI Base Class Descriptor at (0,-1,0,64)'
	DD	01H
	DD	00H
	DD	0ffffffffH
	DD	00H
	DD	040H
	DD	imagerel ??_R3?$basic_stringbuf@_WU?$char_traits@_W@std@@V?$allocator@_W@2@@std@@8
rdata$r	ENDS
;	COMDAT ??_R2?$basic_stringbuf@_WU?$char_traits@_W@std@@V?$allocator@_W@2@@std@@8
rdata$r	SEGMENT
??_R2?$basic_stringbuf@_WU?$char_traits@_W@std@@V?$allocator@_W@2@@std@@8 DD imagerel ??_R1A@?0A@EA@?$basic_stringbuf@_WU?$char_traits@_W@std@@V?$allocator@_W@2@@std@@8 ; std::basic_stringbuf<wchar_t,std::char_traits<wchar_t>,std::allocator<wchar_t> >::`RTTI Base Class Array'
	DD	imagerel ??_R1A@?0A@EA@?$basic_streambuf@_WU?$char_traits@_W@std@@@std@@8
	ORG $+3
rdata$r	ENDS
;	COMDAT ??_R3?$basic_stringbuf@_WU?$char_traits@_W@std@@V?$allocator@_W@2@@std@@8
rdata$r	SEGMENT
??_R3?$basic_stringbuf@_WU?$char_traits@_W@std@@V?$allocator@_W@2@@std@@8 DD 00H ; std::basic_stringbuf<wchar_t,std::char_traits<wchar_t>,std::allocator<wchar_t> >::`RTTI Class Hierarchy Descriptor'
	DD	00H
	DD	02H
	DD	imagerel ??_R2?$basic_stringbuf@_WU?$char_traits@_W@std@@V?$allocator@_W@2@@std@@8
rdata$r	ENDS
;	COMDAT ??_R0?AV?$basic_stringbuf@_WU?$char_traits@_W@std@@V?$allocator@_W@2@@std@@@8
data$r	SEGMENT
??_R0?AV?$basic_stringbuf@_WU?$char_traits@_W@std@@V?$allocator@_W@2@@std@@@8 DQ FLAT:??_7type_info@@6B@ ; std::basic_stringbuf<wchar_t,std::char_traits<wchar_t>,std::allocator<wchar_t> > `RTTI Type Descriptor'
	DQ	0000000000000000H
	DB	'.?AV?$basic_stringbuf@_WU?$char_traits@_W@std@@V?$alloca'
	DB	'tor@_W@2@@std@@', 00H
data$r	ENDS
;	COMDAT ??_R4?$basic_stringbuf@_WU?$char_traits@_W@std@@V?$allocator@_W@2@@std@@6B@
rdata$r	SEGMENT
??_R4?$basic_stringbuf@_WU?$char_traits@_W@std@@V?$allocator@_W@2@@std@@6B@ DD 01H ; std::basic_stringbuf<wchar_t,std::char_traits<wchar_t>,std::allocator<wchar_t> >::`RTTI Complete Object Locator'
	DD	00H
	DD	00H
	DD	imagerel ??_R0?AV?$basic_stringbuf@_WU?$char_traits@_W@std@@V?$allocator@_W@2@@std@@@8
	DD	imagerel ??_R3?$basic_stringbuf@_WU?$char_traits@_W@std@@V?$allocator@_W@2@@std@@8
	DD	imagerel ??_R4?$basic_stringbuf@_WU?$char_traits@_W@std@@V?$allocator@_W@2@@std@@6B@
rdata$r	ENDS
;	COMDAT ??_C@_0BA@JFNIOLAK@string?5too?5long@
CONST	SEGMENT
??_C@_0BA@JFNIOLAK@string?5too?5long@ DB 'string too long', 00H ; `string'
CONST	ENDS
;	COMDAT ??_C@_0BD@OLBABOEK@vector?$DMT?$DO?5too?5long@
CONST	SEGMENT
??_C@_0BD@OLBABOEK@vector?$DMT?$DO?5too?5long@ DB 'vector<T> too long', 00H ; `string'
CONST	ENDS
;	COMDAT ??_C@_0BI@CFPLBAOH@invalid?5string?5position@
CONST	SEGMENT
??_C@_0BI@CFPLBAOH@invalid?5string?5position@ DB 'invalid string position'
	DB	00H						; `string'
CONST	ENDS
;	COMDAT ??_C@_13DEFPDAGF@?$AA?0@
CONST	SEGMENT
??_C@_13DEFPDAGF@?$AA?0@ DB ',', 00H, 00H, 00H		; `string'
CONST	ENDS
;	COMDAT ??_C@_13CGOKJPIL@?$AA?1@
CONST	SEGMENT
??_C@_13CGOKJPIL@?$AA?1@ DB '/', 00H, 00H, 00H		; `string'
CONST	ENDS
;	COMDAT ??_8?$basic_stringstream@_WU?$char_traits@_W@std@@V?$allocator@_W@2@@std@@7B?$basic_ostream@_WU?$char_traits@_W@std@@@1@@
CONST	SEGMENT
??_8?$basic_stringstream@_WU?$char_traits@_W@std@@V?$allocator@_W@2@@std@@7B?$basic_ostream@_WU?$char_traits@_W@std@@@1@@ DD 00H ; std::basic_stringstream<wchar_t,std::char_traits<wchar_t>,std::allocator<wchar_t> >::`vbtable'
	DD	088H
CONST	ENDS
;	COMDAT ??_8?$basic_stringstream@_WU?$char_traits@_W@std@@V?$allocator@_W@2@@std@@7B?$basic_istream@_WU?$char_traits@_W@std@@@1@@
CONST	SEGMENT
??_8?$basic_stringstream@_WU?$char_traits@_W@std@@V?$allocator@_W@2@@std@@7B?$basic_istream@_WU?$char_traits@_W@std@@@1@@ DD 00H ; std::basic_stringstream<wchar_t,std::char_traits<wchar_t>,std::allocator<wchar_t> >::`vbtable'
	DD	098H
CONST	ENDS
;	COMDAT ??_7?$basic_stringstream@_WU?$char_traits@_W@std@@V?$allocator@_W@2@@std@@6B@
CONST	SEGMENT
??_7?$basic_stringstream@_WU?$char_traits@_W@std@@V?$allocator@_W@2@@std@@6B@ DQ FLAT:??_R4?$basic_stringstream@_WU?$char_traits@_W@std@@V?$allocator@_W@2@@std@@6B@ ; std::basic_stringstream<wchar_t,std::char_traits<wchar_t>,std::allocator<wchar_t> >::`vftable'
	DQ	FLAT:??_E?$basic_stringstream@_WU?$char_traits@_W@std@@V?$allocator@_W@2@@std@@$4PPPPPPPM@A@EAAPEAXI@Z
CONST	ENDS
;	COMDAT ??_7?$basic_stringbuf@_WU?$char_traits@_W@std@@V?$allocator@_W@2@@std@@6B@
CONST	SEGMENT
??_7?$basic_stringbuf@_WU?$char_traits@_W@std@@V?$allocator@_W@2@@std@@6B@ DQ FLAT:??_R4?$basic_stringbuf@_WU?$char_traits@_W@std@@V?$allocator@_W@2@@std@@6B@ ; std::basic_stringbuf<wchar_t,std::char_traits<wchar_t>,std::allocator<wchar_t> >::`vftable'
	DQ	FLAT:??_E?$basic_stringbuf@_WU?$char_traits@_W@std@@V?$allocator@_W@2@@std@@UEAAPEAXI@Z
	DQ	FLAT:?_Lock@?$basic_streambuf@_WU?$char_traits@_W@std@@@std@@UEAAXXZ
	DQ	FLAT:?_Unlock@?$basic_streambuf@_WU?$char_traits@_W@std@@@std@@UEAAXXZ
	DQ	FLAT:?overflow@?$basic_stringbuf@_WU?$char_traits@_W@std@@V?$allocator@_W@2@@std@@MEAAGG@Z
	DQ	FLAT:?pbackfail@?$basic_stringbuf@_WU?$char_traits@_W@std@@V?$allocator@_W@2@@std@@MEAAGG@Z
	DQ	FLAT:?showmanyc@?$basic_streambuf@_WU?$char_traits@_W@std@@@std@@MEAA_JXZ
	DQ	FLAT:?underflow@?$basic_stringbuf@_WU?$char_traits@_W@std@@V?$allocator@_W@2@@std@@MEAAGXZ
	DQ	FLAT:?uflow@?$basic_streambuf@_WU?$char_traits@_W@std@@@std@@MEAAGXZ
	DQ	FLAT:?xsgetn@?$basic_streambuf@_WU?$char_traits@_W@std@@@std@@MEAA_JPEA_W_J@Z
	DQ	FLAT:?xsputn@?$basic_streambuf@_WU?$char_traits@_W@std@@@std@@MEAA_JPEB_W_J@Z
	DQ	FLAT:?seekoff@?$basic_stringbuf@_WU?$char_traits@_W@std@@V?$allocator@_W@2@@std@@MEAA?AV?$fpos@U_Mbstatet@@@2@_JHH@Z
	DQ	FLAT:?seekpos@?$basic_stringbuf@_WU?$char_traits@_W@std@@V?$allocator@_W@2@@std@@MEAA?AV?$fpos@U_Mbstatet@@@2@V32@H@Z
	DQ	FLAT:?setbuf@?$basic_streambuf@_WU?$char_traits@_W@std@@@std@@MEAAPEAV12@PEA_W_J@Z
	DQ	FLAT:?sync@?$basic_streambuf@_WU?$char_traits@_W@std@@@std@@MEAAHXZ
	DQ	FLAT:?imbue@?$basic_streambuf@_WU?$char_traits@_W@std@@@std@@MEAAXAEBVlocale@2@@Z
CONST	ENDS
;	COMDAT ??_C@_1FC@DKDGEDND@?$AA0?$AA?0?$AA1?$AA?0?$AA?4?$AA5?$AA?5?$AA?1?$AA?5?$AA?9?$AA?4?$AA2?$AA5?$AA?0?$AA1@
CONST	SEGMENT
??_C@_1FC@DKDGEDND@?$AA0?$AA?0?$AA1?$AA?0?$AA?4?$AA5?$AA?5?$AA?1?$AA?5?$AA?9?$AA?4?$AA2?$AA5?$AA?0?$AA1@ DB '0'
	DB	00H, ',', 00H, '1', 00H, ',', 00H, '.', 00H, '5', 00H, ' ', 00H
	DB	'/', 00H, ' ', 00H, '-', 00H, '.', 00H, '2', 00H, '5', 00H, ','
	DB	00H, '1', 00H, ',', 00H, '.', 00H, '5', 00H, ' ', 00H, '/', 00H
	DB	' ', 00H, '-', 00H, '.', 00H, '2', 00H, '5', 00H, ',', 00H, '1'
	DB	00H, ',', 00H, '1', 00H, ' ', 00H, '/', 00H, ' ', 00H, '-', 00H
	DB	'.', 00H, '2', 00H, '5', 00H, ',', 00H, '1', 00H, ',', 00H, '1'
	DB	00H, 00H, 00H				; `string'
CONST	ENDS
;	COMDAT ??_C@_1FC@LEIJMHNO@?$AA0?$AA?0?$AA1?$AA?0?$AA1?$AA?5?$AA?1?$AA?5?$AA?9?$AA?4?$AA2?$AA5?$AA?0?$AA1?$AA?0@
CONST	SEGMENT
??_C@_1FC@LEIJMHNO@?$AA0?$AA?0?$AA1?$AA?0?$AA1?$AA?5?$AA?1?$AA?5?$AA?9?$AA?4?$AA2?$AA5?$AA?0?$AA1?$AA?0@ DB '0'
	DB	00H, ',', 00H, '1', 00H, ',', 00H, '1', 00H, ' ', 00H, '/', 00H
	DB	' ', 00H, '-', 00H, '.', 00H, '2', 00H, '5', 00H, ',', 00H, '1'
	DB	00H, ',', 00H, '.', 00H, '5', 00H, ' ', 00H, '/', 00H, ' ', 00H
	DB	'-', 00H, '.', 00H, '2', 00H, '5', 00H, ',', 00H, '1', 00H, ','
	DB	00H, '1', 00H, ' ', 00H, '/', 00H, ' ', 00H, '-', 00H, '.', 00H
	DB	'2', 00H, '5', 00H, ',', 00H, '1', 00H, ',', 00H, '.', 00H, '5'
	DB	00H, 00H, 00H				; `string'
CONST	ENDS
;	COMDAT ??_C@_1CK@FBIPLABB@?$AA?4?$AA2?$AA5?$AA?0?$AA?5?$AA1?$AA?0?$AA?5?$AA?4?$AA5?$AA?5?$AA?1?$AA?5?$AA0?$AA?0@
CONST	SEGMENT
??_C@_1CK@FBIPLABB@?$AA?4?$AA2?$AA5?$AA?0?$AA?5?$AA1?$AA?0?$AA?5?$AA?4?$AA5?$AA?5?$AA?1?$AA?5?$AA0?$AA?0@ DB '.'
	DB	00H, '2', 00H, '5', 00H, ',', 00H, ' ', 00H, '1', 00H, ',', 00H
	DB	' ', 00H, '.', 00H, '5', 00H, ' ', 00H, '/', 00H, ' ', 00H, '0'
	DB	00H, ',', 00H, ' ', 00H, '1', 00H, ',', 00H, ' ', 00H, '1', 00H
	DB	00H, 00H					; `string'
CONST	ENDS
;	COMDAT ??_C@_1FC@MFPKJHBG@?$AA0?$AA?0?$AA?5?$AA1?$AA?0?$AA?5?$AA1?$AA?0?$AA?5?$AA1?$AA?0?$AA?5?$AA1?$AA?0?$AA?5@
CONST	SEGMENT
??_C@_1FC@MFPKJHBG@?$AA0?$AA?0?$AA?5?$AA1?$AA?0?$AA?5?$AA1?$AA?0?$AA?5?$AA1?$AA?0?$AA?5?$AA1?$AA?0?$AA?5@ DB '0'
	DB	00H, ',', 00H, ' ', 00H, '1', 00H, ',', 00H, ' ', 00H, '1', 00H
	DB	',', 00H, ' ', 00H, '1', 00H, ',', 00H, ' ', 00H, '1', 00H, ','
	DB	00H, ' ', 00H, '.', 00H, '5', 00H, ' ', 00H, '/', 00H, ' ', 00H
	DB	'1', 00H, '.', 00H, '7', 00H, '5', 00H, ',', 00H, ' ', 00H, '1'
	DB	00H, ',', 00H, ' ', 00H, '1', 00H, ',', 00H, ' ', 00H, '1', 00H
	DB	',', 00H, ' ', 00H, '1', 00H, ',', 00H, ' ', 00H, '.', 00H, '5'
	DB	00H, 00H, 00H				; `string'
CONST	ENDS
;	COMDAT ??_C@_1EG@NKHPAEJM@?$AA0?$AA?0?$AA?5?$AA1?$AA?0?$AA?5?$AA1?$AA?0?$AA?5?$AA1?$AA?0?$AA?5?$AA?4?$AA5?$AA?5@
CONST	SEGMENT
??_C@_1EG@NKHPAEJM@?$AA0?$AA?0?$AA?5?$AA1?$AA?0?$AA?5?$AA1?$AA?0?$AA?5?$AA1?$AA?0?$AA?5?$AA?4?$AA5?$AA?5@ DB '0'
	DB	00H, ',', 00H, ' ', 00H, '1', 00H, ',', 00H, ' ', 00H, '1', 00H
	DB	',', 00H, ' ', 00H, '1', 00H, ',', 00H, ' ', 00H, '.', 00H, '5'
	DB	00H, ' ', 00H, '/', 00H, ' ', 00H, '1', 00H, '.', 00H, '2', 00H
	DB	'5', 00H, ',', 00H, ' ', 00H, '1', 00H, ',', 00H, ' ', 00H, '1'
	DB	00H, ',', 00H, ' ', 00H, '1', 00H, ',', 00H, ' ', 00H, '.', 00H
	DB	'5', 00H, 00H, 00H				; `string'
CONST	ENDS
;	COMDAT ??_C@_1DI@OGPGLDJP@?$AA0?$AA?0?$AA?5?$AA1?$AA?0?$AA?5?$AA1?$AA?0?$AA?5?$AA?4?$AA5?$AA?5?$AA?1?$AA?5?$AA?4@
CONST	SEGMENT
??_C@_1DI@OGPGLDJP@?$AA0?$AA?0?$AA?5?$AA1?$AA?0?$AA?5?$AA1?$AA?0?$AA?5?$AA?4?$AA5?$AA?5?$AA?1?$AA?5?$AA?4@ DB '0'
	DB	00H, ',', 00H, ' ', 00H, '1', 00H, ',', 00H, ' ', 00H, '1', 00H
	DB	',', 00H, ' ', 00H, '.', 00H, '5', 00H, ' ', 00H, '/', 00H, ' '
	DB	00H, '.', 00H, '7', 00H, '5', 00H, ',', 00H, ' ', 00H, '1', 00H
	DB	',', 00H, ' ', 00H, '1', 00H, ',', 00H, ' ', 00H, '.', 00H, '5'
	DB	00H, 00H, 00H				; `string'
CONST	ENDS
;	COMDAT ??_C@_1HG@LGFFBGEF@?$AA?4?$AA2?$AA5?$AA?0?$AA?5?$AA1?$AA?0?$AA?5?$AA?4?$AA5?$AA?5?$AA?1?$AA?5?$AA?9?$AA?4@
CONST	SEGMENT
??_C@_1HG@LGFFBGEF@?$AA?4?$AA2?$AA5?$AA?0?$AA?5?$AA1?$AA?0?$AA?5?$AA?4?$AA5?$AA?5?$AA?1?$AA?5?$AA?9?$AA?4@ DB '.'
	DB	00H, '2', 00H, '5', 00H, ',', 00H, ' ', 00H, '1', 00H, ',', 00H
	DB	' ', 00H, '.', 00H, '5', 00H, ' ', 00H, '/', 00H, ' ', 00H, '-'
	DB	00H, '.', 00H, '5', 00H, ',', 00H, ' ', 00H, '1', 00H, ',', 00H
	DB	' ', 00H, '1', 00H, ' ', 00H, '/', 00H, ' ', 00H, '-', 00H, '.'
	DB	00H, '5', 00H, ',', 00H, ' ', 00H, '1', 00H, ',', 00H, ' ', 00H
	DB	'1', 00H, ' ', 00H, '/', 00H, ' ', 00H, '-', 00H, '.', 00H, '5'
	DB	00H, ',', 00H, ' ', 00H, '1', 00H, ',', 00H, ' ', 00H, '1', 00H
	DB	' ', 00H, '/', 00H, ' ', 00H, '-', 00H, '.', 00H, '5', 00H, ','
	DB	00H, ' ', 00H, '1', 00H, ',', 00H, ' ', 00H, '1', 00H, 00H, 00H ; `string'
CONST	ENDS
;	COMDAT ??_C@_1HM@KFKBNDNL@?$AA?4?$AA2?$AA5?$AA?0?$AA?5?$AA1?$AA?0?$AA?5?$AA1?$AA?0?$AA?5?$AA?4?$AA5?$AA?5?$AA?1@
CONST	SEGMENT
??_C@_1HM@KFKBNDNL@?$AA?4?$AA2?$AA5?$AA?0?$AA?5?$AA1?$AA?0?$AA?5?$AA1?$AA?0?$AA?5?$AA?4?$AA5?$AA?5?$AA?1@ DB '.'
	DB	00H, '2', 00H, '5', 00H, ',', 00H, ' ', 00H, '1', 00H, ',', 00H
	DB	' ', 00H, '1', 00H, ',', 00H, ' ', 00H, '.', 00H, '5', 00H, ' '
	DB	00H, '/', 00H, ' ', 00H, '-', 00H, '.', 00H, '5', 00H, ',', 00H
	DB	' ', 00H, '1', 00H, ',', 00H, ' ', 00H, '1', 00H, ' ', 00H, '/'
	DB	00H, ' ', 00H, '-', 00H, '.', 00H, '5', 00H, ',', 00H, ' ', 00H
	DB	'1', 00H, ',', 00H, ' ', 00H, '1', 00H, ' ', 00H, '/', 00H, ' '
	DB	00H, '-', 00H, '.', 00H, '5', 00H, ',', 00H, ' ', 00H, '1', 00H
	DB	',', 00H, ' ', 00H, '1', 00H, ' ', 00H, '/', 00H, ' ', 00H, '-'
	DB	00H, '.', 00H, '5', 00H, ',', 00H, ' ', 00H, '1', 00H, ',', 00H
	DB	' ', 00H, '1', 00H, 00H, 00H			; `string'
CONST	ENDS
;	COMDAT ??_C@_1CI@MGOLCOH@?$AA0?$AA?0?$AA?5?$AA1?$AA?0?$AA?5?$AA1?$AA?5?$AA?1?$AA?5?$AA0?$AA?4?$AA5?$AA?0?$AA?5@
CONST	SEGMENT
??_C@_1CI@MGOLCOH@?$AA0?$AA?0?$AA?5?$AA1?$AA?0?$AA?5?$AA1?$AA?5?$AA?1?$AA?5?$AA0?$AA?4?$AA5?$AA?0?$AA?5@ DB '0'
	DB	00H, ',', 00H, ' ', 00H, '1', 00H, ',', 00H, ' ', 00H, '1', 00H
	DB	' ', 00H, '/', 00H, ' ', 00H, '0', 00H, '.', 00H, '5', 00H, ','
	DB	00H, ' ', 00H, '1', 00H, ',', 00H, ' ', 00H, '1', 00H, 00H, 00H ; `string'
CONST	ENDS
;	COMDAT ??_C@_1BA@HLCPMHKJ@?$AA0?$AA?0?$AA?5?$AA1?$AA?0?$AA?5?$AA1@
CONST	SEGMENT
??_C@_1BA@HLCPMHKJ@?$AA0?$AA?0?$AA?5?$AA1?$AA?0?$AA?5?$AA1@ DB '0', 00H, ','
	DB	00H, ' ', 00H, '1', 00H, ',', 00H, ' ', 00H, '1', 00H, 00H, 00H ; `string'
CONST	ENDS
_DATA	SEGMENT
?kTriObjNormalXTCID@@3VClass_ID@@B DD 0730a33d7H	; kTriObjNormalXTCID
	DD	027246c55H
?pat_herring_dir@@3PAEA DB 00H				; pat_herring_dir
	DB	00H
	DB	01H
	DB	01H
	DB	00H
	DB	01H
	DB	01H
	DB	00H
	DB	01H
	DB	01H
	DB	00H
	DB	00H
	DB	01H
	DB	00H
	DB	00H
	DB	01H
	ORG $+8
?pat_herring_x@@3PAMA DD 03f800000r		; 1	; pat_herring_x
	DD	03f800000r			; 1
	DD	040200000r			; 2.5
	DD	040600000r			; 3.5
	DD	000000000r			; 0
	DD	03fc00000r			; 1.5
	DD	040200000r			; 2.5
	DD	040800000r			; 4
	DD	03f000000r			; 0.5
	DD	03fc00000r			; 1.5
	DD	040400000r			; 3
	DD	040400000r			; 3
	DD	03f000000r			; 0.5
	DD	040000000r			; 2
	DD	040000000r			; 2
	DD	040600000r			; 3.5
?pat_herring_y@@3PAMA DD 03f000000r		; 0.5	; pat_herring_y
	DD	03f000000r			; 0.5
	DD	03f800000r			; 1
	DD	000000000r			; 0
	DD	03fc00000r			; 1.5
	DD	040000000r			; 2
	DD	03f800000r			; 1
	DD	03fc00000r			; 1.5
	DD	040400000r			; 3
	DD	040000000r			; 2
	DD	040200000r			; 2.5
	DD	040200000r			; 2.5
	DD	040400000r			; 3
	DD	040600000r			; 3.5
	DD	040600000r			; 3.5
	DD	040800000r			; 4
?pat_herring_id@@3PAEA DB 01H				; pat_herring_id
	DB	01H
	DB	01H
	DB	00H
	DB	00H
	DB	02H
	DB	01H
	DB	04H
	DB	03H
	DB	02H
	DB	03H
	DB	03H
	DB	03H
	DB	02H
	DB	02H
	DB	04H
_DATA	ENDS
;	COMDAT xdata
xdata	SEGMENT
$ip2state$??$construct@VTileRow@@V1@@?$_Default_allocator_traits@V?$allocator@VTileRow@@@std@@@std@@SAXAEAV?$allocator@VTileRow@@@1@QEAVTileRow@@$$QEAV3@@Z DD imagerel ??$construct@VTileRow@@V1@@?$_Default_allocator_traits@V?$allocator@VTileRow@@@std@@@std@@SAXAEAV?$allocator@VTileRow@@@1@QEAVTileRow@@$$QEAV3@@Z
	DD	0ffffffffH
xdata	ENDS
;	COMDAT xdata
xdata	SEGMENT
$stateUnwindMap$??$construct@VTileRow@@V1@@?$_Default_allocator_traits@V?$allocator@VTileRow@@@std@@@std@@SAXAEAV?$allocator@VTileRow@@@1@QEAVTileRow@@$$QEAV3@@Z DD 0ffffffffH
	DD	imagerel ?dtor$0@?0???$construct@VTileRow@@V1@@?$_Default_allocator_traits@V?$allocator@VTileRow@@@std@@@std@@SAXAEAV?$allocator@VTileRow@@@1@QEAVTileRow@@$$QEAV3@@Z@4HA
xdata	ENDS
;	COMDAT CONST
CONST	SEGMENT
$cppxdata$??$construct@VTileRow@@V1@@?$_Default_allocator_traits@V?$allocator@VTileRow@@@std@@@std@@SAXAEAV?$allocator@VTileRow@@@1@QEAVTileRow@@$$QEAV3@@Z DD 019930522H
	DD	01H
	DD	imagerel $stateUnwindMap$??$construct@VTileRow@@V1@@?$_Default_allocator_traits@V?$allocator@VTileRow@@@std@@@std@@SAXAEAV?$allocator@VTileRow@@@1@QEAVTileRow@@$$QEAV3@@Z
	DD	00H
	DD	00H
	DD	01H
	DD	imagerel $ip2state$??$construct@VTileRow@@V1@@?$_Default_allocator_traits@V?$allocator@VTileRow@@@std@@@std@@SAXAEAV?$allocator@VTileRow@@@1@QEAVTileRow@@$$QEAV3@@Z
	DD	00H
	DD	00H
	DD	00H
CONST	ENDS
;	COMDAT xdata
xdata	SEGMENT
$unwind$??$construct@VTileRow@@V1@@?$_Default_allocator_traits@V?$allocator@VTileRow@@@std@@@std@@SAXAEAV?$allocator@VTileRow@@@1@QEAVTileRow@@$$QEAV3@@Z DD 010c11H
	DD	02204H
	DD	imagerel __CxxFrameHandler3
	DD	imagerel $cppxdata$??$construct@VTileRow@@V1@@?$_Default_allocator_traits@V?$allocator@VTileRow@@@std@@@std@@SAXAEAV?$allocator@VTileRow@@@1@QEAVTileRow@@$$QEAV3@@Z
xdata	ENDS
;	COMDAT xdata
xdata	SEGMENT
$unwind$??$_Uninitialized_copy_al_unchecked@MMV?$allocator@M@std@@@std@@YAPEAMQEAM00AEAV?$allocator@M@0@U_Really_trivial_ptr_iterator_tag@0@U?$integral_constant@_N$00@0@@Z DD 040a01H
	DD	06340aH
	DD	07006320aH
xdata	ENDS
;	COMDAT xdata
xdata	SEGMENT
$unwind$??$_Copy_memmove@PEAMPEAM@std@@YAPEAMPEAM00@Z DD 040a01H
	DD	06340aH
	DD	07006320aH
xdata	ENDS
;	COMDAT xdata
xdata	SEGMENT
$ip2state$??$_Emplace_back@VTileRow@@@?$_Uninitialized_backout_al@PEAVTileRow@@V?$allocator@VTileRow@@@std@@@std@@QEAAX$$QEAVTileRow@@@Z DD imagerel ??$_Emplace_back@VTileRow@@@?$_Uninitialized_backout_al@PEAVTileRow@@V?$allocator@VTileRow@@@std@@@std@@QEAAX$$QEAVTileRow@@@Z
	DD	0ffffffffH
xdata	ENDS
;	COMDAT xdata
xdata	SEGMENT
$stateUnwindMap$??$_Emplace_back@VTileRow@@@?$_Uninitialized_backout_al@PEAVTileRow@@V?$allocator@VTileRow@@@std@@@std@@QEAAX$$QEAVTileRow@@@Z DD 0ffffffffH
	DD	imagerel ?dtor$0@?0???$_Emplace_back@VTileRow@@@?$_Uninitialized_backout_al@PEAVTileRow@@V?$allocator@VTileRow@@@std@@@std@@QEAAX$$QEAVTileRow@@@Z@4HA
xdata	ENDS
;	COMDAT CONST
CONST	SEGMENT
$cppxdata$??$_Emplace_back@VTileRow@@@?$_Uninitialized_backout_al@PEAVTileRow@@V?$allocator@VTileRow@@@std@@@std@@QEAAX$$QEAVTileRow@@@Z DD 019930522H
	DD	01H
	DD	imagerel $stateUnwindMap$??$_Emplace_back@VTileRow@@@?$_Uninitialized_backout_al@PEAVTileRow@@V?$allocator@VTileRow@@@std@@@std@@QEAAX$$QEAVTileRow@@@Z
	DD	00H
	DD	00H
	DD	01H
	DD	imagerel $ip2state$??$_Emplace_back@VTileRow@@@?$_Uninitialized_backout_al@PEAVTileRow@@V?$allocator@VTileRow@@@std@@@std@@QEAAX$$QEAVTileRow@@@Z
	DD	00H
	DD	00H
	DD	00H
CONST	ENDS
;	COMDAT xdata
xdata	SEGMENT
$unwind$??$_Emplace_back@VTileRow@@@?$_Uninitialized_backout_al@PEAVTileRow@@V?$allocator@VTileRow@@@std@@@std@@QEAAX$$QEAVTileRow@@@Z DD 010c11H
	DD	02204H
	DD	imagerel __CxxFrameHandler3
	DD	imagerel $cppxdata$??$_Emplace_back@VTileRow@@@?$_Uninitialized_backout_al@PEAVTileRow@@V?$allocator@VTileRow@@@std@@@std@@QEAAX$$QEAVTileRow@@@Z
xdata	ENDS
;	COMDAT xdata
xdata	SEGMENT
$ip2state$??1?$_Uninitialized_backout_al@PEAVTileRow@@V?$allocator@VTileRow@@@std@@@std@@QEAA@XZ DD imagerel ??1?$_Uninitialized_backout_al@PEAVTileRow@@V?$allocator@VTileRow@@@std@@@std@@QEAA@XZ
	DD	0ffffffffH
xdata	ENDS
;	COMDAT xdata
xdata	SEGMENT
$stateUnwindMap$??1?$_Uninitialized_backout_al@PEAVTileRow@@V?$allocator@VTileRow@@@std@@@std@@QEAA@XZ DD 0ffffffffH
	DD	imagerel ?dtor$0@?0???1?$_Uninitialized_backout_al@PEAVTileRow@@V?$allocator@VTileRow@@@std@@@std@@QEAA@XZ@4HA
xdata	ENDS
;	COMDAT CONST
CONST	SEGMENT
$cppxdata$??1?$_Uninitialized_backout_al@PEAVTileRow@@V?$allocator@VTileRow@@@std@@@std@@QEAA@XZ DD 019930522H
	DD	01H
	DD	imagerel $stateUnwindMap$??1?$_Uninitialized_backout_al@PEAVTileRow@@V?$allocator@VTileRow@@@std@@@std@@QEAA@XZ
	DD	00H
	DD	00H
	DD	01H
	DD	imagerel $ip2state$??1?$_Uninitialized_backout_al@PEAVTileRow@@V?$allocator@VTileRow@@@std@@@std@@QEAA@XZ
	DD	020H
	DD	00H
	DD	04H
CONST	ENDS
;	COMDAT xdata
xdata	SEGMENT
$unwind$??1?$_Uninitialized_backout_al@PEAVTileRow@@V?$allocator@VTileRow@@@std@@@std@@QEAA@XZ DD 041411H
	DD	093414H
	DD	070025206H
	DD	imagerel __CxxFrameHandler3
	DD	imagerel $cppxdata$??1?$_Uninitialized_backout_al@PEAVTileRow@@V?$allocator@VTileRow@@@std@@@std@@QEAA@XZ
xdata	ENDS
;	COMDAT xdata
xdata	SEGMENT
$ip2state$??1?$_Uninitialized_backout_al@PEAV?$basic_string@_WU?$char_traits@_W@std@@V?$allocator@_W@2@@std@@V?$allocator@V?$basic_string@_WU?$char_traits@_W@std@@V?$allocator@_W@2@@std@@@2@@std@@QEAA@XZ DD imagerel ??1?$_Uninitialized_backout_al@PEAV?$basic_string@_WU?$char_traits@_W@std@@V?$allocator@_W@2@@std@@V?$allocator@V?$basic_string@_WU?$char_traits@_W@std@@V?$allocator@_W@2@@std@@@2@@std@@QEAA@XZ
	DD	0ffffffffH
xdata	ENDS
;	COMDAT CONST
CONST	SEGMENT
$cppxdata$??1?$_Uninitialized_backout_al@PEAV?$basic_string@_WU?$char_traits@_W@std@@V?$allocator@_W@2@@std@@V?$allocator@V?$basic_string@_WU?$char_traits@_W@std@@V?$allocator@_W@2@@std@@@2@@std@@QEAA@XZ DD 019930522H
	DD	00H
	DD	00H
	DD	00H
	DD	00H
	DD	01H
	DD	imagerel $ip2state$??1?$_Uninitialized_backout_al@PEAV?$basic_string@_WU?$char_traits@_W@std@@V?$allocator@_W@2@@std@@V?$allocator@V?$basic_string@_WU?$char_traits@_W@std@@V?$allocator@_W@2@@std@@@2@@std@@QEAA@XZ
	DD	020H
	DD	00H
	DD	04H
CONST	ENDS
;	COMDAT xdata
xdata	SEGMENT
$unwind$??1?$_Uninitialized_backout_al@PEAV?$basic_string@_WU?$char_traits@_W@std@@V?$allocator@_W@2@@std@@V?$allocator@V?$basic_string@_WU?$char_traits@_W@std@@V?$allocator@_W@2@@std@@@2@@std@@QEAA@XZ DD 041419H
	DD	083414H
	DD	070025206H
	DD	imagerel __CxxFrameHandler3
	DD	imagerel $cppxdata$??1?$_Uninitialized_backout_al@PEAV?$basic_string@_WU?$char_traits@_W@std@@V?$allocator@_W@2@@std@@V?$allocator@V?$basic_string@_WU?$char_traits@_W@std@@V?$allocator@_W@2@@std@@@2@@std@@QEAA@XZ
xdata	ENDS
;	COMDAT xdata
xdata	SEGMENT
$unwind$??$_Uninitialized_copy@PEAMPEAMV?$allocator@M@std@@@std@@YAPEAMQEAM0PEAMAEAV?$allocator@M@0@@Z DD 040a01H
	DD	06340aH
	DD	07006320aH
xdata	ENDS
;	COMDAT xdata
xdata	SEGMENT
$unwind$??$_Uninitialized_move_al_unchecked@MMV?$allocator@M@std@@@std@@YAPEAMQEAM00AEAV?$allocator@M@0@U_Really_trivial_ptr_iterator_tag@0@U?$integral_constant@_N$00@0@@Z DD 040a01H
	DD	06340aH
	DD	07006320aH
xdata	ENDS
;	COMDAT xdata
xdata	SEGMENT
$ip2state$??$_Uninitialized_move_al_unchecked@PEAVTileRow@@PEAV1@V?$allocator@VTileRow@@@std@@@std@@YAPEAVTileRow@@PEAV1@QEAV1@1AEAV?$allocator@VTileRow@@@0@U_General_ptr_iterator_tag@0@U_Unused_parameter@0@@Z DD imagerel ??$_Uninitialized_move_al_unchecked@PEAVTileRow@@PEAV1@V?$allocator@VTileRow@@@std@@@std@@YAPEAVTileRow@@PEAV1@QEAV1@1AEAV?$allocator@VTileRow@@@0@U_General_ptr_iterator_tag@0@U_Unused_parameter@0@@Z
	DD	0ffffffffH
	DD	imagerel ??$_Uninitialized_move_al_unchecked@PEAVTileRow@@PEAV1@V?$allocator@VTileRow@@@std@@@std@@YAPEAVTileRow@@PEAV1@QEAV1@1AEAV?$allocator@VTileRow@@@0@U_General_ptr_iterator_tag@0@U_Unused_parameter@0@@Z+27
	DD	00H
	DD	imagerel ??$_Uninitialized_move_al_unchecked@PEAVTileRow@@PEAV1@V?$allocator@VTileRow@@@std@@@std@@YAPEAVTileRow@@PEAV1@QEAV1@1AEAV?$allocator@VTileRow@@@0@U_General_ptr_iterator_tag@0@U_Unused_parameter@0@@Z+141
	DD	0ffffffffH
xdata	ENDS
;	COMDAT xdata
xdata	SEGMENT
$stateUnwindMap$??$_Uninitialized_move_al_unchecked@PEAVTileRow@@PEAV1@V?$allocator@VTileRow@@@std@@@std@@YAPEAVTileRow@@PEAV1@QEAV1@1AEAV?$allocator@VTileRow@@@0@U_General_ptr_iterator_tag@0@U_Unused_parameter@0@@Z DD 0ffffffffH
	DD	imagerel ?dtor$0@?0???$_Uninitialized_move_al_unchecked@PEAVTileRow@@PEAV1@V?$allocator@VTileRow@@@std@@@std@@YAPEAVTileRow@@PEAV1@QEAV1@1AEAV?$allocator@VTileRow@@@0@U_General_ptr_iterator_tag@0@U_Unused_parameter@0@@Z@4HA
	DD	00H
	DD	imagerel ?dtor$1@?0???$_Uninitialized_move_al_unchecked@PEAVTileRow@@PEAV1@V?$allocator@VTileRow@@@std@@@std@@YAPEAVTileRow@@PEAV1@QEAV1@1AEAV?$allocator@VTileRow@@@0@U_General_ptr_iterator_tag@0@U_Unused_parameter@0@@Z@4HA
	DD	0ffffffffH
	DD	00H
xdata	ENDS
;	COMDAT CONST
CONST	SEGMENT
$cppxdata$??$_Uninitialized_move_al_unchecked@PEAVTileRow@@PEAV1@V?$allocator@VTileRow@@@std@@@std@@YAPEAVTileRow@@PEAV1@QEAV1@1AEAV?$allocator@VTileRow@@@0@U_General_ptr_iterator_tag@0@U_Unused_parameter@0@@Z DD 019930522H
	DD	03H
	DD	imagerel $stateUnwindMap$??$_Uninitialized_move_al_unchecked@PEAVTileRow@@PEAV1@V?$allocator@VTileRow@@@std@@@std@@YAPEAVTileRow@@PEAV1@QEAV1@1AEAV?$allocator@VTileRow@@@0@U_General_ptr_iterator_tag@0@U_Unused_parameter@0@@Z
	DD	00H
	DD	00H
	DD	03H
	DD	imagerel $ip2state$??$_Uninitialized_move_al_unchecked@PEAVTileRow@@PEAV1@V?$allocator@VTileRow@@@std@@@std@@YAPEAVTileRow@@PEAV1@QEAV1@1AEAV?$allocator@VTileRow@@@0@U_General_ptr_iterator_tag@0@U_Unused_parameter@0@@Z
	DD	00H
	DD	00H
	DD	00H
CONST	ENDS
;	COMDAT xdata
xdata	SEGMENT
$unwind$??$_Uninitialized_move_al_unchecked@PEAVTileRow@@PEAV1@V?$allocator@VTileRow@@@std@@@std@@YAPEAVTileRow@@PEAV1@QEAV1@1AEAV?$allocator@VTileRow@@@0@U_General_ptr_iterator_tag@0@U_Unused_parameter@0@@Z DD 010c11H
	DD	04204H
	DD	imagerel __CxxFrameHandler3
	DD	imagerel $cppxdata$??$_Uninitialized_move_al_unchecked@PEAVTileRow@@PEAV1@V?$allocator@VTileRow@@@std@@@std@@YAPEAVTileRow@@PEAV1@QEAV1@1AEAV?$allocator@VTileRow@@@0@U_General_ptr_iterator_tag@0@U_Unused_parameter@0@@Z
xdata	ENDS
;	COMDAT xdata
xdata	SEGMENT
$ip2state$??$_Uninitialized_move_al_unchecked@PEAV?$basic_string@_WU?$char_traits@_W@std@@V?$allocator@_W@2@@std@@PEAV12@V?$allocator@V?$basic_string@_WU?$char_traits@_W@std@@V?$allocator@_W@2@@std@@@2@@std@@YAPEAV?$basic_string@_WU?$char_traits@_W@std@@V?$allocator@_W@2@@0@PEAV10@QEAV10@1AEAV?$allocator@V?$basic_string@_WU?$char_traits@_W@std@@V?$allocator@_W@2@@std@@@0@U_General_ptr_iterator_tag@0@U_Unused_parameter@0@@Z DD imagerel ??$_Uninitialized_move_al_unchecked@PEAV?$basic_string@_WU?$char_traits@_W@std@@V?$allocator@_W@2@@std@@PEAV12@V?$allocator@V?$basic_string@_WU?$char_traits@_W@std@@V?$allocator@_W@2@@std@@@2@@std@@YAPEAV?$basic_string@_WU?$char_traits@_W@std@@V?$allocator@_W@2@@0@PEAV10@QEAV10@1AEAV?$allocator@V?$basic_string@_WU?$char_traits@_W@std@@V?$allocator@_W@2@@std@@@0@U_General_ptr_iterator_tag@0@U_Unused_parameter@0@@Z
	DD	0ffffffffH
	DD	imagerel ??$_Uninitialized_move_al_unchecked@PEAV?$basic_string@_WU?$char_traits@_W@std@@V?$allocator@_W@2@@std@@PEAV12@V?$allocator@V?$basic_string@_WU?$char_traits@_W@std@@V?$allocator@_W@2@@std@@@2@@std@@YAPEAV?$basic_string@_WU?$char_traits@_W@std@@V?$allocator@_W@2@@0@PEAV10@QEAV10@1AEAV?$allocator@V?$basic_string@_WU?$char_traits@_W@std@@V?$allocator@_W@2@@std@@@0@U_General_ptr_iterator_tag@0@U_Unused_parameter@0@@Z+27
	DD	00H
	DD	imagerel ??$_Uninitialized_move_al_unchecked@PEAV?$basic_string@_WU?$char_traits@_W@std@@V?$allocator@_W@2@@std@@PEAV12@V?$allocator@V?$basic_string@_WU?$char_traits@_W@std@@V?$allocator@_W@2@@std@@@2@@std@@YAPEAV?$basic_string@_WU?$char_traits@_W@std@@V?$allocator@_W@2@@0@PEAV10@QEAV10@1AEAV?$allocator@V?$basic_string@_WU?$char_traits@_W@std@@V?$allocator@_W@2@@std@@@0@U_General_ptr_iterator_tag@0@U_Unused_parameter@0@@Z+89
	DD	0ffffffffH
xdata	ENDS
;	COMDAT xdata
xdata	SEGMENT
$stateUnwindMap$??$_Uninitialized_move_al_unchecked@PEAV?$basic_string@_WU?$char_traits@_W@std@@V?$allocator@_W@2@@std@@PEAV12@V?$allocator@V?$basic_string@_WU?$char_traits@_W@std@@V?$allocator@_W@2@@std@@@2@@std@@YAPEAV?$basic_string@_WU?$char_traits@_W@std@@V?$allocator@_W@2@@0@PEAV10@QEAV10@1AEAV?$allocator@V?$basic_string@_WU?$char_traits@_W@std@@V?$allocator@_W@2@@std@@@0@U_General_ptr_iterator_tag@0@U_Unused_parameter@0@@Z DD 0ffffffffH
	DD	imagerel ?dtor$0@?0???$_Uninitialized_move_al_unchecked@PEAV?$basic_string@_WU?$char_traits@_W@std@@V?$allocator@_W@2@@std@@PEAV12@V?$allocator@V?$basic_string@_WU?$char_traits@_W@std@@V?$allocator@_W@2@@std@@@2@@std@@YAPEAV?$basic_string@_WU?$char_traits@_W@std@@V?$allocator@_W@2@@0@PEAV10@QEAV10@1AEAV?$allocator@V?$basic_string@_WU?$char_traits@_W@std@@V?$allocator@_W@2@@std@@@0@U_General_ptr_iterator_tag@0@U_Unused_parameter@0@@Z@4HA
xdata	ENDS
;	COMDAT CONST
CONST	SEGMENT
$cppxdata$??$_Uninitialized_move_al_unchecked@PEAV?$basic_string@_WU?$char_traits@_W@std@@V?$allocator@_W@2@@std@@PEAV12@V?$allocator@V?$basic_string@_WU?$char_traits@_W@std@@V?$allocator@_W@2@@std@@@2@@std@@YAPEAV?$basic_string@_WU?$char_traits@_W@std@@V?$allocator@_W@2@@0@PEAV10@QEAV10@1AEAV?$allocator@V?$basic_string@_WU?$char_traits@_W@std@@V?$allocator@_W@2@@std@@@0@U_General_ptr_iterator_tag@0@U_Unused_parameter@0@@Z DD 019930522H
	DD	01H
	DD	imagerel $stateUnwindMap$??$_Uninitialized_move_al_unchecked@PEAV?$basic_string@_WU?$char_traits@_W@std@@V?$allocator@_W@2@@std@@PEAV12@V?$allocator@V?$basic_string@_WU?$char_traits@_W@std@@V?$allocator@_W@2@@std@@@2@@std@@YAPEAV?$basic_string@_WU?$char_traits@_W@std@@V?$allocator@_W@2@@0@PEAV10@QEAV10@1AEAV?$allocator@V?$basic_string@_WU?$char_traits@_W@std@@V?$allocator@_W@2@@std@@@0@U_General_ptr_iterator_tag@0@U_Unused_parameter@0@@Z
	DD	00H
	DD	00H
	DD	03H
	DD	imagerel $ip2state$??$_Uninitialized_move_al_unchecked@PEAV?$basic_string@_WU?$char_traits@_W@std@@V?$allocator@_W@2@@std@@PEAV12@V?$allocator@V?$basic_string@_WU?$char_traits@_W@std@@V?$allocator@_W@2@@std@@@2@@std@@YAPEAV?$basic_string@_WU?$char_traits@_W@std@@V?$allocator@_W@2@@0@PEAV10@QEAV10@1AEAV?$allocator@V?$basic_string@_WU?$char_traits@_W@std@@V?$allocator@_W@2@@std@@@0@U_General_ptr_iterator_tag@0@U_Unused_parameter@0@@Z
	DD	00H
	DD	00H
	DD	00H
CONST	ENDS
;	COMDAT xdata
xdata	SEGMENT
$unwind$??$_Uninitialized_move_al_unchecked@PEAV?$basic_string@_WU?$char_traits@_W@std@@V?$allocator@_W@2@@std@@PEAV12@V?$allocator@V?$basic_string@_WU?$char_traits@_W@std@@V?$allocator@_W@2@@std@@@2@@std@@YAPEAV?$basic_string@_WU?$char_traits@_W@std@@V?$allocator@_W@2@@0@PEAV10@QEAV10@1AEAV?$allocator@V?$basic_string@_WU?$char_traits@_W@std@@V?$allocator@_W@2@@std@@@0@U_General_ptr_iterator_tag@0@U_Unused_parameter@0@@Z DD 010c11H
	DD	04204H
	DD	imagerel __CxxFrameHandler3
	DD	imagerel $cppxdata$??$_Uninitialized_move_al_unchecked@PEAV?$basic_string@_WU?$char_traits@_W@std@@V?$allocator@_W@2@@std@@PEAV12@V?$allocator@V?$basic_string@_WU?$char_traits@_W@std@@V?$allocator@_W@2@@std@@@2@@std@@YAPEAV?$basic_string@_WU?$char_traits@_W@std@@V?$allocator@_W@2@@0@PEAV10@QEAV10@1AEAV?$allocator@V?$basic_string@_WU?$char_traits@_W@std@@V?$allocator@_W@2@@std@@@0@U_General_ptr_iterator_tag@0@U_Unused_parameter@0@@Z
xdata	ENDS
;	COMDAT xdata
xdata	SEGMENT
$ip2state$??$destroy@VTileRow@@@?$_Default_allocator_traits@V?$allocator@VTileRow@@@std@@@std@@SAXAEAV?$allocator@VTileRow@@@1@QEAVTileRow@@@Z DD imagerel ??$destroy@VTileRow@@@?$_Default_allocator_traits@V?$allocator@VTileRow@@@std@@@std@@SAXAEAV?$allocator@VTileRow@@@1@QEAVTileRow@@@Z
	DD	0ffffffffH
xdata	ENDS
;	COMDAT xdata
xdata	SEGMENT
$stateUnwindMap$??$destroy@VTileRow@@@?$_Default_allocator_traits@V?$allocator@VTileRow@@@std@@@std@@SAXAEAV?$allocator@VTileRow@@@1@QEAVTileRow@@@Z DD 0ffffffffH
	DD	imagerel ?dtor$0@?0???$destroy@VTileRow@@@?$_Default_allocator_traits@V?$allocator@VTileRow@@@std@@@std@@SAXAEAV?$allocator@VTileRow@@@1@QEAVTileRow@@@Z@4HA
xdata	ENDS
;	COMDAT CONST
CONST	SEGMENT
$cppxdata$??$destroy@VTileRow@@@?$_Default_allocator_traits@V?$allocator@VTileRow@@@std@@@std@@SAXAEAV?$allocator@VTileRow@@@1@QEAVTileRow@@@Z DD 019930522H
	DD	01H
	DD	imagerel $stateUnwindMap$??$destroy@VTileRow@@@?$_Default_allocator_traits@V?$allocator@VTileRow@@@std@@@std@@SAXAEAV?$allocator@VTileRow@@@1@QEAVTileRow@@@Z
	DD	00H
	DD	00H
	DD	01H
	DD	imagerel $ip2state$??$destroy@VTileRow@@@?$_Default_allocator_traits@V?$allocator@VTileRow@@@std@@@std@@SAXAEAV?$allocator@VTileRow@@@1@QEAVTileRow@@@Z
	DD	020H
	DD	00H
	DD	00H
CONST	ENDS
;	COMDAT xdata
xdata	SEGMENT
$unwind$??$destroy@VTileRow@@@?$_Default_allocator_traits@V?$allocator@VTileRow@@@std@@@std@@SAXAEAV?$allocator@VTileRow@@@1@QEAVTileRow@@@Z DD 011211H
	DD	06209H
	DD	imagerel __CxxFrameHandler3
	DD	imagerel $cppxdata$??$destroy@VTileRow@@@?$_Default_allocator_traits@V?$allocator@VTileRow@@@std@@@std@@SAXAEAV?$allocator@VTileRow@@@1@QEAVTileRow@@@Z
xdata	ENDS
;	COMDAT xdata
xdata	SEGMENT
$unwind$??$_Ucopy@PEAM@?$vector@MV?$allocator@M@std@@@std@@AEAAPEAMPEAM00@Z DD 040a01H
	DD	06340aH
	DD	07006320aH
xdata	ENDS
;	COMDAT xdata
xdata	SEGMENT
$unwind$??$_Uninitialized_move@PEAMPEAMV?$allocator@M@std@@@std@@YAPEAMQEAM0PEAMAEAV?$allocator@M@0@@Z DD 040a01H
	DD	06340aH
	DD	07006320aH
xdata	ENDS
;	COMDAT xdata
xdata	SEGMENT
$ip2state$??$_Uninitialized_move@PEAVTileRow@@PEAV1@V?$allocator@VTileRow@@@std@@@std@@YAPEAVTileRow@@QEAV1@0PEAV1@AEAV?$allocator@VTileRow@@@0@@Z DD imagerel ??$_Uninitialized_move@PEAVTileRow@@PEAV1@V?$allocator@VTileRow@@@std@@@std@@YAPEAVTileRow@@QEAV1@0PEAV1@AEAV?$allocator@VTileRow@@@0@@Z
	DD	0ffffffffH
	DD	imagerel ??$_Uninitialized_move@PEAVTileRow@@PEAV1@V?$allocator@VTileRow@@@std@@@std@@YAPEAVTileRow@@QEAV1@0PEAV1@AEAV?$allocator@VTileRow@@@0@@Z+27
	DD	00H
	DD	imagerel ??$_Uninitialized_move@PEAVTileRow@@PEAV1@V?$allocator@VTileRow@@@std@@@std@@YAPEAVTileRow@@QEAV1@0PEAV1@AEAV?$allocator@VTileRow@@@0@@Z+141
	DD	0ffffffffH
xdata	ENDS
;	COMDAT xdata
xdata	SEGMENT
$stateUnwindMap$??$_Uninitialized_move@PEAVTileRow@@PEAV1@V?$allocator@VTileRow@@@std@@@std@@YAPEAVTileRow@@QEAV1@0PEAV1@AEAV?$allocator@VTileRow@@@0@@Z DD 0ffffffffH
	DD	imagerel ?dtor$0@?0???$_Uninitialized_move@PEAVTileRow@@PEAV1@V?$allocator@VTileRow@@@std@@@std@@YAPEAVTileRow@@QEAV1@0PEAV1@AEAV?$allocator@VTileRow@@@0@@Z@4HA
	DD	00H
	DD	imagerel ?dtor$1@?0???$_Uninitialized_move@PEAVTileRow@@PEAV1@V?$allocator@VTileRow@@@std@@@std@@YAPEAVTileRow@@QEAV1@0PEAV1@AEAV?$allocator@VTileRow@@@0@@Z@4HA
	DD	0ffffffffH
	DD	00H
xdata	ENDS
;	COMDAT CONST
CONST	SEGMENT
$cppxdata$??$_Uninitialized_move@PEAVTileRow@@PEAV1@V?$allocator@VTileRow@@@std@@@std@@YAPEAVTileRow@@QEAV1@0PEAV1@AEAV?$allocator@VTileRow@@@0@@Z DD 019930522H
	DD	03H
	DD	imagerel $stateUnwindMap$??$_Uninitialized_move@PEAVTileRow@@PEAV1@V?$allocator@VTileRow@@@std@@@std@@YAPEAVTileRow@@QEAV1@0PEAV1@AEAV?$allocator@VTileRow@@@0@@Z
	DD	00H
	DD	00H
	DD	03H
	DD	imagerel $ip2state$??$_Uninitialized_move@PEAVTileRow@@PEAV1@V?$allocator@VTileRow@@@std@@@std@@YAPEAVTileRow@@QEAV1@0PEAV1@AEAV?$allocator@VTileRow@@@0@@Z
	DD	00H
	DD	00H
	DD	00H
CONST	ENDS
;	COMDAT xdata
xdata	SEGMENT
$unwind$??$_Uninitialized_move@PEAVTileRow@@PEAV1@V?$allocator@VTileRow@@@std@@@std@@YAPEAVTileRow@@QEAV1@0PEAV1@AEAV?$allocator@VTileRow@@@0@@Z DD 010c11H
	DD	04204H
	DD	imagerel __CxxFrameHandler3
	DD	imagerel $cppxdata$??$_Uninitialized_move@PEAVTileRow@@PEAV1@V?$allocator@VTileRow@@@std@@@std@@YAPEAVTileRow@@QEAV1@0PEAV1@AEAV?$allocator@VTileRow@@@0@@Z
xdata	ENDS
;	COMDAT xdata
xdata	SEGMENT
$ip2state$??$_Uninitialized_move@PEAV?$basic_string@_WU?$char_traits@_W@std@@V?$allocator@_W@2@@std@@PEAV12@V?$allocator@V?$basic_string@_WU?$char_traits@_W@std@@V?$allocator@_W@2@@std@@@2@@std@@YAPEAV?$basic_string@_WU?$char_traits@_W@std@@V?$allocator@_W@2@@0@QEAV10@0PEAV10@AEAV?$allocator@V?$basic_string@_WU?$char_traits@_W@std@@V?$allocator@_W@2@@std@@@0@@Z DD imagerel ??$_Uninitialized_move@PEAV?$basic_string@_WU?$char_traits@_W@std@@V?$allocator@_W@2@@std@@PEAV12@V?$allocator@V?$basic_string@_WU?$char_traits@_W@std@@V?$allocator@_W@2@@std@@@2@@std@@YAPEAV?$basic_string@_WU?$char_traits@_W@std@@V?$allocator@_W@2@@0@QEAV10@0PEAV10@AEAV?$allocator@V?$basic_string@_WU?$char_traits@_W@std@@V?$allocator@_W@2@@std@@@0@@Z
	DD	0ffffffffH
	DD	imagerel ??$_Uninitialized_move@PEAV?$basic_string@_WU?$char_traits@_W@std@@V?$allocator@_W@2@@std@@PEAV12@V?$allocator@V?$basic_string@_WU?$char_traits@_W@std@@V?$allocator@_W@2@@std@@@2@@std@@YAPEAV?$basic_string@_WU?$char_traits@_W@std@@V?$allocator@_W@2@@0@QEAV10@0PEAV10@AEAV?$allocator@V?$basic_string@_WU?$char_traits@_W@std@@V?$allocator@_W@2@@std@@@0@@Z+27
	DD	00H
	DD	imagerel ??$_Uninitialized_move@PEAV?$basic_string@_WU?$char_traits@_W@std@@V?$allocator@_W@2@@std@@PEAV12@V?$allocator@V?$basic_string@_WU?$char_traits@_W@std@@V?$allocator@_W@2@@std@@@2@@std@@YAPEAV?$basic_string@_WU?$char_traits@_W@std@@V?$allocator@_W@2@@0@QEAV10@0PEAV10@AEAV?$allocator@V?$basic_string@_WU?$char_traits@_W@std@@V?$allocator@_W@2@@std@@@0@@Z+89
	DD	0ffffffffH
xdata	ENDS
;	COMDAT xdata
xdata	SEGMENT
$stateUnwindMap$??$_Uninitialized_move@PEAV?$basic_string@_WU?$char_traits@_W@std@@V?$allocator@_W@2@@std@@PEAV12@V?$allocator@V?$basic_string@_WU?$char_traits@_W@std@@V?$allocator@_W@2@@std@@@2@@std@@YAPEAV?$basic_string@_WU?$char_traits@_W@std@@V?$allocator@_W@2@@0@QEAV10@0PEAV10@AEAV?$allocator@V?$basic_string@_WU?$char_traits@_W@std@@V?$allocator@_W@2@@std@@@0@@Z DD 0ffffffffH
	DD	imagerel ?dtor$0@?0???$_Uninitialized_move@PEAV?$basic_string@_WU?$char_traits@_W@std@@V?$allocator@_W@2@@std@@PEAV12@V?$allocator@V?$basic_string@_WU?$char_traits@_W@std@@V?$allocator@_W@2@@std@@@2@@std@@YAPEAV?$basic_string@_WU?$char_traits@_W@std@@V?$allocator@_W@2@@0@QEAV10@0PEAV10@AEAV?$allocator@V?$basic_string@_WU?$char_traits@_W@std@@V?$allocator@_W@2@@std@@@0@@Z@4HA
xdata	ENDS
;	COMDAT CONST
CONST	SEGMENT
$cppxdata$??$_Uninitialized_move@PEAV?$basic_string@_WU?$char_traits@_W@std@@V?$allocator@_W@2@@std@@PEAV12@V?$allocator@V?$basic_string@_WU?$char_traits@_W@std@@V?$allocator@_W@2@@std@@@2@@std@@YAPEAV?$basic_string@_WU?$char_traits@_W@std@@V?$allocator@_W@2@@0@QEAV10@0PEAV10@AEAV?$allocator@V?$basic_string@_WU?$char_traits@_W@std@@V?$allocator@_W@2@@std@@@0@@Z DD 019930522H
	DD	01H
	DD	imagerel $stateUnwindMap$??$_Uninitialized_move@PEAV?$basic_string@_WU?$char_traits@_W@std@@V?$allocator@_W@2@@std@@PEAV12@V?$allocator@V?$basic_string@_WU?$char_traits@_W@std@@V?$allocator@_W@2@@std@@@2@@std@@YAPEAV?$basic_string@_WU?$char_traits@_W@std@@V?$allocator@_W@2@@0@QEAV10@0PEAV10@AEAV?$allocator@V?$basic_string@_WU?$char_traits@_W@std@@V?$allocator@_W@2@@std@@@0@@Z
	DD	00H
	DD	00H
	DD	03H
	DD	imagerel $ip2state$??$_Uninitialized_move@PEAV?$basic_string@_WU?$char_traits@_W@std@@V?$allocator@_W@2@@std@@PEAV12@V?$allocator@V?$basic_string@_WU?$char_traits@_W@std@@V?$allocator@_W@2@@std@@@2@@std@@YAPEAV?$basic_string@_WU?$char_traits@_W@std@@V?$allocator@_W@2@@0@QEAV10@0PEAV10@AEAV?$allocator@V?$basic_string@_WU?$char_traits@_W@std@@V?$allocator@_W@2@@std@@@0@@Z
	DD	00H
	DD	00H
	DD	00H
CONST	ENDS
;	COMDAT xdata
xdata	SEGMENT
$unwind$??$_Uninitialized_move@PEAV?$basic_string@_WU?$char_traits@_W@std@@V?$allocator@_W@2@@std@@PEAV12@V?$allocator@V?$basic_string@_WU?$char_traits@_W@std@@V?$allocator@_W@2@@std@@@2@@std@@YAPEAV?$basic_string@_WU?$char_traits@_W@std@@V?$allocator@_W@2@@0@QEAV10@0PEAV10@AEAV?$allocator@V?$basic_string@_WU?$char_traits@_W@std@@V?$allocator@_W@2@@std@@@0@@Z DD 010c11H
	DD	04204H
	DD	imagerel __CxxFrameHandler3
	DD	imagerel $cppxdata$??$_Uninitialized_move@PEAV?$basic_string@_WU?$char_traits@_W@std@@V?$allocator@_W@2@@std@@PEAV12@V?$allocator@V?$basic_string@_WU?$char_traits@_W@std@@V?$allocator@_W@2@@std@@@2@@std@@YAPEAV?$basic_string@_WU?$char_traits@_W@std@@V?$allocator@_W@2@@0@QEAV10@0PEAV10@AEAV?$allocator@V?$basic_string@_WU?$char_traits@_W@std@@V?$allocator@_W@2@@std@@@0@@Z
xdata	ENDS
;	COMDAT xdata
xdata	SEGMENT
$unwind$??$_Destroy_range1@V?$allocator@V?$basic_string@_WU?$char_traits@_W@std@@V?$allocator@_W@2@@std@@@std@@@std@@YAXPEAV?$basic_string@_WU?$char_traits@_W@std@@V?$allocator@_W@2@@0@0AEAV?$allocator@V?$basic_string@_WU?$char_traits@_W@std@@V?$allocator@_W@2@@std@@@0@U?$integral_constant@_N$0A@@0@@Z DD 040f01H
	DD	06340fH
	DD	0700b320fH
xdata	ENDS
;	COMDAT xdata
xdata	SEGMENT
$unwind$??$_Allocate_manually_vector_aligned@U_Default_allocate_traits@std@@@std@@YAPEAX_K@Z DD 010401H
	DD	04204H
xdata	ENDS
;	COMDAT xdata
xdata	SEGMENT
$ip2state$??$_Destroy_range1@V?$allocator@VTileRow@@@std@@@std@@YAXPEAVTileRow@@0AEAV?$allocator@VTileRow@@@0@U?$integral_constant@_N$0A@@0@@Z DD imagerel ??$_Destroy_range1@V?$allocator@VTileRow@@@std@@@std@@YAXPEAVTileRow@@0AEAV?$allocator@VTileRow@@@0@U?$integral_constant@_N$0A@@0@@Z
	DD	0ffffffffH
xdata	ENDS
;	COMDAT xdata
xdata	SEGMENT
$stateUnwindMap$??$_Destroy_range1@V?$allocator@VTileRow@@@std@@@std@@YAXPEAVTileRow@@0AEAV?$allocator@VTileRow@@@0@U?$integral_constant@_N$0A@@0@@Z DD 0ffffffffH
	DD	imagerel ?dtor$0@?0???$_Destroy_range1@V?$allocator@VTileRow@@@std@@@std@@YAXPEAVTileRow@@0AEAV?$allocator@VTileRow@@@0@U?$integral_constant@_N$0A@@0@@Z@4HA
xdata	ENDS
;	COMDAT CONST
CONST	SEGMENT
$cppxdata$??$_Destroy_range1@V?$allocator@VTileRow@@@std@@@std@@YAXPEAVTileRow@@0AEAV?$allocator@VTileRow@@@0@U?$integral_constant@_N$0A@@0@@Z DD 019930522H
	DD	01H
	DD	imagerel $stateUnwindMap$??$_Destroy_range1@V?$allocator@VTileRow@@@std@@@std@@YAXPEAVTileRow@@0AEAV?$allocator@VTileRow@@@0@U?$integral_constant@_N$0A@@0@@Z
	DD	00H
	DD	00H
	DD	01H
	DD	imagerel $ip2state$??$_Destroy_range1@V?$allocator@VTileRow@@@std@@@std@@YAXPEAVTileRow@@0AEAV?$allocator@VTileRow@@@0@U?$integral_constant@_N$0A@@0@@Z
	DD	020H
	DD	00H
	DD	00H
CONST	ENDS
;	COMDAT xdata
xdata	SEGMENT
$unwind$??$_Destroy_range1@V?$allocator@VTileRow@@@std@@@std@@YAXPEAVTileRow@@0AEAV?$allocator@VTileRow@@@0@U?$integral_constant@_N$0A@@0@@Z DD 041d11H
	DD	09341dH
	DD	0700b520fH
	DD	imagerel __CxxFrameHandler3
	DD	imagerel $cppxdata$??$_Destroy_range1@V?$allocator@VTileRow@@@std@@@std@@YAXPEAVTileRow@@0AEAV?$allocator@VTileRow@@@0@U?$integral_constant@_N$0A@@0@@Z
xdata	ENDS
;	COMDAT xdata
xdata	SEGMENT
$unwind$??0?$_String_bitmap@_W$0A@@std@@QEAA@XZ DD 020601H
	DD	030023206H
xdata	ENDS
;	COMDAT xdata
xdata	SEGMENT
$unwind$??$_Destroy_range@V?$allocator@V?$basic_string@_WU?$char_traits@_W@std@@V?$allocator@_W@2@@std@@@std@@@std@@YAXPEAV?$basic_string@_WU?$char_traits@_W@std@@V?$allocator@_W@2@@0@0AEAV?$allocator@V?$basic_string@_WU?$char_traits@_W@std@@V?$allocator@_W@2@@std@@@0@@Z DD 040f01H
	DD	06340fH
	DD	0700b320fH
xdata	ENDS
;	COMDAT xdata
xdata	SEGMENT
$unwind$??$_Deallocate@$0BA@$0A@@std@@YAXPEAX_K@Z DD 010401H
	DD	04204H
xdata	ENDS
;	COMDAT xdata
xdata	SEGMENT
$unwind$??$_Allocate@$0BA@U_Default_allocate_traits@std@@$0A@@std@@YAPEAX_K@Z DD 010401H
	DD	04204H
xdata	ENDS
;	COMDAT xdata
xdata	SEGMENT
$chain$4$??$_Reallocate_for@V<lambda_3fa8b2c8193a0f3144fc4b1b8f243931>@@PEB_W@?$basic_string@_WU?$char_traits@_W@std@@V?$allocator@_W@2@@std@@QEAAAEAV01@_KV<lambda_3fa8b2c8193a0f3144fc4b1b8f243931>@@PEB_W@Z DD 021H
	DD	imagerel $LN95
	DD	imagerel $LN95+42
	DD	imagerel $unwind$??$_Reallocate_for@V<lambda_3fa8b2c8193a0f3144fc4b1b8f243931>@@PEB_W@?$basic_string@_WU?$char_traits@_W@std@@V?$allocator@_W@2@@std@@QEAAAEAV01@_KV<lambda_3fa8b2c8193a0f3144fc4b1b8f243931>@@PEB_W@Z
xdata	ENDS
;	COMDAT xdata
xdata	SEGMENT
$chain$3$??$_Reallocate_for@V<lambda_3fa8b2c8193a0f3144fc4b1b8f243931>@@PEB_W@?$basic_string@_WU?$char_traits@_W@std@@V?$allocator@_W@2@@std@@QEAAAEAV01@_KV<lambda_3fa8b2c8193a0f3144fc4b1b8f243931>@@PEB_W@Z DD 040021H
	DD	096400H
	DD	085400H
	DD	imagerel $LN95
	DD	imagerel $LN95+42
	DD	imagerel $unwind$??$_Reallocate_for@V<lambda_3fa8b2c8193a0f3144fc4b1b8f243931>@@PEB_W@?$basic_string@_WU?$char_traits@_W@std@@V?$allocator@_W@2@@std@@QEAAAEAV01@_KV<lambda_3fa8b2c8193a0f3144fc4b1b8f243931>@@PEB_W@Z
xdata	ENDS
;	COMDAT xdata
xdata	SEGMENT
$chain$1$??$_Reallocate_for@V<lambda_3fa8b2c8193a0f3144fc4b1b8f243931>@@PEB_W@?$basic_string@_WU?$char_traits@_W@std@@V?$allocator@_W@2@@std@@QEAAAEAV01@_KV<lambda_3fa8b2c8193a0f3144fc4b1b8f243931>@@PEB_W@Z DD 040a21H
	DD	09640aH
	DD	085405H
	DD	imagerel $LN95
	DD	imagerel $LN95+42
	DD	imagerel $unwind$??$_Reallocate_for@V<lambda_3fa8b2c8193a0f3144fc4b1b8f243931>@@PEB_W@?$basic_string@_WU?$char_traits@_W@std@@V?$allocator@_W@2@@std@@QEAAAEAV01@_KV<lambda_3fa8b2c8193a0f3144fc4b1b8f243931>@@PEB_W@Z
xdata	ENDS
;	COMDAT xdata
xdata	SEGMENT
$unwind$??$_Reallocate_for@V<lambda_3fa8b2c8193a0f3144fc4b1b8f243931>@@PEB_W@?$basic_string@_WU?$char_traits@_W@std@@V?$allocator@_W@2@@std@@QEAAAEAV01@_KV<lambda_3fa8b2c8193a0f3144fc4b1b8f243931>@@PEB_W@Z DD 060e01H
	DD	0a340eH
	DD	0f00a320eH
	DD	07006e008H
xdata	ENDS
;	COMDAT xdata
xdata	SEGMENT
$unwind$??R<lambda_3fa8b2c8193a0f3144fc4b1b8f243931>@@QEBAXQEA_W_KQEB_W@Z DD 040a01H
	DD	06340aH
	DD	07006320aH
xdata	ENDS
;	COMDAT xdata
xdata	SEGMENT
$ip2state$??$_Destroy_range@V?$allocator@VTileRow@@@std@@@std@@YAXPEAVTileRow@@0AEAV?$allocator@VTileRow@@@0@@Z DD imagerel ??$_Destroy_range@V?$allocator@VTileRow@@@std@@@std@@YAXPEAVTileRow@@0AEAV?$allocator@VTileRow@@@0@@Z
	DD	0ffffffffH
xdata	ENDS
;	COMDAT xdata
xdata	SEGMENT
$stateUnwindMap$??$_Destroy_range@V?$allocator@VTileRow@@@std@@@std@@YAXPEAVTileRow@@0AEAV?$allocator@VTileRow@@@0@@Z DD 0ffffffffH
	DD	imagerel ?dtor$0@?0???$_Destroy_range@V?$allocator@VTileRow@@@std@@@std@@YAXPEAVTileRow@@0AEAV?$allocator@VTileRow@@@0@@Z@4HA
xdata	ENDS
;	COMDAT CONST
CONST	SEGMENT
$cppxdata$??$_Destroy_range@V?$allocator@VTileRow@@@std@@@std@@YAXPEAVTileRow@@0AEAV?$allocator@VTileRow@@@0@@Z DD 019930522H
	DD	01H
	DD	imagerel $stateUnwindMap$??$_Destroy_range@V?$allocator@VTileRow@@@std@@@std@@YAXPEAVTileRow@@0AEAV?$allocator@VTileRow@@@0@@Z
	DD	00H
	DD	00H
	DD	01H
	DD	imagerel $ip2state$??$_Destroy_range@V?$allocator@VTileRow@@@std@@@std@@YAXPEAVTileRow@@0AEAV?$allocator@VTileRow@@@0@@Z
	DD	020H
	DD	00H
	DD	00H
CONST	ENDS
;	COMDAT xdata
xdata	SEGMENT
$unwind$??$_Destroy_range@V?$allocator@VTileRow@@@std@@@std@@YAXPEAVTileRow@@0AEAV?$allocator@VTileRow@@@0@@Z DD 041811H
	DD	093418H
	DD	07006520aH
	DD	imagerel __CxxFrameHandler3
	DD	imagerel $cppxdata$??$_Destroy_range@V?$allocator@VTileRow@@@std@@@std@@YAXPEAVTileRow@@0AEAV?$allocator@VTileRow@@@0@@Z
xdata	ENDS
;	COMDAT xdata
xdata	SEGMENT
$unwind$??$_Traits_find_first_of@U?$char_traits@_W@std@@@std@@YA_KQEB_W_K101U?$integral_constant@_N$0A@@0@@Z DD 020501H
	DD	013405H
xdata	ENDS
;	COMDAT xdata
xdata	SEGMENT
$unwind$??$_Traits_find_first_of@U?$char_traits@_W@std@@@std@@YA_KQEB_W_K101U?$integral_constant@_N$00@0@@Z DD 0b1b01H
	DD	02a641bH
	DD	029541bH
	DD	028341bH
	DD	024011bH
	DD	0e012f014H
	DD	07010H
xdata	ENDS
;	COMDAT xdata
xdata	SEGMENT
$unwind$??$_Traits_find_first_not_of@U?$char_traits@_W@std@@@std@@YA_KQEB_W_K101U?$integral_constant@_N$0A@@0@@Z DD 020501H
	DD	013405H
xdata	ENDS
;	COMDAT xdata
xdata	SEGMENT
$unwind$??$_Traits_find_first_not_of@U?$char_traits@_W@std@@@std@@YA_KQEB_W_K101U?$integral_constant@_N$00@0@@Z DD 0b1d01H
	DD	029741dH
	DD	028641dH
	DD	027541dH
	DD	026341dH
	DD	024011dH
	DD	0e016H
xdata	ENDS
;	COMDAT xdata
xdata	SEGMENT
$unwind$?catch$0@?0???$_Emplace_reallocate@AEBM@?$vector@MV?$allocator@M@std@@@std@@QEAAPEAMQEAMAEBM@Z@4HA DD 020a19H
	DD	05006320aH
	DD	imagerel __CxxFrameHandler3
	DD	imagerel $cppxdata$??$_Emplace_reallocate@AEBM@?$vector@MV?$allocator@M@std@@@std@@QEAAPEAMQEAMAEBM@Z
xdata	ENDS
;	COMDAT xdata
xdata	SEGMENT
$ip2state$??$_Emplace_reallocate@AEBM@?$vector@MV?$allocator@M@std@@@std@@QEAAPEAMQEAMAEBM@Z DD imagerel ??$_Emplace_reallocate@AEBM@?$vector@MV?$allocator@M@std@@@std@@QEAAPEAMQEAMAEBM@Z
	DD	0ffffffffH
	DD	imagerel ??$_Emplace_reallocate@AEBM@?$vector@MV?$allocator@M@std@@@std@@QEAAPEAMQEAMAEBM@Z+153
	DD	00H
	DD	imagerel ??$_Emplace_reallocate@AEBM@?$vector@MV?$allocator@M@std@@@std@@QEAAPEAMQEAMAEBM@Z+216
	DD	0ffffffffH
	DD	imagerel ?catch$0@?0???$_Emplace_reallocate@AEBM@?$vector@MV?$allocator@M@std@@@std@@QEAAPEAMQEAMAEBM@Z@4HA
	DD	00H
	DD	imagerel ?catch$0@?0???$_Emplace_reallocate@AEBM@?$vector@MV?$allocator@M@std@@@std@@QEAAPEAMQEAMAEBM@Z@4HA+13
	DD	01H
xdata	ENDS
;	COMDAT xdata
xdata	SEGMENT
$handlerMap$0$??$_Emplace_reallocate@AEBM@?$vector@MV?$allocator@M@std@@@std@@QEAAPEAMQEAMAEBM@Z DD 00H
	DD	00H
	DD	00H
	DD	imagerel ?catch$0@?0???$_Emplace_reallocate@AEBM@?$vector@MV?$allocator@M@std@@@std@@QEAAPEAMQEAMAEBM@Z@4HA
	DD	038H
xdata	ENDS
;	COMDAT xdata
xdata	SEGMENT
$tryMap$??$_Emplace_reallocate@AEBM@?$vector@MV?$allocator@M@std@@@std@@QEAAPEAMQEAMAEBM@Z DD 00H
	DD	00H
	DD	01H
	DD	01H
	DD	imagerel $handlerMap$0$??$_Emplace_reallocate@AEBM@?$vector@MV?$allocator@M@std@@@std@@QEAAPEAMQEAMAEBM@Z
xdata	ENDS
;	COMDAT xdata
xdata	SEGMENT
$stateUnwindMap$??$_Emplace_reallocate@AEBM@?$vector@MV?$allocator@M@std@@@std@@QEAAPEAMQEAMAEBM@Z DD 0ffffffffH
	DD	00H
	DD	0ffffffffH
	DD	00H
xdata	ENDS
;	COMDAT CONST
CONST	SEGMENT
$cppxdata$??$_Emplace_reallocate@AEBM@?$vector@MV?$allocator@M@std@@@std@@QEAAPEAMQEAMAEBM@Z DD 019930522H
	DD	02H
	DD	imagerel $stateUnwindMap$??$_Emplace_reallocate@AEBM@?$vector@MV?$allocator@M@std@@@std@@QEAAPEAMQEAMAEBM@Z
	DD	01H
	DD	imagerel $tryMap$??$_Emplace_reallocate@AEBM@?$vector@MV?$allocator@M@std@@@std@@QEAAPEAMQEAMAEBM@Z
	DD	05H
	DD	imagerel $ip2state$??$_Emplace_reallocate@AEBM@?$vector@MV?$allocator@M@std@@@std@@QEAAPEAMQEAMAEBM@Z
	DD	020H
	DD	00H
	DD	00H
CONST	ENDS
;	COMDAT xdata
xdata	SEGMENT
$unwind$??$_Emplace_reallocate@AEBM@?$vector@MV?$allocator@M@std@@@std@@QEAAPEAMQEAMAEBM@Z DD 081d19H
	DD	0f0105214H
	DD	0d00ce00eH
	DD	07008c00aH
	DD	030066007H
	DD	imagerel __CxxFrameHandler3
	DD	imagerel $cppxdata$??$_Emplace_reallocate@AEBM@?$vector@MV?$allocator@M@std@@@std@@QEAAPEAMQEAMAEBM@Z
xdata	ENDS
;	COMDAT xdata
xdata	SEGMENT
$unwind$?catch$0@?0???$_Emplace_reallocate@M@?$vector@MV?$allocator@M@std@@@std@@QEAAPEAMQEAM$$QEAM@Z@4HA DD 020a19H
	DD	05006320aH
	DD	imagerel __CxxFrameHandler3
	DD	imagerel $cppxdata$??$_Emplace_reallocate@M@?$vector@MV?$allocator@M@std@@@std@@QEAAPEAMQEAM$$QEAM@Z
xdata	ENDS
;	COMDAT xdata
xdata	SEGMENT
$ip2state$??$_Emplace_reallocate@M@?$vector@MV?$allocator@M@std@@@std@@QEAAPEAMQEAM$$QEAM@Z DD imagerel ??$_Emplace_reallocate@M@?$vector@MV?$allocator@M@std@@@std@@QEAAPEAMQEAM$$QEAM@Z
	DD	0ffffffffH
	DD	imagerel ??$_Emplace_reallocate@M@?$vector@MV?$allocator@M@std@@@std@@QEAAPEAMQEAM$$QEAM@Z+153
	DD	00H
	DD	imagerel ??$_Emplace_reallocate@M@?$vector@MV?$allocator@M@std@@@std@@QEAAPEAMQEAM$$QEAM@Z+216
	DD	0ffffffffH
	DD	imagerel ?catch$0@?0???$_Emplace_reallocate@M@?$vector@MV?$allocator@M@std@@@std@@QEAAPEAMQEAM$$QEAM@Z@4HA
	DD	00H
	DD	imagerel ?catch$0@?0???$_Emplace_reallocate@M@?$vector@MV?$allocator@M@std@@@std@@QEAAPEAMQEAM$$QEAM@Z@4HA+13
	DD	01H
xdata	ENDS
;	COMDAT xdata
xdata	SEGMENT
$handlerMap$0$??$_Emplace_reallocate@M@?$vector@MV?$allocator@M@std@@@std@@QEAAPEAMQEAM$$QEAM@Z DD 00H
	DD	00H
	DD	00H
	DD	imagerel ?catch$0@?0???$_Emplace_reallocate@M@?$vector@MV?$allocator@M@std@@@std@@QEAAPEAMQEAM$$QEAM@Z@4HA
	DD	038H
xdata	ENDS
;	COMDAT xdata
xdata	SEGMENT
$tryMap$??$_Emplace_reallocate@M@?$vector@MV?$allocator@M@std@@@std@@QEAAPEAMQEAM$$QEAM@Z DD 00H
	DD	00H
	DD	01H
	DD	01H
	DD	imagerel $handlerMap$0$??$_Emplace_reallocate@M@?$vector@MV?$allocator@M@std@@@std@@QEAAPEAMQEAM$$QEAM@Z
xdata	ENDS
;	COMDAT xdata
xdata	SEGMENT
$stateUnwindMap$??$_Emplace_reallocate@M@?$vector@MV?$allocator@M@std@@@std@@QEAAPEAMQEAM$$QEAM@Z DD 0ffffffffH
	DD	00H
	DD	0ffffffffH
	DD	00H
xdata	ENDS
;	COMDAT CONST
CONST	SEGMENT
$cppxdata$??$_Emplace_reallocate@M@?$vector@MV?$allocator@M@std@@@std@@QEAAPEAMQEAM$$QEAM@Z DD 019930522H
	DD	02H
	DD	imagerel $stateUnwindMap$??$_Emplace_reallocate@M@?$vector@MV?$allocator@M@std@@@std@@QEAAPEAMQEAM$$QEAM@Z
	DD	01H
	DD	imagerel $tryMap$??$_Emplace_reallocate@M@?$vector@MV?$allocator@M@std@@@std@@QEAAPEAMQEAM$$QEAM@Z
	DD	05H
	DD	imagerel $ip2state$??$_Emplace_reallocate@M@?$vector@MV?$allocator@M@std@@@std@@QEAAPEAMQEAM$$QEAM@Z
	DD	020H
	DD	00H
	DD	00H
CONST	ENDS
;	COMDAT xdata
xdata	SEGMENT
$unwind$??$_Emplace_reallocate@M@?$vector@MV?$allocator@M@std@@@std@@QEAAPEAMQEAM$$QEAM@Z DD 081d19H
	DD	0f0105214H
	DD	0d00ce00eH
	DD	07008c00aH
	DD	030066007H
	DD	imagerel __CxxFrameHandler3
	DD	imagerel $cppxdata$??$_Emplace_reallocate@M@?$vector@MV?$allocator@M@std@@@std@@QEAAPEAMQEAM$$QEAM@Z
xdata	ENDS
;	COMDAT xdata
xdata	SEGMENT
$unwind$?catch$2@?0???$_Emplace_reallocate@AEBVTileRow@@@?$vector@VTileRow@@V?$allocator@VTileRow@@@std@@@std@@QEAAPEAVTileRow@@QEAV2@AEBV2@@Z@4HA DD 030b19H
	DD	05007420bH
	DD	03006H
	DD	imagerel __CxxFrameHandler3
	DD	imagerel $cppxdata$??$_Emplace_reallocate@AEBVTileRow@@@?$vector@VTileRow@@V?$allocator@VTileRow@@@std@@@std@@QEAAPEAVTileRow@@QEAV2@AEBV2@@Z
xdata	ENDS
;	COMDAT xdata
xdata	SEGMENT
$ip2state$??$_Emplace_reallocate@AEBVTileRow@@@?$vector@VTileRow@@V?$allocator@VTileRow@@@std@@@std@@QEAAPEAVTileRow@@QEAV2@AEBV2@@Z DD imagerel ??$_Emplace_reallocate@AEBVTileRow@@@?$vector@VTileRow@@V?$allocator@VTileRow@@@std@@@std@@QEAAPEAVTileRow@@QEAV2@AEBV2@@Z
	DD	0ffffffffH
	DD	imagerel ??$_Emplace_reallocate@AEBVTileRow@@@?$vector@VTileRow@@V?$allocator@VTileRow@@@std@@@std@@QEAAPEAVTileRow@@QEAV2@AEBV2@@Z+286
	DD	00H
	DD	imagerel ??$_Emplace_reallocate@AEBVTileRow@@@?$vector@VTileRow@@V?$allocator@VTileRow@@@std@@@std@@QEAAPEAVTileRow@@QEAV2@AEBV2@@Z+377
	DD	0ffffffffH
	DD	imagerel ?catch$2@?0???$_Emplace_reallocate@AEBVTileRow@@@?$vector@VTileRow@@V?$allocator@VTileRow@@@std@@@std@@QEAAPEAVTileRow@@QEAV2@AEBV2@@Z@4HA
	DD	00H
	DD	imagerel ?catch$2@?0???$_Emplace_reallocate@AEBVTileRow@@@?$vector@VTileRow@@V?$allocator@VTileRow@@@std@@@std@@QEAAPEAVTileRow@@QEAV2@AEBV2@@Z@4HA+14
	DD	02H
xdata	ENDS
;	COMDAT xdata
xdata	SEGMENT
$handlerMap$0$??$_Emplace_reallocate@AEBVTileRow@@@?$vector@VTileRow@@V?$allocator@VTileRow@@@std@@@std@@QEAAPEAVTileRow@@QEAV2@AEBV2@@Z DD 00H
	DD	00H
	DD	00H
	DD	imagerel ?catch$2@?0???$_Emplace_reallocate@AEBVTileRow@@@?$vector@VTileRow@@V?$allocator@VTileRow@@@std@@@std@@QEAAPEAVTileRow@@QEAV2@AEBV2@@Z@4HA
	DD	048H
xdata	ENDS
;	COMDAT xdata
xdata	SEGMENT
$tryMap$??$_Emplace_reallocate@AEBVTileRow@@@?$vector@VTileRow@@V?$allocator@VTileRow@@@std@@@std@@QEAAPEAVTileRow@@QEAV2@AEBV2@@Z DD 00H
	DD	01H
	DD	02H
	DD	01H
	DD	imagerel $handlerMap$0$??$_Emplace_reallocate@AEBVTileRow@@@?$vector@VTileRow@@V?$allocator@VTileRow@@@std@@@std@@QEAAPEAVTileRow@@QEAV2@AEBV2@@Z
xdata	ENDS
;	COMDAT xdata
xdata	SEGMENT
$stateUnwindMap$??$_Emplace_reallocate@AEBVTileRow@@@?$vector@VTileRow@@V?$allocator@VTileRow@@@std@@@std@@QEAAPEAVTileRow@@QEAV2@AEBV2@@Z DD 0ffffffffH
	DD	00H
	DD	00H
	DD	imagerel ?dtor$0@?0???$_Emplace_reallocate@AEBVTileRow@@@?$vector@VTileRow@@V?$allocator@VTileRow@@@std@@@std@@QEAAPEAVTileRow@@QEAV2@AEBV2@@Z@4HA
	DD	0ffffffffH
	DD	00H
	DD	0ffffffffH
	DD	imagerel ?dtor$1@?0???$_Emplace_reallocate@AEBVTileRow@@@?$vector@VTileRow@@V?$allocator@VTileRow@@@std@@@std@@QEAAPEAVTileRow@@QEAV2@AEBV2@@Z@4HA
xdata	ENDS
;	COMDAT CONST
CONST	SEGMENT
$cppxdata$??$_Emplace_reallocate@AEBVTileRow@@@?$vector@VTileRow@@V?$allocator@VTileRow@@@std@@@std@@QEAAPEAVTileRow@@QEAV2@AEBV2@@Z DD 019930522H
	DD	04H
	DD	imagerel $stateUnwindMap$??$_Emplace_reallocate@AEBVTileRow@@@?$vector@VTileRow@@V?$allocator@VTileRow@@@std@@@std@@QEAAPEAVTileRow@@QEAV2@AEBV2@@Z
	DD	01H
	DD	imagerel $tryMap$??$_Emplace_reallocate@AEBVTileRow@@@?$vector@VTileRow@@V?$allocator@VTileRow@@@std@@@std@@QEAAPEAVTileRow@@QEAV2@AEBV2@@Z
	DD	05H
	DD	imagerel $ip2state$??$_Emplace_reallocate@AEBVTileRow@@@?$vector@VTileRow@@V?$allocator@VTileRow@@@std@@@std@@QEAAPEAVTileRow@@QEAV2@AEBV2@@Z
	DD	030H
	DD	00H
	DD	00H
CONST	ENDS
;	COMDAT xdata
xdata	SEGMENT
$unwind$??$_Emplace_reallocate@AEBVTileRow@@@?$vector@VTileRow@@V?$allocator@VTileRow@@@std@@@std@@QEAAPEAVTileRow@@QEAV2@AEBV2@@Z DD 082219H
	DD	0f0157219H
	DD	0d011e013H
	DD	0700dc00fH
	DD	0300b600cH
	DD	imagerel __CxxFrameHandler3
	DD	imagerel $cppxdata$??$_Emplace_reallocate@AEBVTileRow@@@?$vector@VTileRow@@V?$allocator@VTileRow@@@std@@@std@@QEAAPEAVTileRow@@QEAV2@AEBV2@@Z
xdata	ENDS
;	COMDAT xdata
xdata	SEGMENT
$ip2state$??$construct@VTileRow@@AEBV1@@?$_Default_allocator_traits@V?$allocator@VTileRow@@@std@@@std@@SAXAEAV?$allocator@VTileRow@@@1@QEAVTileRow@@AEBV3@@Z DD imagerel ??$construct@VTileRow@@AEBV1@@?$_Default_allocator_traits@V?$allocator@VTileRow@@@std@@@std@@SAXAEAV?$allocator@VTileRow@@@1@QEAVTileRow@@AEBV3@@Z
	DD	0ffffffffH
xdata	ENDS
;	COMDAT xdata
xdata	SEGMENT
$stateUnwindMap$??$construct@VTileRow@@AEBV1@@?$_Default_allocator_traits@V?$allocator@VTileRow@@@std@@@std@@SAXAEAV?$allocator@VTileRow@@@1@QEAVTileRow@@AEBV3@@Z DD 0ffffffffH
	DD	imagerel ?dtor$0@?0???$construct@VTileRow@@AEBV1@@?$_Default_allocator_traits@V?$allocator@VTileRow@@@std@@@std@@SAXAEAV?$allocator@VTileRow@@@1@QEAVTileRow@@AEBV3@@Z@4HA
xdata	ENDS
;	COMDAT CONST
CONST	SEGMENT
$cppxdata$??$construct@VTileRow@@AEBV1@@?$_Default_allocator_traits@V?$allocator@VTileRow@@@std@@@std@@SAXAEAV?$allocator@VTileRow@@@1@QEAVTileRow@@AEBV3@@Z DD 019930522H
	DD	01H
	DD	imagerel $stateUnwindMap$??$construct@VTileRow@@AEBV1@@?$_Default_allocator_traits@V?$allocator@VTileRow@@@std@@@std@@SAXAEAV?$allocator@VTileRow@@@1@QEAVTileRow@@AEBV3@@Z
	DD	00H
	DD	00H
	DD	01H
	DD	imagerel $ip2state$??$construct@VTileRow@@AEBV1@@?$_Default_allocator_traits@V?$allocator@VTileRow@@@std@@@std@@SAXAEAV?$allocator@VTileRow@@@1@QEAVTileRow@@AEBV3@@Z
	DD	020H
	DD	00H
	DD	00H
CONST	ENDS
;	COMDAT xdata
xdata	SEGMENT
$unwind$??$construct@VTileRow@@AEBV1@@?$_Default_allocator_traits@V?$allocator@VTileRow@@@std@@@std@@SAXAEAV?$allocator@VTileRow@@@1@QEAVTileRow@@AEBV3@@Z DD 010d11H
	DD	06204H
	DD	imagerel __CxxFrameHandler3
	DD	imagerel $cppxdata$??$construct@VTileRow@@AEBV1@@?$_Default_allocator_traits@V?$allocator@VTileRow@@@std@@@std@@SAXAEAV?$allocator@VTileRow@@@1@QEAVTileRow@@AEBV3@@Z
xdata	ENDS
;	COMDAT xdata
xdata	SEGMENT
$ip2state$??$_Emplace_back_with_unused_capacity@AEBVTileRow@@@?$vector@VTileRow@@V?$allocator@VTileRow@@@std@@@std@@AEAAXAEBVTileRow@@@Z DD imagerel ??$_Emplace_back_with_unused_capacity@AEBVTileRow@@@?$vector@VTileRow@@V?$allocator@VTileRow@@@std@@@std@@AEAAXAEBVTileRow@@@Z
	DD	0ffffffffH
xdata	ENDS
;	COMDAT xdata
xdata	SEGMENT
$stateUnwindMap$??$_Emplace_back_with_unused_capacity@AEBVTileRow@@@?$vector@VTileRow@@V?$allocator@VTileRow@@@std@@@std@@AEAAXAEBVTileRow@@@Z DD 0ffffffffH
	DD	imagerel ?dtor$0@?0???$_Emplace_back_with_unused_capacity@AEBVTileRow@@@?$vector@VTileRow@@V?$allocator@VTileRow@@@std@@@std@@AEAAXAEBVTileRow@@@Z@4HA
xdata	ENDS
;	COMDAT CONST
CONST	SEGMENT
$cppxdata$??$_Emplace_back_with_unused_capacity@AEBVTileRow@@@?$vector@VTileRow@@V?$allocator@VTileRow@@@std@@@std@@AEAAXAEBVTileRow@@@Z DD 019930522H
	DD	01H
	DD	imagerel $stateUnwindMap$??$_Emplace_back_with_unused_capacity@AEBVTileRow@@@?$vector@VTileRow@@V?$allocator@VTileRow@@@std@@@std@@AEAAXAEBVTileRow@@@Z
	DD	00H
	DD	00H
	DD	01H
	DD	imagerel $ip2state$??$_Emplace_back_with_unused_capacity@AEBVTileRow@@@?$vector@VTileRow@@V?$allocator@VTileRow@@@std@@@std@@AEAAXAEBVTileRow@@@Z
	DD	020H
	DD	00H
	DD	00H
CONST	ENDS
;	COMDAT xdata
xdata	SEGMENT
$unwind$??$_Emplace_back_with_unused_capacity@AEBVTileRow@@@?$vector@VTileRow@@V?$allocator@VTileRow@@@std@@@std@@AEAAXAEBVTileRow@@@Z DD 020f11H
	DD	030025206H
	DD	imagerel __CxxFrameHandler3
	DD	imagerel $cppxdata$??$_Emplace_back_with_unused_capacity@AEBVTileRow@@@?$vector@VTileRow@@V?$allocator@VTileRow@@@std@@@std@@AEAAXAEBVTileRow@@@Z
xdata	ENDS
;	COMDAT xdata
xdata	SEGMENT
$ip2state$??$emplace_back@AEBVTileRow@@@?$vector@VTileRow@@V?$allocator@VTileRow@@@std@@@std@@QEAAXAEBVTileRow@@@Z DD imagerel ??$emplace_back@AEBVTileRow@@@?$vector@VTileRow@@V?$allocator@VTileRow@@@std@@@std@@QEAAXAEBVTileRow@@@Z
	DD	0ffffffffH
xdata	ENDS
;	COMDAT xdata
xdata	SEGMENT
$stateUnwindMap$??$emplace_back@AEBVTileRow@@@?$vector@VTileRow@@V?$allocator@VTileRow@@@std@@@std@@QEAAXAEBVTileRow@@@Z DD 0ffffffffH
	DD	imagerel ?dtor$0@?0???$emplace_back@AEBVTileRow@@@?$vector@VTileRow@@V?$allocator@VTileRow@@@std@@@std@@QEAAXAEBVTileRow@@@Z@4HA
xdata	ENDS
;	COMDAT CONST
CONST	SEGMENT
$cppxdata$??$emplace_back@AEBVTileRow@@@?$vector@VTileRow@@V?$allocator@VTileRow@@@std@@@std@@QEAAXAEBVTileRow@@@Z DD 019930522H
	DD	01H
	DD	imagerel $stateUnwindMap$??$emplace_back@AEBVTileRow@@@?$vector@VTileRow@@V?$allocator@VTileRow@@@std@@@std@@QEAAXAEBVTileRow@@@Z
	DD	00H
	DD	00H
	DD	01H
	DD	imagerel $ip2state$??$emplace_back@AEBVTileRow@@@?$vector@VTileRow@@V?$allocator@VTileRow@@@std@@@std@@QEAAXAEBVTileRow@@@Z
	DD	020H
	DD	00H
	DD	00H
CONST	ENDS
;	COMDAT xdata
xdata	SEGMENT
$unwind$??$emplace_back@AEBVTileRow@@@?$vector@VTileRow@@V?$allocator@VTileRow@@@std@@@std@@QEAAXAEBVTileRow@@@Z DD 020f11H
	DD	030025206H
	DD	imagerel __CxxFrameHandler3
	DD	imagerel $cppxdata$??$emplace_back@AEBVTileRow@@@?$vector@VTileRow@@V?$allocator@VTileRow@@@std@@@std@@QEAAXAEBVTileRow@@@Z
xdata	ENDS
;	COMDAT xdata
xdata	SEGMENT
$unwind$?catch$3@?0???$_Emplace_reallocate@V?$basic_string@_WU?$char_traits@_W@std@@V?$allocator@_W@2@@std@@@?$vector@V?$basic_string@_WU?$char_traits@_W@std@@V?$allocator@_W@2@@std@@V?$allocator@V?$basic_string@_WU?$char_traits@_W@std@@V?$allocator@_W@2@@std@@@2@@std@@QEAAPEAV?$basic_string@_WU?$char_traits@_W@std@@V?$allocator@_W@2@@1@QEAV21@$$QEAV21@@Z@4HA DD 020a19H
	DD	05006320aH
	DD	imagerel __CxxFrameHandler3
	DD	imagerel $cppxdata$??$_Emplace_reallocate@V?$basic_string@_WU?$char_traits@_W@std@@V?$allocator@_W@2@@std@@@?$vector@V?$basic_string@_WU?$char_traits@_W@std@@V?$allocator@_W@2@@std@@V?$allocator@V?$basic_string@_WU?$char_traits@_W@std@@V?$allocator@_W@2@@std@@@2@@std@@QEAAPEAV?$basic_string@_WU?$char_traits@_W@std@@V?$allocator@_W@2@@1@QEAV21@$$QEAV21@@Z
xdata	ENDS
;	COMDAT xdata
xdata	SEGMENT
$ip2state$??$_Emplace_reallocate@V?$basic_string@_WU?$char_traits@_W@std@@V?$allocator@_W@2@@std@@@?$vector@V?$basic_string@_WU?$char_traits@_W@std@@V?$allocator@_W@2@@std@@V?$allocator@V?$basic_string@_WU?$char_traits@_W@std@@V?$allocator@_W@2@@std@@@2@@std@@QEAAPEAV?$basic_string@_WU?$char_traits@_W@std@@V?$allocator@_W@2@@1@QEAV21@$$QEAV21@@Z DD imagerel ??$_Emplace_reallocate@V?$basic_string@_WU?$char_traits@_W@std@@V?$allocator@_W@2@@std@@@?$vector@V?$basic_string@_WU?$char_traits@_W@std@@V?$allocator@_W@2@@std@@V?$allocator@V?$basic_string@_WU?$char_traits@_W@std@@V?$allocator@_W@2@@std@@@2@@std@@QEAAPEAV?$basic_string@_WU?$char_traits@_W@std@@V?$allocator@_W@2@@1@QEAV21@$$QEAV21@@Z
	DD	0ffffffffH
	DD	imagerel ??$_Emplace_reallocate@V?$basic_string@_WU?$char_traits@_W@std@@V?$allocator@_W@2@@std@@@?$vector@V?$basic_string@_WU?$char_traits@_W@std@@V?$allocator@_W@2@@std@@V?$allocator@V?$basic_string@_WU?$char_traits@_W@std@@V?$allocator@_W@2@@std@@@2@@std@@QEAAPEAV?$basic_string@_WU?$char_traits@_W@std@@V?$allocator@_W@2@@1@QEAV21@$$QEAV21@@Z+292
	DD	00H
	DD	imagerel ??$_Emplace_reallocate@V?$basic_string@_WU?$char_traits@_W@std@@V?$allocator@_W@2@@std@@@?$vector@V?$basic_string@_WU?$char_traits@_W@std@@V?$allocator@_W@2@@std@@V?$allocator@V?$basic_string@_WU?$char_traits@_W@std@@V?$allocator@_W@2@@std@@@2@@std@@QEAAPEAV?$basic_string@_WU?$char_traits@_W@std@@V?$allocator@_W@2@@1@QEAV21@$$QEAV21@@Z+375
	DD	01H
	DD	imagerel ??$_Emplace_reallocate@V?$basic_string@_WU?$char_traits@_W@std@@V?$allocator@_W@2@@std@@@?$vector@V?$basic_string@_WU?$char_traits@_W@std@@V?$allocator@_W@2@@std@@V?$allocator@V?$basic_string@_WU?$char_traits@_W@std@@V?$allocator@_W@2@@std@@@2@@std@@QEAAPEAV?$basic_string@_WU?$char_traits@_W@std@@V?$allocator@_W@2@@1@QEAV21@$$QEAV21@@Z+439
	DD	00H
	DD	imagerel ??$_Emplace_reallocate@V?$basic_string@_WU?$char_traits@_W@std@@V?$allocator@_W@2@@std@@@?$vector@V?$basic_string@_WU?$char_traits@_W@std@@V?$allocator@_W@2@@std@@V?$allocator@V?$basic_string@_WU?$char_traits@_W@std@@V?$allocator@_W@2@@std@@@2@@std@@QEAAPEAV?$basic_string@_WU?$char_traits@_W@std@@V?$allocator@_W@2@@1@QEAV21@$$QEAV21@@Z+512
	DD	02H
	DD	imagerel ??$_Emplace_reallocate@V?$basic_string@_WU?$char_traits@_W@std@@V?$allocator@_W@2@@std@@@?$vector@V?$basic_string@_WU?$char_traits@_W@std@@V?$allocator@_W@2@@std@@V?$allocator@V?$basic_string@_WU?$char_traits@_W@std@@V?$allocator@_W@2@@std@@@2@@std@@QEAAPEAV?$basic_string@_WU?$char_traits@_W@std@@V?$allocator@_W@2@@1@QEAV21@$$QEAV21@@Z+579
	DD	00H
	DD	imagerel ??$_Emplace_reallocate@V?$basic_string@_WU?$char_traits@_W@std@@V?$allocator@_W@2@@std@@@?$vector@V?$basic_string@_WU?$char_traits@_W@std@@V?$allocator@_W@2@@std@@V?$allocator@V?$basic_string@_WU?$char_traits@_W@std@@V?$allocator@_W@2@@std@@@2@@std@@QEAAPEAV?$basic_string@_WU?$char_traits@_W@std@@V?$allocator@_W@2@@1@QEAV21@$$QEAV21@@Z+672
	DD	03H
	DD	imagerel ??$_Emplace_reallocate@V?$basic_string@_WU?$char_traits@_W@std@@V?$allocator@_W@2@@std@@@?$vector@V?$basic_string@_WU?$char_traits@_W@std@@V?$allocator@_W@2@@std@@V?$allocator@V?$basic_string@_WU?$char_traits@_W@std@@V?$allocator@_W@2@@std@@@2@@std@@QEAAPEAV?$basic_string@_WU?$char_traits@_W@std@@V?$allocator@_W@2@@1@QEAV21@$$QEAV21@@Z+739
	DD	00H
	DD	imagerel ??$_Emplace_reallocate@V?$basic_string@_WU?$char_traits@_W@std@@V?$allocator@_W@2@@std@@@?$vector@V?$basic_string@_WU?$char_traits@_W@std@@V?$allocator@_W@2@@std@@V?$allocator@V?$basic_string@_WU?$char_traits@_W@std@@V?$allocator@_W@2@@std@@@2@@std@@QEAAPEAV?$basic_string@_WU?$char_traits@_W@std@@V?$allocator@_W@2@@1@QEAV21@$$QEAV21@@Z+769
	DD	0ffffffffH
	DD	imagerel ?catch$3@?0???$_Emplace_reallocate@V?$basic_string@_WU?$char_traits@_W@std@@V?$allocator@_W@2@@std@@@?$vector@V?$basic_string@_WU?$char_traits@_W@std@@V?$allocator@_W@2@@std@@V?$allocator@V?$basic_string@_WU?$char_traits@_W@std@@V?$allocator@_W@2@@std@@@2@@std@@QEAAPEAV?$basic_string@_WU?$char_traits@_W@std@@V?$allocator@_W@2@@1@QEAV21@$$QEAV21@@Z@4HA
	DD	00H
	DD	imagerel ?catch$3@?0???$_Emplace_reallocate@V?$basic_string@_WU?$char_traits@_W@std@@V?$allocator@_W@2@@std@@@?$vector@V?$basic_string@_WU?$char_traits@_W@std@@V?$allocator@_W@2@@std@@V?$allocator@V?$basic_string@_WU?$char_traits@_W@std@@V?$allocator@_W@2@@std@@@2@@std@@QEAAPEAV?$basic_string@_WU?$char_traits@_W@std@@V?$allocator@_W@2@@1@QEAV21@$$QEAV21@@Z@4HA+13
	DD	04H
xdata	ENDS
;	COMDAT xdata
xdata	SEGMENT
$handlerMap$0$??$_Emplace_reallocate@V?$basic_string@_WU?$char_traits@_W@std@@V?$allocator@_W@2@@std@@@?$vector@V?$basic_string@_WU?$char_traits@_W@std@@V?$allocator@_W@2@@std@@V?$allocator@V?$basic_string@_WU?$char_traits@_W@std@@V?$allocator@_W@2@@std@@@2@@std@@QEAAPEAV?$basic_string@_WU?$char_traits@_W@std@@V?$allocator@_W@2@@1@QEAV21@$$QEAV21@@Z DD 00H
	DD	00H
	DD	00H
	DD	imagerel ?catch$3@?0???$_Emplace_reallocate@V?$basic_string@_WU?$char_traits@_W@std@@V?$allocator@_W@2@@std@@@?$vector@V?$basic_string@_WU?$char_traits@_W@std@@V?$allocator@_W@2@@std@@V?$allocator@V?$basic_string@_WU?$char_traits@_W@std@@V?$allocator@_W@2@@std@@@2@@std@@QEAAPEAV?$basic_string@_WU?$char_traits@_W@std@@V?$allocator@_W@2@@1@QEAV21@$$QEAV21@@Z@4HA
	DD	038H
xdata	ENDS
;	COMDAT xdata
xdata	SEGMENT
$tryMap$??$_Emplace_reallocate@V?$basic_string@_WU?$char_traits@_W@std@@V?$allocator@_W@2@@std@@@?$vector@V?$basic_string@_WU?$char_traits@_W@std@@V?$allocator@_W@2@@std@@V?$allocator@V?$basic_string@_WU?$char_traits@_W@std@@V?$allocator@_W@2@@std@@@2@@std@@QEAAPEAV?$basic_string@_WU?$char_traits@_W@std@@V?$allocator@_W@2@@1@QEAV21@$$QEAV21@@Z DD 00H
	DD	03H
	DD	04H
	DD	01H
	DD	imagerel $handlerMap$0$??$_Emplace_reallocate@V?$basic_string@_WU?$char_traits@_W@std@@V?$allocator@_W@2@@std@@@?$vector@V?$basic_string@_WU?$char_traits@_W@std@@V?$allocator@_W@2@@std@@V?$allocator@V?$basic_string@_WU?$char_traits@_W@std@@V?$allocator@_W@2@@std@@@2@@std@@QEAAPEAV?$basic_string@_WU?$char_traits@_W@std@@V?$allocator@_W@2@@1@QEAV21@$$QEAV21@@Z
xdata	ENDS
;	COMDAT xdata
xdata	SEGMENT
$stateUnwindMap$??$_Emplace_reallocate@V?$basic_string@_WU?$char_traits@_W@std@@V?$allocator@_W@2@@std@@@?$vector@V?$basic_string@_WU?$char_traits@_W@std@@V?$allocator@_W@2@@std@@V?$allocator@V?$basic_string@_WU?$char_traits@_W@std@@V?$allocator@_W@2@@std@@@2@@std@@QEAAPEAV?$basic_string@_WU?$char_traits@_W@std@@V?$allocator@_W@2@@1@QEAV21@$$QEAV21@@Z DD 0ffffffffH
	DD	00H
	DD	00H
	DD	imagerel ?dtor$0@?0???$_Emplace_reallocate@V?$basic_string@_WU?$char_traits@_W@std@@V?$allocator@_W@2@@std@@@?$vector@V?$basic_string@_WU?$char_traits@_W@std@@V?$allocator@_W@2@@std@@V?$allocator@V?$basic_string@_WU?$char_traits@_W@std@@V?$allocator@_W@2@@std@@@2@@std@@QEAAPEAV?$basic_string@_WU?$char_traits@_W@std@@V?$allocator@_W@2@@1@QEAV21@$$QEAV21@@Z@4HA
	DD	00H
	DD	imagerel ?dtor$1@?0???$_Emplace_reallocate@V?$basic_string@_WU?$char_traits@_W@std@@V?$allocator@_W@2@@std@@@?$vector@V?$basic_string@_WU?$char_traits@_W@std@@V?$allocator@_W@2@@std@@V?$allocator@V?$basic_string@_WU?$char_traits@_W@std@@V?$allocator@_W@2@@std@@@2@@std@@QEAAPEAV?$basic_string@_WU?$char_traits@_W@std@@V?$allocator@_W@2@@1@QEAV21@$$QEAV21@@Z@4HA
	DD	00H
	DD	imagerel ?dtor$2@?0???$_Emplace_reallocate@V?$basic_string@_WU?$char_traits@_W@std@@V?$allocator@_W@2@@std@@@?$vector@V?$basic_string@_WU?$char_traits@_W@std@@V?$allocator@_W@2@@std@@V?$allocator@V?$basic_string@_WU?$char_traits@_W@std@@V?$allocator@_W@2@@std@@@2@@std@@QEAAPEAV?$basic_string@_WU?$char_traits@_W@std@@V?$allocator@_W@2@@1@QEAV21@$$QEAV21@@Z@4HA
	DD	0ffffffffH
	DD	00H
xdata	ENDS
;	COMDAT CONST
CONST	SEGMENT
$cppxdata$??$_Emplace_reallocate@V?$basic_string@_WU?$char_traits@_W@std@@V?$allocator@_W@2@@std@@@?$vector@V?$basic_string@_WU?$char_traits@_W@std@@V?$allocator@_W@2@@std@@V?$allocator@V?$basic_string@_WU?$char_traits@_W@std@@V?$allocator@_W@2@@std@@@2@@std@@QEAAPEAV?$basic_string@_WU?$char_traits@_W@std@@V?$allocator@_W@2@@1@QEAV21@$$QEAV21@@Z DD 019930522H
	DD	05H
	DD	imagerel $stateUnwindMap$??$_Emplace_reallocate@V?$basic_string@_WU?$char_traits@_W@std@@V?$allocator@_W@2@@std@@@?$vector@V?$basic_string@_WU?$char_traits@_W@std@@V?$allocator@_W@2@@std@@V?$allocator@V?$basic_string@_WU?$char_traits@_W@std@@V?$allocator@_W@2@@std@@@2@@std@@QEAAPEAV?$basic_string@_WU?$char_traits@_W@std@@V?$allocator@_W@2@@1@QEAV21@$$QEAV21@@Z
	DD	01H
	DD	imagerel $tryMap$??$_Emplace_reallocate@V?$basic_string@_WU?$char_traits@_W@std@@V?$allocator@_W@2@@std@@@?$vector@V?$basic_string@_WU?$char_traits@_W@std@@V?$allocator@_W@2@@std@@V?$allocator@V?$basic_string@_WU?$char_traits@_W@std@@V?$allocator@_W@2@@std@@@2@@std@@QEAAPEAV?$basic_string@_WU?$char_traits@_W@std@@V?$allocator@_W@2@@1@QEAV21@$$QEAV21@@Z
	DD	0bH
	DD	imagerel $ip2state$??$_Emplace_reallocate@V?$basic_string@_WU?$char_traits@_W@std@@V?$allocator@_W@2@@std@@@?$vector@V?$basic_string@_WU?$char_traits@_W@std@@V?$allocator@_W@2@@std@@V?$allocator@V?$basic_string@_WU?$char_traits@_W@std@@V?$allocator@_W@2@@std@@@2@@std@@QEAAPEAV?$basic_string@_WU?$char_traits@_W@std@@V?$allocator@_W@2@@1@QEAV21@$$QEAV21@@Z
	DD	0c0H
	DD	00H
	DD	00H
CONST	ENDS
;	COMDAT xdata
xdata	SEGMENT
$unwind$??$_Emplace_reallocate@V?$basic_string@_WU?$char_traits@_W@std@@V?$allocator@_W@2@@std@@@?$vector@V?$basic_string@_WU?$char_traits@_W@std@@V?$allocator@_W@2@@std@@V?$allocator@V?$basic_string@_WU?$char_traits@_W@std@@V?$allocator@_W@2@@std@@@2@@std@@QEAAPEAV?$basic_string@_WU?$char_traits@_W@std@@V?$allocator@_W@2@@1@QEAV21@$$QEAV21@@Z DD 092319H
	DD	01a0117H
	DD	0e00ef010H
	DD	0c00ad00cH
	DD	060077008H
	DD	03006H
	DD	imagerel __CxxFrameHandler3
	DD	imagerel $cppxdata$??$_Emplace_reallocate@V?$basic_string@_WU?$char_traits@_W@std@@V?$allocator@_W@2@@std@@@?$vector@V?$basic_string@_WU?$char_traits@_W@std@@V?$allocator@_W@2@@std@@V?$allocator@V?$basic_string@_WU?$char_traits@_W@std@@V?$allocator@_W@2@@std@@@2@@std@@QEAAPEAV?$basic_string@_WU?$char_traits@_W@std@@V?$allocator@_W@2@@1@QEAV21@$$QEAV21@@Z
xdata	ENDS
;	COMDAT xdata
xdata	SEGMENT
$unwind$??$emplace_back@V?$basic_string@_WU?$char_traits@_W@std@@V?$allocator@_W@2@@std@@@?$vector@V?$basic_string@_WU?$char_traits@_W@std@@V?$allocator@_W@2@@std@@V?$allocator@V?$basic_string@_WU?$char_traits@_W@std@@V?$allocator@_W@2@@std@@@2@@std@@QEAAX$$QEAV?$basic_string@_WU?$char_traits@_W@std@@V?$allocator@_W@2@@1@@Z DD 010401H
	DD	04204H
xdata	ENDS
;	COMDAT xdata
xdata	SEGMENT
$ip2state$??_D?$basic_stringstream@_WU?$char_traits@_W@std@@V?$allocator@_W@2@@std@@QEAAXXZ DD imagerel ??_D?$basic_stringstream@_WU?$char_traits@_W@std@@V?$allocator@_W@2@@std@@QEAAXXZ
	DD	0ffffffffH
	DD	imagerel ??_D?$basic_stringstream@_WU?$char_traits@_W@std@@V?$allocator@_W@2@@std@@QEAAXXZ+77
	DD	00H
	DD	imagerel ??_D?$basic_stringstream@_WU?$char_traits@_W@std@@V?$allocator@_W@2@@std@@QEAAXXZ+87
	DD	0ffffffffH
xdata	ENDS
;	COMDAT xdata
xdata	SEGMENT
$stateUnwindMap$??_D?$basic_stringstream@_WU?$char_traits@_W@std@@V?$allocator@_W@2@@std@@QEAAXXZ DD 0ffffffffH
	DD	imagerel ?dtor$0@?0???_D?$basic_stringstream@_WU?$char_traits@_W@std@@V?$allocator@_W@2@@std@@QEAAXXZ@4HA
	DD	00H
	DD	imagerel ?dtor$1@?0???_D?$basic_stringstream@_WU?$char_traits@_W@std@@V?$allocator@_W@2@@std@@QEAAXXZ@4HA
	DD	0ffffffffH
	DD	imagerel ?dtor$4@?0???_D?$basic_stringstream@_WU?$char_traits@_W@std@@V?$allocator@_W@2@@std@@QEAAXXZ@4HA
xdata	ENDS
;	COMDAT CONST
CONST	SEGMENT
$cppxdata$??_D?$basic_stringstream@_WU?$char_traits@_W@std@@V?$allocator@_W@2@@std@@QEAAXXZ DD 019930522H
	DD	03H
	DD	imagerel $stateUnwindMap$??_D?$basic_stringstream@_WU?$char_traits@_W@std@@V?$allocator@_W@2@@std@@QEAAXXZ
	DD	00H
	DD	00H
	DD	03H
	DD	imagerel $ip2state$??_D?$basic_stringstream@_WU?$char_traits@_W@std@@V?$allocator@_W@2@@std@@QEAAXXZ
	DD	020H
	DD	00H
	DD	04H
CONST	ENDS
;	COMDAT xdata
xdata	SEGMENT
$unwind$??_D?$basic_stringstream@_WU?$char_traits@_W@std@@V?$allocator@_W@2@@std@@QEAAXXZ DD 020f19H
	DD	030025206H
	DD	imagerel __CxxFrameHandler3
	DD	imagerel $cppxdata$??_D?$basic_stringstream@_WU?$char_traits@_W@std@@V?$allocator@_W@2@@std@@QEAAXXZ
xdata	ENDS
;	COMDAT xdata
xdata	SEGMENT
$unwind$??_G?$basic_stringstream@_WU?$char_traits@_W@std@@V?$allocator@_W@2@@std@@UEAAPEAXI@Z DD 040a01H
	DD	06340aH
	DD	07006320aH
xdata	ENDS
;	COMDAT xdata
xdata	SEGMENT
$unwind$??_G?$basic_stringbuf@_WU?$char_traits@_W@std@@V?$allocator@_W@2@@std@@UEAAPEAXI@Z DD 040a01H
	DD	06340aH
	DD	07006320aH
xdata	ENDS
;	COMDAT xdata
xdata	SEGMENT
$unwind$?_Tidy@?$basic_stringbuf@_WU?$char_traits@_W@std@@V?$allocator@_W@2@@std@@IEAAXXZ DD 020601H
	DD	030023206H
xdata	ENDS
;	COMDAT xdata
xdata	SEGMENT
$chain$3$?_Init@?$basic_stringbuf@_WU?$char_traits@_W@std@@V?$allocator@_W@2@@std@@IEAAXPEB_W_KH@Z DD 021H
	DD	imagerel $LN26
	DD	imagerel $LN26+62
	DD	imagerel $unwind$?_Init@?$basic_stringbuf@_WU?$char_traits@_W@std@@V?$allocator@_W@2@@std@@IEAAXPEB_W_KH@Z
xdata	ENDS
;	COMDAT xdata
xdata	SEGMENT
$chain$2$?_Init@?$basic_stringbuf@_WU?$char_traits@_W@std@@V?$allocator@_W@2@@std@@IEAAXPEB_W_KH@Z DD 020021H
	DD	095400H
	DD	imagerel $LN26
	DD	imagerel $LN26+62
	DD	imagerel $unwind$?_Init@?$basic_stringbuf@_WU?$char_traits@_W@std@@V?$allocator@_W@2@@std@@IEAAXPEB_W_KH@Z
xdata	ENDS
;	COMDAT xdata
xdata	SEGMENT
$chain$1$?_Init@?$basic_stringbuf@_WU?$char_traits@_W@std@@V?$allocator@_W@2@@std@@IEAAXPEB_W_KH@Z DD 041121H
	DD	095411H
	DD	083405H
	DD	imagerel $LN26
	DD	imagerel $LN26+62
	DD	imagerel $unwind$?_Init@?$basic_stringbuf@_WU?$char_traits@_W@std@@V?$allocator@_W@2@@std@@IEAAXPEB_W_KH@Z
xdata	ENDS
;	COMDAT xdata
xdata	SEGMENT
$unwind$?_Init@?$basic_stringbuf@_WU?$char_traits@_W@std@@V?$allocator@_W@2@@std@@IEAAXPEB_W_KH@Z DD 060e01H
	DD	0a640eH
	DD	0f00a320eH
	DD	07006e008H
xdata	ENDS
;	COMDAT xdata
xdata	SEGMENT
$chain$1$?seekpos@?$basic_stringbuf@_WU?$char_traits@_W@std@@V?$allocator@_W@2@@std@@MEAA?AV?$fpos@U_Mbstatet@@@2@V32@H@Z DD 021H
	DD	imagerel $LN32
	DD	imagerel $LN32+115
	DD	imagerel $unwind$?seekpos@?$basic_stringbuf@_WU?$char_traits@_W@std@@V?$allocator@_W@2@@std@@MEAA?AV?$fpos@U_Mbstatet@@@2@V32@H@Z
xdata	ENDS
;	COMDAT xdata
xdata	SEGMENT
$chain$0$?seekpos@?$basic_stringbuf@_WU?$char_traits@_W@std@@V?$allocator@_W@2@@std@@MEAA?AV?$fpos@U_Mbstatet@@@2@V32@H@Z DD 020521H
	DD	027405H
	DD	imagerel $LN32
	DD	imagerel $LN32+115
	DD	imagerel $unwind$?seekpos@?$basic_stringbuf@_WU?$char_traits@_W@std@@V?$allocator@_W@2@@std@@MEAA?AV?$fpos@U_Mbstatet@@@2@V32@H@Z
xdata	ENDS
;	COMDAT xdata
xdata	SEGMENT
$unwind$?seekpos@?$basic_stringbuf@_WU?$char_traits@_W@std@@V?$allocator@_W@2@@std@@MEAA?AV?$fpos@U_Mbstatet@@@2@V32@H@Z DD 050c01H
	DD	04640cH
	DD	03340cH
	DD	0e00cH
xdata	ENDS
;	COMDAT xdata
xdata	SEGMENT
$unwind$?seekoff@?$basic_stringbuf@_WU?$char_traits@_W@std@@V?$allocator@_W@2@@std@@MEAA?AV?$fpos@U_Mbstatet@@@2@_JHH@Z DD 0a1801H
	DD	067418H
	DD	056418H
	DD	045418H
	DD	033418H
	DD	0e016f018H
xdata	ENDS
;	COMDAT xdata
xdata	SEGMENT
$chain$1$?overflow@?$basic_stringbuf@_WU?$char_traits@_W@std@@V?$allocator@_W@2@@std@@MEAAGG@Z DD 021H
	DD	imagerel $LN66
	DD	imagerel $LN66+204
	DD	imagerel $unwind$?overflow@?$basic_stringbuf@_WU?$char_traits@_W@std@@V?$allocator@_W@2@@std@@MEAAGG@Z
xdata	ENDS
;	COMDAT xdata
xdata	SEGMENT
$chain$0$?overflow@?$basic_stringbuf@_WU?$char_traits@_W@std@@V?$allocator@_W@2@@std@@MEAAGG@Z DD 020521H
	DD	0ae405H
	DD	imagerel $LN66
	DD	imagerel $LN66+204
	DD	imagerel $unwind$?overflow@?$basic_stringbuf@_WU?$char_traits@_W@std@@V?$allocator@_W@2@@std@@MEAAGG@Z
xdata	ENDS
;	COMDAT xdata
xdata	SEGMENT
$unwind$?overflow@?$basic_stringbuf@_WU?$char_traits@_W@std@@V?$allocator@_W@2@@std@@MEAAGG@Z DD 0a1601H
	DD	0c5416H
	DD	0b3416H
	DD	0f0123216H
	DD	0c00ed010H
	DD	0600b700cH
xdata	ENDS
;	COMDAT xdata
xdata	SEGMENT
$ip2state$??1?$basic_stringbuf@_WU?$char_traits@_W@std@@V?$allocator@_W@2@@std@@UEAA@XZ DD imagerel ??1?$basic_stringbuf@_WU?$char_traits@_W@std@@V?$allocator@_W@2@@std@@UEAA@XZ
	DD	0ffffffffH
	DD	imagerel ??1?$basic_stringbuf@_WU?$char_traits@_W@std@@V?$allocator@_W@2@@std@@UEAA@XZ+32
	DD	00H
	DD	imagerel ??1?$basic_stringbuf@_WU?$char_traits@_W@std@@V?$allocator@_W@2@@std@@UEAA@XZ+186
	DD	0ffffffffH
	DD	imagerel ??1?$basic_stringbuf@_WU?$char_traits@_W@std@@V?$allocator@_W@2@@std@@UEAA@XZ+201
	DD	00H
xdata	ENDS
;	COMDAT xdata
xdata	SEGMENT
$stateUnwindMap$??1?$basic_stringbuf@_WU?$char_traits@_W@std@@V?$allocator@_W@2@@std@@UEAA@XZ DD 0ffffffffH
	DD	imagerel ?dtor$0@?0???1?$basic_stringbuf@_WU?$char_traits@_W@std@@V?$allocator@_W@2@@std@@UEAA@XZ@4HA
xdata	ENDS
;	COMDAT CONST
CONST	SEGMENT
$cppxdata$??1?$basic_stringbuf@_WU?$char_traits@_W@std@@V?$allocator@_W@2@@std@@UEAA@XZ DD 019930522H
	DD	01H
	DD	imagerel $stateUnwindMap$??1?$basic_stringbuf@_WU?$char_traits@_W@std@@V?$allocator@_W@2@@std@@UEAA@XZ
	DD	00H
	DD	00H
	DD	04H
	DD	imagerel $ip2state$??1?$basic_stringbuf@_WU?$char_traits@_W@std@@V?$allocator@_W@2@@std@@UEAA@XZ
	DD	020H
	DD	00H
	DD	04H
CONST	ENDS
;	COMDAT xdata
xdata	SEGMENT
$unwind$??1?$basic_stringbuf@_WU?$char_traits@_W@std@@V?$allocator@_W@2@@std@@UEAA@XZ DD 021319H
	DD	03006520aH
	DD	imagerel __CxxFrameHandler3
	DD	imagerel $cppxdata$??1?$basic_stringbuf@_WU?$char_traits@_W@std@@V?$allocator@_W@2@@std@@UEAA@XZ
xdata	ENDS
;	COMDAT xdata
xdata	SEGMENT
$ip2state$??0?$basic_stringbuf@_WU?$char_traits@_W@std@@V?$allocator@_W@2@@std@@QEAA@AEBV?$basic_string@_WU?$char_traits@_W@std@@V?$allocator@_W@2@@1@H@Z DD imagerel ??0?$basic_stringbuf@_WU?$char_traits@_W@std@@V?$allocator@_W@2@@std@@QEAA@AEBV?$basic_string@_WU?$char_traits@_W@std@@V?$allocator@_W@2@@1@H@Z
	DD	0ffffffffH
	DD	imagerel ??0?$basic_stringbuf@_WU?$char_traits@_W@std@@V?$allocator@_W@2@@std@@QEAA@AEBV?$basic_string@_WU?$char_traits@_W@std@@V?$allocator@_W@2@@1@H@Z+54
	DD	00H
	DD	imagerel ??0?$basic_stringbuf@_WU?$char_traits@_W@std@@V?$allocator@_W@2@@std@@QEAA@AEBV?$basic_string@_WU?$char_traits@_W@std@@V?$allocator@_W@2@@1@H@Z+331
	DD	0ffffffffH
	DD	imagerel ??0?$basic_stringbuf@_WU?$char_traits@_W@std@@V?$allocator@_W@2@@std@@QEAA@AEBV?$basic_string@_WU?$char_traits@_W@std@@V?$allocator@_W@2@@1@H@Z+359
	DD	00H
xdata	ENDS
;	COMDAT xdata
xdata	SEGMENT
$stateUnwindMap$??0?$basic_stringbuf@_WU?$char_traits@_W@std@@V?$allocator@_W@2@@std@@QEAA@AEBV?$basic_string@_WU?$char_traits@_W@std@@V?$allocator@_W@2@@1@H@Z DD 0ffffffffH
	DD	imagerel ?dtor$0@?0???0?$basic_stringbuf@_WU?$char_traits@_W@std@@V?$allocator@_W@2@@std@@QEAA@AEBV?$basic_string@_WU?$char_traits@_W@std@@V?$allocator@_W@2@@1@H@Z@4HA
xdata	ENDS
;	COMDAT CONST
CONST	SEGMENT
$cppxdata$??0?$basic_stringbuf@_WU?$char_traits@_W@std@@V?$allocator@_W@2@@std@@QEAA@AEBV?$basic_string@_WU?$char_traits@_W@std@@V?$allocator@_W@2@@1@H@Z DD 019930522H
	DD	01H
	DD	imagerel $stateUnwindMap$??0?$basic_stringbuf@_WU?$char_traits@_W@std@@V?$allocator@_W@2@@std@@QEAA@AEBV?$basic_string@_WU?$char_traits@_W@std@@V?$allocator@_W@2@@1@H@Z
	DD	00H
	DD	00H
	DD	04H
	DD	imagerel $ip2state$??0?$basic_stringbuf@_WU?$char_traits@_W@std@@V?$allocator@_W@2@@std@@QEAA@AEBV?$basic_string@_WU?$char_traits@_W@std@@V?$allocator@_W@2@@1@H@Z
	DD	020H
	DD	00H
	DD	00H
CONST	ENDS
;	COMDAT xdata
xdata	SEGMENT
$unwind$??0?$basic_stringbuf@_WU?$char_traits@_W@std@@V?$allocator@_W@2@@std@@QEAA@AEBV?$basic_string@_WU?$char_traits@_W@std@@V?$allocator@_W@2@@1@H@Z DD 0a2611H
	DD	0d6426H
	DD	0c5421H
	DD	0b341cH
	DD	0f00a520eH
	DD	07006e008H
	DD	imagerel __CxxFrameHandler3
	DD	imagerel $cppxdata$??0?$basic_stringbuf@_WU?$char_traits@_W@std@@V?$allocator@_W@2@@std@@QEAA@AEBV?$basic_string@_WU?$char_traits@_W@std@@V?$allocator@_W@2@@1@H@Z
xdata	ENDS
;	COMDAT xdata
xdata	SEGMENT
$ip2state$??1?$basic_stringstream@_WU?$char_traits@_W@std@@V?$allocator@_W@2@@std@@UEAA@XZ DD imagerel ??1?$basic_stringstream@_WU?$char_traits@_W@std@@V?$allocator@_W@2@@std@@UEAA@XZ
	DD	0ffffffffH
	DD	imagerel ??1?$basic_stringstream@_WU?$char_traits@_W@std@@V?$allocator@_W@2@@std@@UEAA@XZ+74
	DD	00H
	DD	imagerel ??1?$basic_stringstream@_WU?$char_traits@_W@std@@V?$allocator@_W@2@@std@@UEAA@XZ+84
	DD	0ffffffffH
xdata	ENDS
;	COMDAT xdata
xdata	SEGMENT
$stateUnwindMap$??1?$basic_stringstream@_WU?$char_traits@_W@std@@V?$allocator@_W@2@@std@@UEAA@XZ DD 0ffffffffH
	DD	imagerel ?dtor$0@?0???1?$basic_stringstream@_WU?$char_traits@_W@std@@V?$allocator@_W@2@@std@@UEAA@XZ@4HA
	DD	00H
	DD	imagerel ?dtor$1@?0???1?$basic_stringstream@_WU?$char_traits@_W@std@@V?$allocator@_W@2@@std@@UEAA@XZ@4HA
xdata	ENDS
;	COMDAT CONST
CONST	SEGMENT
$cppxdata$??1?$basic_stringstream@_WU?$char_traits@_W@std@@V?$allocator@_W@2@@std@@UEAA@XZ DD 019930522H
	DD	02H
	DD	imagerel $stateUnwindMap$??1?$basic_stringstream@_WU?$char_traits@_W@std@@V?$allocator@_W@2@@std@@UEAA@XZ
	DD	00H
	DD	00H
	DD	03H
	DD	imagerel $ip2state$??1?$basic_stringstream@_WU?$char_traits@_W@std@@V?$allocator@_W@2@@std@@UEAA@XZ
	DD	020H
	DD	00H
	DD	04H
CONST	ENDS
;	COMDAT xdata
xdata	SEGMENT
$unwind$??1?$basic_stringstream@_WU?$char_traits@_W@std@@V?$allocator@_W@2@@std@@UEAA@XZ DD 021311H
	DD	03006520aH
	DD	imagerel __CxxFrameHandler3
	DD	imagerel $cppxdata$??1?$basic_stringstream@_WU?$char_traits@_W@std@@V?$allocator@_W@2@@std@@UEAA@XZ
xdata	ENDS
;	COMDAT xdata
xdata	SEGMENT
$unwind$?dtor$0@?0???0?$basic_stringstream@_WU?$char_traits@_W@std@@V?$allocator@_W@2@@std@@QEAA@AEBV?$basic_string@_WU?$char_traits@_W@std@@V?$allocator@_W@2@@1@H@Z@4HA DD 020601H
	DD	050023206H
xdata	ENDS
;	COMDAT xdata
xdata	SEGMENT
$ip2state$??0?$basic_stringstream@_WU?$char_traits@_W@std@@V?$allocator@_W@2@@std@@QEAA@AEBV?$basic_string@_WU?$char_traits@_W@std@@V?$allocator@_W@2@@1@H@Z DD imagerel ??0?$basic_stringstream@_WU?$char_traits@_W@std@@V?$allocator@_W@2@@std@@QEAA@AEBV?$basic_string@_WU?$char_traits@_W@std@@V?$allocator@_W@2@@1@H@Z
	DD	0ffffffffH
	DD	imagerel ??0?$basic_stringstream@_WU?$char_traits@_W@std@@V?$allocator@_W@2@@std@@QEAA@AEBV?$basic_string@_WU?$char_traits@_W@std@@V?$allocator@_W@2@@1@H@Z+99
	DD	00H
	DD	imagerel ??0?$basic_stringstream@_WU?$char_traits@_W@std@@V?$allocator@_W@2@@std@@QEAA@AEBV?$basic_string@_WU?$char_traits@_W@std@@V?$allocator@_W@2@@1@H@Z+109
	DD	01H
	DD	imagerel ??0?$basic_stringstream@_WU?$char_traits@_W@std@@V?$allocator@_W@2@@std@@QEAA@AEBV?$basic_string@_WU?$char_traits@_W@std@@V?$allocator@_W@2@@1@H@Z+131
	DD	02H
	DD	imagerel ??0?$basic_stringstream@_WU?$char_traits@_W@std@@V?$allocator@_W@2@@std@@QEAA@AEBV?$basic_string@_WU?$char_traits@_W@std@@V?$allocator@_W@2@@1@H@Z+184
	DD	0ffffffffH
xdata	ENDS
;	COMDAT xdata
xdata	SEGMENT
$stateUnwindMap$??0?$basic_stringstream@_WU?$char_traits@_W@std@@V?$allocator@_W@2@@std@@QEAA@AEBV?$basic_string@_WU?$char_traits@_W@std@@V?$allocator@_W@2@@1@H@Z DD 0ffffffffH
	DD	imagerel ?dtor$3@?0???0?$basic_stringstream@_WU?$char_traits@_W@std@@V?$allocator@_W@2@@std@@QEAA@AEBV?$basic_string@_WU?$char_traits@_W@std@@V?$allocator@_W@2@@1@H@Z@4HA
	DD	0ffffffffH
	DD	imagerel ?dtor$0@?0???0?$basic_stringstream@_WU?$char_traits@_W@std@@V?$allocator@_W@2@@std@@QEAA@AEBV?$basic_string@_WU?$char_traits@_W@std@@V?$allocator@_W@2@@1@H@Z@4HA
	DD	01H
	DD	imagerel ?dtor$1@?0???0?$basic_stringstream@_WU?$char_traits@_W@std@@V?$allocator@_W@2@@std@@QEAA@AEBV?$basic_string@_WU?$char_traits@_W@std@@V?$allocator@_W@2@@1@H@Z@4HA
	DD	02H
	DD	imagerel ?dtor$2@?0???0?$basic_stringstream@_WU?$char_traits@_W@std@@V?$allocator@_W@2@@std@@QEAA@AEBV?$basic_string@_WU?$char_traits@_W@std@@V?$allocator@_W@2@@1@H@Z@4HA
xdata	ENDS
;	COMDAT CONST
CONST	SEGMENT
$cppxdata$??0?$basic_stringstream@_WU?$char_traits@_W@std@@V?$allocator@_W@2@@std@@QEAA@AEBV?$basic_string@_WU?$char_traits@_W@std@@V?$allocator@_W@2@@1@H@Z DD 019930522H
	DD	04H
	DD	imagerel $stateUnwindMap$??0?$basic_stringstream@_WU?$char_traits@_W@std@@V?$allocator@_W@2@@std@@QEAA@AEBV?$basic_string@_WU?$char_traits@_W@std@@V?$allocator@_W@2@@1@H@Z
	DD	00H
	DD	00H
	DD	05H
	DD	imagerel $ip2state$??0?$basic_stringstream@_WU?$char_traits@_W@std@@V?$allocator@_W@2@@std@@QEAA@AEBV?$basic_string@_WU?$char_traits@_W@std@@V?$allocator@_W@2@@1@H@Z
	DD	028H
	DD	00H
	DD	00H
CONST	ENDS
;	COMDAT xdata
xdata	SEGMENT
$unwind$??0?$basic_stringstream@_WU?$char_traits@_W@std@@V?$allocator@_W@2@@std@@QEAA@AEBV?$basic_string@_WU?$char_traits@_W@std@@V?$allocator@_W@2@@1@H@Z DD 082211H
	DD	0d6422H
	DD	0c541dH
	DD	0b3418H
	DD	07006720aH
	DD	imagerel __CxxFrameHandler3
	DD	imagerel $cppxdata$??0?$basic_stringstream@_WU?$char_traits@_W@std@@V?$allocator@_W@2@@std@@QEAA@AEBV?$basic_string@_WU?$char_traits@_W@std@@V?$allocator@_W@2@@1@H@Z
xdata	ENDS
;	COMDAT xdata
xdata	SEGMENT
$unwind$?dtor$17@?0??parsePattern@@YAHV?$basic_string@_WU?$char_traits@_W@std@@V?$allocator@_W@2@@std@@PEAVTilePattern@@@Z@4HA DD 020601H
	DD	050023206H
xdata	ENDS
;	COMDAT xdata
xdata	SEGMENT
$unwind$?dtor$13@?0??parsePattern@@YAHV?$basic_string@_WU?$char_traits@_W@std@@V?$allocator@_W@2@@std@@PEAVTilePattern@@@Z@4HA DD 020601H
	DD	050023206H
xdata	ENDS
;	COMDAT xdata
xdata	SEGMENT
$unwind$?dtor$10@?0??parsePattern@@YAHV?$basic_string@_WU?$char_traits@_W@std@@V?$allocator@_W@2@@std@@PEAVTilePattern@@@Z@4HA DD 020601H
	DD	050023206H
xdata	ENDS
;	COMDAT xdata
xdata	SEGMENT
$ip2state$?parsePattern@@YAHV?$basic_string@_WU?$char_traits@_W@std@@V?$allocator@_W@2@@std@@PEAVTilePattern@@@Z DD imagerel ?parsePattern@@YAHV?$basic_string@_WU?$char_traits@_W@std@@V?$allocator@_W@2@@std@@PEAVTilePattern@@@Z
	DD	0ffffffffH
	DD	imagerel ?parsePattern@@YAHV?$basic_string@_WU?$char_traits@_W@std@@V?$allocator@_W@2@@std@@PEAVTilePattern@@@Z+57
	DD	00H
	DD	imagerel ?parsePattern@@YAHV?$basic_string@_WU?$char_traits@_W@std@@V?$allocator@_W@2@@std@@PEAVTilePattern@@@Z+151
	DD	02H
	DD	imagerel ?parsePattern@@YAHV?$basic_string@_WU?$char_traits@_W@std@@V?$allocator@_W@2@@std@@PEAVTilePattern@@@Z+201
	DD	03H
	DD	imagerel ?parsePattern@@YAHV?$basic_string@_WU?$char_traits@_W@std@@V?$allocator@_W@2@@std@@PEAVTilePattern@@@Z+220
	DD	02H
	DD	imagerel ?parsePattern@@YAHV?$basic_string@_WU?$char_traits@_W@std@@V?$allocator@_W@2@@std@@PEAVTilePattern@@@Z+367
	DD	04H
	DD	imagerel ?parsePattern@@YAHV?$basic_string@_WU?$char_traits@_W@std@@V?$allocator@_W@2@@std@@PEAVTilePattern@@@Z+421
	DD	05H
	DD	imagerel ?parsePattern@@YAHV?$basic_string@_WU?$char_traits@_W@std@@V?$allocator@_W@2@@std@@PEAVTilePattern@@@Z+449
	DD	04H
	DD	imagerel ?parsePattern@@YAHV?$basic_string@_WU?$char_traits@_W@std@@V?$allocator@_W@2@@std@@PEAVTilePattern@@@Z+604
	DD	06H
	DD	imagerel ?parsePattern@@YAHV?$basic_string@_WU?$char_traits@_W@std@@V?$allocator@_W@2@@std@@PEAVTilePattern@@@Z+637
	DD	07H
	DD	imagerel ?parsePattern@@YAHV?$basic_string@_WU?$char_traits@_W@std@@V?$allocator@_W@2@@std@@PEAVTilePattern@@@Z+704
	DD	09H
	DD	imagerel ?parsePattern@@YAHV?$basic_string@_WU?$char_traits@_W@std@@V?$allocator@_W@2@@std@@PEAVTilePattern@@@Z+771
	DD	0aH
	DD	imagerel ?parsePattern@@YAHV?$basic_string@_WU?$char_traits@_W@std@@V?$allocator@_W@2@@std@@PEAVTilePattern@@@Z+804
	DD	0bH
	DD	imagerel ?parsePattern@@YAHV?$basic_string@_WU?$char_traits@_W@std@@V?$allocator@_W@2@@std@@PEAVTilePattern@@@Z+872
	DD	0dH
	DD	imagerel ?parsePattern@@YAHV?$basic_string@_WU?$char_traits@_W@std@@V?$allocator@_W@2@@std@@PEAVTilePattern@@@Z+914
	DD	0eH
	DD	imagerel ?parsePattern@@YAHV?$basic_string@_WU?$char_traits@_W@std@@V?$allocator@_W@2@@std@@PEAVTilePattern@@@Z+920
	DD	0fH
	DD	imagerel ?parsePattern@@YAHV?$basic_string@_WU?$char_traits@_W@std@@V?$allocator@_W@2@@std@@PEAVTilePattern@@@Z+1009
	DD	010H
	DD	imagerel ?parsePattern@@YAHV?$basic_string@_WU?$char_traits@_W@std@@V?$allocator@_W@2@@std@@PEAVTilePattern@@@Z+1036
	DD	011H
	DD	imagerel ?parsePattern@@YAHV?$basic_string@_WU?$char_traits@_W@std@@V?$allocator@_W@2@@std@@PEAVTilePattern@@@Z+1088
	DD	013H
	DD	imagerel ?parsePattern@@YAHV?$basic_string@_WU?$char_traits@_W@std@@V?$allocator@_W@2@@std@@PEAVTilePattern@@@Z+1165
	DD	0fH
	DD	imagerel ?parsePattern@@YAHV?$basic_string@_WU?$char_traits@_W@std@@V?$allocator@_W@2@@std@@PEAVTilePattern@@@Z+1207
	DD	014H
	DD	imagerel ?parsePattern@@YAHV?$basic_string@_WU?$char_traits@_W@std@@V?$allocator@_W@2@@std@@PEAVTilePattern@@@Z+1217
	DD	0fH
	DD	imagerel ?parsePattern@@YAHV?$basic_string@_WU?$char_traits@_W@std@@V?$allocator@_W@2@@std@@PEAVTilePattern@@@Z+1444
	DD	0dH
	DD	imagerel ?parsePattern@@YAHV?$basic_string@_WU?$char_traits@_W@std@@V?$allocator@_W@2@@std@@PEAVTilePattern@@@Z+1454
	DD	09H
	DD	imagerel ?parsePattern@@YAHV?$basic_string@_WU?$char_traits@_W@std@@V?$allocator@_W@2@@std@@PEAVTilePattern@@@Z+1518
	DD	019H
	DD	imagerel ?parsePattern@@YAHV?$basic_string@_WU?$char_traits@_W@std@@V?$allocator@_W@2@@std@@PEAVTilePattern@@@Z+1531
	DD	09H
	DD	imagerel ?parsePattern@@YAHV?$basic_string@_WU?$char_traits@_W@std@@V?$allocator@_W@2@@std@@PEAVTilePattern@@@Z+1600
	DD	04H
	DD	imagerel ?parsePattern@@YAHV?$basic_string@_WU?$char_traits@_W@std@@V?$allocator@_W@2@@std@@PEAVTilePattern@@@Z+1657
	DD	01cH
	DD	imagerel ?parsePattern@@YAHV?$basic_string@_WU?$char_traits@_W@std@@V?$allocator@_W@2@@std@@PEAVTilePattern@@@Z+1670
	DD	04H
	DD	imagerel ?parsePattern@@YAHV?$basic_string@_WU?$char_traits@_W@std@@V?$allocator@_W@2@@std@@PEAVTilePattern@@@Z+1739
	DD	02H
	DD	imagerel ?parsePattern@@YAHV?$basic_string@_WU?$char_traits@_W@std@@V?$allocator@_W@2@@std@@PEAVTilePattern@@@Z+1909
	DD	00H
	DD	imagerel ?parsePattern@@YAHV?$basic_string@_WU?$char_traits@_W@std@@V?$allocator@_W@2@@std@@PEAVTilePattern@@@Z+2018
	DD	04H
	DD	imagerel ?parsePattern@@YAHV?$basic_string@_WU?$char_traits@_W@std@@V?$allocator@_W@2@@std@@PEAVTilePattern@@@Z+2025
	DD	02H
	DD	imagerel ?parsePattern@@YAHV?$basic_string@_WU?$char_traits@_W@std@@V?$allocator@_W@2@@std@@PEAVTilePattern@@@Z+2149
	DD	00H
	DD	imagerel ?parsePattern@@YAHV?$basic_string@_WU?$char_traits@_W@std@@V?$allocator@_W@2@@std@@PEAVTilePattern@@@Z+2273
	DD	0ffffffffH
	DD	imagerel ?parsePattern@@YAHV?$basic_string@_WU?$char_traits@_W@std@@V?$allocator@_W@2@@std@@PEAVTilePattern@@@Z+2289
	DD	00H
	DD	imagerel ?parsePattern@@YAHV?$basic_string@_WU?$char_traits@_W@std@@V?$allocator@_W@2@@std@@PEAVTilePattern@@@Z+2312
	DD	0ffffffffH
xdata	ENDS
;	COMDAT xdata
xdata	SEGMENT
$stateUnwindMap$?parsePattern@@YAHV?$basic_string@_WU?$char_traits@_W@std@@V?$allocator@_W@2@@std@@PEAVTilePattern@@@Z DD 0ffffffffH
	DD	imagerel ?dtor$0@?0??parsePattern@@YAHV?$basic_string@_WU?$char_traits@_W@std@@V?$allocator@_W@2@@std@@PEAVTilePattern@@@Z@4HA
	DD	00H
	DD	imagerel ?dtor$9@?0??parsePattern@@YAHV?$basic_string@_WU?$char_traits@_W@std@@V?$allocator@_W@2@@std@@PEAVTilePattern@@@Z@4HA
	DD	00H
	DD	imagerel ?dtor$1@?0??parsePattern@@YAHV?$basic_string@_WU?$char_traits@_W@std@@V?$allocator@_W@2@@std@@PEAVTilePattern@@@Z@4HA
	DD	02H
	DD	imagerel ?dtor$2@?0??parsePattern@@YAHV?$basic_string@_WU?$char_traits@_W@std@@V?$allocator@_W@2@@std@@PEAVTilePattern@@@Z@4HA
	DD	02H
	DD	imagerel ?dtor$3@?0??parsePattern@@YAHV?$basic_string@_WU?$char_traits@_W@std@@V?$allocator@_W@2@@std@@PEAVTilePattern@@@Z@4HA
	DD	04H
	DD	imagerel ?dtor$4@?0??parsePattern@@YAHV?$basic_string@_WU?$char_traits@_W@std@@V?$allocator@_W@2@@std@@PEAVTilePattern@@@Z@4HA
	DD	04H
	DD	imagerel ?dtor$10@?0??parsePattern@@YAHV?$basic_string@_WU?$char_traits@_W@std@@V?$allocator@_W@2@@std@@PEAVTilePattern@@@Z@4HA
	DD	06H
	DD	imagerel ?dtor$11@?0??parsePattern@@YAHV?$basic_string@_WU?$char_traits@_W@std@@V?$allocator@_W@2@@std@@PEAVTilePattern@@@Z@4HA
	DD	07H
	DD	imagerel ?dtor$12@?0??parsePattern@@YAHV?$basic_string@_WU?$char_traits@_W@std@@V?$allocator@_W@2@@std@@PEAVTilePattern@@@Z@4HA
	DD	04H
	DD	imagerel ?dtor$5@?0??parsePattern@@YAHV?$basic_string@_WU?$char_traits@_W@std@@V?$allocator@_W@2@@std@@PEAVTilePattern@@@Z@4HA
	DD	09H
	DD	imagerel ?dtor$13@?0??parsePattern@@YAHV?$basic_string@_WU?$char_traits@_W@std@@V?$allocator@_W@2@@std@@PEAVTilePattern@@@Z@4HA
	DD	0aH
	DD	imagerel ?dtor$14@?0??parsePattern@@YAHV?$basic_string@_WU?$char_traits@_W@std@@V?$allocator@_W@2@@std@@PEAVTilePattern@@@Z@4HA
	DD	0bH
	DD	imagerel ?dtor$15@?0??parsePattern@@YAHV?$basic_string@_WU?$char_traits@_W@std@@V?$allocator@_W@2@@std@@PEAVTilePattern@@@Z@4HA
	DD	09H
	DD	imagerel ?dtor$6@?0??parsePattern@@YAHV?$basic_string@_WU?$char_traits@_W@std@@V?$allocator@_W@2@@std@@PEAVTilePattern@@@Z@4HA
	DD	0dH
	DD	imagerel ?dtor$16@?0??parsePattern@@YAHV?$basic_string@_WU?$char_traits@_W@std@@V?$allocator@_W@2@@std@@PEAVTilePattern@@@Z@4HA
	DD	0dH
	DD	imagerel ?dtor$7@?0??parsePattern@@YAHV?$basic_string@_WU?$char_traits@_W@std@@V?$allocator@_W@2@@std@@PEAVTilePattern@@@Z@4HA
	DD	0fH
	DD	imagerel ?dtor$17@?0??parsePattern@@YAHV?$basic_string@_WU?$char_traits@_W@std@@V?$allocator@_W@2@@std@@PEAVTilePattern@@@Z@4HA
	DD	010H
	DD	imagerel ?dtor$18@?0??parsePattern@@YAHV?$basic_string@_WU?$char_traits@_W@std@@V?$allocator@_W@2@@std@@PEAVTilePattern@@@Z@4HA
	DD	011H
	DD	imagerel ?dtor$19@?0??parsePattern@@YAHV?$basic_string@_WU?$char_traits@_W@std@@V?$allocator@_W@2@@std@@PEAVTilePattern@@@Z@4HA
	DD	0fH
	DD	imagerel ?dtor$8@?0??parsePattern@@YAHV?$basic_string@_WU?$char_traits@_W@std@@V?$allocator@_W@2@@std@@PEAVTilePattern@@@Z@4HA
	DD	0fH
	DD	imagerel ?dtor$20@?0??parsePattern@@YAHV?$basic_string@_WU?$char_traits@_W@std@@V?$allocator@_W@2@@std@@PEAVTilePattern@@@Z@4HA
	DD	014H
	DD	imagerel ?dtor$21@?0??parsePattern@@YAHV?$basic_string@_WU?$char_traits@_W@std@@V?$allocator@_W@2@@std@@PEAVTilePattern@@@Z@4HA
	DD	0fH
	DD	imagerel ?dtor$22@?0??parsePattern@@YAHV?$basic_string@_WU?$char_traits@_W@std@@V?$allocator@_W@2@@std@@PEAVTilePattern@@@Z@4HA
	DD	0fH
	DD	imagerel ?dtor$23@?0??parsePattern@@YAHV?$basic_string@_WU?$char_traits@_W@std@@V?$allocator@_W@2@@std@@PEAVTilePattern@@@Z@4HA
	DD	0dH
	DD	imagerel ?dtor$24@?0??parsePattern@@YAHV?$basic_string@_WU?$char_traits@_W@std@@V?$allocator@_W@2@@std@@PEAVTilePattern@@@Z@4HA
	DD	09H
	DD	imagerel ?dtor$25@?0??parsePattern@@YAHV?$basic_string@_WU?$char_traits@_W@std@@V?$allocator@_W@2@@std@@PEAVTilePattern@@@Z@4HA
	DD	019H
	DD	imagerel ?dtor$26@?0??parsePattern@@YAHV?$basic_string@_WU?$char_traits@_W@std@@V?$allocator@_W@2@@std@@PEAVTilePattern@@@Z@4HA
	DD	09H
	DD	imagerel ?dtor$27@?0??parsePattern@@YAHV?$basic_string@_WU?$char_traits@_W@std@@V?$allocator@_W@2@@std@@PEAVTilePattern@@@Z@4HA
	DD	04H
	DD	imagerel ?dtor$28@?0??parsePattern@@YAHV?$basic_string@_WU?$char_traits@_W@std@@V?$allocator@_W@2@@std@@PEAVTilePattern@@@Z@4HA
	DD	01cH
	DD	imagerel ?dtor$29@?0??parsePattern@@YAHV?$basic_string@_WU?$char_traits@_W@std@@V?$allocator@_W@2@@std@@PEAVTilePattern@@@Z@4HA
	DD	04H
	DD	imagerel ?dtor$30@?0??parsePattern@@YAHV?$basic_string@_WU?$char_traits@_W@std@@V?$allocator@_W@2@@std@@PEAVTilePattern@@@Z@4HA
xdata	ENDS
;	COMDAT CONST
CONST	SEGMENT
$cppxdata$?parsePattern@@YAHV?$basic_string@_WU?$char_traits@_W@std@@V?$allocator@_W@2@@std@@PEAVTilePattern@@@Z DD 019930522H
	DD	01fH
	DD	imagerel $stateUnwindMap$?parsePattern@@YAHV?$basic_string@_WU?$char_traits@_W@std@@V?$allocator@_W@2@@std@@PEAVTilePattern@@@Z
	DD	00H
	DD	00H
	DD	025H
	DD	imagerel $ip2state$?parsePattern@@YAHV?$basic_string@_WU?$char_traits@_W@std@@V?$allocator@_W@2@@std@@PEAVTilePattern@@@Z
	DD	0b8H
	DD	00H
	DD	00H
CONST	ENDS
;	COMDAT xdata
xdata	SEGMENT
$unwind$?parsePattern@@YAHV?$basic_string@_WU?$char_traits@_W@std@@V?$allocator@_W@2@@std@@PEAVTilePattern@@@Z DD 0a2811H
	DD	0790120H
	DD	0e00ff011H
	DD	0c00bd00dH
	DD	060087009H
	DD	050063007H
	DD	imagerel __CxxFrameHandler3
	DD	imagerel $cppxdata$?parsePattern@@YAHV?$basic_string@_WU?$char_traits@_W@std@@V?$allocator@_W@2@@std@@PEAVTilePattern@@@Z
xdata	ENDS
;	COMDAT xdata
xdata	SEGMENT
$unwind$?_Xlength@?$vector@V?$basic_string@_WU?$char_traits@_W@std@@V?$allocator@_W@2@@std@@V?$allocator@V?$basic_string@_WU?$char_traits@_W@std@@V?$allocator@_W@2@@std@@@2@@std@@CAXXZ DD 010401H
	DD	04204H
xdata	ENDS
;	COMDAT xdata
xdata	SEGMENT
$chain$1$?_Tidy@?$vector@V?$basic_string@_WU?$char_traits@_W@std@@V?$allocator@_W@2@@std@@V?$allocator@V?$basic_string@_WU?$char_traits@_W@std@@V?$allocator@_W@2@@std@@@2@@std@@AEAAXXZ DD 021H
	DD	imagerel $LN127
	DD	imagerel $LN127+21
	DD	imagerel $unwind$?_Tidy@?$vector@V?$basic_string@_WU?$char_traits@_W@std@@V?$allocator@_W@2@@std@@V?$allocator@V?$basic_string@_WU?$char_traits@_W@std@@V?$allocator@_W@2@@std@@@2@@std@@AEAAXXZ
xdata	ENDS
;	COMDAT xdata
xdata	SEGMENT
$chain$0$?_Tidy@?$vector@V?$basic_string@_WU?$char_traits@_W@std@@V?$allocator@_W@2@@std@@V?$allocator@V?$basic_string@_WU?$char_traits@_W@std@@V?$allocator@_W@2@@std@@@2@@std@@AEAAXXZ DD 020521H
	DD	066405H
	DD	imagerel $LN127
	DD	imagerel $LN127+21
	DD	imagerel $unwind$?_Tidy@?$vector@V?$basic_string@_WU?$char_traits@_W@std@@V?$allocator@_W@2@@std@@V?$allocator@V?$basic_string@_WU?$char_traits@_W@std@@V?$allocator@_W@2@@std@@@2@@std@@AEAAXXZ
xdata	ENDS
;	COMDAT xdata
xdata	SEGMENT
$unwind$?_Tidy@?$vector@V?$basic_string@_WU?$char_traits@_W@std@@V?$allocator@_W@2@@std@@V?$allocator@V?$basic_string@_WU?$char_traits@_W@std@@V?$allocator@_W@2@@std@@@2@@std@@AEAAXXZ DD 040a01H
	DD	07340aH
	DD	07006320aH
xdata	ENDS
;	COMDAT xdata
xdata	SEGMENT
$chain$1$?_Change_array@?$vector@V?$basic_string@_WU?$char_traits@_W@std@@V?$allocator@_W@2@@std@@V?$allocator@V?$basic_string@_WU?$char_traits@_W@std@@V?$allocator@_W@2@@std@@@2@@std@@AEAAXQEAV?$basic_string@_WU?$char_traits@_W@std@@V?$allocator@_W@2@@2@_K1@Z DD 021H
	DD	imagerel $LN127
	DD	imagerel $LN127+39
	DD	imagerel $unwind$?_Change_array@?$vector@V?$basic_string@_WU?$char_traits@_W@std@@V?$allocator@_W@2@@std@@V?$allocator@V?$basic_string@_WU?$char_traits@_W@std@@V?$allocator@_W@2@@std@@@2@@std@@AEAAXQEAV?$basic_string@_WU?$char_traits@_W@std@@V?$allocator@_W@2@@2@_K1@Z
xdata	ENDS
;	COMDAT xdata
xdata	SEGMENT
$chain$0$?_Change_array@?$vector@V?$basic_string@_WU?$char_traits@_W@std@@V?$allocator@_W@2@@std@@V?$allocator@V?$basic_string@_WU?$char_traits@_W@std@@V?$allocator@_W@2@@std@@@2@@std@@AEAAXQEAV?$basic_string@_WU?$char_traits@_W@std@@V?$allocator@_W@2@@2@_K1@Z DD 020521H
	DD	087405H
	DD	imagerel $LN127
	DD	imagerel $LN127+39
	DD	imagerel $unwind$?_Change_array@?$vector@V?$basic_string@_WU?$char_traits@_W@std@@V?$allocator@_W@2@@std@@V?$allocator@V?$basic_string@_WU?$char_traits@_W@std@@V?$allocator@_W@2@@std@@@2@@std@@AEAAXQEAV?$basic_string@_WU?$char_traits@_W@std@@V?$allocator@_W@2@@2@_K1@Z
xdata	ENDS
;	COMDAT xdata
xdata	SEGMENT
$unwind$?_Change_array@?$vector@V?$basic_string@_WU?$char_traits@_W@std@@V?$allocator@_W@2@@std@@V?$allocator@V?$basic_string@_WU?$char_traits@_W@std@@V?$allocator@_W@2@@std@@@2@@std@@AEAAXQEAV?$basic_string@_WU?$char_traits@_W@std@@V?$allocator@_W@2@@2@_K1@Z DD 081301H
	DD	0a5413H
	DD	093413H
	DD	0f00f3213H
	DD	0600be00dH
xdata	ENDS
;	COMDAT xdata
xdata	SEGMENT
$unwind$?_Destroy@?$vector@V?$basic_string@_WU?$char_traits@_W@std@@V?$allocator@_W@2@@std@@V?$allocator@V?$basic_string@_WU?$char_traits@_W@std@@V?$allocator@_W@2@@std@@@2@@std@@AEAAXPEAV?$basic_string@_WU?$char_traits@_W@std@@V?$allocator@_W@2@@2@0@Z DD 040f01H
	DD	06340fH
	DD	0700b320fH
xdata	ENDS
;	COMDAT xdata
xdata	SEGMENT
$ip2state$?_Umove_if_noexcept@?$vector@V?$basic_string@_WU?$char_traits@_W@std@@V?$allocator@_W@2@@std@@V?$allocator@V?$basic_string@_WU?$char_traits@_W@std@@V?$allocator@_W@2@@std@@@2@@std@@AEAAXPEAV?$basic_string@_WU?$char_traits@_W@std@@V?$allocator@_W@2@@2@00@Z DD imagerel ?_Umove_if_noexcept@?$vector@V?$basic_string@_WU?$char_traits@_W@std@@V?$allocator@_W@2@@std@@V?$allocator@V?$basic_string@_WU?$char_traits@_W@std@@V?$allocator@_W@2@@std@@@2@@std@@AEAAXPEAV?$basic_string@_WU?$char_traits@_W@std@@V?$allocator@_W@2@@2@00@Z
	DD	0ffffffffH
	DD	imagerel ?_Umove_if_noexcept@?$vector@V?$basic_string@_WU?$char_traits@_W@std@@V?$allocator@_W@2@@std@@V?$allocator@V?$basic_string@_WU?$char_traits@_W@std@@V?$allocator@_W@2@@std@@@2@@std@@AEAAXPEAV?$basic_string@_WU?$char_traits@_W@std@@V?$allocator@_W@2@@2@00@Z+27
	DD	00H
	DD	imagerel ?_Umove_if_noexcept@?$vector@V?$basic_string@_WU?$char_traits@_W@std@@V?$allocator@_W@2@@std@@V?$allocator@V?$basic_string@_WU?$char_traits@_W@std@@V?$allocator@_W@2@@std@@@2@@std@@AEAAXPEAV?$basic_string@_WU?$char_traits@_W@std@@V?$allocator@_W@2@@2@00@Z+89
	DD	0ffffffffH
xdata	ENDS
;	COMDAT xdata
xdata	SEGMENT
$stateUnwindMap$?_Umove_if_noexcept@?$vector@V?$basic_string@_WU?$char_traits@_W@std@@V?$allocator@_W@2@@std@@V?$allocator@V?$basic_string@_WU?$char_traits@_W@std@@V?$allocator@_W@2@@std@@@2@@std@@AEAAXPEAV?$basic_string@_WU?$char_traits@_W@std@@V?$allocator@_W@2@@2@00@Z DD 0ffffffffH
	DD	imagerel ?dtor$0@?0??_Umove_if_noexcept@?$vector@V?$basic_string@_WU?$char_traits@_W@std@@V?$allocator@_W@2@@std@@V?$allocator@V?$basic_string@_WU?$char_traits@_W@std@@V?$allocator@_W@2@@std@@@2@@std@@AEAAXPEAV?$basic_string@_WU?$char_traits@_W@std@@V?$allocator@_W@2@@2@00@Z@4HA
xdata	ENDS
;	COMDAT CONST
CONST	SEGMENT
$cppxdata$?_Umove_if_noexcept@?$vector@V?$basic_string@_WU?$char_traits@_W@std@@V?$allocator@_W@2@@std@@V?$allocator@V?$basic_string@_WU?$char_traits@_W@std@@V?$allocator@_W@2@@std@@@2@@std@@AEAAXPEAV?$basic_string@_WU?$char_traits@_W@std@@V?$allocator@_W@2@@2@00@Z DD 019930522H
	DD	01H
	DD	imagerel $stateUnwindMap$?_Umove_if_noexcept@?$vector@V?$basic_string@_WU?$char_traits@_W@std@@V?$allocator@_W@2@@std@@V?$allocator@V?$basic_string@_WU?$char_traits@_W@std@@V?$allocator@_W@2@@std@@@2@@std@@AEAAXPEAV?$basic_string@_WU?$char_traits@_W@std@@V?$allocator@_W@2@@2@00@Z
	DD	00H
	DD	00H
	DD	03H
	DD	imagerel $ip2state$?_Umove_if_noexcept@?$vector@V?$basic_string@_WU?$char_traits@_W@std@@V?$allocator@_W@2@@std@@V?$allocator@V?$basic_string@_WU?$char_traits@_W@std@@V?$allocator@_W@2@@std@@@2@@std@@AEAAXPEAV?$basic_string@_WU?$char_traits@_W@std@@V?$allocator@_W@2@@2@00@Z
	DD	00H
	DD	00H
	DD	00H
CONST	ENDS
;	COMDAT xdata
xdata	SEGMENT
$unwind$?_Umove_if_noexcept@?$vector@V?$basic_string@_WU?$char_traits@_W@std@@V?$allocator@_W@2@@std@@V?$allocator@V?$basic_string@_WU?$char_traits@_W@std@@V?$allocator@_W@2@@std@@@2@@std@@AEAAXPEAV?$basic_string@_WU?$char_traits@_W@std@@V?$allocator@_W@2@@2@00@Z DD 010c11H
	DD	04204H
	DD	imagerel __CxxFrameHandler3
	DD	imagerel $cppxdata$?_Umove_if_noexcept@?$vector@V?$basic_string@_WU?$char_traits@_W@std@@V?$allocator@_W@2@@std@@V?$allocator@V?$basic_string@_WU?$char_traits@_W@std@@V?$allocator@_W@2@@std@@@2@@std@@AEAAXPEAV?$basic_string@_WU?$char_traits@_W@std@@V?$allocator@_W@2@@2@00@Z
xdata	ENDS
;	COMDAT xdata
xdata	SEGMENT
$ip2state$?_Umove_if_noexcept1@?$vector@V?$basic_string@_WU?$char_traits@_W@std@@V?$allocator@_W@2@@std@@V?$allocator@V?$basic_string@_WU?$char_traits@_W@std@@V?$allocator@_W@2@@std@@@2@@std@@AEAAXPEAV?$basic_string@_WU?$char_traits@_W@std@@V?$allocator@_W@2@@2@00U?$integral_constant@_N$00@2@@Z DD imagerel ?_Umove_if_noexcept1@?$vector@V?$basic_string@_WU?$char_traits@_W@std@@V?$allocator@_W@2@@std@@V?$allocator@V?$basic_string@_WU?$char_traits@_W@std@@V?$allocator@_W@2@@std@@@2@@std@@AEAAXPEAV?$basic_string@_WU?$char_traits@_W@std@@V?$allocator@_W@2@@2@00U?$integral_constant@_N$00@2@@Z
	DD	0ffffffffH
	DD	imagerel ?_Umove_if_noexcept1@?$vector@V?$basic_string@_WU?$char_traits@_W@std@@V?$allocator@_W@2@@std@@V?$allocator@V?$basic_string@_WU?$char_traits@_W@std@@V?$allocator@_W@2@@std@@@2@@std@@AEAAXPEAV?$basic_string@_WU?$char_traits@_W@std@@V?$allocator@_W@2@@2@00U?$integral_constant@_N$00@2@@Z+27
	DD	00H
	DD	imagerel ?_Umove_if_noexcept1@?$vector@V?$basic_string@_WU?$char_traits@_W@std@@V?$allocator@_W@2@@std@@V?$allocator@V?$basic_string@_WU?$char_traits@_W@std@@V?$allocator@_W@2@@std@@@2@@std@@AEAAXPEAV?$basic_string@_WU?$char_traits@_W@std@@V?$allocator@_W@2@@2@00U?$integral_constant@_N$00@2@@Z+89
	DD	0ffffffffH
xdata	ENDS
;	COMDAT xdata
xdata	SEGMENT
$stateUnwindMap$?_Umove_if_noexcept1@?$vector@V?$basic_string@_WU?$char_traits@_W@std@@V?$allocator@_W@2@@std@@V?$allocator@V?$basic_string@_WU?$char_traits@_W@std@@V?$allocator@_W@2@@std@@@2@@std@@AEAAXPEAV?$basic_string@_WU?$char_traits@_W@std@@V?$allocator@_W@2@@2@00U?$integral_constant@_N$00@2@@Z DD 0ffffffffH
	DD	imagerel ?dtor$0@?0??_Umove_if_noexcept1@?$vector@V?$basic_string@_WU?$char_traits@_W@std@@V?$allocator@_W@2@@std@@V?$allocator@V?$basic_string@_WU?$char_traits@_W@std@@V?$allocator@_W@2@@std@@@2@@std@@AEAAXPEAV?$basic_string@_WU?$char_traits@_W@std@@V?$allocator@_W@2@@2@00U?$integral_constant@_N$00@2@@Z@4HA
xdata	ENDS
;	COMDAT CONST
CONST	SEGMENT
$cppxdata$?_Umove_if_noexcept1@?$vector@V?$basic_string@_WU?$char_traits@_W@std@@V?$allocator@_W@2@@std@@V?$allocator@V?$basic_string@_WU?$char_traits@_W@std@@V?$allocator@_W@2@@std@@@2@@std@@AEAAXPEAV?$basic_string@_WU?$char_traits@_W@std@@V?$allocator@_W@2@@2@00U?$integral_constant@_N$00@2@@Z DD 019930522H
	DD	01H
	DD	imagerel $stateUnwindMap$?_Umove_if_noexcept1@?$vector@V?$basic_string@_WU?$char_traits@_W@std@@V?$allocator@_W@2@@std@@V?$allocator@V?$basic_string@_WU?$char_traits@_W@std@@V?$allocator@_W@2@@std@@@2@@std@@AEAAXPEAV?$basic_string@_WU?$char_traits@_W@std@@V?$allocator@_W@2@@2@00U?$integral_constant@_N$00@2@@Z
	DD	00H
	DD	00H
	DD	03H
	DD	imagerel $ip2state$?_Umove_if_noexcept1@?$vector@V?$basic_string@_WU?$char_traits@_W@std@@V?$allocator@_W@2@@std@@V?$allocator@V?$basic_string@_WU?$char_traits@_W@std@@V?$allocator@_W@2@@std@@@2@@std@@AEAAXPEAV?$basic_string@_WU?$char_traits@_W@std@@V?$allocator@_W@2@@2@00U?$integral_constant@_N$00@2@@Z
	DD	00H
	DD	00H
	DD	00H
CONST	ENDS
;	COMDAT xdata
xdata	SEGMENT
$unwind$?_Umove_if_noexcept1@?$vector@V?$basic_string@_WU?$char_traits@_W@std@@V?$allocator@_W@2@@std@@V?$allocator@V?$basic_string@_WU?$char_traits@_W@std@@V?$allocator@_W@2@@std@@@2@@std@@AEAAXPEAV?$basic_string@_WU?$char_traits@_W@std@@V?$allocator@_W@2@@2@00U?$integral_constant@_N$00@2@@Z DD 010c11H
	DD	04204H
	DD	imagerel __CxxFrameHandler3
	DD	imagerel $cppxdata$?_Umove_if_noexcept1@?$vector@V?$basic_string@_WU?$char_traits@_W@std@@V?$allocator@_W@2@@std@@V?$allocator@V?$basic_string@_WU?$char_traits@_W@std@@V?$allocator@_W@2@@std@@@2@@std@@AEAAXPEAV?$basic_string@_WU?$char_traits@_W@std@@V?$allocator@_W@2@@2@00U?$integral_constant@_N$00@2@@Z
xdata	ENDS
;	COMDAT xdata
xdata	SEGMENT
$ip2state$?_Umove@?$vector@V?$basic_string@_WU?$char_traits@_W@std@@V?$allocator@_W@2@@std@@V?$allocator@V?$basic_string@_WU?$char_traits@_W@std@@V?$allocator@_W@2@@std@@@2@@std@@AEAAPEAV?$basic_string@_WU?$char_traits@_W@std@@V?$allocator@_W@2@@2@PEAV32@00@Z DD imagerel ?_Umove@?$vector@V?$basic_string@_WU?$char_traits@_W@std@@V?$allocator@_W@2@@std@@V?$allocator@V?$basic_string@_WU?$char_traits@_W@std@@V?$allocator@_W@2@@std@@@2@@std@@AEAAPEAV?$basic_string@_WU?$char_traits@_W@std@@V?$allocator@_W@2@@2@PEAV32@00@Z
	DD	0ffffffffH
	DD	imagerel ?_Umove@?$vector@V?$basic_string@_WU?$char_traits@_W@std@@V?$allocator@_W@2@@std@@V?$allocator@V?$basic_string@_WU?$char_traits@_W@std@@V?$allocator@_W@2@@std@@@2@@std@@AEAAPEAV?$basic_string@_WU?$char_traits@_W@std@@V?$allocator@_W@2@@2@PEAV32@00@Z+27
	DD	00H
	DD	imagerel ?_Umove@?$vector@V?$basic_string@_WU?$char_traits@_W@std@@V?$allocator@_W@2@@std@@V?$allocator@V?$basic_string@_WU?$char_traits@_W@std@@V?$allocator@_W@2@@std@@@2@@std@@AEAAPEAV?$basic_string@_WU?$char_traits@_W@std@@V?$allocator@_W@2@@2@PEAV32@00@Z+89
	DD	0ffffffffH
xdata	ENDS
;	COMDAT xdata
xdata	SEGMENT
$stateUnwindMap$?_Umove@?$vector@V?$basic_string@_WU?$char_traits@_W@std@@V?$allocator@_W@2@@std@@V?$allocator@V?$basic_string@_WU?$char_traits@_W@std@@V?$allocator@_W@2@@std@@@2@@std@@AEAAPEAV?$basic_string@_WU?$char_traits@_W@std@@V?$allocator@_W@2@@2@PEAV32@00@Z DD 0ffffffffH
	DD	imagerel ?dtor$0@?0??_Umove@?$vector@V?$basic_string@_WU?$char_traits@_W@std@@V?$allocator@_W@2@@std@@V?$allocator@V?$basic_string@_WU?$char_traits@_W@std@@V?$allocator@_W@2@@std@@@2@@std@@AEAAPEAV?$basic_string@_WU?$char_traits@_W@std@@V?$allocator@_W@2@@2@PEAV32@00@Z@4HA
xdata	ENDS
;	COMDAT CONST
CONST	SEGMENT
$cppxdata$?_Umove@?$vector@V?$basic_string@_WU?$char_traits@_W@std@@V?$allocator@_W@2@@std@@V?$allocator@V?$basic_string@_WU?$char_traits@_W@std@@V?$allocator@_W@2@@std@@@2@@std@@AEAAPEAV?$basic_string@_WU?$char_traits@_W@std@@V?$allocator@_W@2@@2@PEAV32@00@Z DD 019930522H
	DD	01H
	DD	imagerel $stateUnwindMap$?_Umove@?$vector@V?$basic_string@_WU?$char_traits@_W@std@@V?$allocator@_W@2@@std@@V?$allocator@V?$basic_string@_WU?$char_traits@_W@std@@V?$allocator@_W@2@@std@@@2@@std@@AEAAPEAV?$basic_string@_WU?$char_traits@_W@std@@V?$allocator@_W@2@@2@PEAV32@00@Z
	DD	00H
	DD	00H
	DD	03H
	DD	imagerel $ip2state$?_Umove@?$vector@V?$basic_string@_WU?$char_traits@_W@std@@V?$allocator@_W@2@@std@@V?$allocator@V?$basic_string@_WU?$char_traits@_W@std@@V?$allocator@_W@2@@std@@@2@@std@@AEAAPEAV?$basic_string@_WU?$char_traits@_W@std@@V?$allocator@_W@2@@2@PEAV32@00@Z
	DD	00H
	DD	00H
	DD	00H
CONST	ENDS
;	COMDAT xdata
xdata	SEGMENT
$unwind$?_Umove@?$vector@V?$basic_string@_WU?$char_traits@_W@std@@V?$allocator@_W@2@@std@@V?$allocator@V?$basic_string@_WU?$char_traits@_W@std@@V?$allocator@_W@2@@std@@@2@@std@@AEAAPEAV?$basic_string@_WU?$char_traits@_W@std@@V?$allocator@_W@2@@2@PEAV32@00@Z DD 010c11H
	DD	04204H
	DD	imagerel __CxxFrameHandler3
	DD	imagerel $cppxdata$?_Umove@?$vector@V?$basic_string@_WU?$char_traits@_W@std@@V?$allocator@_W@2@@std@@V?$allocator@V?$basic_string@_WU?$char_traits@_W@std@@V?$allocator@_W@2@@std@@@2@@std@@AEAAPEAV?$basic_string@_WU?$char_traits@_W@std@@V?$allocator@_W@2@@2@PEAV32@00@Z
xdata	ENDS
;	COMDAT xdata
xdata	SEGMENT
$unwind$?push_back@?$vector@V?$basic_string@_WU?$char_traits@_W@std@@V?$allocator@_W@2@@std@@V?$allocator@V?$basic_string@_WU?$char_traits@_W@std@@V?$allocator@_W@2@@std@@@2@@std@@QEAAX$$QEAV?$basic_string@_WU?$char_traits@_W@std@@V?$allocator@_W@2@@2@@Z DD 010401H
	DD	04204H
xdata	ENDS
;	COMDAT xdata
xdata	SEGMENT
$ip2state$??1?$vector@V?$basic_string@_WU?$char_traits@_W@std@@V?$allocator@_W@2@@std@@V?$allocator@V?$basic_string@_WU?$char_traits@_W@std@@V?$allocator@_W@2@@std@@@2@@std@@QEAA@XZ DD imagerel ??1?$vector@V?$basic_string@_WU?$char_traits@_W@std@@V?$allocator@_W@2@@std@@V?$allocator@V?$basic_string@_WU?$char_traits@_W@std@@V?$allocator@_W@2@@std@@@2@@std@@QEAA@XZ
	DD	0ffffffffH
xdata	ENDS
;	COMDAT CONST
CONST	SEGMENT
$cppxdata$??1?$vector@V?$basic_string@_WU?$char_traits@_W@std@@V?$allocator@_W@2@@std@@V?$allocator@V?$basic_string@_WU?$char_traits@_W@std@@V?$allocator@_W@2@@std@@@2@@std@@QEAA@XZ DD 019930522H
	DD	00H
	DD	00H
	DD	00H
	DD	00H
	DD	01H
	DD	imagerel $ip2state$??1?$vector@V?$basic_string@_WU?$char_traits@_W@std@@V?$allocator@_W@2@@std@@V?$allocator@V?$basic_string@_WU?$char_traits@_W@std@@V?$allocator@_W@2@@std@@@2@@std@@QEAA@XZ
	DD	020H
	DD	00H
	DD	04H
CONST	ENDS
;	COMDAT xdata
xdata	SEGMENT
$unwind$??1?$vector@V?$basic_string@_WU?$char_traits@_W@std@@V?$allocator@_W@2@@std@@V?$allocator@V?$basic_string@_WU?$char_traits@_W@std@@V?$allocator@_W@2@@std@@@2@@std@@QEAA@XZ DD 061919H
	DD	096419H
	DD	083414H
	DD	070025206H
	DD	imagerel __CxxFrameHandler3
	DD	imagerel $cppxdata$??1?$vector@V?$basic_string@_WU?$char_traits@_W@std@@V?$allocator@_W@2@@std@@V?$allocator@V?$basic_string@_WU?$char_traits@_W@std@@V?$allocator@_W@2@@std@@@2@@std@@QEAA@XZ
xdata	ENDS
;	COMDAT xdata
xdata	SEGMENT
$unwind$?allocate@?$allocator@V?$basic_string@_WU?$char_traits@_W@std@@V?$allocator@_W@2@@std@@@std@@QEAAPEAV?$basic_string@_WU?$char_traits@_W@std@@V?$allocator@_W@2@@2@_K@Z DD 010401H
	DD	04204H
xdata	ENDS
;	COMDAT xdata
xdata	SEGMENT
$unwind$?deallocate@?$allocator@V?$basic_string@_WU?$char_traits@_W@std@@V?$allocator@_W@2@@std@@@std@@QEAAXQEAV?$basic_string@_WU?$char_traits@_W@std@@V?$allocator@_W@2@@2@_K@Z DD 010401H
	DD	04204H
xdata	ENDS
;	COMDAT xdata
xdata	SEGMENT
$unwind$?dtor$1@?0??tokenize@@YAXAEBV?$basic_string@_WU?$char_traits@_W@std@@V?$allocator@_W@2@@std@@AEAV?$vector@V?$basic_string@_WU?$char_traits@_W@std@@V?$allocator@_W@2@@std@@V?$allocator@V?$basic_string@_WU?$char_traits@_W@std@@V?$allocator@_W@2@@std@@@2@@2@0@Z@4HA DD 020601H
	DD	050023206H
xdata	ENDS
;	COMDAT xdata
xdata	SEGMENT
$ip2state$?tokenize@@YAXAEBV?$basic_string@_WU?$char_traits@_W@std@@V?$allocator@_W@2@@std@@AEAV?$vector@V?$basic_string@_WU?$char_traits@_W@std@@V?$allocator@_W@2@@std@@V?$allocator@V?$basic_string@_WU?$char_traits@_W@std@@V?$allocator@_W@2@@std@@@2@@2@0@Z DD imagerel ?tokenize@@YAXAEBV?$basic_string@_WU?$char_traits@_W@std@@V?$allocator@_W@2@@std@@AEAV?$vector@V?$basic_string@_WU?$char_traits@_W@std@@V?$allocator@_W@2@@std@@V?$allocator@V?$basic_string@_WU?$char_traits@_W@std@@V?$allocator@_W@2@@std@@@2@@2@0@Z
	DD	0ffffffffH
	DD	imagerel ?tokenize@@YAXAEBV?$basic_string@_WU?$char_traits@_W@std@@V?$allocator@_W@2@@std@@AEAV?$vector@V?$basic_string@_WU?$char_traits@_W@std@@V?$allocator@_W@2@@std@@V?$allocator@V?$basic_string@_WU?$char_traits@_W@std@@V?$allocator@_W@2@@std@@@2@@2@0@Z+119
	DD	00H
	DD	imagerel ?tokenize@@YAXAEBV?$basic_string@_WU?$char_traits@_W@std@@V?$allocator@_W@2@@std@@AEAV?$vector@V?$basic_string@_WU?$char_traits@_W@std@@V?$allocator@_W@2@@std@@V?$allocator@V?$basic_string@_WU?$char_traits@_W@std@@V?$allocator@_W@2@@std@@@2@@2@0@Z+293
	DD	0ffffffffH
	DD	imagerel ?tokenize@@YAXAEBV?$basic_string@_WU?$char_traits@_W@std@@V?$allocator@_W@2@@std@@AEAV?$vector@V?$basic_string@_WU?$char_traits@_W@std@@V?$allocator@_W@2@@std@@V?$allocator@V?$basic_string@_WU?$char_traits@_W@std@@V?$allocator@_W@2@@std@@@2@@2@0@Z+893
	DD	00H
xdata	ENDS
;	COMDAT xdata
xdata	SEGMENT
$stateUnwindMap$?tokenize@@YAXAEBV?$basic_string@_WU?$char_traits@_W@std@@V?$allocator@_W@2@@std@@AEAV?$vector@V?$basic_string@_WU?$char_traits@_W@std@@V?$allocator@_W@2@@std@@V?$allocator@V?$basic_string@_WU?$char_traits@_W@std@@V?$allocator@_W@2@@std@@@2@@2@0@Z DD 0ffffffffH
	DD	imagerel ?dtor$1@?0??tokenize@@YAXAEBV?$basic_string@_WU?$char_traits@_W@std@@V?$allocator@_W@2@@std@@AEAV?$vector@V?$basic_string@_WU?$char_traits@_W@std@@V?$allocator@_W@2@@std@@V?$allocator@V?$basic_string@_WU?$char_traits@_W@std@@V?$allocator@_W@2@@std@@@2@@2@0@Z@4HA
xdata	ENDS
;	COMDAT CONST
CONST	SEGMENT
$cppxdata$?tokenize@@YAXAEBV?$basic_string@_WU?$char_traits@_W@std@@V?$allocator@_W@2@@std@@AEAV?$vector@V?$basic_string@_WU?$char_traits@_W@std@@V?$allocator@_W@2@@std@@V?$allocator@V?$basic_string@_WU?$char_traits@_W@std@@V?$allocator@_W@2@@std@@@2@@2@0@Z DD 019930522H
	DD	01H
	DD	imagerel $stateUnwindMap$?tokenize@@YAXAEBV?$basic_string@_WU?$char_traits@_W@std@@V?$allocator@_W@2@@std@@AEAV?$vector@V?$basic_string@_WU?$char_traits@_W@std@@V?$allocator@_W@2@@std@@V?$allocator@V?$basic_string@_WU?$char_traits@_W@std@@V?$allocator@_W@2@@std@@@2@@2@0@Z
	DD	00H
	DD	00H
	DD	04H
	DD	imagerel $ip2state$?tokenize@@YAXAEBV?$basic_string@_WU?$char_traits@_W@std@@V?$allocator@_W@2@@std@@AEAV?$vector@V?$basic_string@_WU?$char_traits@_W@std@@V?$allocator@_W@2@@std@@V?$allocator@V?$basic_string@_WU?$char_traits@_W@std@@V?$allocator@_W@2@@std@@@2@@2@0@Z
	DD	048H
	DD	00H
	DD	00H
CONST	ENDS
;	COMDAT xdata
xdata	SEGMENT
$unwind$?tokenize@@YAXAEBV?$basic_string@_WU?$char_traits@_W@std@@V?$allocator@_W@2@@std@@AEAV?$vector@V?$basic_string@_WU?$char_traits@_W@std@@V?$allocator@_W@2@@std@@V?$allocator@V?$basic_string@_WU?$char_traits@_W@std@@V?$allocator@_W@2@@std@@@2@@2@0@Z DD 0b3511H
	DD	0553435H
	DD	04a0128H
	DD	0e018f01aH
	DD	0c014d016H
	DD	060117012H
	DD	05010H
	DD	imagerel __CxxFrameHandler3
	DD	imagerel $cppxdata$?tokenize@@YAXAEBV?$basic_string@_WU?$char_traits@_W@std@@V?$allocator@_W@2@@std@@AEAV?$vector@V?$basic_string@_WU?$char_traits@_W@std@@V?$allocator@_W@2@@std@@V?$allocator@V?$basic_string@_WU?$char_traits@_W@std@@V?$allocator@_W@2@@std@@@2@@2@0@Z
xdata	ENDS
;	COMDAT xdata
xdata	SEGMENT
$chain$9$?rowcol@@YAHAEAM0AEAHMMAEAV?$vector@MV?$allocator@M@std@@@std@@MMM@Z DD 021H
	DD	imagerel ?rowcol@@YAHAEAM0AEAHMMAEAV?$vector@MV?$allocator@M@std@@@std@@MMM@Z
	DD	imagerel ?rowcol@@YAHAEAM0AEAHMMAEAV?$vector@MV?$allocator@M@std@@@std@@MMM@Z+245
	DD	imagerel $unwind$?rowcol@@YAHAEAM0AEAHMMAEAV?$vector@MV?$allocator@M@std@@@std@@MMM@Z
xdata	ENDS
;	COMDAT xdata
xdata	SEGMENT
$chain$8$?rowcol@@YAHAEAM0AEAHMMAEAV?$vector@MV?$allocator@M@std@@@std@@MMM@Z DD 0105821H
	DD	02f858H
	DD	03e852H
	DD	04d83cH
	DD	05c836H
	DD	07a81fH
	DD	089819H
	DD	020d410H
	DD	01e5408H
	DD	imagerel ?rowcol@@YAHAEAM0AEAHMMAEAV?$vector@MV?$allocator@M@std@@@std@@MMM@Z
	DD	imagerel ?rowcol@@YAHAEAM0AEAHMMAEAV?$vector@MV?$allocator@M@std@@@std@@MMM@Z+245
	DD	imagerel $unwind$?rowcol@@YAHAEAM0AEAHMMAEAV?$vector@MV?$allocator@M@std@@@std@@MMM@Z
xdata	ENDS
;	COMDAT xdata
xdata	SEGMENT
$unwind$?rowcol@@YAHAEAM0AEAHMMAEAV?$vector@MV?$allocator@M@std@@@std@@MMM@Z DD 0119101H
	DD	01fc491H
	DD	06b841H
	DD	098831H
	DD	0a7829H
	DD	0b6821H
	DD	0180111H
	DD	0e008f00aH
	DD	060057006H
	DD	03004H
xdata	ENDS
;	COMDAT xdata
xdata	SEGMENT
$unwind$?getAngle@@YAMHM@Z DD 030a01H
	DD	02680aH
	DD	06204H
xdata	ENDS
;	COMDAT xdata
xdata	SEGMENT
$chain$1$?draw@Tile@@SA?AVTilePoint@@VPoint3@@AEAVTileParam@@@Z DD 021H
	DD	imagerel $LN82
	DD	imagerel $LN82+101
	DD	imagerel $unwind$?draw@Tile@@SA?AVTilePoint@@VPoint3@@AEAVTileParam@@@Z
xdata	ENDS
;	COMDAT xdata
xdata	SEGMENT
$chain$2$?draw@Tile@@SA?AVTilePoint@@VPoint3@@AEAVTileParam@@@Z DD 020821H
	DD	01ce408H
	DD	imagerel $LN82+877
	DD	imagerel $LN82+923
	DD	imagerel $chain$1$?draw@Tile@@SA?AVTilePoint@@VPoint3@@AEAVTileParam@@@Z
xdata	ENDS
;	COMDAT xdata
xdata	SEGMENT
$chain$0$?draw@Tile@@SA?AVTilePoint@@VPoint3@@AEAVTileParam@@@Z DD 020521H
	DD	07b805H
	DD	imagerel $LN82
	DD	imagerel $LN82+101
	DD	imagerel $unwind$?draw@Tile@@SA?AVTilePoint@@VPoint3@@AEAVTileParam@@@Z
xdata	ENDS
;	COMDAT xdata
xdata	SEGMENT
$unwind$?draw@Tile@@SA?AVTilePoint@@VPoint3@@AEAVTileParam@@@Z DD 0f3c01H
	DD	08983cH
	DD	098832H
	DD	0a7829H
	DD	0b6821H
	DD	01d3415H
	DD	0180115H
	DD	06009700aH
	DD	05008H
xdata	ENDS
;	COMDAT xdata
xdata	SEGMENT
$unwind$?pat_herring@Tile@@CA?AVTilePoint@@VPoint3@@AEAVTileParam@@@Z DD 0f5201H
	DD	05a852H
	DD	06983eH
	DD	077824H
	DD	086818H
	DD	0156413H
	DD	0143413H
	DD	0120113H
	DD	0700cH
xdata	ENDS
;	COMDAT xdata
xdata	SEGMENT
$chain$1$?pat_xBond@Tile@@CA?AVTilePoint@@VPoint3@@AEAVTileParam@@@Z DD 021H
	DD	imagerel $LN57
	DD	imagerel $LN57+237
	DD	imagerel $unwind$?pat_xBond@Tile@@CA?AVTilePoint@@VPoint3@@AEAVTileParam@@@Z
xdata	ENDS
;	COMDAT xdata
xdata	SEGMENT
$chain$0$?pat_xBond@Tile@@CA?AVTilePoint@@VPoint3@@AEAVTileParam@@@Z DD 020621H
	DD	076806H
	DD	imagerel $LN57
	DD	imagerel $LN57+237
	DD	imagerel $unwind$?pat_xBond@Tile@@CA?AVTilePoint@@VPoint3@@AEAVTileParam@@@Z
xdata	ENDS
;	COMDAT xdata
xdata	SEGMENT
$unwind$?pat_xBond@Tile@@CA?AVTilePoint@@VPoint3@@AEAVTileParam@@@Z DD 081501H
	DD	0155415H
	DD	0143415H
	DD	0e00ef215H
	DD	0600b700cH
xdata	ENDS
;	COMDAT xdata
xdata	SEGMENT
$chain$1$?drawTile@Tile@@CA?AVTilePoint@@VPoint3@@QEAMAEAVTileParam@@HH@Z DD 021H
	DD	imagerel $LN130
	DD	imagerel $LN130+140
	DD	imagerel $unwind$?drawTile@Tile@@CA?AVTilePoint@@VPoint3@@QEAMAEAVTileParam@@HH@Z
xdata	ENDS
;	COMDAT xdata
xdata	SEGMENT
$chain$0$?drawTile@Tile@@CA?AVTilePoint@@VPoint3@@QEAMAEAVTileParam@@HH@Z DD 020521H
	DD	07a805H
	DD	imagerel $LN130
	DD	imagerel $LN130+140
	DD	imagerel $unwind$?drawTile@Tile@@CA?AVTilePoint@@VPoint3@@QEAMAEAVTileParam@@HH@Z
xdata	ENDS
;	COMDAT xdata
xdata	SEGMENT
$unwind$?drawTile@Tile@@CA?AVTilePoint@@VPoint3@@QEAMAEAVTileParam@@HH@Z DD 0175b01H
	DD	06b85bH
	DD	08984dH
	DD	098845H
	DD	0a783dH
	DD	0b6835H
	DD	0207423H
	DD	01f6423H
	DD	01e3423H
	DD	0180123H
	DD	0e016f018H
	DD	0c012d014H
	DD	05010H
xdata	ENDS
;	COMDAT xdata
xdata	SEGMENT
$chain$13$?uvMapping@Tile@@CAXAEAVTilePoint@@VPoint3@@QEAMAEAVTileParam@@H@Z DD 021H
	DD	imagerel $LN67
	DD	imagerel $LN67+55
	DD	imagerel $unwind$?uvMapping@Tile@@CAXAEAVTilePoint@@VPoint3@@QEAMAEAVTileParam@@H@Z
xdata	ENDS
;	COMDAT xdata
xdata	SEGMENT
$chain$12$?uvMapping@Tile@@CAXAEAVTilePoint@@VPoint3@@QEAMAEAVTileParam@@H@Z DD 040021H
	DD	07a800H
	DD	0b6800H
	DD	imagerel $LN67+55
	DD	imagerel $LN67+62
	DD	imagerel $chain$0$?uvMapping@Tile@@CAXAEAVTilePoint@@VPoint3@@QEAMAEAVTileParam@@H@Z
xdata	ENDS
;	COMDAT xdata
xdata	SEGMENT
$chain$11$?uvMapping@Tile@@CAXAEAVTilePoint@@VPoint3@@QEAMAEAVTileParam@@H@Z DD 060021H
	DD	03f800H
	DD	07a800H
	DD	0b6800H
	DD	imagerel $LN67+55
	DD	imagerel $LN67+62
	DD	imagerel $chain$0$?uvMapping@Tile@@CAXAEAVTilePoint@@VPoint3@@QEAMAEAVTileParam@@H@Z
xdata	ENDS
;	COMDAT xdata
xdata	SEGMENT
$chain$10$?uvMapping@Tile@@CAXAEAVTilePoint@@VPoint3@@QEAMAEAVTileParam@@H@Z DD 0a0021H
	DD	03f800H
	DD	05c800H
	DD	07a800H
	DD	0a7800H
	DD	0b6800H
	DD	imagerel $LN67+55
	DD	imagerel $LN67+62
	DD	imagerel $chain$0$?uvMapping@Tile@@CAXAEAVTilePoint@@VPoint3@@QEAMAEAVTileParam@@H@Z
xdata	ENDS
;	COMDAT xdata
xdata	SEGMENT
$chain$9$?uvMapping@Tile@@CAXAEAVTilePoint@@VPoint3@@QEAMAEAVTileParam@@H@Z DD 0c0021H
	DD	03f800H
	DD	05c800H
	DD	06b800H
	DD	07a800H
	DD	0a7800H
	DD	0b6800H
	DD	imagerel $LN67+55
	DD	imagerel $LN67+62
	DD	imagerel $chain$0$?uvMapping@Tile@@CAXAEAVTilePoint@@VPoint3@@QEAMAEAVTileParam@@H@Z
xdata	ENDS
;	COMDAT xdata
xdata	SEGMENT
$chain$8$?uvMapping@Tile@@CAXAEAVTilePoint@@VPoint3@@QEAMAEAVTileParam@@H@Z DD 0107221H
	DD	03f872H
	DD	04e823H
	DD	05c81dH
	DD	06b818H
	DD	07a813H
	DD	0a780eH
	DD	0b6809H
	DD	01b7404H
	DD	imagerel $LN67+55
	DD	imagerel $LN67+62
	DD	imagerel $chain$0$?uvMapping@Tile@@CAXAEAVTilePoint@@VPoint3@@QEAMAEAVTileParam@@H@Z
xdata	ENDS
;	COMDAT xdata
xdata	SEGMENT
$chain$0$?uvMapping@Tile@@CAXAEAVTilePoint@@VPoint3@@QEAMAEAVTileParam@@H@Z DD 020421H
	DD	01a3404H
	DD	imagerel $LN67
	DD	imagerel $LN67+55
	DD	imagerel $unwind$?uvMapping@Tile@@CAXAEAVTilePoint@@VPoint3@@QEAMAEAVTileParam@@H@Z
xdata	ENDS
;	COMDAT xdata
xdata	SEGMENT
$unwind$?uvMapping@Tile@@CAXAEAVTilePoint@@VPoint3@@QEAMAEAVTileParam@@H@Z DD 072401H
	DD	089824H
	DD	09881cH
	DD	018010bH
	DD	06004H
xdata	ENDS
;	COMDAT xdata
xdata	SEGMENT
$unwind$?rotatePoint2@Tile@@CAXAEAVPoint3@@M@Z DD 081f01H
	DD	02881fH
	DD	037815H
	DD	04680cH
	DD	030029206H
xdata	ENDS
;	COMDAT xdata
xdata	SEGMENT
$unwind$?corner@Tile@@CA?AVTilePoint@@MMMMAEAVTileParam@@@Z DD 0134501H
	DD	05b845H
	DD	06a840H
	DD	079836H
	DD	08882dH
	DD	097828H
	DD	0a6823H
	DD	0197417H
	DD	0183417H
	DD	0160117H
	DD	0500cH
xdata	ENDS
;	COMDAT xdata
xdata	SEGMENT
$ip2state$?setPreset@TilePattern@@QEAAXH@Z DD imagerel ?setPreset@TilePattern@@QEAAXH@Z
	DD	0ffffffffH
	DD	imagerel ?setPreset@TilePattern@@QEAAXH@Z+53
	DD	00H
	DD	imagerel ?setPreset@TilePattern@@QEAAXH@Z+55
	DD	0ffffffffH
	DD	imagerel ?setPreset@TilePattern@@QEAAXH@Z+102
	DD	00H
	DD	imagerel ?setPreset@TilePattern@@QEAAXH@Z+107
	DD	0ffffffffH
	DD	imagerel ?setPreset@TilePattern@@QEAAXH@Z+154
	DD	01H
	DD	imagerel ?setPreset@TilePattern@@QEAAXH@Z+159
	DD	0ffffffffH
	DD	imagerel ?setPreset@TilePattern@@QEAAXH@Z+206
	DD	02H
	DD	imagerel ?setPreset@TilePattern@@QEAAXH@Z+211
	DD	0ffffffffH
	DD	imagerel ?setPreset@TilePattern@@QEAAXH@Z+258
	DD	03H
	DD	imagerel ?setPreset@TilePattern@@QEAAXH@Z+263
	DD	0ffffffffH
	DD	imagerel ?setPreset@TilePattern@@QEAAXH@Z+310
	DD	04H
	DD	imagerel ?setPreset@TilePattern@@QEAAXH@Z+315
	DD	0ffffffffH
	DD	imagerel ?setPreset@TilePattern@@QEAAXH@Z+362
	DD	05H
	DD	imagerel ?setPreset@TilePattern@@QEAAXH@Z+367
	DD	0ffffffffH
	DD	imagerel ?setPreset@TilePattern@@QEAAXH@Z+414
	DD	06H
	DD	imagerel ?setPreset@TilePattern@@QEAAXH@Z+419
	DD	0ffffffffH
	DD	imagerel ?setPreset@TilePattern@@QEAAXH@Z+466
	DD	07H
	DD	imagerel ?setPreset@TilePattern@@QEAAXH@Z+468
	DD	0ffffffffH
	DD	imagerel ?setPreset@TilePattern@@QEAAXH@Z+515
	DD	08H
	DD	imagerel ?setPreset@TilePattern@@QEAAXH@Z+517
	DD	0ffffffffH
	DD	imagerel ?setPreset@TilePattern@@QEAAXH@Z+588
	DD	00H
xdata	ENDS
;	COMDAT xdata
xdata	SEGMENT
$stateUnwindMap$?setPreset@TilePattern@@QEAAXH@Z DD 0ffffffffH
	DD	imagerel ?dtor$0@?0??setPreset@TilePattern@@QEAAXH@Z@4HA
	DD	0ffffffffH
	DD	imagerel ?dtor$1@?0??setPreset@TilePattern@@QEAAXH@Z@4HA
	DD	0ffffffffH
	DD	imagerel ?dtor$2@?0??setPreset@TilePattern@@QEAAXH@Z@4HA
	DD	0ffffffffH
	DD	imagerel ?dtor$3@?0??setPreset@TilePattern@@QEAAXH@Z@4HA
	DD	0ffffffffH
	DD	imagerel ?dtor$4@?0??setPreset@TilePattern@@QEAAXH@Z@4HA
	DD	0ffffffffH
	DD	imagerel ?dtor$5@?0??setPreset@TilePattern@@QEAAXH@Z@4HA
	DD	0ffffffffH
	DD	imagerel ?dtor$6@?0??setPreset@TilePattern@@QEAAXH@Z@4HA
	DD	0ffffffffH
	DD	imagerel ?dtor$7@?0??setPreset@TilePattern@@QEAAXH@Z@4HA
	DD	0ffffffffH
	DD	imagerel ?dtor$8@?0??setPreset@TilePattern@@QEAAXH@Z@4HA
	DD	0ffffffffH
	DD	imagerel ?dtor$9@?0??setPreset@TilePattern@@QEAAXH@Z@4HA
xdata	ENDS
;	COMDAT CONST
CONST	SEGMENT
$cppxdata$?setPreset@TilePattern@@QEAAXH@Z DD 019930522H
	DD	0aH
	DD	imagerel $stateUnwindMap$?setPreset@TilePattern@@QEAAXH@Z
	DD	00H
	DD	00H
	DD	016H
	DD	imagerel $ip2state$?setPreset@TilePattern@@QEAAXH@Z
	DD	020H
	DD	00H
	DD	00H
CONST	ENDS
;	COMDAT xdata
xdata	SEGMENT
$unwind$?setPreset@TilePattern@@QEAAXH@Z DD 041e11H
	DD	0c341eH
	DD	0500a9211H
	DD	imagerel __CxxFrameHandler3
	DD	imagerel $cppxdata$?setPreset@TilePattern@@QEAAXH@Z
xdata	ENDS
;	COMDAT xdata
xdata	SEGMENT
$chain$2$?update@TilePattern@@QEAAXXZ DD 021H
	DD	imagerel $LN74
	DD	imagerel $LN74+39
	DD	imagerel $unwind$?update@TilePattern@@QEAAXXZ
xdata	ENDS
;	COMDAT xdata
xdata	SEGMENT
$chain$1$?update@TilePattern@@QEAAXXZ DD 040d21H
	DD	03640dH
	DD	023405H
	DD	imagerel $LN74
	DD	imagerel $LN74+39
	DD	imagerel $unwind$?update@TilePattern@@QEAAXXZ
xdata	ENDS
;	COMDAT xdata
xdata	SEGMENT
$unwind$?update@TilePattern@@QEAAXXZ DD 030601H
	DD	045406H
	DD	07006H
xdata	ENDS
;	COMDAT xdata
xdata	SEGMENT
$ip2state$?setPattern@TilePattern@@QEAAXV?$basic_string@_WU?$char_traits@_W@std@@V?$allocator@_W@2@@std@@@Z DD imagerel ?setPattern@TilePattern@@QEAAXV?$basic_string@_WU?$char_traits@_W@std@@V?$allocator@_W@2@@std@@@Z
	DD	0ffffffffH
	DD	imagerel ?setPattern@TilePattern@@QEAAXV?$basic_string@_WU?$char_traits@_W@std@@V?$allocator@_W@2@@std@@@Z+36
	DD	00H
	DD	imagerel ?setPattern@TilePattern@@QEAAXV?$basic_string@_WU?$char_traits@_W@std@@V?$allocator@_W@2@@std@@@Z+366
	DD	0ffffffffH
xdata	ENDS
;	COMDAT xdata
xdata	SEGMENT
$stateUnwindMap$?setPattern@TilePattern@@QEAAXV?$basic_string@_WU?$char_traits@_W@std@@V?$allocator@_W@2@@std@@@Z DD 0ffffffffH
	DD	imagerel ?dtor$0@?0??setPattern@TilePattern@@QEAAXV?$basic_string@_WU?$char_traits@_W@std@@V?$allocator@_W@2@@std@@@Z@4HA
	DD	00H
	DD	imagerel ?dtor$1@?0??setPattern@TilePattern@@QEAAXV?$basic_string@_WU?$char_traits@_W@std@@V?$allocator@_W@2@@std@@@Z@4HA
xdata	ENDS
;	COMDAT CONST
CONST	SEGMENT
$cppxdata$?setPattern@TilePattern@@QEAAXV?$basic_string@_WU?$char_traits@_W@std@@V?$allocator@_W@2@@std@@@Z DD 019930522H
	DD	02H
	DD	imagerel $stateUnwindMap$?setPattern@TilePattern@@QEAAXV?$basic_string@_WU?$char_traits@_W@std@@V?$allocator@_W@2@@std@@@Z
	DD	00H
	DD	00H
	DD	03H
	DD	imagerel $ip2state$?setPattern@TilePattern@@QEAAXV?$basic_string@_WU?$char_traits@_W@std@@V?$allocator@_W@2@@std@@@Z
	DD	020H
	DD	00H
	DD	00H
CONST	ENDS
;	COMDAT xdata
xdata	SEGMENT
$unwind$?setPattern@TilePattern@@QEAAXV?$basic_string@_WU?$char_traits@_W@std@@V?$allocator@_W@2@@std@@@Z DD 081e11H
	DD	012341eH
	DD	0f00e9212H
	DD	0700ae00cH
	DD	050086009H
	DD	imagerel __CxxFrameHandler3
	DD	imagerel $cppxdata$?setPattern@TilePattern@@QEAAXV?$basic_string@_WU?$char_traits@_W@std@@V?$allocator@_W@2@@std@@@Z
xdata	ENDS
;	COMDAT xdata
xdata	SEGMENT
$unwind$?_Xlength@?$vector@VTileRow@@V?$allocator@VTileRow@@@std@@@std@@CAXXZ DD 010401H
	DD	04204H
xdata	ENDS
;	COMDAT xdata
xdata	SEGMENT
$ip2state$?_Change_array@?$vector@VTileRow@@V?$allocator@VTileRow@@@std@@@std@@AEAAXQEAVTileRow@@_K1@Z DD imagerel ?_Change_array@?$vector@VTileRow@@V?$allocator@VTileRow@@@std@@@std@@AEAAXQEAVTileRow@@_K1@Z
	DD	0ffffffffH
xdata	ENDS
;	COMDAT xdata
xdata	SEGMENT
$stateUnwindMap$?_Change_array@?$vector@VTileRow@@V?$allocator@VTileRow@@@std@@@std@@AEAAXQEAVTileRow@@_K1@Z DD 0ffffffffH
	DD	imagerel ?dtor$0@?0??_Change_array@?$vector@VTileRow@@V?$allocator@VTileRow@@@std@@@std@@AEAAXQEAVTileRow@@_K1@Z@4HA
xdata	ENDS
;	COMDAT CONST
CONST	SEGMENT
$cppxdata$?_Change_array@?$vector@VTileRow@@V?$allocator@VTileRow@@@std@@@std@@AEAAXQEAVTileRow@@_K1@Z DD 019930522H
	DD	01H
	DD	imagerel $stateUnwindMap$?_Change_array@?$vector@VTileRow@@V?$allocator@VTileRow@@@std@@@std@@AEAAXQEAVTileRow@@_K1@Z
	DD	00H
	DD	00H
	DD	01H
	DD	imagerel $ip2state$?_Change_array@?$vector@VTileRow@@V?$allocator@VTileRow@@@std@@@std@@AEAAXQEAVTileRow@@_K1@Z
	DD	020H
	DD	00H
	DD	00H
CONST	ENDS
;	COMDAT xdata
xdata	SEGMENT
$unwind$?_Change_array@?$vector@VTileRow@@V?$allocator@VTileRow@@@std@@@std@@AEAAXQEAVTileRow@@_K1@Z DD 0a2211H
	DD	0d6422H
	DD	0c541dH
	DD	0b3418H
	DD	0f006520aH
	DD	07002e004H
	DD	imagerel __CxxFrameHandler3
	DD	imagerel $cppxdata$?_Change_array@?$vector@VTileRow@@V?$allocator@VTileRow@@@std@@@std@@AEAAXQEAVTileRow@@_K1@Z
xdata	ENDS
;	COMDAT xdata
xdata	SEGMENT
$ip2state$?_Destroy@?$vector@VTileRow@@V?$allocator@VTileRow@@@std@@@std@@AEAAXPEAVTileRow@@0@Z DD imagerel ?_Destroy@?$vector@VTileRow@@V?$allocator@VTileRow@@@std@@@std@@AEAAXPEAVTileRow@@0@Z
	DD	0ffffffffH
xdata	ENDS
;	COMDAT xdata
xdata	SEGMENT
$stateUnwindMap$?_Destroy@?$vector@VTileRow@@V?$allocator@VTileRow@@@std@@@std@@AEAAXPEAVTileRow@@0@Z DD 0ffffffffH
	DD	imagerel ?dtor$0@?0??_Destroy@?$vector@VTileRow@@V?$allocator@VTileRow@@@std@@@std@@AEAAXPEAVTileRow@@0@Z@4HA
xdata	ENDS
;	COMDAT CONST
CONST	SEGMENT
$cppxdata$?_Destroy@?$vector@VTileRow@@V?$allocator@VTileRow@@@std@@@std@@AEAAXPEAVTileRow@@0@Z DD 019930522H
	DD	01H
	DD	imagerel $stateUnwindMap$?_Destroy@?$vector@VTileRow@@V?$allocator@VTileRow@@@std@@@std@@AEAAXPEAVTileRow@@0@Z
	DD	00H
	DD	00H
	DD	01H
	DD	imagerel $ip2state$?_Destroy@?$vector@VTileRow@@V?$allocator@VTileRow@@@std@@@std@@AEAAXPEAVTileRow@@0@Z
	DD	020H
	DD	00H
	DD	00H
CONST	ENDS
;	COMDAT xdata
xdata	SEGMENT
$unwind$?_Destroy@?$vector@VTileRow@@V?$allocator@VTileRow@@@std@@@std@@AEAAXPEAVTileRow@@0@Z DD 041811H
	DD	083418H
	DD	07006520aH
	DD	imagerel __CxxFrameHandler3
	DD	imagerel $cppxdata$?_Destroy@?$vector@VTileRow@@V?$allocator@VTileRow@@@std@@@std@@AEAAXPEAVTileRow@@0@Z
xdata	ENDS
;	COMDAT xdata
xdata	SEGMENT
$ip2state$?clear@?$vector@VTileRow@@V?$allocator@VTileRow@@@std@@@std@@QEAAXXZ DD imagerel ?clear@?$vector@VTileRow@@V?$allocator@VTileRow@@@std@@@std@@QEAAXXZ
	DD	0ffffffffH
xdata	ENDS
;	COMDAT xdata
xdata	SEGMENT
$stateUnwindMap$?clear@?$vector@VTileRow@@V?$allocator@VTileRow@@@std@@@std@@QEAAXXZ DD 0ffffffffH
	DD	imagerel ?dtor$0@?0??clear@?$vector@VTileRow@@V?$allocator@VTileRow@@@std@@@std@@QEAAXXZ@4HA
xdata	ENDS
;	COMDAT CONST
CONST	SEGMENT
$cppxdata$?clear@?$vector@VTileRow@@V?$allocator@VTileRow@@@std@@@std@@QEAAXXZ DD 019930522H
	DD	01H
	DD	imagerel $stateUnwindMap$?clear@?$vector@VTileRow@@V?$allocator@VTileRow@@@std@@@std@@QEAAXXZ
	DD	00H
	DD	00H
	DD	01H
	DD	imagerel $ip2state$?clear@?$vector@VTileRow@@V?$allocator@VTileRow@@@std@@@std@@QEAAXXZ
	DD	020H
	DD	00H
	DD	04H
CONST	ENDS
;	COMDAT xdata
xdata	SEGMENT
$unwind$?clear@?$vector@VTileRow@@V?$allocator@VTileRow@@@std@@@std@@QEAAXXZ DD 061911H
	DD	0a6419H
	DD	093414H
	DD	070025206H
	DD	imagerel __CxxFrameHandler3
	DD	imagerel $cppxdata$?clear@?$vector@VTileRow@@V?$allocator@VTileRow@@@std@@@std@@QEAAXXZ
xdata	ENDS
;	COMDAT xdata
xdata	SEGMENT
$ip2state$?push_back@?$vector@VTileRow@@V?$allocator@VTileRow@@@std@@@std@@QEAAXAEBVTileRow@@@Z DD imagerel ?push_back@?$vector@VTileRow@@V?$allocator@VTileRow@@@std@@@std@@QEAAXAEBVTileRow@@@Z
	DD	0ffffffffH
xdata	ENDS
;	COMDAT xdata
xdata	SEGMENT
$stateUnwindMap$?push_back@?$vector@VTileRow@@V?$allocator@VTileRow@@@std@@@std@@QEAAXAEBVTileRow@@@Z DD 0ffffffffH
	DD	imagerel ?dtor$0@?0??push_back@?$vector@VTileRow@@V?$allocator@VTileRow@@@std@@@std@@QEAAXAEBVTileRow@@@Z@4HA
xdata	ENDS
;	COMDAT CONST
CONST	SEGMENT
$cppxdata$?push_back@?$vector@VTileRow@@V?$allocator@VTileRow@@@std@@@std@@QEAAXAEBVTileRow@@@Z DD 019930522H
	DD	01H
	DD	imagerel $stateUnwindMap$?push_back@?$vector@VTileRow@@V?$allocator@VTileRow@@@std@@@std@@QEAAXAEBVTileRow@@@Z
	DD	00H
	DD	00H
	DD	01H
	DD	imagerel $ip2state$?push_back@?$vector@VTileRow@@V?$allocator@VTileRow@@@std@@@std@@QEAAXAEBVTileRow@@@Z
	DD	020H
	DD	00H
	DD	00H
CONST	ENDS
;	COMDAT xdata
xdata	SEGMENT
$unwind$?push_back@?$vector@VTileRow@@V?$allocator@VTileRow@@@std@@@std@@QEAAXAEBVTileRow@@@Z DD 020f11H
	DD	030025206H
	DD	imagerel __CxxFrameHandler3
	DD	imagerel $cppxdata$?push_back@?$vector@VTileRow@@V?$allocator@VTileRow@@@std@@@std@@QEAAXAEBVTileRow@@@Z
xdata	ENDS
;	COMDAT xdata
xdata	SEGMENT
$unwind$?allocate@?$allocator@VTileRow@@@std@@QEAAPEAVTileRow@@_K@Z DD 010401H
	DD	04204H
xdata	ENDS
;	COMDAT xdata
xdata	SEGMENT
$unwind$?deallocate@?$allocator@VTileRow@@@std@@QEAAXQEAVTileRow@@_K@Z DD 010401H
	DD	04204H
xdata	ENDS
;	COMDAT xdata
xdata	SEGMENT
$ip2state$??_GTileRow@@QEAAPEAXI@Z DD imagerel ??_GTileRow@@QEAAPEAXI@Z
	DD	0ffffffffH
xdata	ENDS
;	COMDAT xdata
xdata	SEGMENT
$stateUnwindMap$??_GTileRow@@QEAAPEAXI@Z DD 0ffffffffH
	DD	imagerel ?dtor$0@?0???_GTileRow@@QEAAPEAXI@Z@4HA
xdata	ENDS
;	COMDAT CONST
CONST	SEGMENT
$cppxdata$??_GTileRow@@QEAAPEAXI@Z DD 019930522H
	DD	01H
	DD	imagerel $stateUnwindMap$??_GTileRow@@QEAAPEAXI@Z
	DD	00H
	DD	00H
	DD	01H
	DD	imagerel $ip2state$??_GTileRow@@QEAAPEAXI@Z
	DD	020H
	DD	00H
	DD	04H
CONST	ENDS
;	COMDAT xdata
xdata	SEGMENT
$unwind$??_GTileRow@@QEAAPEAXI@Z DD 041811H
	DD	093418H
	DD	07006520aH
	DD	imagerel __CxxFrameHandler3
	DD	imagerel $cppxdata$??_GTileRow@@QEAAPEAXI@Z
xdata	ENDS
;	COMDAT xdata
xdata	SEGMENT
$ip2state$??0TileRow@@QEAA@$$QEAV0@@Z DD imagerel ??0TileRow@@QEAA@$$QEAV0@@Z
	DD	0ffffffffH
xdata	ENDS
;	COMDAT xdata
xdata	SEGMENT
$stateUnwindMap$??0TileRow@@QEAA@$$QEAV0@@Z DD 0ffffffffH
	DD	imagerel ?dtor$0@?0???0TileRow@@QEAA@$$QEAV0@@Z@4HA
xdata	ENDS
;	COMDAT CONST
CONST	SEGMENT
$cppxdata$??0TileRow@@QEAA@$$QEAV0@@Z DD 019930522H
	DD	01H
	DD	imagerel $stateUnwindMap$??0TileRow@@QEAA@$$QEAV0@@Z
	DD	00H
	DD	00H
	DD	01H
	DD	imagerel $ip2state$??0TileRow@@QEAA@$$QEAV0@@Z
	DD	00H
	DD	00H
	DD	04H
CONST	ENDS
;	COMDAT xdata
xdata	SEGMENT
$unwind$??0TileRow@@QEAA@$$QEAV0@@Z DD 011111H
	DD	02209H
	DD	imagerel __CxxFrameHandler3
	DD	imagerel $cppxdata$??0TileRow@@QEAA@$$QEAV0@@Z
xdata	ENDS
;	COMDAT xdata
xdata	SEGMENT
$ip2state$??0TileRow@@QEAA@AEBV0@@Z DD imagerel ??0TileRow@@QEAA@AEBV0@@Z
	DD	0ffffffffH
xdata	ENDS
;	COMDAT xdata
xdata	SEGMENT
$stateUnwindMap$??0TileRow@@QEAA@AEBV0@@Z DD 0ffffffffH
	DD	imagerel ?dtor$0@?0???0TileRow@@QEAA@AEBV0@@Z@4HA
xdata	ENDS
;	COMDAT CONST
CONST	SEGMENT
$cppxdata$??0TileRow@@QEAA@AEBV0@@Z DD 019930522H
	DD	01H
	DD	imagerel $stateUnwindMap$??0TileRow@@QEAA@AEBV0@@Z
	DD	00H
	DD	00H
	DD	01H
	DD	imagerel $ip2state$??0TileRow@@QEAA@AEBV0@@Z
	DD	020H
	DD	00H
	DD	00H
CONST	ENDS
;	COMDAT xdata
xdata	SEGMENT
$unwind$??0TileRow@@QEAA@AEBV0@@Z DD 021311H
	DD	03006520aH
	DD	imagerel __CxxFrameHandler3
	DD	imagerel $cppxdata$??0TileRow@@QEAA@AEBV0@@Z
xdata	ENDS
;	COMDAT xdata
xdata	SEGMENT
$ip2state$??1TileRow@@QEAA@XZ DD imagerel ??1TileRow@@QEAA@XZ
	DD	0ffffffffH
xdata	ENDS
;	COMDAT xdata
xdata	SEGMENT
$stateUnwindMap$??1TileRow@@QEAA@XZ DD 0ffffffffH
	DD	imagerel ?dtor$0@?0???1TileRow@@QEAA@XZ@4HA
xdata	ENDS
;	COMDAT CONST
CONST	SEGMENT
$cppxdata$??1TileRow@@QEAA@XZ DD 019930522H
	DD	01H
	DD	imagerel $stateUnwindMap$??1TileRow@@QEAA@XZ
	DD	00H
	DD	00H
	DD	01H
	DD	imagerel $ip2state$??1TileRow@@QEAA@XZ
	DD	020H
	DD	00H
	DD	04H
CONST	ENDS
;	COMDAT xdata
xdata	SEGMENT
$unwind$??1TileRow@@QEAA@XZ DD 011211H
	DD	06209H
	DD	imagerel __CxxFrameHandler3
	DD	imagerel $cppxdata$??1TileRow@@QEAA@XZ
xdata	ENDS
;	COMDAT xdata
xdata	SEGMENT
$unwind$?_Xlength@?$vector@MV?$allocator@M@std@@@std@@CAXXZ DD 010401H
	DD	04204H
xdata	ENDS
;	COMDAT xdata
xdata	SEGMENT
$unwind$?_Tidy@?$vector@MV?$allocator@M@std@@@std@@AEAAXXZ DD 020601H
	DD	030023206H
xdata	ENDS
;	COMDAT xdata
xdata	SEGMENT
$unwind$?_Change_array@?$vector@MV?$allocator@M@std@@@std@@AEAAXQEAM_K1@Z DD 081401H
	DD	086414H
	DD	075414H
	DD	063414H
	DD	070103214H
xdata	ENDS
;	COMDAT xdata
xdata	SEGMENT
$unwind$?_Buy@?$vector@MV?$allocator@M@std@@@std@@AEAA_N_K@Z DD 040a01H
	DD	06340aH
	DD	07006320aH
xdata	ENDS
;	COMDAT xdata
xdata	SEGMENT
$unwind$?_Umove@?$vector@MV?$allocator@M@std@@@std@@AEAAPEAMPEAM00@Z DD 040a01H
	DD	06340aH
	DD	07006320aH
xdata	ENDS
;	COMDAT xdata
xdata	SEGMENT
$ip2state$??1?$vector@MV?$allocator@M@std@@@std@@QEAA@XZ DD imagerel ??1?$vector@MV?$allocator@M@std@@@std@@QEAA@XZ
	DD	0ffffffffH
xdata	ENDS
;	COMDAT CONST
CONST	SEGMENT
$cppxdata$??1?$vector@MV?$allocator@M@std@@@std@@QEAA@XZ DD 019930522H
	DD	00H
	DD	00H
	DD	00H
	DD	00H
	DD	01H
	DD	imagerel $ip2state$??1?$vector@MV?$allocator@M@std@@@std@@QEAA@XZ
	DD	020H
	DD	00H
	DD	04H
CONST	ENDS
;	COMDAT xdata
xdata	SEGMENT
$unwind$??1?$vector@MV?$allocator@M@std@@@std@@QEAA@XZ DD 020f19H
	DD	030025206H
	DD	imagerel __CxxFrameHandler3
	DD	imagerel $cppxdata$??1?$vector@MV?$allocator@M@std@@@std@@QEAA@XZ
xdata	ENDS
;	COMDAT xdata
xdata	SEGMENT
$unwind$?catch$0@?0???0?$vector@MV?$allocator@M@std@@@std@@QEAA@AEBV01@@Z@4HA DD 020a19H
	DD	05006320aH
	DD	imagerel __CxxFrameHandler3
	DD	imagerel $cppxdata$??0?$vector@MV?$allocator@M@std@@@std@@QEAA@AEBV01@@Z
xdata	ENDS
;	COMDAT xdata
xdata	SEGMENT
$ip2state$??0?$vector@MV?$allocator@M@std@@@std@@QEAA@AEBV01@@Z DD imagerel ??0?$vector@MV?$allocator@M@std@@@std@@QEAA@AEBV01@@Z
	DD	0ffffffffH
	DD	imagerel ??0?$vector@MV?$allocator@M@std@@@std@@QEAA@AEBV01@@Z+108
	DD	00H
	DD	imagerel ??0?$vector@MV?$allocator@M@std@@@std@@QEAA@AEBV01@@Z+140
	DD	0ffffffffH
	DD	imagerel ?catch$0@?0???0?$vector@MV?$allocator@M@std@@@std@@QEAA@AEBV01@@Z@4HA
	DD	00H
	DD	imagerel ?catch$0@?0???0?$vector@MV?$allocator@M@std@@@std@@QEAA@AEBV01@@Z@4HA+13
	DD	01H
xdata	ENDS
;	COMDAT xdata
xdata	SEGMENT
$handlerMap$0$??0?$vector@MV?$allocator@M@std@@@std@@QEAA@AEBV01@@Z DD 00H
	DD	00H
	DD	00H
	DD	imagerel ?catch$0@?0???0?$vector@MV?$allocator@M@std@@@std@@QEAA@AEBV01@@Z@4HA
	DD	038H
xdata	ENDS
;	COMDAT xdata
xdata	SEGMENT
$tryMap$??0?$vector@MV?$allocator@M@std@@@std@@QEAA@AEBV01@@Z DD 00H
	DD	00H
	DD	01H
	DD	01H
	DD	imagerel $handlerMap$0$??0?$vector@MV?$allocator@M@std@@@std@@QEAA@AEBV01@@Z
xdata	ENDS
;	COMDAT xdata
xdata	SEGMENT
$stateUnwindMap$??0?$vector@MV?$allocator@M@std@@@std@@QEAA@AEBV01@@Z DD 0ffffffffH
	DD	00H
	DD	0ffffffffH
	DD	00H
xdata	ENDS
;	COMDAT CONST
CONST	SEGMENT
$cppxdata$??0?$vector@MV?$allocator@M@std@@@std@@QEAA@AEBV01@@Z DD 019930522H
	DD	02H
	DD	imagerel $stateUnwindMap$??0?$vector@MV?$allocator@M@std@@@std@@QEAA@AEBV01@@Z
	DD	01H
	DD	imagerel $tryMap$??0?$vector@MV?$allocator@M@std@@@std@@QEAA@AEBV01@@Z
	DD	05H
	DD	imagerel $ip2state$??0?$vector@MV?$allocator@M@std@@@std@@QEAA@AEBV01@@Z
	DD	020H
	DD	00H
	DD	00H
CONST	ENDS
;	COMDAT xdata
xdata	SEGMENT
$unwind$??0?$vector@MV?$allocator@M@std@@@std@@QEAA@AEBV01@@Z DD 082319H
	DD	0b7423H
	DD	0a641eH
	DD	093419H
	DD	0e007520bH
	DD	imagerel __CxxFrameHandler3
	DD	imagerel $cppxdata$??0?$vector@MV?$allocator@M@std@@@std@@QEAA@AEBV01@@Z
xdata	ENDS
;	COMDAT xdata
xdata	SEGMENT
$unwind$?allocate@?$allocator@M@std@@QEAAPEAM_K@Z DD 010401H
	DD	04204H
xdata	ENDS
;	COMDAT xdata
xdata	SEGMENT
$unwind$?deallocate@?$allocator@M@std@@QEAAXQEAM_K@Z DD 010401H
	DD	04204H
xdata	ENDS
;	COMDAT xdata
xdata	SEGMENT
$ip2state$??0TileRow@@QEAA@M@Z DD imagerel ??0TileRow@@QEAA@M@Z
	DD	0ffffffffH
	DD	imagerel ??0TileRow@@QEAA@M@Z+31
	DD	00H
	DD	imagerel ??0TileRow@@QEAA@M@Z+35
	DD	0ffffffffH
xdata	ENDS
;	COMDAT xdata
xdata	SEGMENT
$stateUnwindMap$??0TileRow@@QEAA@M@Z DD 0ffffffffH
	DD	imagerel ?dtor$0@?0???0TileRow@@QEAA@M@Z@4HA
xdata	ENDS
;	COMDAT CONST
CONST	SEGMENT
$cppxdata$??0TileRow@@QEAA@M@Z DD 019930522H
	DD	01H
	DD	imagerel $stateUnwindMap$??0TileRow@@QEAA@M@Z
	DD	00H
	DD	00H
	DD	03H
	DD	imagerel $ip2state$??0TileRow@@QEAA@M@Z
	DD	00H
	DD	00H
	DD	00H
CONST	ENDS
;	COMDAT xdata
xdata	SEGMENT
$unwind$??0TileRow@@QEAA@M@Z DD 011111H
	DD	02209H
	DD	imagerel __CxxFrameHandler3
	DD	imagerel $cppxdata$??0TileRow@@QEAA@M@Z
xdata	ENDS
;	COMDAT xdata
xdata	SEGMENT
$ip2state$??_G?$basic_string@_WU?$char_traits@_W@std@@V?$allocator@_W@2@@std@@QEAAPEAXI@Z DD imagerel ??_G?$basic_string@_WU?$char_traits@_W@std@@V?$allocator@_W@2@@std@@QEAAPEAXI@Z
	DD	0ffffffffH
xdata	ENDS
;	COMDAT CONST
CONST	SEGMENT
$cppxdata$??_G?$basic_string@_WU?$char_traits@_W@std@@V?$allocator@_W@2@@std@@QEAAPEAXI@Z DD 019930522H
	DD	00H
	DD	00H
	DD	00H
	DD	00H
	DD	01H
	DD	imagerel $ip2state$??_G?$basic_string@_WU?$char_traits@_W@std@@V?$allocator@_W@2@@std@@QEAAPEAXI@Z
	DD	020H
	DD	00H
	DD	04H
CONST	ENDS
;	COMDAT xdata
xdata	SEGMENT
$unwind$??_G?$basic_string@_WU?$char_traits@_W@std@@V?$allocator@_W@2@@std@@QEAAPEAXI@Z DD 041419H
	DD	083414H
	DD	070025206H
	DD	imagerel __CxxFrameHandler3
	DD	imagerel $cppxdata$??_G?$basic_string@_WU?$char_traits@_W@std@@V?$allocator@_W@2@@std@@QEAAPEAXI@Z
xdata	ENDS
;	COMDAT xdata
xdata	SEGMENT
$unwind$?_Xlen@?$basic_string@_WU?$char_traits@_W@std@@V?$allocator@_W@2@@std@@SAXXZ DD 010401H
	DD	04204H
xdata	ENDS
;	COMDAT xdata
xdata	SEGMENT
$unwind$?_Tidy_deallocate@?$basic_string@_WU?$char_traits@_W@std@@V?$allocator@_W@2@@std@@QEAAXXZ DD 020601H
	DD	030023206H
xdata	ENDS
;	COMDAT xdata
xdata	SEGMENT
$unwind$?dtor$0@?0??substr@?$basic_string@_WU?$char_traits@_W@std@@V?$allocator@_W@2@@std@@QEBA?AV12@_K0@Z@4HA DD 020601H
	DD	050023206H
xdata	ENDS
;	COMDAT xdata
xdata	SEGMENT
$ip2state$?substr@?$basic_string@_WU?$char_traits@_W@std@@V?$allocator@_W@2@@std@@QEBA?AV12@_K0@Z DD imagerel ?substr@?$basic_string@_WU?$char_traits@_W@std@@V?$allocator@_W@2@@std@@QEBA?AV12@_K0@Z
	DD	0ffffffffH
	DD	imagerel ?substr@?$basic_string@_WU?$char_traits@_W@std@@V?$allocator@_W@2@@std@@QEBA?AV12@_K0@Z+88
	DD	00H
	DD	imagerel ?substr@?$basic_string@_WU?$char_traits@_W@std@@V?$allocator@_W@2@@std@@QEBA?AV12@_K0@Z+105
	DD	0ffffffffH
xdata	ENDS
;	COMDAT xdata
xdata	SEGMENT
$stateUnwindMap$?substr@?$basic_string@_WU?$char_traits@_W@std@@V?$allocator@_W@2@@std@@QEBA?AV12@_K0@Z DD 0ffffffffH
	DD	imagerel ?dtor$0@?0??substr@?$basic_string@_WU?$char_traits@_W@std@@V?$allocator@_W@2@@std@@QEBA?AV12@_K0@Z@4HA
xdata	ENDS
;	COMDAT CONST
CONST	SEGMENT
$cppxdata$?substr@?$basic_string@_WU?$char_traits@_W@std@@V?$allocator@_W@2@@std@@QEBA?AV12@_K0@Z DD 019930522H
	DD	01H
	DD	imagerel $stateUnwindMap$?substr@?$basic_string@_WU?$char_traits@_W@std@@V?$allocator@_W@2@@std@@QEBA?AV12@_K0@Z
	DD	00H
	DD	00H
	DD	03H
	DD	imagerel $ip2state$?substr@?$basic_string@_WU?$char_traits@_W@std@@V?$allocator@_W@2@@std@@QEBA?AV12@_K0@Z
	DD	028H
	DD	00H
	DD	00H
CONST	ENDS
;	COMDAT xdata
xdata	SEGMENT
$unwind$?substr@?$basic_string@_WU?$char_traits@_W@std@@V?$allocator@_W@2@@std@@QEBA?AV12@_K0@Z DD 021311H
	DD	03006520aH
	DD	imagerel __CxxFrameHandler3
	DD	imagerel $cppxdata$?substr@?$basic_string@_WU?$char_traits@_W@std@@V?$allocator@_W@2@@std@@QEBA?AV12@_K0@Z
xdata	ENDS
;	COMDAT xdata
xdata	SEGMENT
$unwind$?find_first_not_of@?$basic_string@_WU?$char_traits@_W@std@@V?$allocator@_W@2@@std@@QEBA_KAEBV12@_K@Z DD 0b4301H
	DD	0285443H
	DD	02a6416H
	DD	0293416H
	DD	0240116H
	DD	0e00df00fH
	DD	0700bH
xdata	ENDS
;	COMDAT xdata
xdata	SEGMENT
$unwind$?find_first_of@?$basic_string@_WU?$char_traits@_W@std@@V?$allocator@_W@2@@std@@QEBA_KAEBV12@_K@Z DD 0b4301H
	DD	0285443H
	DD	02a6416H
	DD	0293416H
	DD	0240116H
	DD	0e00df00fH
	DD	0700bH
xdata	ENDS
;	COMDAT xdata
xdata	SEGMENT
$unwind$?assign@?$basic_string@_WU?$char_traits@_W@std@@V?$allocator@_W@2@@std@@QEAAAEAV12@QEB_W_K@Z DD 0a1801H
	DD	0a6418H
	DD	095418H
	DD	083418H
	DD	0f0143218H
	DD	07010e012H
xdata	ENDS
;	COMDAT xdata
xdata	SEGMENT
$unwind$?assign@?$basic_string@_WU?$char_traits@_W@std@@V?$allocator@_W@2@@std@@QEAAAEAV12@AEBV12@_K_K@Z DD 010401H
	DD	04204H
xdata	ENDS
;	COMDAT xdata
xdata	SEGMENT
$ip2state$??1?$basic_string@_WU?$char_traits@_W@std@@V?$allocator@_W@2@@std@@QEAA@XZ DD imagerel ??1?$basic_string@_WU?$char_traits@_W@std@@V?$allocator@_W@2@@std@@QEAA@XZ
	DD	0ffffffffH
xdata	ENDS
;	COMDAT CONST
CONST	SEGMENT
$cppxdata$??1?$basic_string@_WU?$char_traits@_W@std@@V?$allocator@_W@2@@std@@QEAA@XZ DD 019930522H
	DD	00H
	DD	00H
	DD	00H
	DD	00H
	DD	01H
	DD	imagerel $ip2state$??1?$basic_string@_WU?$char_traits@_W@std@@V?$allocator@_W@2@@std@@QEAA@XZ
	DD	020H
	DD	00H
	DD	04H
CONST	ENDS
;	COMDAT xdata
xdata	SEGMENT
$unwind$??1?$basic_string@_WU?$char_traits@_W@std@@V?$allocator@_W@2@@std@@QEAA@XZ DD 010d19H
	DD	06204H
	DD	imagerel __CxxFrameHandler3
	DD	imagerel $cppxdata$??1?$basic_string@_WU?$char_traits@_W@std@@V?$allocator@_W@2@@std@@QEAA@XZ
xdata	ENDS
;	COMDAT xdata
xdata	SEGMENT
$unwind$?_Construct_lv_contents@?$basic_string@_WU?$char_traits@_W@std@@V?$allocator@_W@2@@std@@QEAAXAEBV12@@Z DD 085201H
	DD	063452H
	DD	08640fH
	DD	07540fH
	DD	0700b320fH
xdata	ENDS
;	COMDAT xdata
xdata	SEGMENT
$unwind$??0?$basic_string@_WU?$char_traits@_W@std@@V?$allocator@_W@2@@std@@QEAA@QEB_W@Z DD 020601H
	DD	030023206H
xdata	ENDS
;	COMDAT xdata
xdata	SEGMENT
$unwind$??0?$basic_string@_WU?$char_traits@_W@std@@V?$allocator@_W@2@@std@@QEAA@AEBV01@_K1AEBV?$allocator@_W@1@@Z DD 020601H
	DD	030023206H
xdata	ENDS
;	COMDAT xdata
xdata	SEGMENT
$unwind$??0?$basic_string@_WU?$char_traits@_W@std@@V?$allocator@_W@2@@std@@QEAA@AEBV01@@Z DD 081401H
	DD	086414H
	DD	075414H
	DD	063414H
	DD	070103214H
xdata	ENDS
;	COMDAT xdata
xdata	SEGMENT
$unwind$?_Xran@?$_String_val@U?$_Simple_types@_W@std@@@std@@SAXXZ DD 010401H
	DD	04204H
xdata	ENDS
;	COMDAT xdata
xdata	SEGMENT
$unwind$?_Check_offset@?$_String_val@U?$_Simple_types@_W@std@@@std@@QEBAX_K@Z DD 010401H
	DD	04204H
xdata	ENDS
;	COMDAT xdata
xdata	SEGMENT
$unwind$?allocate@?$allocator@_W@std@@QEAAPEA_W_K@Z DD 010401H
	DD	04204H
xdata	ENDS
;	COMDAT xdata
xdata	SEGMENT
$unwind$?deallocate@?$allocator@_W@std@@QEAAXQEA_W_K@Z DD 010401H
	DD	04204H
xdata	ENDS
;	COMDAT xdata
xdata	SEGMENT
$unwind$?_Adjust_manually_vector_aligned@std@@YAXAEAPEAXAEA_K@Z DD 010401H
	DD	04204H
xdata	ENDS
;	COMDAT xdata
xdata	SEGMENT
$unwind$?copy@?$_WChar_traits@_W@std@@SAPEA_WQEA_WQEB_W_K@Z DD 020601H
	DD	030023206H
xdata	ENDS
;	COMDAT xdata
xdata	SEGMENT
$unwind$wmemcpy DD 020601H
	DD	030023206H
xdata	ENDS
;	COMDAT xdata
xdata	SEGMENT
$unwind$??_H@YAXPEAX_K1P6APEAX0@Z@Z DD 081901H
	DD	086419H
	DD	075419H
	DD	063419H
	DD	070153219H
xdata	ENDS
; Function compile flags: /Odsp
;	COMDAT ??_E?$basic_stringstream@_WU?$char_traits@_W@std@@V?$allocator@_W@2@@std@@$4PPPPPPPM@A@EAAPEAXI@Z
_TEXT	SEGMENT
??_E?$basic_stringstream@_WU?$char_traits@_W@std@@V?$allocator@_W@2@@std@@$4PPPPPPPM@A@EAAPEAXI@Z PROC ; std::basic_stringstream<wchar_t,std::char_traits<wchar_t>,std::allocator<wchar_t> >::`vector deleting destructor', COMDAT
	movsxd	rax, DWORD PTR [rcx-4]
	sub	rcx, rax
	jmp	??_E?$basic_stringstream@_WU?$char_traits@_W@std@@V?$allocator@_W@2@@std@@UEAAPEAXI@Z
??_E?$basic_stringstream@_WU?$char_traits@_W@std@@V?$allocator@_W@2@@std@@$4PPPPPPPM@A@EAAPEAXI@Z ENDP ; std::basic_stringstream<wchar_t,std::char_traits<wchar_t>,std::allocator<wchar_t> >::`vector deleting destructor'
_TEXT	ENDS
; Function compile flags: /Ogtp
; File c:\program files (x86)\microsoft visual studio\2017\community\vc\tools\msvc\14.16.27023\include\type_traits
;	COMDAT ??$move@AEAV?$vector@MV?$allocator@M@std@@@std@@@std@@YA$$QEAV?$vector@MV?$allocator@M@std@@@0@AEAV10@@Z
_TEXT	SEGMENT
_Arg$ = 8
??$move@AEAV?$vector@MV?$allocator@M@std@@@std@@@std@@YA$$QEAV?$vector@MV?$allocator@M@std@@@0@AEAV10@@Z PROC ; std::move<std::vector<float,std::allocator<float> > &>, COMDAT

; 1589 : 	return (static_cast<remove_reference_t<_Ty>&&>(_Arg));

	mov	rax, rcx

; 1590 : 	}

	ret	0
??$move@AEAV?$vector@MV?$allocator@M@std@@@std@@@std@@YA$$QEAV?$vector@MV?$allocator@M@std@@@0@AEAV10@@Z ENDP ; std::move<std::vector<float,std::allocator<float> > &>
_TEXT	ENDS
; Function compile flags: /Ogtp
; File c:\program files (x86)\microsoft visual studio\2017\community\vc\tools\msvc\14.16.27023\include\type_traits
;	COMDAT ??$move@AEAV?$allocator@M@std@@@std@@YA$$QEAV?$allocator@M@0@AEAV10@@Z
_TEXT	SEGMENT
_Arg$ = 8
??$move@AEAV?$allocator@M@std@@@std@@YA$$QEAV?$allocator@M@0@AEAV10@@Z PROC ; std::move<std::allocator<float> &>, COMDAT

; 1589 : 	return (static_cast<remove_reference_t<_Ty>&&>(_Arg));

	mov	rax, rcx

; 1590 : 	}

	ret	0
??$move@AEAV?$allocator@M@std@@@std@@YA$$QEAV?$allocator@M@0@AEAV10@@Z ENDP ; std::move<std::allocator<float> &>
_TEXT	ENDS
; Function compile flags: /Ogtp
; File c:\program files (x86)\microsoft visual studio\2017\community\vc\tools\msvc\14.16.27023\include\xmemory0
; File c:\program files (x86)\microsoft visual studio\2017\community\vc\tools\msvc\14.16.27023\include\vector
; File c:\program files (x86)\microsoft visual studio\2017\community\vc\tools\msvc\14.16.27023\include\xmemory0
;	COMDAT ??$construct@VTileRow@@V1@@?$_Default_allocator_traits@V?$allocator@VTileRow@@@std@@@std@@SAXAEAV?$allocator@VTileRow@@@1@QEAVTileRow@@$$QEAV3@@Z
_TEXT	SEGMENT
$T1 = 0
__formal$ = 32
$T2 = 40
_Ptr$ = 40
<_Args_0>$ = 48
??$construct@VTileRow@@V1@@?$_Default_allocator_traits@V?$allocator@VTileRow@@@std@@@std@@SAXAEAV?$allocator@VTileRow@@@1@QEAVTileRow@@$$QEAV3@@Z PROC ; std::_Default_allocator_traits<std::allocator<TileRow> >::construct<TileRow,TileRow>, COMDAT

; 879  : 		{	// construct _Objty(_Types...) at _Ptr

$LN100:
	sub	rsp, 24
	mov	QWORD PTR $T1[rsp], -2

; 880  : 		::new (const_cast<void *>(static_cast<const volatile void *>(_Ptr)))

	mov	QWORD PTR $T2[rsp], rdx
	mov	eax, DWORD PTR [r8]
	mov	DWORD PTR [rdx], eax
	mov	eax, DWORD PTR [r8+4]
	mov	DWORD PTR [rdx+4], eax
; File c:\program files (x86)\microsoft visual studio\2017\community\vc\tools\msvc\14.16.27023\include\vector

; 389  : 		: _Myfirst(),

	xor	ecx, ecx
	mov	QWORD PTR [rdx+8], rcx

; 390  : 		_Mylast(),

	mov	QWORD PTR [rdx+16], rcx

; 391  : 		_Myend()

	mov	QWORD PTR [rdx+24], rcx

; 765  : 		this->_Myfirst() = _Right._Myfirst();

	mov	rax, QWORD PTR [r8+8]
	mov	QWORD PTR [rdx+8], rax

; 766  : 		this->_Mylast() = _Right._Mylast();

	mov	rax, QWORD PTR [r8+16]
	mov	QWORD PTR [rdx+16], rax

; 767  : 		this->_Myend() = _Right._Myend();

	mov	rax, QWORD PTR [r8+24]
	mov	QWORD PTR [rdx+24], rax

; 768  : 
; 769  : 		_Right._Myfirst() = pointer();

	mov	QWORD PTR [r8+8], rcx

; 770  : 		_Right._Mylast() = pointer();

	mov	QWORD PTR [r8+16], rcx

; 771  : 		_Right._Myend() = pointer();

	mov	QWORD PTR [r8+24], rcx
; File c:\program files (x86)\microsoft visual studio\2017\community\vc\tools\msvc\14.16.27023\include\xmemory0

; 882  : 		}

	add	rsp, 24
	ret	0
??$construct@VTileRow@@V1@@?$_Default_allocator_traits@V?$allocator@VTileRow@@@std@@@std@@SAXAEAV?$allocator@VTileRow@@@1@QEAVTileRow@@$$QEAV3@@Z ENDP ; std::_Default_allocator_traits<std::allocator<TileRow> >::construct<TileRow,TileRow>
_TEXT	ENDS
;	COMDAT text$x
text$x	SEGMENT
$T1 = 0
__formal$ = 32
$T2 = 40
_Ptr$ = 40
<_Args_0>$ = 48
?dtor$0@?0???$construct@VTileRow@@V1@@?$_Default_allocator_traits@V?$allocator@VTileRow@@@std@@@std@@SAXAEAV?$allocator@VTileRow@@@1@QEAVTileRow@@$$QEAV3@@Z@4HA PROC ; `std::_Default_allocator_traits<std::allocator<TileRow> >::construct<TileRow,TileRow>'::`1'::dtor$0
	mov	rcx, QWORD PTR $T2[rdx]
	add	rcx, 8
	jmp	??1?$vector@MV?$allocator@M@std@@@std@@QEAA@XZ ; std::vector<float,std::allocator<float> >::~vector<float,std::allocator<float> >
?dtor$0@?0???$construct@VTileRow@@V1@@?$_Default_allocator_traits@V?$allocator@VTileRow@@@std@@@std@@SAXAEAV?$allocator@VTileRow@@@1@QEAVTileRow@@$$QEAV3@@Z@4HA ENDP ; `std::_Default_allocator_traits<std::allocator<TileRow> >::construct<TileRow,TileRow>'::`1'::dtor$0
text$x	ENDS
; Function compile flags: /Ogtp
;	COMDAT text$x
text$x	SEGMENT
$T1 = 0
__formal$ = 32
$T2 = 40
_Ptr$ = 40
<_Args_0>$ = 48
?dtor$0@?0???$construct@VTileRow@@V1@@?$_Default_allocator_traits@V?$allocator@VTileRow@@@std@@@std@@SAXAEAV?$allocator@VTileRow@@@1@QEAVTileRow@@$$QEAV3@@Z@4HA PROC ; `std::_Default_allocator_traits<std::allocator<TileRow> >::construct<TileRow,TileRow>'::`1'::dtor$0
	mov	rcx, QWORD PTR $T2[rdx]
	add	rcx, 8
	jmp	??1?$vector@MV?$allocator@M@std@@@std@@QEAA@XZ ; std::vector<float,std::allocator<float> >::~vector<float,std::allocator<float> >
?dtor$0@?0???$construct@VTileRow@@V1@@?$_Default_allocator_traits@V?$allocator@VTileRow@@@std@@@std@@SAXAEAV?$allocator@VTileRow@@@1@QEAVTileRow@@$$QEAV3@@Z@4HA ENDP ; `std::_Default_allocator_traits<std::allocator<TileRow> >::construct<TileRow,TileRow>'::`1'::dtor$0
text$x	ENDS
; Function compile flags: /Ogtp
; File c:\program files (x86)\microsoft visual studio\2017\community\vc\tools\msvc\14.16.27023\include\type_traits
;	COMDAT ??$forward@VTileRow@@@std@@YA$$QEAVTileRow@@AEAV1@@Z
_TEXT	SEGMENT
_Arg$ = 8
??$forward@VTileRow@@@std@@YA$$QEAVTileRow@@AEAV1@@Z PROC ; std::forward<TileRow>, COMDAT

; 1574 : 	return (static_cast<_Ty&&>(_Arg));

	mov	rax, rcx

; 1575 : 	}

	ret	0
??$forward@VTileRow@@@std@@YA$$QEAVTileRow@@AEAV1@@Z ENDP ; std::forward<TileRow>
_TEXT	ENDS
; Function compile flags: /Ogtp
; File c:\program files (x86)\microsoft visual studio\2017\community\vc\tools\msvc\14.16.27023\include\xmemory
; File c:\program files (x86)\microsoft visual studio\2017\community\vc\tools\msvc\14.16.27023\include\xutility
; File c:\program files (x86)\microsoft visual studio\2017\community\vc\tools\msvc\14.16.27023\include\xmemory
;	COMDAT ??$_Uninitialized_copy_al_unchecked@MMV?$allocator@M@std@@@std@@YAPEAMQEAM00AEAV?$allocator@M@0@U_Really_trivial_ptr_iterator_tag@0@U?$integral_constant@_N$00@0@@Z
_TEXT	SEGMENT
_First$ = 48
_Last$ = 56
_Dest$ = 64
__formal$ = 72
__formal$ = 80
__formal$ = 88
??$_Uninitialized_copy_al_unchecked@MMV?$allocator@M@std@@@std@@YAPEAMQEAM00AEAV?$allocator@M@0@U_Really_trivial_ptr_iterator_tag@0@U?$integral_constant@_N$00@0@@Z PROC ; std::_Uninitialized_copy_al_unchecked<float,float,std::allocator<float> >, COMDAT

