 BerconMaps_2016_64

 Timestamp is 5ced5e5d (Tue May 28 12:14:21 2019)

 Preferred load address is 0000000180000000

 Start         Length     Name                   Class
 0001:00000000 000079b0H .text$di                CODE
 0001:000079b0 000224b0H .text$mn                CODE
 0001:00029e60 00000020H .text$mn$00             CODE
 0001:00029e80 00000e20H .text$x                 CODE
 0001:0002aca0 000001dfH .text$yd                CODE
 0002:00000000 000008b0H .idata$5                DATA
 0002:000008b0 00000010H .00cfg                  DATA
 0002:000008c0 00000008H .CRT$XCA                DATA
 0002:000008c8 000000f8H .CRT$XCU                DATA
 0002:000009c0 00000008H .CRT$XCZ                DATA
 0002:000009c8 00000008H .CRT$XIA                DATA
 0002:000009d0 00000008H .CRT$XIZ                DATA
 0002:000009d8 00000008H .CRT$XPA                DATA
 0002:000009e0 00000008H .CRT$XPZ                DATA
 0002:000009e8 00000008H .CRT$XTA                DATA
 0002:000009f0 00000010H .CRT$XTZ                DATA
 0002:00000a00 00006390H .rdata                  DATA
 0002:00006d90 00002194H .rdata$r                DATA
 0002:00008f24 000002ccH .rdata$zzzdbg           DATA
 0002:000091f0 00000008H .rtc$IAA                DATA
 0002:000091f8 00000008H .rtc$IZZ                DATA
 0002:00009200 00000008H .rtc$TAA                DATA
 0002:00009208 00000008H .rtc$TZZ                DATA
 0002:00009210 00003b40H .xdata                  DATA
 0002:0000cd50 000001e0H .xdata$x                DATA
 0002:0000cf30 00000104H .edata                  DATA
 0002:0000d034 00000118H .idata$2                DATA
 0002:0000d14c 00000014H .idata$3                DATA
 0002:0000d160 000008b0H .idata$4                DATA
 0002:0000da10 00002c32H .idata$6                DATA
 0003:00000000 00000730H .data                   DATA
 0003:00000730 00000a20H .data$r                 DATA
 0003:00001150 00000b48H .bss                    DATA
 0004:00000000 00001f38H .pdata                  DATA
 0005:00000000 0000002cH .gfids$y                DATA
 0006:00000000 00000a10H .rsrc$01                DATA
 0006:00000a10 00019b20H .rsrc$02                DATA

  Address         Publics by Value              Rva+Base               Lib:Object

 0000:00000000       __guard_longjmp_table      0000000000000000     <absolute>
 0000:00000000       __guard_longjmp_count      0000000000000000     <absolute>
 0000:00000000       ___safe_se_handler_table   0000000000000000     <absolute>
 0000:00000000       __dynamic_value_reloc_table 0000000000000000     <absolute>
 0000:00000000       __guard_iat_count          0000000000000000     <absolute>
 0000:00000000       __guard_iat_table          0000000000000000     <absolute>
 0000:00000000       ___safe_se_handler_count   0000000000000000     <absolute>
 0000:00000000       __guard_fids_count         0000000000000000     <absolute>
 0000:00000000       __guard_fids_table         0000000000000000     <absolute>
 0000:00000100       __guard_flags              0000000000000100     <absolute>
 0000:00000000       __ImageBase                0000000180000000     <linker-defined>
 0001:000079b0       ?Create@BerconDistortionClassDesc@@UEAAPEAXH@Z 00000001800089b0 f i BerconDistortion.obj
 0001:000079f0       ?ClassName@BerconDistortionClassDesc@@UEAAPEB_WXZ 00000001800089f0 f i BerconDistortion.obj
 0001:00007a00       ?ClassID@BerconDistortionClassDesc@@UEAA?AVClass_ID@@XZ 0000000180008a00 f i BerconDistortion.obj
 0001:00007a00       ?ClassID@BerconDistortion@@UEAA?AVClass_ID@@XZ 0000000180008a00 f i BerconDistortion.obj
 0001:00007a20       ?InternalName@BerconDistortionClassDesc@@UEAAPEB_WXZ 0000000180008a20 f i BerconDistortion.obj
 0001:00007a30       ??_EBerconDistortionClassDesc@@UEAAPEAXI@Z 0000000180008a30 f i BerconDistortion.obj
 0001:00007a30       ??_GBerconDistortionClassDesc@@UEAAPEAXI@Z 0000000180008a30 f i BerconDistortion.obj
 0001:00007a90       ??_GXYZ_Desc@@UEAAPEAXI@Z  0000000180008a90 f i BerconDistortion.obj
 0001:00007a90       ??_EXYZ_Desc@@UEAAPEAXI@Z  0000000180008a90 f i BerconDistortion.obj
 0001:00007af0       ?InitialRollupPageState@ClassDesc@@UEAAKXZ 0000000180008af0 f i BerconDistortion.obj
 0001:00007b00       ?NumInterfaces@ClassDesc@@UEAAHXZ 0000000180008b00 f i BerconDistortion.obj
 0001:00007b10       ?GetInterfaceAt@ClassDesc@@UEAAPEAVFPInterface@@H@Z 0000000180008b10 f i BerconDistortion.obj
 0001:00007b30       ?SetUserDlgProc@ClassDesc2@@UEAAXPEAVParamBlockDesc2@@PEAVParamMap2UserDlgProc@@@Z 0000000180008b30 f i BerconDistortion.obj
 0001:00007b40       ?ClearInterfaces@ClassDesc@@UEAAXXZ 0000000180008b40 f i BerconDistortion.obj
 0001:00007b50       ?SubClassID@ClassDesc@@UEAA?AVClass_ID@@XZ 0000000180008b50 f i BerconDistortion.obj
 0001:00007b60       ?What@TabOutOfRangeException@Util@MaxSDK@@UEBAPEB_WXZ 0000000180008b60 f i BerconDistortion.obj
 0001:00007b80       ??1TabOutOfRangeException@Util@MaxSDK@@UEAA@XZ 0000000180008b80 f i BerconDistortion.obj
 0001:00007ba0       ??0TabOutOfRangeException@Util@MaxSDK@@QEAA@AEBV012@@Z 0000000180008ba0 f i BerconDistortion.obj
 0001:00007be0       ??_ETabOutOfRangeException@Util@MaxSDK@@UEAAPEAXI@Z 0000000180008be0 f i BerconDistortion.obj
 0001:00007be0       ??_GTabOutOfRangeException@Util@MaxSDK@@UEAAPEAXI@Z 0000000180008be0 f i BerconDistortion.obj
 0001:00007c40       ??0BerconDistortion@@QEAA@XZ 0000000180008c40 f   BerconDistortion.obj
 0001:00007d90       ??0BerconSC@@QEAA@QEAVShadeContext@@@Z 0000000180008d90 f i BerconDistortion.obj
 0001:00007f60       ??0BerconXYZ@@QEAA@XZ      0000000180008f60 f i BerconDistortion.obj
 0001:00008000       ??0VertexNormalsControl@@QEAA@XZ 0000000180009000 f i BerconDistortion.obj
 0001:00008030       ??0XYZ_Desc@@QEAA@PEAVClassDesc2@@HHHHHHH@Z 0000000180009030 f i BerconDistortion.obj
 0001:00009300       ??1?$Tab@PEAVBaseInterface@@@@QEAA@XZ 000000018000a300 f i BerconDistortion.obj
 0001:00009320       ??1?$Tab@PEAVVertexNormalsCallback@@@@QEAA@XZ 000000018000a320 f i BerconDistortion.obj
 0001:00009340       ??1BerconSC@@UEAA@XZ       000000018000a340 f i BerconDistortion.obj
 0001:00009390       ??1ParamMap2UserDlgProc@@UEAA@XZ 000000018000a390 f i BerconDistortion.obj
 0001:000093a0       ??1RenderGlobalContext@@UEAA@XZ 000000018000a3a0 f i BerconDistortion.obj
 0001:000093c0       ??1ShadeContext@@UEAA@XZ   000000018000a3c0 f i BerconDistortion.obj
 0001:00009400       ??1ShadeOutput@@UEAA@XZ    000000018000a400 f i BerconDistortion.obj
 0001:00009420       ??1Texmap@@UEAA@XZ         000000018000a420 f i BerconDistortion.obj
 0001:00009440       ??A?$Tab@PEAVFPInterface@@@@QEBAAEAPEAVFPInterface@@_J@Z 000000018000a440 f i BerconDistortion.obj
 0001:00009530       ??_EBerconDistortion@@WEA@EAAPEAXI@Z 000000018000a530 f i BerconDistortion.obj
 0001:0000953c       ??_EBerconSC@@WCII@EAAPEAXI@Z 000000018000a53c f i BerconDistortion.obj
 0001:00009550       ??_GBaseInterfaceServer@@UEAAPEAXI@Z 000000018000a550 f i BerconDistortion.obj
 0001:00009550       ??_EBaseInterfaceServer@@UEAAPEAXI@Z 000000018000a550 f i BerconDistortion.obj
 0001:000095a0       ??_EBerconDistortion@@UEAAPEAXI@Z 000000018000a5a0 f i BerconDistortion.obj
 0001:000095a0       ??_GBerconDistortion@@UEAAPEAXI@Z 000000018000a5a0 f i BerconDistortion.obj
 0001:00009630       ??_EBerconSC@@UEAAPEAXI@Z  000000018000a630 f i BerconDistortion.obj
 0001:00009630       ??_GBerconSC@@UEAAPEAXI@Z  000000018000a630 f i BerconDistortion.obj
 0001:000096b0       ??_GBerconXYZDlgProc@@UEAAPEAXI@Z 000000018000a6b0 f i BerconDistortion.obj
 0001:000096b0       ??_EBerconXYZDlgProc@@UEAAPEAXI@Z 000000018000a6b0 f i BerconDistortion.obj
 0001:00009700       ??_GInterfaceServer@@UEAAPEAXI@Z 000000018000a700 f i BerconDistortion.obj
 0001:00009700       ??_EInterfaceServer@@UEAAPEAXI@Z 000000018000a700 f i BerconDistortion.obj
 0001:00009750       ??_EParamMap2UserDlgProc@@UEAAPEAXI@Z 000000018000a750 f i BerconDistortion.obj
 0001:00009750       ??_GParamMap2UserDlgProc@@UEAAPEAXI@Z 000000018000a750 f i BerconDistortion.obj
 0001:00009790       ??_GRenderGlobalContext@@UEAAPEAXI@Z 000000018000a790 f i BerconDistortion.obj
 0001:00009790       ??_ERenderGlobalContext@@UEAAPEAXI@Z 000000018000a790 f i BerconDistortion.obj
 0001:000097f0       ??_EShadeContext@@UEAAPEAXI@Z 000000018000a7f0 f i BerconDistortion.obj
 0001:000097f0       ??_GShadeContext@@UEAAPEAXI@Z 000000018000a7f0 f i BerconDistortion.obj
 0001:00009860       ??_GShadeOutput@@UEAAPEAXI@Z 000000018000a860 f i BerconDistortion.obj
 0001:00009860       ??_EShadeOutput@@UEAAPEAXI@Z 000000018000a860 f i BerconDistortion.obj
 0001:000098c0       ?ActivateTexDisplay@BerconDistortion@@UEAAXH@Z 000000018000a8c0 f i BerconDistortion.obj
 0001:000098f0       ?Antialias@BerconSC@@UEAAHXZ 000000018000a8f0 f i BerconDistortion.obj
 0001:00009900       ?BarycentricCoords@BerconSC@@UEAA?AVPoint3@@XZ 000000018000a900 f i BerconDistortion.obj
 0001:00009920       ?BarycentricCoords@ShadeContext@@UEAA?AVPoint3@@XZ 000000018000a920 f i BerconDistortion.obj
 0001:00009930       ?BumpBasisVectors@BerconSC@@UEAAHQEAVPoint3@@HH@Z 000000018000a930 f i BerconDistortion.obj
 0001:00009950       ?BypassTrackBar@Animatable@@UEAAHXZ 000000018000a950 f i BerconDistortion.obj
 0001:00009960       ?CamFarRange@BerconSC@@UEAAMXZ 000000018000a960 f i BerconDistortion.obj
 0001:00009980       ?CamNearRange@BerconSC@@UEAAMXZ 000000018000a980 f i BerconDistortion.obj
 0001:000099a0       ?CamPos@BerconSC@@UEAA?AVPoint3@@XZ 000000018000a9a0 f i BerconDistortion.obj
 0001:000099d0       ?ClassID@BerconSC@@UEAA?AVClass_ID@@XZ 000000018000a9d0 f i BerconDistortion.obj
 0001:000099f0       ?Clone@BerconDistortion@@UEAAPEAVReferenceTarget@@AEAVRemapDir@@@Z 000000018000a9f0 f   BerconDistortion.obj
 0001:00009b20       ?CreateParamDlg@BerconDistortion@@UEAAPEAVParamDlg@@PEAUHWND__@@PEAVIMtlParams@@@Z 000000018000ab20 f   BerconDistortion.obj
 0001:00009ba0       ?CurTime@BerconSC@@UEAAHXZ 000000018000aba0 f i BerconDistortion.obj
 0001:00009bb0       ?Curve@BerconSC@@UEAAMXZ   000000018000abb0 f i BerconDistortion.obj
 0001:00009bd0       ?CamNearRange@ShadeContext@@UEAAMXZ 000000018000abd0 f i BerconDistortion.obj
 0001:00009bd0       ?Curve@ShadeContext@@UEAAMXZ 000000018000abd0 f i BerconDistortion.obj
 0001:00009bd0       ?GetAAFilterSize@RenderGlobalContext@@UEAAMXZ 000000018000abd0 f i BerconDistortion.obj
 0001:00009bd0       ?CamFarRange@ShadeContext@@UEAAMXZ 000000018000abd0 f i BerconDistortion.obj
 0001:00009bd0       ?RayConeAngle@ShadeContext@@UEAAMXZ 000000018000abd0 f i BerconDistortion.obj
 0001:00009be0       ?DP@BerconSC@@UEAA?AVPoint3@@XZ 000000018000abe0 f i BerconDistortion.obj
 0001:00009c10       ?DP@BerconSC@@UEAAXAEAVPoint3@@0@Z 000000018000ac10 f i BerconDistortion.obj
 0001:00009c30       ?DPObj@BerconSC@@UEAA?AVPoint3@@XZ 000000018000ac30 f i BerconDistortion.obj
 0001:00009c60       ?DPObjRelBox@BerconSC@@UEAA?AVPoint3@@XZ 000000018000ac60 f i BerconDistortion.obj
 0001:00009c90       ?DPdUVW@BerconSC@@UEAAXQEAVPoint3@@H@Z 000000018000ac90 f i BerconDistortion.obj
 0001:00009cb0       ?DUVW@BerconSC@@UEAA?AVPoint3@@H@Z 000000018000acb0 f i BerconDistortion.obj
 0001:00009cd4       ?DebugFile@BerconSC@@WCII@EAAPEAU_iobuf@@XZ 000000018000acd4 f i BerconDistortion.obj
 0001:00009ce0       ?DeleteThis@BerconXYZDlgProc@@UEAAXXZ 000000018000ace0 f i BerconDistortion.obj
 0001:00009d10       ?DiffuseIllum@BerconSC@@UEAA?AVColor@@XZ 000000018000ad10 f i BerconDistortion.obj
 0001:00009d40       ?DlgProc@BerconXYZDlgProc@@UEAA_JHPEAVIParamMap2@@PEAUHWND__@@I_K_J@Z 000000018000ad40 f i BerconDistortion.obj
 0001:0000a240       ?EditTrack@Animatable@@UEAAXXZ 000000018000b240 f i BerconDistortion.obj
 0001:0000a270       ?EvalColor@BerconDistortion@@UEAA?AVAColor@@AEAVShadeContext@@@Z 000000018000b270 f   BerconDistortion.obj
 0001:0000a430       ?EvalEnvironMap@BerconSC@@UEAA?AVAColor@@PEAVTexmap@@VPoint3@@@Z 000000018000b430 f i BerconDistortion.obj
 0001:0000a480       ?EvalGlobalEnvironMap@BerconSC@@UEAA?AVAColor@@VPoint3@@@Z 000000018000b480 f i BerconDistortion.obj
 0001:0000a4d0       ?EvalGlobalEnvironMap@RenderGlobalContext@@UEAA?AVAColor@@AEAVShadeContext@@AEAVRay@@H@Z 000000018000b4d0 f i BerconDistortion.obj
 0001:0000a4f0       ?EvalGlobalEnvironMap@ShadeContext@@UEAA?AVAColor@@VPoint3@@@Z 000000018000b4f0 f i BerconDistortion.obj
 0001:0000a500       ?EvalMono@BerconDistortion@@UEAAMAEAVShadeContext@@@Z 000000018000b500 f   BerconDistortion.obj
 0001:0000a690       ?EvalNormalPerturb@BerconDistortion@@UEAA?AVPoint3@@AEAVShadeContext@@@Z 000000018000b690 f   BerconDistortion.obj
 0001:0000a820       ?Execute@BerconSC@@UEAA_JH_K00@Z 000000018000b820 f i BerconDistortion.obj
 0001:0000a834       ?Execute@BerconSC@@WCII@EAA_JH_K00@Z 000000018000b834 f i BerconDistortion.obj
 0001:0000a840       ?FaceNumber@BerconSC@@UEAAHXZ 000000018000b840 f i BerconDistortion.obj
 0001:0000a850       ?GNormal@BerconSC@@UEAA?AVPoint3@@XZ 000000018000b850 f i BerconDistortion.obj
 0001:0000a880       ?GetActiveTexHandle@BerconDistortion@@UEAA_KHAEAVTexHandleMaker@@@Z 000000018000b880 f   BerconDistortion.obj
 0001:0000a940       ?GetBGColor@BerconSC@@UEAAXAEAVColor@@0H@Z 000000018000b940 f i BerconDistortion.obj
 0001:0000a960       ?GetBerconDistortionDesc@@YAPEAVClassDesc2@@XZ 000000018000b960 f   BerconDistortion.obj
 0001:0000a970       ?GetCache@BerconSC@@UEAAHPEAVTexmap@@AEAM@Z 000000018000b970 f i BerconDistortion.obj
 0001:0000a990       ?GetCache@BerconSC@@UEAAHPEAVTexmap@@AEAVAColor@@@Z 000000018000b990 f i BerconDistortion.obj
 0001:0000a9b0       ?GetCache@BerconSC@@UEAAHPEAVTexmap@@AEAVPoint3@@@Z 000000018000b9b0 f i BerconDistortion.obj
 0001:0000a9d0       ?GetClassName@BerconDistortion@@UEAAXAEAVWStr@@@Z 000000018000b9d0 f i BerconDistortion.obj
 0001:0000aa00       ?GetEvalObject@BerconSC@@UEAAPEAVObject@@XZ 000000018000ba00 f i BerconDistortion.obj
 0001:0000aa10       ?GetIOR@BerconSC@@UEAAMXZ  000000018000ba10 f i BerconDistortion.obj
 0001:0000aa30       ?GetIOR@ShadeContext@@UEAAMXZ 000000018000ba30 f i BerconDistortion.obj
 0001:0000aa30       ?GetSampleSizeScale@ShadeContext@@UEAAMXZ 000000018000ba30 f i BerconDistortion.obj
 0001:0000aa40       ?GetInterface@MtlBase@@UEAAPEAVBaseInterface@@VInterface_ID@@@Z 000000018000ba40 f i BerconDistortion.obj
 0001:0000aa70       ?GetNSuperSample@BerconSC@@UEAAHXZ 000000018000ba70 f i BerconDistortion.obj
 0001:0000aa90       ?GetParamBlock@BerconDistortion@@UEAAPEAVIParamBlock2@@H@Z 000000018000ba90 f i BerconDistortion.obj
 0001:0000aab0       ?GetParamBlockByID@BerconDistortion@@UEAAPEAVIParamBlock2@@F@Z 000000018000bab0 f i BerconDistortion.obj
 0001:0000ab00       ?GetParamDimension@Animatable@@UEAAPEAVParamDimension@@H@Z 000000018000bb00 f i BerconDistortion.obj
 0001:0000ab10       ?GetRefTarget@MtlBase@@UEAAPEAVReferenceTarget@@XZ 000000018000bb10 f i BerconDistortion.obj
 0001:0000ab20       ?GetReference@BerconDistortion@@UEAAPEAVReferenceTarget@@H@Z 000000018000bb20 f   BerconDistortion.obj
 0001:0000ab20       ?SubAnim@BerconDistortion@@UEAAPEAVAnimatable@@H@Z 000000018000bb20 f   BerconDistortion.obj
 0001:0000ab50       ?GetRenderElement@BerconSC@@UEAAPEAVIRenderElement@@H@Z 000000018000bb50 f i BerconDistortion.obj
 0001:0000ab70       ?GetRenderElement@ShadeContext@@UEAAPEAVIRenderElement@@H@Z 000000018000bb70 f i BerconDistortion.obj
 0001:0000ab90       ?GetSampleSizeScale@BerconSC@@UEAAMXZ 000000018000bb90 f i BerconDistortion.obj
 0001:0000abb0       ?GetSubAnimCurveColor@Animatable@@UEAAKH@Z 000000018000bbb0 f i BerconDistortion.obj
 0001:0000abc0       ?GetSubTexmap@BerconDistortion@@UEAAPEAVTexmap@@H@Z 000000018000bbc0 f i BerconDistortion.obj
 0001:0000abd0       ?GetSubTexmapSlotName@BerconDistortion@@UEAA?AVWStr@@H@Z 000000018000bbd0 f   BerconDistortion.obj
 0001:0000ac60       ?GetUVTransform@Texmap@@UEAAXAEAVMatrix3@@@Z 000000018000bc60 f i BerconDistortion.obj
 0001:0000ac70       ?HitTestFCurves@Animatable@@UEAAHPEAVParamDimensionBase@@AEAV?$Tab@VTrackHitRecord@@@@AEAVBox2@@2MHMHK@Z 000000018000bc70 f i BerconDistortion.obj
 0001:0000ac70       ?HitTestSubFCurves@Animatable@@UEAAHHPEAVParamDimensionBase@@AEAV?$Tab@VTrackHitRecord@@@@AEAVBox2@@2MHMHK@Z 000000018000bc70 f i BerconDistortion.obj
 0001:0000ac80       ?InMtlEditor@BerconSC@@UEAAHXZ 000000018000bc80 f i BerconDistortion.obj
 0001:0000ac90       ?InitSlotType@Texmap@@UEAAXH@Z 000000018000bc90 f i BerconDistortion.obj
 0001:0000aca0       ?IsLocalOutputMeaningful@Texmap@@UEAA_NAEAVShadeContext@@@Z 000000018000bca0 f i BerconDistortion.obj
 0001:0000aca0       ?DrawRepresentation@ClassDesc@@UEAA_NKPEAUHDC__@@AEAVBox2@@@Z 000000018000bca0 f i BerconDistortion.obj
 0001:0000aca0       ?GetMacroRecorderName@Animatable@@UEAA_N_NAEAVWStr@@@Z 000000018000bca0 f i BerconDistortion.obj
 0001:0000acb0       ?IsSubClassOf@Animatable@@UEAAHVClass_ID@@@Z 000000018000bcb0 f i BerconDistortion.obj
 0001:0000acf0       ?IsSuperSampleOn@BerconSC@@UEAAHXZ 000000018000bcf0 f i BerconDistortion.obj
 0001:0000ad10       ?IsTextureSuperSampleOn@BerconSC@@UEAAHXZ 000000018000bd10 f i BerconDistortion.obj
 0001:0000ad30       ?Light@BerconSC@@UEAAPEAVLightDesc@@H@Z 000000018000bd30 f i BerconDistortion.obj
 0001:0000ad40       ?LocalRequirements@BerconDistortion@@UEAAKH@Z 000000018000bd40 f i BerconDistortion.obj
 0001:0000ad60       ?MapSlotType@Texmap@@UEAAHH@Z 000000018000bd60 f i BerconDistortion.obj
 0001:0000ad70       ?MappingsRequired@BerconDistortion@@UEAAXHAEAVBitArray@@0@Z 000000018000bd70 f i BerconDistortion.obj
 0001:0000ad90       ?NRenderElements@BerconSC@@UEAAHXZ 000000018000bd90 f i BerconDistortion.obj
 0001:0000adb0       ?NRenderElements@ShadeContext@@UEAAHXZ 000000018000bdb0 f i BerconDistortion.obj
 0001:0000add0       ?Node@BerconSC@@UEAAPEAVINode@@XZ 000000018000bdd0 f i BerconDistortion.obj
 0001:0000ade0       ?NodeID@BerconSC@@UEAAHXZ  000000018000bde0 f i BerconDistortion.obj
 0001:0000adf0       ?GetFlagKeyIndex@Animatable@@UEAAHXZ 000000018000bdf0 f i BerconDistortion.obj
 0001:0000adf0       ?NumKeys@Animatable@@UEAAHXZ 000000018000bdf0 f i BerconDistortion.obj
 0001:0000adf0       ?NodeID@ShadeContext@@UEAAHXZ 000000018000bdf0 f i BerconDistortion.obj
 0001:0000adf0       ?GetKeyIndex@Animatable@@UEAAHH@Z 000000018000bdf0 f i BerconDistortion.obj
 0001:0000ae00       ?Normal@BerconSC@@UEAA?AVPoint3@@XZ 000000018000be00 f i BerconDistortion.obj
 0001:0000ae20       ?NotifyDependents@SealedReferenceMaker@@EEAA?AW4RefResult@@VInterval@@_KIKHPEAVReferenceTarget@@@Z 000000018000be20 f i BerconDistortion.obj
 0001:0000ae50       ?NotifyForeground@ReferenceTarget@@UEAAXH@Z 000000018000be50 f i BerconDistortion.obj
 0001:0000aeb0       ?NotifyRefChanged@BerconDistortion@@UEAA?AW4RefResult@@AEBVInterval@@PEAVReferenceTarget@@AEA_KIH@Z 000000018000beb0 f   BerconDistortion.obj
 0001:0000af40       ?NotifyRefChanged@SealedReferenceMaker@@EEAA?AW4RefResult@@VInterval@@PEAVReferenceTarget@@AEA_KI@Z 000000018000bf40 f i BerconDistortion.obj
 0001:0000af70       ?NumParamBlocks@BerconTile@@UEAAHXZ 000000018000bf70 f i BerconTile.obj
 0001:0000af70       ?GetTextureTiling@Texmap@@UEAAHXZ 000000018000bf70 f i BerconDistortion.obj
 0001:0000af70       ?NumParamBlocks@BerconNoise@@UEAAHXZ 000000018000bf70 f i BerconNoise.obj
 0001:0000af70       ?NumSubTexmaps@BerconDistortion@@UEAAHXZ 000000018000bf70 f i BerconDistortion.obj
 0001:0000af70       ?NumParamBlocks@BerconWood@@UEAAHXZ 000000018000bf70 f i BerconWood.obj
 0001:0000af80       ?ObjectBox@BerconSC@@UEAA?AVBox3@@XZ 000000018000bf80 f i BerconDistortion.obj
 0001:0000afb0       ?OrigNormal@BerconSC@@UEAA?AVPoint3@@XZ 000000018000bfb0 f i BerconDistortion.obj
 0001:0000afd0       ?OrigNormal@ShadeContext@@UEAA?AVPoint3@@XZ 000000018000bfd0 f i BerconDistortion.obj
 0001:0000aff0       ?OrigView@BerconSC@@UEAA?AVPoint3@@XZ 000000018000bff0 f i BerconDistortion.obj
 0001:0000b020       ?OrigView@ShadeContext@@UEAA?AVPoint3@@XZ 000000018000c020 f i BerconDistortion.obj
 0001:0000b040       ?P@BerconSC@@UEAA?AVPoint3@@XZ 000000018000c040 f i BerconDistortion.obj
 0001:0000b0c0       ?PObj@BerconSC@@UEAA?AVPoint3@@XZ 000000018000c0c0 f i BerconDistortion.obj
 0001:0000b140       ?PObjRelBox@BerconSC@@UEAA?AVPoint3@@XZ 000000018000c140 f i BerconDistortion.obj
 0001:0000b170       ?PaintSubTrack@Animatable@@UEAAHHPEAVParamDimensionBase@@PEAUHDC__@@AEAVBox2@@2MHK@Z 000000018000c170 f i BerconDistortion.obj
 0001:0000b170       ?NumParamBlocks@BerconGradient@@UEAAHXZ 000000018000c170 f i BerconGradient.obj
 0001:0000b170       ?PaintTrack@Animatable@@UEAAHPEAVParamDimensionBase@@PEAUHDC__@@AEAVBox2@@2MHK@Z 000000018000c170 f i BerconDistortion.obj
 0001:0000b170       ?NumParamBlocks@BerconDistortion@@UEAAHXZ 000000018000c170 f i BerconDistortion.obj
 0001:0000b170       ?HitTestTrack@Animatable@@UEAAHAEAV?$Tab@VTrackHitRecord@@@@AEAVBox2@@1MHK@Z 000000018000c170 f i BerconDistortion.obj
 0001:0000b180       ?PointFrom@BerconSC@@UEAA?AVPoint3@@AEBV2@W4RefFrame@@@Z 000000018000c180 f i BerconDistortion.obj
 0001:0000b1b0       ?PointTo@BerconSC@@UEAA?AVPoint3@@AEBV2@W4RefFrame@@@Z 000000018000c1b0 f i BerconDistortion.obj
 0001:0000b1e0       ?ProjType@BerconSC@@UEAAHXZ 000000018000c1e0 f i BerconDistortion.obj
 0001:0000b1f0       ?PutCache@BerconSC@@UEAAXPEAVTexmap@@AEBVAColor@@@Z 000000018000c1f0 f i BerconDistortion.obj
 0001:0000b210       ?PutCache@BerconSC@@UEAAXPEAVTexmap@@AEBVPoint3@@@Z 000000018000c210 f i BerconDistortion.obj
 0001:0000b230       ?PutCache@BerconSC@@UEAAXPEAVTexmap@@M@Z 000000018000c230 f i BerconDistortion.obj
 0001:0000b250       ?RayConeAngle@BerconSC@@UEAAMXZ 000000018000c250 f i BerconDistortion.obj
 0001:0000b270       ?RayDiam@BerconSC@@UEAAMXZ 000000018000c270 f i BerconDistortion.obj
 0001:0000b290       ?RayDiam@ShadeContext@@UEAAMXZ 000000018000c290 f i BerconDistortion.obj
 0001:0000b2b0       ?ReflectVector@BerconSC@@UEAA?AVPoint3@@XZ 000000018000c2b0 f i BerconDistortion.obj
 0001:0000b2e0       ?RefractVector@BerconSC@@UEAA?AVPoint3@@M@Z 000000018000c2e0 f i BerconDistortion.obj
 0001:0000b310       ?Reset@BerconDistortion@@UEAAXXZ 000000018000c310 f   BerconDistortion.obj
 0001:0000b390       ?ScreenCoord@BerconSC@@UEAA?AVIPoint2@@XZ 000000018000c390 f i BerconDistortion.obj
 0001:0000b3c0       ?ScreenUV@BerconSC@@UEAAXAEAVPoint2@@0@Z 000000018000c3c0 f i BerconDistortion.obj
 0001:0000b410       ?Set@BitArray@@QEAAXH@Z    000000018000c410 f i BerconDistortion.obj
 0001:0000b4b0       ?SetGBufferID@BerconSC@@UEAAXH@Z 000000018000c4b0 f i BerconDistortion.obj
 0001:0000b4d0       ?SetGBufferID@ShadeContext@@UEAAXH@Z 000000018000c4d0 f i BerconDistortion.obj
 0001:0000b4e0       ?SetIOR@BerconSC@@UEAAXM@Z 000000018000c4e0 f i BerconDistortion.obj
 0001:0000b500       ?SetNormal@BerconSC@@UEAAXVPoint3@@@Z 000000018000c500 f i BerconDistortion.obj
 0001:0000b540       ?SetReference@BerconDistortion@@EEAAXHPEAVReferenceTarget@@@Z 000000018000c540 f   BerconDistortion.obj
 0001:0000b570       ?SetSubTexmap@BerconDistortion@@UEAAXHPEAVTexmap@@@Z 000000018000c570 f   BerconDistortion.obj
 0001:0000b5e0       ?SetThing@BerconXYZDlgProc@@UEAAXPEAVReferenceTarget@@@Z 000000018000c5e0 f i BerconDistortion.obj
 0001:0000b5f0       ?SetView@BerconSC@@UEAAXVPoint3@@@Z 000000018000c5f0 f i BerconDistortion.obj
 0001:0000b630       ?SubAnimName@BerconDistortion@@UEAA?AVWStr@@H@Z 000000018000c630 f   BerconDistortion.obj
 0001:0000b6b0       ?SubNumToRefNum@BerconGradient@@UEAAHH@Z 000000018000c6b0 f i BerconGradient.obj
 0001:0000b6b0       ?SubNumToRefNum@BerconWood@@UEAAHH@Z 000000018000c6b0 f i BerconWood.obj
 0001:0000b6b0       ?SubNumToRefNum@BerconTile@@UEAAHH@Z 000000018000c6b0 f i BerconTile.obj
 0001:0000b6b0       ?SubNumToRefNum@BerconDistortion@@UEAAHH@Z 000000018000c6b0 f i BerconDistortion.obj
 0001:0000b6b0       ?RemapRefOnLoad@ReferenceMaker@@UEAAHH@Z 000000018000c6b0 f i BerconDistortion.obj
 0001:0000b6b0       ?SubNumToRefNum@BerconNoise@@UEAAHH@Z 000000018000c6b0 f i BerconNoise.obj
 0001:0000b6c0       ?GetKeyTime@Animatable@@UEAAHH@Z 000000018000c6c0 f i BerconDistortion.obj
 0001:0000b6c0       ?NeedsToSave@ClassDesc@@UEAAHXZ 000000018000c6c0 f i BerconDistortion.obj
 0001:0000b6c0       ?IsKeySelected@Animatable@@UEAAHH@Z 000000018000c6c0 f i BerconDistortion.obj
 0001:0000b6c0       ?GetViewParams@RenderGlobalContext@@UEAAPEAVViewParams@@XZ 000000018000c6c0 f i BerconDistortion.obj
 0001:0000b6c0       ?BypassPropertyLevel@Animatable@@UEAAHXZ 000000018000c6c0 f i BerconDistortion.obj
 0001:0000b6c0       ?Load@ClassDesc@@UEAA?AW4IOResult@@PEAVILoad@@@Z 000000018000c6c0 f i BerconDistortion.obj
 0001:0000b6c0       ?GetTheXYZGen@Texmap@@UEAAPEAVXYZGen@@XZ 000000018000c6c0 f i BerconDistortion.obj
 0001:0000b6c0       ?IsHighDynamicRange@Texmap@@UEBAHXZ 000000018000c6c0 f i BerconDistortion.obj
 0001:0000b6c0       ?DebugFile@BerconSC@@UEAAPEAU_iobuf@@XZ 000000018000c6c0 f i BerconDistortion.obj
 0001:0000b6c0       ?RenderEnd@Animatable@@UEAAHH@Z 000000018000c6c0 f i BerconDistortion.obj
 0001:0000b6c0       ?IsManipulator@ClassDesc@@UEAAHXZ 000000018000c6c0 f i BerconDistortion.obj
 0001:0000b6c0       ?Node@ShadeContext@@UEAAPEAVINode@@XZ 000000018000c6c0 f i BerconDistortion.obj
 0001:0000b6c0       ?CanCopySubTrack@Animatable@@UEAAHHVInterval@@K@Z 000000018000c6c0 f i BerconDistortion.obj
 0001:0000b6c0       ?GetAAFilterKernel@RenderGlobalContext@@UEAAPEAVFilterKernel@@XZ 000000018000c6c0 f i BerconDistortion.obj
 0001:0000b6c0       ?CanPasteSubTrack@Animatable@@UEAAHHPEAVTrackClipObject@@VInterval@@K@Z 000000018000c6c0 f i BerconDistortion.obj
 0001:0000b6c0       ?CopyTrack@Animatable@@UEAAPEAVTrackClipObject@@VInterval@@K@Z 000000018000c6c0 f i BerconDistortion.obj
 0001:0000b6c0       ?AssignController@Animatable@@UEAAHPEAV1@H@Z 000000018000c6c0 f i BerconDistortion.obj
 0001:0000b6c0       ?NumActionTables@ClassDesc@@UEAAHXZ 000000018000c6c0 f i BerconDistortion.obj
 0001:0000b6c0       ?GetEvalObject@ShadeContext@@UEAAPEAVObject@@XZ 000000018000c6c0 f i BerconDistortion.obj
 0001:0000b6c0       ?GetCache@ShadeContext@@UEAAHPEAVTexmap@@AEAVAColor@@@Z 000000018000c6c0 f i BerconDistortion.obj
 0001:0000b6c0       ?IsKeyAtTime@Animatable@@UEAAHHK@Z 000000018000c6c0 f i BerconDistortion.obj
 0001:0000b6c0       ?TrackViewWinProc@Animatable@@UEAA_JPEAUHWND__@@I_K_J@Z 000000018000c6c0 f i BerconDistortion.obj
 0001:0000b6c0       ?NumSelKeys@Animatable@@UEAAHXZ 000000018000c6c0 f i BerconDistortion.obj
 0001:0000b6c0       ?TrackParamsType@Animatable@@UEAAHXZ 000000018000c6c0 f i BerconDistortion.obj
 0001:0000b6c0       ?IsTextureSuperSampleOn@ShadeContext@@UEAAHXZ 000000018000c6c0 f i BerconDistortion.obj
 0001:0000b6c0       ?SupportsMultiMapsInViewport@MtlBase@@UEAAHXZ 000000018000c6c0 f i BerconDistortion.obj
 0001:0000b6c0       ?IsMultiMtl@MtlBase@@UEAAHXZ 000000018000c6c0 f i BerconDistortion.obj
 0001:0000b6c0       ?CanPasteTrack@Animatable@@UEAAHPEAVTrackClipObject@@VInterval@@K@Z 000000018000c6c0 f i BerconDistortion.obj
 0001:0000b6c0       ?Antialias@ShadeContext@@UEAAHXZ 000000018000c6c0 f i BerconDistortion.obj
 0001:0000b6c0       ?GetKeyTimes@Animatable@@UEAAHAEAV?$Tab@H@@VInterval@@K@Z 000000018000c6c0 f i BerconDistortion.obj
 0001:0000b6c0       ?BumpBasisVectors@ShadeContext@@UEAAHQEAVPoint3@@HH@Z 000000018000c6c0 f i BerconDistortion.obj
 0001:0000b6c0       ?CanCopyTrack@Animatable@@UEAAHVInterval@@K@Z 000000018000c6c0 f i BerconDistortion.obj
 0001:0000b6c0       ?SetSelKeyCoordsExpr@Animatable@@UEAAHPEAVParamDimension@@PEB_W1K@Z 000000018000c6c0 f i BerconDistortion.obj
 0001:0000b6c0       ?InvisibleProperty@Animatable@@UEAAHXZ 000000018000c6c0 f i BerconDistortion.obj
 0001:0000b6c0       ?Save@ClassDesc@@UEAA?AW4IOResult@@PEAVISave@@@Z 000000018000c6c0 f i BerconDistortion.obj
 0001:0000b6c0       ?CanDeleteSubAnim@Animatable@@UEAAHH@Z 000000018000c6c0 f i BerconDistortion.obj
 0001:0000b6c0       ?ProjType@ShadeContext@@UEAAHXZ 000000018000c6c0 f i BerconDistortion.obj
 0001:0000b6c0       ?GetTheXYZGen@BerconNoise@@UEAAPEAVXYZGen@@XZ 000000018000c6c0 f i BerconNoise.obj
 0001:0000b6c0       ?CreateManipulator@ClassDesc@@UEAAPEAVManipulator@@PEAVReferenceTarget@@PEAVINode@@@Z 000000018000c6c0 f i BerconDistortion.obj
 0001:0000b6c0       ?Execute@ClassDesc@@UEAA_JH_K00@Z 000000018000c6c0 f i BerconDistortion.obj
 0001:0000b6c0       ?SetKeyBufferPresent@Animatable@@UEAAHXZ 000000018000c6c0 f i BerconDistortion.obj
 0001:0000b6c0       ?CanManipulateNode@ClassDesc@@UEAAHPEAVINode@@@Z 000000018000c6c0 f i BerconDistortion.obj
 0001:0000b6c0       ?NumRenderInstances@RenderGlobalContext@@UEAAHXZ 000000018000c6c0 f i BerconDistortion.obj
 0001:0000b6c0       ?PaintSubFCurves@Animatable@@UEAAHHPEAVParamDimensionBase@@PEAUHDC__@@AEAVBox2@@2MHMHK@Z 000000018000c6c0 f i BerconDistortion.obj
 0001:0000b6c0       ?GetParamMap@ClassDesc@@UEAAPEAVIParamMap2@@PEAVParamBlockDesc2@@@Z 000000018000c6c0 f i BerconDistortion.obj
 0001:0000b6c0       __scrt_stub_for_is_c_termination_complete 000000018000c6c0 f i MSVCRT:ucrt_stubs.obj
 0001:0000b6c0       ?GetActionTable@ClassDesc@@UEAAPEAVActionTable@@H@Z 000000018000c6c0 f i BerconDistortion.obj
 0001:0000b6c0       ?GetNextKeyTime@Animatable@@UEAAHHKAEAH@Z 000000018000c6c0 f i BerconDistortion.obj
 0001:0000b6c0       ?NumChildren@Animatable@@UEAAHXZ 000000018000c6c0 f i BerconDistortion.obj
 0001:0000b6c0       ?IntersectWorld@RenderGlobalContext@@UEAAHAEAVRay@@HAEAUISect@@AEAVISectList@@H@Z 000000018000c6c0 f i BerconDistortion.obj
 0001:0000b6c0       ?DebugFile@RenderGlobalContext@@UEAAPEAU_iobuf@@XZ 000000018000c6c0 f i BerconDistortion.obj
 0001:0000b6c0       ?IsSubCurveSelected@Animatable@@UEAAHH@Z 000000018000c6c0 f i BerconDistortion.obj
 0001:0000b6c0       ?Execute@IGradient@@UEAA_JH_K00@Z 000000018000c6c0 f i BerconGradient.obj
 0001:0000b6c0       ?GetToolTip@ResourceMakerCallback@@UEAAHHAEAVWStr@@PEAVICurveCtl@@@Z 000000018000c6c0 f i BerconGradient.obj
 0001:0000b6c0       ?HasClassParams@ClassDesc@@UEAAHXZ 000000018000c6c0 f i BerconDistortion.obj
 0001:0000b6c0       ?GetUserDlgProc@ClassDesc@@UEAAPEAVParamMap2UserDlgProc@@PEAVParamBlockDesc2@@@Z 000000018000c6c0 f i BerconDistortion.obj
 0001:0000b6c0       ?IsCurveSelected@Animatable@@UEAAHXZ 000000018000c6c0 f i BerconDistortion.obj
 0001:0000b6c0       ?SetCustomImageList@ResourceMakerCallback@@UEAAHAEAPEAU_IMAGELIST@@PEAVICurveCtl@@@Z 000000018000c6c0 f i BerconGradient.obj
 0001:0000b6c0       ?BypassTreeView@Animatable@@UEAAHXZ 000000018000c6c0 f i BerconDistortion.obj
 0001:0000b6c0       ?CanManipulate@ClassDesc@@UEAAHPEAVReferenceTarget@@@Z 000000018000c6c0 f i BerconDistortion.obj
 0001:0000b6c0       ?PaintFCurves@Animatable@@UEAAHPEAVParamDimensionBase@@PEAUHDC__@@AEAVBox2@@2MHMHK@Z 000000018000c6c0 f i BerconDistortion.obj
 0001:0000b6c0       ?GetRenderInstance@RenderGlobalContext@@UEAAPEAVRenderInstance@@H@Z 000000018000c6c0 f i BerconDistortion.obj
 0001:0000b6c0       ?GetUVWSource@Texmap@@UEAAHXZ 000000018000c6c0 f i BerconDistortion.obj
 0001:0000b6c0       ?GetSubFCurveExtents@Animatable@@UEAAHHPEAVParamDimensionBase@@AEAM1K@Z 000000018000c6c0 f i BerconDistortion.obj
 0001:0000b6c0       ?BeginCreate@ClassDesc@@UEAAHPEAVInterface@@@Z 000000018000c6c0 f i BerconDistortion.obj
 0001:0000b6c0       ?CopySubTrack@Animatable@@UEAAPEAVTrackClipObject@@HVInterval@@K@Z 000000018000c6c0 f i BerconDistortion.obj
 0001:0000b6c0       _is_c_termination_complete 000000018000c6c0 f i MSVCRT:ucrt_stubs.obj
 0001:0000b6c0       ?ShouldPersistWeakRef@ReferenceMaker@@UEAAHPEAVReferenceTarget@@@Z 000000018000c6c0 f i BerconDistortion.obj
 0001:0000b6c0       ?GetCache@ShadeContext@@UEAAHPEAVTexmap@@AEAVPoint3@@@Z 000000018000c6c0 f i BerconDistortion.obj
 0001:0000b6c0       ?Execute@ICustomControl@@UEAA_JH_K00@Z 000000018000c6c0 f i BerconGradient.obj
 0001:0000b6c0       ?HandleOwnViewPerturb@Texmap@@UEAAHXZ 000000018000c6c0 f i BerconDistortion.obj
 0001:0000b6c0       ?GetFCurveExtents@Animatable@@UEAAHPEAVParamDimensionBase@@AEAM1K@Z 000000018000c6c0 f i BerconDistortion.obj
 0001:0000b6c0       ?GetCache@ShadeContext@@UEAAHPEAVTexmap@@AEAM@Z 000000018000c6c0 f i BerconDistortion.obj
 0001:0000b6c0       ?SupportTimeOperations@Animatable@@UEAAHXZ 000000018000c6c0 f i BerconDistortion.obj
 0001:0000b6c0       ?SelectSubAnim@Animatable@@UEAAHH@Z 000000018000c6c0 f i BerconDistortion.obj
 0001:0000b6c0       ?IsSuperSampleOn@ShadeContext@@UEAAHXZ 000000018000c6c0 f i BerconDistortion.obj
 0001:0000b6c0       ?GetTheUVGen@Texmap@@UEAAPEAVUVGen@@XZ 000000018000c6c0 f i BerconDistortion.obj
 0001:0000b6c0       ?GetKeySelState@Animatable@@UEAAHAEAVBitArray@@VInterval@@K@Z 000000018000c6c0 f i BerconDistortion.obj
 0001:0000b6c0       ?EndCreate@ClassDesc@@UEAAHPEAVInterface@@@Z 000000018000c6c0 f i BerconDistortion.obj
 0001:0000b6c0       ?ChildAnim@Animatable@@UEAAPEAV1@H@Z 000000018000c6c0 f i BerconDistortion.obj
 0001:0000b6c0       ?Execute@RenderGlobalContext@@UEAA_JH_K00@Z 000000018000c6c0 f i BerconDistortion.obj
 0001:0000b6c0       ?CreateManipulator@ClassDesc@@UEAAPEAVManipulator@@PEAVINode@@@Z 000000018000c6c0 f i BerconDistortion.obj
 0001:0000b6c0       ?DebugFile@ShadeContext@@UEAAPEAU_iobuf@@XZ 000000018000c6c0 f i BerconDistortion.obj
 0001:0000b6c0       ?SetDlgThing@BerconDistortion@@UEAAHPEAVParamDlg@@@Z 000000018000c6c0 f i BerconDistortion.obj
 0001:0000b6c0       ?GetNSuperSample@ShadeContext@@UEAAHXZ 000000018000c6c0 f i BerconDistortion.obj
 0001:0000b6c0       ?RenderBegin@Animatable@@UEAAHHK@Z 000000018000c6c0 f i BerconDistortion.obj
 0001:0000b6c0       ?Execute@ShadeContext@@UEAA_JH_K00@Z 000000018000c6c0 f i BerconDistortion.obj
 0001:0000b6d0       ?SurfacePtScreen@BerconSC@@UEAA?AVPoint2@@XZ 000000018000c6d0 f i BerconDistortion.obj
 0001:0000b700       ?SurfacePtScreen@ShadeContext@@UEAA?AVPoint2@@XZ 000000018000c700 f i BerconDistortion.obj
 0001:0000b700       ?ClassID@ShadeContext@@UEAA?AVClass_ID@@XZ 000000018000c700 f i BerconDistortion.obj
 0001:0000b710       ?TossCache@BerconSC@@UEAAXPEAVTexmap@@@Z 000000018000c710 f i BerconDistortion.obj
 0001:0000b730       ?UVW@BerconSC@@UEAA?AVPoint3@@H@Z 000000018000c730 f i BerconDistortion.obj
 0001:0000b800       ?UVWNormal@BerconSC@@UEAA?AVPoint3@@H@Z 000000018000c800 f i BerconDistortion.obj
 0001:0000b830       ?UVWNormal@ShadeContext@@UEAA?AVPoint3@@H@Z 000000018000c830 f i BerconDistortion.obj
 0001:0000b840       ?Update@BerconDistortion@@UEAAXHAEAVInterval@@@Z 000000018000c840 f   BerconDistortion.obj
 0001:0000b960       ?Update@ParamMap2UserDlgProc@@UEAAXHAEAVInterval@@PEAVIParamMap2@@@Z 000000018000c960 f i BerconDistortion.obj
 0001:0000b970       ?V@BerconSC@@UEAA?AVPoint3@@XZ 000000018000c970 f i BerconDistortion.obj
 0001:0000b9a0       ?Validity@BerconDistortion@@UEAA?AVInterval@@H@Z 000000018000c9a0 f   BerconDistortion.obj
 0001:0000b9f0       ?VectorFrom@BerconSC@@UEAA?AVPoint3@@AEBV2@W4RefFrame@@@Z 000000018000c9f0 f i BerconDistortion.obj
 0001:0000ba20       ?VectorFromNoScale@BerconSC@@UEAA?AVPoint3@@AEBV2@W4RefFrame@@@Z 000000018000ca20 f i BerconDistortion.obj
 0001:0000ba50       ?VectorTo@BerconSC@@UEAA?AVPoint3@@AEBV2@W4RefFrame@@@Z 000000018000ca50 f i BerconDistortion.obj
 0001:0000ba80       ?VectorToNoScale@BerconSC@@UEAA?AVPoint3@@AEBV2@W4RefFrame@@@Z 000000018000ca80 f i BerconDistortion.obj
 0001:0000bab0       ?getDistVector@BerconDistortion@@QEAA?AVPoint3@@AEAVShadeContext@@@Z 000000018000cab0 f   BerconDistortion.obj
 0001:0000bbb0       ?Create@BerconGradientClassDesc@@UEAAPEAXH@Z 000000018000cbb0 f i BerconGradient.obj
 0001:0000bbf0       ?ClassName@BerconGradientClassDesc@@UEAAPEB_WXZ 000000018000cbf0 f i BerconGradient.obj
 0001:0000bc00       ?ClassID@BerconGradientClassDesc@@UEAA?AVClass_ID@@XZ 000000018000cc00 f i BerconGradient.obj
 0001:0000bc00       ?ClassID@BerconGradient@@UEAA?AVClass_ID@@XZ 000000018000cc00 f i BerconGradient.obj
 0001:0000bc20       ?InternalName@BerconGradientClassDesc@@UEAAPEB_WXZ 000000018000cc20 f i BerconGradient.obj
 0001:0000bc30       ??_GBerconGradientClassDesc@@UEAAPEAXI@Z 000000018000cc30 f i BerconGradient.obj
 0001:0000bc30       ??_EBerconGradientClassDesc@@UEAAPEAXI@Z 000000018000cc30 f i BerconGradient.obj
 0001:0000bc90       ??0BerconGradient@@QEAA@XZ 000000018000cc90 f   BerconGradient.obj
 0001:0000bdf0       ??0IGradient@@QEAA@PEAUHWND__@@PEAVGradientRamp@@@Z 000000018000cdf0 f i BerconGradient.obj
 0001:0000be50       ??1BerconGradient@@UEAA@XZ 000000018000ce50 f   BerconGradient.obj
 0001:0000bf20       ??1ICustomControl@@UEAA@XZ 000000018000cf20 f i BerconGradient.obj
 0001:0000bf40       ??_EBerconGradient@@WEA@EAAPEAXI@Z 000000018000cf40 f i BerconGradient.obj
 0001:0000bf50       ??_EBerconGradient@@UEAAPEAXI@Z 000000018000cf50 f i BerconGradient.obj
 0001:0000bf50       ??_GBerconGradient@@UEAAPEAXI@Z 000000018000cf50 f i BerconGradient.obj
 0001:0000bfa0       ??_EBerconGradientDlgProc@@UEAAPEAXI@Z 000000018000cfa0 f i BerconGradient.obj
 0001:0000bfa0       ??_GBerconGradientDlgProc@@UEAAPEAXI@Z 000000018000cfa0 f i BerconGradient.obj
 0001:0000bff0       ??_GICustomControl@@UEAAPEAXI@Z 000000018000cff0 f i BerconGradient.obj
 0001:0000bff0       ??_EICustomControl@@UEAAPEAXI@Z 000000018000cff0 f i BerconGradient.obj
 0001:0000c050       ??_EIGradient@@UEAAPEAXI@Z 000000018000d050 f i BerconGradient.obj
 0001:0000c050       ??_GIGradient@@UEAAPEAXI@Z 000000018000d050 f i BerconGradient.obj
 0001:0000c0e0       ?ActivateTexDisplay@BerconGradient@@UEAAXH@Z 000000018000d0e0 f i BerconGradient.obj
 0001:0000c110       ?Clone@BerconGradient@@UEAAPEAVReferenceTarget@@AEAVRemapDir@@@Z 000000018000d110 f   BerconGradient.obj
 0001:0000c2c0       ?CreateParamDlg@BerconGradient@@UEAAPEAVParamDlg@@PEAUHWND__@@PEAVIMtlParams@@@Z 000000018000d2c0 f   BerconGradient.obj
 0001:0000c3d0       ?DeleteThis@BerconGradient@@UEAAXXZ 000000018000d3d0 f i BerconGradient.obj
 0001:0000c400       ?DiscardTexHandle@BerconGradient@@QEAAXXZ 000000018000d400 f i BerconGradient.obj
 0001:0000c430       ?DlgProc@BerconGradientDlgProc@@UEAA_JHPEAVIParamMap2@@PEAUHWND__@@I_K_J@Z 000000018000d430 f   BerconGradient.obj
 0001:0000d0a0       ?EnableStuff@BerconGradient@@QEAAXXZ 000000018000e0a0 f   BerconGradient.obj
 0001:0000d400       ?EvalColor@BerconGradient@@UEAA?AVAColor@@AEAVShadeContext@@@Z 000000018000e400 f   BerconGradient.obj
 0001:0000d5c0       ?EvalMono@BerconGradient@@UEAAMAEAVShadeContext@@@Z 000000018000e5c0 f   BerconGradient.obj
 0001:0000d5f0       ?EvalNormalPerturb@BerconGradient@@UEAA?AVPoint3@@AEAVShadeContext@@@Z 000000018000e5f0 f   BerconGradient.obj
 0001:0000db00       ?GetActiveTexHandle@BerconGradient@@UEAA_KHAEAVTexHandleMaker@@@Z 000000018000eb00 f   BerconGradient.obj
 0001:0000dbc0       ?GetBerconGradientDesc@@YAPEAVClassDesc2@@XZ 000000018000ebc0 f   BerconGradient.obj
 0001:0000dbd0       ?GetClassName@BerconGradient@@UEAAXAEAVWStr@@@Z 000000018000ebd0 f i BerconGradient.obj
 0001:0000dc00       ?GetHwnd@IGradient@@UEAAPEAUHWND__@@XZ 000000018000ec00 f i BerconGradient.obj
 0001:0000dc10       ?GetInterface@BerconWood@@UEAAPEAXK@Z 000000018000ec10 f i BerconWood.obj
 0001:0000dc10       ?GetInterface@BerconNoise@@UEAAPEAXK@Z 000000018000ec10 f i BerconNoise.obj
 0001:0000dc10       ?GetInterface@BerconGradient@@UEAAPEAXK@Z 000000018000ec10 f i BerconGradient.obj
 0001:0000dc10       ?GetInterface@BerconTile@@UEAAPEAXK@Z 000000018000ec10 f i BerconTile.obj
 0001:0000dc18       ?GetInterface@BerconGradient@@WJA@EAAPEAXK@Z 000000018000ec18 f i BerconGradient.obj
 0001:0000dc18       ?GetInterface@BerconWood@@WJA@EAAPEAXK@Z 000000018000ec18 f i BerconWood.obj
 0001:0000dc18       ?GetInterface@BerconTile@@WJA@EAAPEAXK@Z 000000018000ec18 f i BerconTile.obj
 0001:0000dc18       ?GetInterface@BerconNoise@@WJA@EAAPEAXK@Z 000000018000ec18 f i BerconNoise.obj
 0001:0000dc30       ?GetParamBlock@BerconGradient@@UEAAPEAVIParamBlock2@@H@Z 000000018000ec30 f i BerconGradient.obj
 0001:0000dc50       ?GetParamBlockByID@BerconGradient@@UEAAPEAVIParamBlock2@@F@Z 000000018000ec50 f i BerconGradient.obj
 0001:0000dcc0       ?GetReference@BerconGradient@@UEAAPEAVReferenceTarget@@H@Z 000000018000ecc0 f   BerconGradient.obj
 0001:0000dd50       ?GetSubTexmap@BerconGradient@@UEAAPEAVTexmap@@H@Z 000000018000ed50 f   BerconGradient.obj
 0001:0000dd90       ?GetSubTexmapSlotName@BerconGradient@@UEAA?AVWStr@@H@Z 000000018000ed90 f   BerconGradient.obj
 0001:0000de40       ?LocalRequirements@BerconGradient@@UEAAKH@Z 000000018000ee40 f i BerconGradient.obj
 0001:0000de60       ?MappingsRequired@BerconGradient@@UEAAXHAEAVBitArray@@0@Z 000000018000ee60 f i BerconGradient.obj
 0001:0000de80       ?NotifyRefChanged@BerconGradient@@UEAA?AW4RefResult@@AEBVInterval@@PEAVReferenceTarget@@AEA_KIH@Z 000000018000ee80 f   BerconGradient.obj
 0001:0000df90       ?NumSubTexmaps@BerconGradient@@UEAAHXZ 000000018000ef90 f i BerconGradient.obj
 0001:0000dfa0       ?NumSubs@BerconGradient@@UEAAHXZ 000000018000efa0 f i BerconGradient.obj
 0001:0000dfa0       ?NumRefs@BerconGradient@@UEAAHXZ 000000018000efa0 f i BerconGradient.obj
 0001:0000dfb0       ?RenderBegin@BerconGradient@@UEAAHHK@Z 000000018000efb0 f i BerconGradient.obj
 0001:0000dfd0       ?RenderEnd@BerconGradient@@UEAAHH@Z 000000018000efd0 f i BerconGradient.obj
 0001:0000dfe0       ?Reset@BerconGradient@@UEAAXXZ 000000018000efe0 f   BerconGradient.obj
 0001:0000e2d0       ?SetDlgThing@BerconGradient@@UEAAHPEAVParamDlg@@@Z 000000018000f2d0 f   BerconGradient.obj
 0001:0000e310       ?SetReference@BerconGradient@@EEAAXHPEAVReferenceTarget@@@Z 000000018000f310 f   BerconGradient.obj
 0001:0000e420       ?SetSubTexmap@BerconGradient@@UEAAXHPEAVTexmap@@@Z 000000018000f420 f   BerconGradient.obj
 0001:0000e4b0       ?SetThing@BerconGradientDlgProc@@UEAAXPEAVReferenceTarget@@@Z 000000018000f4b0 f i BerconGradient.obj
 0001:0000e560       ?SubAnim@BerconGradient@@UEAAPEAVAnimatable@@H@Z 000000018000f560 f   BerconGradient.obj
 0001:0000e5f0       ?SubAnimName@BerconGradient@@UEAA?AVWStr@@H@Z 000000018000f5f0 f   BerconGradient.obj
 0001:0000e680       ?Update@BerconGradient@@UEAAXHAEAVInterval@@@Z 000000018000f680 f   BerconGradient.obj
 0001:0000ed70       ?Validity@BerconGradient@@UEAA?AVInterval@@H@Z 000000018000fd70 f   BerconGradient.obj
 0001:0000edc0       ?countKeys@BerconGradient@@QEAAHXZ 000000018000fdc0 f   BerconGradient.obj
 0001:0000ee60       ?getGradientValue@BerconGradient@@QEAAMAEAVShadeContext@@@Z 000000018000fe60 f   BerconGradient.obj
 0001:0000f1c0       ?getGradientValueDist@BerconGradient@@QEAAMAEAVShadeContext@@@Z 00000001800101c0 f   BerconGradient.obj
 0001:0000f570       ?getGradientValueNormal@BerconGradient@@QEAAMAEAVShadeContext@@@Z 0000000180010570 f   BerconGradient.obj
 0001:0000f920       ?getGradientValueUVW@BerconGradient@@QEAAMVPoint3@@@Z 0000000180010920 f   BerconGradient.obj
 0001:0000fcb0       ?gradAddKey@BerconGradient@@UEAAXM@Z 0000000180010cb0 f   BerconGradient.obj
 0001:0000fdc0       ?gradDelKey@BerconGradient@@UEAAXH@Z 0000000180010dc0 f   BerconGradient.obj
 0001:0000fea0       ?gradMoveKey@BerconGradient@@UEAAXHM@Z 0000000180010ea0 f   BerconGradient.obj
 0001:0000ff70       ?gradReset@BerconGradient@@UEAAXXZ 0000000180010f70 f i BerconGradient.obj
 0001:0000ff80       ?gradSelKey@BerconGradient@@UEAAXXZ 0000000180010f80 f   BerconGradient.obj
 0001:00010010       ?keyColorChanged@BerconGradient@@QEAAXVAColor@@@Z 0000000180011010 f   BerconGradient.obj
 0001:000100c0       ?keyNumChanged@BerconGradient@@QEAAXH@Z 00000001800110c0 f   BerconGradient.obj
 0001:00010150       ?keyPosChanged@BerconGradient@@QEAAXM@Z 0000000180011150 f   BerconGradient.obj
 0001:00010200       ?limitRange@BerconGradient@@QEAAHAEAM@Z 0000000180011200 f   BerconGradient.obj
 0001:000102d0       ?resetKeys@BerconGradient@@QEAAXXZ 00000001800112d0 f   BerconGradient.obj
 0001:000103c0       ?seedRandomGen@BerconGradient@@QEAAXAEAVShadeContext@@@Z 00000001800113c0 f   BerconGradient.obj
 0001:00010530       ?setKeyTex@BerconGradient@@QEAAXPEAVTexmap@@@Z 0000000180011530 f   BerconGradient.obj
 0001:000105c0       ?Create@BerconTileClassDesc@@UEAAPEAXH@Z 00000001800115c0 f i BerconTile.obj
 0001:00010600       ?ClassName@BerconTileClassDesc@@UEAAPEB_WXZ 0000000180011600 f i BerconTile.obj
 0001:00010610       ?Category@BerconDistortionClassDesc@@UEAAPEB_WXZ 0000000180011610 f i BerconDistortion.obj
 0001:00010610       ?Category@BerconNoiseClassDesc@@UEAAPEB_WXZ 0000000180011610 f i BerconNoise.obj
 0001:00010610       ?Category@BerconTileClassDesc@@UEAAPEB_WXZ 0000000180011610 f i BerconTile.obj
 0001:00010610       ?Category@BerconGradientClassDesc@@UEAAPEB_WXZ 0000000180011610 f i BerconGradient.obj
 0001:00010610       ?Category@BerconWoodClassDesc@@UEAAPEB_WXZ 0000000180011610 f i BerconWood.obj
 0001:00010620       ?InternalName@BerconTileClassDesc@@UEAAPEB_WXZ 0000000180011620 f i BerconTile.obj
 0001:00010630       ??_EBerconTileClassDesc@@UEAAPEAXI@Z 0000000180011630 f i BerconTile.obj
 0001:00010630       ??_GBerconTileClassDesc@@UEAAPEAXI@Z 0000000180011630 f i BerconTile.obj
 0001:00010690       ??$_Destroy_range1@V?$allocator@VTileRow@@@std@@PEAVTileRow@@@std@@YAXPEAVTileRow@@0AEAU?$_Wrap_alloc@V?$allocator@VTileRow@@@std@@@0@U?$integral_constant@_N$0A@@0@@Z 0000000180011690 f i BerconTile.obj
 0001:00010780       ??0BerconTile@@QEAA@XZ     0000000180011780 f   BerconTile.obj
 0001:00010990       ??1?$basic_string@_WU?$char_traits@_W@std@@V?$allocator@_W@2@@std@@QEAA@XZ 0000000180011990 f i BerconTile.obj
 0001:000109e0       ??1?$vector@MV?$allocator@M@std@@@std@@QEAA@XZ 00000001800119e0 f i BerconTile.obj
 0001:00010a20       ??1?$vector@VTileRow@@V?$allocator@VTileRow@@@std@@@std@@QEAA@XZ 0000000180011a20 f i BerconTile.obj
 0001:00010a80       ??1BerconTile@@UEAA@XZ     0000000180011a80 f   BerconTile.obj
 0001:00010b00       ??1TilePattern@@QEAA@XZ    0000000180011b00 f i BerconTile.obj
 0001:00010ba0       ??_EBerconTile@@WEA@EAAPEAXI@Z 0000000180011ba0 f i BerconTile.obj
 0001:00010bb0       ??_EBerconTile@@UEAAPEAXI@Z 0000000180011bb0 f i BerconTile.obj
 0001:00010bb0       ??_GBerconTile@@UEAAPEAXI@Z 0000000180011bb0 f i BerconTile.obj
 0001:00010c00       ??_EBerconTileDlgProc@@UEAAPEAXI@Z 0000000180011c00 f i BerconTile.obj
 0001:00010c00       ??_GBerconTileDlgProc@@UEAAPEAXI@Z 0000000180011c00 f i BerconTile.obj
 0001:00010c50       ?ActivateTexDisplay@BerconTile@@UEAAXH@Z 0000000180011c50 f i BerconTile.obj
 0001:00010c80       ?ClassID@BerconTileClassDesc@@UEAA?AVClass_ID@@XZ 0000000180011c80 f i BerconTile.obj
 0001:00010c80       ?ClassID@BerconTile@@UEAA?AVClass_ID@@XZ 0000000180011c80 f i BerconTile.obj
 0001:00010ca0       ?Clone@BerconTile@@UEAAPEAVReferenceTarget@@AEAVRemapDir@@@Z 0000000180011ca0 f   BerconTile.obj
 0001:00010e20       ?CreateParamDlg@BerconTile@@UEAAPEAVParamDlg@@PEAUHWND__@@PEAVIMtlParams@@@Z 0000000180011e20 f   BerconTile.obj
 0001:00010f40       ?DeleteThis@BerconTile@@UEAAXXZ 0000000180011f40 f i BerconTile.obj
 0001:00010f70       ?DiscardTexHandle@BerconTile@@QEAAXXZ 0000000180011f70 f i BerconTile.obj
 0001:00010fa0       ?DlgProc@BerconTileDlgProc@@UEAA_JHPEAVIParamMap2@@PEAUHWND__@@I_K_J@Z 0000000180011fa0 f   BerconTile.obj
 0001:00011570       ?EnableStuff@BerconTile@@QEAAXH@Z 0000000180012570 f   BerconTile.obj
 0001:000119e0       ?EvalColor@BerconTile@@UEAA?AVAColor@@AEAVShadeContext@@@Z 00000001800129e0 f   BerconTile.obj
 0001:00011fa0       ?EvalMono@BerconTile@@UEAAMAEAVShadeContext@@@Z 0000000180012fa0 f   BerconTile.obj
 0001:00011fd0       ?EvalNormalPerturb@BerconTile@@UEAA?AVPoint3@@AEAVShadeContext@@@Z 0000000180012fd0 f   BerconTile.obj
 0001:000129a0       ?EvalParameters@BerconTile@@QEAA?AVTileParam@@AEAVShadeContext@@@Z 00000001800139a0 f   BerconTile.obj
 0001:00012ac0       ?GetActiveTexHandle@BerconTile@@UEAA_KHAEAVTexHandleMaker@@@Z 0000000180013ac0 f   BerconTile.obj
 0001:00012b80       ?GetBerconTileDesc@@YAPEAVClassDesc2@@XZ 0000000180013b80 f   BerconTile.obj
 0001:00012b90       ?GetClassName@BerconTile@@UEAAXAEAVWStr@@@Z 0000000180013b90 f i BerconTile.obj
 0001:00012bc0       ?GetParamBlock@BerconTile@@UEAAPEAVIParamBlock2@@H@Z 0000000180013bc0 f i BerconTile.obj
 0001:00012bf0       ?GetParamBlockByID@BerconTile@@UEAAPEAVIParamBlock2@@F@Z 0000000180013bf0 f i BerconTile.obj
 0001:00012c90       ?SubAnim@BerconTile@@UEAAPEAVAnimatable@@H@Z 0000000180013c90 f   BerconTile.obj
 0001:00012c90       ?GetReference@BerconTile@@UEAAPEAVReferenceTarget@@H@Z 0000000180013c90 f   BerconTile.obj
 0001:00012ce0       ?GetSubTexmap@BerconTile@@UEAAPEAVTexmap@@H@Z 0000000180013ce0 f i BerconTile.obj
 0001:00012cf0       ?GetSubTexmapSlotName@BerconTile@@UEAA?AVWStr@@H@Z 0000000180013cf0 f   BerconTile.obj
 0001:00012de0       ?LocalRequirements@BerconTile@@UEAAKH@Z 0000000180013de0 f i BerconTile.obj
 0001:00012e00       ?MappingsRequired@BerconTile@@UEAAXHAEAVBitArray@@0@Z 0000000180013e00 f i BerconTile.obj
 0001:00012e20       ?NotifyRefChanged@BerconTile@@UEAA?AW4RefResult@@AEBVInterval@@PEAVReferenceTarget@@AEA_KIH@Z 0000000180013e20 f   BerconTile.obj
 0001:00012f10       ?NumRefs@BerconTile@@UEAAHXZ 0000000180013f10 f i BerconTile.obj
 0001:00012f20       ?NumSubTexmaps@BerconTile@@UEAAHXZ 0000000180013f20 f i BerconTile.obj
 0001:00012f30       ?Reset@BerconTile@@UEAAXXZ 0000000180013f30 f   BerconTile.obj
 0001:00013530       ?SetDlgThing@BerconTile@@UEAAHPEAVParamDlg@@@Z 0000000180014530 f   BerconTile.obj
 0001:00013570       ?SetReference@BerconTile@@EEAAXHPEAVReferenceTarget@@@Z 0000000180014570 f   BerconTile.obj
 0001:000135c0       ?SetSubTexmap@BerconTile@@UEAAXHPEAVTexmap@@@Z 00000001800145c0 f   BerconTile.obj
 0001:000136b0       ?SetThing@BerconTileDlgProc@@UEAAXPEAVReferenceTarget@@@Z 00000001800146b0 f i BerconTile.obj
 0001:000136e0       ?SubAnimName@BerconTile@@UEAA?AVWStr@@H@Z 00000001800146e0 f   BerconTile.obj
 0001:00013780       ?BuildMaps@MtlBase@@UEAAHHAEAVRenderMapsContext@@@Z 0000000180014780 f i BerconDistortion.obj
 0001:00013780       ?CanMakeUnique@Animatable@@UEAAHXZ 0000000180014780 f i BerconDistortion.obj
 0001:00013780       ?NumSubs@BerconWood@@UEAAHXZ 0000000180014780 f i BerconWood.obj
 0001:00013780       ?IsRefTarget@ReferenceTarget@@UEAAHXZ 0000000180014780 f i BerconDistortion.obj
 0001:00013780       ?GetSelKeyCoords@Animatable@@UEAAHAEAHAEAMK@Z 0000000180014780 f i BerconDistortion.obj
 0001:00013780       ?IsEnabled@IGradient@@UEAAHXZ 0000000180014780 f i BerconGradient.obj
 0001:00013780       ?IsPublic@BerconWoodClassDesc@@UEAAHXZ 0000000180014780 f i BerconWood.obj
 0001:00013780       ?IsPublic@BerconTileClassDesc@@UEAAHXZ 0000000180014780 f i BerconTile.obj
 0001:00013780       ?SupportTexDisplay@BerconNoise@@UEAAHXZ 0000000180014780 f i BerconNoise.obj
 0001:00013780       ?SubTexmapOn@ISubMap@@UEAAHH@Z 0000000180014780 f i BerconDistortion.obj
 0001:00013780       ?CanCopyAnim@Animatable@@UEAAHXZ 0000000180014780 f i BerconDistortion.obj
 0001:00013780       ?OkToCreate@ClassDesc@@UEAAHPEAVInterface@@@Z 0000000180014780 f i BerconDistortion.obj
 0001:00013780       _get_startup_argv_mode     0000000180014780 f i MSVCRT:argv_mode.obj
 0001:00013780       ?LibShutdown@@YAHXZ        0000000180014780 f i DllEntry.obj
 0001:00013780       ?IsRefMaker@ReferenceMaker@@UEAAHXZ 0000000180014780 f i BerconDistortion.obj
 0001:00013780       ?IsPublic@BerconGradientClassDesc@@UEAAHXZ 0000000180014780 f i BerconGradient.obj
 0001:00013780       ?GetTransparencyHint@MtlBase@@UEAAHHAEAVInterval@@@Z 0000000180014780 f i BerconDistortion.obj
 0001:00013780       ?IsRealDependency@ReferenceMaker@@UEAAHPEAVReferenceTarget@@@Z 0000000180014780 f i BerconDistortion.obj
 0001:00013780       ?SupportTexDisplay@BerconTile@@UEAAHXZ 0000000180014780 f i BerconTile.obj
 0001:00013780       ?NumSubs@BerconNoise@@UEAAHXZ 0000000180014780 f i BerconNoise.obj
 0001:00013780       ?LoadMapFiles@Texmap@@UEAAHH@Z 0000000180014780 f i BerconDistortion.obj
 0001:00013780       ?GetMapChannel@Texmap@@UEAAHXZ 0000000180014780 f i BerconDistortion.obj
 0001:00013780       ?GetTrackVSpace@Animatable@@UEAAHH@Z 0000000180014780 f i BerconDistortion.obj
 0001:00013780       ?SupportTexDisplay@BerconGradient@@UEAAHXZ 0000000180014780 f i BerconGradient.obj
 0001:00013780       ?SupportTexDisplay@BerconDistortion@@UEAAHXZ 0000000180014780 f i BerconDistortion.obj
 0001:00013780       ?NumSubs@BerconTile@@UEAAHXZ 0000000180014780 f i BerconTile.obj
 0001:00013780       ?LibInitialize@@YAHXZ      0000000180014780 f i DllEntry.obj
 0001:00013780       ?IsPublic@BerconNoiseClassDesc@@UEAAHXZ 0000000180014780 f i BerconNoise.obj
 0001:00013780       ?CanAssignController@Animatable@@UEAAHH@Z 0000000180014780 f i BerconDistortion.obj
 0001:00013780       ?CanTransferReference@ReferenceMaker@@UEAAHH@Z 0000000180014780 f i BerconDistortion.obj
 0001:00013780       ?IsPublic@BerconDistortionClassDesc@@UEAAHXZ 0000000180014780 f i BerconDistortion.obj
 0001:00013780       ?SupportTexDisplay@BerconWood@@UEAAHXZ 0000000180014780 f i BerconWood.obj
 0001:00013790       ?Update@BerconTile@@UEAAXHAEAVInterval@@@Z 0000000180014790 f   BerconTile.obj
 0001:00013ff0       ?Validity@BerconTile@@UEAA?AVInterval@@H@Z 0000000180014ff0 f   BerconTile.obj
 0001:00014040       ?_Copy@?$basic_string@_WU?$char_traits@_W@std@@V?$allocator@_W@2@@std@@QEAAX_K0@Z 0000000180015040 f i BerconTile.obj
 0001:00014170       ?allocate@?$allocator@_W@std@@QEAAPEA_W_K@Z 0000000180015170 f i BerconTile.obj
 0001:000141f0       ?assign@?$basic_string@_WU?$char_traits@_W@std@@V?$allocator@_W@2@@std@@QEAAAEAV12@AEBV12@_K1@Z 00000001800151f0 f i BerconTile.obj
 0001:00014330       ?assign@?$basic_string@_WU?$char_traits@_W@std@@V?$allocator@_W@2@@std@@QEAAAEAV12@PEB_W_K@Z 0000000180015330 f i BerconTile.obj
 0001:00014480       ?checkValues@TileParam@@QEAAXXZ 0000000180015480 f i BerconTile.obj
 0001:00014580       ?deallocate@?$allocator@M@std@@QEAAXPEAM_K@Z 0000000180015580 f i BerconTile.obj
 0001:00014600       ?deallocate@?$allocator@_W@std@@QEAAXPEA_W_K@Z 0000000180015600 f i BerconTile.obj
 0001:00014670       ?erase@?$basic_string@_WU?$char_traits@_W@std@@V?$allocator@_W@2@@std@@QEAAAEAV12@_K0@Z 0000000180015670 f i BerconTile.obj
 0001:00014720       ?getColor@BerconTile@@QEAA?AVAColor@@AEAVShadeContext@@H@Z 0000000180015720 f i BerconTile.obj
 0001:000147c0       ?getDistVector@BerconTile@@QEAA?AVPoint3@@AEAVShadeContext@@@Z 00000001800157c0 f   BerconTile.obj
 0001:000148e0       ?getFloat@BerconTile@@QEAAMAEAVShadeContext@@H@Z 00000001800158e0 f i BerconTile.obj
 0001:00014930       ?getNormal@BerconTile@@QEAA?AVPoint3@@AEAVShadeContext@@H@Z 0000000180015930 f i BerconTile.obj
 0001:000149a0       ?update@TilePattern@@QEAAXXZ 00000001800159a0 f i BerconTile.obj
 0001:00014a60       ?Create@BerconWoodClassDesc@@UEAAPEAXH@Z 0000000180015a60 f i BerconWood.obj
 0001:00014aa0       ?ClassName@BerconWoodClassDesc@@UEAAPEB_WXZ 0000000180015aa0 f i BerconWood.obj
 0001:00014ab0       ?ClassID@BerconWoodClassDesc@@UEAA?AVClass_ID@@XZ 0000000180015ab0 f i BerconWood.obj
 0001:00014ab0       ?ClassID@BerconWood@@UEAA?AVClass_ID@@XZ 0000000180015ab0 f i BerconWood.obj
 0001:00014ad0       ?InternalName@BerconWoodClassDesc@@UEAAPEB_WXZ 0000000180015ad0 f i BerconWood.obj
 0001:00014ae0       ??_GBerconWoodClassDesc@@UEAAPEAXI@Z 0000000180015ae0 f i BerconWood.obj
 0001:00014ae0       ??_EBerconWoodClassDesc@@UEAAPEAXI@Z 0000000180015ae0 f i BerconWood.obj
 0001:00014b40       ??0BerconWood@@QEAA@XZ     0000000180015b40 f   BerconWood.obj
 0001:00014c60       ??1BerconWood@@UEAA@XZ     0000000180015c60 f   BerconWood.obj
 0001:00014cc8       ??_EBerconWood@@WEA@EAAPEAXI@Z 0000000180015cc8 f i BerconWood.obj
 0001:00014ce0       ??_EBerconWood@@UEAAPEAXI@Z 0000000180015ce0 f i BerconWood.obj
 0001:00014ce0       ??_GBerconWood@@UEAAPEAXI@Z 0000000180015ce0 f i BerconWood.obj
 0001:00014d30       ??_EBerconWoodDlgProc@@UEAAPEAXI@Z 0000000180015d30 f i BerconWood.obj
 0001:00014d30       ??_GBerconWoodDlgProc@@UEAAPEAXI@Z 0000000180015d30 f i BerconWood.obj
 0001:00014d80       ?ActivateTexDisplay@BerconWood@@UEAAXH@Z 0000000180015d80 f i BerconWood.obj
 0001:00014db0       ?Clone@BerconWood@@UEAAPEAVReferenceTarget@@AEAVRemapDir@@@Z 0000000180015db0 f   BerconWood.obj
 0001:00014f30       ?CreateParamDlg@BerconWood@@UEAAPEAVParamDlg@@PEAUHWND__@@PEAVIMtlParams@@@Z 0000000180015f30 f   BerconWood.obj
 0001:00015030       ?DeleteThis@BerconWood@@UEAAXXZ 0000000180016030 f i BerconWood.obj
 0001:00015060       ?DiscardTexHandle@BerconWood@@QEAAXXZ 0000000180016060 f i BerconWood.obj
 0001:00015090       ?DlgProc@BerconWoodDlgProc@@UEAA_JHPEAVIParamMap2@@PEAUHWND__@@I_K_J@Z 0000000180016090 f   BerconWood.obj
 0001:00015210       ?EnableStuff@BerconWood@@QEAAXXZ 0000000180016210 f   BerconWood.obj
 0001:000153c0       ?EvalColor@BerconWood@@UEAA?AVAColor@@AEAVShadeContext@@@Z 00000001800163c0 f   BerconWood.obj
 0001:00015a50       ?EvalMono@BerconWood@@UEAAMAEAVShadeContext@@@Z 0000000180016a50 f   BerconWood.obj
 0001:00015a80       ?EvalNormalPerturb@BerconWood@@UEAA?AVPoint3@@AEAVShadeContext@@@Z 0000000180016a80 f   BerconWood.obj
 0001:00016480       ?EvalParameters@BerconWood@@QEAA?AVWoodParam@@AEAVShadeContext@@@Z 0000000180017480 f   BerconWood.obj
 0001:00016870       ?GetActiveTexHandle@BerconWood@@UEAA_KHAEAVTexHandleMaker@@@Z 0000000180017870 f   BerconWood.obj
 0001:00016930       ?GetBerconWoodDesc@@YAPEAVClassDesc2@@XZ 0000000180017930 f   BerconWood.obj
 0001:00016940       ?GetClassName@BerconWood@@UEAAXAEAVWStr@@@Z 0000000180017940 f i BerconWood.obj
 0001:00016970       ?GetParamBlock@BerconWood@@UEAAPEAVIParamBlock2@@H@Z 0000000180017970 f i BerconWood.obj
 0001:000169a0       ?GetParamBlockByID@BerconWood@@UEAAPEAVIParamBlock2@@F@Z 00000001800179a0 f i BerconWood.obj
 0001:00016a40       ?GetReference@BerconWood@@UEAAPEAVReferenceTarget@@H@Z 0000000180017a40 f   BerconWood.obj
 0001:00016a40       ?SubAnim@BerconWood@@UEAAPEAVAnimatable@@H@Z 0000000180017a40 f   BerconWood.obj
 0001:00016a90       ?GetSubTexmap@BerconWood@@UEAAPEAVTexmap@@H@Z 0000000180017a90 f i BerconWood.obj
 0001:00016aa0       ?GetSubTexmapSlotName@BerconWood@@UEAA?AVWStr@@H@Z 0000000180017aa0 f   BerconWood.obj
 0001:00016cd0       ?LocalRequirements@BerconWood@@UEAAKH@Z 0000000180017cd0 f i BerconWood.obj
 0001:00016cf0       ?MappingsRequired@BerconWood@@UEAAXHAEAVBitArray@@0@Z 0000000180017cf0 f i BerconWood.obj
 0001:00016d10       ?NotifyRefChanged@BerconWood@@UEAA?AW4RefResult@@AEBVInterval@@PEAVReferenceTarget@@AEA_KIH@Z 0000000180017d10 f   BerconWood.obj
 0001:00016e00       ?NumRefs@BerconWood@@UEAAHXZ 0000000180017e00 f i BerconWood.obj
 0001:00016e10       ?NumSubTexmaps@BerconWood@@UEAAHXZ 0000000180017e10 f i BerconWood.obj
 0001:00016e20       ?Reset@BerconWood@@UEAAXXZ 0000000180017e20 f   BerconWood.obj
 0001:00017350       ?SetDlgThing@BerconWood@@UEAAHPEAVParamDlg@@@Z 0000000180018350 f   BerconWood.obj
 0001:00017390       ?SetReference@BerconWood@@EEAAXHPEAVReferenceTarget@@@Z 0000000180018390 f   BerconWood.obj
 0001:000173e0       ?SetSubTexmap@BerconWood@@UEAAXHPEAVTexmap@@@Z 00000001800183e0 f   BerconWood.obj
 0001:000174d0       ?SetThing@BerconWoodDlgProc@@UEAAXPEAVReferenceTarget@@@Z 00000001800184d0 f i BerconWood.obj
 0001:000174e0       ?SubAnimName@BerconWood@@UEAA?AVWStr@@H@Z 00000001800184e0 f   BerconWood.obj
 0001:000175d0       ?SuperClassID@BerconNoise@@UEAAKXZ 00000001800185d0 f i BerconNoise.obj
 0001:000175d0       ?SuperClassID@BerconWood@@UEAAKXZ 00000001800185d0 f i BerconWood.obj
 0001:000175d0       ?SuperClassID@BerconWoodClassDesc@@UEAAKXZ 00000001800185d0 f i BerconWood.obj
 0001:000175d0       ?SuperClassID@BerconTileClassDesc@@UEAAKXZ 00000001800185d0 f i BerconTile.obj
 0001:000175d0       ?SuperClassID@BerconTile@@UEAAKXZ 00000001800185d0 f i BerconTile.obj
 0001:000175d0       ?SuperClassID@BerconGradient@@UEAAKXZ 00000001800185d0 f i BerconGradient.obj
 0001:000175d0       ?SuperClassID@BerconDistortion@@UEAAKXZ 00000001800185d0 f i BerconDistortion.obj
 0001:000175d0       ?SuperClassID@BerconDistortionClassDesc@@UEAAKXZ 00000001800185d0 f i BerconDistortion.obj
 0001:000175d0       ?SuperClassID@BerconGradientClassDesc@@UEAAKXZ 00000001800185d0 f i BerconGradient.obj
 0001:000175d0       ?SuperClassID@BerconNoiseClassDesc@@UEAAKXZ 00000001800185d0 f i BerconNoise.obj
 0001:000175e0       ?Update@BerconWood@@UEAAXHAEAVInterval@@@Z 00000001800185e0 f   BerconWood.obj
 0001:00017be0       ?Validity@BerconWood@@UEAA?AVInterval@@H@Z 0000000180018be0 f   BerconWood.obj
 0001:00017c30       ?applyDistortion@BerconWood@@QEAAXAEAVShadeContext@@AEAVPoint3@@@Z 0000000180018c30 f   BerconWood.obj
 0001:00017d50       ?GetString@@YAPEA_WH@Z     0000000180018d50 f   DllEntry.obj
 0001:00017da0       ?LibClassDesc@@YAPEAVClassDesc@@H@Z 0000000180018da0 f   DllEntry.obj
 0001:00017e10       ?LibDescription@@YAPEB_WXZ 0000000180018e10 f   DllEntry.obj
 0001:00017e60       ?NumSubs@BerconDistortion@@UEAAHXZ 0000000180018e60 f   BerconDistortion.obj
 0001:00017e60       ?NumRefs@BerconDistortion@@UEAAHXZ 0000000180018e60 f   BerconDistortion.obj
 0001:00017e60       ?LibNumberClasses@@YAHXZ   0000000180018e60 f   DllEntry.obj
 0001:00017e70       ?LibVersion@@YAKXZ         0000000180018e70 f   DllEntry.obj
 0001:00017e80       CommctrlIsolationAwarePrivatetRgCebPnQQeRff_pbZPgYQP_QYY 0000000180018e80 f i DllEntry.obj
 0001:00017f50       DllMain                    0000000180018f50 f   DllEntry.obj
 0001:00017fa0       IsolationAwareInitCommonControls 0000000180018fa0 f i DllEntry.obj
 0001:00018090       IsolationAwarePrivatenPgViNgRzlnPgpgk 0000000180019090 f i DllEntry.obj
 0001:00018120       IsolationAwarePrivatezlybNQyVOeNelJ 0000000180019120 f i DllEntry.obj
 0001:00018130       WinbaseIsolationAwarePrivatetRgzlnPgpgk 0000000180019130 f i DllEntry.obj
 0001:000182f0       ?EnableStuff@BerconXYZ@@AEAAXPEAVIParamBlock2@@H@Z 00000001800192f0 f   BerconCommon.obj
 0001:000185c0       ?get@BerconXYZ@@AEAAHAEAVShadeContext@@AEAVPoint3@@11VMatrix3@@PEAH@Z 00000001800195c0 f   BerconCommon.obj
 0001:00018a50       ?get@BerconXYZ@@AEAAHAEAVShadeContext@@AEAVPoint3@@VMatrix3@@PEAH@Z 0000000180019a50 f   BerconCommon.obj
 0001:00018c90       ?get@BerconXYZ@@QEAAHAEAVShadeContext@@AEAVPoint3@@11@Z 0000000180019c90 f   BerconCommon.obj
 0001:00018d80       ?get@BerconXYZ@@QEAAHAEAVShadeContext@@AEAVPoint3@@11PEAV3@@Z 0000000180019d80 f   BerconCommon.obj
 0001:00019130       ?get@BerconXYZ@@QEAAHAEAVShadeContext@@AEAVPoint3@@@Z 000000018001a130 f   BerconCommon.obj
 0001:00019200       ?get@BerconXYZ@@QEAAHAEAVShadeContext@@AEAVPoint3@@PEAV3@@Z 000000018001a200 f   BerconCommon.obj
 0001:00019580       ?getBasis@BerconXYZ@@AEAAXVMatrix3@@PEAVPoint3@@@Z 000000018001a580 f   BerconCommon.obj
 0001:00019730       ?random@BerconXYZ@@AEAA?AVMatrix3@@AEAVShadeContext@@PEAV2@@Z 000000018001a730 f   BerconCommon.obj
 0001:00019a40       ?reset@BerconXYZ@@QEAAXPEAVIParamBlock2@@AEAVInterval@@HHHH@Z 000000018001aa40 f   BerconCommon.obj
 0001:00019de0       ?seedRandomGen@BerconXYZ@@AEAAXAEAVShadeContext@@@Z 000000018001ade0 f   BerconCommon.obj
 0001:0001a210       ?update@BerconXYZ@@QEAAXPEAVIParamBlock2@@HAEAVInterval@@@Z 000000018001b210 f   BerconCommon.obj
 0001:0001a730       ?update@BerconXYZ@@QEAAXXZ 000000018001b730 f   BerconCommon.obj
 0001:0001a8d0       ?Create@BerconNoiseClassDesc@@UEAAPEAXH@Z 000000018001b8d0 f i BerconNoise.obj
 0001:0001a910       ?ClassName@BerconNoiseClassDesc@@UEAAPEB_WXZ 000000018001b910 f i BerconNoise.obj
 0001:0001a920       ?InternalName@BerconNoiseClassDesc@@UEAAPEB_WXZ 000000018001b920 f i BerconNoise.obj
 0001:0001a930       ?HInstance@BerconGradientClassDesc@@UEAAPEAUHINSTANCE__@@XZ 000000018001b930 f i BerconGradient.obj
 0001:0001a930       ?HInstance@BerconTileClassDesc@@UEAAPEAUHINSTANCE__@@XZ 000000018001b930 f i BerconTile.obj
 0001:0001a930       ?HInstance@BerconWoodClassDesc@@UEAAPEAUHINSTANCE__@@XZ 000000018001b930 f i BerconWood.obj
 0001:0001a930       ?HInstance@BerconDistortionClassDesc@@UEAAPEAUHINSTANCE__@@XZ 000000018001b930 f i BerconDistortion.obj
 0001:0001a930       ?HInstance@BerconNoiseClassDesc@@UEAAPEAUHINSTANCE__@@XZ 000000018001b930 f i BerconNoise.obj
 0001:0001a940       ??_EBerconNoiseClassDesc@@UEAAPEAXI@Z 000000018001b940 f i BerconNoise.obj
 0001:0001a940       ??_GBerconNoiseClassDesc@@UEAAPEAXI@Z 000000018001b940 f i BerconNoise.obj
 0001:0001a9a0       ??0BerconNoise@@QEAA@XZ    000000018001b9a0 f   BerconNoise.obj
 0001:0001ab50       ??1BerconNoise@@UEAA@XZ    000000018001bb50 f   BerconNoise.obj
 0001:0001abb8       ??_EBerconNoise@@WEA@EAAPEAXI@Z 000000018001bbb8 f i BerconNoise.obj
 0001:0001abd0       ??_GBerconNoise@@UEAAPEAXI@Z 000000018001bbd0 f i BerconNoise.obj
 0001:0001abd0       ??_EBerconNoise@@UEAAPEAXI@Z 000000018001bbd0 f i BerconNoise.obj
 0001:0001ac20       ??_EBerconNoiseDlgProc@@UEAAPEAXI@Z 000000018001bc20 f i BerconNoise.obj
 0001:0001ac20       ??_GBerconNoiseDlgProc@@UEAAPEAXI@Z 000000018001bc20 f i BerconNoise.obj
 0001:0001ac70       ?ActivateTexDisplay@BerconNoise@@UEAAXH@Z 000000018001bc70 f i BerconNoise.obj
 0001:0001aca0       ?ClassID@BerconNoiseClassDesc@@UEAA?AVClass_ID@@XZ 000000018001bca0 f i BerconNoise.obj
 0001:0001aca0       ?ClassID@BerconNoise@@UEAA?AVClass_ID@@XZ 000000018001bca0 f i BerconNoise.obj
 0001:0001acc0       ?Clone@BerconNoise@@UEAAPEAVReferenceTarget@@AEAVRemapDir@@@Z 000000018001bcc0 f   BerconNoise.obj
 0001:0001ae60       ?CreateParamDlg@BerconNoise@@UEAAPEAVParamDlg@@PEAUHWND__@@PEAVIMtlParams@@@Z 000000018001be60 f   BerconNoise.obj
 0001:0001af60       ?DeleteThis@BerconNoise@@UEAAXXZ 000000018001bf60 f i BerconNoise.obj
 0001:0001af90       ?DeleteThis@BerconTileDlgProc@@UEAAXXZ 000000018001bf90 f i BerconTile.obj
 0001:0001af90       ?DeleteThis@BerconDistortion@@UEAAXXZ 000000018001bf90 f i BerconDistortion.obj
 0001:0001af90       ?DeleteThis@BerconNoiseDlgProc@@UEAAXXZ 000000018001bf90 f i BerconNoise.obj
 0001:0001af90       ?DeleteThis@BerconWoodDlgProc@@UEAAXXZ 000000018001bf90 f i BerconWood.obj
 0001:0001af90       ?DeleteThis@BerconGradientDlgProc@@UEAAXXZ 000000018001bf90 f i BerconGradient.obj
 0001:0001afb0       ?DiscardTexHandle@BerconNoise@@QEAAXXZ 000000018001bfb0 f i BerconNoise.obj
 0001:0001afe0       ?DlgProc@BerconNoiseDlgProc@@UEAA_JHPEAVIParamMap2@@PEAUHWND__@@I_K_J@Z 000000018001bfe0 f   BerconNoise.obj
 0001:0001b520       ?EnableStuff@BerconNoise@@QEAAXXZ 000000018001c520 f   BerconNoise.obj
 0001:0001b840       ?EvalColor@BerconNoise@@UEAA?AVAColor@@AEAVShadeContext@@@Z 000000018001c840 f   BerconNoise.obj
 0001:0001bcd0       ?EvalMono@BerconNoise@@UEAAMAEAVShadeContext@@@Z 000000018001ccd0 f   BerconNoise.obj
 0001:0001bd00       ?EvalNormalPerturb@BerconNoise@@UEAA?AVPoint3@@AEAVShadeContext@@@Z 000000018001cd00 f   BerconNoise.obj
 0001:0001c2b0       ?EvalParameters@BerconNoise@@QEAA?AVNoiseParams@@PEAVShadeContext@@@Z 000000018001d2b0 f   BerconNoise.obj
 0001:0001c6a0       ?GetActiveTexHandle@BerconNoise@@UEAA_KHAEAVTexHandleMaker@@@Z 000000018001d6a0 f   BerconNoise.obj
 0001:0001c760       ?GetBerconNoiseDesc@@YAPEAVClassDesc2@@XZ 000000018001d760 f   BerconNoise.obj
 0001:0001c770       ?GetClassName@BerconNoise@@UEAAXAEAVWStr@@@Z 000000018001d770 f i BerconNoise.obj
 0001:0001c7a0       ?GetParamBlock@BerconNoise@@UEAAPEAVIParamBlock2@@H@Z 000000018001d7a0 f i BerconNoise.obj
 0001:0001c7d0       ?GetParamBlockByID@BerconNoise@@UEAAPEAVIParamBlock2@@F@Z 000000018001d7d0 f i BerconNoise.obj
 0001:0001c870       ?SubAnim@BerconNoise@@UEAAPEAVAnimatable@@H@Z 000000018001d870 f   BerconNoise.obj
 0001:0001c870       ?GetReference@BerconNoise@@UEAAPEAVReferenceTarget@@H@Z 000000018001d870 f   BerconNoise.obj
 0001:0001c8c0       ?GetSubTexmap@BerconNoise@@UEAAPEAVTexmap@@H@Z 000000018001d8c0 f i BerconNoise.obj
 0001:0001c8d0       ?GetSubTexmapSlotName@BerconNoise@@UEAA?AVWStr@@H@Z 000000018001d8d0 f   BerconNoise.obj
 0001:0001cab0       ?LocalRequirements@BerconNoise@@UEAAKH@Z 000000018001dab0 f i BerconNoise.obj
 0001:0001cad0       ?MappingsRequired@BerconNoise@@UEAAXHAEAVBitArray@@0@Z 000000018001dad0 f i BerconNoise.obj
 0001:0001caf0       ?NotifyRefChanged@BerconNoise@@UEAA?AW4RefResult@@AEBVInterval@@PEAVReferenceTarget@@AEA_KIH@Z 000000018001daf0 f   BerconNoise.obj
 0001:0001cc00       ?NumRefs@BerconNoise@@UEAAHXZ 000000018001dc00 f i BerconNoise.obj
 0001:0001cc10       ?NumSubTexmaps@BerconNoise@@UEAAHXZ 000000018001dc10 f i BerconNoise.obj
 0001:0001cc20       ?Reset@BerconNoise@@UEAAXXZ 000000018001dc20 f   BerconNoise.obj
 0001:0001d0c0       ?SetDlgThing@BerconNoise@@UEAAHPEAVParamDlg@@@Z 000000018001e0c0 f   BerconNoise.obj
 0001:0001d100       ?SetReference@BerconNoise@@EEAAXHPEAVReferenceTarget@@@Z 000000018001e100 f   BerconNoise.obj
 0001:0001d150       ?SetSubTexmap@BerconNoise@@UEAAXHPEAVTexmap@@@Z 000000018001e150 f   BerconNoise.obj
 0001:0001d220       ?SetThing@BerconNoiseDlgProc@@UEAAXPEAVReferenceTarget@@@Z 000000018001e220 f i BerconNoise.obj
 0001:0001d230       ?SubAnimName@BerconNoise@@UEAA?AVWStr@@H@Z 000000018001e230 f   BerconNoise.obj
 0001:0001d320       ?SwapInputs@BerconNoise@@QEAAXXZ 000000018001e320 f   BerconNoise.obj
 0001:0001d500       ?Update@BerconNoise@@UEAAXHAEAVInterval@@@Z 000000018001e500 f   BerconNoise.obj
 0001:0001da90       ?Validity@BerconNoise@@UEAA?AVInterval@@H@Z 000000018001ea90 f   BerconNoise.obj
 0001:0001dae0       ?applyDistortion@BerconNoise@@QEAAXAEAVShadeContext@@AEAVPoint3@@@Z 000000018001eae0 f   BerconNoise.obj
 0001:0001dc00       ?fBm@Fractal@@SAMVPoint3@@AEAVNoiseParams@@@Z 000000018001ec00 f   fractal.obj
 0001:0001dd60       ?fBm@Fractal@@SAMVPoint3@@MAEAVNoiseParams@@@Z 000000018001ed60 f   fractal.obj
 0001:0001dee0       ?fBm@Fractal@@SAMVPoint3@@MMM@Z 000000018001eee0 f   fractal.obj
 0001:0001e020       ?fBmTurb@Fractal@@SAMVPoint3@@AEAVNoiseParams@@@Z 000000018001f020 f   fractal.obj
 0001:0001e1a0       ?fBmTurb@Fractal@@SAMVPoint3@@MAEAVNoiseParams@@@Z 000000018001f1a0 f   fractal.obj
 0001:0001e350       ?fractal@Fractal@@SAMVPoint3@@AEAVNoiseParams@@@Z 000000018001f350 f   fractal.obj
 0001:0001e490       ?fractal@Fractal@@SAMVPoint3@@MAEAVNoiseParams@@@Z 000000018001f490 f   fractal.obj
 0001:0001e5f0       ?grain@Fractal@@SAMVPoint3@@MM@Z 000000018001f5f0 f   fractal.obj
 0001:0001e690       ?heteroTerrain@Fractal@@SAMVPoint3@@AEAVNoiseParams@@@Z 000000018001f690 f   fractal.obj
 0001:0001e850       ?hybridMultiFractal@Fractal@@SAMVPoint3@@AEAVNoiseParams@@@Z 000000018001f850 f   fractal.obj
 0001:0001ea70       ?hybridMultiFractal@Fractal@@SAMVPoint3@@MAEAVNoiseParams@@@Z 000000018001fa70 f   fractal.obj
 0001:0001ecd0       ?ridgedMultiFractal@Fractal@@SAMVPoint3@@AEAVNoiseParams@@@Z 000000018001fcd0 f   fractal.obj
 0001:0001ee80       ?ridgedMultiFractal@Fractal@@SAMVPoint3@@MAEAVNoiseParams@@@Z 000000018001fe80 f   fractal.obj
 0001:0001f050       ?turbulence@Fractal@@SAMVPoint3@@AEAVNoiseParams@@@Z 0000000180020050 f   fractal.obj
 0001:0001f1b0       ?turbulence@Fractal@@SAMVPoint3@@MAEAVNoiseParams@@@Z 00000001800201b0 f   fractal.obj
 0001:0001f340       ?addKey@GradientRamp@@QEAAXHMVAColor@@PEAVTexmap@@@Z 0000000180020340 f   GradientRamp.obj
 0001:0001f560       ?dragging@GradientRamp@@QEAAXHH_N00@Z 0000000180020560 f   GradientRamp.obj
 0001:0001f5d0       ?getBump@GradientRamp@@QEAA?AVPoint3@@MV2@AEAVShadeContext@@@Z 00000001800205d0 f   GradientRamp.obj
 0001:0001f980       ?getColor@GradientRamp@@QEAA?AVAColor@@M@Z 0000000180020980 f   GradientRamp.obj
 0001:0001fba0       ?getColor@GradientRamp@@QEAA?AVAColor@@MAEAVShadeContext@@@Z 0000000180020ba0 f   GradientRamp.obj
 0001:0001fe90       ?getSubtex@GradientRamp@@QEAAPEAVTexmap@@H@Z 0000000180020e90 f   GradientRamp.obj
 0001:0001ff20       ?interpolate@GradientRamp@@QEAAMMMM@Z 0000000180020f20 f   GradientRamp.obj
 0001:0001ff80       ?invalidate@GradientRamp@@QEAAXXZ 0000000180020f80 f   GradientRamp.obj
 0001:0001ffa0       ?leftDown@GradientRamp@@QEAAXHH_N00@Z 0000000180020fa0 f   GradientRamp.obj
 0001:00020030       ?leftUp@GradientRamp@@QEAAXHH_N00@Z 0000000180021030 f   GradientRamp.obj
 0001:00020160       ?paint@GradientRamp@@QEAAXPEAUHDC__@@@Z 0000000180021160 f   GradientRamp.obj
 0001:00020600       ?popup@GradientRamp@@QEAAXHHH@Z 0000000180021600 f   GradientRamp.obj
 0001:00020730       ?reset@GradientRamp@@QEAAXXZ 0000000180021730 f   GradientRamp.obj
 0001:000207f0       ?setHWND@GradientRamp@@QEAAXPEAUHWND__@@@Z 00000001800217f0 f   GradientRamp.obj
 0001:00020830       ?setSubtex@GradientRamp@@QEAAXHPEAVTexmap@@@Z 0000000180021830 f   GradientRamp.obj
 0001:00020880       ?setSubtex@GradientRamp@@QEAAXPEAVTexmap@@@Z 0000000180021880 f   GradientRamp.obj
 0001:000208e0       ?sort@GradientRamp@@QEAAXXZ 00000001800218e0 f   GradientRamp.obj
 0001:000209f0       ?GradientProc@IGradient@@SA_JPEAUHWND__@@I_K_J@Z 00000001800219f0 f   IGradient.obj
 0001:00020c70       ?InitGradientControls@@YAXXZ 0000000180021c70 f   IGradient.obj
 0001:00020cf0       IsolationAwareRegisterClassExW 0000000180021cf0 f i IGradient.obj
 0001:00020e00       ?alterUVW@Noise@@SAXAEAVPoint3@@H@Z 0000000180021e00 f   noise.obj
 0001:00020e80       ?f@Fractal@@SAMVPoint3@@AEAVNoiseParams@@@Z 0000000180021e80 f i noise.obj
 0001:00021050       ?f@Fractal@@SAMVPoint3@@MAEAVNoiseParams@@@Z 0000000180022050 f i noise.obj
 0001:00021230       ?limitedNoise@Noise@@SAMVPoint3@@00AEAVNoiseParams@@@Z 0000000180022230 f   noise.obj
 0001:000212e0       ?limitedNoise@Noise@@SAMVPoint3@@AEAVNoiseParams@@@Z 00000001800222e0 f   noise.obj
 0001:00021350       ?noise@Noise@@SAMVPoint3@@AEAVNoiseParams@@@Z 0000000180022350 f   noise.obj
 0001:00021460       ?noise@Noise@@SAMVPoint3@@MAEAVNoiseParams@@@Z 0000000180022460 f   noise.obj
 0001:00021580       ?wood@Noise@@SAMVPoint3@@00AEAV2@VWoodParam@@@Z 0000000180022580 f   noise.obj
 0001:00021bd0       ?wood@Noise@@SAMVPoint3@@AEAV2@AEAVWoodParam@@@Z 0000000180022bd0 f   noise.obj
 0001:00021ff0       ?worleyWrapper@Noise@@SAMVPoint3@@AEAVNoiseParams@@@Z 0000000180022ff0 f   noise.obj
 0001:00022190       ?fnoise2D@Perlin@@SAMMMM@Z 0000000180023190 f   perlin.obj
 0001:00022210       ?fnoise3D@Perlin@@SAMMMMM@Z 0000000180023210 f   perlin.obj
 0001:000222a0       ?fnoise4D@Perlin@@SAMMMMMM@Z 00000001800232a0 f   perlin.obj
 0001:00022350       ?fsnoise2D@Perlin@@SAMMMM@Z 0000000180023350 f   perlin.obj
 0001:000223d0       ?fsnoise3D@Perlin@@SAMMMMM@Z 00000001800233d0 f   perlin.obj
 0001:00022460       ?fsnoise4D@Perlin@@SAMMMMMM@Z 0000000180023460 f   perlin.obj
 0001:00022510       ?noise@Perlin@@SAMMM@Z     0000000180023510 f   perlin.obj
 0001:00022790       ?noise@Perlin@@SAMMMM@Z    0000000180023790 f   perlin.obj
 0001:00022c40       ?noise@Perlin@@SAMMMMM@Z   0000000180023c40 f   perlin.obj
 0001:00023570       ?point@Perlin@@CAMMMHH@Z   0000000180024570 f i perlin.obj
 0001:00023610       ?point@Perlin@@CAMMMMHHH@Z 0000000180024610 f i perlin.obj
 0001:000236d0       ?point@Perlin@@CAMMMMMHHHH@Z 00000001800246d0 f i perlin.obj
 0001:000237b0       ?snoise@Perlin@@SAMM@Z     00000001800247b0 f   perlin.obj
 0001:00023890       ?snoise@Perlin@@SAMMM@Z    0000000180024890 f   perlin.obj
 0001:00023a00       ?snoise@Perlin@@SAMMMM@Z   0000000180024a00 f   perlin.obj
 0001:00023cf0       ?snoise@Perlin@@SAMMMMM@Z  0000000180024cf0 f   perlin.obj
 0001:00024190       ??$_Destroy_range1@V?$allocator@V?$basic_string@_WU?$char_traits@_W@std@@V?$allocator@_W@2@@std@@@std@@PEAV?$basic_string@_WU?$char_traits@_W@std@@V?$allocator@_W@2@@2@@std@@YAXPEAV?$basic_string@_WU?$char_traits@_W@std@@V?$allocator@_W@2@@0@0AEAU?$_Wrap_alloc@V?$allocator@V?$basic_string@_WU?$char_traits@_W@std@@V?$allocator@_W@2@@std@@@std@@@0@U?$integral_constant@_N$0A@@0@@Z 0000000180025190 f i tile.obj
 0001:00024270       ??$_Uninitialized_move_al_unchecked1@PEAV?$basic_string@_WU?$char_traits@_W@std@@V?$allocator@_W@2@@std@@PEAV12@V?$allocator@V?$basic_string@_WU?$char_traits@_W@std@@V?$allocator@_W@2@@std@@@2@@std@@YAPEAV?$basic_string@_WU?$char_traits@_W@std@@V?$allocator@_W@2@@0@PEAV10@00AEAU?$_Wrap_alloc@V?$allocator@V?$basic_string@_WU?$char_traits@_W@std@@V?$allocator@_W@2@@std@@@std@@@0@U_General_ptr_iterator_tag@0@U_Any_tag@0@@Z 0000000180025270 f i tile.obj
 0001:00024310       ??$_Uninitialized_move_al_unchecked1@PEAVTileRow@@PEAV1@V?$allocator@VTileRow@@@std@@@std@@YAPEAVTileRow@@PEAV1@00AEAU?$_Wrap_alloc@V?$allocator@VTileRow@@@std@@@0@U_General_ptr_iterator_tag@0@U_Any_tag@0@@Z 0000000180025310 f i tile.obj
 0001:000243a0       ??0?$vector@MV?$allocator@M@std@@@std@@QEAA@AEBV01@@Z 00000001800253a0 f i tile.obj
 0001:00024460       ??1?$basic_stringbuf@_WU?$char_traits@_W@std@@V?$allocator@_W@2@@std@@UEAA@XZ 0000000180025460 f i tile.obj
 0001:000244a0       ??1?$basic_stringstream@_WU?$char_traits@_W@std@@V?$allocator@_W@2@@std@@UEAA@XZ 00000001800254a0 f i tile.obj
 0001:00024530       ??1?$vector@V?$basic_string@_WU?$char_traits@_W@std@@V?$allocator@_W@2@@std@@V?$allocator@V?$basic_string@_WU?$char_traits@_W@std@@V?$allocator@_W@2@@std@@@2@@std@@QEAA@XZ 0000000180025530 f i tile.obj
 0001:00024590       ??1TileRow@@QEAA@XZ        0000000180025590 f i tile.obj
 0001:000245e0       ??_D?$basic_stringstream@_WU?$char_traits@_W@std@@V?$allocator@_W@2@@std@@QEAAXXZ 00000001800255e0 f i tile.obj
 0001:00024628       ??_E?$basic_stringstream@_WU?$char_traits@_W@std@@V?$allocator@_W@2@@std@@$4PPPPPPPM@A@EAAPEAXI@Z 0000000180025628 f i tile.obj
 0001:00024640       ??_G?$basic_stringbuf@_WU?$char_traits@_W@std@@V?$allocator@_W@2@@std@@UEAAPEAXI@Z 0000000180025640 f i tile.obj
 0001:00024640       ??_E?$basic_stringbuf@_WU?$char_traits@_W@std@@V?$allocator@_W@2@@std@@UEAAPEAXI@Z 0000000180025640 f i tile.obj
 0001:000246a0       ??_E?$basic_stringstream@_WU?$char_traits@_W@std@@V?$allocator@_W@2@@std@@UEAAPEAXI@Z 00000001800256a0 f i tile.obj
 0001:000246a0       ??_G?$basic_stringstream@_WU?$char_traits@_W@std@@V?$allocator@_W@2@@std@@UEAAPEAXI@Z 00000001800256a0 f i tile.obj
 0001:00024710       ?_Assign_rv@?$basic_string@_WU?$char_traits@_W@std@@V?$allocator@_W@2@@std@@QEAAX$$QEAV12@@Z 0000000180025710 f i tile.obj
 0001:000247a0       ?_Init@?$basic_stringbuf@_WU?$char_traits@_W@std@@V?$allocator@_W@2@@std@@IEAAXPEB_W_KH@Z 00000001800257a0 f i tile.obj
 0001:000248a0       ?_Reallocate@?$vector@MV?$allocator@M@std@@@std@@IEAAX_K@Z 00000001800258a0 f i tile.obj
 0001:00024930       ?_Reallocate@?$vector@V?$basic_string@_WU?$char_traits@_W@std@@V?$allocator@_W@2@@std@@V?$allocator@V?$basic_string@_WU?$char_traits@_W@std@@V?$allocator@_W@2@@std@@@2@@std@@IEAAX_K@Z 0000000180025930 f i tile.obj
 0001:000249f0       ?_Reallocate@?$vector@VTileRow@@V?$allocator@VTileRow@@@std@@@std@@IEAAX_K@Z 00000001800259f0 f i tile.obj
 0001:00024ab0       ?_Tidy@?$basic_stringbuf@_WU?$char_traits@_W@std@@V?$allocator@_W@2@@std@@IEAAXXZ 0000000180025ab0 f i tile.obj
 0001:00024b40       ?allocate@?$allocator@M@std@@QEAAPEAM_K@Z 0000000180025b40 f i tile.obj
 0001:00024bc0       ?allocate@?$allocator@VTileRow@@@std@@QEAAPEAVTileRow@@_K@Z 0000000180025bc0 f i tile.obj
 0001:00024bc0       ?allocate@?$allocator@V?$basic_string@_WU?$char_traits@_W@std@@V?$allocator@_W@2@@std@@@std@@QEAAPEAV?$basic_string@_WU?$char_traits@_W@std@@V?$allocator@_W@2@@2@_K@Z 0000000180025bc0 f i tile.obj
 0001:00024c40       ?corner@Tile@@CA?AVTilePoint@@MMMMAEAVTileParam@@@Z 0000000180025c40 f   tile.obj
 0001:00024f40       ?deallocate@?$allocator@V?$basic_string@_WU?$char_traits@_W@std@@V?$allocator@_W@2@@std@@@std@@QEAAXPEAV?$basic_string@_WU?$char_traits@_W@std@@V?$allocator@_W@2@@2@_K@Z 0000000180025f40 f i tile.obj
 0001:00024f40       ?deallocate@?$allocator@VTileRow@@@std@@QEAAXPEAVTileRow@@_K@Z 0000000180025f40 f i BerconTile.obj
 0001:00024fb0       ?draw@Tile@@SA?AVTilePoint@@VPoint3@@AEAVTileParam@@@Z 0000000180025fb0 f   tile.obj
 0001:00025000       ?drawTile@Tile@@CA?AVTilePoint@@VPoint3@@QEAMAEAVTileParam@@HH@Z 0000000180026000 f   tile.obj
 0001:000256c0       ?edgeBlur@Tile@@CAMMMH@Z   00000001800266c0 f   tile.obj
 0001:00025720       ?find_first_not_of@?$basic_string@_WU?$char_traits@_W@std@@V?$allocator@_W@2@@std@@QEBA_KAEBV12@_K@Z 0000000180026720 f i tile.obj
 0001:000257d0       ?find_first_of@?$basic_string@_WU?$char_traits@_W@std@@V?$allocator@_W@2@@std@@QEBA_KAEBV12@_K@Z 00000001800267d0 f i tile.obj
 0001:00025970       ?overflow@?$basic_stringbuf@_WU?$char_traits@_W@std@@V?$allocator@_W@2@@std@@MEAAGG@Z 0000000180026970 f i tile.obj
 0001:00026a60       ?pat_herring@Tile@@CA?AVTilePoint@@VPoint3@@AEAVTileParam@@@Z 0000000180027a60 f   tile.obj
 0001:00026c70       ?pat_xBond@Tile@@CA?AVTilePoint@@VPoint3@@AEAVTileParam@@@Z 0000000180027c70 f   tile.obj
 0001:00026e80       ?pbackfail@?$basic_stringbuf@_WU?$char_traits@_W@std@@V?$allocator@_W@2@@std@@MEAAGG@Z 0000000180027e80 f i tile.obj
 0001:00027270       ?seekoff@?$basic_stringbuf@_WU?$char_traits@_W@std@@V?$allocator@_W@2@@std@@MEAA?AV?$fpos@U_Mbstatet@@@2@_JHH@Z 0000000180028270 f i tile.obj
 0001:00027440       ?seekpos@?$basic_stringbuf@_WU?$char_traits@_W@std@@V?$allocator@_W@2@@std@@MEAA?AV?$fpos@U_Mbstatet@@@2@V32@H@Z 0000000180028440 f i tile.obj
 0001:00027570       ?setPattern@TilePattern@@QEAAXV?$basic_string@_WU?$char_traits@_W@std@@V?$allocator@_W@2@@std@@@Z 0000000180028570 f   tile.obj
 0001:00027620       ?setPreset@TilePattern@@QEAAXH@Z 0000000180028620 f   tile.obj
 0001:000278a0       ?substr@?$basic_string@_WU?$char_traits@_W@std@@V?$allocator@_W@2@@std@@QEBA?AV12@_K0@Z 00000001800288a0 f i tile.obj
 0001:00027b70       ?underflow@?$basic_stringbuf@_WU?$char_traits@_W@std@@V?$allocator@_W@2@@std@@MEAAGXZ 0000000180028b70 f i tile.obj
 0001:00027be0       ?uvMapping@Tile@@CAXAEAVTilePoint@@VPoint3@@QEAMAEAVTileParam@@H@Z 0000000180028be0 f   tile.obj
 0001:00028000       ?add@Worley@@CAXJJJQEBNHPEANH@Z 0000000180029000 f   worley.obj
 0001:00028420       ?noise@Worley@@SAXQEBNHPEANH@Z 0000000180029420 f   worley.obj
 0001:00028c30       ?smooth@@YAMM@Z            0000000180029c30 f   commonMath.obj
 0001:00028c50       ?smooth@@YAMMMM@Z          0000000180029c50 f   commonMath.obj
 0001:00028c90       ?GetRsrcString@ClassDesc@@UEAAPEB_W_J@Z 0000000180029c90 f   core:core.dll
 0001:00028c96       ?GetInterface@ClassDesc@@UEAAPEAVFPInterface@@PEB_W@Z 0000000180029c96 f   core:core.dll
 0001:00028c9c       ?GetInterface@ClassDesc@@UEAAPEAVFPInterface@@VInterface_ID@@@Z 0000000180029c9c f   core:core.dll
 0001:00028ca2       ?AddInterface@ClassDesc@@UEAAXPEAVFPInterface@@@Z 0000000180029ca2 f   core:core.dll
 0001:00028ca8       ?AutoDelete@ReferenceTarget@@UEAA?AW4RefResult@@XZ 0000000180029ca8 f   core:core.dll
 0001:00028cae       ?BaseClone@MtlBase@@UEAAXPEAVReferenceTarget@@0AEAVRemapDir@@@Z 0000000180029cae f   core:core.dll
 0001:00028cb4       ?CreatePStamp@MtlBase@@UEAAPEAVPStamp@@HH@Z 0000000180029cb4 f   core:core.dll
 0001:00028cba       ?DeleteAllRefsToMe@ReferenceTarget@@UEAA?AW4RefResult@@XZ 0000000180029cba f   core:core.dll
 0001:00028cc0       ?DiffuseIllum@ShadeContext@@UEAA?AVColor@@XZ 0000000180029cc0 f   core:core.dll
 0001:00028cc6       ?DiscardPStamp@MtlBase@@UEAAXH@Z 0000000180029cc6 f   core:core.dll
 0001:00028ccc       ?DoEnumDependentsImpl@ReferenceTarget@@MEAAHPEAVDependentEnumProc@@@Z 0000000180029ccc f   core:core.dll
 0001:00028cd2       ?EnumAuxFiles@MtlBase@@UEAAXAEAVAssetEnumCallback@@K@Z 0000000180029cd2 f   core:core.dll
 0001:00028cd8       ?EvalEnvironMap@ShadeContext@@UEAA?AVAColor@@PEAVTexmap@@VPoint3@@@Z 0000000180029cd8 f   core:core.dll
 0001:00028cde       ?GetFullName@MtlBase@@UEAA?AVWStr@@XZ 0000000180029cde f   core:core.dll
 0001:00028ce4       ?GetInterface@MtlBase@@UEAAPEAXK@Z 0000000180029ce4 f   core:core.dll
 0001:00028cea       ?GetPStamp@MtlBase@@UEAAPEAVPStamp@@H@Z 0000000180029cea f   core:core.dll
 0001:00028cf0       ?GetProperty@MtlBase@@UEAAPEAXK@Z 0000000180029cf0 f   core:core.dll
 0001:00028cf6       ?GetTimeRange@Animatable@@UEAA?AVInterval@@K@Z 0000000180029cf6 f   core:core.dll
 0001:00028cfc       ?GetVPDisplayDIB@Texmap@@UEAAPEAUtagBITMAPINFO@@HAEAVTexHandleMaker@@AEAVInterval@@HHH@Z 0000000180029cfc f   core:core.dll
 0001:00028d02       ?IsAnimated@Animatable@@UEAAHXZ 0000000180029d02 f   core:core.dll
 0001:00028d08       ?IsOutputMeaningful@Texmap@@UEAA_NAEAVShadeContext@@@Z 0000000180029d08 f   core:core.dll
 0001:00028d0e       ?Load@MtlBase@@UEAA?AW4IOResult@@PEAVILoad@@@Z 0000000180029d0e f   core:core.dll
 0001:00028d14       ?MapKeys@Animatable@@UEAAXPEAVTimeMap@@K@Z 0000000180029d14 f   core:core.dll
 0001:00028d1a       ?MouseCycleCompleted@Animatable@@UEAAXH@Z 0000000180029d1a f   core:core.dll
 0001:00028d20       ?MouseCycleStarted@Animatable@@UEAAXH@Z 0000000180029d20 f   core:core.dll
 0001:00028d26       ?NodeName@Animatable@@UEAA?AVWStr@@XZ 0000000180029d26 f   core:core.dll
 0001:00028d2c       ?NotifyDependents@ReferenceTarget@@UEAA?AW4RefResult@@AEBVInterval@@_KIKHPEAV1@@Z 0000000180029d2c f   core:core.dll
 0001:00028d32       ?RefAdded@Texmap@@UEAAXPEAVReferenceMaker@@@Z 0000000180029d32 f   core:core.dll
 0001:00028d38       ?ReleaseInterface@Animatable@@UEAAXKPEAX@Z 0000000180029d38 f   core:core.dll
 0001:00028d3e       ?RenderBitmap@Texmap@@UEAAXHPEAVBitmap@@MH@Z 0000000180029d3e f   core:core.dll
 0001:00028d44       ?Requirements@MtlBase@@UEAAKH@Z 0000000180029d44 f   core:core.dll
 0001:00028d4a       ?RescaleWorldUnits@ReferenceMaker@@UEAAXM@Z 0000000180029d4a f   core:core.dll
 0001:00028d50       ?Save@MtlBase@@UEAA?AW4IOResult@@PEAVISave@@@Z 0000000180029d50 f   core:core.dll
 0001:00028d56       ?SaveEnum@ReferenceMaker@@UEAAXAEAVSaveEnumProc@@H@Z 0000000180029d56 f   core:core.dll
 0001:00028d5c       ?SetProperty@MtlBase@@UEAAHKPEAX@Z 0000000180029d5c f   core:core.dll
 0001:00028d62       ?SpecifySaveReferences@ReferenceMaker@@UEAA_NAEAVReferenceSaveManager@@@Z 0000000180029d62 f   core:core.dll
 0001:00028d68       ?SubAnimCommitSetKeyBuffer@Animatable@@UEAAXHH@Z 0000000180029d68 f   core:core.dll
 0001:00028d6e       ?SubAnimRevertSetKeyBuffer@Animatable@@UEAAXH@Z 0000000180029d6e f   core:core.dll
 0001:00028d74       ?SubAnimSetKeyBufferPresent@Animatable@@UEAAHH@Z 0000000180029d74 f   core:core.dll
 0001:00028d7a       ?SvCanConcludeLink@Animatable@@UEAA_NPEAVIGraphObjectManager@@PEAVIGraphNode@@1@Z 0000000180029d7a f   core:core.dll
 0001:00028d80       ?SvCanDetach@Animatable@@UEAA_NPEAVIGraphObjectManager@@PEAVIGraphNode@@@Z 0000000180029d80 f   core:core.dll
 0001:00028d86       ?SvCanDetachRel@Animatable@@UEAA_NPEAVIGraphObjectManager@@PEAVIGraphNode@@H1@Z 0000000180029d86 f   core:core.dll
 0001:00028d8c       ?SvCanInitiateLink@Animatable@@UEAA_NPEAVIGraphObjectManager@@PEAVIGraphNode@@@Z 0000000180029d8c f   core:core.dll
 0001:00028d92       ?SvCanRemoveThis@Animatable@@UEAA_NPEAVIGraphObjectManager@@PEAVIGraphNode@@@Z 0000000180029d92 f   core:core.dll
 0001:00028d98       ?SvCanSelect@MtlBase@@UEAA_NPEAVIGraphObjectManager@@PEAVIGraphNode@@@Z 0000000180029d98 f   core:core.dll
 0001:00028d9e       ?SvCanSetName@MtlBase@@UEAA_NPEAVIGraphObjectManager@@PEAVIGraphNode@@@Z 0000000180029d9e f   core:core.dll
 0001:00028da4       ?SvDetach@Animatable@@UEAA_NPEAVIGraphObjectManager@@PEAVIGraphNode@@@Z 0000000180029da4 f   core:core.dll
 0001:00028daa       ?SvDetachRel@Animatable@@UEAA_NPEAVIGraphObjectManager@@PEAVIGraphNode@@H1@Z 0000000180029daa f   core:core.dll
 0001:00028db0       ?SvEditProperties@Animatable@@UEAA_NPEAVIGraphObjectManager@@PEAVIGraphNode@@@Z 0000000180029db0 f   core:core.dll
 0001:00028db6       ?SvGetMultiSelectCallback@MtlBase@@UEAAPEAVMultiSelectCallback@@PEAVIGraphObjectManager@@PEAVIGraphNode@@@Z 0000000180029db6 f   core:core.dll
 0001:00028dbc       ?SvGetName@MtlBase@@UEAA?AVWStr@@PEAVIGraphObjectManager@@PEAVIGraphNode@@_N@Z 0000000180029dbc f   core:core.dll
 0001:00028dc2       ?SvGetRefTip@Animatable@@UEAA?AVWStr@@PEAVIGraphObjectManager@@PEAVIGraphNode@@1@Z 0000000180029dc2 f   core:core.dll
 0001:00028dc8       ?SvGetRelTip@Animatable@@UEAA?AVWStr@@PEAVIGraphObjectManager@@PEAVIGraphNode@@H1@Z 0000000180029dc8 f   core:core.dll
 0001:00028dce       ?SvGetSwatchColor@Animatable@@UEAAKPEAVIGraphObjectManager@@PEAVIGraphNode@@@Z 0000000180029dce f   core:core.dll
 0001:00028dd4       ?SvGetTip@Animatable@@UEAA?AVWStr@@PEAVIGraphObjectManager@@PEAVIGraphNode@@@Z 0000000180029dd4 f   core:core.dll
 0001:00028dda       ?SvHandleDoubleClick@MtlBase@@UEAA_NPEAVIGraphObjectManager@@PEAVIGraphNode@@@Z 0000000180029dda f   core:core.dll
 0001:00028de0       ?SvHandleRelDoubleClick@Animatable@@UEAA_NPEAVIGraphObjectManager@@PEAVIGraphNode@@H1@Z 0000000180029de0 f   core:core.dll
 0001:00028de6       ?SvHighlightColor@MtlBase@@UEAAKPEAVIGraphObjectManager@@PEAVIGraphNode@@@Z 0000000180029de6 f   core:core.dll
 0001:00028dec       ?SvIsHighlighted@Animatable@@UEAA_NPEAVIGraphObjectManager@@PEAVIGraphNode@@@Z 0000000180029dec f   core:core.dll
 0001:00028df2       ?SvIsInactive@Animatable@@UEAA_NPEAVIGraphObjectManager@@PEAVIGraphNode@@@Z 0000000180029df2 f   core:core.dll
 0001:00028df8       ?SvIsSelected@MtlBase@@UEAA_NPEAVIGraphObjectManager@@PEAVIGraphNode@@@Z 0000000180029df8 f   core:core.dll
 0001:00028dfe       ?SvLinkChild@Animatable@@UEAA_NPEAVIGraphObjectManager@@PEAVIGraphNode@@1@Z 0000000180029dfe f   core:core.dll
 0001:00028e04       ?SvRemoveThis@Animatable@@UEAA_NPEAVIGraphObjectManager@@PEAVIGraphNode@@@Z 0000000180029e04 f   core:core.dll
 0001:00028e0a       ?SvSetName@MtlBase@@UEAA_NPEAVIGraphObjectManager@@PEAVIGraphNode@@AEBVWStr@@@Z 0000000180029e0a f   core:core.dll
 0001:00028e10       ?SvTraverseAnimGraph@Texmap@@UEAA?AVSvGraphNodeReference@@PEAVIGraphObjectManager@@PEAVAnimatable@@HK@Z 0000000180029e10 f   core:core.dll
 0001:00028e16       ?VectorFromNoScale@ShadeContext@@UEAA?AVPoint3@@AEBV2@W4RefFrame@@@Z 0000000180029e16 f   core:core.dll
 0001:00028e1c       ?VectorToNoScale@ShadeContext@@UEAA?AVPoint3@@AEBV2@W4RefFrame@@@Z 0000000180029e1c f   core:core.dll
 0001:00028e22       ??0OutOfRangeException@Util@MaxSDK@@QEAA@AEBV012@@Z 0000000180029e22 f   maxutil:maxutil.dll
 0001:00028e28       ?GetInterface@BaseInterfaceServer@@UEAAPEAVBaseInterface@@VInterface_ID@@@Z 0000000180029e28 f   maxutil:maxutil.dll
 0001:00028e2e       ?NumInterfaces@BaseInterfaceServer@@UEBAHXZ 0000000180029e2e f   maxutil:maxutil.dll
 0001:00028e34       ?GetInterfaceAt@BaseInterfaceServer@@UEBAPEAVBaseInterface@@H@Z 0000000180029e34 f   maxutil:maxutil.dll
 0001:00028e3a       ??0Exception@Util@MaxSDK@@QEAA@AEBV012@@Z 0000000180029e3a f   maxutil:maxutil.dll
 0001:00028e40       ?GetInterface@InterfaceServer@@UEAAPEAVBaseInterface@@VInterface_ID@@@Z 0000000180029e40 f   maxutil:maxutil.dll
 0001:00028e46       ?NumParamBlockDescs@ClassDesc2@@UEAAHXZ 0000000180029e46 f   Paramblk2:ParamBlk2.dll
 0001:00028e4c       ?GetParamBlockDesc@ClassDesc2@@UEAAPEAVParamBlockDesc2@@H@Z 0000000180029e4c f   Paramblk2:ParamBlk2.dll
 0001:00028e52       ?NumParamMaps@ClassDesc2@@UEAAHXZ 0000000180029e52 f   Paramblk2:ParamBlk2.dll
 0001:00028e58       ?GetParamMap@ClassDesc2@@UEAAPEAVIParamMap2@@H@Z 0000000180029e58 f   Paramblk2:ParamBlk2.dll
 0001:00028e5e       ?ResetClassParams@ClassDesc2@@UEAAXH@Z 0000000180029e5e f   Paramblk2:ParamBlk2.dll
 0001:00028e64       ?GetParamBlockDescByID@ClassDesc2@@UEAAPEAVParamBlockDesc2@@F@Z 0000000180029e64 f   Paramblk2:ParamBlk2.dll
 0001:00028e6a       ?AddParamBlockDesc@ClassDesc2@@UEAAXPEAVParamBlockDesc2@@@Z 0000000180029e6a f   Paramblk2:ParamBlk2.dll
 0001:00028e70       ?BeginEditParams@ClassDesc2@@UEAAXPEAVIObjParam@@PEAVReferenceMaker@@KPEAVAnimatable@@@Z 0000000180029e70 f   Paramblk2:ParamBlk2.dll
 0001:00028e76       ?EndEditParams@ClassDesc2@@UEAAXPEAVIObjParam@@PEAVReferenceMaker@@KPEAVAnimatable@@@Z 0000000180029e76 f   Paramblk2:ParamBlk2.dll
 0001:00028e7c       ?InvalidateUI@ClassDesc2@@UEAAXPEAVParamBlockDesc2@@@Z 0000000180029e7c f   Paramblk2:ParamBlk2.dll
 0001:00028e82       ?MakeAutoParamBlocks@ClassDesc2@@UEAAXPEAVReferenceMaker@@@Z 0000000180029e82 f   Paramblk2:ParamBlk2.dll
 0001:00028e88       ?_Lock@?$basic_streambuf@_WU?$char_traits@_W@std@@@std@@UEAAXXZ 0000000180029e88 f   msvcprt:MSVCP140.dll
 0001:00028e8e       ?_Unlock@?$basic_streambuf@_WU?$char_traits@_W@std@@@std@@UEAAXXZ 0000000180029e8e f   msvcprt:MSVCP140.dll
 0001:00028e94       ?imbue@?$basic_streambuf@_WU?$char_traits@_W@std@@@std@@MEAAXAEBVlocale@2@@Z 0000000180029e94 f   msvcprt:MSVCP140.dll
 0001:00028e9a       ?setbuf@?$basic_streambuf@_WU?$char_traits@_W@std@@@std@@MEAAPEAV12@PEA_W_J@Z 0000000180029e9a f   msvcprt:MSVCP140.dll
 0001:00028ea0       ?showmanyc@?$basic_streambuf@_WU?$char_traits@_W@std@@@std@@MEAA_JXZ 0000000180029ea0 f   msvcprt:MSVCP140.dll
 0001:00028ea6       ?sync@?$basic_streambuf@_WU?$char_traits@_W@std@@@std@@MEAAHXZ 0000000180029ea6 f   msvcprt:MSVCP140.dll
 0001:00028eac       ?uflow@?$basic_streambuf@_WU?$char_traits@_W@std@@@std@@MEAAGXZ 0000000180029eac f   msvcprt:MSVCP140.dll
 0001:00028eb2       ?xsgetn@?$basic_streambuf@_WU?$char_traits@_W@std@@@std@@MEAA_JPEA_W_J@Z 0000000180029eb2 f   msvcprt:MSVCP140.dll
 0001:00028eb8       ?xsputn@?$basic_streambuf@_WU?$char_traits@_W@std@@@std@@MEAA_JPEB_W_J@Z 0000000180029eb8 f   msvcprt:MSVCP140.dll
 0001:00028ec0       ??_Etype_info@@UEAAPEAXI@Z 0000000180029ec0 f i MSVCRT:std_type_info_static.obj
 0001:00028ec0       ??_Gtype_info@@UEAAPEAXI@Z 0000000180029ec0 f i MSVCRT:std_type_info_static.obj
 0001:00028eec       __scrt_acquire_startup_lock 0000000180029eec f   MSVCRT:utility.obj
 0001:00028f28       __scrt_dllmain_after_initialize_c 0000000180029f28 f   MSVCRT:utility.obj
 0001:00028f5c       __scrt_dllmain_before_initialize_c 0000000180029f5c f   MSVCRT:utility.obj
 0001:00028f74       __scrt_dllmain_crt_thread_attach 0000000180029f74 f   MSVCRT:utility.obj
 0001:00028f9c       __scrt_dllmain_crt_thread_detach 0000000180029f9c f   MSVCRT:utility.obj
 0001:00028fb4       __scrt_dllmain_exception_filter 0000000180029fb4 f   MSVCRT:utility.obj
 0001:00029018       __scrt_dllmain_uninitialize_c 000000018002a018 f   MSVCRT:utility.obj
 0001:00029048       __scrt_dllmain_uninitialize_critical 000000018002a048 f   MSVCRT:utility.obj
 0001:0002905c       __scrt_initialize_crt      000000018002a05c f   MSVCRT:utility.obj
 0001:000290a8       __scrt_initialize_onexit_tables 000000018002a0a8 f   MSVCRT:utility.obj
 0001:00029174       __scrt_is_nonwritable_in_current_image 000000018002a174 f   MSVCRT:utility.obj
 0001:00029210       __scrt_release_startup_lock 000000018002a210 f   MSVCRT:utility.obj
 0001:00029234       __scrt_uninitialize_crt    000000018002a234 f   MSVCRT:utility.obj
 0001:00029260       _onexit                    000000018002a260 f   MSVCRT:utility.obj
 0001:000292b0       atexit                     000000018002a2b0 f   MSVCRT:utility.obj
 0001:000292c8       ??2@YAPEAX_K@Z             000000018002a2c8 f   MSVCRT:new_scalar.obj
 0001:00029304       ??_V@YAXPEAX@Z             000000018002a304 f   MSVCRT:delete_array.obj
 0001:00029304       ??3@YAXPEAX_K@Z            000000018002a304 f   MSVCRT:delete_scalar_size.obj
 0001:0002930c       ??3@YAXPEAX@Z              000000018002a30c f   MSVCRT:delete_scalar.obj
 0001:00029330       _alloca_probe              000000018002a330 f   MSVCRT:_chkstk_.obj
 0001:00029330       __chkstk                   000000018002a330 f   MSVCRT:_chkstk_.obj
 0001:00029384       ??_U@YAPEAX_K@Z            000000018002a384 f   MSVCRT:new_array.obj
 0001:000296d8       _DllMainCRTStartup         000000018002a6d8 f   MSVCRT:dll_dllmain.obj
 0001:00029718       __isa_available_init       000000018002a718 f   MSVCRT:_cpu_disp_.obj
 0001:000298e0       __scrt_is_ucrt_dll_in_use  000000018002a8e0 f   MSVCRT:ucrt_detection.obj
 0001:000298ec       __scrt_fastfail            000000018002a8ec f   MSVCRT:utility_desktop.obj
 0001:00029a34       _guard_check_icall         000000018002aa34 f i MSVCRT:checkcfg.obj
 0001:00029a3c       ??0bad_alloc@std@@QEAA@AEBV01@@Z 000000018002aa3c f i MSVCRT:throw_bad_alloc.obj
 0001:00029a7c       ??0bad_alloc@std@@QEAA@XZ  000000018002aa7c f i MSVCRT:throw_bad_alloc.obj
 0001:00029a9c       ??0bad_array_new_length@std@@QEAA@AEBV01@@Z 000000018002aa9c f i MSVCRT:throw_bad_alloc.obj
 0001:00029adc       ??0bad_array_new_length@std@@QEAA@XZ 000000018002aadc f i MSVCRT:throw_bad_alloc.obj
 0001:00029afc       ??0exception@std@@QEAA@AEBV01@@Z 000000018002aafc f i MSVCRT:throw_bad_alloc.obj
 0001:00029b34       ??1bad_alloc@std@@UEAA@XZ  000000018002ab34 f i MSVCRT:throw_bad_alloc.obj
 0001:00029b34       ??1bad_array_new_length@std@@UEAA@XZ 000000018002ab34 f i MSVCRT:throw_bad_alloc.obj
 0001:00029b48       ??_Ebad_alloc@std@@UEAAPEAXI@Z 000000018002ab48 f i MSVCRT:throw_bad_alloc.obj
 0001:00029b48       ??_Gexception@std@@UEAAPEAXI@Z 000000018002ab48 f i MSVCRT:throw_bad_alloc.obj
 0001:00029b48       ??_Ebad_array_new_length@std@@UEAAPEAXI@Z 000000018002ab48 f i MSVCRT:throw_bad_alloc.obj
 0001:00029b48       ??_Gbad_alloc@std@@UEAAPEAXI@Z 000000018002ab48 f i MSVCRT:throw_bad_alloc.obj
 0001:00029b48       ??_Eexception@std@@UEAAPEAXI@Z 000000018002ab48 f i MSVCRT:throw_bad_alloc.obj
 0001:00029b48       ??_Gbad_array_new_length@std@@UEAAPEAXI@Z 000000018002ab48 f i MSVCRT:throw_bad_alloc.obj
 0001:00029b8c       ?__scrt_throw_std_bad_alloc@@YAXXZ 000000018002ab8c f   MSVCRT:throw_bad_alloc.obj
 0001:00029bac       ?__scrt_throw_std_bad_array_new_length@@YAXXZ 000000018002abac f   MSVCRT:throw_bad_alloc.obj
 0001:00029bcc       ?what@exception@std@@UEBAPEBDXZ 000000018002abcc f i MSVCRT:throw_bad_alloc.obj
 0001:00029be0       __security_init_cookie     000000018002abe0 f   MSVCRT:gs_support.obj
 0001:00029c8c       ?__scrt_initialize_type_info@@YAXXZ 000000018002ac8c f   MSVCRT:tncleanup.obj
 0001:00029c9c       ?__scrt_uninitialize_type_info@@YAXXZ 000000018002ac9c f   MSVCRT:tncleanup.obj
 0001:00029ca8       __local_stdio_printf_options 000000018002aca8 f i MSVCRT:default_local_stdio_options.obj
 0001:00029cb0       __local_stdio_scanf_options 000000018002acb0 f i MSVCRT:default_local_stdio_options.obj
 0001:00029cb8       __scrt_initialize_default_local_stdio_options 000000018002acb8 f   MSVCRT:default_local_stdio_options.obj
 0001:00029cd4       __scrt_get_dyn_tls_init_callback 000000018002acd4 f   MSVCRT:dyn_tls_init.obj
 0001:00029cdc       _RTC_Initialize            000000018002acdc f   MSVCRT:_initsect_.obj
 0001:00029d28       _RTC_Terminate             000000018002ad28 f   MSVCRT:_initsect_.obj
 0001:00029d80       ?Disable@IGradient@@UEAAXXZ 000000018002ad80 f i BerconGradient.obj
 0001:00029d80       ?CloneSelectedKeys@Animatable@@UEAAXH@Z 000000018002ad80 f i BerconDistortion.obj
 0001:00029d80       ?SelectKeys@Animatable@@UEAAXAEAV?$Tab@VTrackHitRecord@@@@K@Z 000000018002ad80 f i BerconDistortion.obj
 0001:00029d80       ?Enable@IGradient@@UEAAXH@Z 000000018002ad80 f i BerconGradient.obj
 0001:00029d80       ??3@YAXPEAX0@Z             000000018002ad80 f i tile.obj
 0001:00029d80       ?ResetCallback@ResourceMakerCallback@@UEAAXHPEAVICurveCtl@@@Z 000000018002ad80 f i BerconGradient.obj
 0001:00029d80       ?DP@ShadeContext@@UEAAXAEAVPoint3@@0@Z 000000018002ad80 f i BerconDistortion.obj
 0001:00029d80       ?AddNewKey@Animatable@@UEAAXHK@Z 000000018002ad80 f i BerconDistortion.obj
 0001:00029d80       ?SetThing@ParamMap2UserDlgProc@@UEAAXPEAVReferenceTarget@@@Z 000000018002ad80 f i BerconDistortion.obj
 0001:00029d80       ?FlagKey@Animatable@@UEAAXVTrackHitRecord@@@Z 000000018002ad80 f i BerconDistortion.obj
 0001:00029d80       ?SelectSubCurve@Animatable@@UEAAXHH@Z 000000018002ad80 f i BerconDistortion.obj
 0001:00029d80       ?ScaleTime@Animatable@@UEAAXVInterval@@M@Z 000000018002ad80 f i BerconDistortion.obj
 0001:00029d80       ?CopyKeysFromTime@Animatable@@UEAAXHHK@Z 000000018002ad80 f i BerconDistortion.obj
 0001:00029d80       ?EditClassParams@ClassDesc@@UEAAXPEAUHWND__@@@Z 000000018002ad80 f i BerconDistortion.obj
 0001:00029d80       ?GetSystemNodes@Animatable@@UEAAXAEAVINodeTab@@W4SysNodeContext@@@Z 000000018002ad80 f i BerconDistortion.obj
 0001:00029d80       ?DeleteKeyAtTime@Animatable@@UEAAXH@Z 000000018002ad80 f i BerconDistortion.obj
 0001:00029d80       ?FreeCaches@Animatable@@UEAAXXZ 000000018002ad80 f i BerconDistortion.obj
 0001:00029d80       ?CommitSetKeyBuffer@Animatable@@UEAAXH@Z 000000018002ad80 f i BerconDistortion.obj
 0001:00029d80       ?RevertSetKeyBuffer@Animatable@@UEAAXXZ 000000018002ad80 f i BerconDistortion.obj
 0001:00029d80       ?LocalMappingsRequired@MtlBase@@UEAAXHAEAVBitArray@@0@Z 000000018002ad80 f i BerconDistortion.obj
 0001:00029d80       ?SelectSubKeys@Animatable@@UEAAXHAEAV?$Tab@VTrackHitRecord@@@@K@Z 000000018002ad80 f i BerconDistortion.obj
 0001:00029d80       ?AdjustTangents@Animatable@@UEAAXVTrackHitRecord@@PEAVParamDimensionBase@@AEAVBox2@@MHMHHHK@Z 000000018002ad80 f i BerconDistortion.obj
 0001:00029d80       ?NotifyTarget@ReferenceTarget@@UEAAXHPEAVReferenceMaker@@@Z 000000018002ad80 f i BerconDistortion.obj
 0001:00029d80       ?NewCurveCreatedCallback@ResourceMakerCallback@@UEAAXHPEAVICurveCtl@@@Z 000000018002ad80 f i BerconGradient.obj
 0001:00029d80       ?DeleteTime@Animatable@@UEAAXVInterval@@K@Z 000000018002ad80 f i BerconDistortion.obj
 0001:00029d80       ?FreeAllBitmaps@Animatable@@UEAAXXZ 000000018002ad80 f i BerconDistortion.obj
 0001:00029d80       ?SetOutputLevel@Texmap@@UEAAXHM@Z 000000018002ad80 f i BerconDistortion.obj
 0001:00029d80       ?SetNormal@ShadeContext@@UEAAXVPoint3@@@Z 000000018002ad80 f i BerconDistortion.obj
 0001:00029d80       ?PasteSubTrack@Animatable@@UEAAXHPEAVTrackClipObject@@VInterval@@K@Z 000000018002ad80 f i BerconDistortion.obj
 0001:00029d80       ?EditTimeRange@Animatable@@UEAAXVInterval@@K@Z 000000018002ad80 f i BerconDistortion.obj
 0001:00029d80       ?SelectCurve@Animatable@@UEAAXH@Z 000000018002ad80 f i BerconDistortion.obj
 0001:00029d80       ?Update@ParamMap2UserDlgProc@@UEAAXH@Z 000000018002ad80 f i BerconDistortion.obj
 0001:00029d80       ?PasteTrack@Animatable@@UEAAXPEAVTrackClipObject@@VInterval@@K@Z 000000018002ad80 f i BerconDistortion.obj
 0001:00029d80       _guard_check_icall_nop     000000018002ad80 f i MSVCRT:guard_support.obj
 0001:00029d80       ?BeginEditParams@Animatable@@UEAAXPEAVIObjParam@@KPEAV1@@Z 000000018002ad80 f i BerconDistortion.obj
 0001:00029d80       ?SetParamBlock@ParamMap2UserDlgProc@@UEAAXPEAVIParamBlock2@@@Z 000000018002ad80 f i BerconDistortion.obj
 0001:00029d80       ?__empty_global_delete@@YAXPEAX_K@Z 000000018002ad80 f i BerconDistortion.obj
 0001:00029d80       ?PutCache@ShadeContext@@UEAAXPEAVTexmap@@AEBVPoint3@@@Z 000000018002ad80 f i BerconDistortion.obj
 0001:00029d80       ?RefDeletedUndoRedo@ReferenceTarget@@UEAAXXZ 000000018002ad80 f i BerconDistortion.obj
 0001:00029d80       ?ScaleKeyValues@Animatable@@UEAAXPEAVParamDimensionBase@@MMK@Z 000000018002ad80 f i BerconDistortion.obj
 0001:00029d80       ?ReverseTime@Animatable@@UEAAXVInterval@@K@Z 000000018002ad80 f i BerconDistortion.obj
 0001:00029d80       ?__global_delete@@YAXPEAX_K@Z 000000018002ad80 f i BerconDistortion.obj
 0001:00029d80       ?Enable2@IGradient@@UEAAXH@Z 000000018002ad80 f i BerconGradient.obj
 0001:00029d80       ?DeleteKeyByIndex@Animatable@@UEAAXH@Z 000000018002ad80 f i BerconDistortion.obj
 0001:00029d80       ?PutCache@ShadeContext@@UEAAXPEAVTexmap@@AEBVAColor@@@Z 000000018002ad80 f i BerconDistortion.obj
 0001:00029d80       ?DeleteKeys@Animatable@@UEAAXK@Z 000000018002ad80 f i BerconDistortion.obj
 0001:00029d80       ?DeleteSubAnim@Animatable@@UEAAXH@Z 000000018002ad80 f i BerconDistortion.obj
 0001:00029d80       ?EndEditParams@Animatable@@UEAAXPEAVIObjParam@@KPEAV1@@Z 000000018002ad80 f i BerconDistortion.obj
 0001:00029d80       ?EditTrackParams@Animatable@@UEAAXHPEAVParamDimensionBase@@PEB_WPEAUHWND__@@PEAVIObjParam@@K@Z 000000018002ad80 f i BerconDistortion.obj
 0001:00029d80       ?SetSelKeyCoords@Animatable@@UEAAXHMK@Z 000000018002ad80 f i BerconDistortion.obj
 0001:00029d80       ?IntersectRay@RenderGlobalContext@@UEAAXPEAVRenderInstance@@AEAVRay@@AEAUISect@@AEAVISectList@@H@Z 000000018002ad80 f i BerconDistortion.obj
 0001:00029d80       ?InsertTime@Animatable@@UEAAXHH@Z 000000018002ad80 f i BerconDistortion.obj
 0001:00029d80       ?TossCache@ShadeContext@@UEAAXPEAVTexmap@@@Z 000000018002ad80 f i BerconDistortion.obj
 0001:00029d80       ?PutCache@ShadeContext@@UEAAXPEAVTexmap@@M@Z 000000018002ad80 f i BerconDistortion.obj
 0001:00029d80       ?SetTooltip@IGradient@@UEAAX_NPEB_W@Z 000000018002ad80 f i BerconGradient.obj
 0001:00029d80       ?MoveKeys@Animatable@@UEAAXPEAVParamDimensionBase@@MK@Z 000000018002ad80 f i BerconDistortion.obj
 0001:00029d80       ?SetIOR@ShadeContext@@UEAAXM@Z 000000018002ad80 f i BerconDistortion.obj
 0001:00029d80       ?RefAddedUndoRedo@ReferenceTarget@@UEAAXPEAVReferenceMaker@@@Z 000000018002ad80 f i BerconDistortion.obj
 0001:00029d80       ?SetupGfxMultiMaps@MtlBase@@UEAAXHPEAVMaterial@@AEAVMtlMakerCallback@@@Z 000000018002ad80 f i BerconDistortion.obj
 0001:00029d80       ?SelectKeyByIndex@Animatable@@UEAAXHH@Z 000000018002ad80 f i BerconDistortion.obj
 0001:00029d80       ?RefDeleted@ReferenceTarget@@UEAAXXZ 000000018002ad80 f i BerconDistortion.obj
 0001:00029d90       _purecall                  000000018002ad90 f   vcruntime:VCRUNTIME140.dll
 0001:00029d96       _CxxThrowException         000000018002ad96 f   vcruntime:VCRUNTIME140.dll
 0001:00029d9c       __CxxFrameHandler3         000000018002ad9c f   vcruntime:VCRUNTIME140.dll
 0001:00029da2       memcpy                     000000018002ada2 f   vcruntime:VCRUNTIME140.dll
 0001:00029da8       __C_specific_handler       000000018002ada8 f   vcruntime:VCRUNTIME140.dll
 0001:00029dae       memset                     000000018002adae f   vcruntime:VCRUNTIME140.dll
 0001:00029db4       __std_exception_copy       000000018002adb4 f   vcruntime:VCRUNTIME140.dll
 0001:00029dba       __std_exception_destroy    000000018002adba f   vcruntime:VCRUNTIME140.dll
 0001:00029dc0       __std_type_info_destroy_list 000000018002adc0 f   vcruntime:VCRUNTIME140.dll
 0001:00029dc6       acosf                      000000018002adc6 f   ucrt:api-ms-win-crt-math-l1-1-0.dll
 0001:00029dcc       sqrtf                      000000018002adcc f   ucrt:api-ms-win-crt-math-l1-1-0.dll
 0001:00029dd2       floorf                     000000018002add2 f   ucrt:api-ms-win-crt-math-l1-1-0.dll
 0001:00029dd8       powf                       000000018002add8 f   ucrt:api-ms-win-crt-math-l1-1-0.dll
 0001:00029dde       cosf                       000000018002adde f   ucrt:api-ms-win-crt-math-l1-1-0.dll
 0001:00029de4       sinf                       000000018002ade4 f   ucrt:api-ms-win-crt-math-l1-1-0.dll
 0001:00029dea       fmodf                      000000018002adea f   ucrt:api-ms-win-crt-math-l1-1-0.dll
 0001:00029df0       sqrt                       000000018002adf0 f   ucrt:api-ms-win-crt-math-l1-1-0.dll
 0001:00029df6       _seh_filter_dll            000000018002adf6 f   ucrt:api-ms-win-crt-runtime-l1-1-0.dll
 0001:00029dfc       _configure_narrow_argv     000000018002adfc f   ucrt:api-ms-win-crt-runtime-l1-1-0.dll
 0001:00029e02       _initialize_narrow_environment 000000018002ae02 f   ucrt:api-ms-win-crt-runtime-l1-1-0.dll
 0001:00029e08       _initialize_onexit_table   000000018002ae08 f   ucrt:api-ms-win-crt-runtime-l1-1-0.dll
 0001:00029e0e       _register_onexit_function  000000018002ae0e f   ucrt:api-ms-win-crt-runtime-l1-1-0.dll
 0001:00029e14       _execute_onexit_table      000000018002ae14 f   ucrt:api-ms-win-crt-runtime-l1-1-0.dll
 0001:00029e1a       _crt_atexit                000000018002ae1a f   ucrt:api-ms-win-crt-runtime-l1-1-0.dll
 0001:00029e20       _cexit                     000000018002ae20 f   ucrt:api-ms-win-crt-runtime-l1-1-0.dll
 0001:00029e26       _callnewh                  000000018002ae26 f   ucrt:api-ms-win-crt-heap-l1-1-0.dll
 0001:00029e2c       malloc                     000000018002ae2c f   ucrt:api-ms-win-crt-heap-l1-1-0.dll
 0001:00029e32       free                       000000018002ae32 f   ucrt:api-ms-win-crt-heap-l1-1-0.dll
 0001:00029e38       _initterm                  000000018002ae38 f   ucrt:api-ms-win-crt-runtime-l1-1-0.dll
 0001:00029e3e       _initterm_e                000000018002ae3e f   ucrt:api-ms-win-crt-runtime-l1-1-0.dll
 0001:00029e44       IsProcessorFeaturePresent  000000018002ae44 f   kernel32:KERNEL32.dll
 0001:00029e50       ?IsParamBlockDesc2Used@Animatable@@UEAA_NPEAVParamBlockDesc2@@@Z 000000018002ae50 f   BerconDistortion.obj
 0001:00029e50       __scrt_stub_for_acrt_uninitialize_critical 000000018002ae50 f   MSVCRT:ucrt_stubs.obj
 0001:00029e50       __acrt_uninitialize        000000018002ae50 f   MSVCRT:ucrt_stubs.obj
 0001:00029e50       __vcrt_thread_detach       000000018002ae50 f   MSVCRT:ucrt_stubs.obj
 0001:00029e50       __vcrt_uninitialize        000000018002ae50 f   MSVCRT:ucrt_stubs.obj
 0001:00029e50       __acrt_thread_detach       000000018002ae50 f   MSVCRT:ucrt_stubs.obj
 0001:00029e50       __vcrt_initialize          000000018002ae50 f   MSVCRT:ucrt_stubs.obj
 0001:00029e50       __scrt_stub_for_acrt_initialize 000000018002ae50 f   MSVCRT:ucrt_stubs.obj
 0001:00029e50       __scrt_stub_for_acrt_thread_detach 000000018002ae50 f   MSVCRT:ucrt_stubs.obj
 0001:00029e50       __acrt_initialize          000000018002ae50 f   MSVCRT:ucrt_stubs.obj
 0001:00029e50       __acrt_thread_attach       000000018002ae50 f   MSVCRT:ucrt_stubs.obj
 0001:00029e50       __vcrt_uninitialize_critical 000000018002ae50 f   MSVCRT:ucrt_stubs.obj
 0001:00029e50       __vcrt_thread_attach       000000018002ae50 f   MSVCRT:ucrt_stubs.obj
 0001:00029e50       __scrt_stub_for_acrt_uninitialize 000000018002ae50 f   MSVCRT:ucrt_stubs.obj
 0001:00029e50       __acrt_uninitialize_critical 000000018002ae50 f   MSVCRT:ucrt_stubs.obj
 0001:00029e50       __scrt_stub_for_acrt_thread_attach 000000018002ae50 f   MSVCRT:ucrt_stubs.obj
 0001:00029e70       _guard_dispatch_icall_nop  000000018002ae70 f   MSVCRT:_guard_dispatch_.obj
 0002:00000000       __imp_DeleteObject         000000018002c000     gdi32:GDI32.dll
 0002:00000008       __imp_GetStockObject       000000018002c008     gdi32:GDI32.dll
 0002:00000010       __imp_SetPixel             000000018002c010     gdi32:GDI32.dll
 0002:00000018       __imp_SelectObject         000000018002c018     gdi32:GDI32.dll
 0002:00000020       __imp_DeleteDC             000000018002c020     gdi32:GDI32.dll
 0002:00000028       __imp_CreateSolidBrush     000000018002c028     gdi32:GDI32.dll
 0002:00000030       __imp_CreateCompatibleDC   000000018002c030     gdi32:GDI32.dll
 0002:00000038       __imp_CreateCompatibleBitmap 000000018002c038     gdi32:GDI32.dll
 0002:00000040       __imp_BitBlt               000000018002c040     gdi32:GDI32.dll
 0002:00000048       \177GDI32_NULL_THUNK_DATA  000000018002c048     gdi32:GDI32.dll
 0002:00000050       __imp_IsDebuggerPresent    000000018002c050     kernel32:KERNEL32.dll
 0002:00000058       __imp_RtlVirtualUnwind     000000018002c058     kernel32:KERNEL32.dll
 0002:00000060       __imp_RtlLookupFunctionEntry 000000018002c060     kernel32:KERNEL32.dll
 0002:00000068       __imp_RtlCaptureContext    000000018002c068     kernel32:KERNEL32.dll
 0002:00000070       __imp_OutputDebugStringA   000000018002c070     kernel32:KERNEL32.dll
 0002:00000078       __imp_GetLastError         000000018002c078     kernel32:KERNEL32.dll
 0002:00000080       __imp_SetLastError         000000018002c080     kernel32:KERNEL32.dll
 0002:00000088       __imp_DisableThreadLibraryCalls 000000018002c088     kernel32:KERNEL32.dll
 0002:00000090       __imp_GetModuleFileNameW   000000018002c090     kernel32:KERNEL32.dll
 0002:00000098       __imp_UnhandledExceptionFilter 000000018002c098     kernel32:KERNEL32.dll
 0002:000000a0       __imp_GetProcAddress       000000018002c0a0     kernel32:KERNEL32.dll
 0002:000000a8       __imp_LoadLibraryW         000000018002c0a8     kernel32:KERNEL32.dll
 0002:000000b0       __imp_CreateActCtxW        000000018002c0b0     kernel32:KERNEL32.dll
 0002:000000b8       __imp_ActivateActCtx       000000018002c0b8     kernel32:KERNEL32.dll
 0002:000000c0       __imp_DeactivateActCtx     000000018002c0c0     kernel32:KERNEL32.dll
 0002:000000c8       __imp_FindActCtxSectionStringW 000000018002c0c8     kernel32:KERNEL32.dll
 0002:000000d0       __imp_QueryActCtxW         000000018002c0d0     kernel32:KERNEL32.dll
 0002:000000d8       __imp_TlsGetValue          000000018002c0d8     kernel32:KERNEL32.dll
 0002:000000e0       __imp_SetUnhandledExceptionFilter 000000018002c0e0     kernel32:KERNEL32.dll
 0002:000000e8       __imp_IsProcessorFeaturePresent 000000018002c0e8     kernel32:KERNEL32.dll
 0002:000000f0       __imp_QueryPerformanceCounter 000000018002c0f0     kernel32:KERNEL32.dll
 0002:000000f8       __imp_InitializeSListHead  000000018002c0f8     kernel32:KERNEL32.dll
 0002:00000100       __imp_GetCurrentProcessId  000000018002c100     kernel32:KERNEL32.dll
 0002:00000108       __imp_GetCurrentThreadId   000000018002c108     kernel32:KERNEL32.dll
 0002:00000110       __imp_GetSystemTimeAsFileTime 000000018002c110     kernel32:KERNEL32.dll
 0002:00000118       __imp_GetModuleHandleExW   000000018002c118     kernel32:KERNEL32.dll
 0002:00000120       \177KERNEL32_NULL_THUNK_DATA 000000018002c120     kernel32:KERNEL32.dll
 0002:00000128       __imp_?macroRecorder@@3PEAVMacroRecorder@@EA 000000018002c128     Maxscrpt:MAXScrpt.dll
 0002:00000130       __imp_?thread_locals_index@@3HA 000000018002c130     Maxscrpt:MAXScrpt.dll
 0002:00000138       \177MAXScrpt_NULL_THUNK_DATA 000000018002c138     Maxscrpt:MAXScrpt.dll
 0002:00000140       __imp_??1ios_base@std@@UEAA@XZ 000000018002c140     msvcprt:MSVCP140.dll
 0002:00000148       __imp_?_Ios_base_dtor@ios_base@std@@CAXPEAV12@@Z 000000018002c148     msvcprt:MSVCP140.dll
 0002:00000150       __imp_??0?$basic_streambuf@_WU?$char_traits@_W@std@@@std@@IEAA@XZ 000000018002c150     msvcprt:MSVCP140.dll
 0002:00000158       __imp_??1?$basic_streambuf@_WU?$char_traits@_W@std@@@std@@UEAA@XZ 000000018002c158     msvcprt:MSVCP140.dll
 0002:00000160       __imp_?_Pninc@?$basic_streambuf@_WU?$char_traits@_W@std@@@std@@IEAAPEA_WXZ 000000018002c160     msvcprt:MSVCP140.dll
 0002:00000168       __imp_??1?$basic_ios@_WU?$char_traits@_W@std@@@std@@UEAA@XZ 000000018002c168     msvcprt:MSVCP140.dll
 0002:00000170       __imp_??0?$basic_ios@_WU?$char_traits@_W@std@@@std@@IEAA@XZ 000000018002c170     msvcprt:MSVCP140.dll
 0002:00000178       __imp_??5?$basic_istream@_WU?$char_traits@_W@std@@@std@@QEAAAEAV01@AEAN@Z 000000018002c178     msvcprt:MSVCP140.dll
 0002:00000180       __imp_??0?$basic_iostream@_WU?$char_traits@_W@std@@@std@@QEAA@PEAV?$basic_streambuf@_WU?$char_traits@_W@std@@@1@@Z 000000018002c180     msvcprt:MSVCP140.dll
 0002:00000188       __imp_??1?$basic_iostream@_WU?$char_traits@_W@std@@@std@@UEAA@XZ 000000018002c188     msvcprt:MSVCP140.dll
 0002:00000190       __imp_?_Lock@?$basic_streambuf@_WU?$char_traits@_W@std@@@std@@UEAAXXZ 000000018002c190     msvcprt:MSVCP140.dll
 0002:00000198       __imp_?_Xout_of_range@std@@YAXPEBD@Z 000000018002c198     msvcprt:MSVCP140.dll
 0002:000001a0       __imp_?imbue@?$basic_streambuf@_WU?$char_traits@_W@std@@@std@@MEAAXAEBVlocale@2@@Z 000000018002c1a0     msvcprt:MSVCP140.dll
 0002:000001a8       __imp_?setbuf@?$basic_streambuf@_WU?$char_traits@_W@std@@@std@@MEAAPEAV12@PEA_W_J@Z 000000018002c1a8     msvcprt:MSVCP140.dll
 0002:000001b0       __imp_?showmanyc@?$basic_streambuf@_WU?$char_traits@_W@std@@@std@@MEAA_JXZ 000000018002c1b0     msvcprt:MSVCP140.dll
 0002:000001b8       __imp_?sync@?$basic_streambuf@_WU?$char_traits@_W@std@@@std@@MEAAHXZ 000000018002c1b8     msvcprt:MSVCP140.dll
 0002:000001c0       __imp_?uflow@?$basic_streambuf@_WU?$char_traits@_W@std@@@std@@MEAAGXZ 000000018002c1c0     msvcprt:MSVCP140.dll
 0002:000001c8       __imp_?xsgetn@?$basic_streambuf@_WU?$char_traits@_W@std@@@std@@MEAA_JPEA_W_J@Z 000000018002c1c8     msvcprt:MSVCP140.dll
 0002:000001d0       __imp_?xsputn@?$basic_streambuf@_WU?$char_traits@_W@std@@@std@@MEAA_JPEB_W_J@Z 000000018002c1d0     msvcprt:MSVCP140.dll
 0002:000001d8       __imp_?_BADOFF@std@@3_JB   000000018002c1d8     msvcprt:MSVCP140.dll
 0002:000001e0       __imp_??_7ios_base@std@@6B@ 000000018002c1e0     msvcprt:MSVCP140.dll
 0002:000001e8       __imp_??_7?$basic_ios@_WU?$char_traits@_W@std@@@std@@6B@ 000000018002c1e8     msvcprt:MSVCP140.dll
 0002:000001f0       __imp_?_Xlength_error@std@@YAXPEBD@Z 000000018002c1f0     msvcprt:MSVCP140.dll
 0002:000001f8       __imp_?_Unlock@?$basic_streambuf@_WU?$char_traits@_W@std@@@std@@UEAAXXZ 000000018002c1f8     msvcprt:MSVCP140.dll
 0002:00000200       __imp_?_Xbad_alloc@std@@YAXXZ 000000018002c200     msvcprt:MSVCP140.dll
 0002:00000208       \177MSVCP140_NULL_THUNK_DATA 000000018002c208     msvcprt:MSVCP140.dll
 0002:00000210       __imp_??0ParamBlockDesc2@@QEAA@FPEB_W_JPEAVClassDesc2@@GZZ 000000018002c210     Paramblk2:ParamBlk2.dll
 0002:00000218       __imp_?CreateParamDlgs@ClassDesc2@@QEAAPEAVIAutoMParamDlg@@PEAUHWND__@@PEAVIMtlParams@@PEAVReferenceTarget@@@Z 000000018002c218     Paramblk2:ParamBlk2.dll
 0002:00000220       __imp_?SetUserDlgProc@ClassDesc2@@QEAAXPEAVParamBlockDesc2@@FPEAVParamMap2UserDlgProc@@@Z 000000018002c220     Paramblk2:ParamBlk2.dll
 0002:00000228       __imp_?InvalidateUI@ClassDesc2@@QEAAXPEAVParamBlockDesc2@@FH@Z 000000018002c228     Paramblk2:ParamBlk2.dll
 0002:00000230       __imp_??1ClassDesc2@@UEAA@XZ 000000018002c230     Paramblk2:ParamBlk2.dll
 0002:00000238       __imp_??0ClassDesc2@@QEAA@XZ 000000018002c238     Paramblk2:ParamBlk2.dll
 0002:00000240       __imp_?MakeAutoParamBlocks@ClassDesc2@@UEAAXPEAVReferenceMaker@@@Z 000000018002c240     Paramblk2:ParamBlk2.dll
 0002:00000248       __imp_?InvalidateUI@ClassDesc2@@UEAAXPEAVParamBlockDesc2@@@Z 000000018002c248     Paramblk2:ParamBlk2.dll
 0002:00000250       __imp_?EndEditParams@ClassDesc2@@UEAAXPEAVIObjParam@@PEAVReferenceMaker@@KPEAVAnimatable@@@Z 000000018002c250     Paramblk2:ParamBlk2.dll
 0002:00000258       __imp_?BeginEditParams@ClassDesc2@@UEAAXPEAVIObjParam@@PEAVReferenceMaker@@KPEAVAnimatable@@@Z 000000018002c258     Paramblk2:ParamBlk2.dll
 0002:00000260       __imp_?AddParamBlockDesc@ClassDesc2@@UEAAXPEAVParamBlockDesc2@@@Z 000000018002c260     Paramblk2:ParamBlk2.dll
 0002:00000268       __imp_?GetParamBlockDescByID@ClassDesc2@@UEAAPEAVParamBlockDesc2@@F@Z 000000018002c268     Paramblk2:ParamBlk2.dll
 0002:00000270       __imp_?ResetClassParams@ClassDesc2@@UEAAXH@Z 000000018002c270     Paramblk2:ParamBlk2.dll
 0002:00000278       __imp_?GetParamMap@ClassDesc2@@UEAAPEAVIParamMap2@@H@Z 000000018002c278     Paramblk2:ParamBlk2.dll
 0002:00000280       __imp_?NumParamMaps@ClassDesc2@@UEAAHXZ 000000018002c280     Paramblk2:ParamBlk2.dll
 0002:00000288       __imp_?GetParamBlockDesc@ClassDesc2@@UEAAPEAVParamBlockDesc2@@H@Z 000000018002c288     Paramblk2:ParamBlk2.dll
 0002:00000290       __imp_?NumParamBlockDescs@ClassDesc2@@UEAAHXZ 000000018002c290     Paramblk2:ParamBlk2.dll
 0002:00000298       __imp_?SetUserDlgProc@ParamBlockDesc2@@QEAAXFPEAVParamMap2UserDlgProc@@@Z 000000018002c298     Paramblk2:ParamBlk2.dll
 0002:000002a0       __imp_??1ParamBlockDesc2@@UEAA@XZ 000000018002c2a0     Paramblk2:ParamBlk2.dll
 0002:000002a8       \177ParamBlk2_NULL_THUNK_DATA 000000018002c2a8     Paramblk2:ParamBlk2.dll
 0002:000002b0       __imp_EndPaint             000000018002c2b0     user32:USER32.dll
 0002:000002b8       __imp_GetDlgItem           000000018002c2b8     user32:USER32.dll
 0002:000002c0       __imp_DestroyWindow        000000018002c2c0     user32:USER32.dll
 0002:000002c8       __imp_SetWindowLongPtrW    000000018002c2c8     user32:USER32.dll
 0002:000002d0       __imp_LoadStringW          000000018002c2d0     user32:USER32.dll
 0002:000002d8       __imp_InvalidateRect       000000018002c2d8     user32:USER32.dll
 0002:000002e0       __imp_GetWindowRect        000000018002c2e0     user32:USER32.dll
 0002:000002e8       __imp_FillRect             000000018002c2e8     user32:USER32.dll
 0002:000002f0       __imp_DefWindowProcW       000000018002c2f0     user32:USER32.dll
 0002:000002f8       __imp_RegisterClassExW     000000018002c2f8     user32:USER32.dll
 0002:00000300       __imp_GetKeyState          000000018002c300     user32:USER32.dll
 0002:00000308       __imp_LoadMenuW            000000018002c308     user32:USER32.dll
 0002:00000310       __imp_GetSubMenu           000000018002c310     user32:USER32.dll
 0002:00000318       __imp_LoadCursorW          000000018002c318     user32:USER32.dll
 0002:00000320       __imp_TrackPopupMenuEx     000000018002c320     user32:USER32.dll
 0002:00000328       __imp_SendMessageW         000000018002c328     user32:USER32.dll
 0002:00000330       __imp_BeginPaint           000000018002c330     user32:USER32.dll
 0002:00000338       __imp_GetCursorPos         000000018002c338     user32:USER32.dll
 0002:00000340       __imp_GetWindowLongPtrW    000000018002c340     user32:USER32.dll
 0002:00000348       \177USER32_NULL_THUNK_DATA 000000018002c348     user32:USER32.dll
 0002:00000350       __imp__purecall            000000018002c350     vcruntime:VCRUNTIME140.dll
 0002:00000358       __imp___std_type_info_destroy_list 000000018002c358     vcruntime:VCRUNTIME140.dll
 0002:00000360       __imp___std_exception_destroy 000000018002c360     vcruntime:VCRUNTIME140.dll
 0002:00000368       __imp___std_exception_copy 000000018002c368     vcruntime:VCRUNTIME140.dll
 0002:00000370       __imp__CxxThrowException   000000018002c370     vcruntime:VCRUNTIME140.dll
 0002:00000378       __imp___CxxFrameHandler3   000000018002c378     vcruntime:VCRUNTIME140.dll
 0002:00000380       __imp_memmove              000000018002c380     vcruntime:VCRUNTIME140.dll
 0002:00000388       __imp_memset               000000018002c388     vcruntime:VCRUNTIME140.dll
 0002:00000390       __imp___C_specific_handler 000000018002c390     vcruntime:VCRUNTIME140.dll
 0002:00000398       __imp_memcpy               000000018002c398     vcruntime:VCRUNTIME140.dll
 0002:000003a0       \177VCRUNTIME140_NULL_THUNK_DATA 000000018002c3a0     vcruntime:VCRUNTIME140.dll
 0002:000003a8       __imp_malloc               000000018002c3a8     ucrt:api-ms-win-crt-heap-l1-1-0.dll
 0002:000003b0       __imp_free                 000000018002c3b0     ucrt:api-ms-win-crt-heap-l1-1-0.dll
 0002:000003b8       __imp__callnewh            000000018002c3b8     ucrt:api-ms-win-crt-heap-l1-1-0.dll
 0002:000003c0       \177api-ms-win-crt-heap-l1-1-0_NULL_THUNK_DATA 000000018002c3c0     ucrt:api-ms-win-crt-heap-l1-1-0.dll
 0002:000003c8       __imp_acosf                000000018002c3c8     ucrt:api-ms-win-crt-math-l1-1-0.dll
 0002:000003d0       __imp_sqrt                 000000018002c3d0     ucrt:api-ms-win-crt-math-l1-1-0.dll
 0002:000003d8       __imp_fmodf                000000018002c3d8     ucrt:api-ms-win-crt-math-l1-1-0.dll
 0002:000003e0       __imp_sinf                 000000018002c3e0     ucrt:api-ms-win-crt-math-l1-1-0.dll
 0002:000003e8       __imp_sqrtf                000000018002c3e8     ucrt:api-ms-win-crt-math-l1-1-0.dll
 0002:000003f0       __imp_fmaxf                000000018002c3f0     ucrt:api-ms-win-crt-math-l1-1-0.dll
 0002:000003f8       __imp_powf                 000000018002c3f8     ucrt:api-ms-win-crt-math-l1-1-0.dll
 0002:00000400       __imp_floorf               000000018002c400     ucrt:api-ms-win-crt-math-l1-1-0.dll
 0002:00000408       __imp_cosf                 000000018002c408     ucrt:api-ms-win-crt-math-l1-1-0.dll
 0002:00000410       \177api-ms-win-crt-math-l1-1-0_NULL_THUNK_DATA 000000018002c410     ucrt:api-ms-win-crt-math-l1-1-0.dll
 0002:00000418       __imp__crt_atexit          000000018002c418     ucrt:api-ms-win-crt-runtime-l1-1-0.dll
 0002:00000420       __imp__seh_filter_dll      000000018002c420     ucrt:api-ms-win-crt-runtime-l1-1-0.dll
 0002:00000428       __imp__configure_narrow_argv 000000018002c428     ucrt:api-ms-win-crt-runtime-l1-1-0.dll
 0002:00000430       __imp__initialize_narrow_environment 000000018002c430     ucrt:api-ms-win-crt-runtime-l1-1-0.dll
 0002:00000438       __imp__initialize_onexit_table 000000018002c438     ucrt:api-ms-win-crt-runtime-l1-1-0.dll
 0002:00000440       __imp__register_onexit_function 000000018002c440     ucrt:api-ms-win-crt-runtime-l1-1-0.dll
 0002:00000448       __imp__execute_onexit_table 000000018002c448     ucrt:api-ms-win-crt-runtime-l1-1-0.dll
 0002:00000450       __imp__cexit               000000018002c450     ucrt:api-ms-win-crt-runtime-l1-1-0.dll
 0002:00000458       __imp__initterm            000000018002c458     ucrt:api-ms-win-crt-runtime-l1-1-0.dll
 0002:00000460       __imp__initterm_e          000000018002c460     ucrt:api-ms-win-crt-runtime-l1-1-0.dll
 0002:00000468       __imp__invalid_parameter_noinfo_noreturn 000000018002c468     ucrt:api-ms-win-crt-runtime-l1-1-0.dll
 0002:00000470       \177api-ms-win-crt-runtime-l1-1-0_NULL_THUNK_DATA 000000018002c470     ucrt:api-ms-win-crt-runtime-l1-1-0.dll
 0002:00000478       __imp_srand                000000018002c478     ucrt:api-ms-win-crt-utility-l1-1-0.dll
 0002:00000480       __imp_rand                 000000018002c480     ucrt:api-ms-win-crt-utility-l1-1-0.dll
 0002:00000488       \177api-ms-win-crt-utility-l1-1-0_NULL_THUNK_DATA 000000018002c488     ucrt:api-ms-win-crt-utility-l1-1-0.dll
 0002:00000490       __imp_?SvHandleRelDoubleClick@Animatable@@UEAA_NPEAVIGraphObjectManager@@PEAVIGraphNode@@H1@Z 000000018002c490     core:core.dll
 0002:00000498       __imp_?SvHandleDoubleClick@MtlBase@@UEAA_NPEAVIGraphObjectManager@@PEAVIGraphNode@@@Z 000000018002c498     core:core.dll
 0002:000004a0       __imp_?SvGetTip@Animatable@@UEAA?AVWStr@@PEAVIGraphObjectManager@@PEAVIGraphNode@@@Z 000000018002c4a0     core:core.dll
 0002:000004a8       __imp_?SvGetSwatchColor@Animatable@@UEAAKPEAVIGraphObjectManager@@PEAVIGraphNode@@@Z 000000018002c4a8     core:core.dll
 0002:000004b0       __imp_?SvGetRelTip@Animatable@@UEAA?AVWStr@@PEAVIGraphObjectManager@@PEAVIGraphNode@@H1@Z 000000018002c4b0     core:core.dll
 0002:000004b8       __imp_?SvGetRefTip@Animatable@@UEAA?AVWStr@@PEAVIGraphObjectManager@@PEAVIGraphNode@@1@Z 000000018002c4b8     core:core.dll
 0002:000004c0       __imp_?SvGetName@MtlBase@@UEAA?AVWStr@@PEAVIGraphObjectManager@@PEAVIGraphNode@@_N@Z 000000018002c4c0     core:core.dll
 0002:000004c8       __imp_?SvGetMultiSelectCallback@MtlBase@@UEAAPEAVMultiSelectCallback@@PEAVIGraphObjectManager@@PEAVIGraphNode@@@Z 000000018002c4c8     core:core.dll
 0002:000004d0       __imp_?SvEditProperties@Animatable@@UEAA_NPEAVIGraphObjectManager@@PEAVIGraphNode@@@Z 000000018002c4d0     core:core.dll
 0002:000004d8       __imp_?SvDetachRel@Animatable@@UEAA_NPEAVIGraphObjectManager@@PEAVIGraphNode@@H1@Z 000000018002c4d8     core:core.dll
 0002:000004e0       __imp_?SvDetach@Animatable@@UEAA_NPEAVIGraphObjectManager@@PEAVIGraphNode@@@Z 000000018002c4e0     core:core.dll
 0002:000004e8       __imp_?SvCanSetName@MtlBase@@UEAA_NPEAVIGraphObjectManager@@PEAVIGraphNode@@@Z 000000018002c4e8     core:core.dll
 0002:000004f0       __imp_?SvCanSelect@MtlBase@@UEAA_NPEAVIGraphObjectManager@@PEAVIGraphNode@@@Z 000000018002c4f0     core:core.dll
 0002:000004f8       __imp_?SvHighlightColor@MtlBase@@UEAAKPEAVIGraphObjectManager@@PEAVIGraphNode@@@Z 000000018002c4f8     core:core.dll
 0002:00000500       __imp_?SvCanInitiateLink@Animatable@@UEAA_NPEAVIGraphObjectManager@@PEAVIGraphNode@@@Z 000000018002c500     core:core.dll
 0002:00000508       __imp_?SvCanDetachRel@Animatable@@UEAA_NPEAVIGraphObjectManager@@PEAVIGraphNode@@H1@Z 000000018002c508     core:core.dll
 0002:00000510       __imp_?SvCanDetach@Animatable@@UEAA_NPEAVIGraphObjectManager@@PEAVIGraphNode@@@Z 000000018002c510     core:core.dll
 0002:00000518       __imp_?SvCanConcludeLink@Animatable@@UEAA_NPEAVIGraphObjectManager@@PEAVIGraphNode@@1@Z 000000018002c518     core:core.dll
 0002:00000520       __imp_?SubAnimSetKeyBufferPresent@Animatable@@UEAAHH@Z 000000018002c520     core:core.dll
 0002:00000528       __imp_?SubAnimRevertSetKeyBuffer@Animatable@@UEAAXH@Z 000000018002c528     core:core.dll
 0002:00000530       __imp_?SvIsHighlighted@Animatable@@UEAA_NPEAVIGraphObjectManager@@PEAVIGraphNode@@@Z 000000018002c530     core:core.dll
 0002:00000538       __imp_?SvIsInactive@Animatable@@UEAA_NPEAVIGraphObjectManager@@PEAVIGraphNode@@@Z 000000018002c538     core:core.dll
 0002:00000540       __imp_?SvIsSelected@MtlBase@@UEAA_NPEAVIGraphObjectManager@@PEAVIGraphNode@@@Z 000000018002c540     core:core.dll
 0002:00000548       __imp_?SvLinkChild@Animatable@@UEAA_NPEAVIGraphObjectManager@@PEAVIGraphNode@@1@Z 000000018002c548     core:core.dll
 0002:00000550       __imp_?SvRemoveThis@Animatable@@UEAA_NPEAVIGraphObjectManager@@PEAVIGraphNode@@@Z 000000018002c550     core:core.dll
 0002:00000558       __imp_?SvSetName@MtlBase@@UEAA_NPEAVIGraphObjectManager@@PEAVIGraphNode@@AEBVWStr@@@Z 000000018002c558     core:core.dll
 0002:00000560       __imp_?SvTraverseAnimGraph@Texmap@@UEAA?AVSvGraphNodeReference@@PEAVIGraphObjectManager@@PEAVAnimatable@@HK@Z 000000018002c560     core:core.dll
 0002:00000568       __imp_?VectorFromNoScale@ShadeContext@@UEAA?AVPoint3@@AEBV2@W4RefFrame@@@Z 000000018002c568     core:core.dll
 0002:00000570       __imp_?VectorToNoScale@ShadeContext@@UEAA?AVPoint3@@AEBV2@W4RefFrame@@@Z 000000018002c570     core:core.dll
 0002:00000578       __imp_?defaultDim@@3PEAVParamDimension@@EA 000000018002c578     core:core.dll
 0002:00000580       __imp_?GetCOREInterface@@YAPEAVInterface@@XZ 000000018002c580     core:core.dll
 0002:00000588       __imp_?GetICustEdit@@YAPEAVICustEdit@@PEAUHWND__@@@Z 000000018002c588     core:core.dll
 0002:00000590       __imp_?ReleaseICustEdit@@YAXPEAVICustEdit@@@Z 000000018002c590     core:core.dll
 0002:00000598       __imp_?GetNewDefaultTextureOutput@@YAPEAVTextureOutput@@XZ 000000018002c598     core:core.dll
 0002:000005a0       __imp_?ReleaseISpinner@@YAXPEAVISpinnerControl@@@Z 000000018002c5a0     core:core.dll
 0002:000005a8       __imp_?threshold@@YAMMMM@Z 000000018002c5a8     core:core.dll
 0002:000005b0       __imp_?SetupFloatSpinner@@YAPEAVISpinnerControl@@PEAUHWND__@@HHMMMM@Z 000000018002c5b0     core:core.dll
 0002:000005b8       __imp_?SetupUniverseSpinner@@YAPEAVISpinnerControl@@PEAUHWND__@@HHMMMM@Z 000000018002c5b8     core:core.dll
 0002:000005c0       __imp_?GetSubTexmapTVName@ISubMap@@QEAA?AVWStr@@H@Z 000000018002c5c0     core:core.dll
 0002:000005c8       __imp_?ReleaseICustButton@@YAXPEAVICustButton@@@Z 000000018002c5c8     core:core.dll
 0002:000005d0       __imp_?SubAnimCommitSetKeyBuffer@Animatable@@UEAAXHH@Z 000000018002c5d0     core:core.dll
 0002:000005d8       __imp_?SpecifySaveReferences@ReferenceMaker@@UEAA_NAEAVReferenceSaveManager@@@Z 000000018002c5d8     core:core.dll
 0002:000005e0       __imp_?SetProperty@MtlBase@@UEAAHKPEAX@Z 000000018002c5e0     core:core.dll
 0002:000005e8       __imp_?SaveEnum@ReferenceMaker@@UEAAXAEAVSaveEnumProc@@H@Z 000000018002c5e8     core:core.dll
 0002:000005f0       __imp_?Save@MtlBase@@UEAA?AW4IOResult@@PEAVISave@@@Z 000000018002c5f0     core:core.dll
 0002:000005f8       __imp_?RescaleWorldUnits@ReferenceMaker@@UEAAXM@Z 000000018002c5f8     core:core.dll
 0002:00000600       __imp_?Requirements@MtlBase@@UEAAKH@Z 000000018002c600     core:core.dll
 0002:00000608       __imp_?RenderBitmap@Texmap@@UEAAXHPEAVBitmap@@MH@Z 000000018002c608     core:core.dll
 0002:00000610       __imp_?ReleaseInterface@Animatable@@UEAAXKPEAX@Z 000000018002c610     core:core.dll
 0002:00000618       __imp_?RefAdded@Texmap@@UEAAXPEAVReferenceMaker@@@Z 000000018002c618     core:core.dll
 0002:00000620       __imp_?NotifyDependents@ReferenceTarget@@UEAA?AW4RefResult@@AEBVInterval@@_KIKHPEAV1@@Z 000000018002c620     core:core.dll
 0002:00000628       __imp_?NodeName@Animatable@@UEAA?AVWStr@@XZ 000000018002c628     core:core.dll
 0002:00000630       __imp_?MouseCycleStarted@Animatable@@UEAAXH@Z 000000018002c630     core:core.dll
 0002:00000638       __imp_?MouseCycleCompleted@Animatable@@UEAAXH@Z 000000018002c638     core:core.dll
 0002:00000640       __imp_?MapKeys@Animatable@@UEAAXPEAVTimeMap@@K@Z 000000018002c640     core:core.dll
 0002:00000648       __imp_?Load@MtlBase@@UEAA?AW4IOResult@@PEAVILoad@@@Z 000000018002c648     core:core.dll
 0002:00000650       __imp_?IsOutputMeaningful@Texmap@@UEAA_NAEAVShadeContext@@@Z 000000018002c650     core:core.dll
 0002:00000658       __imp_?IsAnimated@Animatable@@UEAAHXZ 000000018002c658     core:core.dll
 0002:00000660       __imp_?GetVPDisplayDIB@Texmap@@UEAAPEAUtagBITMAPINFO@@HAEAVTexHandleMaker@@AEAVInterval@@HHH@Z 000000018002c660     core:core.dll
 0002:00000668       __imp_?GetTimeRange@Animatable@@UEAA?AVInterval@@K@Z 000000018002c668     core:core.dll
 0002:00000670       __imp_?GetProperty@MtlBase@@UEAAPEAXK@Z 000000018002c670     core:core.dll
 0002:00000678       __imp_?GetPStamp@MtlBase@@UEAAPEAVPStamp@@H@Z 000000018002c678     core:core.dll
 0002:00000680       __imp_?GetInterface@MtlBase@@UEAAPEAXK@Z 000000018002c680     core:core.dll
 0002:00000688       __imp_?GetFullName@MtlBase@@UEAA?AVWStr@@XZ 000000018002c688     core:core.dll
 0002:00000690       __imp_?EvalEnvironMap@ShadeContext@@UEAA?AVAColor@@PEAVTexmap@@VPoint3@@@Z 000000018002c690     core:core.dll
 0002:00000698       __imp_?EnumAuxFiles@MtlBase@@UEAAXAEAVAssetEnumCallback@@K@Z 000000018002c698     core:core.dll
 0002:000006a0       __imp_?DoEnumDependentsImpl@ReferenceTarget@@MEAAHPEAVDependentEnumProc@@@Z 000000018002c6a0     core:core.dll
 0002:000006a8       __imp_?DiscardPStamp@MtlBase@@UEAAXH@Z 000000018002c6a8     core:core.dll
 0002:000006b0       __imp_?DiffuseIllum@ShadeContext@@UEAA?AVColor@@XZ 000000018002c6b0     core:core.dll
 0002:000006b8       __imp_?DeleteAllRefsToMe@ReferenceTarget@@UEAA?AW4RefResult@@XZ 000000018002c6b8     core:core.dll
 0002:000006c0       __imp_?CreatePStamp@MtlBase@@UEAAPEAVPStamp@@HH@Z 000000018002c6c0     core:core.dll
 0002:000006c8       __imp_?BaseClone@MtlBase@@UEAAXPEAVReferenceTarget@@0AEAVRemapDir@@@Z 000000018002c6c8     core:core.dll
 0002:000006d0       __imp_?AutoDelete@ReferenceTarget@@UEAA?AW4RefResult@@XZ 000000018002c6d0     core:core.dll
 0002:000006d8       __imp_??0Texmap@@QEAA@XZ   000000018002c6d8     core:core.dll
 0002:000006e0       __imp_??4MtlBase@@QEAAAEAV0@AEBV0@@Z 000000018002c6e0     core:core.dll
 0002:000006e8       __imp_??1MtlBase@@UEAA@XZ  000000018002c6e8     core:core.dll
 0002:000006f0       __imp_?GetICustButton@@YAPEAVICustButton@@PEAUHWND__@@@Z 000000018002c6f0     core:core.dll
 0002:000006f8       __imp_?GetInterface@ReferenceTarget@@UEAAPEAVBaseInterface@@VInterface_ID@@@Z 000000018002c6f8     core:core.dll
 0002:00000700       __imp_?DeleteReference@ReferenceMaker@@QEAA?AW4RefResult@@H@Z 000000018002c700     core:core.dll
 0002:00000708       __imp_?ReplaceReference@ReferenceMaker@@QEAA?AW4RefResult@@HPEAVReferenceTarget@@H@Z 000000018002c708     core:core.dll
 0002:00000710       __imp_??IInterval@@QEBA?AV0@V0@@Z 000000018002c710     core:core.dll
 0002:00000718       __imp_?InInterval@Interval@@QEBAHH@Z 000000018002c718     core:core.dll
 0002:00000720       __imp_??0Interval@@QEAA@HH@Z 000000018002c720     core:core.dll
 0002:00000728       __imp_?TEXMAP_CAT_3D@@3PA_WA 000000018002c728     core:core.dll
 0002:00000730       __imp_?AddInterface@ClassDesc@@UEAAXPEAVFPInterface@@@Z 000000018002c730     core:core.dll
 0002:00000738       __imp_?GetInterface@ClassDesc@@UEAAPEAVFPInterface@@VInterface_ID@@@Z 000000018002c738     core:core.dll
 0002:00000740       __imp_?GetInterface@ClassDesc@@UEAAPEAVFPInterface@@PEB_W@Z 000000018002c740     core:core.dll
 0002:00000748       __imp_?SvCanRemoveThis@Animatable@@UEAA_NPEAVIGraphObjectManager@@PEAVIGraphNode@@@Z 000000018002c748     core:core.dll
 0002:00000750       __imp_?GetRsrcString@ClassDesc@@UEAAPEB_W_J@Z 000000018002c750     core:core.dll
 0002:00000758       \177core_NULL_THUNK_DATA   000000018002c758     core:core.dll
 0002:00000760       __imp_?Length@@YAMAEBVPoint3@@@Z 000000018002c760     geom:geom.dll
 0002:00000768       __imp_?IdentityMatrix@Matrix3@@QEAAXXZ 000000018002c768     geom:geom.dll
 0002:00000770       __imp_?Normalize@@YA?AVPoint3@@AEBV1@@Z 000000018002c770     geom:geom.dll
 0002:00000778       __imp_?FNormalize@@YA?AVPoint3@@AEBV1@@Z 000000018002c778     geom:geom.dll
 0002:00000780       __imp_?ClampMinMax@Color@@QEAAXXZ 000000018002c780     geom:geom.dll
 0002:00000788       __imp_??TPoint3@@QEBA?AV0@AEBV0@@Z 000000018002c788     geom:geom.dll
 0002:00000790       __imp_??D@YA?AVPoint3@@AEBVMatrix3@@AEBV0@@Z 000000018002c790     geom:geom.dll
 0002:00000798       __imp_?VectorTransform@@YA?AVPoint3@@AEBVMatrix3@@AEBV1@@Z 000000018002c798     geom:geom.dll
 0002:000007a0       __imp_?Translate@Matrix3@@QEAAXAEBVPoint3@@@Z 000000018002c7a0     geom:geom.dll
 0002:000007a8       __imp_?RotateX@Matrix3@@QEAAXM@Z 000000018002c7a8     geom:geom.dll
 0002:000007b0       __imp_?RotateY@Matrix3@@QEAAXM@Z 000000018002c7b0     geom:geom.dll
 0002:000007b8       __imp_?RotateZ@Matrix3@@QEAAXM@Z 000000018002c7b8     geom:geom.dll
 0002:000007c0       __imp_?Scale@Matrix3@@QEAAXAEBVPoint3@@H@Z 000000018002c7c0     geom:geom.dll
 0002:000007c8       __imp_?Invert@Matrix3@@QEAAXXZ 000000018002c7c8     geom:geom.dll
 0002:000007d0       __imp_?Length@Point3@@QEBAMXZ 000000018002c7d0     geom:geom.dll
 0002:000007d8       __imp_??0Point3@@QEAA@XZ   000000018002c7d8     geom:geom.dll
 0002:000007e0       \177geom_NULL_THUNK_DATA   000000018002c7e0     geom:geom.dll
 0002:000007e8       __imp_??3MaxHeapOperators@@SAXPEAX@Z 000000018002c7e8     maxutil:maxutil.dll
 0002:000007f0       __imp_??2MaxHeapOperators@@SAPEAX_K@Z 000000018002c7f0     maxutil:maxutil.dll
 0002:000007f8       __imp_??0Exception@Util@MaxSDK@@QEAA@AEBV012@@Z 000000018002c7f8     maxutil:maxutil.dll
 0002:00000800       __imp_??1Exception@Util@MaxSDK@@UEAA@XZ 000000018002c800     maxutil:maxutil.dll
 0002:00000808       __imp_?NumInterfaces@BaseInterfaceServer@@UEBAHXZ 000000018002c808     maxutil:maxutil.dll
 0002:00000810       __imp_?GetInterface@BaseInterfaceServer@@UEAAPEAVBaseInterface@@VInterface_ID@@@Z 000000018002c810     maxutil:maxutil.dll
 0002:00000818       __imp_??0OutOfRangeException@Util@MaxSDK@@QEAA@AEBV012@@Z 000000018002c818     maxutil:maxutil.dll
 0002:00000820       __imp_??0OutOfRangeException@Util@MaxSDK@@QEAA@PEB_W@Z 000000018002c820     maxutil:maxutil.dll
 0002:00000828       __imp_??1OutOfRangeException@Util@MaxSDK@@UEAA@XZ 000000018002c828     maxutil:maxutil.dll
 0002:00000830       __imp_?assert1@@YAHHPEB_W00@Z 000000018002c830     maxutil:maxutil.dll
 0002:00000838       __imp_?zfree@@YAXPEAPEAX@Z 000000018002c838     maxutil:maxutil.dll
 0002:00000840       __imp_??1InterfaceServer@@UEAA@XZ 000000018002c840     maxutil:maxutil.dll
 0002:00000848       __imp_??1BaseInterfaceServer@@UEAA@XZ 000000018002c848     maxutil:maxutil.dll
 0002:00000850       __imp_??0WStr@@QEAA@PEB_W@Z 000000018002c850     maxutil:maxutil.dll
 0002:00000858       __imp_??1WStr@@QEAA@XZ     000000018002c858     maxutil:maxutil.dll
 0002:00000860       __imp_??4WStr@@QEAAAEAV0@PEB_W@Z 000000018002c860     maxutil:maxutil.dll
 0002:00000868       __imp_?GetInterface@InterfaceServer@@UEAAPEAVBaseInterface@@VInterface_ID@@@Z 000000018002c868     maxutil:maxutil.dll
 0002:00000870       __imp_??_7OutOfRangeException@Util@MaxSDK@@6B@ 000000018002c870     maxutil:maxutil.dll
 0002:00000878       __imp_??_VMaxHeapOperators@@SAXPEAX@Z 000000018002c878     maxutil:maxutil.dll
 0002:00000880       __imp_??0WStr@@QEAA@XZ     000000018002c880     maxutil:maxutil.dll
 0002:00000888       __imp_??0WStr@@QEAA@AEBV0@@Z 000000018002c888     maxutil:maxutil.dll
 0002:00000890       __imp_?UseLanguagePackLocale@Util@MaxSDK@@YAXXZ 000000018002c890     maxutil:maxutil.dll
 0002:00000898       __imp_??_UMaxHeapOperators@@SAPEAX_K@Z 000000018002c898     maxutil:maxutil.dll
 0002:000008a0       __imp_?GetInterfaceAt@BaseInterfaceServer@@UEBAPEAVBaseInterface@@H@Z 000000018002c8a0     maxutil:maxutil.dll
 0002:000008a8       \177maxutil_NULL_THUNK_DATA 000000018002c8a8     maxutil:maxutil.dll
 0002:000008b0       __guard_check_icall_fptr   000000018002c8b0     MSVCRT:guard_support.obj
 0002:000008b8       __guard_dispatch_icall_fptr 000000018002c8b8     MSVCRT:guard_support.obj
 0002:000008c0       __xc_a                     000000018002c8c0     MSVCRT:initializers.obj
 0002:000009c0       __xc_z                     000000018002c9c0     MSVCRT:initializers.obj
 0002:000009c8       __xi_a                     000000018002c9c8     MSVCRT:initializers.obj
 0002:000009d0       __xi_z                     000000018002c9d0     MSVCRT:initializers.obj
 0002:000009d8       __xp_a                     000000018002c9d8     MSVCRT:initializers.obj
 0002:000009e0       __xp_z                     000000018002c9e0     MSVCRT:initializers.obj
 0002:000009e8       __xt_a                     000000018002c9e8     MSVCRT:initializers.obj
 0002:000009f0       __xt_z                     000000018002c9f0     MSVCRT:initializers.obj
 0002:00000a00       ??_C@_1O@ILILCEBJ@?$AAi?$AA?5?$AA?$DO?$AA?$DN?$AA?5?$AA0?$AA?$AA@ 000000018002ca00     BerconDistortion.obj
 0002:00000a18       ??_7BerconDistortionClassDesc@@6B@ 000000018002ca18     BerconDistortion.obj
 0002:00000ba0       ??_C@_1BM@IANNOHHL@?$AAB?$AAe?$AAr?$AAc?$AAo?$AAn?$AAM?$AAa?$AAp?$AAp?$AAi?$AAn?$AAg?$AA?$AA@ 000000018002cba0     BerconDistortion.obj
 0002:00000bc0       ??_C@_1BM@HCNKLGAJ@?$AAu?$AAs?$AAe?$AAD?$AAi?$AAs?$AAt?$AAo?$AAr?$AAt?$AAi?$AAo?$AAn?$AA?$AA@ 000000018002cbc0     BerconDistortion.obj
 0002:00000be0       ??_C@_1BM@DKGEJKPL@?$AAd?$AAi?$AAs?$AAt?$AAo?$AAr?$AAt?$AAi?$AAo?$AAn?$AAS?$AAt?$AAr?$AA?$AA@ 000000018002cbe0     BerconDistortion.obj
 0002:00000c00       ??_C@_19HFCNIFIH@?$AAm?$AAa?$AAp?$AA2?$AA?$AA@ 000000018002cc00     BerconDistortion.obj
 0002:00000c10       ??_C@_19GHJICKGJ@?$AAm?$AAa?$AAp?$AA1?$AA?$AA@ 000000018002cc10     BerconDistortion.obj
 0002:00000c20       ??_C@_19MNJBOCOC@?$AAm?$AAa?$AAp?$AA3?$AA?$AA@ 000000018002cc20     BerconDistortion.obj
 0002:00000c30       ??_C@_1O@FEMBPDGM@?$AAp?$AAa?$AAr?$AAa?$AAm?$AAs?$AA?$AA@ 000000018002cc30     BerconDistortion.obj
 0002:00000c48       ??_7XYZ_Desc@@6B@          000000018002cc48     BerconDistortion.obj
 0002:00000c68       ??_C@_1BM@LCALCDFD@?$AAx?$AAy?$AAz?$AA_?$AAf?$AAi?$AAl?$AAt?$AAe?$AAr?$AAi?$AAn?$AAg?$AA?$AA@ 000000018002cc68     BerconDistortion.obj
 0002:00000c88       ??_C@_1BC@JCCAEAIN@?$AAx?$AAy?$AAz?$AA_?$AAl?$AAo?$AAc?$AAk?$AA?$AA@ 000000018002cc88     BerconDistortion.obj
 0002:00000ca0       ??_C@_1BK@FLPLJMAJ@?$AAx?$AAy?$AAz?$AA_?$AAa?$AAn?$AAg?$AAl?$AAe?$AA_?$AAz?$AA2?$AA?$AA@ 000000018002cca0     BerconDistortion.obj
 0002:00000cc0       ??_C@_1BK@NNGPOOKH@?$AAx?$AAy?$AAz?$AA_?$AAa?$AAn?$AAg?$AAl?$AAe?$AA_?$AAy?$AA2?$AA?$AA@ 000000018002ccc0     BerconDistortion.obj
 0002:00000ce0       ??_C@_1BK@BGDDDNAC@?$AAx?$AAy?$AAz?$AA_?$AAa?$AAn?$AAg?$AAl?$AAe?$AA_?$AAx?$AA2?$AA?$AA@ 000000018002cce0     BerconDistortion.obj
 0002:00000d00       ??_C@_1BI@MHJCJGME@?$AAx?$AAy?$AAz?$AA_?$AAs?$AAi?$AAz?$AAe?$AA_?$AAz?$AA2?$AA?$AA@ 000000018002cd00     BerconDistortion.obj
 0002:00000d18       ??_C@_1BI@EBAGOEGK@?$AAx?$AAy?$AAz?$AA_?$AAs?$AAi?$AAz?$AAe?$AA_?$AAy?$AA2?$AA?$AA@ 000000018002cd18     BerconDistortion.obj
 0002:00000d30       ??_C@_1BI@IKFKDHMP@?$AAx?$AAy?$AAz?$AA_?$AAs?$AAi?$AAz?$AAe?$AA_?$AAx?$AA2?$AA?$AA@ 000000018002cd30     BerconDistortion.obj
 0002:00000d48       ??_C@_1BM@HJOOPID@?$AAx?$AAy?$AAz?$AA_?$AAo?$AAf?$AAf?$AAs?$AAe?$AAt?$AA_?$AAz?$AA2?$AA?$AA@ 000000018002cd48     BerconDistortion.obj
 0002:00000d68       ??_C@_1BM@IBAKJNCN@?$AAx?$AAy?$AAz?$AA_?$AAo?$AAf?$AAf?$AAs?$AAe?$AAt?$AA_?$AAy?$AA2?$AA?$AA@ 000000018002cd68     BerconDistortion.obj
 0002:00000d88       ??_C@_1BM@EKFGEOII@?$AAx?$AAy?$AAz?$AA_?$AAo?$AAf?$AAf?$AAs?$AAe?$AAt?$AA_?$AAx?$AA2?$AA?$AA@ 000000018002cd88     BerconDistortion.obj
 0002:00000da8       ??_C@_1BE@PALBIMHK@?$AAr?$AAa?$AAn?$AAd?$AAB?$AAy?$AAP?$AAa?$AAr?$AA?$AA@ 000000018002cda8     BerconDistortion.obj
 0002:00000dc0       ??_C@_1BE@EGBDKCCD@?$AAr?$AAa?$AAn?$AAd?$AAB?$AAy?$AAO?$AAb?$AAj?$AA?$AA@ 000000018002cdc0     BerconDistortion.obj
 0002:00000dd8       ??_C@_1BE@DCGEPHFM@?$AAr?$AAa?$AAn?$AAd?$AAB?$AAy?$AAM?$AAa?$AAt?$AA?$AA@ 000000018002cdd8     BerconDistortion.obj
 0002:00000df0       ??_C@_19HFHNPJHA@?$AAs?$AAe?$AAe?$AAd?$AA?$AA@ 000000018002cdf0     BerconDistortion.obj
 0002:00000e00       ??_C@_1BG@EDCBABDD@?$AAx?$AAy?$AAz?$AA_?$AAt?$AAi?$AAl?$AAe?$AA_?$AAz?$AA?$AA@ 000000018002ce00     BerconDistortion.obj
 0002:00000e18       ??_C@_1BG@FBJEKONN@?$AAx?$AAy?$AAz?$AA_?$AAt?$AAi?$AAl?$AAe?$AA_?$AAy?$AA?$AA@ 000000018002ce18     BerconDistortion.obj
 0002:00000e30       ??_C@_1BG@OJCIMJLI@?$AAx?$AAy?$AAz?$AA_?$AAt?$AAi?$AAl?$AAe?$AA_?$AAx?$AA?$AA@ 000000018002ce30     BerconDistortion.obj
 0002:00000e48       ??_C@_1BI@LALGELMD@?$AAx?$AAy?$AAz?$AA_?$AAa?$AAn?$AAg?$AAl?$AAe?$AA_?$AAz?$AA?$AA@ 000000018002ce48     BerconDistortion.obj
 0002:00000e60       ??_C@_1BI@KCADOECN@?$AAx?$AAy?$AAz?$AA_?$AAa?$AAn?$AAg?$AAl?$AAe?$AA_?$AAy?$AA?$AA@ 000000018002ce60     BerconDistortion.obj
 0002:00000e78       ??_C@_1BI@BKLPIDEI@?$AAx?$AAy?$AAz?$AA_?$AAa?$AAn?$AAg?$AAl?$AAe?$AA_?$AAx?$AA?$AA@ 000000018002ce78     BerconDistortion.obj
 0002:00000e90       ??_C@_1BG@MFMFKFM@?$AAx?$AAy?$AAz?$AA_?$AAs?$AAi?$AAz?$AAe?$AA_?$AAz?$AA?$AA@ 000000018002ce90     BerconDistortion.obj
 0002:00000ea8       ??_C@_1BG@BOOJPFLC@?$AAx?$AAy?$AAz?$AA_?$AAs?$AAi?$AAz?$AAe?$AA_?$AAy?$AA?$AA@ 000000018002cea8     BerconDistortion.obj
 0002:00000ec0       ??_C@_1BG@KGFFJCNH@?$AAx?$AAy?$AAz?$AA_?$AAs?$AAi?$AAz?$AAe?$AA_?$AAx?$AA?$AA@ 000000018002cec0     BerconDistortion.obj
 0002:00000ed8       ??_C@_1BK@HPJLBIGD@?$AAx?$AAy?$AAz?$AA_?$AAo?$AAf?$AAf?$AAs?$AAe?$AAt?$AA_?$AAz?$AA?$AA@ 000000018002ced8     BerconDistortion.obj
 0002:00000ef8       ??_C@_1BK@GNCOLHIN@?$AAx?$AAy?$AAz?$AA_?$AAo?$AAf?$AAf?$AAs?$AAe?$AAt?$AA_?$AAy?$AA?$AA@ 000000018002cef8     BerconDistortion.obj
 0002:00000f18       ??_C@_1BK@NFJCNAOI@?$AAx?$AAy?$AAz?$AA_?$AAo?$AAf?$AAf?$AAs?$AAe?$AAt?$AA_?$AAx?$AA?$AA@ 000000018002cf18     BerconDistortion.obj
 0002:00000f38       ??_C@_1BC@BDPIEDCA@?$AAx?$AAy?$AAz?$AA_?$AAc?$AAh?$AAa?$AAn?$AA?$AA@ 000000018002cf38     BerconDistortion.obj
 0002:00000f50       ??_C@_1BA@JOBDKJKA@?$AAx?$AAy?$AAz?$AA_?$AAm?$AAa?$AAp?$AA?$AA@ 000000018002cf50     BerconDistortion.obj
 0002:00000f60       ??_C@_1BA@KMAKHADK@?$AAM?$AAa?$AAp?$AAp?$AAi?$AAn?$AAg?$AA?$AA@ 000000018002cf60     BerconDistortion.obj
 0002:00000f70       ??_C@_15CABMMOGH@?$AAt?$AAh?$AA?$AA@ 000000018002cf70     BerconDistortion.obj
 0002:00000f80       ??_C@_1IA@CDGKIOL@?$AAc?$AA?3?$AA?2?$AAp?$AAr?$AAo?$AAg?$AAr?$AAa?$AAm?$AA?5?$AAf?$AAi?$AAl?$AAe?$AAs?$AA?2?$AAa?$AAu?$AAt?$AAo?$AAd?$AAe?$AAs?$AAk?$AA?2?$AA3?$AAd?$AAs?$AA?5?$AAm?$AAa@ 000000018002cf80     BerconDistortion.obj
 0002:00001000       ??_C@_1CI@OKLGNBMM@?$AAt?$AAh?$AA?5?$AA?$CG?$AA?$CG?$AA?5?$AAi?$AA?5?$AA?$DM?$AA?5?$AAt?$AAh?$AA?9?$AA?$DO?$AAc?$AAo?$AAu?$AAn?$AAt?$AA?$AA@ 000000018002d000     BerconDistortion.obj
 0002:00001030       ??_C@_1GI@NLEIFPEJ@?$AAI?$AAn?$AAv?$AAa?$AAl?$AAi?$AAd?$AA?5?$AAi?$AAn?$AAd?$AAe?$AAx?$AA?5?$AAp?$AAa?$AAs?$AAs?$AAe?$AAd?$AA?5?$AAi?$AAn?$AAt?$AAo?$AA?5?$AAa?$AA?5?$AAM?$AAa?$AAx?$AA?5@ 000000018002d030     BerconDistortion.obj
 0002:000010a0       ??_7TabOutOfRangeException@Util@MaxSDK@@6B@ 000000018002d0a0     BerconDistortion.obj
 0002:000010b0       ??_C@_1EK@FOLBONAG@?$AAM?$AAa?$AAx?$AAS?$AAD?$AAK?$AA?3?$AA?3?$AAU?$AAt?$AAi?$AAl?$AA?3?$AA?3?$AAT?$AAa?$AAb?$AAO?$AAu?$AAt?$AAO?$AAf?$AAR?$AAa?$AAn?$AAg?$AAe?$AAE?$AAx?$AAc?$AAe?$AAp@ 000000018002d0b0     BerconDistortion.obj
 0002:00001100       ??_C@_1EM@PJAEPBLB@?$AAT?$AAa?$AAb?$AA?$DM?$AAc?$AAl?$AAa?$AAs?$AAs?$AA?5?$AAF?$AAP?$AAI?$AAn?$AAt?$AAe?$AAr?$AAf?$AAa?$AAc?$AAe?$AA?5?$AA?$CK?$AA?$DO?$AA?3?$AA?3?$AAo?$AAp?$AAe?$AAr?$AAa?$AAt@ 000000018002d100     BerconDistortion.obj
 0002:000016d0       ??_7InterfaceServer@@6B@   000000018002d6d0     BerconDistortion.obj
 0002:000016e8       ??_7BaseInterfaceServer@@6B@ 000000018002d6e8     BerconDistortion.obj
 0002:00001708       ??_C@_11LOCGONAA@?$AA?$AA@ 000000018002d708     BerconDistortion.obj
 0002:0000170c       ??_C@_13COJANIEC@?$AA0?$AA?$AA@ 000000018002d70c     BerconDistortion.obj
 0002:00001710       ??_C@_1CM@HBLCKHLG@?$AAA?$AAn?$AAi?$AAm?$AAa?$AAt?$AAa?$AAb?$AAl?$AAe?$AA?3?$AA?3?$AAE?$AAd?$AAi?$AAt?$AAT?$AAr?$AAa?$AAc?$AAk?$AA?$AA@ 000000018002d710     BerconDistortion.obj
 0002:00001740       ??_C@_1IO@ICFGEANI@?$AAc?$AA?3?$AA?2?$AAp?$AAr?$AAo?$AAg?$AAr?$AAa?$AAm?$AA?5?$AAf?$AAi?$AAl?$AAe?$AAs?$AA?2?$AAa?$AAu?$AAt?$AAo?$AAd?$AAe?$AAs?$AAk?$AA?2?$AA3?$AAd?$AAs?$AA?5?$AAm?$AAa@ 000000018002d740     BerconDistortion.obj
 0002:000017d0       ??_C@_1M@HLGKFCJM@?$AAf?$AAa?$AAl?$AAs?$AAe?$AA?$AA@ 000000018002d7d0     BerconDistortion.obj
 0002:000017e0       ??_C@_1EO@EAPIPMHJ@?$AAS?$AAe?$AAa?$AAl?$AAe?$AAd?$AAR?$AAe?$AAf?$AAe?$AAr?$AAe?$AAn?$AAc?$AAe?$AAM?$AAa?$AAk?$AAe?$AAr?$AA?3?$AA?3?$AAN?$AAo?$AAt?$AAi?$AAf?$AAy?$AAD?$AAe?$AAp?$AAe@ 000000018002d7e0     BerconDistortion.obj
 0002:00001830       ??_C@_1IA@GAKKKDIL@?$AAc?$AA?3?$AA?2?$AAp?$AAr?$AAo?$AAg?$AAr?$AAa?$AAm?$AA?5?$AAf?$AAi?$AAl?$AAe?$AAs?$AA?2?$AAa?$AAu?$AAt?$AAo?$AAd?$AAe?$AAs?$AAk?$AA?2?$AA3?$AAd?$AAs?$AA?5?$AAm?$AAa@ 000000018002d830     BerconDistortion.obj
 0002:000018b0       ??_C@_1EO@HNAFHMNO@?$AAS?$AAe?$AAa?$AAl?$AAe?$AAd?$AAR?$AAe?$AAf?$AAe?$AAr?$AAe?$AAn?$AAc?$AAe?$AAM?$AAa?$AAk?$AAe?$AAr?$AA?3?$AA?3?$AAN?$AAo?$AAt?$AAi?$AAf?$AAy?$AAR?$AAe?$AAf?$AAC@ 000000018002d8b0     BerconDistortion.obj
 0002:00001900       ??_C@_1IK@LACPINEM@?$AAc?$AA?3?$AA?2?$AAp?$AAr?$AAo?$AAg?$AAr?$AAa?$AAm?$AA?5?$AAf?$AAi?$AAl?$AAe?$AAs?$AA?2?$AAa?$AAu?$AAt?$AAo?$AAd?$AAe?$AAs?$AAk?$AA?2?$AA3?$AAd?$AAs?$AA?5?$AAm?$AAa@ 000000018002d900     BerconDistortion.obj
 0002:00001990       ??_C@_1CE@GBNPOKPK@?$AAi?$AA?$DO?$AA?9?$AA1?$AA?5?$AA?$CG?$AA?$CG?$AA?5?$AAi?$AA?$DM?$AAn?$AAu?$AAm?$AAB?$AAi?$AAt?$AAs?$AA?$AA@ 000000018002d990     BerconDistortion.obj
 0002:000019b8       ??_C@_1BM@HADNIIA@?$AAB?$AAi?$AAt?$AAA?$AAr?$AAr?$AAa?$AAy?$AA?3?$AA?3?$AAS?$AAe?$AAt?$AA?$AA@ 000000018002d9b8     BerconDistortion.obj
 0002:000019e0       ??_7ShadeOutput@@6B@       000000018002d9e0     BerconDistortion.obj
 0002:00001a08       ??_7RenderGlobalContext@@6B@ 000000018002da08     BerconDistortion.obj
 0002:00001a80       ??_7ShadeContext@@6B@      000000018002da80     BerconDistortion.obj
 0002:00001cc8       ??_7ParamMap2UserDlgProc@@6B@ 000000018002dcc8     BerconDistortion.obj
 0002:00001d08       ??_7BerconXYZDlgProc@@6B@  000000018002dd08     BerconDistortion.obj
 0002:00001d40       ??_C@_13PHJMHGG@?$AAL?$AA?$AA@ 000000018002dd40     BerconDistortion.obj
 0002:00001d50       ??_7BerconSC@@6BShadeContext@@@ 000000018002dd50     BerconDistortion.obj
 0002:00001f98       ??_7BerconSC@@6BRenderGlobalContext@@@ 000000018002df98     BerconDistortion.obj
 0002:00002010       ??_7BerconDistortion@@6BReferenceTarget@@@ 000000018002e010     BerconDistortion.obj
 0002:00002688       ??_7BerconDistortion@@6BISubMap@@@ 000000018002e688     BerconDistortion.obj
 0002:000026d0       __real@3f1a36e2e0000000    000000018002e6d0     BerconDistortion.obj
 0002:000026d8       __real@3f50624de0000000    000000018002e6d8     BerconDistortion.obj
 0002:000026e0       __real@3f800000            000000018002e6e0     BerconDistortion.obj
 0002:000026e8       __real@3fb99999a0000000    000000018002e6e8     BerconDistortion.obj
 0002:000026f0       __real@3ff0000000000000    000000018002e6f0     BerconDistortion.obj
 0002:000026f8       __real@408f400000000000    000000018002e6f8     BerconDistortion.obj
 0002:00002700       __real@412e848000000000    000000018002e700     BerconDistortion.obj
 0002:00002708       __real@bff0000000000000    000000018002e708     BerconDistortion.obj
 0002:00002710       __real@c12e848000000000    000000018002e710     BerconDistortion.obj
 0002:00002720       ??_7BerconGradientClassDesc@@6B@ 000000018002e720     BerconGradient.obj
 0002:000028a8       ??_C@_1BO@EFFEGJBE@?$AAB?$AAe?$AAr?$AAc?$AAo?$AAn?$AAG?$AAr?$AAa?$AAd?$AAi?$AAe?$AAn?$AAt?$AA?$AA@ 000000018002e8a8     BerconGradient.obj
 0002:000028c8       ??_C@_1O@KEKEFEMI@?$AAo?$AAu?$AAt?$AAp?$AAu?$AAt?$AA?$AA@ 000000018002e8c8     BerconGradient.obj
 0002:000028d8       ??_C@_1M@IFKEOPKH@?$AAd?$AAi?$AAs?$AAO?$AAn?$AA?$AA@ 000000018002e8d8     BerconGradient.obj
 0002:000028e8       ??_C@_1O@JJJMDNON@?$AAd?$AAi?$AAs?$AAS?$AAt?$AAr?$AA?$AA@ 000000018002e8e8     BerconGradient.obj
 0002:000028f8       ??_C@_1O@DEGOAFKO@?$AAd?$AAi?$AAs?$AAT?$AAe?$AAx?$AA?$AA@ 000000018002e8f8     BerconGradient.obj
 0002:00002908       ??_C@_17DDAFIGMA@?$AAI?$AAO?$AAR?$AA?$AA@ 000000018002e908     BerconGradient.obj
 0002:00002910       ??_C@_1BO@EBFBJNKF@?$AAn?$AAo?$AAr?$AAm?$AAa?$AAl?$AAF?$AAu?$AAn?$AAc?$AAt?$AAi?$AAo?$AAn?$AA?$AA@ 000000018002e910     BerconGradient.obj
 0002:00002930       ??_C@_1BG@EJCJNKBN@?$AAn?$AAo?$AAr?$AAm?$AAa?$AAl?$AAT?$AAy?$AAp?$AAe?$AA?$AA@ 000000018002e930     BerconGradient.obj
 0002:00002948       ??_C@_1BI@JFBEDJBF@?$AAg?$AAr?$AAa?$AAd?$AAi?$AAe?$AAn?$AAt?$AAU?$AAV?$AAW?$AA?$AA@ 000000018002e948     BerconGradient.obj
 0002:00002960       ??_C@_1BE@KCENDKIA@?$AAr?$AAa?$AAn?$AAg?$AAe?$AAL?$AAo?$AAo?$AAp?$AA?$AA@ 000000018002e960     BerconGradient.obj
 0002:00002978       ??_C@_1BC@DAIIMAMF@?$AAr?$AAa?$AAn?$AAg?$AAe?$AAM?$AAa?$AAx?$AA?$AA@ 000000018002e978     BerconGradient.obj
 0002:00002990       ??_C@_1BC@KJKJEKOL@?$AAr?$AAa?$AAn?$AAg?$AAe?$AAM?$AAi?$AAn?$AA?$AA@ 000000018002e990     BerconGradient.obj
 0002:000029a8       ??_C@_1BG@NOPEHBND@?$AAr?$AAa?$AAn?$AAd?$AAB?$AAy?$AAT?$AAi?$AAl?$AAe?$AA?$AA@ 000000018002e9a8     BerconGradient.obj
 0002:000029c0       ??_C@_1BA@NAHOMGAH@?$AAr?$AAe?$AAv?$AAe?$AAr?$AAs?$AAe?$AA?$AA@ 000000018002e9c0     BerconGradient.obj
 0002:000029d0       ??_C@_1BM@LCNPDDBK@?$AAi?$AAn?$AAt?$AAe?$AAr?$AAp?$AAo?$AAl?$AAa?$AAt?$AAi?$AAo?$AAn?$AA?$AA@ 000000018002e9d0     BerconGradient.obj
 0002:000029f0       ??_C@_19FHBCDCCA@?$AAt?$AAy?$AAp?$AAe?$AA?$AA@ 000000018002e9f0     BerconGradient.obj
 0002:00002a00       ??_C@_1O@HIEMLHIM@?$AAk?$AAe?$AAy?$AAC?$AAo?$AAl?$AA?$AA@ 000000018002ea00     BerconGradient.obj
 0002:00002a10       ??_C@_1O@ICACMGIN@?$AAk?$AAe?$AAy?$AAP?$AAo?$AAs?$AA?$AA@ 000000018002ea10     BerconGradient.obj
 0002:00002a20       ??_C@_1O@PJLIOEMF@?$AAk?$AAe?$AAy?$AAN?$AAu?$AAm?$AA?$AA@ 000000018002ea20     BerconGradient.obj
 0002:00002a30       ??_C@_1O@HANCGMBA@?$AAk?$AAe?$AAy?$AAT?$AAe?$AAx?$AA?$AA@ 000000018002ea30     BerconGradient.obj
 0002:00002a40       ??_C@_1BE@LCHIGCIO@?$AAp?$AAo?$AAs?$AAi?$AAt?$AAi?$AAo?$AAn?$AAs?$AA?$AA@ 000000018002ea40     BerconGradient.obj
 0002:00002a58       ??_C@_1O@HJEOCKOC@?$AAc?$AAo?$AAl?$AAo?$AAr?$AAs?$AA?$AA@ 000000018002ea58     BerconGradient.obj
 0002:00002a68       ??_C@_1BA@FLPLBKI@?$AAs?$AAu?$AAb?$AAm?$AAa?$AAp?$AAs?$AA?$AA@ 000000018002ea68     BerconGradient.obj
 0002:00002a78       ??_C@_19EFANFLCA@?$AAn?$AAo?$AAd?$AAe?$AA?$AA@ 000000018002ea78     BerconGradient.obj
 0002:00002a88       ??_C@_1O@HHADDHBD@?$AAm?$AAa?$AAp?$AAT?$AAe?$AAx?$AA?$AA@ 000000018002ea88     BerconGradient.obj
 0002:00002d48       ??_7ICustomControl@@6B@    000000018002ed48     BerconGradient.obj
 0002:00002d98       ??_7IGradient@@6B@         000000018002ed98     BerconGradient.obj
 0002:00002de8       ??_7BerconGradient@@6BReferenceTarget@@@ 000000018002ede8     BerconGradient.obj
 0002:00003460       ??_7BerconGradient@@6BISubMap@@@ 000000018002f460     BerconGradient.obj
 0002:000034b0       ??_7BerconGradient@@6BGradientMap@@@ 000000018002f4b0     BerconGradient.obj
 0002:000034e0       ??_7BerconGradient@@6BResourceMakerCallback@@@ 000000018002f4e0     BerconGradient.obj
 0002:00003510       ??_7BerconGradientDlgProc@@6B@ 000000018002f510     BerconGradient.obj
 0002:00003548       __real@3a83126f            000000018002f548     BerconGradient.obj
 0002:0000354c       __real@3d4ccccd            000000018002f54c     BerconGradient.obj
 0002:00003550       __real@3f000000            000000018002f550     BerconGradient.obj
 0002:00003554       __real@3fc90fdb            000000018002f554     BerconGradient.obj
 0002:00003558       __real@3fcccccd            000000018002f558     BerconGradient.obj
 0002:00003560       __real@3fe921fb54442d18    000000018002f560     BerconGradient.obj
 0002:00003568       __real@3ff99999a0000000    000000018002f568     BerconGradient.obj
 0002:00003570       __real@40000000            000000018002f570     BerconGradient.obj
 0002:00003574       __real@40400000            000000018002f574     BerconGradient.obj
 0002:00003578       __real@40490fdb            000000018002f578     BerconGradient.obj
 0002:0000357c       __real@40800000            000000018002f57c     BerconGradient.obj
 0002:00003580       __real@40dfffc000000000    000000018002f580     BerconGradient.obj
 0002:00003590       __xmm@3f800000000000000000000000000000 000000018002f590     BerconGradient.obj
 0002:000035a0       __xmm@3f8000003f8000003f8000003f800000 000000018002f5a0     BerconGradient.obj
 0002:000035b0       __xmm@7fffffffffffffff7fffffffffffffff 000000018002f5b0     BerconGradient.obj
 0002:000035c0       __xmm@80000000800000008000000080000000 000000018002f5c0     BerconGradient.obj
 0002:000035d0       ??_C@_0O@FNOCONJB@0?01?01?1?45?0?45?01?$AA@ 000000018002f5d0     BerconTile.obj
 0002:000035e0       ??_C@_1BA@GHEKA@?$AAp?$AAa?$AAt?$AAt?$AAe?$AAr?$AAn?$AA?$AA@ 000000018002f5e0     BerconTile.obj
 0002:000035f0       ??_C@_1O@GJMACMBA@?$AAO?$AAu?$AAt?$AAp?$AAu?$AAt?$AA?$AA@ 000000018002f5f0     BerconTile.obj
 0002:00003600       ??_C@_19OIPKLNDO@?$AAm?$AAa?$AAp?$AA5?$AA?$AA@ 000000018002f600     BerconTile.obj
 0002:00003610       ??_C@_19FAEGNKFL@?$AAm?$AAa?$AAp?$AA4?$AA?$AA@ 000000018002f610     BerconTile.obj
 0002:00003620       ??_C@_1CE@KGONNDMM@?$AAp?$AAb?$AA_?$AAc?$AAe?$AAn?$AAt?$AAe?$AAr?$AA_?$AAc?$AAh?$AAa?$AAn?$AAn?$AAe?$AAl?$AA?$AA@ 000000018002f620     BerconTile.obj
 0002:00003648       ??_C@_1BE@KFDCNPHK@?$AAp?$AAb?$AA_?$AAc?$AAe?$AAn?$AAt?$AAe?$AAr?$AA?$AA@ 000000018002f648     BerconTile.obj
 0002:00003660       ??_C@_1BC@JKBCBDFD@?$AAp?$AAb?$AA_?$AAr?$AAa?$AAn?$AAd?$AAZ?$AA?$AA@ 000000018002f660     BerconTile.obj
 0002:00003678       ??_C@_1BC@OAMFKIBK@?$AAp?$AAb?$AA_?$AAf?$AAl?$AAi?$AAp?$AAY?$AA?$AA@ 000000018002f678     BerconTile.obj
 0002:00003690       ??_C@_1BC@FIHJMPHP@?$AAp?$AAb?$AA_?$AAf?$AAl?$AAi?$AAp?$AAX?$AA?$AA@ 000000018002f690     BerconTile.obj
 0002:000036a8       ??_C@_1BG@GBOMCGBN@?$AAp?$AAb?$AA_?$AAr?$AAa?$AAn?$AAd?$AAR?$AAo?$AAt?$AA?$AA@ 000000018002f6a8     BerconTile.obj
 0002:000036c0       ??_C@_1M@PGIICPFG@?$AAr?$AAo?$AAt?$AAU?$AAV?$AA?$AA@ 000000018002f6c0     BerconTile.obj
 0002:000036d0       ??_C@_1BA@EPCJNCFF@?$AAp?$AAb?$AA_?$AAl?$AAo?$AAc?$AAk?$AA?$AA@ 000000018002f6d0     BerconTile.obj
 0002:000036e0       ??_C@_1BE@IECCMELL@?$AAp?$AAb?$AA_?$AAr?$AAa?$AAn?$AAd?$AAS?$AAY?$AA?$AA@ 000000018002f6e0     BerconTile.obj
 0002:000036f8       ??_C@_1BE@DMJOKDNO@?$AAp?$AAb?$AA_?$AAr?$AAa?$AAn?$AAd?$AAS?$AAX?$AA?$AA@ 000000018002f6f8     BerconTile.obj
 0002:00003710       ??_C@_1BC@IIKHLMLN@?$AAp?$AAb?$AA_?$AAr?$AAa?$AAn?$AAd?$AAY?$AA?$AA@ 000000018002f710     BerconTile.obj
 0002:00003728       ??_C@_1BC@DABLNLNI@?$AAp?$AAb?$AA_?$AAr?$AAa?$AAn?$AAd?$AAX?$AA?$AA@ 000000018002f728     BerconTile.obj
 0002:00003740       ??_C@_1BE@PLDFGEPA@?$AAu?$AAv?$AAC?$AAh?$AAa?$AAn?$AAn?$AAe?$AAl?$AA?$AA@ 000000018002f740     BerconTile.obj
 0002:00003758       ??_C@_1M@BCIHGDJC@?$AAm?$AAa?$AAp?$AAU?$AAV?$AA?$AA@ 000000018002f758     BerconTile.obj
 0002:00003768       ??_C@_1BA@MGBNNBHC@?$AAp?$AAb?$AA_?$AAa?$AAu?$AAt?$AAo?$AA?$AA@ 000000018002f768     BerconTile.obj
 0002:00003778       ??_C@_1BC@PELPKLOA@?$AAr?$AAo?$AAu?$AAn?$AAd?$AAR?$AAa?$AAd?$AA?$AA@ 000000018002f778     BerconTile.obj
 0002:00003790       ??_C@_1BC@BEGFKCGJ@?$AAp?$AAb?$AA_?$AAr?$AAo?$AAu?$AAn?$AAd?$AA?$AA@ 000000018002f790     BerconTile.obj
 0002:000037a8       ??_C@_1BE@HNGKBEO@?$AAs?$AAo?$AAf?$AAt?$AAe?$AAn?$AAR?$AAa?$AAd?$AA?$AA@ 000000018002f7a8     BerconTile.obj
 0002:000037c0       ??_C@_1O@JFKPBGFL@?$AAs?$AAo?$AAf?$AAt?$AAe?$AAn?$AA?$AA@ 000000018002f7c0     BerconTile.obj
 0002:000037d0       ??_C@_1BI@LCGFGJLK@?$AAe?$AAd?$AAg?$AAe?$AAh?$AAe?$AAi?$AAg?$AAh?$AAt?$AA2?$AA?$AA@ 000000018002f7d0     BerconTile.obj
 0002:000037e8       ??_C@_1BG@MDDEDAID@?$AAe?$AAd?$AAg?$AAe?$AAW?$AAi?$AAd?$AAt?$AAh?$AA2?$AA?$AA@ 000000018002f7e8     BerconTile.obj
 0002:00003800       ??_C@_1BI@IMJDDJBI@?$AAt?$AAi?$AAl?$AAe?$AAh?$AAe?$AAi?$AAg?$AAh?$AAt?$AA2?$AA?$AA@ 000000018002f800     BerconTile.obj
 0002:00003818       ??_C@_1BG@DGGNGLMB@?$AAt?$AAi?$AAl?$AAe?$AAW?$AAi?$AAd?$AAt?$AAh?$AA2?$AA?$AA@ 000000018002f818     BerconTile.obj
 0002:00003830       ??_C@_1BG@ICMJDHNJ@?$AAe?$AAd?$AAg?$AAe?$AAh?$AAe?$AAi?$AAg?$AAh?$AAt?$AA?$AA@ 000000018002f830     BerconTile.obj
 0002:00003848       ??_C@_1BE@ILJAGNND@?$AAe?$AAd?$AAg?$AAe?$AAW?$AAi?$AAd?$AAt?$AAh?$AA?$AA@ 000000018002f848     BerconTile.obj
 0002:00003860       ??_C@_1BG@HHJAGMJL@?$AAt?$AAi?$AAl?$AAe?$AAh?$AAe?$AAi?$AAg?$AAh?$AAt?$AA?$AA@ 000000018002f860     BerconTile.obj
 0002:00003878       ??_C@_1BE@KHEBBJOG@?$AAt?$AAi?$AAl?$AAe?$AAW?$AAi?$AAd?$AAt?$AAh?$AA?$AA@ 000000018002f878     BerconTile.obj
 0002:00003890       ??_C@_19GIOODLBE@?$AAs?$AAi?$AAz?$AAe?$AA?$AA@ 000000018002f890     BerconTile.obj
 0002:000038a0       ??_C@_1M@OIINANNN@?$AAs?$AAt?$AAy?$AAl?$AAe?$AA?$AA@ 000000018002f8a0     BerconTile.obj
 0002:000038b0       ??_C@_1BC@EIDKFDNH@?$AAl?$AAo?$AAc?$AAk?$AAE?$AAd?$AAg?$AAe?$AA?$AA@ 000000018002f8b0     BerconTile.obj
 0002:000038c8       ??_C@_1BI@KDPPAPEG@?$AAm?$AAa?$AAp?$AA3?$AAE?$AAn?$AAa?$AAb?$AAl?$AAe?$AAd?$AA?$AA@ 000000018002f8c8     BerconTile.obj
 0002:000038e0       ??_C@_1BI@EMKNLJKH@?$AAm?$AAa?$AAp?$AA2?$AAE?$AAn?$AAa?$AAb?$AAl?$AAe?$AAd?$AA?$AA@ 000000018002f8e0     BerconTile.obj
 0002:000038f8       ??_C@_1BI@KGCLGEMF@?$AAm?$AAa?$AAp?$AA1?$AAE?$AAn?$AAa?$AAb?$AAl?$AAe?$AAd?$AA?$AA@ 000000018002f8f8     BerconTile.obj
 0002:00003910       ??_C@_1O@OCFKHCNP@?$AAc?$AAo?$AAl?$AAo?$AAr?$AA3?$AA?$AA@ 000000018002f910     BerconTile.obj
 0002:00003920       ??_C@_1O@FKOGBFLK@?$AAc?$AAo?$AAl?$AAo?$AAr?$AA2?$AA?$AA@ 000000018002f920     BerconTile.obj
 0002:00003930       ??_C@_1O@EIFDLKFE@?$AAc?$AAo?$AAl?$AAo?$AAr?$AA1?$AA?$AA@ 000000018002f930     BerconTile.obj
 0002:00003940       ??_C@_1BK@BOMFFBEI@?$AAb?$AAm?$AAa?$AAp?$AA2?$AAE?$AAn?$AAa?$AAb?$AAl?$AAe?$AAd?$AA?$AA@ 000000018002f940     BerconTile.obj
 0002:00003960       ??_C@_1M@CJBLNJAJ@?$AAb?$AAm?$AAa?$AAp?$AA2?$AA?$AA@ 000000018002f960     BerconTile.obj
 0002:00003970       ??_C@_1BK@PEEDIMCK@?$AAb?$AAm?$AAa?$AAp?$AA1?$AAE?$AAn?$AAa?$AAb?$AAl?$AAe?$AAd?$AA?$AA@ 000000018002f970     BerconTile.obj
 0002:00003990       ??_C@_1M@DLKOHGOH@?$AAb?$AAm?$AAa?$AAp?$AA1?$AA?$AA@ 000000018002f990     BerconTile.obj
 0002:000039a8       ??_7BerconTileClassDesc@@6B@ 000000018002f9a8     BerconTile.obj
 0002:00003b30       ??_C@_1BG@HMMMJDJP@?$AAB?$AAe?$AAr?$AAc?$AAo?$AAn?$AAT?$AAi?$AAl?$AAe?$AA?$AA@ 000000018002fb30     BerconTile.obj
 0002:00003e98       ??_7BerconTile@@6BReferenceTarget@@@ 000000018002fe98     BerconTile.obj
 0002:00004510       ??_7BerconTile@@6BISubMap@@@ 0000000180030510     BerconTile.obj
 0002:00004560       ??_7BerconTile@@6B@        0000000180030560     BerconTile.obj
 0002:00004590       ??_7BerconTileDlgProc@@6B@ 0000000180030590     BerconTile.obj
 0002:000045c8       ??_C@_1BM@FKDFOLKD@?$AA0?$AA?0?$AA1?$AA?0?$AA1?$AA?1?$AA?4?$AA5?$AA?0?$AA?4?$AA5?$AA?0?$AA1?$AA?$AA@ 00000001800305c8     BerconTile.obj
 0002:000045e8       ??_C@_0BA@JFNIOLAK@string?5too?5long?$AA@ 00000001800305e8     BerconTile.obj
 0002:000045f8       ??_C@_0BI@CFPLBAOH@invalid?5string?5position?$AA@ 00000001800305f8     BerconTile.obj
 0002:00004610       __real@38d1b717            0000000180030610     BerconTile.obj
 0002:00004614       __real@3c8efaa4            0000000180030614     BerconTile.obj
 0002:00004618       __real@3dcccccd            0000000180030618     BerconTile.obj
 0002:00004620       __real@3fd3333340000000    0000000180030620     BerconTile.obj
 0002:00004628       __real@4000000000000000    0000000180030628     BerconTile.obj
 0002:00004630       __real@4010000000000000    0000000180030630     BerconTile.obj
 0002:00004638       __real@4039000000000000    0000000180030638     BerconTile.obj
 0002:00004640       __real@4059000000000000    0000000180030640     BerconTile.obj
 0002:00004648       __real@4066800000000000    0000000180030648     BerconTile.obj
 0002:00004650       __real@43340000            0000000180030650     BerconTile.obj
 0002:00004654       __real@49742400            0000000180030654     BerconTile.obj
 0002:00004658       __real@bf000000            0000000180030658     BerconTile.obj
 0002:0000465c       __real@c9742400            000000018003065c     BerconTile.obj
 0002:00004660       __xmm@42c8000042c800004348000043480000 0000000180030660     BerconTile.obj
 0002:00004670       ??_C@_1BA@BCHLBBAP@?$AAs?$AAa?$AAm?$AAp?$AAl?$AAe?$AAs?$AA?$AA@ 0000000180030670     BerconWood.obj
 0002:00004680       ??_C@_19CCFLBDDD@?$AAs?$AAk?$AAe?$AAw?$AA?$AA@ 0000000180030680     BerconWood.obj
 0002:00004690       ??_C@_1BG@IBLEJHEI@?$AAr?$AAa?$AAn?$AAd?$AAo?$AAm?$AAS?$AAe?$AAe?$AAd?$AA?$AA@ 0000000180030690     BerconWood.obj
 0002:000046a8       ??_C@_1BM@MHGPDJM@?$AAg?$AAa?$AAi?$AAn?$AAV?$AAa?$AAr?$AAi?$AAa?$AAt?$AAi?$AAo?$AAn?$AA?$AA@ 00000001800306a8     BerconWood.obj
 0002:000046c8       ??_C@_1BO@ECPLJFCD@?$AAw?$AAi?$AAd?$AAt?$AAh?$AAV?$AAa?$AAr?$AAi?$AAa?$AAt?$AAi?$AAo?$AAn?$AA?$AA@ 00000001800306c8     BerconWood.obj
 0002:000046e8       ??_C@_1BE@GJBNEGJB@?$AAg?$AAr?$AAa?$AAi?$AAn?$AAL?$AAo?$AAc?$AAk?$AA?$AA@ 00000001800306e8     BerconWood.obj
 0002:00004700       ??_C@_1BE@HAHMKGEE@?$AAg?$AAr?$AAa?$AAi?$AAn?$AAF?$AAr?$AAe?$AAq?$AA?$AA@ 0000000180030700     BerconWood.obj
 0002:00004718       ??_C@_1BC@CHOMLLBM@?$AAg?$AAr?$AAa?$AAi?$AAn?$AAS?$AAt?$AAr?$AA?$AA@ 0000000180030718     BerconWood.obj
 0002:00004730       ??_C@_1BC@BKNHLGGL@?$AAa?$AAn?$AAg?$AAl?$AAe?$AAR?$AAa?$AAd?$AA?$AA@ 0000000180030730     BerconWood.obj
 0002:00004748       ??_C@_1BE@GAKFLNAE@?$AAa?$AAn?$AAg?$AAl?$AAe?$AAF?$AAr?$AAe?$AAq?$AA?$AA@ 0000000180030748     BerconWood.obj
 0002:00004760       ??_C@_1BC@PABECNJO@?$AAa?$AAn?$AAg?$AAl?$AAe?$AAS?$AAt?$AAr?$AA?$AA@ 0000000180030760     BerconWood.obj
 0002:00004778       ??_C@_1BA@JLDBLEIA@?$AAr?$AAa?$AAd?$AAi?$AAa?$AAl?$AAZ?$AA?$AA@ 0000000180030778     BerconWood.obj
 0002:00004788       ??_C@_1BG@BKHLNMEC@?$AAr?$AAa?$AAd?$AAi?$AAa?$AAl?$AAF?$AAr?$AAe?$AAq?$AA?$AA@ 0000000180030788     BerconWood.obj
 0002:000047a0       ??_C@_1BE@MAEEJBGC@?$AAr?$AAa?$AAd?$AAi?$AAa?$AAl?$AAS?$AAt?$AAr?$AA?$AA@ 00000001800307a0     BerconWood.obj
 0002:000047b8       ??_C@_1BE@PAGLOPGC@?$AAt?$AAr?$AAu?$AAn?$AAk?$AAF?$AAr?$AAe?$AAq?$AA?$AA@ 00000001800307b8     BerconWood.obj
 0002:000047d0       ??_C@_1BC@OGGKLNK@?$AAt?$AAr?$AAu?$AAn?$AAk?$AAS?$AAt?$AAr?$AA?$AA@ 00000001800307d0     BerconWood.obj
 0002:000047e8       ??_C@_1BC@PCCOIOPC@?$AAw?$AAo?$AAo?$AAd?$AAT?$AAy?$AAp?$AAe?$AA?$AA@ 00000001800307e8     BerconWood.obj
 0002:00004800       ??_C@_1BE@OPFLOLOL@?$AAt?$AAr?$AAe?$AAs?$AAh?$AAH?$AAi?$AAg?$AAh?$AA?$AA@ 0000000180030800     BerconWood.obj
 0002:00004818       ??_C@_1BC@OKAAOBEK@?$AAt?$AAr?$AAe?$AAs?$AAh?$AAL?$AAo?$AAw?$AA?$AA@ 0000000180030818     BerconWood.obj
 0002:00004830       ??_C@_1BM@LKPLBAOF@?$AAb?$AAm?$AAa?$AAp?$AA1?$AA6?$AAE?$AAn?$AAa?$AAb?$AAl?$AAe?$AAd?$AA?$AA@ 0000000180030830     BerconWood.obj
 0002:00004850       ??_C@_1O@HNBJCNPB@?$AAb?$AAm?$AAa?$AAp?$AA1?$AA6?$AA?$AA@ 0000000180030850     BerconWood.obj
 0002:00004860       ??_C@_1BM@FAHNMNIH@?$AAb?$AAm?$AAa?$AAp?$AA1?$AA5?$AAE?$AAn?$AAa?$AAb?$AAl?$AAe?$AAd?$AA?$AA@ 0000000180030860     BerconWood.obj
 0002:00004880       ??_C@_1O@GPKMICBP@?$AAb?$AAm?$AAa?$AAp?$AA1?$AA5?$AA?$AA@ 0000000180030880     BerconWood.obj
 0002:00004890       ??_C@_1BM@LPCPHLGG@?$AAb?$AAm?$AAa?$AAp?$AA1?$AA4?$AAE?$AAn?$AAa?$AAb?$AAl?$AAe?$AAd?$AA?$AA@ 0000000180030890     BerconWood.obj
 0002:000048b0       ??_C@_1O@NHBAOFHK@?$AAb?$AAm?$AAa?$AAp?$AA1?$AA4?$AA?$AA@ 00000001800308b0     BerconWood.obj
 0002:000048c0       ??_C@_1BM@FOABHBAC@?$AAb?$AAm?$AAa?$AAp?$AA1?$AA3?$AAE?$AAn?$AAa?$AAb?$AAl?$AAe?$AAd?$AA?$AA@ 00000001800308c0     BerconWood.obj
 0002:000048e0       ??_C@_1O@EKMHNNMD@?$AAb?$AAm?$AAa?$AAp?$AA1?$AA3?$AA?$AA@ 00000001800308e0     BerconWood.obj
 0002:000048f0       ??_C@_1BM@LBFDMHOD@?$AAb?$AAm?$AAa?$AAp?$AA1?$AA2?$AAE?$AAn?$AAa?$AAb?$AAl?$AAe?$AAd?$AA?$AA@ 00000001800308f0     BerconWood.obj
 0002:00004910       ??_C@_1O@PCHLLKKG@?$AAb?$AAm?$AAa?$AAp?$AA1?$AA2?$AA?$AA@ 0000000180030910     BerconWood.obj
 0002:00004920       ??_C@_1BM@FLNFBKIB@?$AAb?$AAm?$AAa?$AAp?$AA1?$AA1?$AAE?$AAn?$AAa?$AAb?$AAl?$AAe?$AAd?$AA?$AA@ 0000000180030920     BerconWood.obj
 0002:00004940       ??_C@_1O@OAMOBFEI@?$AAb?$AAm?$AAa?$AAp?$AA1?$AA1?$AA?$AA@ 0000000180030940     BerconWood.obj
 0002:00004950       ??_C@_1BM@LEIHKMGA@?$AAb?$AAm?$AAa?$AAp?$AA1?$AA0?$AAE?$AAn?$AAa?$AAb?$AAl?$AAe?$AAd?$AA?$AA@ 0000000180030950     BerconWood.obj
 0002:00004970       ??_C@_1O@FIHCHCCN@?$AAb?$AAm?$AAa?$AAp?$AA1?$AA0?$AA?$AA@ 0000000180030970     BerconWood.obj
 0002:00004980       ??_C@_1BK@ODBCCCCG@?$AAb?$AAm?$AAa?$AAp?$AA9?$AAE?$AAn?$AAa?$AAb?$AAl?$AAe?$AAd?$AA?$AA@ 0000000180030980     BerconWood.obj
 0002:000049a0       ??_C@_1M@POBKFOAI@?$AAb?$AAm?$AAa?$AAp?$AA9?$AA?$AA@ 00000001800309a0     BerconWood.obj
 0002:000049b0       ??_C@_1BK@MEAJEMH@?$AAb?$AAm?$AAa?$AAp?$AA8?$AAE?$AAn?$AAa?$AAb?$AAl?$AAe?$AAd?$AA?$AA@ 00000001800309b0     BerconWood.obj
 0002:000049d0       ??_C@_1M@EGKGDJGN@?$AAb?$AAm?$AAa?$AAp?$AA8?$AA?$AA@ 00000001800309d0     BerconWood.obj
 0002:000049e0       ??_C@_1BK@PKDPDAKP@?$AAb?$AAm?$AAa?$AAp?$AA7?$AAE?$AAn?$AAa?$AAb?$AAl?$AAe?$AAd?$AA?$AA@ 00000001800309e0     BerconWood.obj
 0002:00004a00       ??_C@_1M@BOMFCJDL@?$AAb?$AAm?$AAa?$AAp?$AA7?$AA?$AA@ 0000000180030a00     BerconWood.obj
 0002:00004a10       ??_C@_1BK@BFGNIGEO@?$AAb?$AAm?$AAa?$AAp?$AA6?$AAE?$AAn?$AAa?$AAb?$AAl?$AAe?$AAd?$AA?$AA@ 0000000180030a10     BerconWood.obj
 0002:00004a30       ??_C@_1M@KGHJEOFO@?$AAb?$AAm?$AAa?$AAp?$AA6?$AA?$AA@ 0000000180030a30     BerconWood.obj
 0002:00004a40       ??_C@_1BK@PPOLFLCM@?$AAb?$AAm?$AAa?$AAp?$AA5?$AAE?$AAn?$AAa?$AAb?$AAl?$AAe?$AAd?$AA?$AA@ 0000000180030a40     BerconWood.obj
 0002:00004a60       ??_C@_1M@LEMMOBLA@?$AAb?$AAm?$AAa?$AAp?$AA5?$AA?$AA@ 0000000180030a60     BerconWood.obj
 0002:00004a70       ??_C@_1BK@BALJONMN@?$AAb?$AAm?$AAa?$AAp?$AA4?$AAE?$AAn?$AAa?$AAb?$AAl?$AAe?$AAd?$AA?$AA@ 0000000180030a70     BerconWood.obj
 0002:00004a90       ??_C@_1M@MHAIGNF@?$AAb?$AAm?$AAa?$AAp?$AA4?$AA?$AA@ 0000000180030a90     BerconWood.obj
 0002:00004aa0       ??_C@_1BK@PBJHOHKJ@?$AAb?$AAm?$AAa?$AAp?$AA3?$AAE?$AAn?$AAa?$AAb?$AAl?$AAe?$AAd?$AA?$AA@ 0000000180030aa0     BerconWood.obj
 0002:00004ac0       ??_C@_1M@JBKHLOGM@?$AAb?$AAm?$AAa?$AAp?$AA3?$AA?$AA@ 0000000180030ac0     BerconWood.obj
 0002:00004ad8       ??_7BerconWoodClassDesc@@6B@ 0000000180030ad8     BerconWood.obj
 0002:00004c60       ??_C@_1BG@GPLMDENA@?$AAB?$AAe?$AAr?$AAc?$AAo?$AAn?$AAW?$AAo?$AAo?$AAd?$AA?$AA@ 0000000180030c60     BerconWood.obj
 0002:00004e60       ??_7BerconWood@@6BReferenceTarget@@@ 0000000180030e60     BerconWood.obj
 0002:000054d8       ??_7BerconWood@@6BISubMap@@@ 00000001800314d8     BerconWood.obj
 0002:00005528       ??_7BerconWood@@6B@        0000000180031528     BerconWood.obj
 0002:00005558       ??_7BerconWoodDlgProc@@6B@ 0000000180031558     BerconWood.obj
 0002:00005590       __real@3c23d70a            0000000180031590     BerconWood.obj
 0002:00005594       __real@3d23d70a            0000000180031594     BerconWood.obj
 0002:00005598       __real@3e4ccccd            0000000180031598     BerconWood.obj
 0002:0000559c       __real@3e78d4fe            000000018003159c     BerconWood.obj
 0002:000055a0       __real@3e800000            00000001800315a0     BerconWood.obj
 0002:000055a4       __real@3e99999a            00000001800315a4     BerconWood.obj
 0002:000055a8       __real@3eac8b44            00000001800315a8     BerconWood.obj
 0002:000055ac       __real@3ec8b439            00000001800315ac     BerconWood.obj
 0002:000055b0       __real@3f0c8b44            00000001800315b0     BerconWood.obj
 0002:000055b4       __real@3f116873            00000001800315b4     BerconWood.obj
 0002:000055b8       __real@3f400000            00000001800315b8     BerconWood.obj
 0002:000055bc       __real@3f449ba6            00000001800315bc     BerconWood.obj
 0002:000055c0       __real@3f50624dd2f1a9fc    00000001800315c0     BerconWood.obj
 0002:000055c8       __real@3f847ae140000000    00000001800315c8     BerconWood.obj
 0002:000055d0       __real@3fa47ae140000000    00000001800315d0     BerconWood.obj
 0002:000055d8       __real@3fc99999a0000000    00000001800315d8     BerconWood.obj
 0002:000055e0       __real@3fd0000000000000    00000001800315e0     BerconWood.obj
 0002:000055e8       __real@3fe0000000000000    00000001800315e8     BerconWood.obj
 0002:000055f0       __real@3fe8000000000000    00000001800315f0     BerconWood.obj
 0002:000055f8       __real@4008000000000000    00000001800315f8     BerconWood.obj
 0002:00005600       __real@4014000000000000    0000000180031600     BerconWood.obj
 0002:00005608       __real@4028b0a3e0000000    0000000180031608     BerconWood.obj
 0002:00005610       __real@402e000000000000    0000000180031610     BerconWood.obj
 0002:00005618       __real@40a00000            0000000180031618     BerconWood.obj
 0002:0000561c       __real@4145851f            000000018003161c     BerconWood.obj
 0002:00005620       __real@41700000            0000000180031620     BerconWood.obj
 0002:00005628       ??_C@_1BK@BFMCNHEO@?$AAC?$AAo?$AAm?$AAc?$AAt?$AAl?$AA3?$AA2?$AA?4?$AAd?$AAl?$AAl?$AA?$AA@ 0000000180031628     DllEntry.obj
 0002:00005648       ?debugString@?4??IsolationAwarePrivatenPgViNgRzlnPgpgk@@9@4QBDB 0000000180031648     DllEntry.obj
 0002:00005688       ??_C@_0BD@KDNHKDOA@InitCommonControls?$AA@ 0000000180031688     DllEntry.obj
 0002:000056a0       ?c@?1??CommctrlIsolationAwarePrivatetRgCebPnQQeRff_pbZPgYQP_QYY@@9@4UIsolationAwarePrivate_pBAFGnAG_zBqHyr_vAsB@@B 00000001800316a0     DllEntry.obj
 0002:000056b0       ??_C@_1BK@JEDIBDND@?$AAL?$AAi?$AAb?$AAC?$AAl?$AAa?$AAs?$AAs?$AAD?$AAe?$AAs?$AAc?$AA?$AA@ 00000001800316b0     DllEntry.obj
 0002:000056d0       ??_C@_1FM@FHBPLIJN@?$AAg?$AA?3?$AA?2?$AAd?$AAr?$AAo?$AAp?$AAb?$AAo?$AAx?$AA?2?$AAg?$AAi?$AAt?$AAh?$AAu?$AAb?$AA?2?$AAb?$AAe?$AAr?$AAc?$AAo?$AAn?$AAm?$AAa?$AAp?$AAs?$AA?2?$AAs?$AAr?$AAc@ 00000001800316d0     DllEntry.obj
 0002:0000572c       __real@3c8efa35            000000018003172c     BerconCommon.obj
 0002:00005730       __real@46fffe00            0000000180031730     BerconCommon.obj
 0002:00005738       ??_C@_1CE@MPOFFPKF@?$AAf?$AAr?$AAa?$AAc?$AAt?$AAa?$AAl?$AAL?$AAa?$AAc?$AAu?$AAn?$AAa?$AAr?$AAi?$AAt?$AAy?$AA?$AA@ 0000000180031738     BerconNoise.obj
 0002:00005760       ??_C@_1BC@KFPODIIO@?$AAf?$AAr?$AAa?$AAc?$AAt?$AAa?$AAl?$AAH?$AA?$AA@ 0000000180031760     BerconNoise.obj
 0002:00005778       ??_C@_1BM@HCLHIJIH@?$AAf?$AAr?$AAa?$AAc?$AAt?$AAa?$AAl?$AAO?$AAf?$AAf?$AAs?$AAe?$AAt?$AA?$AA@ 0000000180031778     BerconNoise.obj
 0002:00005798       ??_C@_1BI@BFKJFNPK@?$AAf?$AAr?$AAa?$AAc?$AAt?$AAa?$AAl?$AAG?$AAa?$AAi?$AAn?$AA?$AA@ 0000000180031798     BerconNoise.obj
 0002:000057b0       ??_C@_1O@FNHNBIHH@?$AAl?$AAe?$AAv?$AAe?$AAl?$AAs?$AA?$AA@ 00000001800317b0     BerconNoise.obj
 0002:000057c0       ??_C@_1BI@IFLGJJNN@?$AAf?$AAr?$AAa?$AAc?$AAt?$AAa?$AAl?$AAT?$AAy?$AAp?$AAe?$AA?$AA@ 00000001800317c0     BerconNoise.obj
 0002:000057d8       ??_C@_1BK@IIBHKCH@?$AAw?$AAo?$AAr?$AAl?$AAe?$AAy?$AAS?$AAp?$AAr?$AAe?$AAa?$AAd?$AA?$AA@ 00000001800317d8     BerconNoise.obj
 0002:000057f8       ??_C@_17JKAADOJI@?$AAw?$AAF?$AA4?$AA?$AA@ 00000001800317f8     BerconNoise.obj
 0002:00005800       ??_C@_17HNHAGCB@?$AAw?$AAF?$AA3?$AA?$AA@ 0000000180031800     BerconNoise.obj
 0002:00005808       ??_C@_17LPGLGBEE@?$AAw?$AAF?$AA2?$AA?$AA@ 0000000180031808     BerconNoise.obj
 0002:00005810       ??_C@_17KNNOMOKK@?$AAw?$AAF?$AA1?$AA?$AA@ 0000000180031810     BerconNoise.obj
 0002:00005818       ??_C@_1BO@KFPLBLON@?$AAw?$AAo?$AAr?$AAl?$AAe?$AAy?$AAD?$AAi?$AAs?$AAt?$AAa?$AAn?$AAc?$AAe?$AA?$AA@ 0000000180031818     BerconNoise.obj
 0002:00005838       ??_C@_1BO@FFCIKJO@?$AAn?$AAo?$AAi?$AAs?$AAe?$AA_?$AAf?$AAu?$AAn?$AAc?$AAt?$AAi?$AAo?$AAn?$AA?$AA@ 0000000180031838     BerconNoise.obj
 0002:00005858       ??_C@_1M@PPFPCEJL@?$AAp?$AAh?$AAa?$AAs?$AAe?$AA?$AA@ 0000000180031858     BerconNoise.obj
 0002:00005868       ??_C@_1BM@FDGPINOP@?$AAt?$AAh?$AAr?$AAe?$AAs?$AAh?$AAo?$AAl?$AAd?$AAH?$AAi?$AAg?$AAh?$AA?$AA@ 0000000180031868     BerconNoise.obj
 0002:00005888       ??_C@_1BK@GHPMGGPJ@?$AAt?$AAh?$AAr?$AAe?$AAs?$AAh?$AAo?$AAl?$AAd?$AAL?$AAo?$AAw?$AA?$AA@ 0000000180031888     BerconNoise.obj
 0002:000058b0       ??_7BerconNoiseClassDesc@@6B@ 00000001800318b0     BerconNoise.obj
 0002:00005a38       ??_C@_1BI@OFHJLFOO@?$AAB?$AAe?$AAr?$AAc?$AAo?$AAn?$AAN?$AAo?$AAi?$AAs?$AAe?$AA?$AA@ 0000000180031a38     BerconNoise.obj
 0002:00005a50       ??_C@_1BM@NGCAEKNK@?$AAU?$AAV?$AAW?$AAd?$AAi?$AAs?$AAt?$AAo?$AAr?$AAt?$AAi?$AAo?$AAn?$AA?$AA@ 0000000180031a50     BerconNoise.obj
 0002:00005c58       ??_7BerconNoise@@6BReferenceTarget@@@ 0000000180031c58     BerconNoise.obj
 0002:000062d0       ??_7BerconNoise@@6BISubMap@@@ 00000001800322d0     BerconNoise.obj
 0002:00006320       ??_7BerconNoise@@6B@       0000000180032320     BerconNoise.obj
 0002:00006350       ??_7BerconNoiseDlgProc@@6B@ 0000000180032350     BerconNoise.obj
 0002:00006388       ??_C@_1CG@JEPHKPPG@?$AAB?$AAe?$AAr?$AAc?$AAo?$AAn?$AAN?$AAo?$AAi?$AAs?$AAe?$AA?3?$AA?3?$AAR?$AAe?$AAs?$AAe?$AAt?$AA?$AA@ 0000000180032388     BerconNoise.obj
 0002:000063b0       ??_C@_1GC@JFMJJLAB@?$AAg?$AA?3?$AA?2?$AAd?$AAr?$AAo?$AAp?$AAb?$AAo?$AAx?$AA?2?$AAg?$AAi?$AAt?$AAh?$AAu?$AAb?$AA?2?$AAb?$AAe?$AAr?$AAc?$AAo?$AAn?$AAm?$AAa?$AAp?$AAs?$AA?2?$AAs?$AAr?$AAc@ 00000001800323b0     BerconNoise.obj
 0002:00006418       ??_C@_19PAJENPI@?$AAs?$AAw?$AAa?$AAp?$AA?$AA@ 0000000180032418     BerconNoise.obj
 0002:00006428       __real@4034000000000000    0000000180032428     BerconNoise.obj
 0002:00006430       __real@41c80000            0000000180032430     BerconNoise.obj
 0002:00006438       __real@c08f400000000000    0000000180032438     BerconNoise.obj
 0002:00006440       __real@bf800000            0000000180032440     fractal.obj
 0002:00006470       __real@437f0000            0000000180032470     GradientRamp.obj
 0002:00006478       ??_C@_1BK@CABEKACK@?$AAC?$AAu?$AAs?$AAt?$AAG?$AAr?$AAa?$AAd?$AAi?$AAe?$AAn?$AAt?$AA?$AA@ 0000000180032478     IGradient.obj
 0002:00006494       __real@3f900000            0000000180032494     noise.obj
 0002:00006498       __real@4049999a            0000000180032498     noise.obj
 0002:0000649c       __real@40b00000            000000018003249c     noise.obj
 0002:000064a0       __real@40e33333            00000001800324a0     noise.obj
 0002:000064a4       __real@4129999a            00000001800324a4     noise.obj
 0002:000064a8       __real@439d1127            00000001800324a8     noise.obj
 0002:000064ac       __real@b8d1b717            00000001800324ac     noise.obj
 0002:000064b0       __real@3e0d8369            00000001800324b0     perlin.obj
 0002:000064b4       __real@3e2aaaab            00000001800324b4     perlin.obj
 0002:000064b8       __real@3e58658c            00000001800324b8     perlin.obj
 0002:000064bc       __real@3e8d8369            00000001800324bc     perlin.obj
 0002:000064c0       __real@3e9e377a            00000001800324c0     perlin.obj
 0002:000064c4       __real@3eaaaaab            00000001800324c4     perlin.obj
 0002:000064c8       __real@3ebb67ae            00000001800324c8     perlin.obj
 0002:000064cc       __real@3eca4588            00000001800324cc     perlin.obj
 0002:000064d0       __real@3ed4451e            00000001800324d0     perlin.obj
 0002:000064d4       __real@3ed8658c            00000001800324d4     perlin.obj
 0002:000064d8       __real@3ee4f92e            00000001800324d8     perlin.obj
 0002:000064dc       __real@3f01cac1            00000001800324dc     perlin.obj
 0002:000064e0       __real@3f19999a            00000001800324e0     perlin.obj
 0002:000064e4       __real@3f5eb852            00000001800324e4     perlin.obj
 0002:000064e8       __real@3f6f9db2            00000001800324e8     perlin.obj
 0002:000064ec       __real@3f7ff972            00000001800324ec     perlin.obj
 0002:000064f0       __real@3f99999a            00000001800324f0     perlin.obj
 0002:000064f4       __real@400ccccd            00000001800324f4     perlin.obj
 0002:000064f8       __real@40c00000            00000001800324f8     perlin.obj
 0002:000064fc       __real@41200000            00000001800324fc     perlin.obj
 0002:00006500       __real@41d80000            0000000180032500     perlin.obj
 0002:00006504       __real@42000000            0000000180032504     perlin.obj
 0002:00006508       __real@42200000            0000000180032508     perlin.obj
 0002:0000650c       __real@c0000000            000000018003250c     perlin.obj
 0002:000067e0       ??_C@_1BA@HLCPMHKJ@?$AA0?$AA?0?$AA?5?$AA1?$AA?0?$AA?5?$AA1?$AA?$AA@ 00000001800327e0     tile.obj
 0002:000067f0       ??_C@_1CI@MGOLCOH@?$AA0?$AA?0?$AA?5?$AA1?$AA?0?$AA?5?$AA1?$AA?5?$AA?1?$AA?5?$AA0?$AA?4?$AA5?$AA?0?$AA?5?$AA1?$AA?0?$AA?5?$AA1?$AA?$AA@ 00000001800327f0     tile.obj
 0002:00006820       ??_C@_1HM@KFKBNDNL@?$AA?4?$AA2?$AA5?$AA?0?$AA?5?$AA1?$AA?0?$AA?5?$AA1?$AA?0?$AA?5?$AA?4?$AA5?$AA?5?$AA?1?$AA?5?$AA?9?$AA?4?$AA5?$AA?0?$AA?5?$AA1?$AA?0?$AA?5?$AA1?$AA?5?$AA?1?$AA?5?$AA?9?$AA?4?$AA5?$AA?0@ 0000000180032820     tile.obj
 0002:000068a0       ??_C@_1HG@LGFFBGEF@?$AA?4?$AA2?$AA5?$AA?0?$AA?5?$AA1?$AA?0?$AA?5?$AA?4?$AA5?$AA?5?$AA?1?$AA?5?$AA?9?$AA?4?$AA5?$AA?0?$AA?5?$AA1?$AA?0?$AA?5?$AA1?$AA?5?$AA?1?$AA?5?$AA?9?$AA?4?$AA5?$AA?0?$AA?5?$AA1?$AA?0@ 00000001800328a0     tile.obj
 0002:00006918       ??_C@_1DI@OGPGLDJP@?$AA0?$AA?0?$AA?5?$AA1?$AA?0?$AA?5?$AA1?$AA?0?$AA?5?$AA?4?$AA5?$AA?5?$AA?1?$AA?5?$AA?4?$AA7?$AA5?$AA?0?$AA?5?$AA1?$AA?0?$AA?5?$AA1?$AA?0?$AA?5?$AA?4?$AA5?$AA?$AA@ 0000000180032918     tile.obj
 0002:00006950       ??_C@_1EG@NKHPAEJM@?$AA0?$AA?0?$AA?5?$AA1?$AA?0?$AA?5?$AA1?$AA?0?$AA?5?$AA1?$AA?0?$AA?5?$AA?4?$AA5?$AA?5?$AA?1?$AA?5?$AA1?$AA?4?$AA2?$AA5?$AA?0?$AA?5?$AA1?$AA?0?$AA?5?$AA1?$AA?0?$AA?5?$AA1?$AA?0?$AA?5@ 0000000180032950     tile.obj
 0002:000069a0       ??_C@_1FC@MFPKJHBG@?$AA0?$AA?0?$AA?5?$AA1?$AA?0?$AA?5?$AA1?$AA?0?$AA?5?$AA1?$AA?0?$AA?5?$AA1?$AA?0?$AA?5?$AA?4?$AA5?$AA?5?$AA?1?$AA?5?$AA1?$AA?4?$AA7?$AA5?$AA?0?$AA?5?$AA1?$AA?0?$AA?5?$AA1?$AA?0?$AA?5@ 00000001800329a0     tile.obj
 0002:000069f8       ??_C@_1CK@FBIPLABB@?$AA?4?$AA2?$AA5?$AA?0?$AA?5?$AA1?$AA?0?$AA?5?$AA?4?$AA5?$AA?5?$AA?1?$AA?5?$AA0?$AA?0?$AA?5?$AA1?$AA?0?$AA?5?$AA1?$AA?$AA@ 00000001800329f8     tile.obj
 0002:00006a30       ??_C@_1FC@LEIJMHNO@?$AA0?$AA?0?$AA1?$AA?0?$AA1?$AA?5?$AA?1?$AA?5?$AA?9?$AA?4?$AA2?$AA5?$AA?0?$AA1?$AA?0?$AA?4?$AA5?$AA?5?$AA?1?$AA?5?$AA?9?$AA?4?$AA2?$AA5?$AA?0?$AA1?$AA?0?$AA1?$AA?5?$AA?1?$AA?5?$AA?9@ 0000000180032a30     tile.obj
 0002:00006a90       ??_C@_1FC@DKDGEDND@?$AA0?$AA?0?$AA1?$AA?0?$AA?4?$AA5?$AA?5?$AA?1?$AA?5?$AA?9?$AA?4?$AA2?$AA5?$AA?0?$AA1?$AA?0?$AA?4?$AA5?$AA?5?$AA?1?$AA?5?$AA?9?$AA?4?$AA2?$AA5?$AA?0?$AA1?$AA?0?$AA1?$AA?5?$AA?1?$AA?5@ 0000000180032a90     tile.obj
 0002:00006af0       ??_7?$basic_stringbuf@_WU?$char_traits@_W@std@@V?$allocator@_W@2@@std@@6B@ 0000000180032af0     tile.obj
 0002:00006b70       ??_7?$basic_stringstream@_WU?$char_traits@_W@std@@V?$allocator@_W@2@@std@@6B@ 0000000180032b70     tile.obj
 0002:00006b78       ??_8?$basic_stringstream@_WU?$char_traits@_W@std@@V?$allocator@_W@2@@std@@7B?$basic_istream@_WU?$char_traits@_W@std@@@1@@ 0000000180032b78     tile.obj
 0002:00006b80       ??_8?$basic_stringstream@_WU?$char_traits@_W@std@@V?$allocator@_W@2@@std@@7B?$basic_ostream@_WU?$char_traits@_W@std@@@1@@ 0000000180032b80     tile.obj
 0002:00006b88       ??_C@_13CGOKJPIL@?$AA?1?$AA?$AA@ 0000000180032b88     tile.obj
 0002:00006b8c       ??_C@_13DEFPDAGF@?$AA?0?$AA?$AA@ 0000000180032b8c     tile.obj
 0002:00006b90       ??_C@_0BD@OLBABOEK@vector?$DMT?$DO?5too?5long?$AA@ 0000000180032b90     tile.obj
 0002:00006ba4       __real@00000000            0000000180032ba4     tile.obj
 0002:00006ba8       __real@3dfcb924            0000000180032ba8     tile.obj
 0002:00006bac       __real@3f490fdb            0000000180032bac     tile.obj
 0002:00006bb0       __real@3f9d70a4            0000000180032bb0     tile.obj
 0002:00006bb4       __real@3fa9999a            0000000180032bb4     tile.obj
 0002:00006bb8       __real@3fb504f3            0000000180032bb8     tile.obj
 0002:00006bc0       __real@403f666666666666    0000000180032bc0     tile.obj
 0002:00006bc8       __real@4048f5c3            0000000180032bc8     tile.obj
 0002:00006bcc       __real@4096cbe4            0000000180032bcc     tile.obj
 0002:00006bd0       __real@41fb4c0b            0000000180032bd0     tile.obj
 0002:00006bd4       __real@5f800000            0000000180032bd4     tile.obj
 0002:00006be0       __xmm@7fffffff7fffffff7fffffff7fffffff 0000000180032be0     tile.obj
 0002:00006bf0       __real@3df0000000000000    0000000180032bf0     worley.obj
 0002:00006bf8       __real@3fd97b4a2339c0ec    0000000180032bf8     worley.obj
 0002:00006c00       __real@400417ca3f5539e6    0000000180032c00     worley.obj
 0002:00006c10       __xmm@400417ca3f5539e6400417ca3f5539e6 0000000180032c10     worley.obj
 0002:00006c20       GUID_NULL                  0000000180032c20     uuid:cguid_i.obj
 0002:00006c38       ??_7type_info@@6B@         0000000180032c38     MSVCRT:std_type_info_static.obj
 0002:00006c40       _pDefaultRawDllMain        0000000180032c40     MSVCRT:dll_dllmain.obj
 0002:00006c40       _pRawDllMain               0000000180032c40     MSVCRT:dll_dllmain.obj
 0002:00006c50       ??_7exception@std@@6B@     0000000180032c50     MSVCRT:throw_bad_alloc.obj
 0002:00006c60       ??_C@_0BC@EOODALEL@Unknown?5exception?$AA@ 0000000180032c60     MSVCRT:throw_bad_alloc.obj
 0002:00006c80       ??_7bad_alloc@std@@6B@     0000000180032c80     MSVCRT:throw_bad_alloc.obj
 0002:00006c90       ??_C@_0P@GHFPNOJB@bad?5allocation?$AA@ 0000000180032c90     MSVCRT:throw_bad_alloc.obj
 0002:00006ca8       ??_7bad_array_new_length@std@@6B@ 0000000180032ca8     MSVCRT:throw_bad_alloc.obj
 0002:00006cb8       ??_C@_0BF@KINCDENJ@bad?5array?5new?5length?$AA@ 0000000180032cb8     MSVCRT:throw_bad_alloc.obj
 0002:00006cf0       _load_config_used          0000000180032cf0     MSVCRT:loadcfg.obj
 0002:00006d90       ??_R4XYZ_Desc@@6B@         0000000180032d90     BerconDistortion.obj
 0002:00006db8       ??_R3XYZ_Desc@@8           0000000180032db8     BerconDistortion.obj
 0002:00006dd0       ??_R2XYZ_Desc@@8           0000000180032dd0     BerconDistortion.obj
 0002:00006e00       ??_R1A@?0A@EA@XYZ_Desc@@8  0000000180032e00     BerconDistortion.obj
 0002:00006e28       ??_R1A@?0A@EA@ParamBlockDesc2@@8 0000000180032e28     BerconDistortion.obj
 0002:00006e50       ??_R3ParamBlockDesc2@@8    0000000180032e50     BerconDistortion.obj
 0002:00006e68       ??_R2ParamBlockDesc2@@8    0000000180032e68     BerconDistortion.obj
 0002:00006e90       ??_R4BerconDistortionClassDesc@@6B@ 0000000180032e90     BerconDistortion.obj
 0002:00006eb8       ??_R3BerconDistortionClassDesc@@8 0000000180032eb8     BerconDistortion.obj
 0002:00006ed0       ??_R2BerconDistortionClassDesc@@8 0000000180032ed0     BerconDistortion.obj
 0002:00006ef8       ??_R1A@?0A@EA@BerconDistortionClassDesc@@8 0000000180032ef8     BerconDistortion.obj
 0002:00006f20       ??_R1A@?0A@EA@ClassDesc2@@8 0000000180032f20     BerconDistortion.obj
 0002:00006f48       ??_R3ClassDesc2@@8         0000000180032f48     BerconDistortion.obj
 0002:00006f60       ??_R2ClassDesc2@@8         0000000180032f60     BerconDistortion.obj
 0002:00006f80       ??_R4TabOutOfRangeException@Util@MaxSDK@@6B@ 0000000180032f80     BerconDistortion.obj
 0002:00006fa8       ??_R3TabOutOfRangeException@Util@MaxSDK@@8 0000000180032fa8     BerconDistortion.obj
 0002:00006fc0       ??_R2TabOutOfRangeException@Util@MaxSDK@@8 0000000180032fc0     BerconDistortion.obj
 0002:00006fe8       ??_R1A@?0A@EA@TabOutOfRangeException@Util@MaxSDK@@8 0000000180032fe8     BerconDistortion.obj
 0002:00007010       ??_R1A@?0A@EA@OutOfRangeException@Util@MaxSDK@@8 0000000180033010     BerconDistortion.obj
 0002:00007038       ??_R3OutOfRangeException@Util@MaxSDK@@8 0000000180033038     BerconDistortion.obj
 0002:00007050       ??_R2OutOfRangeException@Util@MaxSDK@@8 0000000180033050     BerconDistortion.obj
 0002:00007070       ??_R1A@?0A@EA@Exception@Util@MaxSDK@@8 0000000180033070     BerconDistortion.obj
 0002:00007098       ??_R3Exception@Util@MaxSDK@@8 0000000180033098     BerconDistortion.obj
 0002:000070b0       ??_R2Exception@Util@MaxSDK@@8 00000001800330b0     BerconDistortion.obj
 0002:000070c8       ??_R17?0A@EA@MaxHeapOperators@@8 00000001800330c8     BerconDistortion.obj
 0002:000070f0       ??_R3MaxHeapOperators@@8   00000001800330f0     BerconDistortion.obj
 0002:00007108       ??_R2MaxHeapOperators@@8   0000000180033108     BerconDistortion.obj
 0002:00007118       ??_R1A@?0A@EA@MaxHeapOperators@@8 0000000180033118     BerconDistortion.obj
 0002:00007140       ??_R3InterfaceServer@@8    0000000180033140     BerconDistortion.obj
 0002:00007158       ??_R2InterfaceServer@@8    0000000180033158     BerconDistortion.obj
 0002:00007170       ??_R1A@?0A@EA@InterfaceServer@@8 0000000180033170     BerconDistortion.obj
 0002:00007198       ??_R3BaseInterfaceServer@@8 0000000180033198     BerconDistortion.obj
 0002:000071b0       ??_R2BaseInterfaceServer@@8 00000001800331b0     BerconDistortion.obj
 0002:000071d0       ??_R1A@?0A@EA@BaseInterfaceServer@@8 00000001800331d0     BerconDistortion.obj
 0002:000071f8       ??_R3ClassDesc@@8          00000001800331f8     BerconDistortion.obj
 0002:00007210       ??_R2ClassDesc@@8          0000000180033210     BerconDistortion.obj
 0002:00007228       ??_R1A@?0A@EA@ClassDesc@@8 0000000180033228     BerconDistortion.obj
 0002:00007250       ??_R4InterfaceServer@@6B@  0000000180033250     BerconDistortion.obj
 0002:00007278       ??_R4BaseInterfaceServer@@6B@ 0000000180033278     BerconDistortion.obj
 0002:000072a0       ??_R1A@?0A@EA@ReferenceTarget@@8 00000001800332a0     BerconDistortion.obj
 0002:000072c8       ??_R3ReferenceTarget@@8    00000001800332c8     BerconDistortion.obj
 0002:000072e0       ??_R2ReferenceTarget@@8    00000001800332e0     BerconDistortion.obj
 0002:00007328       ??_R1A@?0A@EA@ReferenceMaker@@8 0000000180033328     BerconDistortion.obj
 0002:00007350       ??_R3ReferenceMaker@@8     0000000180033350     BerconDistortion.obj
 0002:00007368       ??_R2ReferenceMaker@@8     0000000180033368     BerconDistortion.obj
 0002:000073a8       ??_R1A@?0A@EA@SealedReferenceMaker@@8 00000001800333a8     BerconDistortion.obj
 0002:000073d0       ??_R3SealedReferenceMaker@@8 00000001800333d0     BerconDistortion.obj
 0002:000073e8       ??_R2SealedReferenceMaker@@8 00000001800333e8     BerconDistortion.obj
 0002:00007420       ??_R1A@?0A@EA@Animatable@@8 0000000180033420     BerconDistortion.obj
 0002:00007448       ??_R3Animatable@@8         0000000180033448     BerconDistortion.obj
 0002:00007460       ??_R2Animatable@@8         0000000180033460     BerconDistortion.obj
 0002:00007490       ??_R17?0A@EC@MaxHeapOperators@@8 0000000180033490     BerconDistortion.obj
 0002:000074b8       ??_R18?0A@EA@Noncopyable@Util@MaxSDK@@8 00000001800334b8     BerconDistortion.obj
 0002:000074e0       ??_R3Noncopyable@Util@MaxSDK@@8 00000001800334e0     BerconDistortion.obj
 0002:000074f8       ??_R2Noncopyable@Util@MaxSDK@@8 00000001800334f8     BerconDistortion.obj
 0002:00007510       ??_R1A@?0A@EA@Noncopyable@Util@MaxSDK@@8 0000000180033510     BerconDistortion.obj
 0002:00007538       ??_R18?0A@EC@MaxHeapOperators@@8 0000000180033538     BerconDistortion.obj
 0002:00007560       ??_R1A@?0A@EC@InterfaceServer@@8 0000000180033560     BerconDistortion.obj
 0002:00007588       ??_R1EI@?0A@EC@MaxHeapOperators@@8 0000000180033588     BerconDistortion.obj
 0002:000075b0       ??_R4ParamMap2UserDlgProc@@6B@ 00000001800335b0     BerconDistortion.obj
 0002:000075d8       ??_R3ParamMap2UserDlgProc@@8 00000001800335d8     BerconDistortion.obj
 0002:000075f0       ??_R2ParamMap2UserDlgProc@@8 00000001800335f0     BerconDistortion.obj
 0002:00007608       ??_R1A@?0A@EA@ParamMap2UserDlgProc@@8 0000000180033608     BerconDistortion.obj
 0002:00007630       ??_R4ShadeContext@@6B@     0000000180033630     BerconDistortion.obj
 0002:00007658       ??_R3ShadeContext@@8       0000000180033658     BerconDistortion.obj
 0002:00007670       ??_R2ShadeContext@@8       0000000180033670     BerconDistortion.obj
 0002:00007690       ??_R1A@?0A@EA@ShadeContext@@8 0000000180033690     BerconDistortion.obj
 0002:000076b8       ??_R4RenderGlobalContext@@6B@ 00000001800336b8     BerconDistortion.obj
 0002:000076e0       ??_R3RenderGlobalContext@@8 00000001800336e0     BerconDistortion.obj
 0002:000076f8       ??_R2RenderGlobalContext@@8 00000001800336f8     BerconDistortion.obj
 0002:00007720       ??_R1A@?0A@EA@RenderGlobalContext@@8 0000000180033720     BerconDistortion.obj
 0002:00007748       ??_R4ShadeOutput@@6B@      0000000180033748     BerconDistortion.obj
 0002:00007770       ??_R3ShadeOutput@@8        0000000180033770     BerconDistortion.obj
 0002:00007788       ??_R2ShadeOutput@@8        0000000180033788     BerconDistortion.obj
 0002:000077b0       ??_R1A@?0A@EA@ShadeOutput@@8 00000001800337b0     BerconDistortion.obj
 0002:000077d8       ??_R3ISubMap@@8            00000001800337d8     BerconDistortion.obj
 0002:000077f0       ??_R2ISubMap@@8            00000001800337f0     BerconDistortion.obj
 0002:00007808       ??_R1A@?0A@EA@ISubMap@@8   0000000180033808     BerconDistortion.obj
 0002:00007830       ??_R4BerconXYZDlgProc@@6B@ 0000000180033830     BerconDistortion.obj
 0002:00007858       ??_R3BerconXYZDlgProc@@8   0000000180033858     BerconDistortion.obj
 0002:00007870       ??_R2BerconXYZDlgProc@@8   0000000180033870     BerconDistortion.obj
 0002:00007890       ??_R1A@?0A@EA@BerconXYZDlgProc@@8 0000000180033890     BerconDistortion.obj
 0002:000078b8       ??_R4BerconSC@@6BShadeContext@@@ 00000001800338b8     BerconDistortion.obj
 0002:000078e0       ??_R3BerconSC@@8           00000001800338e0     BerconDistortion.obj
 0002:00007900       ??_R2BerconSC@@8           0000000180033900     BerconDistortion.obj
 0002:00007948       ??_R1A@?0A@EA@BerconSC@@8  0000000180033948     BerconDistortion.obj
 0002:00007970       ??_R1CII@?0A@EA@RenderGlobalContext@@8 0000000180033970     BerconDistortion.obj
 0002:00007998       ??_R1CII@?0A@EA@BaseInterfaceServer@@8 0000000180033998     BerconDistortion.obj
 0002:000079c0       ??_R1CII@?0A@EC@InterfaceServer@@8 00000001800339c0     BerconDistortion.obj
 0002:000079e8       ??_R1CJA@?0A@EC@MaxHeapOperators@@8 00000001800339e8     BerconDistortion.obj
 0002:00007a10       ??_R4BerconSC@@6BRenderGlobalContext@@@ 0000000180033a10     BerconDistortion.obj
 0002:00007a38       ??_R4BerconDistortion@@6BReferenceTarget@@@ 0000000180033a38     BerconDistortion.obj
 0002:00007a60       ??_R3BerconDistortion@@8   0000000180033a60     BerconDistortion.obj
 0002:00007a80       ??_R2BerconDistortion@@8   0000000180033a80     BerconDistortion.obj
 0002:00007af0       ??_R1A@?0A@EA@BerconDistortion@@8 0000000180033af0     BerconDistortion.obj
 0002:00007b18       ??_R1A@?0A@EA@Texmap@@8    0000000180033b18     BerconDistortion.obj
 0002:00007b40       ??_R3Texmap@@8             0000000180033b40     BerconDistortion.obj
 0002:00007b60       ??_R2Texmap@@8             0000000180033b60     BerconDistortion.obj
 0002:00007bc8       ??_R1A@?0A@EA@MtlBase@@8   0000000180033bc8     BerconDistortion.obj
 0002:00007bf0       ??_R3MtlBase@@8            0000000180033bf0     BerconDistortion.obj
 0002:00007c10       ??_R2MtlBase@@8            0000000180033c10     BerconDistortion.obj
 0002:00007c70       ??_R1EA@?0A@EA@ISubMap@@8  0000000180033c70     BerconDistortion.obj
 0002:00007c98       ??_R4BerconDistortion@@6BISubMap@@@ 0000000180033c98     BerconDistortion.obj
 0002:00007cc0       ??_R4BerconGradientClassDesc@@6B@ 0000000180033cc0     BerconGradient.obj
 0002:00007ce8       ??_R3BerconGradientClassDesc@@8 0000000180033ce8     BerconGradient.obj
 0002:00007d00       ??_R2BerconGradientClassDesc@@8 0000000180033d00     BerconGradient.obj
 0002:00007d28       ??_R1A@?0A@EA@BerconGradientClassDesc@@8 0000000180033d28     BerconGradient.obj
 0002:00007d50       ??_R4ICustomControl@@6B@   0000000180033d50     BerconGradient.obj
 0002:00007d78       ??_R3ICustomControl@@8     0000000180033d78     BerconGradient.obj
 0002:00007d90       ??_R2ICustomControl@@8     0000000180033d90     BerconGradient.obj
 0002:00007db0       ??_R1A@?0A@EA@ICustomControl@@8 0000000180033db0     BerconGradient.obj
 0002:00007dd8       ??_R3ResourceMakerCallback@@8 0000000180033dd8     BerconGradient.obj
 0002:00007df0       ??_R2ResourceMakerCallback@@8 0000000180033df0     BerconGradient.obj
 0002:00007e08       ??_R1A@?0A@EA@ResourceMakerCallback@@8 0000000180033e08     BerconGradient.obj
 0002:00007e30       ??_R3GradientMap@@8        0000000180033e30     BerconGradient.obj
 0002:00007e48       ??_R2GradientMap@@8        0000000180033e48     BerconGradient.obj
 0002:00007e58       ??_R1A@?0A@EA@GradientMap@@8 0000000180033e58     BerconGradient.obj
 0002:00007e80       ??_R4IGradient@@6B@        0000000180033e80     BerconGradient.obj
 0002:00007ea8       ??_R3IGradient@@8          0000000180033ea8     BerconGradient.obj
 0002:00007ec0       ??_R2IGradient@@8          0000000180033ec0     BerconGradient.obj
 0002:00007ee8       ??_R1A@?0A@EA@IGradient@@8 0000000180033ee8     BerconGradient.obj
 0002:00007f10       ??_R4BerconGradient@@6BReferenceTarget@@@ 0000000180033f10     BerconGradient.obj
 0002:00007f38       ??_R3BerconGradient@@8     0000000180033f38     BerconGradient.obj
 0002:00007f50       ??_R2BerconGradient@@8     0000000180033f50     BerconGradient.obj
 0002:00007fd8       ??_R1A@?0A@EA@BerconGradient@@8 0000000180033fd8     BerconGradient.obj
 0002:00008000       ??_R1II@?0A@EA@GradientMap@@8 0000000180034000     BerconGradient.obj
 0002:00008028       ??_R1JA@?0A@EA@ResourceMakerCallback@@8 0000000180034028     BerconGradient.obj
 0002:00008050       ??_R1JI@?0A@EC@MaxHeapOperators@@8 0000000180034050     BerconGradient.obj
 0002:00008078       ??_R4BerconGradient@@6BISubMap@@@ 0000000180034078     BerconGradient.obj
 0002:000080a0       ??_R4BerconGradient@@6BGradientMap@@@ 00000001800340a0     BerconGradient.obj
 0002:000080c8       ??_R4BerconGradient@@6BResourceMakerCallback@@@ 00000001800340c8     BerconGradient.obj
 0002:000080f0       ??_R4BerconGradientDlgProc@@6B@ 00000001800340f0     BerconGradient.obj
 0002:00008118       ??_R3BerconGradientDlgProc@@8 0000000180034118     BerconGradient.obj
 0002:00008130       ??_R2BerconGradientDlgProc@@8 0000000180034130     BerconGradient.obj
 0002:00008150       ??_R1A@?0A@EA@BerconGradientDlgProc@@8 0000000180034150     BerconGradient.obj
 0002:00008178       ??_R4BerconTileClassDesc@@6B@ 0000000180034178     BerconTile.obj
 0002:000081a0       ??_R3BerconTileClassDesc@@8 00000001800341a0     BerconTile.obj
 0002:000081b8       ??_R2BerconTileClassDesc@@8 00000001800341b8     BerconTile.obj
 0002:000081e0       ??_R1A@?0A@EA@BerconTileClassDesc@@8 00000001800341e0     BerconTile.obj
 0002:00008208       ??_R4BerconTile@@6BReferenceTarget@@@ 0000000180034208     BerconTile.obj
 0002:00008230       ??_R3BerconTile@@8         0000000180034230     BerconTile.obj
 0002:00008250       ??_R2BerconTile@@8         0000000180034250     BerconTile.obj
 0002:000082d0       ??_R1A@?0A@EA@BerconTile@@8 00000001800342d0     BerconTile.obj
 0002:000082f8       ??_R4BerconTile@@6BISubMap@@@ 00000001800342f8     BerconTile.obj
 0002:00008320       ??_R4BerconTile@@6B@       0000000180034320     BerconTile.obj
 0002:00008348       ??_R4BerconTileDlgProc@@6B@ 0000000180034348     BerconTile.obj
 0002:00008370       ??_R3BerconTileDlgProc@@8  0000000180034370     BerconTile.obj
 0002:00008388       ??_R2BerconTileDlgProc@@8  0000000180034388     BerconTile.obj
 0002:000083a8       ??_R1A@?0A@EA@BerconTileDlgProc@@8 00000001800343a8     BerconTile.obj
 0002:000083d0       ??_R4BerconWoodClassDesc@@6B@ 00000001800343d0     BerconWood.obj
 0002:000083f8       ??_R3BerconWoodClassDesc@@8 00000001800343f8     BerconWood.obj
 0002:00008410       ??_R2BerconWoodClassDesc@@8 0000000180034410     BerconWood.obj
 0002:00008438       ??_R1A@?0A@EA@BerconWoodClassDesc@@8 0000000180034438     BerconWood.obj
 0002:00008460       ??_R4BerconWood@@6BReferenceTarget@@@ 0000000180034460     BerconWood.obj
 0002:00008488       ??_R3BerconWood@@8         0000000180034488     BerconWood.obj
 0002:000084a0       ??_R2BerconWood@@8         00000001800344a0     BerconWood.obj
 0002:00008520       ??_R1A@?0A@EA@BerconWood@@8 0000000180034520     BerconWood.obj
 0002:00008548       ??_R4BerconWood@@6BISubMap@@@ 0000000180034548     BerconWood.obj
 0002:00008570       ??_R4BerconWood@@6B@       0000000180034570     BerconWood.obj
 0002:00008598       ??_R4BerconWoodDlgProc@@6B@ 0000000180034598     BerconWood.obj
 0002:000085c0       ??_R3BerconWoodDlgProc@@8  00000001800345c0     BerconWood.obj
 0002:000085d8       ??_R2BerconWoodDlgProc@@8  00000001800345d8     BerconWood.obj
 0002:000085f8       ??_R1A@?0A@EA@BerconWoodDlgProc@@8 00000001800345f8     BerconWood.obj
 0002:00008620       ??_R4BerconNoiseClassDesc@@6B@ 0000000180034620     BerconNoise.obj
 0002:00008648       ??_R3BerconNoiseClassDesc@@8 0000000180034648     BerconNoise.obj
 0002:00008660       ??_R2BerconNoiseClassDesc@@8 0000000180034660     BerconNoise.obj
 0002:00008688       ??_R1A@?0A@EA@BerconNoiseClassDesc@@8 0000000180034688     BerconNoise.obj
 0002:000086b0       ??_R4BerconNoise@@6BReferenceTarget@@@ 00000001800346b0     BerconNoise.obj
 0002:000086d8       ??_R3BerconNoise@@8        00000001800346d8     BerconNoise.obj
 0002:000086f0       ??_R2BerconNoise@@8        00000001800346f0     BerconNoise.obj
 0002:00008770       ??_R1A@?0A@EA@BerconNoise@@8 0000000180034770     BerconNoise.obj
 0002:00008798       ??_R4BerconNoise@@6BISubMap@@@ 0000000180034798     BerconNoise.obj
 0002:000087c0       ??_R4BerconNoise@@6B@      00000001800347c0     BerconNoise.obj
 0002:000087e8       ??_R4BerconNoiseDlgProc@@6B@ 00000001800347e8     BerconNoise.obj
 0002:00008810       ??_R3BerconNoiseDlgProc@@8 0000000180034810     BerconNoise.obj
 0002:00008828       ??_R2BerconNoiseDlgProc@@8 0000000180034828     BerconNoise.obj
 0002:00008848       ??_R1A@?0A@EA@BerconNoiseDlgProc@@8 0000000180034848     BerconNoise.obj
 0002:00008870       ??_R4?$basic_stringbuf@_WU?$char_traits@_W@std@@V?$allocator@_W@2@@std@@6B@ 0000000180034870     tile.obj
 0002:00008898       ??_R3?$basic_stringbuf@_WU?$char_traits@_W@std@@V?$allocator@_W@2@@std@@8 0000000180034898     tile.obj
 0002:000088b0       ??_R2?$basic_stringbuf@_WU?$char_traits@_W@std@@V?$allocator@_W@2@@std@@8 00000001800348b0     tile.obj
 0002:000088c8       ??_R1A@?0A@EA@?$basic_stringbuf@_WU?$char_traits@_W@std@@V?$allocator@_W@2@@std@@8 00000001800348c8     tile.obj
 0002:000088f0       ??_R1A@?0A@EA@?$basic_streambuf@_WU?$char_traits@_W@std@@@std@@8 00000001800348f0     tile.obj
 0002:00008918       ??_R3?$basic_streambuf@_WU?$char_traits@_W@std@@@std@@8 0000000180034918     tile.obj
 0002:00008930       ??_R2?$basic_streambuf@_WU?$char_traits@_W@std@@@std@@8 0000000180034930     tile.obj
 0002:00008940       ??_R4?$basic_stringstream@_WU?$char_traits@_W@std@@V?$allocator@_W@2@@std@@6B@ 0000000180034940     tile.obj
 0002:00008968       ??_R3?$basic_stringstream@_WU?$char_traits@_W@std@@V?$allocator@_W@2@@std@@8 0000000180034968     tile.obj
 0002:00008980       ??_R2?$basic_stringstream@_WU?$char_traits@_W@std@@V?$allocator@_W@2@@std@@8 0000000180034980     tile.obj
 0002:000089d8       ??_R1A@?0A@EA@?$basic_stringstream@_WU?$char_traits@_W@std@@V?$allocator@_W@2@@std@@8 00000001800349d8     tile.obj
 0002:00008a00       ??_R1A@?0A@EA@?$basic_iostream@_WU?$char_traits@_W@std@@@std@@8 0000000180034a00     tile.obj
 0002:00008a28       ??_R3?$basic_iostream@_WU?$char_traits@_W@std@@@std@@8 0000000180034a28     tile.obj
 0002:00008a40       ??_R2?$basic_iostream@_WU?$char_traits@_W@std@@@std@@8 0000000180034a40     tile.obj
 0002:00008a90       ??_R1A@?0A@EA@?$basic_istream@_WU?$char_traits@_W@std@@@std@@8 0000000180034a90     tile.obj
 0002:00008ab8       ??_R3?$basic_istream@_WU?$char_traits@_W@std@@@std@@8 0000000180034ab8     tile.obj
 0002:00008ad0       ??_R2?$basic_istream@_WU?$char_traits@_W@std@@@std@@8 0000000180034ad0     tile.obj
 0002:00008af8       ??_R1A@A@3FA@?$basic_ios@_WU?$char_traits@_W@std@@@std@@8 0000000180034af8     tile.obj
 0002:00008b20       ??_R3?$basic_ios@_WU?$char_traits@_W@std@@@std@@8 0000000180034b20     tile.obj
 0002:00008b38       ??_R2?$basic_ios@_WU?$char_traits@_W@std@@@std@@8 0000000180034b38     tile.obj
 0002:00008b58       ??_R1A@?0A@EA@?$basic_ios@_WU?$char_traits@_W@std@@@std@@8 0000000180034b58     tile.obj
 0002:00008b80       ??_R1A@?0A@EA@ios_base@std@@8 0000000180034b80     tile.obj
 0002:00008ba8       ??_R3ios_base@std@@8       0000000180034ba8     tile.obj
 0002:00008bc0       ??_R2ios_base@std@@8       0000000180034bc0     tile.obj
 0002:00008bd8       ??_R17?0A@EA@?$_Iosb@H@std@@8 0000000180034bd8     tile.obj
 0002:00008c00       ??_R3?$_Iosb@H@std@@8      0000000180034c00     tile.obj
 0002:00008c18       ??_R2?$_Iosb@H@std@@8      0000000180034c18     tile.obj
 0002:00008c28       ??_R1A@?0A@EA@?$_Iosb@H@std@@8 0000000180034c28     tile.obj
 0002:00008c50       ??_R1A@A@3EA@ios_base@std@@8 0000000180034c50     tile.obj
 0002:00008c78       ??_R17A@3EA@?$_Iosb@H@std@@8 0000000180034c78     tile.obj
 0002:00008ca0       ??_R1BA@?0A@EA@?$basic_ostream@_WU?$char_traits@_W@std@@@std@@8 0000000180034ca0     tile.obj
 0002:00008cc8       ??_R3?$basic_ostream@_WU?$char_traits@_W@std@@@std@@8 0000000180034cc8     tile.obj
 0002:00008ce0       ??_R2?$basic_ostream@_WU?$char_traits@_W@std@@@std@@8 0000000180034ce0     tile.obj
 0002:00008d08       ??_R1A@?0A@EA@?$basic_ostream@_WU?$char_traits@_W@std@@@std@@8 0000000180034d08     tile.obj
 0002:00008d30       ??_R4type_info@@6B@        0000000180034d30     MSVCRT:std_type_info_static.obj
 0002:00008d58       ??_R3type_info@@8          0000000180034d58     MSVCRT:std_type_info_static.obj
 0002:00008d70       ??_R2type_info@@8          0000000180034d70     MSVCRT:std_type_info_static.obj
 0002:00008d80       ??_R1A@?0A@EA@type_info@@8 0000000180034d80     MSVCRT:std_type_info_static.obj
 0002:00008da8       ??_R4exception@std@@6B@    0000000180034da8     MSVCRT:throw_bad_alloc.obj
 0002:00008dd0       ??_R3exception@std@@8      0000000180034dd0     MSVCRT:throw_bad_alloc.obj
 0002:00008de8       ??_R2exception@std@@8      0000000180034de8     MSVCRT:throw_bad_alloc.obj
 0002:00008df8       ??_R1A@?0A@EA@exception@std@@8 0000000180034df8     MSVCRT:throw_bad_alloc.obj
 0002:00008e20       ??_R4bad_alloc@std@@6B@    0000000180034e20     MSVCRT:throw_bad_alloc.obj
 0002:00008e48       ??_R3bad_alloc@std@@8      0000000180034e48     MSVCRT:throw_bad_alloc.obj
 0002:00008e60       ??_R2bad_alloc@std@@8      0000000180034e60     MSVCRT:throw_bad_alloc.obj
 0002:00008e78       ??_R1A@?0A@EA@bad_alloc@std@@8 0000000180034e78     MSVCRT:throw_bad_alloc.obj
 0002:00008ea0       ??_R4bad_array_new_length@std@@6B@ 0000000180034ea0     MSVCRT:throw_bad_alloc.obj
 0002:00008ec8       ??_R3bad_array_new_length@std@@8 0000000180034ec8     MSVCRT:throw_bad_alloc.obj
 0002:00008ee0       ??_R2bad_array_new_length@std@@8 0000000180034ee0     MSVCRT:throw_bad_alloc.obj
 0002:00008f00       ??_R1A@?0A@EA@bad_array_new_length@std@@8 0000000180034f00     MSVCRT:throw_bad_alloc.obj
 0002:000091f0       __rtc_iaa                  00000001800351f0     MSVCRT:_initsect_.obj
 0002:000091f8       __rtc_izz                  00000001800351f8     MSVCRT:_initsect_.obj
 0002:00009200       __rtc_taa                  0000000180035200     MSVCRT:_initsect_.obj
 0002:00009208       __rtc_tzz                  0000000180035208     MSVCRT:_initsect_.obj
 0002:0000cd50       _TI4?AVTabOutOfRangeException@Util@MaxSDK@@ 0000000180038d50     BerconDistortion.obj
 0002:0000cd70       _CTA4?AVTabOutOfRangeException@Util@MaxSDK@@ 0000000180038d70     BerconDistortion.obj
 0002:0000cd98       _CT??_R0?AVTabOutOfRangeException@Util@MaxSDK@@@8??0TabOutOfRangeException@Util@MaxSDK@@QEAA@AEBV012@@Z16 0000000180038d98     BerconDistortion.obj
 0002:0000cdc0       _CT??_R0?AVOutOfRangeException@Util@MaxSDK@@@8??0OutOfRangeException@Util@MaxSDK@@QEAA@AEBV012@@Z16 0000000180038dc0     BerconDistortion.obj
 0002:0000cde8       _CT??_R0?AVException@Util@MaxSDK@@@8??0Exception@Util@MaxSDK@@QEAA@AEBV012@@Z16 0000000180038de8     BerconDistortion.obj
 0002:0000ce10       _CT??_R0?AVMaxHeapOperators@@@818 0000000180038e10     BerconDistortion.obj
 0002:0000ce38       _TI2?AVbad_alloc@std@@     0000000180038e38     MSVCRT:throw_bad_alloc.obj
 0002:0000ce58       _CTA2?AVbad_alloc@std@@    0000000180038e58     MSVCRT:throw_bad_alloc.obj
 0002:0000ce70       _CT??_R0?AVbad_alloc@std@@@8??0bad_alloc@std@@QEAA@AEBV01@@Z24 0000000180038e70     MSVCRT:throw_bad_alloc.obj
 0002:0000ce98       _CT??_R0?AVexception@std@@@8??0exception@std@@QEAA@AEBV01@@Z24 0000000180038e98     MSVCRT:throw_bad_alloc.obj
 0002:0000cec0       _TI3?AVbad_array_new_length@std@@ 0000000180038ec0     MSVCRT:throw_bad_alloc.obj
 0002:0000cee0       _CTA3?AVbad_array_new_length@std@@ 0000000180038ee0     MSVCRT:throw_bad_alloc.obj
 0002:0000cf00       _CT??_R0?AVbad_array_new_length@std@@@8??0bad_array_new_length@std@@QEAA@AEBV01@@Z24 0000000180038f00     MSVCRT:throw_bad_alloc.obj
 0002:0000d034       __IMPORT_DESCRIPTOR_core   0000000180039034     core:core.dll
 0002:0000d048       __IMPORT_DESCRIPTOR_geom   0000000180039048     geom:geom.dll
 0002:0000d05c       __IMPORT_DESCRIPTOR_MAXScrpt 000000018003905c     Maxscrpt:MAXScrpt.dll
 0002:0000d070       __IMPORT_DESCRIPTOR_maxutil 0000000180039070     maxutil:maxutil.dll
 0002:0000d084       __IMPORT_DESCRIPTOR_ParamBlk2 0000000180039084     Paramblk2:ParamBlk2.dll
 0002:0000d098       __IMPORT_DESCRIPTOR_KERNEL32 0000000180039098     kernel32:KERNEL32.dll
 0002:0000d0ac       __IMPORT_DESCRIPTOR_USER32 00000001800390ac     user32:USER32.dll
 0002:0000d0c0       __IMPORT_DESCRIPTOR_GDI32  00000001800390c0     gdi32:GDI32.dll
 0002:0000d0d4       __IMPORT_DESCRIPTOR_MSVCP140 00000001800390d4     msvcprt:MSVCP140.dll
 0002:0000d0e8       __IMPORT_DESCRIPTOR_VCRUNTIME140 00000001800390e8     vcruntime:VCRUNTIME140.dll
 0002:0000d0fc       __IMPORT_DESCRIPTOR_api-ms-win-crt-utility-l1-1-0 00000001800390fc     ucrt:api-ms-win-crt-utility-l1-1-0.dll
 0002:0000d110       __IMPORT_DESCRIPTOR_api-ms-win-crt-math-l1-1-0 0000000180039110     ucrt:api-ms-win-crt-math-l1-1-0.dll
 0002:0000d124       __IMPORT_DESCRIPTOR_api-ms-win-crt-runtime-l1-1-0 0000000180039124     ucrt:api-ms-win-crt-runtime-l1-1-0.dll
 0002:0000d138       __IMPORT_DESCRIPTOR_api-ms-win-crt-heap-l1-1-0 0000000180039138     ucrt:api-ms-win-crt-heap-l1-1-0.dll
 0002:0000d14c       __NULL_IMPORT_DESCRIPTOR   000000018003914c     core:core.dll
 0003:00000000       WinbaseIsolationAwarePrivateT_UnPgpgk 000000018003d000     BerconDistortion.obj
 0003:000006f8       __scrt_native_dllmain_reason 000000018003d6f8     MSVCRT:utility.obj
 0003:000006fc       _fltused                   000000018003d6fc     MSVCRT:dllsupp.obj
 0003:00000700       __isa_available            000000018003d700     MSVCRT:_cpu_disp_.obj
 0003:00000704       __isa_enabled              000000018003d704     MSVCRT:_cpu_disp_.obj
 0003:00000708       __memcpy_nt_iters          000000018003d708     MSVCRT:_cpu_disp_.obj
 0003:00000710       __security_cookie          000000018003d710     MSVCRT:gs_cookie.obj
 0003:00000718       __security_cookie_complement 000000018003d718     MSVCRT:gs_cookie.obj
 0003:00000720       __scrt_ucrt_dll_is_in_use  000000018003d720     MSVCRT:ucrt_stubs.obj
 0003:00000730       ??_R0?AVXYZ_Desc@@@8       000000018003d730     BerconDistortion.obj
 0003:00000750       ??_R0?AVParamBlockDesc2@@@8 000000018003d750     BerconDistortion.obj
 0003:00000778       ??_R0?AVBerconDistortionClassDesc@@@8 000000018003d778     BerconDistortion.obj
 0003:000007a8       ??_R0?AVClassDesc2@@@8     000000018003d7a8     BerconDistortion.obj
 0003:000007d0       ??_R0?AVInterfaceServer@@@8 000000018003d7d0     BerconDistortion.obj
 0003:000007f8       ??_R0?AVBaseInterfaceServer@@@8 000000018003d7f8     BerconDistortion.obj
 0003:00000828       ??_R0?AVClassDesc@@@8      000000018003d828     BerconDistortion.obj
 0003:00000848       ??_R0?AVTabOutOfRangeException@Util@MaxSDK@@@8 000000018003d848     BerconDistortion.obj
 0003:00000888       ??_R0?AVOutOfRangeException@Util@MaxSDK@@@8 000000018003d888     BerconDistortion.obj
 0003:000008c0       ??_R0?AVException@Util@MaxSDK@@@8 000000018003d8c0     BerconDistortion.obj
 0003:000008f0       ??_R0?AVMaxHeapOperators@@@8 000000018003d8f0     BerconDistortion.obj
 0003:00000918       ??_R0?AVReferenceTarget@@@8 000000018003d918     BerconDistortion.obj
 0003:00000940       ??_R0?AVReferenceMaker@@@8 000000018003d940     BerconDistortion.obj
 0003:00000968       ??_R0?AVSealedReferenceMaker@@@8 000000018003d968     BerconDistortion.obj
 0003:00000998       ??_R0?AVAnimatable@@@8     000000018003d998     BerconDistortion.obj
 0003:000009c0       ??_R0?AVNoncopyable@Util@MaxSDK@@@8 000000018003d9c0     BerconDistortion.obj
 0003:000009f0       ??_R0?AVParamMap2UserDlgProc@@@8 000000018003d9f0     BerconDistortion.obj
 0003:00000a20       ??_R0?AVShadeContext@@@8   000000018003da20     BerconDistortion.obj
 0003:00000a48       ??_R0?AVRenderGlobalContext@@@8 000000018003da48     BerconDistortion.obj
 0003:00000a78       ??_R0?AVShadeOutput@@@8    000000018003da78     BerconDistortion.obj
 0003:00000aa0       ??_R0?AVISubMap@@@8        000000018003daa0     BerconDistortion.obj
 0003:00000ac0       ??_R0?AVBerconXYZDlgProc@@@8 000000018003dac0     BerconDistortion.obj
 0003:00000ae8       ??_R0?AVBerconSC@@@8       000000018003dae8     BerconDistortion.obj
 0003:00000b08       ??_R0?AVBerconDistortion@@@8 000000018003db08     BerconDistortion.obj
 0003:00000b30       ??_R0?AVTexmap@@@8         000000018003db30     BerconDistortion.obj
 0003:00000b50       ??_R0?AVMtlBase@@@8        000000018003db50     BerconDistortion.obj
 0003:00000b70       ??_R0?AVBerconGradientClassDesc@@@8 000000018003db70     BerconGradient.obj
 0003:00000ba0       ??_R0?AVICustomControl@@@8 000000018003dba0     BerconGradient.obj
 0003:00000bc8       ??_R0?AVResourceMakerCallback@@@8 000000018003dbc8     BerconGradient.obj
 0003:00000bf8       ??_R0?AVGradientMap@@@8    000000018003dbf8     BerconGradient.obj
 0003:00000c20       ??_R0?AVIGradient@@@8      000000018003dc20     BerconGradient.obj
 0003:00000c40       ??_R0?AVBerconGradient@@@8 000000018003dc40     BerconGradient.obj
 0003:00000c68       ??_R0?AVBerconGradientDlgProc@@@8 000000018003dc68     BerconGradient.obj
 0003:00000c98       ??_R0?AVBerconTileClassDesc@@@8 000000018003dc98     BerconTile.obj
 0003:00000cc8       ??_R0?AVBerconTile@@@8     000000018003dcc8     BerconTile.obj
 0003:00000cf0       ??_R0?AVBerconTileDlgProc@@@8 000000018003dcf0     BerconTile.obj
 0003:00000d18       ??_R0?AVBerconWoodClassDesc@@@8 000000018003dd18     BerconWood.obj
 0003:00000d48       ??_R0?AVBerconWood@@@8     000000018003dd48     BerconWood.obj
 0003:00000d70       ??_R0?AVBerconWoodDlgProc@@@8 000000018003dd70     BerconWood.obj
 0003:00000d98       ??_R0?AVBerconNoiseClassDesc@@@8 000000018003dd98     BerconNoise.obj
 0003:00000dc8       ??_R0?AVBerconNoise@@@8    000000018003ddc8     BerconNoise.obj
 0003:00000df0       ??_R0?AVBerconNoiseDlgProc@@@8 000000018003ddf0     BerconNoise.obj
 0003:00000e20       ??_R0?AV?$basic_stringbuf@_WU?$char_traits@_W@std@@V?$allocator@_W@2@@std@@@8 000000018003de20     tile.obj
 0003:00000e80       ??_R0?AV?$basic_streambuf@_WU?$char_traits@_W@std@@@std@@@8 000000018003de80     tile.obj
 0003:00000ed0       ??_R0?AV?$basic_stringstream@_WU?$char_traits@_W@std@@V?$allocator@_W@2@@std@@@8 000000018003ded0     tile.obj
 0003:00000f30       ??_R0?AV?$basic_iostream@_WU?$char_traits@_W@std@@@std@@@8 000000018003df30     tile.obj
 0003:00000f80       ??_R0?AV?$basic_istream@_WU?$char_traits@_W@std@@@std@@@8 000000018003df80     tile.obj
 0003:00000fd0       ??_R0?AV?$basic_ios@_WU?$char_traits@_W@std@@@std@@@8 000000018003dfd0     tile.obj
 0003:00001010       ??_R0?AVios_base@std@@@8   000000018003e010     tile.obj
 0003:00001038       ??_R0?AV?$_Iosb@H@std@@@8  000000018003e038     tile.obj
 0003:00001060       ??_R0?AV?$basic_ostream@_WU?$char_traits@_W@std@@@std@@@8 000000018003e060     tile.obj
 0003:000010a8       ??_R0?AVtype_info@@@8      000000018003e0a8     MSVCRT:std_type_info_static.obj
 0003:000010c8       ??_R0?AVbad_alloc@std@@@8  000000018003e0c8     MSVCRT:throw_bad_alloc.obj
 0003:000010f0       ??_R0?AVexception@std@@@8  000000018003e0f0     MSVCRT:throw_bad_alloc.obj
 0003:00001118       ??_R0?AVbad_array_new_length@std@@@8 000000018003e118     MSVCRT:throw_bad_alloc.obj
 0003:00001150       IsolationAwarePrivateT_SqbjaYRiRY 000000018003e150     BerconDistortion.obj
 0003:00001154       IsolationAwarePrivateT_SAbnPgpgk 000000018003e154     BerconDistortion.obj
 0003:00001158       WinbaseIsolationAwarePrivateT_SpeRNgRQnPgpgk 000000018003e158     BerconDistortion.obj
 0003:0000115c       WinbaseIsolationAwarePrivateT_SpYRNahcpNYYRQ 000000018003e15c     BerconDistortion.obj
 0003:000012a0       ?texoutDlg@BerconGradient@@2PEAVParamDlg@@EA 000000018003e2a0     BerconGradient.obj
 0003:000013f0       ?texoutDlg@BerconTile@@2PEAVParamDlg@@EA 000000018003e3f0     BerconTile.obj
 0003:000015c0       ?texoutDlg@BerconWood@@2PEAVParamDlg@@EA 000000018003e5c0     BerconWood.obj
 0003:000017a0       ?hInstance@@3PEAUHINSTANCE__@@EA 000000018003e7a0     DllEntry.obj
 0003:000017a8       ?controlsInit@@3HA         000000018003e7a8     DllEntry.obj
 0003:000017c0       ?s_pfn@?1??IsolationAwareInitCommonControls@@9@4P6AXXZEA 000000018003e7c0     DllEntry.obj
 0003:000017c8       ?m@?1??CommctrlIsolationAwarePrivatetRgCebPnQQeRff_pbZPgYQP_QYY@@9@4UIsolationAwarePrivate_zHGnoyr_zBqHyr_vAsB@@A 000000018003e7c8     DllEntry.obj
 0003:000019e0       ?texoutDlg@BerconNoise@@2PEAVParamDlg@@EA 000000018003e9e0     BerconNoise.obj
 0003:00001c20       __scrt_current_native_startup_state 000000018003ec20     MSVCRT:utility.obj
 0003:00001c28       __scrt_native_startup_lock 000000018003ec28     MSVCRT:utility.obj
 0003:00001c68       __favor                    000000018003ec68     MSVCRT:_cpu_disp_.obj
 0003:00001c6c       __scrt_debugger_hook_flag  000000018003ec6c     MSVCRT:utility_desktop.obj
 0003:00001c70       ?__type_info_root_node@@3U__type_info_node@@A 000000018003ec70     MSVCRT:tncleanup.obj
 0003:00001c80       ?_OptionsStorage@?1??__local_stdio_printf_options@@9@4_KA 000000018003ec80     MSVCRT:default_local_stdio_options.obj
 0003:00001c88       ?_OptionsStorage@?1??__local_stdio_scanf_options@@9@4_KA 000000018003ec88     MSVCRT:default_local_stdio_options.obj
 0003:00001c90       __dyn_tls_init_callback    000000018003ec90     <common>

 entry point at        0001:000296d8

 Static symbols

 0001:00000000       ??__EBerconDistortionDesc@@YAXXZ 0000000180001000 f   BerconDistortion.obj
 0001:00000040       ??__EBerconDistortion_param_blk@@YAXXZ 0000000180001040 f   BerconDistortion.obj
 0001:00000380       ??__EkInvalidId@AssetManagement@MaxSDK@@YAXXZ 0000000180001380 f   BerconDistortion.obj
 0001:00000390       ??__Exyz_blk@@YAXXZ        0000000180001390 f   BerconDistortion.obj
 0001:000003f0       ??__EBerconGradientDesc@@YAXXZ 00000001800013f0 f   BerconGradient.obj
 0001:00000430       ??__Egradientmap_param_blk@@YAXXZ 0000000180001430 f   BerconGradient.obj
 0001:000012a0       ??__EkInvalidId@AssetManagement@MaxSDK@@YAXXZ 00000001800022a0 f   BerconGradient.obj
 0001:000012b0       ??__Exyz_blk@@YAXXZ        00000001800022b0 f   BerconGradient.obj
 0001:00001310       ??__EBerconMap_param_blk@@YAXXZ 0000000180002310 f   BerconTile.obj
 0001:00001570       ??__EBerconTileDesc@@YAXXZ 0000000180002570 f   BerconTile.obj
 0001:000015b0       ??__EBerconTile_param_blk@@YAXXZ 00000001800025b0 f   BerconTile.obj
 0001:00003070       ??__EkInvalidId@AssetManagement@MaxSDK@@YAXXZ 0000000180004070 f   BerconTile.obj
 0001:00003080       ??__Exyz_blk@@YAXXZ        0000000180004080 f   BerconTile.obj
 0001:000030d0       ??__EBerconMap_param_blk@@YAXXZ 00000001800040d0 f   BerconWood.obj
 0001:000041c0       ??__EBerconWoodDesc@@YAXXZ 00000001800051c0 f   BerconWood.obj
 0001:00004200       ??__EBerconWood_param_blk@@YAXXZ 0000000180005200 f   BerconWood.obj
 0001:000057e0       ??__EkInvalidId@AssetManagement@MaxSDK@@YAXXZ 00000001800067e0 f   BerconWood.obj
 0001:000057f0       ??__Exyz_blk@@YAXXZ        00000001800067f0 f   BerconWood.obj
 0001:00005840       ??__EkInvalidId@AssetManagement@MaxSDK@@YAXXZ 0000000180006840 f   DllEntry.obj
 0001:00005850       ??__EkInvalidId@AssetManagement@MaxSDK@@YAXXZ 0000000180006850 f   BerconCommon.obj
 0001:00005860       ??__EBerconMap_param_blk@@YAXXZ 0000000180006860 f   BerconNoise.obj
 0001:00006730       ??__EBerconNoiseDesc@@YAXXZ 0000000180007730 f   BerconNoise.obj
 0001:00006770       ??__Eberconnoise_param_blk@@YAXXZ 0000000180007770 f   BerconNoise.obj
 0001:000078f0       ??__EkInvalidId@AssetManagement@MaxSDK@@YAXXZ 00000001800088f0 f   BerconNoise.obj
 0001:00007900       ??__Exyz_blk@@YAXXZ        0000000180008900 f   BerconNoise.obj
 0001:00007950       ??__EkInvalidId@AssetManagement@MaxSDK@@YAXXZ 0000000180008950 f   fractal.obj
 0001:00007960       ??__EkInvalidId@AssetManagement@MaxSDK@@YAXXZ 0000000180008960 f   GradientRamp.obj
 0001:00007970       ??__EkInvalidId@AssetManagement@MaxSDK@@YAXXZ 0000000180008970 f   IGradient.obj
 0001:00007980       ??__EkInvalidId@AssetManagement@MaxSDK@@YAXXZ 0000000180008980 f   noise.obj
 0001:00007990       ??__EkInvalidId@AssetManagement@MaxSDK@@YAXXZ 0000000180008990 f   tile.obj
 0001:000079a0       ??__EkInvalidId@AssetManagement@MaxSDK@@YAXXZ 00000001800089a0 f   commonMath.obj
 0001:0000dd28       $LN17                      000000018000ed28     BerconGradient.obj
 0001:0000e3f8       $LN15                      000000018000f3f8     BerconGradient.obj
 0001:0000e5c8       $LN17                      000000018000f5c8     BerconGradient.obj
 0001:0000f194       $LN40                      0000000180010194     BerconGradient.obj
 0001:0000f538       $LN45                      0000000180010538     BerconGradient.obj
 0001:0000f8ec       $LN45                      00000001800108ec     BerconGradient.obj
 0001:0000fc88       $LN69                      0000000180010c88     BerconGradient.obj
 0001:00012dc4       $LN15                      0000000180013dc4     BerconTile.obj
 0001:00016c74       $LN29                      0000000180017c74     BerconWood.obj
 0001:00017594       $LN15                      0000000180018594     BerconWood.obj
 0001:000175b0       $LN14                      00000001800185b0     BerconWood.obj
 0001:00019f00       ?setSpinnerType@@YAXPEAVIParamMap2@@HHHHH_N@Z 000000018001af00 f   BerconTile.obj
 0001:00019f00       ?setSpinnerType@@YAXPEAVIParamMap2@@HHHHH_N@Z 000000018001af00 f   BerconCommon.obj
 0001:0001a020       ?tiling@@YAHHAEAM@Z        000000018001b020 f   BerconCommon.obj
 0001:0001a110       ?tiling@@YAHHAEAMAEAH@Z    000000018001b110 f   BerconCommon.obj
 0001:0001ca64       $LN26                      000000018001da64     BerconNoise.obj
 0001:0001d2e4       $LN15                      000000018001e2e4     BerconNoise.obj
 0001:0001d300       $LN14                      000000018001e300     BerconNoise.obj
 0001:00021024       $LN29                      0000000180022024     noise.obj
 0001:00021210       $LN29                      0000000180022210     noise.obj
 0001:00021438       $LN15                      0000000180022438     noise.obj
 0001:00021564       $LN15                      0000000180022564     noise.obj
 0001:00025880       ?getAngle@@YAMHM@Z         0000000180026880 f   tile.obj
 0001:00025c20       ?parsePattern@@YAHV?$basic_string@_WU?$char_traits@_W@std@@V?$allocator@_W@2@@std@@PEAVTilePattern@@@Z 0000000180026c20 f   tile.obj
 0001:00026ee0       ?rowcol@@YAHAEAM0AEAHMMAEAV?$vector@MV?$allocator@M@std@@@std@@MMM@Z 0000000180027ee0 f   tile.obj
 0001:0002786c       $LN925                     000000018002886c     tile.obj
 0001:000278f0       ?tokenize@@YAXAEBV?$basic_string@_WU?$char_traits@_W@std@@V?$allocator@_W@2@@std@@AEAV?$vector@V?$basic_string@_WU?$char_traits@_W@std@@V?$allocator@_W@2@@std@@V?$allocator@V?$basic_string@_WU?$char_traits@_W@std@@V?$allocator@_W@2@@std@@@2@@2@0@Z 00000001800288f0 f   tile.obj
 0001:00028408       $LN56                      0000000180029408     worley.obj
 0001:00029320       $$000000                   000000018002a320     MSVCRT:_chkstk_.obj
 0001:0002938c       ?dllmain_crt_dispatch@@YAHQEAUHINSTANCE__@@KQEAX@Z 000000018002a38c f   MSVCRT:dll_dllmain.obj
 0001:000293dc       ?dllmain_crt_process_attach@@YAHQEAUHINSTANCE__@@QEAX@Z 000000018002a3dc f   MSVCRT:dll_dllmain.obj
 0001:00029508       ?dllmain_crt_process_detach@@YAH_N@Z 000000018002a508 f   MSVCRT:dll_dllmain.obj
 0001:0002958c       ?dllmain_dispatch@@YAHQEAUHINSTANCE__@@KQEAX@Z 000000018002a58c f   MSVCRT:dll_dllmain.obj
 0001:00029684       ?dllmain_raw@@YAHQEAUHINSTANCE__@@KQEAX@Z 000000018002a684 f   MSVCRT:dll_dllmain.obj
 0001:00029e60       $$000000                   000000018002ae60     MSVCRT:_guard_dispatch_.obj
 0001:00029e80       ?dtor$0@?0???0BerconDistortion@@QEAA@XZ@4HA 000000018002ae80 f   BerconDistortion.obj
 0001:00029e90       ?dtor$2@?0???0BerconSC@@QEAA@QEAVShadeContext@@@Z@4HA 000000018002ae90 f   BerconDistortion.obj
 0001:00029e9e       ?dtor$5@?0???0BerconSC@@QEAA@QEAVShadeContext@@@Z@4HA 000000018002ae9e f   BerconDistortion.obj
 0001:00029eac       ?dtor$6@?0???0BerconSC@@QEAA@QEAVShadeContext@@@Z@4HA 000000018002aeac f   BerconDistortion.obj
 0001:00029ebc       ?dtor$4@?0???0BerconSC@@QEAA@QEAVShadeContext@@@Z@4HA 000000018002aebc f   BerconDistortion.obj
 0001:00029eca       ?dtor$3@?0???0BerconSC@@QEAA@QEAVShadeContext@@@Z@4HA 000000018002aeca f   BerconDistortion.obj
 0001:00029eda       ?dtor$0@?0???0BerconSC@@QEAA@QEAVShadeContext@@@Z@4HA 000000018002aeda f   BerconDistortion.obj
 0001:00029ee6       ?dtor$8@?0???0BerconSC@@QEAA@QEAVShadeContext@@@Z@4HA 000000018002aee6 f   BerconDistortion.obj
 0001:00029ef4       ?dtor$9@?0???0BerconSC@@QEAA@QEAVShadeContext@@@Z@4HA 000000018002aef4 f   BerconDistortion.obj
 0001:00029f04       ?dtor$7@?0???0BerconSC@@QEAA@QEAVShadeContext@@@Z@4HA 000000018002af04 f   BerconDistortion.obj
 0001:00029f12       ?dtor$1@?0???0BerconSC@@QEAA@QEAVShadeContext@@@Z@4HA 000000018002af12 f   BerconDistortion.obj
 0001:00029f30       ?dtor$1@?0???0TabOutOfRangeException@Util@MaxSDK@@QEAA@AEBV012@@Z@4HA 000000018002af30 f   BerconDistortion.obj
 0001:00029f3e       ?dtor$0@?0???0TabOutOfRangeException@Util@MaxSDK@@QEAA@AEBV012@@Z@4HA 000000018002af3e f   BerconDistortion.obj
 0001:00029f50       ?dtor$0@?0???0VertexNormalsControl@@QEAA@XZ@4HA 000000018002af50 f   BerconDistortion.obj
 0001:00029f60       ?dtor$0@?0???0XYZ_Desc@@QEAA@PEAVClassDesc2@@HHHHHHH@Z@4HA 000000018002af60 f   BerconDistortion.obj
 0001:00029f70       ?dtor$0@?0???1BerconSC@@UEAA@XZ@4HA 000000018002af70 f   BerconDistortion.obj
 0001:00029f7c       ?dtor$1@?0???1BerconSC@@UEAA@XZ@4HA 000000018002af7c f   BerconDistortion.obj
 0001:00029f8f       ?dtor$2@?0???1BerconSC@@UEAA@XZ@4HA 000000018002af8f f   BerconDistortion.obj
 0001:00029f9d       ?dtor$3@?0???1BerconSC@@UEAA@XZ@4HA 000000018002af9d f   BerconDistortion.obj
 0001:00029fab       ?dtor$4@?0???1BerconSC@@UEAA@XZ@4HA 000000018002afab f   BerconDistortion.obj
 0001:00029fbb       ?dtor$5@?0???1BerconSC@@UEAA@XZ@4HA 000000018002afbb f   BerconDistortion.obj
 0001:00029fd0       ?dtor$0@?0???1ShadeContext@@UEAA@XZ@4HA 000000018002afd0 f   BerconDistortion.obj
 0001:00029fde       ?dtor$1@?0???1ShadeContext@@UEAA@XZ@4HA 000000018002afde f   BerconDistortion.obj
 0001:00029fee       ?dtor$2@?0???1ShadeContext@@UEAA@XZ@4HA 000000018002afee f   BerconDistortion.obj
 0001:0002a000       ?dtor$0@?0???1RenderGlobalContext@@UEAA@XZ@4HA 000000018002b000 f   BerconDistortion.obj
 0001:0002a000       ?dtor$0@?0???_GShadeOutput@@UEAAPEAXI@Z@4HA 000000018002b000 f   BerconDistortion.obj
 0001:0002a000       ?dtor$0@?0???1ShadeOutput@@UEAA@XZ@4HA 000000018002b000 f   BerconDistortion.obj
 0001:0002a000       ?dtor$0@?0???_GRenderGlobalContext@@UEAAPEAXI@Z@4HA 000000018002b000 f   BerconDistortion.obj
 0001:0002a010       ?dtor$0@?0???1Texmap@@UEAA@XZ@4HA 000000018002b010 f   BerconDistortion.obj
 0001:0002a020       ?dtor$0@?0???A?$Tab@PEAVFPInterface@@@@QEBAAEAPEAVFPInterface@@_J@Z@4HA 000000018002b020 f   BerconDistortion.obj
 0001:0002a030       ?dtor$0@?0???_GBerconSC@@UEAAPEAXI@Z@4HA 000000018002b030 f   BerconDistortion.obj
 0001:0002a03c       ?dtor$1@?0???_GBerconSC@@UEAAPEAXI@Z@4HA 000000018002b03c f   BerconDistortion.obj
 0001:0002a04f       ?dtor$2@?0???_GBerconSC@@UEAAPEAXI@Z@4HA 000000018002b04f f   BerconDistortion.obj
 0001:0002a05d       ?dtor$3@?0???_GBerconSC@@UEAAPEAXI@Z@4HA 000000018002b05d f   BerconDistortion.obj
 0001:0002a06b       ?dtor$4@?0???_GBerconSC@@UEAAPEAXI@Z@4HA 000000018002b06b f   BerconDistortion.obj
 0001:0002a07b       ?dtor$5@?0???_GBerconSC@@UEAAPEAXI@Z@4HA 000000018002b07b f   BerconDistortion.obj
 0001:0002a090       ?dtor$0@?0???_GShadeContext@@UEAAPEAXI@Z@4HA 000000018002b090 f   BerconDistortion.obj
 0001:0002a09e       ?dtor$1@?0???_GShadeContext@@UEAAPEAXI@Z@4HA 000000018002b09e f   BerconDistortion.obj
 0001:0002a0ae       ?dtor$2@?0???_GShadeContext@@UEAAPEAXI@Z@4HA 000000018002b0ae f   BerconDistortion.obj
 0001:0002a0c0       ?dtor$0@?0???_GTabOutOfRangeException@Util@MaxSDK@@UEAAPEAXI@Z@4HA 000000018002b0c0 f   BerconDistortion.obj
 0001:0002a0c0       ?dtor$0@?0???1TabOutOfRangeException@Util@MaxSDK@@UEAA@XZ@4HA 000000018002b0c0 f   BerconDistortion.obj
 0001:0002a0ce       ?dtor$1@?0???1TabOutOfRangeException@Util@MaxSDK@@UEAA@XZ@4HA 000000018002b0ce f   BerconDistortion.obj
 0001:0002a0ce       ?dtor$1@?0???_GTabOutOfRangeException@Util@MaxSDK@@UEAAPEAXI@Z@4HA 000000018002b0ce f   BerconDistortion.obj
 0001:0002a0e0       ?dtor$0@?0???_GXYZ_Desc@@UEAAPEAXI@Z@4HA 000000018002b0e0 f   BerconDistortion.obj
 0001:0002a0f0       ?dtor$0@?0???__FBerconDistortionDesc@@YAXXZ@4HA 000000018002b0f0 f   BerconDistortion.obj
 0001:0002a0f0       ?dtor$0@?0???__EBerconDistortionDesc@@YAXXZ@4HA 000000018002b0f0 f   BerconDistortion.obj
 0001:0002a100       ?dtor$0@?0???__Fxyz_blk@@YAXXZ@4HA 000000018002b100 f   BerconDistortion.obj
 0001:0002a110       ?dtor$0@?0??CreateParamDlg@BerconDistortion@@UEAAPEAVParamDlg@@PEAUHWND__@@PEAVIMtlParams@@@Z@4HA 000000018002b110 f   BerconDistortion.obj
 0001:0002a11e       ?dtor$1@?0??CreateParamDlg@BerconDistortion@@UEAAPEAVParamDlg@@PEAUHWND__@@PEAVIMtlParams@@@Z@4HA 000000018002b11e f   BerconDistortion.obj
 0001:0002a130       ?dtor$0@?0??EvalNormalPerturb@BerconDistortion@@UEAA?AVPoint3@@AEAVShadeContext@@@Z@4HA 000000018002b130 f   BerconDistortion.obj
 0001:0002a130       ?dtor$0@?0??EvalColor@BerconDistortion@@UEAA?AVAColor@@AEAVShadeContext@@@Z@4HA 000000018002b130 f   BerconDistortion.obj
 0001:0002a130       ?dtor$0@?0??EvalMono@BerconDistortion@@UEAAMAEAVShadeContext@@@Z@4HA 000000018002b130 f   BerconDistortion.obj
 0001:0002a13c       ?dtor$1@?0??EvalNormalPerturb@BerconDistortion@@UEAA?AVPoint3@@AEAVShadeContext@@@Z@4HA 000000018002b13c f   BerconDistortion.obj
 0001:0002a13c       ?dtor$1@?0??EvalColor@BerconDistortion@@UEAA?AVAColor@@AEAVShadeContext@@@Z@4HA 000000018002b13c f   BerconDistortion.obj
 0001:0002a13c       ?dtor$1@?0??EvalMono@BerconDistortion@@UEAAMAEAVShadeContext@@@Z@4HA 000000018002b13c f   BerconDistortion.obj
 0001:0002a148       ?dtor$2@?0??EvalNormalPerturb@BerconDistortion@@UEAA?AVPoint3@@AEAVShadeContext@@@Z@4HA 000000018002b148 f   BerconDistortion.obj
 0001:0002a148       ?dtor$2@?0??EvalMono@BerconDistortion@@UEAAMAEAVShadeContext@@@Z@4HA 000000018002b148 f   BerconDistortion.obj
 0001:0002a148       ?dtor$2@?0??EvalColor@BerconDistortion@@UEAA?AVAColor@@AEAVShadeContext@@@Z@4HA 000000018002b148 f   BerconDistortion.obj
 0001:0002a15b       ?dtor$3@?0??EvalColor@BerconDistortion@@UEAA?AVAColor@@AEAVShadeContext@@@Z@4HA 000000018002b15b f   BerconDistortion.obj
 0001:0002a15b       ?dtor$3@?0??EvalMono@BerconDistortion@@UEAAMAEAVShadeContext@@@Z@4HA 000000018002b15b f   BerconDistortion.obj
 0001:0002a15b       ?dtor$3@?0??EvalNormalPerturb@BerconDistortion@@UEAA?AVPoint3@@AEAVShadeContext@@@Z@4HA 000000018002b15b f   BerconDistortion.obj
 0001:0002a169       ?dtor$4@?0??EvalNormalPerturb@BerconDistortion@@UEAA?AVPoint3@@AEAVShadeContext@@@Z@4HA 000000018002b169 f   BerconDistortion.obj
 0001:0002a169       ?dtor$4@?0??EvalColor@BerconDistortion@@UEAA?AVAColor@@AEAVShadeContext@@@Z@4HA 000000018002b169 f   BerconDistortion.obj
 0001:0002a169       ?dtor$4@?0??EvalMono@BerconDistortion@@UEAAMAEAVShadeContext@@@Z@4HA 000000018002b169 f   BerconDistortion.obj
 0001:0002a177       ?dtor$5@?0??EvalNormalPerturb@BerconDistortion@@UEAA?AVPoint3@@AEAVShadeContext@@@Z@4HA 000000018002b177 f   BerconDistortion.obj
 0001:0002a177       ?dtor$5@?0??EvalColor@BerconDistortion@@UEAA?AVAColor@@AEAVShadeContext@@@Z@4HA 000000018002b177 f   BerconDistortion.obj
 0001:0002a177       ?dtor$5@?0??EvalMono@BerconDistortion@@UEAAMAEAVShadeContext@@@Z@4HA 000000018002b177 f   BerconDistortion.obj
 0001:0002a187       ?dtor$6@?0??EvalMono@BerconDistortion@@UEAAMAEAVShadeContext@@@Z@4HA 000000018002b187 f   BerconDistortion.obj
 0001:0002a187       ?dtor$6@?0??EvalNormalPerturb@BerconDistortion@@UEAA?AVPoint3@@AEAVShadeContext@@@Z@4HA 000000018002b187 f   BerconDistortion.obj
 0001:0002a187       ?dtor$6@?0??EvalColor@BerconDistortion@@UEAA?AVAColor@@AEAVShadeContext@@@Z@4HA 000000018002b187 f   BerconDistortion.obj
 0001:0002a1a0       ?dtor$0@?0???0BerconGradient@@QEAA@XZ@4HA 000000018002b1a0 f   BerconGradient.obj
 0001:0002a1ac       ?dtor$1@?0???0BerconGradient@@QEAA@XZ@4HA 000000018002b1ac f   BerconGradient.obj
 0001:0002a1d0       ?dtor$1@?0???0IGradient@@QEAA@PEAUHWND__@@PEAVGradientRamp@@@Z@4HA 000000018002b1d0 f   BerconGradient.obj
 0001:0002a1de       ?dtor$0@?0???0IGradient@@QEAA@PEAUHWND__@@PEAVGradientRamp@@@Z@4HA 000000018002b1de f   BerconGradient.obj
 0001:0002a1f0       ?dtor$0@?0???1BerconGradient@@UEAA@XZ@4HA 000000018002b1f0 f   BerconGradient.obj
 0001:0002a1f0       ?dtor$0@?0???1BerconNoise@@UEAA@XZ@4HA 000000018002b1f0 f   BerconNoise.obj
 0001:0002a1f0       ?dtor$0@?0???1BerconWood@@UEAA@XZ@4HA 000000018002b1f0 f   BerconWood.obj
 0001:0002a1f0       ?dtor$0@?0???_GBerconDistortion@@UEAAPEAXI@Z@4HA 000000018002b1f0 f   BerconDistortion.obj
 0001:0002a1fc       ?dtor$1@?0???1BerconNoise@@UEAA@XZ@4HA 000000018002b1fc f   BerconNoise.obj
 0001:0002a1fc       ?dtor$1@?0???_GBerconDistortion@@UEAAPEAXI@Z@4HA 000000018002b1fc f   BerconDistortion.obj
 0001:0002a1fc       ?dtor$1@?0???1BerconGradient@@UEAA@XZ@4HA 000000018002b1fc f   BerconGradient.obj
 0001:0002a1fc       ?dtor$1@?0???1BerconWood@@UEAA@XZ@4HA 000000018002b1fc f   BerconWood.obj
 0001:0002a210       ?dtor$0@?0???_GBerconWoodClassDesc@@UEAAPEAXI@Z@4HA 000000018002b210 f   BerconWood.obj
 0001:0002a210       ?dtor$0@?0???_GBerconNoiseClassDesc@@UEAAPEAXI@Z@4HA 000000018002b210 f   BerconNoise.obj
 0001:0002a210       ?dtor$0@?0???_GBerconTileClassDesc@@UEAAPEAXI@Z@4HA 000000018002b210 f   BerconTile.obj
 0001:0002a210       ?dtor$0@?0???_GBerconGradientClassDesc@@UEAAPEAXI@Z@4HA 000000018002b210 f   BerconGradient.obj
 0001:0002a210       ?dtor$0@?0???_GBerconDistortionClassDesc@@UEAAPEAXI@Z@4HA 000000018002b210 f   BerconDistortion.obj
 0001:0002a220       ?dtor$0@?0???1ICustomControl@@UEAA@XZ@4HA 000000018002b220 f   BerconGradient.obj
 0001:0002a220       ?dtor$0@?0???_GICustomControl@@UEAAPEAXI@Z@4HA 000000018002b220 f   BerconGradient.obj
 0001:0002a230       ?dtor$0@?0???_GIGradient@@UEAAPEAXI@Z@4HA 000000018002b230 f   BerconGradient.obj
 0001:0002a23c       ?dtor$1@?0???_GIGradient@@UEAAPEAXI@Z@4HA 000000018002b23c f   BerconGradient.obj
 0001:0002a250       ?dtor$0@?0???__FBerconGradientDesc@@YAXXZ@4HA 000000018002b250 f   BerconGradient.obj
 0001:0002a250       ?dtor$0@?0???__EBerconGradientDesc@@YAXXZ@4HA 000000018002b250 f   BerconGradient.obj
 0001:0002a260       ?dtor$0@?0???__Fxyz_blk@@YAXXZ@4HA 000000018002b260 f   BerconGradient.obj
 0001:0002a270       ?dtor$0@?0??Create@BerconDistortionClassDesc@@UEAAPEAXH@Z@4HA 000000018002b270 f   BerconDistortion.obj
 0001:0002a270       ?dtor$0@?0??Create@BerconNoiseClassDesc@@UEAAPEAXH@Z@4HA 000000018002b270 f   BerconNoise.obj
 0001:0002a270       ?dtor$0@?0??Create@BerconWoodClassDesc@@UEAAPEAXH@Z@4HA 000000018002b270 f   BerconWood.obj
 0001:0002a270       ?dtor$0@?0??Create@BerconTileClassDesc@@UEAAPEAXH@Z@4HA 000000018002b270 f   BerconTile.obj
 0001:0002a270       ?dtor$0@?0??Create@BerconGradientClassDesc@@UEAAPEAXH@Z@4HA 000000018002b270 f   BerconGradient.obj
 0001:0002a270       ?dtor$0@?0??Clone@BerconGradient@@UEAAPEAVReferenceTarget@@AEAVRemapDir@@@Z@4HA 000000018002b270 f   BerconGradient.obj
 0001:0002a280       ?dtor$0@?0??DlgProc@BerconGradientDlgProc@@UEAA_JHPEAVIParamMap2@@PEAUHWND__@@I_K_J@Z@4HA 000000018002b280 f   BerconGradient.obj
 0001:0002a290       ?dtor$0@?0??GetSubTexmapSlotName@BerconGradient@@UEAA?AVWStr@@H@Z@4HA 000000018002b290 f   BerconGradient.obj
 0001:0002a2b7       ?dtor$1@?0??GetSubTexmapSlotName@BerconGradient@@UEAA?AVWStr@@H@Z@4HA 000000018002b2b7 f   BerconGradient.obj
 0001:0002a2d0       ?dtor$0@?0??GetSubTexmapSlotName@BerconDistortion@@UEAA?AVWStr@@H@Z@4HA 000000018002b2d0 f   BerconDistortion.obj
 0001:0002a2d0       ?dtor$0@?0??SubAnimName@BerconWood@@UEAA?AVWStr@@H@Z@4HA 000000018002b2d0 f   BerconWood.obj
 0001:0002a2d0       ?dtor$0@?0??SubAnimName@BerconTile@@UEAA?AVWStr@@H@Z@4HA 000000018002b2d0 f   BerconTile.obj
 0001:0002a2d0       ?dtor$0@?0??SubAnimName@BerconDistortion@@UEAA?AVWStr@@H@Z@4HA 000000018002b2d0 f   BerconDistortion.obj
 0001:0002a2d0       ?dtor$0@?0??GetSubTexmapSlotName@BerconNoise@@UEAA?AVWStr@@H@Z@4HA 000000018002b2d0 f   BerconNoise.obj
 0001:0002a2d0       ?dtor$0@?0??SubAnimName@BerconGradient@@UEAA?AVWStr@@H@Z@4HA 000000018002b2d0 f   BerconGradient.obj
 0001:0002a2d0       ?dtor$0@?0??GetSubTexmapSlotName@BerconTile@@UEAA?AVWStr@@H@Z@4HA 000000018002b2d0 f   BerconTile.obj
 0001:0002a2d0       ?dtor$0@?0??SubAnimName@BerconNoise@@UEAA?AVWStr@@H@Z@4HA 000000018002b2d0 f   BerconNoise.obj
 0001:0002a2d0       ?dtor$0@?0??GetSubTexmapSlotName@BerconWood@@UEAA?AVWStr@@H@Z@4HA 000000018002b2d0 f   BerconWood.obj
 0001:0002a300       ?dtor$0@?0???0BerconTile@@QEAA@XZ@4HA 000000018002b300 f   BerconTile.obj
 0001:0002a30c       ?dtor$2@?0???0BerconTile@@QEAA@XZ@4HA 000000018002b30c f   BerconTile.obj
 0001:0002a31c       ?dtor$3@?0???0BerconTile@@QEAA@XZ@4HA 000000018002b31c f   BerconTile.obj
 0001:0002a32c       ?dtor$1@?0???0BerconTile@@QEAA@XZ@4HA 000000018002b32c f   BerconTile.obj
 0001:0002a340       ?dtor$0@?0???1BerconTile@@UEAA@XZ@4HA 000000018002b340 f   BerconTile.obj
 0001:0002a34c       ?dtor$1@?0???1BerconTile@@UEAA@XZ@4HA 000000018002b34c f   BerconTile.obj
 0001:0002a35f       ?dtor$2@?0???1BerconTile@@UEAA@XZ@4HA 000000018002b35f f   BerconTile.obj
 0001:0002a370       ?dtor$0@?0???1TilePattern@@QEAA@XZ@4HA 000000018002b370 f   BerconTile.obj
 0001:0002a380       ?dtor$1@?0???1TilePattern@@QEAA@XZ@4HA 000000018002b380 f   BerconTile.obj
 0001:0002a390       ?dtor$0@?0???__EBerconTileDesc@@YAXXZ@4HA 000000018002b390 f   BerconTile.obj
 0001:0002a390       ?dtor$0@?0???__FBerconTileDesc@@YAXXZ@4HA 000000018002b390 f   BerconTile.obj
 0001:0002a3a0       ?dtor$0@?0???__Fxyz_blk@@YAXXZ@4HA 000000018002b3a0 f   BerconTile.obj
 0001:0002a3b0       ?dtor$0@?0??EvalColor@BerconTile@@UEAA?AVAColor@@AEAVShadeContext@@@Z@4HA 000000018002b3b0 f   BerconTile.obj
 0001:0002a3bc       ?dtor$1@?0??EvalColor@BerconTile@@UEAA?AVAColor@@AEAVShadeContext@@@Z@4HA 000000018002b3bc f   BerconTile.obj
 0001:0002a3c8       ?dtor$2@?0??EvalColor@BerconTile@@UEAA?AVAColor@@AEAVShadeContext@@@Z@4HA 000000018002b3c8 f   BerconTile.obj
 0001:0002a3db       ?dtor$3@?0??EvalColor@BerconTile@@UEAA?AVAColor@@AEAVShadeContext@@@Z@4HA 000000018002b3db f   BerconTile.obj
 0001:0002a3e9       ?dtor$4@?0??EvalColor@BerconTile@@UEAA?AVAColor@@AEAVShadeContext@@@Z@4HA 000000018002b3e9 f   BerconTile.obj
 0001:0002a3f7       ?dtor$5@?0??EvalColor@BerconTile@@UEAA?AVAColor@@AEAVShadeContext@@@Z@4HA 000000018002b3f7 f   BerconTile.obj
 0001:0002a407       ?dtor$6@?0??EvalColor@BerconTile@@UEAA?AVAColor@@AEAVShadeContext@@@Z@4HA 000000018002b407 f   BerconTile.obj
 0001:0002a420       ?dtor$0@?0??EvalNormalPerturb@BerconTile@@UEAA?AVPoint3@@AEAVShadeContext@@@Z@4HA 000000018002b420 f   BerconTile.obj
 0001:0002a42c       ?dtor$1@?0??EvalNormalPerturb@BerconTile@@UEAA?AVPoint3@@AEAVShadeContext@@@Z@4HA 000000018002b42c f   BerconTile.obj
 0001:0002a438       ?dtor$2@?0??EvalNormalPerturb@BerconTile@@UEAA?AVPoint3@@AEAVShadeContext@@@Z@4HA 000000018002b438 f   BerconTile.obj
 0001:0002a44b       ?dtor$3@?0??EvalNormalPerturb@BerconTile@@UEAA?AVPoint3@@AEAVShadeContext@@@Z@4HA 000000018002b44b f   BerconTile.obj
 0001:0002a459       ?dtor$4@?0??EvalNormalPerturb@BerconTile@@UEAA?AVPoint3@@AEAVShadeContext@@@Z@4HA 000000018002b459 f   BerconTile.obj
 0001:0002a467       ?dtor$5@?0??EvalNormalPerturb@BerconTile@@UEAA?AVPoint3@@AEAVShadeContext@@@Z@4HA 000000018002b467 f   BerconTile.obj
 0001:0002a477       ?dtor$6@?0??EvalNormalPerturb@BerconTile@@UEAA?AVPoint3@@AEAVShadeContext@@@Z@4HA 000000018002b477 f   BerconTile.obj
 0001:0002a490       ?dtor$0@?0??Update@BerconTile@@UEAAXHAEAVInterval@@@Z@4HA 000000018002b490 f   BerconTile.obj
 0001:0002a4a0       ?catch$1@?0??_Copy@?$basic_string@_WU?$char_traits@_W@std@@V?$allocator@_W@2@@std@@QEAAX_K0@Z@4HA 000000018002b4a0 f   BerconTile.obj
 0001:0002a4ad       __catch$?_Copy@?$basic_string@_WU?$char_traits@_W@std@@V?$allocator@_W@2@@std@@QEAAX_K0@Z$0 000000018002b4ad f   BerconTile.obj
 0001:0002a4d3       ?catch$0@?0??_Copy@?$basic_string@_WU?$char_traits@_W@std@@V?$allocator@_W@2@@std@@QEAAX_K0@Z@4HA 000000018002b4d3 f   BerconTile.obj
 0001:0002a4e1       __catch$?_Copy@?$basic_string@_WU?$char_traits@_W@std@@V?$allocator@_W@2@@std@@QEAAX_K0@Z$1 000000018002b4e1 f   BerconTile.obj
 0001:0002a530       ?dtor$0@?0???0BerconWood@@QEAA@XZ@4HA 000000018002b530 f   BerconWood.obj
 0001:0002a530       ?dtor$0@?0???0BerconNoise@@QEAA@XZ@4HA 000000018002b530 f   BerconNoise.obj
 0001:0002a540       ?dtor$0@?0???__FBerconWoodDesc@@YAXXZ@4HA 000000018002b540 f   BerconWood.obj
 0001:0002a540       ?dtor$0@?0???__EBerconWoodDesc@@YAXXZ@4HA 000000018002b540 f   BerconWood.obj
 0001:0002a550       ?dtor$0@?0???__Fxyz_blk@@YAXXZ@4HA 000000018002b550 f   BerconWood.obj
 0001:0002a560       ?dtor$0@?0??CreateParamDlg@BerconTile@@UEAAPEAVParamDlg@@PEAUHWND__@@PEAVIMtlParams@@@Z@4HA 000000018002b560 f   BerconTile.obj
 0001:0002a560       ?dtor$0@?0??CreateParamDlg@BerconWood@@UEAAPEAVParamDlg@@PEAUHWND__@@PEAVIMtlParams@@@Z@4HA 000000018002b560 f   BerconWood.obj
 0001:0002a560       ?dtor$0@?0??CreateParamDlg@BerconGradient@@UEAAPEAVParamDlg@@PEAUHWND__@@PEAVIMtlParams@@@Z@4HA 000000018002b560 f   BerconGradient.obj
 0001:0002a560       ?dtor$0@?0??CreateParamDlg@BerconNoise@@UEAAPEAVParamDlg@@PEAUHWND__@@PEAVIMtlParams@@@Z@4HA 000000018002b560 f   BerconNoise.obj
 0001:0002a56e       ?dtor$2@?0??CreateParamDlg@BerconGradient@@UEAAPEAVParamDlg@@PEAUHWND__@@PEAVIMtlParams@@@Z@4HA 000000018002b56e f   BerconGradient.obj
 0001:0002a56e       ?dtor$2@?0??CreateParamDlg@BerconNoise@@UEAAPEAVParamDlg@@PEAUHWND__@@PEAVIMtlParams@@@Z@4HA 000000018002b56e f   BerconNoise.obj
 0001:0002a56e       ?dtor$2@?0??CreateParamDlg@BerconTile@@UEAAPEAVParamDlg@@PEAUHWND__@@PEAVIMtlParams@@@Z@4HA 000000018002b56e f   BerconTile.obj
 0001:0002a56e       ?dtor$2@?0??CreateParamDlg@BerconWood@@UEAAPEAVParamDlg@@PEAUHWND__@@PEAVIMtlParams@@@Z@4HA 000000018002b56e f   BerconWood.obj
 0001:0002a57a       ?dtor$1@?0??CreateParamDlg@BerconNoise@@UEAAPEAVParamDlg@@PEAUHWND__@@PEAVIMtlParams@@@Z@4HA 000000018002b57a f   BerconNoise.obj
 0001:0002a57a       ?dtor$1@?0??CreateParamDlg@BerconGradient@@UEAAPEAVParamDlg@@PEAUHWND__@@PEAVIMtlParams@@@Z@4HA 000000018002b57a f   BerconGradient.obj
 0001:0002a57a       ?dtor$1@?0??CreateParamDlg@BerconWood@@UEAAPEAVParamDlg@@PEAUHWND__@@PEAVIMtlParams@@@Z@4HA 000000018002b57a f   BerconWood.obj
 0001:0002a57a       ?dtor$1@?0??CreateParamDlg@BerconTile@@UEAAPEAVParamDlg@@PEAUHWND__@@PEAVIMtlParams@@@Z@4HA 000000018002b57a f   BerconTile.obj
 0001:0002a588       ?dtor$3@?0??CreateParamDlg@BerconNoise@@UEAAPEAVParamDlg@@PEAUHWND__@@PEAVIMtlParams@@@Z@4HA 000000018002b588 f   BerconNoise.obj
 0001:0002a588       ?dtor$3@?0??CreateParamDlg@BerconTile@@UEAAPEAVParamDlg@@PEAUHWND__@@PEAVIMtlParams@@@Z@4HA 000000018002b588 f   BerconTile.obj
 0001:0002a588       ?dtor$3@?0??CreateParamDlg@BerconGradient@@UEAAPEAVParamDlg@@PEAUHWND__@@PEAVIMtlParams@@@Z@4HA 000000018002b588 f   BerconGradient.obj
 0001:0002a588       ?dtor$3@?0??CreateParamDlg@BerconWood@@UEAAPEAVParamDlg@@PEAUHWND__@@PEAVIMtlParams@@@Z@4HA 000000018002b588 f   BerconWood.obj
 0001:0002a5a0       CommctrlIsolationAwarePrivatetRgCebPnQQeRff_pbZPgYQP_QYY$fin$0 000000018002b5a0 f   DllEntry.obj
 0001:0002a600       IsolationAwareInitCommonControls$fin$0 000000018002b600 f   DllEntry.obj
 0001:0002a630       WinbaseIsolationAwarePrivatetRgzlnPgpgk$fin$0 000000018002b630 f   DllEntry.obj
 0001:0002a650       ?dtor$0@?0???_GBerconNoiseDlgProc@@UEAAPEAXI@Z@4HA 000000018002b650 f   BerconNoise.obj
 0001:0002a650       ?dtor$0@?0???_GBerconXYZDlgProc@@UEAAPEAXI@Z@4HA 000000018002b650 f   BerconDistortion.obj
 0001:0002a650       ?dtor$0@?0???_GBerconWoodDlgProc@@UEAAPEAXI@Z@4HA 000000018002b650 f   BerconWood.obj
 0001:0002a650       ?dtor$0@?0???_GBerconTileDlgProc@@UEAAPEAXI@Z@4HA 000000018002b650 f   BerconTile.obj
 0001:0002a650       ?dtor$0@?0???_GBerconGradientDlgProc@@UEAAPEAXI@Z@4HA 000000018002b650 f   BerconGradient.obj
 0001:0002a650       ?dtor$0@?0??DeleteThis@BerconXYZDlgProc@@UEAAXXZ@4HA 000000018002b650 f   BerconDistortion.obj
 0001:0002a660       ?dtor$0@?0???__FBerconNoiseDesc@@YAXXZ@4HA 000000018002b660 f   BerconNoise.obj
 0001:0002a660       ?dtor$0@?0???__EBerconNoiseDesc@@YAXXZ@4HA 000000018002b660 f   BerconNoise.obj
 0001:0002a670       ?dtor$0@?0???__Fxyz_blk@@YAXXZ@4HA 000000018002b670 f   BerconNoise.obj
 0001:0002a680       ?dtor$0@?0??Clone@BerconTile@@UEAAPEAVReferenceTarget@@AEAVRemapDir@@@Z@4HA 000000018002b680 f   BerconTile.obj
 0001:0002a680       ?dtor$0@?0??Clone@BerconNoise@@UEAAPEAVReferenceTarget@@AEAVRemapDir@@@Z@4HA 000000018002b680 f   BerconNoise.obj
 0001:0002a680       ?dtor$0@?0??Clone@BerconDistortion@@UEAAPEAVReferenceTarget@@AEAVRemapDir@@@Z@4HA 000000018002b680 f   BerconDistortion.obj
 0001:0002a680       ?dtor$0@?0??Clone@BerconWood@@UEAAPEAVReferenceTarget@@AEAVRemapDir@@@Z@4HA 000000018002b680 f   BerconWood.obj
 0001:0002a690       ?dtor$0@?0??addKey@GradientRamp@@QEAAXHMVAColor@@PEAVTexmap@@@Z@4HA 000000018002b690 f   GradientRamp.obj
 0001:0002a6a0       IsolationAwareRegisterClassExW$fin$0 000000018002b6a0 f   IGradient.obj
 0001:0002a700       ?catch$0@?0???$_Uninitialized_move_al_unchecked1@PEAV?$basic_string@_WU?$char_traits@_W@std@@V?$allocator@_W@2@@std@@PEAV12@V?$allocator@V?$basic_string@_WU?$char_traits@_W@std@@V?$allocator@_W@2@@std@@@2@@std@@YAPEAV?$basic_string@_WU?$char_traits@_W@std@@V?$allocator@_W@2@@0@PEAV10@00AEAU?$_Wrap_alloc@V?$allocator@V?$basic_string@_WU?$char_traits@_W@std@@V?$allocator@_W@2@@std@@@std@@@0@U_General_ptr_iterator_tag@0@U_Any_tag@0@@Z@4HA 000000018002b700 f   tile.obj
 0001:0002a70d       __catch$??$_Uninitialized_move_al_unchecked1@PEAV?$basic_string@_WU?$char_traits@_W@std@@V?$allocator@_W@2@@std@@PEAV12@V?$allocator@V?$basic_string@_WU?$char_traits@_W@std@@V?$allocator@_W@2@@std@@@2@@std@@YAPEAV?$basic_string@_WU?$char_traits@_W@std@@V?$allocator@_W@2@@0@PEAV10@00AEAU?$_Wrap_alloc@V?$allocator@V?$basic_string@_WU?$char_traits@_W@std@@V?$allocator@_W@2@@std@@@std@@@0@U_General_ptr_iterator_tag@0@U_Any_tag@0@@Z$0 000000018002b70d f   tile.obj
 0001:0002a730       ?dtor$0@?0???$_Uninitialized_move_al_unchecked1@PEAVTileRow@@PEAV1@V?$allocator@VTileRow@@@std@@@std@@YAPEAVTileRow@@PEAV1@00AEAU?$_Wrap_alloc@V?$allocator@VTileRow@@@std@@@0@U_General_ptr_iterator_tag@0@U_Any_tag@0@@Z@4HA 000000018002b730 f   tile.obj
 0001:0002a740       ?catch$1@?0???$_Uninitialized_move_al_unchecked1@PEAVTileRow@@PEAV1@V?$allocator@VTileRow@@@std@@@std@@YAPEAVTileRow@@PEAV1@00AEAU?$_Wrap_alloc@V?$allocator@VTileRow@@@std@@@0@U_General_ptr_iterator_tag@0@U_Any_tag@0@@Z@4HA 000000018002b740 f   tile.obj
 0001:0002a74d       __catch$??$_Uninitialized_move_al_unchecked1@PEAVTileRow@@PEAV1@V?$allocator@VTileRow@@@std@@@std@@YAPEAVTileRow@@PEAV1@00AEAU?$_Wrap_alloc@V?$allocator@VTileRow@@@std@@@0@U_General_ptr_iterator_tag@0@U_Any_tag@0@@Z$0 000000018002b74d f   tile.obj
 0001:0002a770       ?catch$0@?0???0?$vector@MV?$allocator@M@std@@@std@@QEAA@AEBV01@@Z@4HA 000000018002b770 f   tile.obj
 0001:0002a77e       __catch$??0?$vector@MV?$allocator@M@std@@@std@@QEAA@AEBV01@@Z$0 000000018002b77e f   tile.obj
 0001:0002a7c0       ?dtor$0@?0???_G?$basic_stringbuf@_WU?$char_traits@_W@std@@V?$allocator@_W@2@@std@@UEAAPEAXI@Z@4HA 000000018002b7c0 f   tile.obj
 0001:0002a7c0       ?dtor$0@?0???1?$basic_stringbuf@_WU?$char_traits@_W@std@@V?$allocator@_W@2@@std@@UEAA@XZ@4HA 000000018002b7c0 f   tile.obj
 0001:0002a7d0       ?dtor$0@?0???1?$basic_stringstream@_WU?$char_traits@_W@std@@V?$allocator@_W@2@@std@@UEAA@XZ@4HA 000000018002b7d0 f   tile.obj
 0001:0002a7e9       ?dtor$1@?0???1?$basic_stringstream@_WU?$char_traits@_W@std@@V?$allocator@_W@2@@std@@UEAA@XZ@4HA 000000018002b7e9 f   tile.obj
 0001:0002a800       ?dtor$2@?0???1?$basic_stringstream@_WU?$char_traits@_W@std@@V?$allocator@_W@2@@std@@UEAA@XZ@4HA 000000018002b800 f   tile.obj
 0001:0002a810       ?dtor$0@?0???1TileRow@@QEAA@XZ@4HA 000000018002b810 f   tile.obj
 0001:0002a810       ?dtor$0@?0???$_Destroy_range1@V?$allocator@VTileRow@@@std@@PEAVTileRow@@@std@@YAXPEAVTileRow@@0AEAU?$_Wrap_alloc@V?$allocator@VTileRow@@@std@@@0@U?$integral_constant@_N$0A@@0@@Z@4HA 000000018002b810 f   BerconTile.obj
 0001:0002a820       ?dtor$0@?0???_D?$basic_stringstream@_WU?$char_traits@_W@std@@V?$allocator@_W@2@@std@@QEAAXXZ@4HA 000000018002b820 f   tile.obj
 0001:0002a820       ?dtor$0@?0???_G?$basic_stringstream@_WU?$char_traits@_W@std@@V?$allocator@_W@2@@std@@UEAAPEAXI@Z@4HA 000000018002b820 f   tile.obj
 0001:0002a830       ?catch$0@?0??_Reallocate@?$vector@MV?$allocator@M@std@@@std@@IEAAX_K@Z@4HA 000000018002b830 f   tile.obj
 0001:0002a83d       __catch$?_Reallocate@?$vector@MV?$allocator@M@std@@@std@@IEAAX_K@Z$0 000000018002b83d f   tile.obj
 0001:0002a860       ?catch$0@?0??_Reallocate@?$vector@V?$basic_string@_WU?$char_traits@_W@std@@V?$allocator@_W@2@@std@@V?$allocator@V?$basic_string@_WU?$char_traits@_W@std@@V?$allocator@_W@2@@std@@@2@@std@@IEAAX_K@Z@4HA 000000018002b860 f   tile.obj
 0001:0002a86d       __catch$?_Reallocate@?$vector@V?$basic_string@_WU?$char_traits@_W@std@@V?$allocator@_W@2@@std@@V?$allocator@V?$basic_string@_WU?$char_traits@_W@std@@V?$allocator@_W@2@@std@@@2@@std@@IEAAX_K@Z$0 000000018002b86d f   tile.obj
 0001:0002a890       ?catch$0@?0??_Reallocate@?$vector@VTileRow@@V?$allocator@VTileRow@@@std@@@std@@IEAAX_K@Z@4HA 000000018002b890 f   tile.obj
 0001:0002a89d       __catch$?_Reallocate@?$vector@VTileRow@@V?$allocator@VTileRow@@@std@@@std@@IEAAX_K@Z$0 000000018002b89d f   tile.obj
 0001:0002a8c0       ?dtor$0@?0??parsePattern@@YAHV?$basic_string@_WU?$char_traits@_W@std@@V?$allocator@_W@2@@std@@PEAVTilePattern@@@Z@4HA 000000018002b8c0 f   tile.obj
 0001:0002a8cc       ?dtor$1@?0??parsePattern@@YAHV?$basic_string@_WU?$char_traits@_W@std@@V?$allocator@_W@2@@std@@PEAVTilePattern@@@Z@4HA 000000018002b8cc f   tile.obj
 0001:0002a8d8       ?dtor$2@?0??parsePattern@@YAHV?$basic_string@_WU?$char_traits@_W@std@@V?$allocator@_W@2@@std@@PEAVTilePattern@@@Z@4HA 000000018002b8d8 f   tile.obj
 0001:0002a8e4       ?dtor$3@?0??parsePattern@@YAHV?$basic_string@_WU?$char_traits@_W@std@@V?$allocator@_W@2@@std@@PEAVTilePattern@@@Z@4HA 000000018002b8e4 f   tile.obj
 0001:0002a8f0       ?dtor$4@?0??parsePattern@@YAHV?$basic_string@_WU?$char_traits@_W@std@@V?$allocator@_W@2@@std@@PEAVTilePattern@@@Z@4HA 000000018002b8f0 f   tile.obj
 0001:0002a8fc       ?dtor$9@?0??parsePattern@@YAHV?$basic_string@_WU?$char_traits@_W@std@@V?$allocator@_W@2@@std@@PEAVTilePattern@@@Z@4HA 000000018002b8fc f   tile.obj
 0001:0002a92d       ?dtor$10@?0??parsePattern@@YAHV?$basic_string@_WU?$char_traits@_W@std@@V?$allocator@_W@2@@std@@PEAVTilePattern@@@Z@4HA 000000018002b92d f   tile.obj
 0001:0002a93f       ?dtor$12@?0??parsePattern@@YAHV?$basic_string@_WU?$char_traits@_W@std@@V?$allocator@_W@2@@std@@PEAVTilePattern@@@Z@4HA 000000018002b93f f   tile.obj
 0001:0002a94d       ?dtor$11@?0??parsePattern@@YAHV?$basic_string@_WU?$char_traits@_W@std@@V?$allocator@_W@2@@std@@PEAVTilePattern@@@Z@4HA 000000018002b94d f   tile.obj
 0001:0002a95d       ?dtor$5@?0??parsePattern@@YAHV?$basic_string@_WU?$char_traits@_W@std@@V?$allocator@_W@2@@std@@PEAVTilePattern@@@Z@4HA 000000018002b95d f   tile.obj
 0001:0002a969       ?dtor$13@?0??parsePattern@@YAHV?$basic_string@_WU?$char_traits@_W@std@@V?$allocator@_W@2@@std@@PEAVTilePattern@@@Z@4HA 000000018002b969 f   tile.obj
 0001:0002a99a       ?dtor$14@?0??parsePattern@@YAHV?$basic_string@_WU?$char_traits@_W@std@@V?$allocator@_W@2@@std@@PEAVTilePattern@@@Z@4HA 000000018002b99a f   tile.obj
 0001:0002a9ac       ?dtor$16@?0??parsePattern@@YAHV?$basic_string@_WU?$char_traits@_W@std@@V?$allocator@_W@2@@std@@PEAVTilePattern@@@Z@4HA 000000018002b9ac f   tile.obj
 0001:0002a9ba       ?dtor$15@?0??parsePattern@@YAHV?$basic_string@_WU?$char_traits@_W@std@@V?$allocator@_W@2@@std@@PEAVTilePattern@@@Z@4HA 000000018002b9ba f   tile.obj
 0001:0002a9ca       ?dtor$6@?0??parsePattern@@YAHV?$basic_string@_WU?$char_traits@_W@std@@V?$allocator@_W@2@@std@@PEAVTilePattern@@@Z@4HA 000000018002b9ca f   tile.obj
 0001:0002a9d6       ?dtor$17@?0??parsePattern@@YAHV?$basic_string@_WU?$char_traits@_W@std@@V?$allocator@_W@2@@std@@PEAVTilePattern@@@Z@4HA 000000018002b9d6 f   tile.obj
 0001:0002a9e6       ?dtor$7@?0??parsePattern@@YAHV?$basic_string@_WU?$char_traits@_W@std@@V?$allocator@_W@2@@std@@PEAVTilePattern@@@Z@4HA 000000018002b9e6 f   tile.obj
 0001:0002a9f2       ?dtor$18@?0??parsePattern@@YAHV?$basic_string@_WU?$char_traits@_W@std@@V?$allocator@_W@2@@std@@PEAVTilePattern@@@Z@4HA 000000018002b9f2 f   tile.obj
 0001:0002aa23       ?dtor$19@?0??parsePattern@@YAHV?$basic_string@_WU?$char_traits@_W@std@@V?$allocator@_W@2@@std@@PEAVTilePattern@@@Z@4HA 000000018002ba23 f   tile.obj
 0001:0002aa35       ?dtor$21@?0??parsePattern@@YAHV?$basic_string@_WU?$char_traits@_W@std@@V?$allocator@_W@2@@std@@PEAVTilePattern@@@Z@4HA 000000018002ba35 f   tile.obj
 0001:0002aa43       ?dtor$20@?0??parsePattern@@YAHV?$basic_string@_WU?$char_traits@_W@std@@V?$allocator@_W@2@@std@@PEAVTilePattern@@@Z@4HA 000000018002ba43 f   tile.obj
 0001:0002aa53       ?dtor$8@?0??parsePattern@@YAHV?$basic_string@_WU?$char_traits@_W@std@@V?$allocator@_W@2@@std@@PEAVTilePattern@@@Z@4HA 000000018002ba53 f   tile.obj
 0001:0002aa5f       ?dtor$22@?0??parsePattern@@YAHV?$basic_string@_WU?$char_traits@_W@std@@V?$allocator@_W@2@@std@@PEAVTilePattern@@@Z@4HA 000000018002ba5f f   tile.obj
 0001:0002aa78       ?dtor$23@?0??parsePattern@@YAHV?$basic_string@_WU?$char_traits@_W@std@@V?$allocator@_W@2@@std@@PEAVTilePattern@@@Z@4HA 000000018002ba78 f   tile.obj
 0001:0002aa8f       ?dtor$24@?0??parsePattern@@YAHV?$basic_string@_WU?$char_traits@_W@std@@V?$allocator@_W@2@@std@@PEAVTilePattern@@@Z@4HA 000000018002ba8f f   tile.obj
 0001:0002aa9d       ?dtor$25@?0??parsePattern@@YAHV?$basic_string@_WU?$char_traits@_W@std@@V?$allocator@_W@2@@std@@PEAVTilePattern@@@Z@4HA 000000018002ba9d f   tile.obj
 0001:0002aaab       ?dtor$26@?0??parsePattern@@YAHV?$basic_string@_WU?$char_traits@_W@std@@V?$allocator@_W@2@@std@@PEAVTilePattern@@@Z@4HA 000000018002baab f   tile.obj
 0001:0002aacd       ?dtor$27@?0??parsePattern@@YAHV?$basic_string@_WU?$char_traits@_W@std@@V?$allocator@_W@2@@std@@PEAVTilePattern@@@Z@4HA 000000018002bacd f   tile.obj
 0001:0002aadd       ?dtor$28@?0??parsePattern@@YAHV?$basic_string@_WU?$char_traits@_W@std@@V?$allocator@_W@2@@std@@PEAVTilePattern@@@Z@4HA 000000018002badd f   tile.obj
 0001:0002aaff       ?dtor$29@?0??parsePattern@@YAHV?$basic_string@_WU?$char_traits@_W@std@@V?$allocator@_W@2@@std@@PEAVTilePattern@@@Z@4HA 000000018002baff f   tile.obj
 0001:0002ab0f       ?dtor$30@?0??parsePattern@@YAHV?$basic_string@_WU?$char_traits@_W@std@@V?$allocator@_W@2@@std@@PEAVTilePattern@@@Z@4HA 000000018002bb0f f   tile.obj
 0001:0002ab1f       ?dtor$31@?0??parsePattern@@YAHV?$basic_string@_WU?$char_traits@_W@std@@V?$allocator@_W@2@@std@@PEAVTilePattern@@@Z@4HA 000000018002bb1f f   tile.obj
 0001:0002ab2d       ?dtor$32@?0??parsePattern@@YAHV?$basic_string@_WU?$char_traits@_W@std@@V?$allocator@_W@2@@std@@PEAVTilePattern@@@Z@4HA 000000018002bb2d f   tile.obj
 0001:0002ab40       ?dtor$0@?0??setPattern@TilePattern@@QEAAXV?$basic_string@_WU?$char_traits@_W@std@@V?$allocator@_W@2@@std@@@Z@4HA 000000018002bb40 f   tile.obj
 0001:0002ab4c       ?dtor$1@?0??setPattern@TilePattern@@QEAAXV?$basic_string@_WU?$char_traits@_W@std@@V?$allocator@_W@2@@std@@@Z@4HA 000000018002bb4c f   tile.obj
 0001:0002ab60       ?dtor$0@?0??setPreset@TilePattern@@QEAAXH@Z@4HA 000000018002bb60 f   tile.obj
 0001:0002ab6c       ?dtor$1@?0??setPreset@TilePattern@@QEAAXH@Z@4HA 000000018002bb6c f   tile.obj
 0001:0002ab78       ?dtor$2@?0??setPreset@TilePattern@@QEAAXH@Z@4HA 000000018002bb78 f   tile.obj
 0001:0002ab84       ?dtor$3@?0??setPreset@TilePattern@@QEAAXH@Z@4HA 000000018002bb84 f   tile.obj
 0001:0002ab90       ?dtor$4@?0??setPreset@TilePattern@@QEAAXH@Z@4HA 000000018002bb90 f   tile.obj
 0001:0002ab9c       ?dtor$5@?0??setPreset@TilePattern@@QEAAXH@Z@4HA 000000018002bb9c f   tile.obj
 0001:0002aba8       ?dtor$6@?0??setPreset@TilePattern@@QEAAXH@Z@4HA 000000018002bba8 f   tile.obj
 0001:0002abb4       ?dtor$7@?0??setPreset@TilePattern@@QEAAXH@Z@4HA 000000018002bbb4 f   tile.obj
 0001:0002abc0       ?dtor$8@?0??setPreset@TilePattern@@QEAAXH@Z@4HA 000000018002bbc0 f   tile.obj
 0001:0002abcc       ?dtor$9@?0??setPreset@TilePattern@@QEAAXH@Z@4HA 000000018002bbcc f   tile.obj
 0001:0002abe0       ?dtor$0@?0??substr@?$basic_string@_WU?$char_traits@_W@std@@V?$allocator@_W@2@@std@@QEBA?AV12@_K0@Z@4HA 000000018002bbe0 f   tile.obj
 0001:0002ac10       ?dtor$0@?0??tokenize@@YAXAEBV?$basic_string@_WU?$char_traits@_W@std@@V?$allocator@_W@2@@std@@AEAV?$vector@V?$basic_string@_WU?$char_traits@_W@std@@V?$allocator@_W@2@@std@@V?$allocator@V?$basic_string@_WU?$char_traits@_W@std@@V?$allocator@_W@2@@std@@@2@@2@0@Z@4HA 000000018002bc10 f   tile.obj
 0001:0002ac1c       __scrt_is_nonwritable_in_current_image$filt$0 000000018002bc1c f   MSVCRT:utility.obj
 0001:0002ac34       ?fin$0@?0??dllmain_crt_process_attach@@YAHQEAUHINSTANCE__@@QEAX@Z@4HA 000000018002bc34 f   MSVCRT:dll_dllmain.obj
 0001:0002ac4b       ?fin$0@?0??dllmain_crt_process_detach@@YAH_N@Z@4HA 000000018002bc4b f   MSVCRT:dll_dllmain.obj
 0001:0002ac67       ?filt$0@?0??dllmain_dispatch@@YAHQEAUHINSTANCE__@@KQEAX@Z@4HA 000000018002bc67 f   MSVCRT:dll_dllmain.obj
 0001:0002aca0       ??__FBerconDistortionDesc@@YAXXZ 000000018002bca0 f   BerconDistortion.obj
 0001:0002acd0       ??__FBerconDistortion_param_blk@@YAXXZ 000000018002bcd0 f   BerconDistortion.obj
 0001:0002ace0       ??__Fxyz_blk@@YAXXZ        000000018002bce0 f   BerconDistortion.obj
 0001:0002ad00       ??__FBerconGradientDesc@@YAXXZ 000000018002bd00 f   BerconGradient.obj
 0001:0002ad20       ??__Fgradientmap_param_blk@@YAXXZ 000000018002bd20 f   BerconGradient.obj
 0001:0002ad30       ??__Fxyz_blk@@YAXXZ        000000018002bd30 f   BerconGradient.obj
 0001:0002ad50       ??__FBerconMap_param_blk@@YAXXZ 000000018002bd50 f   BerconTile.obj
 0001:0002ad60       ??__FBerconTileDesc@@YAXXZ 000000018002bd60 f   BerconTile.obj
 0001:0002ad90       ??__FBerconTile_param_blk@@YAXXZ 000000018002bd90 f   BerconTile.obj
 0001:0002ada0       ??__Fxyz_blk@@YAXXZ        000000018002bda0 f   BerconTile.obj
 0001:0002adc0       ??__FBerconMap_param_blk@@YAXXZ 000000018002bdc0 f   BerconWood.obj
 0001:0002add0       ??__FBerconWoodDesc@@YAXXZ 000000018002bdd0 f   BerconWood.obj
 0001:0002adf0       ??__FBerconWood_param_blk@@YAXXZ 000000018002bdf0 f   BerconWood.obj
 0001:0002ae00       ??__Fxyz_blk@@YAXXZ        000000018002be00 f   BerconWood.obj
 0001:0002ae20       ??__FBerconMap_param_blk@@YAXXZ 000000018002be20 f   BerconNoise.obj
 0001:0002ae30       ??__FBerconNoiseDesc@@YAXXZ 000000018002be30 f   BerconNoise.obj
 0001:0002ae50       ??__Fberconnoise_param_blk@@YAXXZ 000000018002be50 f   BerconNoise.obj
 0001:0002ae60       ??__Fxyz_blk@@YAXXZ        000000018002be60 f   BerconNoise.obj
 0002:000008c8       ?kInvalidId$initializer$@AssetManagement@MaxSDK@@3P6AXXZEA 000000018002c8c8     BerconDistortion.obj
 0002:000008d0       ?BerconDistortionDesc$initializer$@@3P6AXXZEA 000000018002c8d0     BerconDistortion.obj
 0002:000008d8       ?xyz_blk$initializer$@@3P6AXXZEA 000000018002c8d8     BerconDistortion.obj
 0002:000008e0       ?BerconDistortion_param_blk$initializer$@@3P6AXXZEA 000000018002c8e0     BerconDistortion.obj
 0002:000008e8       ?kInvalidId$initializer$@AssetManagement@MaxSDK@@3P6AXXZEA 000000018002c8e8     BerconGradient.obj
 0002:000008f0       ?BerconGradientDesc$initializer$@@3P6AXXZEA 000000018002c8f0     BerconGradient.obj
 0002:000008f8       ?xyz_blk$initializer$@@3P6AXXZEA 000000018002c8f8     BerconGradient.obj
 0002:00000900       ?gradientmap_param_blk$initializer$@@3P6AXXZEA 000000018002c900     BerconGradient.obj
 0002:00000908       ?kInvalidId$initializer$@AssetManagement@MaxSDK@@3P6AXXZEA 000000018002c908     BerconTile.obj
 0002:00000910       ?BerconTileDesc$initializer$@@3P6AXXZEA 000000018002c910     BerconTile.obj
 0002:00000918       ?xyz_blk$initializer$@@3P6AXXZEA 000000018002c918     BerconTile.obj
 0002:00000920       ?BerconTile_param_blk$initializer$@@3P6AXXZEA 000000018002c920     BerconTile.obj
 0002:00000928       ?BerconMap_param_blk$initializer$@@3P6AXXZEA 000000018002c928     BerconTile.obj
 0002:00000930       ?kInvalidId$initializer$@AssetManagement@MaxSDK@@3P6AXXZEA 000000018002c930     BerconWood.obj
 0002:00000938       ?BerconWoodDesc$initializer$@@3P6AXXZEA 000000018002c938     BerconWood.obj
 0002:00000940       ?xyz_blk$initializer$@@3P6AXXZEA 000000018002c940     BerconWood.obj
 0002:00000948       ?BerconWood_param_blk$initializer$@@3P6AXXZEA 000000018002c948     BerconWood.obj
 0002:00000950       ?BerconMap_param_blk$initializer$@@3P6AXXZEA 000000018002c950     BerconWood.obj
 0002:00000958       ?kInvalidId$initializer$@AssetManagement@MaxSDK@@3P6AXXZEA 000000018002c958     DllEntry.obj
 0002:00000960       ?kInvalidId$initializer$@AssetManagement@MaxSDK@@3P6AXXZEA 000000018002c960     BerconCommon.obj
 0002:00000968       ?kInvalidId$initializer$@AssetManagement@MaxSDK@@3P6AXXZEA 000000018002c968     BerconNoise.obj
 0002:00000970       ?BerconNoiseDesc$initializer$@@3P6AXXZEA 000000018002c970     BerconNoise.obj
 0002:00000978       ?xyz_blk$initializer$@@3P6AXXZEA 000000018002c978     BerconNoise.obj
 0002:00000980       ?berconnoise_param_blk$initializer$@@3P6AXXZEA 000000018002c980     BerconNoise.obj
 0002:00000988       ?BerconMap_param_blk$initializer$@@3P6AXXZEA 000000018002c988     BerconNoise.obj
 0002:00000990       ?kInvalidId$initializer$@AssetManagement@MaxSDK@@3P6AXXZEA 000000018002c990     fractal.obj
 0002:00000998       ?kInvalidId$initializer$@AssetManagement@MaxSDK@@3P6AXXZEA 000000018002c998     GradientRamp.obj
 0002:000009a0       ?kInvalidId$initializer$@AssetManagement@MaxSDK@@3P6AXXZEA 000000018002c9a0     IGradient.obj
 0002:000009a8       ?kInvalidId$initializer$@AssetManagement@MaxSDK@@3P6AXXZEA 000000018002c9a8     noise.obj
 0002:000009b0       ?kInvalidId$initializer$@AssetManagement@MaxSDK@@3P6AXXZEA 000000018002c9b0     tile.obj
 0002:000009b8       ?kInvalidId$initializer$@AssetManagement@MaxSDK@@3P6AXXZEA 000000018002c9b8     commonMath.obj
 0002:00001150       $cppxdata$??1TabOutOfRangeException@Util@MaxSDK@@UEAA@XZ 000000018002d150     BerconDistortion.obj
 0002:00001178       $cppxdata$??0TabOutOfRangeException@Util@MaxSDK@@QEAA@AEBV012@@Z 000000018002d178     BerconDistortion.obj
 0002:000011a0       $cppxdata$??_GTabOutOfRangeException@Util@MaxSDK@@UEAAPEAXI@Z 000000018002d1a0     BerconDistortion.obj
 0002:000011c8       $cppxdata$??1?$Tab@PEAVBaseInterface@@@@QEAA@XZ 000000018002d1c8     BerconDistortion.obj
 0002:000011f0       $cppxdata$??A?$Tab@PEAVFPInterface@@@@QEBAAEAPEAVFPInterface@@_J@Z 000000018002d1f0     BerconDistortion.obj
 0002:00001218       $cppxdata$??1ShadeOutput@@UEAA@XZ 000000018002d218     BerconDistortion.obj
 0002:00001240       $cppxdata$??_GShadeOutput@@UEAAPEAXI@Z 000000018002d240     BerconDistortion.obj
 0002:00001268       $cppxdata$??1RenderGlobalContext@@UEAA@XZ 000000018002d268     BerconDistortion.obj
 0002:00001290       $cppxdata$??_GRenderGlobalContext@@UEAAPEAXI@Z 000000018002d290     BerconDistortion.obj
 0002:000012b8       $cppxdata$??1ShadeContext@@UEAA@XZ 000000018002d2b8     BerconDistortion.obj
 0002:000012e0       $cppxdata$??_GShadeContext@@UEAAPEAXI@Z 000000018002d2e0     BerconDistortion.obj
 0002:00001308       $cppxdata$??1Texmap@@UEAA@XZ 000000018002d308     BerconDistortion.obj
 0002:00001330       $cppxdata$??1?$Tab@PEAVVertexNormalsCallback@@@@QEAA@XZ 000000018002d330     BerconDistortion.obj
 0002:00001358       $cppxdata$??0VertexNormalsControl@@QEAA@XZ 000000018002d358     BerconDistortion.obj
 0002:00001380       $cppxdata$??0XYZ_Desc@@QEAA@PEAVClassDesc2@@HHHHHHH@Z 000000018002d380     BerconDistortion.obj
 0002:000013a8       $cppxdata$??_GXYZ_Desc@@UEAAPEAXI@Z 000000018002d3a8     BerconDistortion.obj
 0002:000013d0       $cppxdata$?DeleteThis@BerconXYZDlgProc@@UEAAXXZ 000000018002d3d0     BerconDistortion.obj
 0002:000013f8       $cppxdata$??_GBerconXYZDlgProc@@UEAAPEAXI@Z 000000018002d3f8     BerconDistortion.obj
 0002:00001420       $cppxdata$??0BerconSC@@QEAA@QEAVShadeContext@@@Z 000000018002d420     BerconDistortion.obj
 0002:00001448       $cppxdata$??1BerconSC@@UEAA@XZ 000000018002d448     BerconDistortion.obj
 0002:00001470       $cppxdata$??_GBerconSC@@UEAAPEAXI@Z 000000018002d470     BerconDistortion.obj
 0002:00001498       $cppxdata$?CreateParamDlg@BerconDistortion@@UEAAPEAVParamDlg@@PEAUHWND__@@PEAVIMtlParams@@@Z 000000018002d498     BerconDistortion.obj
 0002:000014c0       $cppxdata$?GetSubTexmapSlotName@BerconDistortion@@UEAA?AVWStr@@H@Z 000000018002d4c0     BerconDistortion.obj
 0002:000014e8       $cppxdata$?EvalColor@BerconDistortion@@UEAA?AVAColor@@AEAVShadeContext@@@Z 000000018002d4e8     BerconDistortion.obj
 0002:00001510       $cppxdata$?EvalMono@BerconDistortion@@UEAAMAEAVShadeContext@@@Z 000000018002d510     BerconDistortion.obj
 0002:00001538       $cppxdata$?EvalNormalPerturb@BerconDistortion@@UEAA?AVPoint3@@AEAVShadeContext@@@Z 000000018002d538     BerconDistortion.obj
 0002:00001560       $cppxdata$?Clone@BerconDistortion@@UEAAPEAVReferenceTarget@@AEAVRemapDir@@@Z 000000018002d560     BerconDistortion.obj
 0002:00001588       $cppxdata$?SubAnimName@BerconDistortion@@UEAA?AVWStr@@H@Z 000000018002d588     BerconDistortion.obj
 0002:000015b0       $cppxdata$??0BerconDistortion@@QEAA@XZ 000000018002d5b0     BerconDistortion.obj
 0002:000015d8       $cppxdata$??_GBerconDistortion@@UEAAPEAXI@Z 000000018002d5d8     BerconDistortion.obj
 0002:00001600       $cppxdata$?Create@BerconDistortionClassDesc@@UEAAPEAXH@Z 000000018002d600     BerconDistortion.obj
 0002:00001628       $cppxdata$??_GBerconDistortionClassDesc@@UEAAPEAXI@Z 000000018002d628     BerconDistortion.obj
 0002:00001650       $cppxdata$??__EBerconDistortionDesc@@YAXXZ 000000018002d650     BerconDistortion.obj
 0002:00001678       $cppxdata$??__FBerconDistortionDesc@@YAXXZ 000000018002d678     BerconDistortion.obj
 0002:000016a0       $cppxdata$??__Fxyz_blk@@YAXXZ 000000018002d6a0     BerconDistortion.obj
 0002:00002a98       $cppxdata$??1ICustomControl@@UEAA@XZ 000000018002ea98     BerconGradient.obj
 0002:00002ac0       $cppxdata$??_GICustomControl@@UEAAPEAXI@Z 000000018002eac0     BerconGradient.obj
 0002:00002ae8       $cppxdata$??0IGradient@@QEAA@PEAUHWND__@@PEAVGradientRamp@@@Z 000000018002eae8     BerconGradient.obj
 0002:00002b10       $cppxdata$??_GIGradient@@UEAAPEAXI@Z 000000018002eb10     BerconGradient.obj
 0002:00002b38       $cppxdata$?CreateParamDlg@BerconGradient@@UEAAPEAVParamDlg@@PEAUHWND__@@PEAVIMtlParams@@@Z 000000018002eb38     BerconGradient.obj
 0002:00002b60       $cppxdata$?GetSubTexmapSlotName@BerconGradient@@UEAA?AVWStr@@H@Z 000000018002eb60     BerconGradient.obj
 0002:00002b88       $cppxdata$?Clone@BerconGradient@@UEAAPEAVReferenceTarget@@AEAVRemapDir@@@Z 000000018002eb88     BerconGradient.obj
 0002:00002bb0       $cppxdata$?SubAnimName@BerconGradient@@UEAA?AVWStr@@H@Z 000000018002ebb0     BerconGradient.obj
 0002:00002bd8       $cppxdata$??0BerconGradient@@QEAA@XZ 000000018002ebd8     BerconGradient.obj
 0002:00002c00       $cppxdata$??1BerconGradient@@UEAA@XZ 000000018002ec00     BerconGradient.obj
 0002:00002c28       $cppxdata$?Create@BerconGradientClassDesc@@UEAAPEAXH@Z 000000018002ec28     BerconGradient.obj
 0002:00002c50       $cppxdata$??_GBerconGradientClassDesc@@UEAAPEAXI@Z 000000018002ec50     BerconGradient.obj
 0002:00002c78       $cppxdata$??__EBerconGradientDesc@@YAXXZ 000000018002ec78     BerconGradient.obj
 0002:00002ca0       $cppxdata$??__FBerconGradientDesc@@YAXXZ 000000018002eca0     BerconGradient.obj
 0002:00002cc8       $cppxdata$??__Fxyz_blk@@YAXXZ 000000018002ecc8     BerconGradient.obj
 0002:00002cf0       $cppxdata$?DlgProc@BerconGradientDlgProc@@UEAA_JHPEAVIParamMap2@@PEAUHWND__@@I_K_J@Z 000000018002ecf0     BerconGradient.obj
 0002:00002d18       $cppxdata$??_GBerconGradientDlgProc@@UEAAPEAXI@Z 000000018002ed18     BerconGradient.obj
 0002:00003b48       $cppxdata$??1?$basic_string@_WU?$char_traits@_W@std@@V?$allocator@_W@2@@std@@QEAA@XZ 000000018002fb48     BerconTile.obj
 0002:00003b70       $cppxdata$?_Copy@?$basic_string@_WU?$char_traits@_W@std@@V?$allocator@_W@2@@std@@QEAAX_K0@Z 000000018002fb70     BerconTile.obj
 0002:00003b98       $cppxdata$??1?$vector@MV?$allocator@M@std@@@std@@QEAA@XZ 000000018002fb98     BerconTile.obj
 0002:00003bc0       $cppxdata$??1TilePattern@@QEAA@XZ 000000018002fbc0     BerconTile.obj
 0002:00003be8       $cppxdata$??1?$vector@VTileRow@@V?$allocator@VTileRow@@@std@@@std@@QEAA@XZ 000000018002fbe8     BerconTile.obj
 0002:00003c10       $cppxdata$?CreateParamDlg@BerconTile@@UEAAPEAVParamDlg@@PEAUHWND__@@PEAVIMtlParams@@@Z 000000018002fc10     BerconTile.obj
 0002:00003c38       $cppxdata$?Update@BerconTile@@UEAAXHAEAVInterval@@@Z 000000018002fc38     BerconTile.obj
 0002:00003c60       $cppxdata$?GetSubTexmapSlotName@BerconTile@@UEAA?AVWStr@@H@Z 000000018002fc60     BerconTile.obj
 0002:00003c88       $cppxdata$?EvalColor@BerconTile@@UEAA?AVAColor@@AEAVShadeContext@@@Z 000000018002fc88     BerconTile.obj
 0002:00003cb0       $cppxdata$?EvalNormalPerturb@BerconTile@@UEAA?AVPoint3@@AEAVShadeContext@@@Z 000000018002fcb0     BerconTile.obj
 0002:00003cd8       $cppxdata$?Clone@BerconTile@@UEAAPEAVReferenceTarget@@AEAVRemapDir@@@Z 000000018002fcd8     BerconTile.obj
 0002:00003d00       $cppxdata$?SubAnimName@BerconTile@@UEAA?AVWStr@@H@Z 000000018002fd00     BerconTile.obj
 0002:00003d28       $cppxdata$??0BerconTile@@QEAA@XZ 000000018002fd28     BerconTile.obj
 0002:00003d50       $cppxdata$??1BerconTile@@UEAA@XZ 000000018002fd50     BerconTile.obj
 0002:00003d78       $cppxdata$?Create@BerconTileClassDesc@@UEAAPEAXH@Z 000000018002fd78     BerconTile.obj
 0002:00003da0       $cppxdata$??_GBerconTileClassDesc@@UEAAPEAXI@Z 000000018002fda0     BerconTile.obj
 0002:00003dc8       $cppxdata$??__EBerconTileDesc@@YAXXZ 000000018002fdc8     BerconTile.obj
 0002:00003df0       $cppxdata$??__FBerconTileDesc@@YAXXZ 000000018002fdf0     BerconTile.obj
 0002:00003e18       $cppxdata$??__Fxyz_blk@@YAXXZ 000000018002fe18     BerconTile.obj
 0002:00003e40       $cppxdata$??_GBerconTileDlgProc@@UEAAPEAXI@Z 000000018002fe40     BerconTile.obj
 0002:00003e68       $cppxdata$??$_Destroy_range1@V?$allocator@VTileRow@@@std@@PEAVTileRow@@@std@@YAXPEAVTileRow@@0AEAU?$_Wrap_alloc@V?$allocator@VTileRow@@@std@@@0@U?$integral_constant@_N$0A@@0@@Z 000000018002fe68     BerconTile.obj
 0002:00004c78       $cppxdata$?CreateParamDlg@BerconWood@@UEAAPEAVParamDlg@@PEAUHWND__@@PEAVIMtlParams@@@Z 0000000180030c78     BerconWood.obj
 0002:00004ca0       $cppxdata$?GetSubTexmapSlotName@BerconWood@@UEAA?AVWStr@@H@Z 0000000180030ca0     BerconWood.obj
 0002:00004cc8       $cppxdata$?Clone@BerconWood@@UEAAPEAVReferenceTarget@@AEAVRemapDir@@@Z 0000000180030cc8     BerconWood.obj
 0002:00004cf0       $cppxdata$?SubAnimName@BerconWood@@UEAA?AVWStr@@H@Z 0000000180030cf0     BerconWood.obj
 0002:00004d18       $cppxdata$??0BerconWood@@QEAA@XZ 0000000180030d18     BerconWood.obj
 0002:00004d40       $cppxdata$??1BerconWood@@UEAA@XZ 0000000180030d40     BerconWood.obj
 0002:00004d68       $cppxdata$?Create@BerconWoodClassDesc@@UEAAPEAXH@Z 0000000180030d68     BerconWood.obj
 0002:00004d90       $cppxdata$??_GBerconWoodClassDesc@@UEAAPEAXI@Z 0000000180030d90     BerconWood.obj
 0002:00004db8       $cppxdata$??__EBerconWoodDesc@@YAXXZ 0000000180030db8     BerconWood.obj
 0002:00004de0       $cppxdata$??__FBerconWoodDesc@@YAXXZ 0000000180030de0     BerconWood.obj
 0002:00004e08       $cppxdata$??__Fxyz_blk@@YAXXZ 0000000180030e08     BerconWood.obj
 0002:00004e30       $cppxdata$??_GBerconWoodDlgProc@@UEAAPEAXI@Z 0000000180030e30     BerconWood.obj
 0002:00005a70       $cppxdata$?CreateParamDlg@BerconNoise@@UEAAPEAVParamDlg@@PEAUHWND__@@PEAVIMtlParams@@@Z 0000000180031a70     BerconNoise.obj
 0002:00005a98       $cppxdata$?GetSubTexmapSlotName@BerconNoise@@UEAA?AVWStr@@H@Z 0000000180031a98     BerconNoise.obj
 0002:00005ac0       $cppxdata$?Clone@BerconNoise@@UEAAPEAVReferenceTarget@@AEAVRemapDir@@@Z 0000000180031ac0     BerconNoise.obj
 0002:00005ae8       $cppxdata$?SubAnimName@BerconNoise@@UEAA?AVWStr@@H@Z 0000000180031ae8     BerconNoise.obj
 0002:00005b10       $cppxdata$??0BerconNoise@@QEAA@XZ 0000000180031b10     BerconNoise.obj
 0002:00005b38       $cppxdata$??1BerconNoise@@UEAA@XZ 0000000180031b38     BerconNoise.obj
 0002:00005b60       $cppxdata$?Create@BerconNoiseClassDesc@@UEAAPEAXH@Z 0000000180031b60     BerconNoise.obj
 0002:00005b88       $cppxdata$??_GBerconNoiseClassDesc@@UEAAPEAXI@Z 0000000180031b88     BerconNoise.obj
 0002:00005bb0       $cppxdata$??__EBerconNoiseDesc@@YAXXZ 0000000180031bb0     BerconNoise.obj
 0002:00005bd8       $cppxdata$??__FBerconNoiseDesc@@YAXXZ 0000000180031bd8     BerconNoise.obj
 0002:00005c00       $cppxdata$??__Fxyz_blk@@YAXXZ 0000000180031c00     BerconNoise.obj
 0002:00005c28       $cppxdata$??_GBerconNoiseDlgProc@@UEAAPEAXI@Z 0000000180031c28     BerconNoise.obj
 0002:00006448       $cppxdata$?addKey@GradientRamp@@QEAAXHMVAColor@@PEAVTexmap@@@Z 0000000180032448     GradientRamp.obj
 0002:00006510       $cppxdata$?substr@?$basic_string@_WU?$char_traits@_W@std@@V?$allocator@_W@2@@std@@QEBA?AV12@_K0@Z 0000000180032510     tile.obj
 0002:00006538       $cppxdata$??0?$vector@MV?$allocator@M@std@@@std@@QEAA@AEBV01@@Z 0000000180032538     tile.obj
 0002:00006560       $cppxdata$?_Reallocate@?$vector@MV?$allocator@M@std@@@std@@IEAAX_K@Z 0000000180032560     tile.obj
 0002:00006588       $cppxdata$??1TileRow@@QEAA@XZ 0000000180032588     tile.obj
 0002:000065b0       $cppxdata$?_Reallocate@?$vector@VTileRow@@V?$allocator@VTileRow@@@std@@@std@@IEAAX_K@Z 00000001800325b0     tile.obj
 0002:000065d8       $cppxdata$?setPattern@TilePattern@@QEAAXV?$basic_string@_WU?$char_traits@_W@std@@V?$allocator@_W@2@@std@@@Z 00000001800325d8     tile.obj
 0002:00006600       $cppxdata$?setPreset@TilePattern@@QEAAXH@Z 0000000180032600     tile.obj
 0002:00006628       $cppxdata$?tokenize@@YAXAEBV?$basic_string@_WU?$char_traits@_W@std@@V?$allocator@_W@2@@std@@AEAV?$vector@V?$basic_string@_WU?$char_traits@_W@std@@V?$allocator@_W@2@@std@@V?$allocator@V?$basic_string@_WU?$char_traits@_W@std@@V?$allocator@_W@2@@std@@@2@@2@0@Z 0000000180032628     tile.obj
 0002:00006650       $cppxdata$??1?$vector@V?$basic_string@_WU?$char_traits@_W@std@@V?$allocator@_W@2@@std@@V?$allocator@V?$basic_string@_WU?$char_traits@_W@std@@V?$allocator@_W@2@@std@@@2@@std@@QEAA@XZ 0000000180032650     tile.obj
 0002:00006678       $cppxdata$?_Reallocate@?$vector@V?$basic_string@_WU?$char_traits@_W@std@@V?$allocator@_W@2@@std@@V?$allocator@V?$basic_string@_WU?$char_traits@_W@std@@V?$allocator@_W@2@@std@@@2@@std@@IEAAX_K@Z 0000000180032678     tile.obj
 0002:000066a0       $cppxdata$?parsePattern@@YAHV?$basic_string@_WU?$char_traits@_W@std@@V?$allocator@_W@2@@std@@PEAVTilePattern@@@Z 00000001800326a0     tile.obj
 0002:000066c8       $cppxdata$??1?$basic_stringstream@_WU?$char_traits@_W@std@@V?$allocator@_W@2@@std@@UEAA@XZ 00000001800326c8     tile.obj
 0002:000066f0       $cppxdata$??1?$basic_stringbuf@_WU?$char_traits@_W@std@@V?$allocator@_W@2@@std@@UEAA@XZ 00000001800326f0     tile.obj
 0002:00006718       $cppxdata$??_G?$basic_stringbuf@_WU?$char_traits@_W@std@@V?$allocator@_W@2@@std@@UEAAPEAXI@Z 0000000180032718     tile.obj
 0002:00006740       $cppxdata$??_G?$basic_stringstream@_WU?$char_traits@_W@std@@V?$allocator@_W@2@@std@@UEAAPEAXI@Z 0000000180032740     tile.obj
 0002:00006768       $cppxdata$??_D?$basic_stringstream@_WU?$char_traits@_W@std@@V?$allocator@_W@2@@std@@QEAAXXZ 0000000180032768     tile.obj
 0002:00006790       $cppxdata$??$_Uninitialized_move_al_unchecked1@PEAV?$basic_string@_WU?$char_traits@_W@std@@V?$allocator@_W@2@@std@@PEAV12@V?$allocator@V?$basic_string@_WU?$char_traits@_W@std@@V?$allocator@_W@2@@std@@@2@@std@@YAPEAV?$basic_string@_WU?$char_traits@_W@std@@V?$allocator@_W@2@@0@PEAV10@00AEAU?$_Wrap_alloc@V?$allocator@V?$basic_string@_WU?$char_traits@_W@std@@V?$allocator@_W@2@@std@@@std@@@0@U_General_ptr_iterator_tag@0@U_Any_tag@0@@Z 0000000180032790     tile.obj
 0002:000067b8       $cppxdata$??$_Uninitialized_move_al_unchecked1@PEAVTileRow@@PEAV1@V?$allocator@VTileRow@@@std@@@std@@YAPEAVTileRow@@PEAV1@00AEAU?$_Wrap_alloc@V?$allocator@VTileRow@@@std@@@0@U_General_ptr_iterator_tag@0@U_Any_tag@0@@Z 00000001800327b8     tile.obj
 0002:00009210       $unwind$??1TabOutOfRangeException@Util@MaxSDK@@UEAA@XZ 0000000180035210     BerconDistortion.obj
 0002:00009220       $stateUnwindMap$??_GTabOutOfRangeException@Util@MaxSDK@@UEAAPEAXI@Z 0000000180035220     BerconDistortion.obj
 0002:00009220       $stateUnwindMap$??1TabOutOfRangeException@Util@MaxSDK@@UEAA@XZ 0000000180035220     BerconDistortion.obj
 0002:00009230       $ip2state$??1TabOutOfRangeException@Util@MaxSDK@@UEAA@XZ 0000000180035230     BerconDistortion.obj
 0002:00009238       $unwind$??0TabOutOfRangeException@Util@MaxSDK@@QEAA@AEBV012@@Z 0000000180035238     BerconDistortion.obj
 0002:00009248       $stateUnwindMap$??0TabOutOfRangeException@Util@MaxSDK@@QEAA@AEBV012@@Z 0000000180035248     BerconDistortion.obj
 0002:00009258       $ip2state$??0TabOutOfRangeException@Util@MaxSDK@@QEAA@AEBV012@@Z 0000000180035258     BerconDistortion.obj
 0002:00009278       $unwind$??_GTabOutOfRangeException@Util@MaxSDK@@UEAAPEAXI@Z 0000000180035278     BerconDistortion.obj
 0002:00009290       $ip2state$??_GTabOutOfRangeException@Util@MaxSDK@@UEAAPEAXI@Z 0000000180035290     BerconDistortion.obj
 0002:00009298       $unwind$??1?$Tab@PEAVBaseInterface@@@@QEAA@XZ 0000000180035298     BerconDistortion.obj
 0002:000092a8       $ip2state$??1?$Tab@PEAVBaseInterface@@@@QEAA@XZ 00000001800352a8     BerconDistortion.obj
 0002:000092b0       $unwind$?NotifyForeground@ReferenceTarget@@UEAAXH@Z 00000001800352b0     BerconDistortion.obj
 0002:000092bc       $unwind$??A?$Tab@PEAVFPInterface@@@@QEBAAEAPEAVFPInterface@@_J@Z 00000001800352bc     BerconDistortion.obj
 0002:000092d0       $stateUnwindMap$??A?$Tab@PEAVFPInterface@@@@QEBAAEAPEAVFPInterface@@_J@Z 00000001800352d0     BerconDistortion.obj
 0002:000092d8       $ip2state$??A?$Tab@PEAVFPInterface@@@@QEBAAEAPEAVFPInterface@@_J@Z 00000001800352d8     BerconDistortion.obj
 0002:000092f0       $unwind$??1ShadeOutput@@UEAA@XZ 00000001800352f0     BerconDistortion.obj
 0002:00009300       $stateUnwindMap$??_GShadeOutput@@UEAAPEAXI@Z 0000000180035300     BerconDistortion.obj
 0002:00009300       $stateUnwindMap$??1RenderGlobalContext@@UEAA@XZ 0000000180035300     BerconDistortion.obj
 0002:00009300       $stateUnwindMap$??_GRenderGlobalContext@@UEAAPEAXI@Z 0000000180035300     BerconDistortion.obj
 0002:00009300       $stateUnwindMap$??1ShadeOutput@@UEAA@XZ 0000000180035300     BerconDistortion.obj
 0002:00009308       $ip2state$??1ShadeOutput@@UEAA@XZ 0000000180035308     BerconDistortion.obj
 0002:00009310       $unwind$??_GShadeOutput@@UEAAPEAXI@Z 0000000180035310     BerconDistortion.obj
 0002:00009328       $ip2state$??_GShadeOutput@@UEAAPEAXI@Z 0000000180035328     BerconDistortion.obj
 0002:00009330       $unwind$??1RenderGlobalContext@@UEAA@XZ 0000000180035330     BerconDistortion.obj
 0002:00009340       $ip2state$??1RenderGlobalContext@@UEAA@XZ 0000000180035340     BerconDistortion.obj
 0002:00009348       $unwind$??_GRenderGlobalContext@@UEAAPEAXI@Z 0000000180035348     BerconDistortion.obj
 0002:00009360       $ip2state$??_GRenderGlobalContext@@UEAAPEAXI@Z 0000000180035360     BerconDistortion.obj
 0002:00009368       $unwind$?SetNormal@BerconSC@@UEAAXVPoint3@@@Z 0000000180035368     BerconDistortion.obj
 0002:00009368       $unwind$?EvalMono@BerconWood@@UEAAMAEAVShadeContext@@@Z 0000000180035368     BerconWood.obj
 0002:00009368       $unwind$?EvalMono@BerconGradient@@UEAAMAEAVShadeContext@@@Z 0000000180035368     BerconGradient.obj
 0002:00009368       $unwind$?GetInterface@MtlBase@@UEAAPEAVBaseInterface@@VInterface_ID@@@Z 0000000180035368     BerconDistortion.obj
 0002:00009368       $unwind$?RayDiam@ShadeContext@@UEAAMXZ 0000000180035368     BerconDistortion.obj
 0002:00009368       $unwind$?SetView@BerconSC@@UEAAXVPoint3@@@Z 0000000180035368     BerconDistortion.obj
 0002:00009368       $unwind$?noise@Noise@@SAMVPoint3@@AEAVNoiseParams@@@Z 0000000180035368     noise.obj
 0002:00009368       $unwind$?EvalMono@BerconNoise@@UEAAMAEAVShadeContext@@@Z 0000000180035368     BerconNoise.obj
 0002:00009368       $unwind$?EvalMono@BerconTile@@UEAAMAEAVShadeContext@@@Z 0000000180035368     BerconTile.obj
 0002:00009370       $unwind$??1ShadeContext@@UEAA@XZ 0000000180035370     BerconDistortion.obj
 0002:00009380       $stateUnwindMap$??1ShadeContext@@UEAA@XZ 0000000180035380     BerconDistortion.obj
 0002:00009398       $ip2state$??1ShadeContext@@UEAA@XZ 0000000180035398     BerconDistortion.obj
 0002:000093b0       $unwind$??_GShadeContext@@UEAAPEAXI@Z 00000001800353b0     BerconDistortion.obj
 0002:000093c4       $stateUnwindMap$??_GShadeContext@@UEAAPEAXI@Z 00000001800353c4     BerconDistortion.obj
 0002:000093e0       $ip2state$??_GShadeContext@@UEAAPEAXI@Z 00000001800353e0     BerconDistortion.obj
 0002:000093f8       $unwind$??1Texmap@@UEAA@XZ 00000001800353f8     BerconDistortion.obj
 0002:00009408       $stateUnwindMap$??1Texmap@@UEAA@XZ 0000000180035408     BerconDistortion.obj
 0002:00009410       $ip2state$??1Texmap@@UEAA@XZ 0000000180035410     BerconDistortion.obj
 0002:00009418       $unwind$??1?$Tab@PEAVVertexNormalsCallback@@@@QEAA@XZ 0000000180035418     BerconDistortion.obj
 0002:00009428       $ip2state$??1?$Tab@PEAVVertexNormalsCallback@@@@QEAA@XZ 0000000180035428     BerconDistortion.obj
 0002:00009430       $unwind$??0VertexNormalsControl@@QEAA@XZ 0000000180035430     BerconDistortion.obj
 0002:00009440       $stateUnwindMap$??0VertexNormalsControl@@QEAA@XZ 0000000180035440     BerconDistortion.obj
 0002:00009448       $ip2state$??0VertexNormalsControl@@QEAA@XZ 0000000180035448     BerconDistortion.obj
 0002:00009450       $unwind$??0XYZ_Desc@@QEAA@PEAVClassDesc2@@HHHHHHH@Z 0000000180035450     BerconDistortion.obj
 0002:00009464       $stateUnwindMap$??0XYZ_Desc@@QEAA@PEAVClassDesc2@@HHHHHHH@Z 0000000180035464     BerconDistortion.obj
 0002:00009470       $ip2state$??0XYZ_Desc@@QEAA@PEAVClassDesc2@@HHHHHHH@Z 0000000180035470     BerconDistortion.obj
 0002:00009488       $unwind$??_GXYZ_Desc@@UEAAPEAXI@Z 0000000180035488     BerconDistortion.obj
 0002:0000949c       $stateUnwindMap$??_GXYZ_Desc@@UEAAPEAXI@Z 000000018003549c     BerconDistortion.obj
 0002:000094a8       $ip2state$??_GXYZ_Desc@@UEAAPEAXI@Z 00000001800354a8     BerconDistortion.obj
 0002:000094b0       $unwind$?DlgProc@BerconXYZDlgProc@@UEAA_JHPEAVIParamMap2@@PEAUHWND__@@I_K_J@Z 00000001800354b0     BerconDistortion.obj
 0002:000094c0       $chain$1$?DlgProc@BerconXYZDlgProc@@UEAA_JHPEAVIParamMap2@@PEAUHWND__@@I_K_J@Z 00000001800354c0     BerconDistortion.obj
 0002:000094d8       $unwind$?DeleteThis@BerconXYZDlgProc@@UEAAXXZ 00000001800354d8     BerconDistortion.obj
 0002:000094e8       $ip2state$?DeleteThis@BerconXYZDlgProc@@UEAAXXZ 00000001800354e8     BerconDistortion.obj
 0002:000094f0       $unwind$??_GBerconXYZDlgProc@@UEAAPEAXI@Z 00000001800354f0     BerconDistortion.obj
 0002:00009500       $ip2state$??_GBerconXYZDlgProc@@UEAAPEAXI@Z 0000000180035500     BerconDistortion.obj
 0002:00009508       $unwind$??0BerconXYZ@@QEAA@XZ 0000000180035508     BerconDistortion.obj
 0002:00009508       $unwind$?dllmain_raw@@YAHQEAUHINSTANCE__@@KQEAX@Z 0000000180035508     MSVCRT:dll_dllmain.obj
 0002:00009508       $unwind$__scrt_dllmain_exception_filter 0000000180035508     MSVCRT:utility.obj
 0002:0000951c       $unwind$??0BerconSC@@QEAA@QEAVShadeContext@@@Z 000000018003551c     BerconDistortion.obj
 0002:0000952c       $stateUnwindMap$??0BerconSC@@QEAA@QEAVShadeContext@@@Z 000000018003552c     BerconDistortion.obj
 0002:00009580       $ip2state$??0BerconSC@@QEAA@QEAVShadeContext@@@Z 0000000180035580     BerconDistortion.obj
 0002:000095d0       $unwind$?draw@Tile@@SA?AVTilePoint@@VPoint3@@AEAVTileParam@@@Z 00000001800355d0     tile.obj
 0002:000095d0       $unwind$?P@BerconSC@@UEAA?AVPoint3@@XZ 00000001800355d0     BerconDistortion.obj
 0002:000095d0       $unwind$?PObj@BerconSC@@UEAA?AVPoint3@@XZ 00000001800355d0     BerconDistortion.obj
 0002:000095d0       $unwind$?getColor@BerconTile@@QEAA?AVAColor@@AEAVShadeContext@@H@Z 00000001800355d0     BerconTile.obj
 0002:000095d0       $unwind$?limitedNoise@Noise@@SAMVPoint3@@AEAVNoiseParams@@@Z 00000001800355d0     noise.obj
 0002:000095d0       $unwind$?EvalGlobalEnvironMap@BerconSC@@UEAA?AVAColor@@VPoint3@@@Z 00000001800355d0     BerconDistortion.obj
 0002:000095d0       $unwind$?EvalEnvironMap@BerconSC@@UEAA?AVAColor@@PEAVTexmap@@VPoint3@@@Z 00000001800355d0     BerconDistortion.obj
 0002:000095d0       $unwind$?setHWND@GradientRamp@@QEAAXPEAUHWND__@@@Z 00000001800355d0     GradientRamp.obj
 0002:000095d0       $unwind$?getNormal@BerconTile@@QEAA?AVPoint3@@AEAVShadeContext@@H@Z 00000001800355d0     BerconTile.obj
 0002:000095d8       $unwind$?DUVW@BerconSC@@UEAA?AVPoint3@@H@Z 00000001800355d8     BerconDistortion.obj
 0002:000095d8       $unwind$?DiffuseIllum@BerconSC@@UEAA?AVColor@@XZ 00000001800355d8     BerconDistortion.obj
 0002:000095d8       $unwind$?UVW@BerconSC@@UEAA?AVPoint3@@H@Z 00000001800355d8     BerconDistortion.obj
 0002:000095d8       $unwind$?SurfacePtScreen@BerconSC@@UEAA?AVPoint2@@XZ 00000001800355d8     BerconDistortion.obj
 0002:000095d8       $unwind$?ReflectVector@BerconSC@@UEAA?AVPoint3@@XZ 00000001800355d8     BerconDistortion.obj
 0002:000095d8       $unwind$??2@YAPEAX_K@Z     00000001800355d8     MSVCRT:new_scalar.obj
 0002:000095d8       $unwind$?BarycentricCoords@BerconSC@@UEAA?AVPoint3@@XZ 00000001800355d8     BerconDistortion.obj
 0002:000095d8       $unwind$?OrigView@ShadeContext@@UEAA?AVPoint3@@XZ 00000001800355d8     BerconDistortion.obj
 0002:000095d8       $unwind$__scrt_uninitialize_crt 00000001800355d8     MSVCRT:utility.obj
 0002:000095d8       $unwind$?OrigNormal@ShadeContext@@UEAA?AVPoint3@@XZ 00000001800355d8     BerconDistortion.obj
 0002:000095d8       $unwind$??0exception@std@@QEAA@AEBV01@@Z 00000001800355d8     MSVCRT:throw_bad_alloc.obj
 0002:000095d8       $unwind$?IsSubClassOf@Animatable@@UEAAHVClass_ID@@@Z 00000001800355d8     BerconDistortion.obj
 0002:000095d8       $unwind$?UVWNormal@BerconSC@@UEAA?AVPoint3@@H@Z 00000001800355d8     BerconDistortion.obj
 0002:000095d8       $unwind$?Normal@BerconSC@@UEAA?AVPoint3@@XZ 00000001800355d8     BerconDistortion.obj
 0002:000095d8       $unwind$?PointTo@BerconSC@@UEAA?AVPoint3@@AEBV2@W4RefFrame@@@Z 00000001800355d8     BerconDistortion.obj
 0002:000095d8       $unwind$?alterUVW@Noise@@SAXAEAVPoint3@@H@Z 00000001800355d8     noise.obj
 0002:000095d8       $unwind$?DiscardTexHandle@BerconWood@@QEAAXXZ 00000001800355d8     BerconWood.obj
 0002:000095d8       $unwind$?gradSelKey@BerconGradient@@UEAAXXZ 00000001800355d8     BerconGradient.obj
 0002:000095d8       $unwind$?VectorFromNoScale@BerconSC@@UEAA?AVPoint3@@AEBV2@W4RefFrame@@@Z 00000001800355d8     BerconDistortion.obj
 0002:000095d8       $unwind$??0bad_alloc@std@@QEAA@AEBV01@@Z 00000001800355d8     MSVCRT:throw_bad_alloc.obj
 0002:000095d8       $unwind$?RefractVector@BerconSC@@UEAA?AVPoint3@@M@Z 00000001800355d8     BerconDistortion.obj
 0002:000095d8       $unwind$??_GParamMap2UserDlgProc@@UEAAPEAXI@Z 00000001800355d8     BerconDistortion.obj
 0002:000095d8       $unwind$__scrt_release_startup_lock 00000001800355d8     MSVCRT:utility.obj
 0002:000095d8       $unwind$?GetClassName@BerconTile@@UEAAXAEAVWStr@@@Z 00000001800355d8     BerconTile.obj
 0002:000095d8       $unwind$IsolationAwarePrivatenPgViNgRzlnPgpgk 00000001800355d8     DllEntry.obj
 0002:000095d8       $unwind$??0bad_array_new_length@std@@QEAA@AEBV01@@Z 00000001800355d8     MSVCRT:throw_bad_alloc.obj
 0002:000095d8       $unwind$?GetClassName@BerconGradient@@UEAAXAEAVWStr@@@Z 00000001800355d8     BerconGradient.obj
 0002:000095d8       $unwind$?ScreenCoord@BerconSC@@UEAA?AVIPoint2@@XZ 00000001800355d8     BerconDistortion.obj
 0002:000095d8       $unwind$?GetClassName@BerconWood@@UEAAXAEAVWStr@@@Z 00000001800355d8     BerconWood.obj
 0002:000095d8       $unwind$_onexit            00000001800355d8     MSVCRT:utility.obj
 0002:000095d8       $unwind$?DPObjRelBox@BerconSC@@UEAA?AVPoint3@@XZ 00000001800355d8     BerconDistortion.obj
 0002:000095d8       $unwind$?VectorToNoScale@BerconSC@@UEAA?AVPoint3@@AEBV2@W4RefFrame@@@Z 00000001800355d8     BerconDistortion.obj
 0002:000095d8       $unwind$??_Gtype_info@@UEAAPEAXI@Z 00000001800355d8     MSVCRT:std_type_info_static.obj
 0002:000095d8       $unwind$?PObjRelBox@BerconSC@@UEAA?AVPoint3@@XZ 00000001800355d8     BerconDistortion.obj
 0002:000095d8       $unwind$?ObjectBox@BerconSC@@UEAA?AVBox3@@XZ 00000001800355d8     BerconDistortion.obj
 0002:000095d8       $unwind$?DPObj@BerconSC@@UEAA?AVPoint3@@XZ 00000001800355d8     BerconDistortion.obj
 0002:000095d8       $unwind$?GetClassName@BerconDistortion@@UEAAXAEAVWStr@@@Z 00000001800355d8     BerconDistortion.obj
 0002:000095d8       $unwind$?CamPos@BerconSC@@UEAA?AVPoint3@@XZ 00000001800355d8     BerconDistortion.obj
 0002:000095d8       $unwind$?VectorFrom@BerconSC@@UEAA?AVPoint3@@AEBV2@W4RefFrame@@@Z 00000001800355d8     BerconDistortion.obj
 0002:000095d8       $unwind$?SetThing@BerconTileDlgProc@@UEAAXPEAVReferenceTarget@@@Z 00000001800355d8     BerconTile.obj
 0002:000095d8       $unwind$?PointFrom@BerconSC@@UEAA?AVPoint3@@AEBV2@W4RefFrame@@@Z 00000001800355d8     BerconDistortion.obj
 0002:000095d8       $unwind$?DiscardTexHandle@BerconGradient@@QEAAXXZ 00000001800355d8     BerconGradient.obj
 0002:000095d8       $unwind$?OrigNormal@BerconSC@@UEAA?AVPoint3@@XZ 00000001800355d8     BerconDistortion.obj
 0002:000095d8       $unwind$__scrt_initialize_crt 00000001800355d8     MSVCRT:utility.obj
 0002:000095d8       $unwind$?V@BerconSC@@UEAA?AVPoint3@@XZ 00000001800355d8     BerconDistortion.obj
 0002:000095d8       $unwind$?GetClassName@BerconNoise@@UEAAXAEAVWStr@@@Z 00000001800355d8     BerconNoise.obj
 0002:000095d8       $unwind$?DiscardTexHandle@BerconNoise@@QEAAXXZ 00000001800355d8     BerconNoise.obj
 0002:000095d8       $unwind$?GNormal@BerconSC@@UEAA?AVPoint3@@XZ 00000001800355d8     BerconDistortion.obj
 0002:000095d8       $unwind$?DiscardTexHandle@BerconTile@@QEAAXXZ 00000001800355d8     BerconTile.obj
 0002:000095d8       $unwind$?DP@BerconSC@@UEAA?AVPoint3@@XZ 00000001800355d8     BerconDistortion.obj
 0002:000095d8       $unwind$?OrigView@BerconSC@@UEAA?AVPoint3@@XZ 00000001800355d8     BerconDistortion.obj
 0002:000095d8       $unwind$?_Tidy@?$basic_stringbuf@_WU?$char_traits@_W@std@@V?$allocator@_W@2@@std@@IEAAXXZ 00000001800355d8     tile.obj
 0002:000095d8       $unwind$?leftUp@GradientRamp@@QEAAXHH_N00@Z 00000001800355d8     GradientRamp.obj
 0002:000095d8       $unwind$?VectorTo@BerconSC@@UEAA?AVPoint3@@AEBV2@W4RefFrame@@@Z 00000001800355d8     BerconDistortion.obj
 0002:000095d8       $unwind$DllMain            00000001800355d8     DllEntry.obj
 0002:000095e0       $unwind$??1BerconSC@@UEAA@XZ 00000001800355e0     BerconDistortion.obj
 0002:000095f0       $stateUnwindMap$??1BerconSC@@UEAA@XZ 00000001800355f0     BerconDistortion.obj
 0002:00009620       $ip2state$??1BerconSC@@UEAA@XZ 0000000180035620     BerconDistortion.obj
 0002:00009640       $unwind$??_GBerconSC@@UEAAPEAXI@Z 0000000180035640     BerconDistortion.obj
 0002:00009654       $stateUnwindMap$??_GBerconSC@@UEAAPEAXI@Z 0000000180035654     BerconDistortion.obj
 0002:00009688       $ip2state$??_GBerconSC@@UEAAPEAXI@Z 0000000180035688     BerconDistortion.obj
 0002:000096a8       $unwind$?getDistVector@BerconDistortion@@QEAA?AVPoint3@@AEAVShadeContext@@@Z 00000001800356a8     BerconDistortion.obj
 0002:000096bc       $chain$1$?getDistVector@BerconDistortion@@QEAA?AVPoint3@@AEAVShadeContext@@@Z 00000001800356bc     BerconDistortion.obj
 0002:000096d4       $chain$2$?getDistVector@BerconDistortion@@QEAA?AVPoint3@@AEAVShadeContext@@@Z 00000001800356d4     BerconDistortion.obj
 0002:000096e4       $chain$0$?GetActiveTexHandle@BerconDistortion@@UEAA_KHAEAVTexHandleMaker@@@Z 00000001800356e4     BerconDistortion.obj
 0002:000096f8       $chain$1$?GetActiveTexHandle@BerconDistortion@@UEAA_KHAEAVTexHandleMaker@@@Z 00000001800356f8     BerconDistortion.obj
 0002:00009708       $unwind$?CreateParamDlg@BerconDistortion@@UEAAPEAVParamDlg@@PEAUHWND__@@PEAVIMtlParams@@@Z 0000000180035708     BerconDistortion.obj
 0002:0000971c       $stateUnwindMap$?CreateParamDlg@BerconDistortion@@UEAAPEAVParamDlg@@PEAUHWND__@@PEAVIMtlParams@@@Z 000000018003571c     BerconDistortion.obj
 0002:00009730       $ip2state$?CreateParamDlg@BerconDistortion@@UEAAPEAVParamDlg@@PEAUHWND__@@PEAVIMtlParams@@@Z 0000000180035730     BerconDistortion.obj
 0002:00009750       $unwind$?Update@BerconDistortion@@UEAAXHAEAVInterval@@@Z 0000000180035750     BerconDistortion.obj
 0002:0000975c       $chain$0$?Update@BerconDistortion@@UEAAXHAEAVInterval@@@Z 000000018003575c     BerconDistortion.obj
 0002:00009770       $chain$2$?Update@BerconDistortion@@UEAAXHAEAVInterval@@@Z 0000000180035770     BerconDistortion.obj
 0002:00009788       $chain$3$?Update@BerconDistortion@@UEAAXHAEAVInterval@@@Z 0000000180035788     BerconDistortion.obj
 0002:00009798       $chain$4$?Update@BerconDistortion@@UEAAXHAEAVInterval@@@Z 0000000180035798     BerconDistortion.obj
 0002:000097a8       $unwind$?Reset@BerconDistortion@@UEAAXXZ 00000001800357a8     BerconDistortion.obj
 0002:000097b4       $unwind$?GetSubTexmapSlotName@BerconDistortion@@UEAA?AVWStr@@H@Z 00000001800357b4     BerconDistortion.obj
 0002:000097c8       $ip2state$?GetSubTexmapSlotName@BerconDistortion@@UEAA?AVWStr@@H@Z 00000001800357c8     BerconDistortion.obj
 0002:000097d8       $unwind$?EvalColor@BerconDistortion@@UEAA?AVAColor@@AEAVShadeContext@@@Z 00000001800357d8     BerconDistortion.obj
 0002:000097f8       $stateUnwindMap$?EvalMono@BerconDistortion@@UEAAMAEAVShadeContext@@@Z 00000001800357f8     BerconDistortion.obj
 0002:000097f8       $stateUnwindMap$?EvalColor@BerconDistortion@@UEAA?AVAColor@@AEAVShadeContext@@@Z 00000001800357f8     BerconDistortion.obj
 0002:000097f8       $stateUnwindMap$?EvalNormalPerturb@BerconDistortion@@UEAA?AVPoint3@@AEAVShadeContext@@@Z 00000001800357f8     BerconDistortion.obj
 0002:00009830       $ip2state$?EvalColor@BerconDistortion@@UEAA?AVAColor@@AEAVShadeContext@@@Z 0000000180035830     BerconDistortion.obj
 0002:00009858       $unwind$?EvalMono@BerconDistortion@@UEAAMAEAVShadeContext@@@Z 0000000180035858     BerconDistortion.obj
 0002:00009880       $ip2state$?EvalMono@BerconDistortion@@UEAAMAEAVShadeContext@@@Z 0000000180035880     BerconDistortion.obj
 0002:000098a8       $unwind$?EvalNormalPerturb@BerconDistortion@@UEAA?AVPoint3@@AEAVShadeContext@@@Z 00000001800358a8     BerconDistortion.obj
 0002:000098c8       $ip2state$?EvalNormalPerturb@BerconDistortion@@UEAA?AVPoint3@@AEAVShadeContext@@@Z 00000001800358c8     BerconDistortion.obj
 0002:000098f0       $unwind$?Clone@BerconDistortion@@UEAAPEAVReferenceTarget@@AEAVRemapDir@@@Z 00000001800358f0     BerconDistortion.obj
 0002:00009910       $ip2state$?Clone@BerconDistortion@@UEAAPEAVReferenceTarget@@AEAVRemapDir@@@Z 0000000180035910     BerconDistortion.obj
 0002:00009928       $chain$0$?NotifyRefChanged@BerconDistortion@@UEAA?AW4RefResult@@AEBVInterval@@PEAVReferenceTarget@@AEA_KIH@Z 0000000180035928     BerconDistortion.obj
 0002:0000993c       $chain$1$?NotifyRefChanged@BerconDistortion@@UEAA?AW4RefResult@@AEBVInterval@@PEAVReferenceTarget@@AEA_KIH@Z 000000018003593c     BerconDistortion.obj
 0002:0000994c       $unwind$?SubAnimName@BerconDistortion@@UEAA?AVWStr@@H@Z 000000018003594c     BerconDistortion.obj
 0002:00009960       $ip2state$?SubAnimName@BerconDistortion@@UEAA?AVWStr@@H@Z 0000000180035960     BerconDistortion.obj
 0002:00009970       $unwind$??0BerconDistortion@@QEAA@XZ 0000000180035970     BerconDistortion.obj
 0002:0000998c       $stateUnwindMap$??0BerconDistortion@@QEAA@XZ 000000018003598c     BerconDistortion.obj
 0002:00009998       $ip2state$??0BerconDistortion@@QEAA@XZ 0000000180035998     BerconDistortion.obj
 0002:000099b0       $unwind$??_GBerconDistortion@@UEAAPEAXI@Z 00000001800359b0     BerconDistortion.obj
 0002:000099c4       $stateUnwindMap$??_GBerconDistortion@@UEAAPEAXI@Z 00000001800359c4     BerconDistortion.obj
 0002:000099c4       $stateUnwindMap$??1BerconNoise@@UEAA@XZ 00000001800359c4     BerconNoise.obj
 0002:000099c4       $stateUnwindMap$??1BerconGradient@@UEAA@XZ 00000001800359c4     BerconGradient.obj
 0002:000099c4       $stateUnwindMap$??1BerconWood@@UEAA@XZ 00000001800359c4     BerconWood.obj
 0002:000099d8       $ip2state$??_GBerconDistortion@@UEAAPEAXI@Z 00000001800359d8     BerconDistortion.obj
 0002:000099f0       $unwind$?Create@BerconDistortionClassDesc@@UEAAPEAXH@Z 00000001800359f0     BerconDistortion.obj
 0002:00009a00       $ip2state$?Create@BerconDistortionClassDesc@@UEAAPEAXH@Z 0000000180035a00     BerconDistortion.obj
 0002:00009a18       $unwind$??_GBerconDistortionClassDesc@@UEAAPEAXI@Z 0000000180035a18     BerconDistortion.obj
 0002:00009a30       $ip2state$??_GBerconDistortionClassDesc@@UEAAPEAXI@Z 0000000180035a30     BerconDistortion.obj
 0002:00009a38       $unwind$??__EBerconDistortionDesc@@YAXXZ 0000000180035a38     BerconDistortion.obj
 0002:00009a48       $stateUnwindMap$??__FBerconDistortionDesc@@YAXXZ 0000000180035a48     BerconDistortion.obj
 0002:00009a48       $stateUnwindMap$??__EBerconDistortionDesc@@YAXXZ 0000000180035a48     BerconDistortion.obj
 0002:00009a50       $ip2state$??__EBerconDistortionDesc@@YAXXZ 0000000180035a50     BerconDistortion.obj
 0002:00009a68       $unwind$??__FBerconDistortionDesc@@YAXXZ 0000000180035a68     BerconDistortion.obj
 0002:00009a78       $ip2state$??__FBerconDistortionDesc@@YAXXZ 0000000180035a78     BerconDistortion.obj
 0002:00009a80       $unwind$??__Exyz_blk@@YAXXZ 0000000180035a80     BerconNoise.obj
 0002:00009a80       $unwind$??__Exyz_blk@@YAXXZ 0000000180035a80     BerconTile.obj
 0002:00009a80       $unwind$??__Exyz_blk@@YAXXZ 0000000180035a80     BerconDistortion.obj
 0002:00009a80       $unwind$??__Exyz_blk@@YAXXZ 0000000180035a80     BerconWood.obj
 0002:00009a80       $unwind$??__Exyz_blk@@YAXXZ 0000000180035a80     BerconGradient.obj
 0002:00009a88       $unwind$??__Fxyz_blk@@YAXXZ 0000000180035a88     BerconDistortion.obj
 0002:00009a98       $stateUnwindMap$??__Fxyz_blk@@YAXXZ 0000000180035a98     BerconDistortion.obj
 0002:00009aa0       $ip2state$??__Fxyz_blk@@YAXXZ 0000000180035aa0     BerconDistortion.obj
 0002:00009aa8       $unwind$??__EBerconDistortion_param_blk@@YAXXZ 0000000180035aa8     BerconDistortion.obj
 0002:00009ab0       $unwind$??1ICustomControl@@UEAA@XZ 0000000180035ab0     BerconGradient.obj
 0002:00009ac0       $ip2state$??1ICustomControl@@UEAA@XZ 0000000180035ac0     BerconGradient.obj
 0002:00009ac8       $unwind$??_GICustomControl@@UEAAPEAXI@Z 0000000180035ac8     BerconGradient.obj
 0002:00009adc       $stateUnwindMap$??_GICustomControl@@UEAAPEAXI@Z 0000000180035adc     BerconGradient.obj
 0002:00009adc       $stateUnwindMap$??1ICustomControl@@UEAA@XZ 0000000180035adc     BerconGradient.obj
 0002:00009ae8       $ip2state$??_GICustomControl@@UEAAPEAXI@Z 0000000180035ae8     BerconGradient.obj
 0002:00009af0       $unwind$??0IGradient@@QEAA@PEAUHWND__@@PEAVGradientRamp@@@Z 0000000180035af0     BerconGradient.obj
 0002:00009b00       $stateUnwindMap$??0IGradient@@QEAA@PEAUHWND__@@PEAVGradientRamp@@@Z 0000000180035b00     BerconGradient.obj
 0002:00009b10       $ip2state$??0IGradient@@QEAA@PEAUHWND__@@PEAVGradientRamp@@@Z 0000000180035b10     BerconGradient.obj
 0002:00009b30       $unwind$??_GIGradient@@UEAAPEAXI@Z 0000000180035b30     BerconGradient.obj
 0002:00009b44       $stateUnwindMap$??_GIGradient@@UEAAPEAXI@Z 0000000180035b44     BerconGradient.obj
 0002:00009b58       $ip2state$??_GIGradient@@UEAAPEAXI@Z 0000000180035b58     BerconGradient.obj
 0002:00009b70       $unwind$?seedRandomGen@BerconGradient@@QEAAXAEAVShadeContext@@@Z 0000000180035b70     BerconGradient.obj
 0002:00009b80       $chain$0$?seedRandomGen@BerconGradient@@QEAAXAEAVShadeContext@@@Z 0000000180035b80     BerconGradient.obj
 0002:00009b94       $chain$1$?seedRandomGen@BerconGradient@@QEAAXAEAVShadeContext@@@Z 0000000180035b94     BerconGradient.obj
 0002:00009ba8       $chain$2$?seedRandomGen@BerconGradient@@QEAAXAEAVShadeContext@@@Z 0000000180035ba8     BerconGradient.obj
 0002:00009bb8       $chain$3$?seedRandomGen@BerconGradient@@QEAAXAEAVShadeContext@@@Z 0000000180035bb8     BerconGradient.obj
 0002:00009bc8       $unwind$?EnableStuff@BerconGradient@@QEAAXXZ 0000000180035bc8     BerconGradient.obj
 0002:00009bd0       $chain$0$?EnableStuff@BerconGradient@@QEAAXXZ 0000000180035bd0     BerconGradient.obj
 0002:00009be4       $chain$2$?EnableStuff@BerconGradient@@QEAAXXZ 0000000180035be4     BerconGradient.obj
 0002:00009bfc       $chain$6$?EnableStuff@BerconGradient@@QEAAXXZ 0000000180035bfc     BerconGradient.obj
 0002:00009c1c       $chain$7$?EnableStuff@BerconGradient@@QEAAXXZ 0000000180035c1c     BerconGradient.obj
 0002:00009c34       $chain$8$?EnableStuff@BerconGradient@@QEAAXXZ 0000000180035c34     BerconGradient.obj
 0002:00009c48       $chain$9$?EnableStuff@BerconGradient@@QEAAXXZ 0000000180035c48     BerconGradient.obj
 0002:00009c58       $chain$10$?EnableStuff@BerconGradient@@QEAAXXZ 0000000180035c58     BerconGradient.obj
 0002:00009c68       $unwind$?getGradientValueUVW@BerconGradient@@QEAAMVPoint3@@@Z 0000000180035c68     BerconGradient.obj
 0002:00009c70       $chain$0$?getGradientValueUVW@BerconGradient@@QEAAMVPoint3@@@Z 0000000180035c70     BerconGradient.obj
 0002:00009c84       $chain$2$?getGradientValueUVW@BerconGradient@@QEAAMVPoint3@@@Z 0000000180035c84     BerconGradient.obj
 0002:00009c98       $chain$3$?getGradientValueUVW@BerconGradient@@QEAAMVPoint3@@@Z 0000000180035c98     BerconGradient.obj
 0002:00009ca8       $unwind$?getGradientValueDist@BerconGradient@@QEAAMAEAVShadeContext@@@Z 0000000180035ca8     BerconGradient.obj
 0002:00009cc0       $chain$3$?getGradientValueDist@BerconGradient@@QEAAMAEAVShadeContext@@@Z 0000000180035cc0     BerconGradient.obj
 0002:00009ce0       $chain$4$?getGradientValueDist@BerconGradient@@QEAAMAEAVShadeContext@@@Z 0000000180035ce0     BerconGradient.obj
 0002:00009cf0       $unwind$?getGradientValueNormal@BerconGradient@@QEAAMAEAVShadeContext@@@Z 0000000180035cf0     BerconGradient.obj
 0002:00009d08       $unwind$?getGradientValue@BerconGradient@@QEAAMAEAVShadeContext@@@Z 0000000180035d08     BerconGradient.obj
 0002:00009d1c       $chain$3$?getGradientValue@BerconGradient@@QEAAMAEAVShadeContext@@@Z 0000000180035d1c     BerconGradient.obj
 0002:00009d3c       $chain$4$?getGradientValue@BerconGradient@@QEAAMAEAVShadeContext@@@Z 0000000180035d3c     BerconGradient.obj
 0002:00009d4c       $chain$0$?setKeyTex@BerconGradient@@QEAAXPEAVTexmap@@@Z 0000000180035d4c     BerconGradient.obj
 0002:00009d60       $chain$1$?setKeyTex@BerconGradient@@QEAAXPEAVTexmap@@@Z 0000000180035d60     BerconGradient.obj
 0002:00009d70       $unwind$?Validity@BerconWood@@UEAA?AVInterval@@H@Z 0000000180035d70     BerconWood.obj
 0002:00009d70       $unwind$?Validity@BerconDistortion@@UEAA?AVInterval@@H@Z 0000000180035d70     BerconDistortion.obj
 0002:00009d70       $unwind$?Validity@BerconTile@@UEAA?AVInterval@@H@Z 0000000180035d70     BerconTile.obj
 0002:00009d70       $unwind$?keyNumChanged@BerconGradient@@QEAAXH@Z 0000000180035d70     BerconGradient.obj
 0002:00009d70       $unwind$?Validity@BerconNoise@@UEAA?AVInterval@@H@Z 0000000180035d70     BerconNoise.obj
 0002:00009d70       $unwind$?Validity@BerconGradient@@UEAA?AVInterval@@H@Z 0000000180035d70     BerconGradient.obj
 0002:00009d7c       $unwind$?keyPosChanged@BerconGradient@@QEAAXM@Z 0000000180035d7c     BerconGradient.obj
 0002:00009d88       $unwind$?countKeys@BerconGradient@@QEAAHXZ 0000000180035d88     BerconGradient.obj
 0002:00009d94       $unwind$?SwapInputs@BerconNoise@@QEAAXXZ 0000000180035d94     BerconNoise.obj
 0002:00009d94       $unwind$?InitGradientControls@@YAXXZ 0000000180035d94     IGradient.obj
 0002:00009d94       $unwind$?resetKeys@BerconGradient@@QEAAXXZ 0000000180035d94     BerconGradient.obj
 0002:00009d9c       $unwind$?gradAddKey@BerconGradient@@UEAAXM@Z 0000000180035d9c     BerconGradient.obj
 0002:00009da4       $chain$1$?gradAddKey@BerconGradient@@UEAAXM@Z 0000000180035da4     BerconGradient.obj
 0002:00009dbc       $chain$2$?gradAddKey@BerconGradient@@UEAAXM@Z 0000000180035dbc     BerconGradient.obj
 0002:00009dcc       $unwind$?gradMoveKey@BerconGradient@@UEAAXHM@Z 0000000180035dcc     BerconGradient.obj
 0002:00009de4       $unwind$?gradDelKey@BerconGradient@@UEAAXH@Z 0000000180035de4     BerconGradient.obj
 0002:00009df0       $chain$0$?gradDelKey@BerconGradient@@UEAAXH@Z 0000000180035df0     BerconGradient.obj
 0002:00009e04       $chain$1$?gradDelKey@BerconGradient@@UEAAXH@Z 0000000180035e04     BerconGradient.obj
 0002:00009e14       $unwind$?CreateParamDlg@BerconGradient@@UEAAPEAVParamDlg@@PEAUHWND__@@PEAVIMtlParams@@@Z 0000000180035e14     BerconGradient.obj
 0002:00009e30       $ip2state$?CreateParamDlg@BerconGradient@@UEAAPEAVParamDlg@@PEAUHWND__@@PEAVIMtlParams@@@Z 0000000180035e30     BerconGradient.obj
 0002:00009e68       $unwind$?Update@BerconGradient@@UEAAXHAEAVInterval@@@Z 0000000180035e68     BerconGradient.obj
 0002:00009e78       $chain$0$?Update@BerconGradient@@UEAAXHAEAVInterval@@@Z 0000000180035e78     BerconGradient.obj
 0002:00009e8c       $chain$3$?Update@BerconGradient@@UEAAXHAEAVInterval@@@Z 0000000180035e8c     BerconGradient.obj
 0002:00009ea8       $chain$4$?Update@BerconGradient@@UEAAXHAEAVInterval@@@Z 0000000180035ea8     BerconGradient.obj
 0002:00009ebc       $chain$5$?Update@BerconGradient@@UEAAXHAEAVInterval@@@Z 0000000180035ebc     BerconGradient.obj
 0002:00009ecc       $chain$6$?Update@BerconGradient@@UEAAXHAEAVInterval@@@Z 0000000180035ecc     BerconGradient.obj
 0002:00009ee0       $chain$7$?Update@BerconGradient@@UEAAXHAEAVInterval@@@Z 0000000180035ee0     BerconGradient.obj
 0002:00009ef0       $chain$8$?Update@BerconGradient@@UEAAXHAEAVInterval@@@Z 0000000180035ef0     BerconGradient.obj
 0002:00009f00       $unwind$?Reset@BerconGradient@@UEAAXXZ 0000000180035f00     BerconGradient.obj
 0002:00009f10       $unwind$?GetSubTexmapSlotName@BerconGradient@@UEAA?AVWStr@@H@Z 0000000180035f10     BerconGradient.obj
 0002:00009f20       $stateUnwindMap$?GetSubTexmapSlotName@BerconGradient@@UEAA?AVWStr@@H@Z 0000000180035f20     BerconGradient.obj
 0002:00009f30       $ip2state$?GetSubTexmapSlotName@BerconGradient@@UEAA?AVWStr@@H@Z 0000000180035f30     BerconGradient.obj
 0002:00009f68       $unwind$?EvalColor@BerconGradient@@UEAA?AVAColor@@AEAVShadeContext@@@Z 0000000180035f68     BerconGradient.obj
 0002:00009f7c       $chain$0$?EvalColor@BerconGradient@@UEAA?AVAColor@@AEAVShadeContext@@@Z 0000000180035f7c     BerconGradient.obj
 0002:00009f90       $chain$1$?EvalColor@BerconGradient@@UEAA?AVAColor@@AEAVShadeContext@@@Z 0000000180035f90     BerconGradient.obj
 0002:00009fa4       $chain$2$?EvalColor@BerconGradient@@UEAA?AVAColor@@AEAVShadeContext@@@Z 0000000180035fa4     BerconGradient.obj
 0002:00009fb4       $chain$3$?EvalColor@BerconGradient@@UEAA?AVAColor@@AEAVShadeContext@@@Z 0000000180035fb4     BerconGradient.obj
 0002:00009fc4       $unwind$?EvalNormalPerturb@BerconGradient@@UEAA?AVPoint3@@AEAVShadeContext@@@Z 0000000180035fc4     BerconGradient.obj
 0002:00009fd8       $chain$3$?EvalNormalPerturb@BerconGradient@@UEAA?AVPoint3@@AEAVShadeContext@@@Z 0000000180035fd8     BerconGradient.obj
 0002:00009ff8       $chain$5$?EvalNormalPerturb@BerconGradient@@UEAA?AVPoint3@@AEAVShadeContext@@@Z 0000000180035ff8     BerconGradient.obj
 0002:0000a010       $chain$8$?EvalNormalPerturb@BerconGradient@@UEAA?AVPoint3@@AEAVShadeContext@@@Z 0000000180036010     BerconGradient.obj
 0002:0000a02c       $chain$9$?EvalNormalPerturb@BerconGradient@@UEAA?AVPoint3@@AEAVShadeContext@@@Z 000000018003602c     BerconGradient.obj
 0002:0000a03c       $chain$10$?EvalNormalPerturb@BerconGradient@@UEAA?AVPoint3@@AEAVShadeContext@@@Z 000000018003603c     BerconGradient.obj
 0002:0000a04c       $chain$11$?EvalNormalPerturb@BerconGradient@@UEAA?AVPoint3@@AEAVShadeContext@@@Z 000000018003604c     BerconGradient.obj
 0002:0000a05c       $chain$0$?GetActiveTexHandle@BerconGradient@@UEAA_KHAEAVTexHandleMaker@@@Z 000000018003605c     BerconGradient.obj
 0002:0000a070       $chain$1$?GetActiveTexHandle@BerconGradient@@UEAA_KHAEAVTexHandleMaker@@@Z 0000000180036070     BerconGradient.obj
 0002:0000a080       $unwind$?Clone@BerconGradient@@UEAAPEAVReferenceTarget@@AEAVRemapDir@@@Z 0000000180036080     BerconGradient.obj
 0002:0000a0a0       $ip2state$?Clone@BerconGradient@@UEAAPEAVReferenceTarget@@AEAVRemapDir@@@Z 00000001800360a0     BerconGradient.obj
 0002:0000a0b8       $unwind$?NotifyRefChanged@BerconWood@@UEAA?AW4RefResult@@AEBVInterval@@PEAVReferenceTarget@@AEA_KIH@Z 00000001800360b8     BerconWood.obj
 0002:0000a0b8       $unwind$?NotifyRefChanged@BerconDistortion@@UEAA?AW4RefResult@@AEBVInterval@@PEAVReferenceTarget@@AEA_KIH@Z 00000001800360b8     BerconDistortion.obj
 0002:0000a0b8       $unwind$?NotifyRefChanged@BerconGradient@@UEAA?AW4RefResult@@AEBVInterval@@PEAVReferenceTarget@@AEA_KIH@Z 00000001800360b8     BerconGradient.obj
 0002:0000a0b8       $unwind$?NotifyRefChanged@BerconNoise@@UEAA?AW4RefResult@@AEBVInterval@@PEAVReferenceTarget@@AEA_KIH@Z 00000001800360b8     BerconNoise.obj
 0002:0000a0b8       $unwind$?NotifyRefChanged@BerconTile@@UEAA?AW4RefResult@@AEBVInterval@@PEAVReferenceTarget@@AEA_KIH@Z 00000001800360b8     BerconTile.obj
 0002:0000a0c0       $chain$0$?NotifyRefChanged@BerconGradient@@UEAA?AW4RefResult@@AEBVInterval@@PEAVReferenceTarget@@AEA_KIH@Z 00000001800360c0     BerconGradient.obj
 0002:0000a0d4       $chain$2$?NotifyRefChanged@BerconGradient@@UEAA?AW4RefResult@@AEBVInterval@@PEAVReferenceTarget@@AEA_KIH@Z 00000001800360d4     BerconGradient.obj
 0002:0000a0e8       $chain$3$?NotifyRefChanged@BerconGradient@@UEAA?AW4RefResult@@AEBVInterval@@PEAVReferenceTarget@@AEA_KIH@Z 00000001800360e8     BerconGradient.obj
 0002:0000a0f8       $unwind$?SubAnimName@BerconGradient@@UEAA?AVWStr@@H@Z 00000001800360f8     BerconGradient.obj
 0002:0000a108       $stateUnwindMap$?GetSubTexmapSlotName@BerconTile@@UEAA?AVWStr@@H@Z 0000000180036108     BerconTile.obj
 0002:0000a108       $stateUnwindMap$?SubAnimName@BerconWood@@UEAA?AVWStr@@H@Z 0000000180036108     BerconWood.obj
 0002:0000a108       $stateUnwindMap$?SubAnimName@BerconGradient@@UEAA?AVWStr@@H@Z 0000000180036108     BerconGradient.obj
 0002:0000a108       $stateUnwindMap$?GetSubTexmapSlotName@BerconDistortion@@UEAA?AVWStr@@H@Z 0000000180036108     BerconDistortion.obj
 0002:0000a108       $stateUnwindMap$?SubAnimName@BerconDistortion@@UEAA?AVWStr@@H@Z 0000000180036108     BerconDistortion.obj
 0002:0000a108       $stateUnwindMap$?GetSubTexmapSlotName@BerconWood@@UEAA?AVWStr@@H@Z 0000000180036108     BerconWood.obj
 0002:0000a108       $stateUnwindMap$?SubAnimName@BerconTile@@UEAA?AVWStr@@H@Z 0000000180036108     BerconTile.obj
 0002:0000a108       $stateUnwindMap$?SubAnimName@BerconNoise@@UEAA?AVWStr@@H@Z 0000000180036108     BerconNoise.obj
 0002:0000a108       $stateUnwindMap$?GetSubTexmapSlotName@BerconNoise@@UEAA?AVWStr@@H@Z 0000000180036108     BerconNoise.obj
 0002:0000a110       $ip2state$?SubAnimName@BerconGradient@@UEAA?AVWStr@@H@Z 0000000180036110     BerconGradient.obj
 0002:0000a120       $unwind$?keyColorChanged@BerconGradient@@QEAAXVAColor@@@Z 0000000180036120     BerconGradient.obj
 0002:0000a120       $unwind$?setKeyTex@BerconGradient@@QEAAXPEAVTexmap@@@Z 0000000180036120     BerconGradient.obj
 0002:0000a120       $unwind$?SetReference@BerconGradient@@EEAAXHPEAVReferenceTarget@@@Z 0000000180036120     BerconGradient.obj
 0002:0000a12c       $chain$0$?SetReference@BerconGradient@@EEAAXHPEAVReferenceTarget@@@Z 000000018003612c     BerconGradient.obj
 0002:0000a140       $chain$1$?SetReference@BerconGradient@@EEAAXHPEAVReferenceTarget@@@Z 0000000180036140     BerconGradient.obj
 0002:0000a150       $unwind$?DeleteThis@BerconWood@@UEAAXXZ 0000000180036150     BerconWood.obj
 0002:0000a150       $unwind$?DeleteThis@BerconGradient@@UEAAXXZ 0000000180036150     BerconGradient.obj
 0002:0000a150       $unwind$?DeleteThis@BerconTile@@UEAAXXZ 0000000180036150     BerconTile.obj
 0002:0000a150       $unwind$?DeleteThis@BerconNoise@@UEAAXXZ 0000000180036150     BerconNoise.obj
 0002:0000a158       $unwind$??0BerconGradient@@QEAA@XZ 0000000180036158     BerconGradient.obj
 0002:0000a170       $stateUnwindMap$??0BerconGradient@@QEAA@XZ 0000000180036170     BerconGradient.obj
 0002:0000a180       $ip2state$??0BerconGradient@@QEAA@XZ 0000000180036180     BerconGradient.obj
 0002:0000a1a8       $unwind$??1BerconGradient@@UEAA@XZ 00000001800361a8     BerconGradient.obj
 0002:0000a1c0       $ip2state$??1BerconGradient@@UEAA@XZ 00000001800361c0     BerconGradient.obj
 0002:0000a1d8       $unwind$?Create@BerconGradientClassDesc@@UEAAPEAXH@Z 00000001800361d8     BerconGradient.obj
 0002:0000a1e8       $stateUnwindMap$?Create@BerconGradientClassDesc@@UEAAPEAXH@Z 00000001800361e8     BerconGradient.obj
 0002:0000a1e8       $stateUnwindMap$?Create@BerconWoodClassDesc@@UEAAPEAXH@Z 00000001800361e8     BerconWood.obj
 0002:0000a1e8       $stateUnwindMap$?Create@BerconTileClassDesc@@UEAAPEAXH@Z 00000001800361e8     BerconTile.obj
 0002:0000a1e8       $stateUnwindMap$?Create@BerconNoiseClassDesc@@UEAAPEAXH@Z 00000001800361e8     BerconNoise.obj
 0002:0000a1e8       $stateUnwindMap$?Clone@BerconGradient@@UEAAPEAVReferenceTarget@@AEAVRemapDir@@@Z 00000001800361e8     BerconGradient.obj
 0002:0000a1e8       $stateUnwindMap$?Create@BerconDistortionClassDesc@@UEAAPEAXH@Z 00000001800361e8     BerconDistortion.obj
 0002:0000a1f0       $ip2state$?Create@BerconGradientClassDesc@@UEAAPEAXH@Z 00000001800361f0     BerconGradient.obj
 0002:0000a208       $unwind$??_GBerconGradientClassDesc@@UEAAPEAXI@Z 0000000180036208     BerconGradient.obj
 0002:0000a220       $ip2state$??_GBerconGradientClassDesc@@UEAAPEAXI@Z 0000000180036220     BerconGradient.obj
 0002:0000a228       $unwind$??__EBerconGradientDesc@@YAXXZ 0000000180036228     BerconGradient.obj
 0002:0000a238       $stateUnwindMap$??__FBerconGradientDesc@@YAXXZ 0000000180036238     BerconGradient.obj
 0002:0000a238       $stateUnwindMap$??__EBerconGradientDesc@@YAXXZ 0000000180036238     BerconGradient.obj
 0002:0000a240       $ip2state$??__EBerconGradientDesc@@YAXXZ 0000000180036240     BerconGradient.obj
 0002:0000a258       $unwind$??__FBerconGradientDesc@@YAXXZ 0000000180036258     BerconGradient.obj
 0002:0000a268       $ip2state$??__FBerconGradientDesc@@YAXXZ 0000000180036268     BerconGradient.obj
 0002:0000a270       $unwind$??__Fxyz_blk@@YAXXZ 0000000180036270     BerconGradient.obj
 0002:0000a280       $stateUnwindMap$??__Fxyz_blk@@YAXXZ 0000000180036280     BerconGradient.obj
 0002:0000a288       $ip2state$??__Fxyz_blk@@YAXXZ 0000000180036288     BerconGradient.obj
 0002:0000a290       $unwind$??__Egradientmap_param_blk@@YAXXZ 0000000180036290     BerconGradient.obj
 0002:0000a298       $unwind$?DlgProc@BerconGradientDlgProc@@UEAA_JHPEAVIParamMap2@@PEAUHWND__@@I_K_J@Z 0000000180036298     BerconGradient.obj
 0002:0000a2bc       $stateUnwindMap$?DlgProc@BerconGradientDlgProc@@UEAA_JHPEAVIParamMap2@@PEAUHWND__@@I_K_J@Z 00000001800362bc     BerconGradient.obj
 0002:0000a2c8       $ip2state$?DlgProc@BerconGradientDlgProc@@UEAA_JHPEAVIParamMap2@@PEAUHWND__@@I_K_J@Z 00000001800362c8     BerconGradient.obj
 0002:0000a2e0       $unwind$??_GBerconGradientDlgProc@@UEAAPEAXI@Z 00000001800362e0     BerconGradient.obj
 0002:0000a2f0       $ip2state$??_GBerconGradientDlgProc@@UEAAPEAXI@Z 00000001800362f0     BerconGradient.obj
 0002:0000a2f8       $unwind$??1?$basic_string@_WU?$char_traits@_W@std@@V?$allocator@_W@2@@std@@QEAA@XZ 00000001800362f8     BerconTile.obj
 0002:0000a308       $ip2state$??1?$basic_string@_WU?$char_traits@_W@std@@V?$allocator@_W@2@@std@@QEAA@XZ 0000000180036308     BerconTile.obj
 0002:0000a310       $unwind$?assign@?$basic_string@_WU?$char_traits@_W@std@@V?$allocator@_W@2@@std@@QEAAAEAV12@AEBV12@_K1@Z 0000000180036310     BerconTile.obj
 0002:0000a324       $unwind$?SetThing@BerconGradientDlgProc@@UEAAXPEAVReferenceTarget@@@Z 0000000180036324     BerconGradient.obj
 0002:0000a324       $unwind$?assign@?$basic_string@_WU?$char_traits@_W@std@@V?$allocator@_W@2@@std@@QEAAAEAV12@PEB_W_K@Z 0000000180036324     BerconTile.obj
 0002:0000a324       $unwind$?_Assign_rv@?$basic_string@_WU?$char_traits@_W@std@@V?$allocator@_W@2@@std@@QEAAX$$QEAV12@@Z 0000000180036324     tile.obj
 0002:0000a324       $unwind$_RTC_Terminate     0000000180036324     MSVCRT:_initsect_.obj
 0002:0000a324       $unwind$_DllMainCRTStartup 0000000180036324     MSVCRT:dll_dllmain.obj
 0002:0000a324       $unwind$?EvalParameters@BerconTile@@QEAA?AVTileParam@@AEAVShadeContext@@@Z 0000000180036324     BerconTile.obj
 0002:0000a324       $unwind$_RTC_Initialize    0000000180036324     MSVCRT:_initsect_.obj
 0002:0000a324       $unwind$?EvalParameters@BerconNoise@@QEAA?AVNoiseParams@@PEAVShadeContext@@@Z 0000000180036324     BerconNoise.obj
 0002:0000a324       $unwind$?EvalParameters@BerconWood@@QEAA?AVWoodParam@@AEAVShadeContext@@@Z 0000000180036324     BerconWood.obj
 0002:0000a334       $unwind$?_Copy@?$basic_string@_WU?$char_traits@_W@std@@V?$allocator@_W@2@@std@@QEAAX_K0@Z 0000000180036334     BerconTile.obj
 0002:0000a34c       $stateUnwindMap$?_Copy@?$basic_string@_WU?$char_traits@_W@std@@V?$allocator@_W@2@@std@@QEAAX_K0@Z 000000018003634c     BerconTile.obj
 0002:0000a36c       $tryMap$?_Copy@?$basic_string@_WU?$char_traits@_W@std@@V?$allocator@_W@2@@std@@QEAAX_K0@Z 000000018003636c     BerconTile.obj
 0002:0000a394       $handlerMap$0$?_Copy@?$basic_string@_WU?$char_traits@_W@std@@V?$allocator@_W@2@@std@@QEAAX_K0@Z 0000000180036394     BerconTile.obj
 0002:0000a3a8       $handlerMap$1$?_Copy@?$basic_string@_WU?$char_traits@_W@std@@V?$allocator@_W@2@@std@@QEAAX_K0@Z 00000001800363a8     BerconTile.obj
 0002:0000a3c0       $ip2state$?_Copy@?$basic_string@_WU?$char_traits@_W@std@@V?$allocator@_W@2@@std@@QEAAX_K0@Z 00000001800363c0     BerconTile.obj
 0002:0000a400       $unwind$?catch$1@?0??_Copy@?$basic_string@_WU?$char_traits@_W@std@@V?$allocator@_W@2@@std@@QEAAX_K0@Z@4HA 0000000180036400     BerconTile.obj
 0002:0000a410       $unwind$?catch$0@?0??_Copy@?$basic_string@_WU?$char_traits@_W@std@@V?$allocator@_W@2@@std@@QEAAX_K0@Z@4HA 0000000180036410     BerconTile.obj
 0002:0000a424       $unwind$??1?$vector@MV?$allocator@M@std@@@std@@QEAA@XZ 0000000180036424     BerconTile.obj
 0002:0000a438       $ip2state$??1?$vector@MV?$allocator@M@std@@@std@@QEAA@XZ 0000000180036438     BerconTile.obj
 0002:0000a440       $unwind$??1TilePattern@@QEAA@XZ 0000000180036440     BerconTile.obj
 0002:0000a458       $stateUnwindMap$??1TilePattern@@QEAA@XZ 0000000180036458     BerconTile.obj
 0002:0000a468       $ip2state$??1TilePattern@@QEAA@XZ 0000000180036468     BerconTile.obj
 0002:0000a480       $unwind$??1?$vector@VTileRow@@V?$allocator@VTileRow@@@std@@@std@@QEAA@XZ 0000000180036480     BerconTile.obj
 0002:0000a490       $ip2state$??1?$vector@VTileRow@@V?$allocator@VTileRow@@@std@@@std@@QEAA@XZ 0000000180036490     BerconTile.obj
 0002:0000a498       $unwind$?update@TilePattern@@QEAAXXZ 0000000180036498     BerconTile.obj
 0002:0000a4a4       $chain$0$?update@TilePattern@@QEAAXXZ 00000001800364a4     BerconTile.obj
 0002:0000a4b8       $chain$1$?update@TilePattern@@QEAAXXZ 00000001800364b8     BerconTile.obj
 0002:0000a4c8       $chain$0$?getDistVector@BerconTile@@QEAA?AVPoint3@@AEAVShadeContext@@@Z 00000001800364c8     BerconTile.obj
 0002:0000a4dc       $chain$2$?getDistVector@BerconTile@@QEAA?AVPoint3@@AEAVShadeContext@@@Z 00000001800364dc     BerconTile.obj
 0002:0000a4f4       $chain$3$?getDistVector@BerconTile@@QEAA?AVPoint3@@AEAVShadeContext@@@Z 00000001800364f4     BerconTile.obj
 0002:0000a504       $chain$5$?getDistVector@BerconTile@@QEAA?AVPoint3@@AEAVShadeContext@@@Z 0000000180036504     BerconTile.obj
 0002:0000a518       $chain$6$?getDistVector@BerconTile@@QEAA?AVPoint3@@AEAVShadeContext@@@Z 0000000180036518     BerconTile.obj
 0002:0000a528       $unwind$?EnableStuff@BerconTile@@QEAAXH@Z 0000000180036528     BerconTile.obj
 0002:0000a534       $chain$0$?EnableStuff@BerconTile@@QEAAXH@Z 0000000180036534     BerconTile.obj
 0002:0000a548       $chain$3$?EnableStuff@BerconTile@@QEAAXH@Z 0000000180036548     BerconTile.obj
 0002:0000a564       $chain$4$?EnableStuff@BerconTile@@QEAAXH@Z 0000000180036564     BerconTile.obj
 0002:0000a574       $chain$5$?EnableStuff@BerconTile@@QEAAXH@Z 0000000180036574     BerconTile.obj
 0002:0000a584       $unwind$?GetActiveTexHandle@BerconWood@@UEAA_KHAEAVTexHandleMaker@@@Z 0000000180036584     BerconWood.obj
 0002:0000a584       $unwind$?GetActiveTexHandle@BerconNoise@@UEAA_KHAEAVTexHandleMaker@@@Z 0000000180036584     BerconNoise.obj
 0002:0000a584       $unwind$?GetActiveTexHandle@BerconGradient@@UEAA_KHAEAVTexHandleMaker@@@Z 0000000180036584     BerconGradient.obj
 0002:0000a584       $unwind$?GetActiveTexHandle@BerconDistortion@@UEAA_KHAEAVTexHandleMaker@@@Z 0000000180036584     BerconDistortion.obj
 0002:0000a584       $unwind$?GetActiveTexHandle@BerconTile@@UEAA_KHAEAVTexHandleMaker@@@Z 0000000180036584     BerconTile.obj
 0002:0000a598       $chain$0$?GetActiveTexHandle@BerconTile@@UEAA_KHAEAVTexHandleMaker@@@Z 0000000180036598     BerconTile.obj
 0002:0000a5ac       $chain$1$?GetActiveTexHandle@BerconTile@@UEAA_KHAEAVTexHandleMaker@@@Z 00000001800365ac     BerconTile.obj
 0002:0000a5bc       $unwind$?CreateParamDlg@BerconTile@@UEAAPEAVParamDlg@@PEAUHWND__@@PEAVIMtlParams@@@Z 00000001800365bc     BerconTile.obj
 0002:0000a5d8       $ip2state$?CreateParamDlg@BerconTile@@UEAAPEAVParamDlg@@PEAUHWND__@@PEAVIMtlParams@@@Z 00000001800365d8     BerconTile.obj
 0002:0000a610       $unwind$?Update@BerconTile@@UEAAXHAEAVInterval@@@Z 0000000180036610     BerconTile.obj
 0002:0000a630       $stateUnwindMap$?Update@BerconTile@@UEAAXHAEAVInterval@@@Z 0000000180036630     BerconTile.obj
 0002:0000a638       $ip2state$?Update@BerconTile@@UEAAXHAEAVInterval@@@Z 0000000180036638     BerconTile.obj
 0002:0000a650       $unwind$?Reset@BerconTile@@UEAAXXZ 0000000180036650     BerconTile.obj
 0002:0000a650       $unwind$?Reset@BerconWood@@UEAAXXZ 0000000180036650     BerconWood.obj
 0002:0000a668       $unwind$?GetSubTexmapSlotName@BerconTile@@UEAA?AVWStr@@H@Z 0000000180036668     BerconTile.obj
 0002:0000a678       $ip2state$?GetSubTexmapSlotName@BerconTile@@UEAA?AVWStr@@H@Z 0000000180036678     BerconTile.obj
 0002:0000a698       $unwind$?EvalColor@BerconTile@@UEAA?AVAColor@@AEAVShadeContext@@@Z 0000000180036698     BerconTile.obj
 0002:0000a6c4       $stateUnwindMap$?EvalColor@BerconTile@@UEAA?AVAColor@@AEAVShadeContext@@@Z 00000001800366c4     BerconTile.obj
 0002:0000a700       $ip2state$?EvalColor@BerconTile@@UEAA?AVAColor@@AEAVShadeContext@@@Z 0000000180036700     BerconTile.obj
 0002:0000a728       $unwind$?EvalNormalPerturb@BerconTile@@UEAA?AVPoint3@@AEAVShadeContext@@@Z 0000000180036728     BerconTile.obj
 0002:0000a75c       $stateUnwindMap$?EvalNormalPerturb@BerconTile@@UEAA?AVPoint3@@AEAVShadeContext@@@Z 000000018003675c     BerconTile.obj
 0002:0000a798       $ip2state$?EvalNormalPerturb@BerconTile@@UEAA?AVPoint3@@AEAVShadeContext@@@Z 0000000180036798     BerconTile.obj
 0002:0000a7c0       $unwind$?Clone@BerconTile@@UEAAPEAVReferenceTarget@@AEAVRemapDir@@@Z 00000001800367c0     BerconTile.obj
 0002:0000a7e0       $ip2state$?Clone@BerconTile@@UEAAPEAVReferenceTarget@@AEAVRemapDir@@@Z 00000001800367e0     BerconTile.obj
 0002:0000a7f8       $chain$0$?NotifyRefChanged@BerconTile@@UEAA?AW4RefResult@@AEBVInterval@@PEAVReferenceTarget@@AEA_KIH@Z 00000001800367f8     BerconTile.obj
 0002:0000a80c       $chain$2$?NotifyRefChanged@BerconTile@@UEAA?AW4RefResult@@AEBVInterval@@PEAVReferenceTarget@@AEA_KIH@Z 000000018003680c     BerconTile.obj
 0002:0000a820       $chain$3$?NotifyRefChanged@BerconTile@@UEAA?AW4RefResult@@AEBVInterval@@PEAVReferenceTarget@@AEA_KIH@Z 0000000180036820     BerconTile.obj
 0002:0000a830       $unwind$?SubAnimName@BerconTile@@UEAA?AVWStr@@H@Z 0000000180036830     BerconTile.obj
 0002:0000a840       $ip2state$?SubAnimName@BerconTile@@UEAA?AVWStr@@H@Z 0000000180036840     BerconTile.obj
 0002:0000a850       $unwind$??0BerconTile@@QEAA@XZ 0000000180036850     BerconTile.obj
 0002:0000a864       $stateUnwindMap$??0BerconTile@@QEAA@XZ 0000000180036864     BerconTile.obj
 0002:0000a888       $ip2state$??0BerconTile@@QEAA@XZ 0000000180036888     BerconTile.obj
 0002:0000a8b8       $unwind$??1BerconTile@@UEAA@XZ 00000001800368b8     BerconTile.obj
 0002:0000a8c8       $stateUnwindMap$??1BerconTile@@UEAA@XZ 00000001800368c8     BerconTile.obj
 0002:0000a8e0       $ip2state$??1BerconTile@@UEAA@XZ 00000001800368e0     BerconTile.obj
 0002:0000a900       $unwind$?Create@BerconTileClassDesc@@UEAAPEAXH@Z 0000000180036900     BerconTile.obj
 0002:0000a910       $ip2state$?Create@BerconTileClassDesc@@UEAAPEAXH@Z 0000000180036910     BerconTile.obj
 0002:0000a928       $unwind$??_GBerconTileClassDesc@@UEAAPEAXI@Z 0000000180036928     BerconTile.obj
 0002:0000a940       $ip2state$??_GBerconTileClassDesc@@UEAAPEAXI@Z 0000000180036940     BerconTile.obj
 0002:0000a948       $unwind$??__EBerconTileDesc@@YAXXZ 0000000180036948     BerconTile.obj
 0002:0000a958       $stateUnwindMap$??__EBerconTileDesc@@YAXXZ 0000000180036958     BerconTile.obj
 0002:0000a958       $stateUnwindMap$??__FBerconTileDesc@@YAXXZ 0000000180036958     BerconTile.obj
 0002:0000a960       $ip2state$??__EBerconTileDesc@@YAXXZ 0000000180036960     BerconTile.obj
 0002:0000a978       $unwind$??__FBerconTileDesc@@YAXXZ 0000000180036978     BerconTile.obj
 0002:0000a988       $ip2state$??__FBerconTileDesc@@YAXXZ 0000000180036988     BerconTile.obj
 0002:0000a990       $unwind$??__Fxyz_blk@@YAXXZ 0000000180036990     BerconTile.obj
 0002:0000a9a0       $stateUnwindMap$??__Fxyz_blk@@YAXXZ 00000001800369a0     BerconTile.obj
 0002:0000a9a8       $ip2state$??__Fxyz_blk@@YAXXZ 00000001800369a8     BerconTile.obj
 0002:0000a9b0       $unwind$??__EBerconTile_param_blk@@YAXXZ 00000001800369b0     BerconTile.obj
 0002:0000a9b8       $unwind$??__EBerconMap_param_blk@@YAXXZ 00000001800369b8     BerconTile.obj
 0002:0000a9c0       $unwind$??_GBerconTileDlgProc@@UEAAPEAXI@Z 00000001800369c0     BerconTile.obj
 0002:0000a9d0       $ip2state$??_GBerconTileDlgProc@@UEAAPEAXI@Z 00000001800369d0     BerconTile.obj
 0002:0000a9d8       $unwind$??$_Destroy_range1@V?$allocator@VTileRow@@@std@@PEAVTileRow@@@std@@YAXPEAVTileRow@@0AEAU?$_Wrap_alloc@V?$allocator@VTileRow@@@std@@@0@U?$integral_constant@_N$0A@@0@@Z 00000001800369d8     BerconTile.obj
 0002:0000a9f8       $ip2state$??$_Destroy_range1@V?$allocator@VTileRow@@@std@@PEAVTileRow@@@std@@YAXPEAVTileRow@@0AEAU?$_Wrap_alloc@V?$allocator@VTileRow@@@std@@@0@U?$integral_constant@_N$0A@@0@@Z 00000001800369f8     BerconTile.obj
 0002:0000aa00       $unwind$?applyDistortion@BerconNoise@@QEAAXAEAVShadeContext@@AEAVPoint3@@@Z 0000000180036a00     BerconNoise.obj
 0002:0000aa00       $unwind$?applyDistortion@BerconWood@@QEAAXAEAVShadeContext@@AEAVPoint3@@@Z 0000000180036a00     BerconWood.obj
 0002:0000aa00       $unwind$?getDistVector@BerconTile@@QEAA?AVPoint3@@AEAVShadeContext@@@Z 0000000180036a00     BerconTile.obj
 0002:0000aa10       $chain$0$?applyDistortion@BerconWood@@QEAAXAEAVShadeContext@@AEAVPoint3@@@Z 0000000180036a10     BerconWood.obj
 0002:0000aa24       $chain$2$?applyDistortion@BerconWood@@QEAAXAEAVShadeContext@@AEAVPoint3@@@Z 0000000180036a24     BerconWood.obj
 0002:0000aa3c       $chain$3$?applyDistortion@BerconWood@@QEAAXAEAVShadeContext@@AEAVPoint3@@@Z 0000000180036a3c     BerconWood.obj
 0002:0000aa4c       $chain$4$?applyDistortion@BerconWood@@QEAAXAEAVShadeContext@@AEAVPoint3@@@Z 0000000180036a4c     BerconWood.obj
 0002:0000aa5c       $chain$0$?EnableStuff@BerconWood@@QEAAXXZ 0000000180036a5c     BerconWood.obj
 0002:0000aa70       $chain$4$?EnableStuff@BerconWood@@QEAAXXZ 0000000180036a70     BerconWood.obj
 0002:0000aa90       $chain$5$?EnableStuff@BerconWood@@QEAAXXZ 0000000180036a90     BerconWood.obj
 0002:0000aaa0       $chain$6$?EnableStuff@BerconWood@@QEAAXXZ 0000000180036aa0     BerconWood.obj
 0002:0000aab0       $unwind$?ActivateTexDisplay@BerconGradient@@UEAAXH@Z 0000000180036ab0     BerconGradient.obj
 0002:0000aab0       $unwind$?ActivateTexDisplay@BerconDistortion@@UEAAXH@Z 0000000180036ab0     BerconDistortion.obj
 0002:0000aab0       $unwind$?ActivateTexDisplay@BerconTile@@UEAAXH@Z 0000000180036ab0     BerconTile.obj
 0002:0000aab0       $unwind$?ActivateTexDisplay@BerconNoise@@UEAAXH@Z 0000000180036ab0     BerconNoise.obj
 0002:0000aab0       $unwind$?ActivateTexDisplay@BerconWood@@UEAAXH@Z 0000000180036ab0     BerconWood.obj
 0002:0000aab8       $chain$0$?GetActiveTexHandle@BerconWood@@UEAA_KHAEAVTexHandleMaker@@@Z 0000000180036ab8     BerconWood.obj
 0002:0000aacc       $chain$1$?GetActiveTexHandle@BerconWood@@UEAA_KHAEAVTexHandleMaker@@@Z 0000000180036acc     BerconWood.obj
 0002:0000aadc       $unwind$?CreateParamDlg@BerconWood@@UEAAPEAVParamDlg@@PEAUHWND__@@PEAVIMtlParams@@@Z 0000000180036adc     BerconWood.obj
 0002:0000aaf8       $stateUnwindMap$?CreateParamDlg@BerconTile@@UEAAPEAVParamDlg@@PEAUHWND__@@PEAVIMtlParams@@@Z 0000000180036af8     BerconTile.obj
 0002:0000aaf8       $stateUnwindMap$?CreateParamDlg@BerconWood@@UEAAPEAVParamDlg@@PEAUHWND__@@PEAVIMtlParams@@@Z 0000000180036af8     BerconWood.obj
 0002:0000aaf8       $stateUnwindMap$?CreateParamDlg@BerconGradient@@UEAAPEAVParamDlg@@PEAUHWND__@@PEAVIMtlParams@@@Z 0000000180036af8     BerconGradient.obj
 0002:0000aaf8       $stateUnwindMap$?CreateParamDlg@BerconNoise@@UEAAPEAVParamDlg@@PEAUHWND__@@PEAVIMtlParams@@@Z 0000000180036af8     BerconNoise.obj
 0002:0000ab18       $ip2state$?CreateParamDlg@BerconWood@@UEAAPEAVParamDlg@@PEAUHWND__@@PEAVIMtlParams@@@Z 0000000180036b18     BerconWood.obj
 0002:0000ab50       $unwind$?Update@BerconWood@@UEAAXHAEAVInterval@@@Z 0000000180036b50     BerconWood.obj
 0002:0000ab50       $unwind$?Update@BerconNoise@@UEAAXHAEAVInterval@@@Z 0000000180036b50     BerconNoise.obj
 0002:0000ab5c       $chain$0$?Update@BerconWood@@UEAAXHAEAVInterval@@@Z 0000000180036b5c     BerconWood.obj
 0002:0000ab70       $chain$4$?Update@BerconWood@@UEAAXHAEAVInterval@@@Z 0000000180036b70     BerconWood.obj
 0002:0000ab90       $chain$5$?Update@BerconWood@@UEAAXHAEAVInterval@@@Z 0000000180036b90     BerconWood.obj
 0002:0000aba8       $chain$6$?Update@BerconWood@@UEAAXHAEAVInterval@@@Z 0000000180036ba8     BerconWood.obj
 0002:0000abbc       $chain$7$?Update@BerconWood@@UEAAXHAEAVInterval@@@Z 0000000180036bbc     BerconWood.obj
 0002:0000abcc       $chain$8$?Update@BerconWood@@UEAAXHAEAVInterval@@@Z 0000000180036bcc     BerconWood.obj
 0002:0000abdc       $unwind$?GetSubTexmapSlotName@BerconWood@@UEAA?AVWStr@@H@Z 0000000180036bdc     BerconWood.obj
 0002:0000abf0       $ip2state$?GetSubTexmapSlotName@BerconWood@@UEAA?AVWStr@@H@Z 0000000180036bf0     BerconWood.obj
 0002:0000ac10       $unwind$?EvalColor@BerconWood@@UEAA?AVAColor@@AEAVShadeContext@@@Z 0000000180036c10     BerconWood.obj
 0002:0000ac2c       $chain$8$?EvalColor@BerconWood@@UEAA?AVAColor@@AEAVShadeContext@@@Z 0000000180036c2c     BerconWood.obj
 0002:0000ac60       $chain$9$?EvalColor@BerconWood@@UEAA?AVAColor@@AEAVShadeContext@@@Z 0000000180036c60     BerconWood.obj
 0002:0000ac70       $unwind$?EvalNormalPerturb@BerconWood@@UEAA?AVPoint3@@AEAVShadeContext@@@Z 0000000180036c70     BerconWood.obj
 0002:0000ac88       $chain$10$?EvalNormalPerturb@BerconWood@@UEAA?AVPoint3@@AEAVShadeContext@@@Z 0000000180036c88     BerconWood.obj
 0002:0000acc4       $chain$11$?EvalNormalPerturb@BerconWood@@UEAA?AVPoint3@@AEAVShadeContext@@@Z 0000000180036cc4     BerconWood.obj
 0002:0000acf8       $chain$12$?EvalNormalPerturb@BerconWood@@UEAA?AVPoint3@@AEAVShadeContext@@@Z 0000000180036cf8     BerconWood.obj
 0002:0000ad0c       $chain$13$?EvalNormalPerturb@BerconWood@@UEAA?AVPoint3@@AEAVShadeContext@@@Z 0000000180036d0c     BerconWood.obj
 0002:0000ad1c       $unwind$?Clone@BerconWood@@UEAAPEAVReferenceTarget@@AEAVRemapDir@@@Z 0000000180036d1c     BerconWood.obj
 0002:0000ad40       $ip2state$?Clone@BerconWood@@UEAAPEAVReferenceTarget@@AEAVRemapDir@@@Z 0000000180036d40     BerconWood.obj
 0002:0000ad58       $chain$0$?NotifyRefChanged@BerconWood@@UEAA?AW4RefResult@@AEBVInterval@@PEAVReferenceTarget@@AEA_KIH@Z 0000000180036d58     BerconWood.obj
 0002:0000ad6c       $chain$2$?NotifyRefChanged@BerconWood@@UEAA?AW4RefResult@@AEBVInterval@@PEAVReferenceTarget@@AEA_KIH@Z 0000000180036d6c     BerconWood.obj
 0002:0000ad80       $chain$3$?NotifyRefChanged@BerconWood@@UEAA?AW4RefResult@@AEBVInterval@@PEAVReferenceTarget@@AEA_KIH@Z 0000000180036d80     BerconWood.obj
 0002:0000ad90       $unwind$?SubAnimName@BerconWood@@UEAA?AVWStr@@H@Z 0000000180036d90     BerconWood.obj
 0002:0000ada0       $ip2state$?SubAnimName@BerconWood@@UEAA?AVWStr@@H@Z 0000000180036da0     BerconWood.obj
 0002:0000adc0       $unwind$??0BerconWood@@QEAA@XZ 0000000180036dc0     BerconWood.obj
 0002:0000add4       $stateUnwindMap$??0BerconWood@@QEAA@XZ 0000000180036dd4     BerconWood.obj
 0002:0000add4       $stateUnwindMap$??0BerconNoise@@QEAA@XZ 0000000180036dd4     BerconNoise.obj
 0002:0000ade0       $ip2state$??0BerconWood@@QEAA@XZ 0000000180036de0     BerconWood.obj
 0002:0000adf8       $unwind$??1BerconWood@@UEAA@XZ 0000000180036df8     BerconWood.obj
 0002:0000ae08       $ip2state$??1BerconWood@@UEAA@XZ 0000000180036e08     BerconWood.obj
 0002:0000ae20       $unwind$?Create@BerconWoodClassDesc@@UEAAPEAXH@Z 0000000180036e20     BerconWood.obj
 0002:0000ae30       $ip2state$?Create@BerconWoodClassDesc@@UEAAPEAXH@Z 0000000180036e30     BerconWood.obj
 0002:0000ae48       $unwind$??_GBerconWoodClassDesc@@UEAAPEAXI@Z 0000000180036e48     BerconWood.obj
 0002:0000ae60       $ip2state$??_GBerconWoodClassDesc@@UEAAPEAXI@Z 0000000180036e60     BerconWood.obj
 0002:0000ae68       $unwind$??__EBerconWoodDesc@@YAXXZ 0000000180036e68     BerconWood.obj
 0002:0000ae78       $ip2state$??__EBerconWoodDesc@@YAXXZ 0000000180036e78     BerconWood.obj
 0002:0000ae90       $unwind$??__FBerconWoodDesc@@YAXXZ 0000000180036e90     BerconWood.obj
 0002:0000aea0       $stateUnwindMap$??__FBerconWoodDesc@@YAXXZ 0000000180036ea0     BerconWood.obj
 0002:0000aea0       $stateUnwindMap$??__EBerconWoodDesc@@YAXXZ 0000000180036ea0     BerconWood.obj
 0002:0000aea8       $ip2state$??__FBerconWoodDesc@@YAXXZ 0000000180036ea8     BerconWood.obj
 0002:0000aeb0       $unwind$??__Fxyz_blk@@YAXXZ 0000000180036eb0     BerconWood.obj
 0002:0000aec0       $stateUnwindMap$??__Fxyz_blk@@YAXXZ 0000000180036ec0     BerconWood.obj
 0002:0000aec8       $ip2state$??__Fxyz_blk@@YAXXZ 0000000180036ec8     BerconWood.obj
 0002:0000aed0       $unwind$??__EBerconWood_param_blk@@YAXXZ 0000000180036ed0     BerconWood.obj
 0002:0000aedc       $unwind$??__EBerconMap_param_blk@@YAXXZ 0000000180036edc     BerconWood.obj
 0002:0000aee4       $unwind$?DlgProc@BerconWoodDlgProc@@UEAA_JHPEAVIParamMap2@@PEAUHWND__@@I_K_J@Z 0000000180036ee4     BerconWood.obj
 0002:0000aef8       $unwind$??_GBerconWoodDlgProc@@UEAAPEAXI@Z 0000000180036ef8     BerconWood.obj
 0002:0000af08       $stateUnwindMap$??_GBerconNoiseDlgProc@@UEAAPEAXI@Z 0000000180036f08     BerconNoise.obj
 0002:0000af08       $stateUnwindMap$??_GBerconTileDlgProc@@UEAAPEAXI@Z 0000000180036f08     BerconTile.obj
 0002:0000af08       $stateUnwindMap$??_GBerconXYZDlgProc@@UEAAPEAXI@Z 0000000180036f08     BerconDistortion.obj
 0002:0000af08       $stateUnwindMap$??_GBerconWoodDlgProc@@UEAAPEAXI@Z 0000000180036f08     BerconWood.obj
 0002:0000af08       $stateUnwindMap$??_GBerconGradientDlgProc@@UEAAPEAXI@Z 0000000180036f08     BerconGradient.obj
 0002:0000af08       $stateUnwindMap$?DeleteThis@BerconXYZDlgProc@@UEAAXXZ 0000000180036f08     BerconDistortion.obj
 0002:0000af10       $ip2state$??_GBerconWoodDlgProc@@UEAAPEAXI@Z 0000000180036f10     BerconWood.obj
 0002:0000af18       $unwind$WinbaseIsolationAwarePrivatetRgzlnPgpgk 0000000180036f18     DllEntry.obj
 0002:0000af3c       $unwind$?EnableStuff@BerconWood@@QEAAXXZ 0000000180036f3c     BerconWood.obj
 0002:0000af3c       $unwind$WinbaseIsolationAwarePrivatetRgzlnPgpgk$fin$0 0000000180036f3c     DllEntry.obj
 0002:0000af44       $unwind$CommctrlIsolationAwarePrivatetRgCebPnQQeRff_pbZPgYQP_QYY 0000000180036f44     DllEntry.obj
 0002:0000af70       $unwind$IsolationAwareRegisterClassExW$fin$0 0000000180036f70     IGradient.obj
 0002:0000af70       $unwind$CommctrlIsolationAwarePrivatetRgCebPnQQeRff_pbZPgYQP_QYY$fin$0 0000000180036f70     DllEntry.obj
 0002:0000af7c       $unwind$IsolationAwareInitCommonControls 0000000180036f7c     DllEntry.obj
 0002:0000af9c       $chain$0$?GetString@@YAPEA_WH@Z 0000000180036f9c     DllEntry.obj
 0002:0000afb0       $chain$1$?GetString@@YAPEA_WH@Z 0000000180036fb0     DllEntry.obj
 0002:0000afc0       $chain$0$?LibDescription@@YAPEB_WXZ 0000000180036fc0     DllEntry.obj
 0002:0000afd4       $chain$1$?LibDescription@@YAPEB_WXZ 0000000180036fd4     DllEntry.obj
 0002:0000afe4       $unwind$?setSpinnerType@@YAXPEAVIParamMap2@@HHHHH_N@Z 0000000180036fe4     BerconCommon.obj
 0002:0000afe4       $unwind$?setSpinnerType@@YAXPEAVIParamMap2@@HHHHH_N@Z 0000000180036fe4     BerconTile.obj
 0002:0000aff8       $chain$0$?setSpinnerType@@YAXPEAVIParamMap2@@HHHHH_N@Z 0000000180036ff8     BerconTile.obj
 0002:0000aff8       $chain$0$?setSpinnerType@@YAXPEAVIParamMap2@@HHHHH_N@Z 0000000180036ff8     BerconCommon.obj
 0002:0000b00c       $chain$1$?setSpinnerType@@YAXPEAVIParamMap2@@HHHHH_N@Z 000000018003700c     BerconCommon.obj
 0002:0000b00c       $chain$1$?setSpinnerType@@YAXPEAVIParamMap2@@HHHHH_N@Z 000000018003700c     BerconTile.obj
 0002:0000b01c       $unwind$?update@BerconXYZ@@QEAAXPEAVIParamBlock2@@HAEAVInterval@@@Z 000000018003701c     BerconCommon.obj
 0002:0000b02c       $chain$3$?update@BerconXYZ@@QEAAXPEAVIParamBlock2@@HAEAVInterval@@@Z 000000018003702c     BerconCommon.obj
 0002:0000b04c       $chain$4$?update@BerconXYZ@@QEAAXPEAVIParamBlock2@@HAEAVInterval@@@Z 000000018003704c     BerconCommon.obj
 0002:0000b05c       $unwind$?update@BerconXYZ@@QEAAXXZ 000000018003705c     BerconCommon.obj
 0002:0000b068       $unwind$?reset@BerconXYZ@@QEAAXPEAVIParamBlock2@@AEAVInterval@@HHHH@Z 0000000180037068     BerconCommon.obj
 0002:0000b078       $chain$2$?reset@BerconXYZ@@QEAAXPEAVIParamBlock2@@AEAVInterval@@HHHH@Z 0000000180037078     BerconCommon.obj
 0002:0000b094       $chain$3$?reset@BerconXYZ@@QEAAXPEAVIParamBlock2@@AEAVInterval@@HHHH@Z 0000000180037094     BerconCommon.obj
 0002:0000b0a4       $unwind$?get@BerconXYZ@@QEAAHAEAVShadeContext@@AEAVPoint3@@11@Z 00000001800370a4     BerconCommon.obj
 0002:0000b0bc       $unwind$?get@BerconXYZ@@QEAAHAEAVShadeContext@@AEAVPoint3@@11PEAV3@@Z 00000001800370bc     BerconCommon.obj
 0002:0000b0dc       $unwind$?get@BerconXYZ@@QEAAHAEAVShadeContext@@AEAVPoint3@@@Z 00000001800370dc     BerconCommon.obj
 0002:0000b0f0       $unwind$?get@BerconXYZ@@QEAAHAEAVShadeContext@@AEAVPoint3@@PEAV3@@Z 00000001800370f0     BerconCommon.obj
 0002:0000b110       $unwind$?get@BerconXYZ@@AEAAHAEAVShadeContext@@AEAVPoint3@@11VMatrix3@@PEAH@Z 0000000180037110     BerconCommon.obj
 0002:0000b128       $chain$0$?get@BerconXYZ@@AEAAHAEAVShadeContext@@AEAVPoint3@@11VMatrix3@@PEAH@Z 0000000180037128     BerconCommon.obj
 0002:0000b13c       $chain$1$?get@BerconXYZ@@AEAAHAEAVShadeContext@@AEAVPoint3@@11VMatrix3@@PEAH@Z 000000018003713c     BerconCommon.obj
 0002:0000b150       $chain$2$?get@BerconXYZ@@AEAAHAEAVShadeContext@@AEAVPoint3@@11VMatrix3@@PEAH@Z 0000000180037150     BerconCommon.obj
 0002:0000b160       $chain$3$?get@BerconXYZ@@AEAAHAEAVShadeContext@@AEAVPoint3@@11VMatrix3@@PEAH@Z 0000000180037160     BerconCommon.obj
 0002:0000b170       $unwind$?get@BerconXYZ@@AEAAHAEAVShadeContext@@AEAVPoint3@@VMatrix3@@PEAH@Z 0000000180037170     BerconCommon.obj
 0002:0000b184       $chain$1$?get@BerconXYZ@@AEAAHAEAVShadeContext@@AEAVPoint3@@VMatrix3@@PEAH@Z 0000000180037184     BerconCommon.obj
 0002:0000b19c       $chain$2$?get@BerconXYZ@@AEAAHAEAVShadeContext@@AEAVPoint3@@VMatrix3@@PEAH@Z 000000018003719c     BerconCommon.obj
 0002:0000b1ac       $unwind$?seedRandomGen@BerconXYZ@@AEAAXAEAVShadeContext@@@Z 00000001800371ac     BerconCommon.obj
 0002:0000b1bc       $chain$0$?seedRandomGen@BerconXYZ@@AEAAXAEAVShadeContext@@@Z 00000001800371bc     BerconCommon.obj
 0002:0000b1d0       $chain$1$?seedRandomGen@BerconXYZ@@AEAAXAEAVShadeContext@@@Z 00000001800371d0     BerconCommon.obj
 0002:0000b1e4       $chain$2$?seedRandomGen@BerconXYZ@@AEAAXAEAVShadeContext@@@Z 00000001800371e4     BerconCommon.obj
 0002:0000b1f4       $chain$3$?seedRandomGen@BerconXYZ@@AEAAXAEAVShadeContext@@@Z 00000001800371f4     BerconCommon.obj
 0002:0000b204       $unwind$?random@BerconXYZ@@AEAA?AVMatrix3@@AEAVShadeContext@@PEAV2@@Z 0000000180037204     BerconCommon.obj
 0002:0000b224       $unwind$?EnableStuff@BerconXYZ@@AEAAXPEAVIParamBlock2@@H@Z 0000000180037224     BerconCommon.obj
 0002:0000b230       $chain$0$?EnableStuff@BerconXYZ@@AEAAXPEAVIParamBlock2@@H@Z 0000000180037230     BerconCommon.obj
 0002:0000b244       $chain$2$?EnableStuff@BerconXYZ@@AEAAXPEAVIParamBlock2@@H@Z 0000000180037244     BerconCommon.obj
 0002:0000b25c       $chain$3$?EnableStuff@BerconXYZ@@AEAAXPEAVIParamBlock2@@H@Z 000000018003725c     BerconCommon.obj
 0002:0000b26c       $chain$4$?EnableStuff@BerconXYZ@@AEAAXPEAVIParamBlock2@@H@Z 000000018003726c     BerconCommon.obj
 0002:0000b27c       $unwind$?getBasis@BerconXYZ@@AEAAXVMatrix3@@PEAVPoint3@@@Z 000000018003727c     BerconCommon.obj
 0002:0000b28c       $chain$0$?NotifyRefChanged@BerconNoise@@UEAA?AW4RefResult@@AEBVInterval@@PEAVReferenceTarget@@AEA_KIH@Z 000000018003728c     BerconNoise.obj
 0002:0000b2a0       $chain$2$?NotifyRefChanged@BerconNoise@@UEAA?AW4RefResult@@AEBVInterval@@PEAVReferenceTarget@@AEA_KIH@Z 00000001800372a0     BerconNoise.obj
 0002:0000b2b4       $chain$3$?NotifyRefChanged@BerconNoise@@UEAA?AW4RefResult@@AEBVInterval@@PEAVReferenceTarget@@AEA_KIH@Z 00000001800372b4     BerconNoise.obj
 0002:0000b2c4       $chain$0$?applyDistortion@BerconNoise@@QEAAXAEAVShadeContext@@AEAVPoint3@@@Z 00000001800372c4     BerconNoise.obj
 0002:0000b2d8       $chain$2$?applyDistortion@BerconNoise@@QEAAXAEAVShadeContext@@AEAVPoint3@@@Z 00000001800372d8     BerconNoise.obj
 0002:0000b2f0       $chain$3$?applyDistortion@BerconNoise@@QEAAXAEAVShadeContext@@AEAVPoint3@@@Z 00000001800372f0     BerconNoise.obj
 0002:0000b300       $chain$4$?applyDistortion@BerconNoise@@QEAAXAEAVShadeContext@@AEAVPoint3@@@Z 0000000180037300     BerconNoise.obj
 0002:0000b310       $unwind$?EnableStuff@BerconNoise@@QEAAXXZ 0000000180037310     BerconNoise.obj
 0002:0000b318       $chain$0$?EnableStuff@BerconNoise@@QEAAXXZ 0000000180037318     BerconNoise.obj
 0002:0000b32c       $chain$5$?EnableStuff@BerconNoise@@QEAAXXZ 000000018003732c     BerconNoise.obj
 0002:0000b350       $chain$6$?EnableStuff@BerconNoise@@QEAAXXZ 0000000180037350     BerconNoise.obj
 0002:0000b370       $chain$7$?EnableStuff@BerconNoise@@QEAAXXZ 0000000180037370     BerconNoise.obj
 0002:0000b380       $chain$8$?EnableStuff@BerconNoise@@QEAAXXZ 0000000180037380     BerconNoise.obj
 0002:0000b390       $chain$0$?GetActiveTexHandle@BerconNoise@@UEAA_KHAEAVTexHandleMaker@@@Z 0000000180037390     BerconNoise.obj
 0002:0000b3a4       $chain$1$?GetActiveTexHandle@BerconNoise@@UEAA_KHAEAVTexHandleMaker@@@Z 00000001800373a4     BerconNoise.obj
 0002:0000b3b4       $unwind$?CreateParamDlg@BerconNoise@@UEAAPEAVParamDlg@@PEAUHWND__@@PEAVIMtlParams@@@Z 00000001800373b4     BerconNoise.obj
 0002:0000b3d0       $ip2state$?CreateParamDlg@BerconNoise@@UEAAPEAVParamDlg@@PEAUHWND__@@PEAVIMtlParams@@@Z 00000001800373d0     BerconNoise.obj
 0002:0000b408       $chain$0$?Update@BerconNoise@@UEAAXHAEAVInterval@@@Z 0000000180037408     BerconNoise.obj
 0002:0000b41c       $chain$4$?Update@BerconNoise@@UEAAXHAEAVInterval@@@Z 000000018003741c     BerconNoise.obj
 0002:0000b43c       $chain$5$?Update@BerconNoise@@UEAAXHAEAVInterval@@@Z 000000018003743c     BerconNoise.obj
 0002:0000b450       $chain$6$?Update@BerconNoise@@UEAAXHAEAVInterval@@@Z 0000000180037450     BerconNoise.obj
 0002:0000b460       $chain$7$?Update@BerconNoise@@UEAAXHAEAVInterval@@@Z 0000000180037460     BerconNoise.obj
 0002:0000b470       $unwind$?Reset@BerconNoise@@UEAAXXZ 0000000180037470     BerconNoise.obj
 0002:0000b484       $chain$0$?Reset@BerconNoise@@UEAAXXZ 0000000180037484     BerconNoise.obj
 0002:0000b498       $chain$1$?Reset@BerconNoise@@UEAAXXZ 0000000180037498     BerconNoise.obj
 0002:0000b4a8       $unwind$?GetSubTexmapSlotName@BerconNoise@@UEAA?AVWStr@@H@Z 00000001800374a8     BerconNoise.obj
 0002:0000b4b8       $ip2state$?GetSubTexmapSlotName@BerconNoise@@UEAA?AVWStr@@H@Z 00000001800374b8     BerconNoise.obj
 0002:0000b4d8       $unwind$?EvalColor@BerconNoise@@UEAA?AVAColor@@AEAVShadeContext@@@Z 00000001800374d8     BerconNoise.obj
 0002:0000b4f0       $chain$5$?EvalColor@BerconNoise@@UEAA?AVAColor@@AEAVShadeContext@@@Z 00000001800374f0     BerconNoise.obj
 0002:0000b518       $chain$6$?EvalColor@BerconNoise@@UEAA?AVAColor@@AEAVShadeContext@@@Z 0000000180037518     BerconNoise.obj
 0002:0000b528       $unwind$?EvalNormalPerturb@BerconNoise@@UEAA?AVPoint3@@AEAVShadeContext@@@Z 0000000180037528     BerconNoise.obj
 0002:0000b53c       $chain$2$?EvalNormalPerturb@BerconNoise@@UEAA?AVPoint3@@AEAVShadeContext@@@Z 000000018003753c     BerconNoise.obj
 0002:0000b558       $chain$3$?EvalNormalPerturb@BerconNoise@@UEAA?AVPoint3@@AEAVShadeContext@@@Z 0000000180037558     BerconNoise.obj
 0002:0000b56c       $chain$6$?EvalNormalPerturb@BerconNoise@@UEAA?AVPoint3@@AEAVShadeContext@@@Z 000000018003756c     BerconNoise.obj
 0002:0000b588       $chain$7$?EvalNormalPerturb@BerconNoise@@UEAA?AVPoint3@@AEAVShadeContext@@@Z 0000000180037588     BerconNoise.obj
 0002:0000b598       $chain$8$?EvalNormalPerturb@BerconNoise@@UEAA?AVPoint3@@AEAVShadeContext@@@Z 0000000180037598     BerconNoise.obj
 0002:0000b5a8       $unwind$?Clone@BerconNoise@@UEAAPEAVReferenceTarget@@AEAVRemapDir@@@Z 00000001800375a8     BerconNoise.obj
 0002:0000b5cc       $stateUnwindMap$?Clone@BerconNoise@@UEAAPEAVReferenceTarget@@AEAVRemapDir@@@Z 00000001800375cc     BerconNoise.obj
 0002:0000b5cc       $stateUnwindMap$?Clone@BerconWood@@UEAAPEAVReferenceTarget@@AEAVRemapDir@@@Z 00000001800375cc     BerconWood.obj
 0002:0000b5cc       $stateUnwindMap$?Clone@BerconTile@@UEAAPEAVReferenceTarget@@AEAVRemapDir@@@Z 00000001800375cc     BerconTile.obj
 0002:0000b5cc       $stateUnwindMap$?Clone@BerconDistortion@@UEAAPEAVReferenceTarget@@AEAVRemapDir@@@Z 00000001800375cc     BerconDistortion.obj
 0002:0000b5d8       $ip2state$?Clone@BerconNoise@@UEAAPEAVReferenceTarget@@AEAVRemapDir@@@Z 00000001800375d8     BerconNoise.obj
 0002:0000b5f0       $unwind$?SubAnimName@BerconNoise@@UEAA?AVWStr@@H@Z 00000001800375f0     BerconNoise.obj
 0002:0000b600       $ip2state$?SubAnimName@BerconNoise@@UEAA?AVWStr@@H@Z 0000000180037600     BerconNoise.obj
 0002:0000b620       $unwind$??0BerconNoise@@QEAA@XZ 0000000180037620     BerconNoise.obj
 0002:0000b638       $ip2state$??0BerconNoise@@QEAA@XZ 0000000180037638     BerconNoise.obj
 0002:0000b650       $unwind$??1BerconNoise@@UEAA@XZ 0000000180037650     BerconNoise.obj
 0002:0000b660       $ip2state$??1BerconNoise@@UEAA@XZ 0000000180037660     BerconNoise.obj
 0002:0000b678       $unwind$?Create@BerconNoiseClassDesc@@UEAAPEAXH@Z 0000000180037678     BerconNoise.obj
 0002:0000b688       $ip2state$?Create@BerconNoiseClassDesc@@UEAAPEAXH@Z 0000000180037688     BerconNoise.obj
 0002:0000b6a0       $unwind$??_GBerconNoiseClassDesc@@UEAAPEAXI@Z 00000001800376a0     BerconNoise.obj
 0002:0000b6b4       $stateUnwindMap$??_GBerconNoiseClassDesc@@UEAAPEAXI@Z 00000001800376b4     BerconNoise.obj
 0002:0000b6b4       $stateUnwindMap$??_GBerconWoodClassDesc@@UEAAPEAXI@Z 00000001800376b4     BerconWood.obj
 0002:0000b6b4       $stateUnwindMap$??_GBerconDistortionClassDesc@@UEAAPEAXI@Z 00000001800376b4     BerconDistortion.obj
 0002:0000b6b4       $stateUnwindMap$??_GBerconGradientClassDesc@@UEAAPEAXI@Z 00000001800376b4     BerconGradient.obj
 0002:0000b6b4       $stateUnwindMap$??_GBerconTileClassDesc@@UEAAPEAXI@Z 00000001800376b4     BerconTile.obj
 0002:0000b6c0       $ip2state$??_GBerconNoiseClassDesc@@UEAAPEAXI@Z 00000001800376c0     BerconNoise.obj
 0002:0000b6c8       $unwind$??__EBerconNoiseDesc@@YAXXZ 00000001800376c8     BerconNoise.obj
 0002:0000b6d8       $stateUnwindMap$??__EBerconNoiseDesc@@YAXXZ 00000001800376d8     BerconNoise.obj
 0002:0000b6d8       $stateUnwindMap$??__FBerconNoiseDesc@@YAXXZ 00000001800376d8     BerconNoise.obj
 0002:0000b6e0       $ip2state$??__EBerconNoiseDesc@@YAXXZ 00000001800376e0     BerconNoise.obj
 0002:0000b6f8       $unwind$??__FBerconNoiseDesc@@YAXXZ 00000001800376f8     BerconNoise.obj
 0002:0000b708       $ip2state$??__FBerconNoiseDesc@@YAXXZ 0000000180037708     BerconNoise.obj
 0002:0000b710       $unwind$??__Fxyz_blk@@YAXXZ 0000000180037710     BerconNoise.obj
 0002:0000b720       $stateUnwindMap$??__Fxyz_blk@@YAXXZ 0000000180037720     BerconNoise.obj
 0002:0000b728       $ip2state$??__Fxyz_blk@@YAXXZ 0000000180037728     BerconNoise.obj
 0002:0000b730       $unwind$??__Eberconnoise_param_blk@@YAXXZ 0000000180037730     BerconNoise.obj
 0002:0000b738       $unwind$??__EBerconMap_param_blk@@YAXXZ 0000000180037738     BerconNoise.obj
 0002:0000b740       $unwind$?DlgProc@BerconTileDlgProc@@UEAA_JHPEAVIParamMap2@@PEAUHWND__@@I_K_J@Z 0000000180037740     BerconTile.obj
 0002:0000b740       $unwind$?DlgProc@BerconNoiseDlgProc@@UEAA_JHPEAVIParamMap2@@PEAUHWND__@@I_K_J@Z 0000000180037740     BerconNoise.obj
 0002:0000b75c       $unwind$??_GBerconNoiseDlgProc@@UEAAPEAXI@Z 000000018003775c     BerconNoise.obj
 0002:0000b770       $ip2state$??_GBerconNoiseDlgProc@@UEAAPEAXI@Z 0000000180037770     BerconNoise.obj
 0002:0000b778       $unwind$?fractal@Fractal@@SAMVPoint3@@AEAVNoiseParams@@@Z 0000000180037778     fractal.obj
 0002:0000b798       $chain$0$?fractal@Fractal@@SAMVPoint3@@AEAVNoiseParams@@@Z 0000000180037798     fractal.obj
 0002:0000b7ac       $chain$1$?fractal@Fractal@@SAMVPoint3@@AEAVNoiseParams@@@Z 00000001800377ac     fractal.obj
 0002:0000b7c0       $chain$2$?fractal@Fractal@@SAMVPoint3@@AEAVNoiseParams@@@Z 00000001800377c0     fractal.obj
 0002:0000b7d0       $chain$3$?fractal@Fractal@@SAMVPoint3@@AEAVNoiseParams@@@Z 00000001800377d0     fractal.obj
 0002:0000b7e0       $unwind$?turbulence@Fractal@@SAMVPoint3@@AEAVNoiseParams@@@Z 00000001800377e0     fractal.obj
 0002:0000b800       $chain$1$?turbulence@Fractal@@SAMVPoint3@@AEAVNoiseParams@@@Z 0000000180037800     fractal.obj
 0002:0000b818       $chain$2$?turbulence@Fractal@@SAMVPoint3@@AEAVNoiseParams@@@Z 0000000180037818     fractal.obj
 0002:0000b82c       $chain$3$?turbulence@Fractal@@SAMVPoint3@@AEAVNoiseParams@@@Z 000000018003782c     fractal.obj
 0002:0000b83c       $chain$4$?turbulence@Fractal@@SAMVPoint3@@AEAVNoiseParams@@@Z 000000018003783c     fractal.obj
 0002:0000b84c       $unwind$?fBm@Fractal@@SAMVPoint3@@AEAVNoiseParams@@@Z 000000018003784c     fractal.obj
 0002:0000b86c       $unwind$?fBmTurb@Fractal@@SAMVPoint3@@AEAVNoiseParams@@@Z 000000018003786c     fractal.obj
 0002:0000b890       $unwind$?heteroTerrain@Fractal@@SAMVPoint3@@AEAVNoiseParams@@@Z 0000000180037890     fractal.obj
 0002:0000b8ac       $unwind$?hybridMultiFractal@Fractal@@SAMVPoint3@@AEAVNoiseParams@@@Z 00000001800378ac     fractal.obj
 0002:0000b8d8       $unwind$?ridgedMultiFractal@Fractal@@SAMVPoint3@@AEAVNoiseParams@@@Z 00000001800378d8     fractal.obj
 0002:0000b8fc       $chain$1$?ridgedMultiFractal@Fractal@@SAMVPoint3@@AEAVNoiseParams@@@Z 00000001800378fc     fractal.obj
 0002:0000b914       $chain$2$?ridgedMultiFractal@Fractal@@SAMVPoint3@@AEAVNoiseParams@@@Z 0000000180037914     fractal.obj
 0002:0000b924       $unwind$?fractal@Fractal@@SAMVPoint3@@MAEAVNoiseParams@@@Z 0000000180037924     fractal.obj
 0002:0000b948       $chain$0$?fractal@Fractal@@SAMVPoint3@@MAEAVNoiseParams@@@Z 0000000180037948     fractal.obj
 0002:0000b95c       $chain$1$?fractal@Fractal@@SAMVPoint3@@MAEAVNoiseParams@@@Z 000000018003795c     fractal.obj
 0002:0000b970       $chain$2$?fractal@Fractal@@SAMVPoint3@@MAEAVNoiseParams@@@Z 0000000180037970     fractal.obj
 0002:0000b980       $chain$3$?fractal@Fractal@@SAMVPoint3@@MAEAVNoiseParams@@@Z 0000000180037980     fractal.obj
 0002:0000b990       $unwind$?turbulence@Fractal@@SAMVPoint3@@MAEAVNoiseParams@@@Z 0000000180037990     fractal.obj
 0002:0000b9b4       $chain$1$?turbulence@Fractal@@SAMVPoint3@@MAEAVNoiseParams@@@Z 00000001800379b4     fractal.obj
 0002:0000b9cc       $chain$2$?turbulence@Fractal@@SAMVPoint3@@MAEAVNoiseParams@@@Z 00000001800379cc     fractal.obj
 0002:0000b9e0       $chain$3$?turbulence@Fractal@@SAMVPoint3@@MAEAVNoiseParams@@@Z 00000001800379e0     fractal.obj
 0002:0000b9f0       $chain$4$?turbulence@Fractal@@SAMVPoint3@@MAEAVNoiseParams@@@Z 00000001800379f0     fractal.obj
 0002:0000ba00       $unwind$?fBm@Fractal@@SAMVPoint3@@MAEAVNoiseParams@@@Z 0000000180037a00     fractal.obj
 0002:0000ba24       $unwind$?fBmTurb@Fractal@@SAMVPoint3@@MAEAVNoiseParams@@@Z 0000000180037a24     fractal.obj
 0002:0000ba50       $unwind$?hybridMultiFractal@Fractal@@SAMVPoint3@@MAEAVNoiseParams@@@Z 0000000180037a50     fractal.obj
 0002:0000ba80       $unwind$?ridgedMultiFractal@Fractal@@SAMVPoint3@@MAEAVNoiseParams@@@Z 0000000180037a80     fractal.obj
 0002:0000baa8       $chain$1$?ridgedMultiFractal@Fractal@@SAMVPoint3@@MAEAVNoiseParams@@@Z 0000000180037aa8     fractal.obj
 0002:0000bac0       $chain$2$?ridgedMultiFractal@Fractal@@SAMVPoint3@@MAEAVNoiseParams@@@Z 0000000180037ac0     fractal.obj
 0002:0000bad0       $unwind$?fBm@Fractal@@SAMVPoint3@@MMM@Z 0000000180037ad0     fractal.obj
 0002:0000bae4       $chain$2$?fBm@Fractal@@SAMVPoint3@@MMM@Z 0000000180037ae4     fractal.obj
 0002:0000bb00       $chain$3$?fBm@Fractal@@SAMVPoint3@@MMM@Z 0000000180037b00     fractal.obj
 0002:0000bb14       $chain$4$?fBm@Fractal@@SAMVPoint3@@MMM@Z 0000000180037b14     fractal.obj
 0002:0000bb24       $chain$5$?fBm@Fractal@@SAMVPoint3@@MMM@Z 0000000180037b24     fractal.obj
 0002:0000bb34       $unwind$?grain@Fractal@@SAMVPoint3@@MM@Z 0000000180037b34     fractal.obj
 0002:0000bb40       $unwind$?paint@GradientRamp@@QEAAXPEAUHDC__@@@Z 0000000180037b40     GradientRamp.obj
 0002:0000bb4c       $chain$5$?paint@GradientRamp@@QEAAXPEAUHDC__@@@Z 0000000180037b4c     GradientRamp.obj
 0002:0000bb74       $chain$7$?paint@GradientRamp@@QEAAXPEAUHDC__@@@Z 0000000180037b74     GradientRamp.obj
 0002:0000bb8c       $chain$8$?paint@GradientRamp@@QEAAXPEAUHDC__@@@Z 0000000180037b8c     GradientRamp.obj
 0002:0000bb9c       $chain$9$?paint@GradientRamp@@QEAAXPEAUHDC__@@@Z 0000000180037b9c     GradientRamp.obj
 0002:0000bbb0       $chain$10$?paint@GradientRamp@@QEAAXPEAUHDC__@@@Z 0000000180037bb0     GradientRamp.obj
 0002:0000bbc0       $chain$11$?paint@GradientRamp@@QEAAXPEAUHDC__@@@Z 0000000180037bc0     GradientRamp.obj
 0002:0000bbd0       $unwind$??_GBerconGradient@@UEAAPEAXI@Z 0000000180037bd0     BerconGradient.obj
 0002:0000bbd0       $unwind$?SetSubTexmap@BerconDistortion@@UEAAXHPEAVTexmap@@@Z 0000000180037bd0     BerconDistortion.obj
 0002:0000bbd0       $unwind$?GetParamBlockByID@BerconWood@@UEAAPEAVIParamBlock2@@F@Z 0000000180037bd0     BerconWood.obj
 0002:0000bbd0       $unwind$?SetSubTexmap@BerconTile@@UEAAXHPEAVTexmap@@@Z 0000000180037bd0     BerconTile.obj
 0002:0000bbd0       $unwind$?ScreenUV@BerconSC@@UEAAXAEAVPoint2@@0@Z 0000000180037bd0     BerconDistortion.obj
 0002:0000bbd0       $unwind$?Set@BitArray@@QEAAXH@Z 0000000180037bd0     BerconDistortion.obj
 0002:0000bbd0       $unwind$?erase@?$basic_string@_WU?$char_traits@_W@std@@V?$allocator@_W@2@@std@@QEAAAEAV12@_K0@Z 0000000180037bd0     BerconTile.obj
 0002:0000bbd0       $unwind$?GetParamBlockByID@BerconDistortion@@UEAAPEAVIParamBlock2@@F@Z 0000000180037bd0     BerconDistortion.obj
 0002:0000bbd0       $unwind$??_Gexception@std@@UEAAPEAXI@Z 0000000180037bd0     MSVCRT:throw_bad_alloc.obj
 0002:0000bbd0       $unwind$??_GBaseInterfaceServer@@UEAAPEAXI@Z 0000000180037bd0     BerconDistortion.obj
 0002:0000bbd0       $unwind$??_GInterfaceServer@@UEAAPEAXI@Z 0000000180037bd0     BerconDistortion.obj
 0002:0000bbd0       $unwind$??_Gbad_alloc@std@@UEAAPEAXI@Z 0000000180037bd0     MSVCRT:throw_bad_alloc.obj
 0002:0000bbd0       $unwind$??_Gbad_array_new_length@std@@UEAAPEAXI@Z 0000000180037bd0     MSVCRT:throw_bad_alloc.obj
 0002:0000bbd0       $unwind$?GetParamBlockByID@BerconGradient@@UEAAPEAVIParamBlock2@@F@Z 0000000180037bd0     BerconGradient.obj
 0002:0000bbd0       $unwind$?SetSubTexmap@BerconNoise@@UEAAXHPEAVTexmap@@@Z 0000000180037bd0     BerconNoise.obj
 0002:0000bbd0       $unwind$??_GBerconWood@@UEAAPEAXI@Z 0000000180037bd0     BerconWood.obj
 0002:0000bbd0       $unwind$?GetParamBlockByID@BerconTile@@UEAAPEAVIParamBlock2@@F@Z 0000000180037bd0     BerconTile.obj
 0002:0000bbd0       $unwind$?SetSubTexmap@BerconWood@@UEAAXHPEAVTexmap@@@Z 0000000180037bd0     BerconWood.obj
 0002:0000bbd0       $unwind$??_GBerconTile@@UEAAPEAXI@Z 0000000180037bd0     BerconTile.obj
 0002:0000bbd0       $unwind$??_GBerconNoise@@UEAAPEAXI@Z 0000000180037bd0     BerconNoise.obj
 0002:0000bbd0       $unwind$?popup@GradientRamp@@QEAAXHHH@Z 0000000180037bd0     GradientRamp.obj
 0002:0000bbd0       $unwind$?GetParamBlockByID@BerconNoise@@UEAAPEAVIParamBlock2@@F@Z 0000000180037bd0     BerconNoise.obj
 0002:0000bbd0       $unwind$?SetSubTexmap@BerconGradient@@UEAAXHPEAVTexmap@@@Z 0000000180037bd0     BerconGradient.obj
 0002:0000bbdc       $unwind$?addKey@GradientRamp@@QEAAXHMVAColor@@PEAVTexmap@@@Z 0000000180037bdc     GradientRamp.obj
 0002:0000bc04       $stateUnwindMap$?addKey@GradientRamp@@QEAAXHMVAColor@@PEAVTexmap@@@Z 0000000180037c04     GradientRamp.obj
 0002:0000bc10       $ip2state$?addKey@GradientRamp@@QEAAXHMVAColor@@PEAVTexmap@@@Z 0000000180037c10     GradientRamp.obj
 0002:0000bc18       $unwind$?reset@GradientRamp@@QEAAXXZ 0000000180037c18     GradientRamp.obj
 0002:0000bc24       $unwind$?sort@GradientRamp@@QEAAXXZ 0000000180037c24     GradientRamp.obj
 0002:0000bc30       $chain$1$?sort@GradientRamp@@QEAAXXZ 0000000180037c30     GradientRamp.obj
 0002:0000bc48       $chain$2$?sort@GradientRamp@@QEAAXXZ 0000000180037c48     GradientRamp.obj
 0002:0000bc58       $unwind$?getColor@GradientRamp@@QEAA?AVAColor@@M@Z 0000000180037c58     GradientRamp.obj
 0002:0000bc64       $chain$0$?getColor@GradientRamp@@QEAA?AVAColor@@M@Z 0000000180037c64     GradientRamp.obj
 0002:0000bc78       $chain$2$?getColor@GradientRamp@@QEAA?AVAColor@@M@Z 0000000180037c78     GradientRamp.obj
 0002:0000bc8c       $chain$7$?getColor@GradientRamp@@QEAA?AVAColor@@M@Z 0000000180037c8c     GradientRamp.obj
 0002:0000bcac       $unwind$?getColor@GradientRamp@@QEAA?AVAColor@@MAEAVShadeContext@@@Z 0000000180037cac     GradientRamp.obj
 0002:0000bcc0       $chain$0$?getColor@GradientRamp@@QEAA?AVAColor@@MAEAVShadeContext@@@Z 0000000180037cc0     GradientRamp.obj
 0002:0000bcd4       $chain$4$?getColor@GradientRamp@@QEAA?AVAColor@@MAEAVShadeContext@@@Z 0000000180037cd4     GradientRamp.obj
 0002:0000bcf4       $chain$5$?getColor@GradientRamp@@QEAA?AVAColor@@MAEAVShadeContext@@@Z 0000000180037cf4     GradientRamp.obj
 0002:0000bd04       $chain$6$?getColor@GradientRamp@@QEAA?AVAColor@@MAEAVShadeContext@@@Z 0000000180037d04     GradientRamp.obj
 0002:0000bd14       $unwind$?getBump@GradientRamp@@QEAA?AVPoint3@@MV2@AEAVShadeContext@@@Z 0000000180037d14     GradientRamp.obj
 0002:0000bd2c       $chain$0$?getBump@GradientRamp@@QEAA?AVPoint3@@MV2@AEAVShadeContext@@@Z 0000000180037d2c     GradientRamp.obj
 0002:0000bd40       $chain$1$?getBump@GradientRamp@@QEAA?AVPoint3@@MV2@AEAVShadeContext@@@Z 0000000180037d40     GradientRamp.obj
 0002:0000bd54       $chain$2$?getBump@GradientRamp@@QEAA?AVPoint3@@MV2@AEAVShadeContext@@@Z 0000000180037d54     GradientRamp.obj
 0002:0000bd68       $chain$3$?getBump@GradientRamp@@QEAA?AVPoint3@@MV2@AEAVShadeContext@@@Z 0000000180037d68     GradientRamp.obj
 0002:0000bd78       $chain$4$?getBump@GradientRamp@@QEAA?AVPoint3@@MV2@AEAVShadeContext@@@Z 0000000180037d78     GradientRamp.obj
 0002:0000bd88       $chain$5$?getBump@GradientRamp@@QEAA?AVPoint3@@MV2@AEAVShadeContext@@@Z 0000000180037d88     GradientRamp.obj
 0002:0000bd98       $unwind$IsolationAwareRegisterClassExW 0000000180037d98     IGradient.obj
 0002:0000bdc0       $unwind$?GradientProc@IGradient@@SA_JPEAUHWND__@@I_K_J@Z 0000000180037dc0     IGradient.obj
 0002:0000bddc       $unwind$?__scrt_throw_std_bad_alloc@@YAXXZ 0000000180037ddc     MSVCRT:throw_bad_alloc.obj
 0002:0000bddc       $unwind$?noise@Noise@@SAMVPoint3@@MAEAVNoiseParams@@@Z 0000000180037ddc     noise.obj
 0002:0000bddc       $unwind$?__scrt_throw_std_bad_array_new_length@@YAXXZ 0000000180037ddc     MSVCRT:throw_bad_alloc.obj
 0002:0000bde4       $unwind$?worleyWrapper@Noise@@SAMVPoint3@@AEAVNoiseParams@@@Z 0000000180037de4     noise.obj
 0002:0000bdf0       $unwind$?wood@Noise@@SAMVPoint3@@AEAV2@AEAVWoodParam@@@Z 0000000180037df0     noise.obj
 0002:0000be14       $unwind$?wood@Noise@@SAMVPoint3@@00AEAV2@VWoodParam@@@Z 0000000180037e14     noise.obj
 0002:0000be40       $chain$3$?wood@Noise@@SAMVPoint3@@00AEAV2@VWoodParam@@@Z 0000000180037e40     noise.obj
 0002:0000be60       $chain$4$?wood@Noise@@SAMVPoint3@@00AEAV2@VWoodParam@@@Z 0000000180037e60     noise.obj
 0002:0000be70       $unwind$?limitedNoise@Noise@@SAMVPoint3@@00AEAVNoiseParams@@@Z 0000000180037e70     noise.obj
 0002:0000be84       $unwind$?f@Fractal@@SAMVPoint3@@AEAVNoiseParams@@@Z 0000000180037e84     noise.obj
 0002:0000be84       $unwind$?f@Fractal@@SAMVPoint3@@MAEAVNoiseParams@@@Z 0000000180037e84     noise.obj
 0002:0000be8c       $unwind$?noise@Perlin@@SAMMM@Z 0000000180037e8c     perlin.obj
 0002:0000beb0       $unwind$?noise@Perlin@@SAMMMM@Z 0000000180037eb0     perlin.obj
 0002:0000bee8       $unwind$?noise@Perlin@@SAMMMMM@Z 0000000180037ee8     perlin.obj
 0002:0000bf24       $unwind$?snoise@Perlin@@SAMM@Z 0000000180037f24     perlin.obj
 0002:0000bf30       $unwind$?snoise@Perlin@@SAMMM@Z 0000000180037f30     perlin.obj
 0002:0000bf48       $unwind$?snoise@Perlin@@SAMMMM@Z 0000000180037f48     perlin.obj
 0002:0000bf74       $unwind$?snoise@Perlin@@SAMMMMM@Z 0000000180037f74     perlin.obj
 0002:0000bfa0       $unwind$?fsnoise4D@Perlin@@SAMMMMMM@Z 0000000180037fa0     perlin.obj
 0002:0000bfa0       $unwind$?fnoise4D@Perlin@@SAMMMMMM@Z 0000000180037fa0     perlin.obj
 0002:0000bfbc       $unwind$?fsnoise2D@Perlin@@SAMMMM@Z 0000000180037fbc     perlin.obj
 0002:0000bfbc       $unwind$?fnoise2D@Perlin@@SAMMMM@Z 0000000180037fbc     perlin.obj
 0002:0000bfd0       $unwind$?fsnoise3D@Perlin@@SAMMMMM@Z 0000000180037fd0     perlin.obj
 0002:0000bfd0       $unwind$?fnoise3D@Perlin@@SAMMMMM@Z 0000000180037fd0     perlin.obj
 0002:0000bfe8       $unwind$?point@Perlin@@CAMMMMHHH@Z 0000000180037fe8     perlin.obj
 0002:0000bff4       $unwind$?point@Perlin@@CAMMMMMHHHH@Z 0000000180037ff4     perlin.obj
 0002:0000c000       $unwind$?find_first_of@?$basic_string@_WU?$char_traits@_W@std@@V?$allocator@_W@2@@std@@QEBA_KAEBV12@_K@Z 0000000180038000     tile.obj
 0002:0000c00c       $unwind$?find_first_not_of@?$basic_string@_WU?$char_traits@_W@std@@V?$allocator@_W@2@@std@@QEBA_KAEBV12@_K@Z 000000018003800c     tile.obj
 0002:0000c018       $unwind$?substr@?$basic_string@_WU?$char_traits@_W@std@@V?$allocator@_W@2@@std@@QEBA?AV12@_K0@Z 0000000180038018     tile.obj
 0002:0000c028       $stateUnwindMap$?substr@?$basic_string@_WU?$char_traits@_W@std@@V?$allocator@_W@2@@std@@QEBA?AV12@_K0@Z 0000000180038028     tile.obj
 0002:0000c030       $ip2state$?substr@?$basic_string@_WU?$char_traits@_W@std@@V?$allocator@_W@2@@std@@QEBA?AV12@_K0@Z 0000000180038030     tile.obj
 0002:0000c040       $unwind$??0?$vector@MV?$allocator@M@std@@@std@@QEAA@AEBV01@@Z 0000000180038040     tile.obj
 0002:0000c05c       $tryMap$??0?$vector@MV?$allocator@M@std@@@std@@QEAA@AEBV01@@Z 000000018003805c     tile.obj
 0002:0000c070       $handlerMap$0$??0?$vector@MV?$allocator@M@std@@@std@@QEAA@AEBV01@@Z 0000000180038070     tile.obj
 0002:0000c088       $ip2state$??0?$vector@MV?$allocator@M@std@@@std@@QEAA@AEBV01@@Z 0000000180038088     tile.obj
 0002:0000c0b0       $unwind$?catch$0@?0???0?$vector@MV?$allocator@M@std@@@std@@QEAA@AEBV01@@Z@4HA 00000001800380b0     tile.obj
 0002:0000c0c4       $unwind$?_Reallocate@?$vector@MV?$allocator@M@std@@@std@@IEAAX_K@Z 00000001800380c4     tile.obj
 0002:0000c0dc       $stateUnwindMap$??0?$vector@MV?$allocator@M@std@@@std@@QEAA@AEBV01@@Z 00000001800380dc     tile.obj
 0002:0000c0dc       $stateUnwindMap$??$_Uninitialized_move_al_unchecked1@PEAV?$basic_string@_WU?$char_traits@_W@std@@V?$allocator@_W@2@@std@@PEAV12@V?$allocator@V?$basic_string@_WU?$char_traits@_W@std@@V?$allocator@_W@2@@std@@@2@@std@@YAPEAV?$basic_string@_WU?$char_traits@_W@std@@V?$allocator@_W@2@@0@PEAV10@00AEAU?$_Wrap_alloc@V?$allocator@V?$basic_string@_WU?$char_traits@_W@std@@V?$allocator@_W@2@@std@@@std@@@0@U_General_ptr_iterator_tag@0@U_Any_tag@0@@Z 00000001800380dc     tile.obj
 0002:0000c0dc       $stateUnwindMap$?_Reallocate@?$vector@VTileRow@@V?$allocator@VTileRow@@@std@@@std@@IEAAX_K@Z 00000001800380dc     tile.obj
 0002:0000c0dc       $stateUnwindMap$?_Reallocate@?$vector@V?$basic_string@_WU?$char_traits@_W@std@@V?$allocator@_W@2@@std@@V?$allocator@V?$basic_string@_WU?$char_traits@_W@std@@V?$allocator@_W@2@@std@@@2@@std@@IEAAX_K@Z 00000001800380dc     tile.obj
 0002:0000c0dc       $stateUnwindMap$?_Reallocate@?$vector@MV?$allocator@M@std@@@std@@IEAAX_K@Z 00000001800380dc     tile.obj
 0002:0000c0ec       $tryMap$?_Reallocate@?$vector@MV?$allocator@M@std@@@std@@IEAAX_K@Z 00000001800380ec     tile.obj
 0002:0000c100       $handlerMap$0$?_Reallocate@?$vector@MV?$allocator@M@std@@@std@@IEAAX_K@Z 0000000180038100     tile.obj
 0002:0000c118       $ip2state$?_Reallocate@?$vector@MV?$allocator@M@std@@@std@@IEAAX_K@Z 0000000180038118     tile.obj
 0002:0000c140       $unwind$?catch$0@?0??_Reallocate@?$vector@MV?$allocator@M@std@@@std@@IEAAX_K@Z@4HA 0000000180038140     tile.obj
 0002:0000c150       $unwind$??1TileRow@@QEAA@XZ 0000000180038150     tile.obj
 0002:0000c160       $stateUnwindMap$??$_Destroy_range1@V?$allocator@VTileRow@@@std@@PEAVTileRow@@@std@@YAXPEAVTileRow@@0AEAU?$_Wrap_alloc@V?$allocator@VTileRow@@@std@@@0@U?$integral_constant@_N$0A@@0@@Z 0000000180038160     BerconTile.obj
 0002:0000c160       $stateUnwindMap$??1TileRow@@QEAA@XZ 0000000180038160     tile.obj
 0002:0000c168       $ip2state$??1TileRow@@QEAA@XZ 0000000180038168     tile.obj
 0002:0000c170       $unwind$?_Reallocate@?$vector@VTileRow@@V?$allocator@VTileRow@@@std@@@std@@IEAAX_K@Z 0000000180038170     tile.obj
 0002:0000c188       $tryMap$?_Reallocate@?$vector@VTileRow@@V?$allocator@VTileRow@@@std@@@std@@IEAAX_K@Z 0000000180038188     tile.obj
 0002:0000c19c       $handlerMap$0$?_Reallocate@?$vector@VTileRow@@V?$allocator@VTileRow@@@std@@@std@@IEAAX_K@Z 000000018003819c     tile.obj
 0002:0000c1b0       $ip2state$?_Reallocate@?$vector@VTileRow@@V?$allocator@VTileRow@@@std@@@std@@IEAAX_K@Z 00000001800381b0     tile.obj
 0002:0000c1d8       $unwind$?catch$0@?0??_Reallocate@?$vector@VTileRow@@V?$allocator@VTileRow@@@std@@@std@@IEAAX_K@Z@4HA 00000001800381d8     tile.obj
 0002:0000c1e8       $unwind$?setPattern@TilePattern@@QEAAXV?$basic_string@_WU?$char_traits@_W@std@@V?$allocator@_W@2@@std@@@Z 00000001800381e8     tile.obj
 0002:0000c200       $stateUnwindMap$?setPattern@TilePattern@@QEAAXV?$basic_string@_WU?$char_traits@_W@std@@V?$allocator@_W@2@@std@@@Z 0000000180038200     tile.obj
 0002:0000c210       $ip2state$?setPattern@TilePattern@@QEAAXV?$basic_string@_WU?$char_traits@_W@std@@V?$allocator@_W@2@@std@@@Z 0000000180038210     tile.obj
 0002:0000c228       $unwind$?setPreset@TilePattern@@QEAAXH@Z 0000000180038228     tile.obj
 0002:0000c23c       $stateUnwindMap$?setPreset@TilePattern@@QEAAXH@Z 000000018003823c     tile.obj
 0002:0000c290       $ip2state$?setPreset@TilePattern@@QEAAXH@Z 0000000180038290     tile.obj
 0002:0000c340       $unwind$?corner@Tile@@CA?AVTilePoint@@MMMMAEAVTileParam@@@Z 0000000180038340     tile.obj
 0002:0000c368       $unwind$?uvMapping@Tile@@CAXAEAVTilePoint@@VPoint3@@QEAMAEAVTileParam@@H@Z 0000000180038368     tile.obj
 0002:0000c3a0       $unwind$?drawTile@Tile@@CA?AVTilePoint@@VPoint3@@QEAMAEAVTileParam@@HH@Z 00000001800383a0     tile.obj
 0002:0000c3d0       $chain$1$?drawTile@Tile@@CA?AVTilePoint@@VPoint3@@QEAMAEAVTileParam@@HH@Z 00000001800383d0     tile.obj
 0002:0000c3e8       $chain$2$?drawTile@Tile@@CA?AVTilePoint@@VPoint3@@QEAMAEAVTileParam@@HH@Z 00000001800383e8     tile.obj
 0002:0000c3f8       $unwind$?pat_xBond@Tile@@CA?AVTilePoint@@VPoint3@@AEAVTileParam@@@Z 00000001800383f8     tile.obj
 0002:0000c40c       $chain$0$?pat_xBond@Tile@@CA?AVTilePoint@@VPoint3@@AEAVTileParam@@@Z 000000018003840c     tile.obj
 0002:0000c420       $chain$1$?pat_xBond@Tile@@CA?AVTilePoint@@VPoint3@@AEAVTileParam@@@Z 0000000180038420     tile.obj
 0002:0000c430       $unwind$?pat_herring@Tile@@CA?AVTilePoint@@VPoint3@@AEAVTileParam@@@Z 0000000180038430     tile.obj
 0002:0000c448       $unwind$?getAngle@@YAMHM@Z 0000000180038448     tile.obj
 0002:0000c454       $unwind$?rowcol@@YAHAEAM0AEAHMMAEAV?$vector@MV?$allocator@M@std@@@std@@MMM@Z 0000000180038454     tile.obj
 0002:0000c484       $chain$5$?rowcol@@YAHAEAM0AEAHMMAEAV?$vector@MV?$allocator@M@std@@@std@@MMM@Z 0000000180038484     tile.obj
 0002:0000c4ac       $chain$6$?rowcol@@YAHAEAM0AEAHMMAEAV?$vector@MV?$allocator@M@std@@@std@@MMM@Z 00000001800384ac     tile.obj
 0002:0000c4bc       $unwind$?tokenize@@YAXAEBV?$basic_string@_WU?$char_traits@_W@std@@V?$allocator@_W@2@@std@@AEAV?$vector@V?$basic_string@_WU?$char_traits@_W@std@@V?$allocator@_W@2@@std@@V?$allocator@V?$basic_string@_WU?$char_traits@_W@std@@V?$allocator@_W@2@@std@@@2@@2@0@Z 00000001800384bc     tile.obj
 0002:0000c4e0       $stateUnwindMap$?tokenize@@YAXAEBV?$basic_string@_WU?$char_traits@_W@std@@V?$allocator@_W@2@@std@@AEAV?$vector@V?$basic_string@_WU?$char_traits@_W@std@@V?$allocator@_W@2@@std@@V?$allocator@V?$basic_string@_WU?$char_traits@_W@std@@V?$allocator@_W@2@@std@@@2@@2@0@Z 00000001800384e0     tile.obj
 0002:0000c4e8       $ip2state$?tokenize@@YAXAEBV?$basic_string@_WU?$char_traits@_W@std@@V?$allocator@_W@2@@std@@AEAV?$vector@V?$basic_string@_WU?$char_traits@_W@std@@V?$allocator@_W@2@@std@@V?$allocator@V?$basic_string@_WU?$char_traits@_W@std@@V?$allocator@_W@2@@std@@@2@@2@0@Z 00000001800384e8     tile.obj
 0002:0000c510       $unwind$??1?$vector@V?$basic_string@_WU?$char_traits@_W@std@@V?$allocator@_W@2@@std@@V?$allocator@V?$basic_string@_WU?$char_traits@_W@std@@V?$allocator@_W@2@@std@@@2@@std@@QEAA@XZ 0000000180038510     tile.obj
 0002:0000c520       $ip2state$??1?$vector@V?$basic_string@_WU?$char_traits@_W@std@@V?$allocator@_W@2@@std@@V?$allocator@V?$basic_string@_WU?$char_traits@_W@std@@V?$allocator@_W@2@@std@@@2@@std@@QEAA@XZ 0000000180038520     tile.obj
 0002:0000c528       $unwind$?_Reallocate@?$vector@V?$basic_string@_WU?$char_traits@_W@std@@V?$allocator@_W@2@@std@@V?$allocator@V?$basic_string@_WU?$char_traits@_W@std@@V?$allocator@_W@2@@std@@@2@@std@@IEAAX_K@Z 0000000180038528     tile.obj
 0002:0000c540       $tryMap$?_Reallocate@?$vector@V?$basic_string@_WU?$char_traits@_W@std@@V?$allocator@_W@2@@std@@V?$allocator@V?$basic_string@_WU?$char_traits@_W@std@@V?$allocator@_W@2@@std@@@2@@std@@IEAAX_K@Z 0000000180038540     tile.obj
 0002:0000c554       $handlerMap$0$?_Reallocate@?$vector@V?$basic_string@_WU?$char_traits@_W@std@@V?$allocator@_W@2@@std@@V?$allocator@V?$basic_string@_WU?$char_traits@_W@std@@V?$allocator@_W@2@@std@@@2@@std@@IEAAX_K@Z 0000000180038554     tile.obj
 0002:0000c568       $ip2state$?_Reallocate@?$vector@V?$basic_string@_WU?$char_traits@_W@std@@V?$allocator@_W@2@@std@@V?$allocator@V?$basic_string@_WU?$char_traits@_W@std@@V?$allocator@_W@2@@std@@@2@@std@@IEAAX_K@Z 0000000180038568     tile.obj
 0002:0000c590       $unwind$?catch$0@?0??_Reallocate@?$vector@V?$basic_string@_WU?$char_traits@_W@std@@V?$allocator@_W@2@@std@@V?$allocator@V?$basic_string@_WU?$char_traits@_W@std@@V?$allocator@_W@2@@std@@@2@@std@@IEAAX_K@Z@4HA 0000000180038590     tile.obj
 0002:0000c5a0       $unwind$?parsePattern@@YAHV?$basic_string@_WU?$char_traits@_W@std@@V?$allocator@_W@2@@std@@PEAVTilePattern@@@Z 00000001800385a0     tile.obj
 0002:0000c5c4       $stateUnwindMap$?parsePattern@@YAHV?$basic_string@_WU?$char_traits@_W@std@@V?$allocator@_W@2@@std@@PEAVTilePattern@@@Z 00000001800385c4     tile.obj
 0002:0000c6d0       $ip2state$?parsePattern@@YAHV?$basic_string@_WU?$char_traits@_W@std@@V?$allocator@_W@2@@std@@PEAVTilePattern@@@Z 00000001800386d0     tile.obj
 0002:0000c830       $unwind$?dtor$0@?0??substr@?$basic_string@_WU?$char_traits@_W@std@@V?$allocator@_W@2@@std@@QEBA?AV12@_K0@Z@4HA 0000000180038830     tile.obj
 0002:0000c830       $unwind$?dtor$0@?0??SubAnimName@BerconNoise@@UEAA?AVWStr@@H@Z@4HA 0000000180038830     BerconNoise.obj
 0002:0000c830       $unwind$?fin$0@?0??dllmain_crt_process_attach@@YAHQEAUHINSTANCE__@@QEAX@Z@4HA 0000000180038830     MSVCRT:dll_dllmain.obj
 0002:0000c830       $unwind$?dtor$0@?0??GetSubTexmapSlotName@BerconNoise@@UEAA?AVWStr@@H@Z@4HA 0000000180038830     BerconNoise.obj
 0002:0000c830       $unwind$IsolationAwareInitCommonControls$fin$0 0000000180038830     DllEntry.obj
 0002:0000c830       $unwind$?dtor$0@?0??SubAnimName@BerconDistortion@@UEAA?AVWStr@@H@Z@4HA 0000000180038830     BerconDistortion.obj
 0002:0000c830       $unwind$?dtor$18@?0??parsePattern@@YAHV?$basic_string@_WU?$char_traits@_W@std@@V?$allocator@_W@2@@std@@PEAVTilePattern@@@Z@4HA 0000000180038830     tile.obj
 0002:0000c830       $unwind$?dtor$26@?0??parsePattern@@YAHV?$basic_string@_WU?$char_traits@_W@std@@V?$allocator@_W@2@@std@@PEAVTilePattern@@@Z@4HA 0000000180038830     tile.obj
 0002:0000c830       $unwind$?dtor$0@?0??GetSubTexmapSlotName@BerconGradient@@UEAA?AVWStr@@H@Z@4HA 0000000180038830     BerconGradient.obj
 0002:0000c830       $unwind$?dtor$0@?0??GetSubTexmapSlotName@BerconTile@@UEAA?AVWStr@@H@Z@4HA 0000000180038830     BerconTile.obj
 0002:0000c830       $unwind$?dtor$13@?0??parsePattern@@YAHV?$basic_string@_WU?$char_traits@_W@std@@V?$allocator@_W@2@@std@@PEAVTilePattern@@@Z@4HA 0000000180038830     tile.obj
 0002:0000c830       $unwind$?fin$0@?0??dllmain_crt_process_detach@@YAH_N@Z@4HA 0000000180038830     MSVCRT:dll_dllmain.obj
 0002:0000c830       $unwind$?dtor$28@?0??parsePattern@@YAHV?$basic_string@_WU?$char_traits@_W@std@@V?$allocator@_W@2@@std@@PEAVTilePattern@@@Z@4HA 0000000180038830     tile.obj
 0002:0000c830       $unwind$?dtor$0@?0??GetSubTexmapSlotName@BerconDistortion@@UEAA?AVWStr@@H@Z@4HA 0000000180038830     BerconDistortion.obj
 0002:0000c830       $unwind$?dtor$1@?0???0BerconGradient@@QEAA@XZ@4HA 0000000180038830     BerconGradient.obj
 0002:0000c830       $unwind$?dtor$9@?0??parsePattern@@YAHV?$basic_string@_WU?$char_traits@_W@std@@V?$allocator@_W@2@@std@@PEAVTilePattern@@@Z@4HA 0000000180038830     tile.obj
 0002:0000c830       $unwind$?dtor$0@?0??SubAnimName@BerconGradient@@UEAA?AVWStr@@H@Z@4HA 0000000180038830     BerconGradient.obj
 0002:0000c830       $unwind$?dtor$0@?0??GetSubTexmapSlotName@BerconWood@@UEAA?AVWStr@@H@Z@4HA 0000000180038830     BerconWood.obj
 0002:0000c830       $unwind$?dtor$0@?0??SubAnimName@BerconWood@@UEAA?AVWStr@@H@Z@4HA 0000000180038830     BerconWood.obj
 0002:0000c830       $unwind$?dtor$0@?0??SubAnimName@BerconTile@@UEAA?AVWStr@@H@Z@4HA 0000000180038830     BerconTile.obj
 0002:0000c838       $unwind$??1?$basic_stringstream@_WU?$char_traits@_W@std@@V?$allocator@_W@2@@std@@UEAA@XZ 0000000180038838     tile.obj
 0002:0000c84c       $stateUnwindMap$??1?$basic_stringstream@_WU?$char_traits@_W@std@@V?$allocator@_W@2@@std@@UEAA@XZ 000000018003884c     tile.obj
 0002:0000c868       $ip2state$??1?$basic_stringstream@_WU?$char_traits@_W@std@@V?$allocator@_W@2@@std@@UEAA@XZ 0000000180038868     tile.obj
 0002:0000c890       $unwind$??1?$basic_stringbuf@_WU?$char_traits@_W@std@@V?$allocator@_W@2@@std@@UEAA@XZ 0000000180038890     tile.obj
 0002:0000c8a0       $ip2state$??1?$basic_stringbuf@_WU?$char_traits@_W@std@@V?$allocator@_W@2@@std@@UEAA@XZ 00000001800388a0     tile.obj
 0002:0000c8b8       $unwind$?overflow@?$basic_stringbuf@_WU?$char_traits@_W@std@@V?$allocator@_W@2@@std@@MEAAGG@Z 00000001800388b8     tile.obj
 0002:0000c8c4       $chain$0$?overflow@?$basic_stringbuf@_WU?$char_traits@_W@std@@V?$allocator@_W@2@@std@@MEAAGG@Z 00000001800388c4     tile.obj
 0002:0000c8d8       $chain$2$?overflow@?$basic_stringbuf@_WU?$char_traits@_W@std@@V?$allocator@_W@2@@std@@MEAAGG@Z 00000001800388d8     tile.obj
 0002:0000c8ec       $chain$5$?overflow@?$basic_stringbuf@_WU?$char_traits@_W@std@@V?$allocator@_W@2@@std@@MEAAGG@Z 00000001800388ec     tile.obj
 0002:0000c904       $chain$11$?overflow@?$basic_stringbuf@_WU?$char_traits@_W@std@@V?$allocator@_W@2@@std@@MEAAGG@Z 0000000180038904     tile.obj
 0002:0000c92c       $chain$12$?overflow@?$basic_stringbuf@_WU?$char_traits@_W@std@@V?$allocator@_W@2@@std@@MEAAGG@Z 000000018003892c     tile.obj
 0002:0000c94c       $unwind$?seekoff@?$basic_stringbuf@_WU?$char_traits@_W@std@@V?$allocator@_W@2@@std@@MEAA?AV?$fpos@U_Mbstatet@@@2@_JHH@Z 000000018003894c     tile.obj
 0002:0000c95c       $unwind$?setSubtex@GradientRamp@@QEAAXHPEAVTexmap@@@Z 000000018003895c     GradientRamp.obj
 0002:0000c95c       $unwind$?seekpos@?$basic_stringbuf@_WU?$char_traits@_W@std@@V?$allocator@_W@2@@std@@MEAA?AV?$fpos@U_Mbstatet@@@2@V32@H@Z 000000018003895c     tile.obj
 0002:0000c964       $unwind$?_Init@?$basic_stringbuf@_WU?$char_traits@_W@std@@V?$allocator@_W@2@@std@@IEAAXPEB_W_KH@Z 0000000180038964     tile.obj
 0002:0000c974       $chain$1$?_Init@?$basic_stringbuf@_WU?$char_traits@_W@std@@V?$allocator@_W@2@@std@@IEAAXPEB_W_KH@Z 0000000180038974     tile.obj
 0002:0000c98c       $chain$2$?_Init@?$basic_stringbuf@_WU?$char_traits@_W@std@@V?$allocator@_W@2@@std@@IEAAXPEB_W_KH@Z 000000018003898c     tile.obj
 0002:0000c99c       $unwind$??_G?$basic_stringbuf@_WU?$char_traits@_W@std@@V?$allocator@_W@2@@std@@UEAAPEAXI@Z 000000018003899c     tile.obj
 0002:0000c9b0       $stateUnwindMap$??1?$basic_stringbuf@_WU?$char_traits@_W@std@@V?$allocator@_W@2@@std@@UEAA@XZ 00000001800389b0     tile.obj
 0002:0000c9b0       $stateUnwindMap$??_G?$basic_stringbuf@_WU?$char_traits@_W@std@@V?$allocator@_W@2@@std@@UEAAPEAXI@Z 00000001800389b0     tile.obj
 0002:0000c9b8       $ip2state$??_G?$basic_stringbuf@_WU?$char_traits@_W@std@@V?$allocator@_W@2@@std@@UEAAPEAXI@Z 00000001800389b8     tile.obj
 0002:0000c9d0       $unwind$??_G?$basic_stringstream@_WU?$char_traits@_W@std@@V?$allocator@_W@2@@std@@UEAAPEAXI@Z 00000001800389d0     tile.obj
 0002:0000c9e4       $stateUnwindMap$??_G?$basic_stringstream@_WU?$char_traits@_W@std@@V?$allocator@_W@2@@std@@UEAAPEAXI@Z 00000001800389e4     tile.obj
 0002:0000c9e4       $stateUnwindMap$??_D?$basic_stringstream@_WU?$char_traits@_W@std@@V?$allocator@_W@2@@std@@QEAAXXZ 00000001800389e4     tile.obj
 0002:0000c9f0       $ip2state$??_G?$basic_stringstream@_WU?$char_traits@_W@std@@V?$allocator@_W@2@@std@@UEAAPEAXI@Z 00000001800389f0     tile.obj
 0002:0000c9f8       $unwind$??_D?$basic_stringstream@_WU?$char_traits@_W@std@@V?$allocator@_W@2@@std@@QEAAXXZ 00000001800389f8     tile.obj
 0002:0000ca08       $ip2state$??_D?$basic_stringstream@_WU?$char_traits@_W@std@@V?$allocator@_W@2@@std@@QEAAXXZ 0000000180038a08     tile.obj
 0002:0000ca10       $unwind$??$_Destroy_range1@V?$allocator@V?$basic_string@_WU?$char_traits@_W@std@@V?$allocator@_W@2@@std@@@std@@PEAV?$basic_string@_WU?$char_traits@_W@std@@V?$allocator@_W@2@@2@@std@@YAXPEAV?$basic_string@_WU?$char_traits@_W@std@@V?$allocator@_W@2@@0@0AEAU?$_Wrap_alloc@V?$allocator@V?$basic_string@_WU?$char_traits@_W@std@@V?$allocator@_W@2@@std@@@std@@@0@U?$integral_constant@_N$0A@@0@@Z 0000000180038a10     tile.obj
 0002:0000ca18       $chain$2$??$_Destroy_range1@V?$allocator@V?$basic_string@_WU?$char_traits@_W@std@@V?$allocator@_W@2@@std@@@std@@PEAV?$basic_string@_WU?$char_traits@_W@std@@V?$allocator@_W@2@@2@@std@@YAXPEAV?$basic_string@_WU?$char_traits@_W@std@@V?$allocator@_W@2@@0@0AEAU?$_Wrap_alloc@V?$allocator@V?$basic_string@_WU?$char_traits@_W@std@@V?$allocator@_W@2@@std@@@std@@@0@U?$integral_constant@_N$0A@@0@@Z 0000000180038a18     tile.obj
 0002:0000ca34       $chain$3$??$_Destroy_range1@V?$allocator@V?$basic_string@_WU?$char_traits@_W@std@@V?$allocator@_W@2@@std@@@std@@PEAV?$basic_string@_WU?$char_traits@_W@std@@V?$allocator@_W@2@@2@@std@@YAXPEAV?$basic_string@_WU?$char_traits@_W@std@@V?$allocator@_W@2@@0@0AEAU?$_Wrap_alloc@V?$allocator@V?$basic_string@_WU?$char_traits@_W@std@@V?$allocator@_W@2@@std@@@std@@@0@U?$integral_constant@_N$0A@@0@@Z 0000000180038a34     tile.obj
 0002:0000ca44       $chain$4$??$_Destroy_range1@V?$allocator@V?$basic_string@_WU?$char_traits@_W@std@@V?$allocator@_W@2@@std@@@std@@PEAV?$basic_string@_WU?$char_traits@_W@std@@V?$allocator@_W@2@@2@@std@@YAXPEAV?$basic_string@_WU?$char_traits@_W@std@@V?$allocator@_W@2@@0@0AEAU?$_Wrap_alloc@V?$allocator@V?$basic_string@_WU?$char_traits@_W@std@@V?$allocator@_W@2@@std@@@std@@@0@U?$integral_constant@_N$0A@@0@@Z 0000000180038a44     tile.obj
 0002:0000ca60       $unwind$??$_Uninitialized_move_al_unchecked1@PEAV?$basic_string@_WU?$char_traits@_W@std@@V?$allocator@_W@2@@std@@PEAV12@V?$allocator@V?$basic_string@_WU?$char_traits@_W@std@@V?$allocator@_W@2@@std@@@2@@std@@YAPEAV?$basic_string@_WU?$char_traits@_W@std@@V?$allocator@_W@2@@0@PEAV10@00AEAU?$_Wrap_alloc@V?$allocator@V?$basic_string@_WU?$char_traits@_W@std@@V?$allocator@_W@2@@std@@@std@@@0@U_General_ptr_iterator_tag@0@U_Any_tag@0@@Z 0000000180038a60     tile.obj
 0002:0000ca78       $tryMap$??$_Uninitialized_move_al_unchecked1@PEAV?$basic_string@_WU?$char_traits@_W@std@@V?$allocator@_W@2@@std@@PEAV12@V?$allocator@V?$basic_string@_WU?$char_traits@_W@std@@V?$allocator@_W@2@@std@@@2@@std@@YAPEAV?$basic_string@_WU?$char_traits@_W@std@@V?$allocator@_W@2@@0@PEAV10@00AEAU?$_Wrap_alloc@V?$allocator@V?$basic_string@_WU?$char_traits@_W@std@@V?$allocator@_W@2@@std@@@std@@@0@U_General_ptr_iterator_tag@0@U_Any_tag@0@@Z 0000000180038a78     tile.obj
 0002:0000ca8c       $handlerMap$0$??$_Uninitialized_move_al_unchecked1@PEAV?$basic_string@_WU?$char_traits@_W@std@@V?$allocator@_W@2@@std@@PEAV12@V?$allocator@V?$basic_string@_WU?$char_traits@_W@std@@V?$allocator@_W@2@@std@@@2@@std@@YAPEAV?$basic_string@_WU?$char_traits@_W@std@@V?$allocator@_W@2@@0@PEAV10@00AEAU?$_Wrap_alloc@V?$allocator@V?$basic_string@_WU?$char_traits@_W@std@@V?$allocator@_W@2@@std@@@std@@@0@U_General_ptr_iterator_tag@0@U_Any_tag@0@@Z 0000000180038a8c     tile.obj
 0002:0000caa0       $ip2state$??$_Uninitialized_move_al_unchecked1@PEAV?$basic_string@_WU?$char_traits@_W@std@@V?$allocator@_W@2@@std@@PEAV12@V?$allocator@V?$basic_string@_WU?$char_traits@_W@std@@V?$allocator@_W@2@@std@@@2@@std@@YAPEAV?$basic_string@_WU?$char_traits@_W@std@@V?$allocator@_W@2@@0@PEAV10@00AEAU?$_Wrap_alloc@V?$allocator@V?$basic_string@_WU?$char_traits@_W@std@@V?$allocator@_W@2@@std@@@std@@@0@U_General_ptr_iterator_tag@0@U_Any_tag@0@@Z 0000000180038aa0     tile.obj
 0002:0000cac8       $unwind$?catch$0@?0???$_Uninitialized_move_al_unchecked1@PEAV?$basic_string@_WU?$char_traits@_W@std@@V?$allocator@_W@2@@std@@PEAV12@V?$allocator@V?$basic_string@_WU?$char_traits@_W@std@@V?$allocator@_W@2@@std@@@2@@std@@YAPEAV?$basic_string@_WU?$char_traits@_W@std@@V?$allocator@_W@2@@0@PEAV10@00AEAU?$_Wrap_alloc@V?$allocator@V?$basic_string@_WU?$char_traits@_W@std@@V?$allocator@_W@2@@std@@@std@@@0@U_General_ptr_iterator_tag@0@U_Any_tag@0@@Z@4HA 0000000180038ac8     tile.obj
 0002:0000cad8       $unwind$??$_Uninitialized_move_al_unchecked1@PEAVTileRow@@PEAV1@V?$allocator@VTileRow@@@std@@@std@@YAPEAVTileRow@@PEAV1@00AEAU?$_Wrap_alloc@V?$allocator@VTileRow@@@std@@@0@U_General_ptr_iterator_tag@0@U_Any_tag@0@@Z 0000000180038ad8     tile.obj
 0002:0000cae8       $stateUnwindMap$??$_Uninitialized_move_al_unchecked1@PEAVTileRow@@PEAV1@V?$allocator@VTileRow@@@std@@@std@@YAPEAVTileRow@@PEAV1@00AEAU?$_Wrap_alloc@V?$allocator@VTileRow@@@std@@@0@U_General_ptr_iterator_tag@0@U_Any_tag@0@@Z 0000000180038ae8     tile.obj
 0002:0000cb00       $tryMap$??$_Uninitialized_move_al_unchecked1@PEAVTileRow@@PEAV1@V?$allocator@VTileRow@@@std@@@std@@YAPEAVTileRow@@PEAV1@00AEAU?$_Wrap_alloc@V?$allocator@VTileRow@@@std@@@0@U_General_ptr_iterator_tag@0@U_Any_tag@0@@Z 0000000180038b00     tile.obj
 0002:0000cb14       $handlerMap$0$??$_Uninitialized_move_al_unchecked1@PEAVTileRow@@PEAV1@V?$allocator@VTileRow@@@std@@@std@@YAPEAVTileRow@@PEAV1@00AEAU?$_Wrap_alloc@V?$allocator@VTileRow@@@std@@@0@U_General_ptr_iterator_tag@0@U_Any_tag@0@@Z 0000000180038b14     tile.obj
 0002:0000cb28       $ip2state$??$_Uninitialized_move_al_unchecked1@PEAVTileRow@@PEAV1@V?$allocator@VTileRow@@@std@@@std@@YAPEAVTileRow@@PEAV1@00AEAU?$_Wrap_alloc@V?$allocator@VTileRow@@@std@@@0@U_General_ptr_iterator_tag@0@U_Any_tag@0@@Z 0000000180038b28     tile.obj
 0002:0000cb50       $unwind$?catch$1@?0???$_Uninitialized_move_al_unchecked1@PEAVTileRow@@PEAV1@V?$allocator@VTileRow@@@std@@@std@@YAPEAVTileRow@@PEAV1@00AEAU?$_Wrap_alloc@V?$allocator@VTileRow@@@std@@@0@U_General_ptr_iterator_tag@0@U_Any_tag@0@@Z@4HA 0000000180038b50     tile.obj
 0002:0000cb60       $unwind$?noise@Worley@@SAXQEBNHPEANH@Z 0000000180038b60     worley.obj
 0002:0000cba4       $unwind$?add@Worley@@CAXJJJQEBNHPEANH@Z 0000000180038ba4     worley.obj
 0002:0000cbb8       $chain$11$?add@Worley@@CAXJJJQEBNHPEANH@Z 0000000180038bb8     worley.obj
 0002:0000cbf8       $chain$12$?add@Worley@@CAXJJJQEBNHPEANH@Z 0000000180038bf8     worley.obj
 0002:0000cc08       $chain$13$?add@Worley@@CAXJJJQEBNHPEANH@Z 0000000180038c08     worley.obj
 0002:0000cc48       $unwind$__scrt_is_nonwritable_in_current_image 0000000180038c48     MSVCRT:utility.obj
 0002:0000cc68       $unwind$__scrt_is_nonwritable_in_current_image$filt$0 0000000180038c68     MSVCRT:utility.obj
 0002:0000cc70       $unwind$__scrt_initialize_onexit_tables 0000000180038c70     MSVCRT:utility.obj
 0002:0000cc7c       $unwind$?SetDlgThing@BerconWood@@UEAAHPEAVParamDlg@@@Z 0000000180038c7c     BerconWood.obj
 0002:0000cc7c       $unwind$?deallocate@?$allocator@VTileRow@@@std@@QEAAXPEAVTileRow@@_K@Z 0000000180038c7c     BerconTile.obj
 0002:0000cc7c       $unwind$__scrt_dllmain_crt_thread_detach 0000000180038c7c     MSVCRT:utility.obj
 0002:0000cc7c       $unwind$__scrt_dllmain_crt_thread_attach 0000000180038c7c     MSVCRT:utility.obj
 0002:0000cc7c       $unwind$?deallocate@?$allocator@M@std@@QEAAXPEAM_K@Z 0000000180038c7c     BerconTile.obj
 0002:0000cc7c       $unwind$__scrt_dllmain_uninitialize_c 0000000180038c7c     MSVCRT:utility.obj
 0002:0000cc7c       $unwind$?SetDlgThing@BerconTile@@UEAAHPEAVParamDlg@@@Z 0000000180038c7c     BerconTile.obj
 0002:0000cc7c       $unwind$__scrt_dllmain_after_initialize_c 0000000180038c7c     MSVCRT:utility.obj
 0002:0000cc7c       $unwind$__scrt_dllmain_before_initialize_c 0000000180038c7c     MSVCRT:utility.obj
 0002:0000cc7c       $unwind$?SetDlgThing@BerconNoise@@UEAAHPEAVParamDlg@@@Z 0000000180038c7c     BerconNoise.obj
 0002:0000cc7c       $unwind$atexit             0000000180038c7c     MSVCRT:utility.obj
 0002:0000cc7c       $unwind$?NotifyDependents@SealedReferenceMaker@@EEAA?AW4RefResult@@VInterval@@_KIKHPEAVReferenceTarget@@@Z 0000000180038c7c     BerconDistortion.obj
 0002:0000cc7c       $unwind$__scrt_initialize_default_local_stdio_options 0000000180038c7c     MSVCRT:default_local_stdio_options.obj
 0002:0000cc7c       $unwind$?deallocate@?$allocator@V?$basic_string@_WU?$char_traits@_W@std@@V?$allocator@_W@2@@std@@@std@@QEAAXPEAV?$basic_string@_WU?$char_traits@_W@std@@V?$allocator@_W@2@@2@_K@Z 0000000180038c7c     tile.obj
 0002:0000cc7c       $unwind$?SetDlgThing@BerconGradient@@UEAAHPEAVParamDlg@@@Z 0000000180038c7c     BerconGradient.obj
 0002:0000cc7c       $unwind$?allocate@?$allocator@V?$basic_string@_WU?$char_traits@_W@std@@V?$allocator@_W@2@@std@@@std@@QEAAPEAV?$basic_string@_WU?$char_traits@_W@std@@V?$allocator@_W@2@@2@_K@Z 0000000180038c7c     tile.obj
 0002:0000cc7c       $unwind$?NotifyRefChanged@SealedReferenceMaker@@EEAA?AW4RefResult@@VInterval@@PEAVReferenceTarget@@AEA_KI@Z 0000000180038c7c     BerconDistortion.obj
 0002:0000cc7c       $unwind$?GetInterfaceAt@ClassDesc@@UEAAPEAVFPInterface@@H@Z 0000000180038c7c     BerconDistortion.obj
 0002:0000cc7c       $unwind$__scrt_acquire_startup_lock 0000000180038c7c     MSVCRT:utility.obj
 0002:0000cc7c       $unwind$?allocate@?$allocator@M@std@@QEAAPEAM_K@Z 0000000180038c7c     tile.obj
 0002:0000cc7c       $unwind$__scrt_dllmain_uninitialize_critical 0000000180038c7c     MSVCRT:utility.obj
 0002:0000cc7c       $unwind$?LibDescription@@YAPEB_WXZ 0000000180038c7c     DllEntry.obj
 0002:0000cc7c       $unwind$?LibClassDesc@@YAPEAVClassDesc@@H@Z 0000000180038c7c     DllEntry.obj
 0002:0000cc7c       $unwind$?GetString@@YAPEA_WH@Z 0000000180038c7c     DllEntry.obj
 0002:0000cc7c       $unwind$?dllmain_crt_dispatch@@YAHQEAUHINSTANCE__@@KQEAX@Z 0000000180038c7c     MSVCRT:dll_dllmain.obj
 0002:0000cc7c       $unwind$?allocate@?$allocator@VTileRow@@@std@@QEAAPEAVTileRow@@_K@Z 0000000180038c7c     tile.obj
 0002:0000cc7c       $unwind$?deallocate@?$allocator@_W@std@@QEAAXPEA_W_K@Z 0000000180038c7c     BerconTile.obj
 0002:0000cc7c       $unwind$?allocate@?$allocator@_W@std@@QEAAPEA_W_K@Z 0000000180038c7c     BerconTile.obj
 0002:0000cc88       $xdatasym                  0000000180038c88     MSVCRT:_chkstk_.obj
 0002:0000cc90       $unwind$?dllmain_crt_process_attach@@YAHQEAUHINSTANCE__@@QEAX@Z 0000000180038c90     MSVCRT:dll_dllmain.obj
 0002:0000ccbc       $unwind$?dllmain_crt_process_detach@@YAH_N@Z 0000000180038cbc     MSVCRT:dll_dllmain.obj
 0002:0000cce4       $unwind$?dllmain_dispatch@@YAHQEAUHINSTANCE__@@KQEAX@Z 0000000180038ce4     MSVCRT:dll_dllmain.obj
 0002:0000cd0c       $unwind$?filt$0@?0??dllmain_dispatch@@YAHQEAUHINSTANCE__@@KQEAX@Z@4HA 0000000180038d0c     MSVCRT:dll_dllmain.obj
 0002:0000cd14       $unwind$__isa_available_init 0000000180038d14     MSVCRT:_cpu_disp_.obj
 0002:0000cd28       $unwind$__scrt_fastfail    0000000180038d28     MSVCRT:utility_desktop.obj
 0002:0000cd38       $unwind$__security_init_cookie 0000000180038d38     MSVCRT:gs_support.obj
 0002:0000cd48       $xdatasym                  0000000180038d48     MSVCRT:_guard_dispatch_.obj
 0002:0000cf30       .edata                     0000000180038f30     BerconMaps.exp
 0002:0000cf58       rgpv                       0000000180038f58     BerconMaps.exp
 0002:0000cf74       rgszName                   0000000180038f74     BerconMaps.exp
 0002:0000cf90       rgwOrd                     0000000180038f90     BerconMaps.exp
 0002:0000cf9e       szName                     0000000180038f9e     BerconMaps.exp
 0002:0000cfae       $N00005                    0000000180038fae     BerconMaps.exp
 0002:0000cfcf       $N00003                    0000000180038fcf     BerconMaps.exp
 0002:0000cfdc       $N00001                    0000000180038fdc     BerconMaps.exp
 0002:0000cfeb       $N00006                    0000000180038feb     BerconMaps.exp
 0002:0000d001       $N00002                    0000000180039001     BerconMaps.exp
 0002:0000d012       $N00007                    0000000180039012     BerconMaps.exp
 0002:0000d026       $N00004                    0000000180039026     BerconMaps.exp
 0002:0000eece       .idata$6                   000000018003aece     core:core.dll
 0002:0000f0fc       .idata$6                   000000018003b0fc     geom:geom.dll
 0002:0000f14c       .idata$6                   000000018003b14c     Maxscrpt:MAXScrpt.dll
 0002:0000f516       .idata$6                   000000018003b516     maxutil:maxutil.dll
 0002:0000f98a       .idata$6                   000000018003b98a     Paramblk2:ParamBlk2.dll
 0002:0000faa8       .idata$6                   000000018003baa8     kernel32:KERNEL32.dll
 0002:0000fbe2       .idata$6                   000000018003bbe2     user32:USER32.dll
 0002:0000fc86       .idata$6                   000000018003bc86     gdi32:GDI32.dll
 0002:0001024e       .idata$6                   000000018003c24e     msvcprt:MSVCP140.dll
 0002:0001031c       .idata$6                   000000018003c31c     vcruntime:VCRUNTIME140.dll
 0002:0001049c       .idata$6                   000000018003c49c     ucrt:api-ms-win-crt-utility-l1-1-0.dll
 0002:000104be       .idata$6                   000000018003c4be     ucrt:api-ms-win-crt-math-l1-1-0.dll
 0002:000104de       .idata$6                   000000018003c4de     ucrt:api-ms-win-crt-runtime-l1-1-0.dll
 0002:00010500       .idata$6                   000000018003c500     ucrt:api-ms-win-crt-heap-l1-1-0.dll
 0003:00000008       ?BlinnClassID@@3VClass_ID@@A 000000018003d008     BerconDistortion.obj
 0003:00000010       ?AnisoShaderClassID@@3VClass_ID@@A 000000018003d010     BerconDistortion.obj
 0003:00000018       ?AnisoShaderDlgClassID@@3VClass_ID@@A 000000018003d018     BerconDistortion.obj
 0003:00000020       ?OrenNayarBlinnShaderClassID@@3VClass_ID@@A 000000018003d020     BerconDistortion.obj
 0003:00000028       ?OrenNayarShaderDlgClassID@@3VClass_ID@@A 000000018003d028     BerconDistortion.obj
 0003:00000030       ?StraussShaderClassID@@3VClass_ID@@A 000000018003d030     BerconDistortion.obj
 0003:00000038       ?kTriObjNormalXTCID@@3VClass_ID@@B 000000018003d038     BerconDistortion.obj
 0003:00000040       ?black@@3VAColor@@A        000000018003d040     BerconDistortion.obj
 0003:00000050       ?BlinnClassID@@3VClass_ID@@A 000000018003d050     BerconGradient.obj
 0003:00000058       ?AnisoShaderClassID@@3VClass_ID@@A 000000018003d058     BerconGradient.obj
 0003:00000060       ?AnisoShaderDlgClassID@@3VClass_ID@@A 000000018003d060     BerconGradient.obj
 0003:00000068       ?OrenNayarBlinnShaderClassID@@3VClass_ID@@A 000000018003d068     BerconGradient.obj
 0003:00000070       ?OrenNayarShaderDlgClassID@@3VClass_ID@@A 000000018003d070     BerconGradient.obj
 0003:00000078       ?StraussShaderClassID@@3VClass_ID@@A 000000018003d078     BerconGradient.obj
 0003:00000080       ?kTriObjNormalXTCID@@3VClass_ID@@B 000000018003d080     BerconGradient.obj
 0003:00000088       ?n1@?L@??getGradientValue@BerconGradient@@QEAAMAEAVShadeContext@@@Z@4MA 000000018003d088     BerconGradient.obj
 0003:00000090       ?BlinnClassID@@3VClass_ID@@A 000000018003d090     BerconTile.obj
 0003:00000098       ?AnisoShaderClassID@@3VClass_ID@@A 000000018003d098     BerconTile.obj
 0003:000000a0       ?AnisoShaderDlgClassID@@3VClass_ID@@A 000000018003d0a0     BerconTile.obj
 0003:000000a8       ?OrenNayarBlinnShaderClassID@@3VClass_ID@@A 000000018003d0a8     BerconTile.obj
 0003:000000b0       ?OrenNayarShaderDlgClassID@@3VClass_ID@@A 000000018003d0b0     BerconTile.obj
 0003:000000b8       ?StraussShaderClassID@@3VClass_ID@@A 000000018003d0b8     BerconTile.obj
 0003:000000c0       ?kTriObjNormalXTCID@@3VClass_ID@@B 000000018003d0c0     BerconTile.obj
 0003:000000c8       ?black@@3VAColor@@A        000000018003d0c8     BerconTile.obj
 0003:000000d8       ?white@@3VAColor@@A        000000018003d0d8     BerconTile.obj
 0003:000000e8       ?BlinnClassID@@3VClass_ID@@A 000000018003d0e8     BerconWood.obj
 0003:000000f0       ?AnisoShaderClassID@@3VClass_ID@@A 000000018003d0f0     BerconWood.obj
 0003:000000f8       ?AnisoShaderDlgClassID@@3VClass_ID@@A 000000018003d0f8     BerconWood.obj
 0003:00000100       ?OrenNayarBlinnShaderClassID@@3VClass_ID@@A 000000018003d100     BerconWood.obj
 0003:00000108       ?OrenNayarShaderDlgClassID@@3VClass_ID@@A 000000018003d108     BerconWood.obj
 0003:00000110       ?StraussShaderClassID@@3VClass_ID@@A 000000018003d110     BerconWood.obj
 0003:00000118       ?kTriObjNormalXTCID@@3VClass_ID@@B 000000018003d118     BerconWood.obj
 0003:00000120       ?white@@3VAColor@@A        000000018003d120     BerconWood.obj
 0003:00000130       ?kTriObjNormalXTCID@@3VClass_ID@@B 000000018003d130     DllEntry.obj
 0003:00000138       ?BlinnClassID@@3VClass_ID@@A 000000018003d138     BerconCommon.obj
 0003:00000140       ?AnisoShaderClassID@@3VClass_ID@@A 000000018003d140     BerconCommon.obj
 0003:00000148       ?AnisoShaderDlgClassID@@3VClass_ID@@A 000000018003d148     BerconCommon.obj
 0003:00000150       ?OrenNayarBlinnShaderClassID@@3VClass_ID@@A 000000018003d150     BerconCommon.obj
 0003:00000158       ?OrenNayarShaderDlgClassID@@3VClass_ID@@A 000000018003d158     BerconCommon.obj
 0003:00000160       ?StraussShaderClassID@@3VClass_ID@@A 000000018003d160     BerconCommon.obj
 0003:00000168       ?kTriObjNormalXTCID@@3VClass_ID@@B 000000018003d168     BerconCommon.obj
 0003:00000170       ?BlinnClassID@@3VClass_ID@@A 000000018003d170     BerconNoise.obj
 0003:00000178       ?AnisoShaderClassID@@3VClass_ID@@A 000000018003d178     BerconNoise.obj
 0003:00000180       ?AnisoShaderDlgClassID@@3VClass_ID@@A 000000018003d180     BerconNoise.obj
 0003:00000188       ?OrenNayarBlinnShaderClassID@@3VClass_ID@@A 000000018003d188     BerconNoise.obj
 0003:00000190       ?OrenNayarShaderDlgClassID@@3VClass_ID@@A 000000018003d190     BerconNoise.obj
 0003:00000198       ?StraussShaderClassID@@3VClass_ID@@A 000000018003d198     BerconNoise.obj
 0003:000001a0       ?kTriObjNormalXTCID@@3VClass_ID@@B 000000018003d1a0     BerconNoise.obj
 0003:000001a8       ?white@@3VAColor@@A        000000018003d1a8     BerconNoise.obj
 0003:000001b8       ?kTriObjNormalXTCID@@3VClass_ID@@B 000000018003d1b8     fractal.obj
 0003:000001c0       ?BlinnClassID@@3VClass_ID@@A 000000018003d1c0     GradientRamp.obj
 0003:000001c8       ?AnisoShaderClassID@@3VClass_ID@@A 000000018003d1c8     GradientRamp.obj
 0003:000001d0       ?AnisoShaderDlgClassID@@3VClass_ID@@A 000000018003d1d0     GradientRamp.obj
 0003:000001d8       ?OrenNayarBlinnShaderClassID@@3VClass_ID@@A 000000018003d1d8     GradientRamp.obj
 0003:000001e0       ?OrenNayarShaderDlgClassID@@3VClass_ID@@A 000000018003d1e0     GradientRamp.obj
 0003:000001e8       ?StraussShaderClassID@@3VClass_ID@@A 000000018003d1e8     GradientRamp.obj
 0003:000001f0       ?kTriObjNormalXTCID@@3VClass_ID@@B 000000018003d1f0     GradientRamp.obj
 0003:000001f8       ?kTriObjNormalXTCID@@3VClass_ID@@B 000000018003d1f8     IGradient.obj
 0003:00000200       ?BlinnClassID@@3VClass_ID@@A 000000018003d200     IGradient.obj
 0003:00000208       ?AnisoShaderClassID@@3VClass_ID@@A 000000018003d208     IGradient.obj
 0003:00000210       ?AnisoShaderDlgClassID@@3VClass_ID@@A 000000018003d210     IGradient.obj
 0003:00000218       ?OrenNayarBlinnShaderClassID@@3VClass_ID@@A 000000018003d218     IGradient.obj
 0003:00000220       ?OrenNayarShaderDlgClassID@@3VClass_ID@@A 000000018003d220     IGradient.obj
 0003:00000228       ?StraussShaderClassID@@3VClass_ID@@A 000000018003d228     IGradient.obj
 0003:00000230       ?kTriObjNormalXTCID@@3VClass_ID@@B 000000018003d230     noise.obj
 0003:00000240       ?perm@@3PAEA               000000018003d240     perlin.obj
 0003:00000440       ?simplex@@3PAY03EA         000000018003d440     perlin.obj
 0003:00000540       ?kTriObjNormalXTCID@@3VClass_ID@@B 000000018003d540     tile.obj
 0003:00000548       ?pat_herring_dir@@3PAEA    000000018003d548     tile.obj
 0003:00000560       ?pat_herring_x@@3PAMA      000000018003d560     tile.obj
 0003:000005a0       ?pat_herring_y@@3PAMA      000000018003d5a0     tile.obj
 0003:000005e0       ?pat_herring_id@@3PAEA     000000018003d5e0     tile.obj
 0003:000005f0       ?Poisson_count@@3PADA      000000018003d5f0     worley.obj
 0003:000006f0       ?kTriObjNormalXTCID@@3VClass_ID@@B 000000018003d6f0     commonMath.obj
 0003:00001160       ?BerconDistortion_param_blk@@3VParamBlockDesc2@@A 000000018003e160     BerconDistortion.obj
 0003:000011e0       ?kInvalidId@AssetManagement@MaxSDK@@3UAssetId@12@A 000000018003e1e0     BerconDistortion.obj
 0003:000011f0       ?BerconDistortionDesc@@3VBerconDistortionClassDesc@@A 000000018003e1f0     BerconDistortion.obj
 0003:00001220       ?xyz_blk@@3VXYZ_Desc@@A    000000018003e220     BerconDistortion.obj
 0003:000012a8       ?kInvalidId@AssetManagement@MaxSDK@@3UAssetId@12@A 000000018003e2a8     BerconGradient.obj
 0003:000012c0       ?gradientmap_param_blk@@3VParamBlockDesc2@@A 000000018003e2c0     BerconGradient.obj
 0003:00001340       ?xyz_blk@@3VXYZ_Desc@@A    000000018003e340     BerconGradient.obj
 0003:000013c0       ?BerconGradientDesc@@3VBerconGradientClassDesc@@A 000000018003e3c0     BerconGradient.obj
 0003:00001400       ?BerconMap_param_blk@@3VParamBlockDesc2@@A 000000018003e400     BerconTile.obj
 0003:00001480       ?kInvalidId@AssetManagement@MaxSDK@@3UAssetId@12@A 000000018003e480     BerconTile.obj
 0003:00001490       ?BerconTileDesc@@3VBerconTileClassDesc@@A 000000018003e490     BerconTile.obj
 0003:000014c0       ?BerconTile_param_blk@@3VParamBlockDesc2@@A 000000018003e4c0     BerconTile.obj
 0003:00001540       ?xyz_blk@@3VXYZ_Desc@@A    000000018003e540     BerconTile.obj
 0003:000015d0       ?BerconMap_param_blk@@3VParamBlockDesc2@@A 000000018003e5d0     BerconWood.obj
 0003:00001650       ?kInvalidId@AssetManagement@MaxSDK@@3UAssetId@12@A 000000018003e650     BerconWood.obj
 0003:00001660       ?BerconWoodDesc@@3VBerconWoodClassDesc@@A 000000018003e660     BerconWood.obj
 0003:00001690       ?xyz_blk@@3VXYZ_Desc@@A    000000018003e690     BerconWood.obj
 0003:00001710       ?BerconWood_param_blk@@3VParamBlockDesc2@@A 000000018003e710     BerconWood.obj
 0003:00001790       ?black@@3VAColor@@A        000000018003e790     BerconWood.obj
 0003:000017b0       ?kInvalidId@AssetManagement@MaxSDK@@3UAssetId@12@A 000000018003e7b0     DllEntry.obj
 0003:000017d0       ?buf@?1??GetString@@YAPEA_WH@Z@4PA_WA 000000018003e7d0     DllEntry.obj
 0003:000019d0       ?kInvalidId@AssetManagement@MaxSDK@@3UAssetId@12@A 000000018003e9d0     BerconCommon.obj
 0003:000019f0       ?BerconMap_param_blk@@3VParamBlockDesc2@@A 000000018003e9f0     BerconNoise.obj
 0003:00001a70       ?berconnoise_param_blk@@3VParamBlockDesc2@@A 000000018003ea70     BerconNoise.obj
 0003:00001af0       ?kInvalidId@AssetManagement@MaxSDK@@3UAssetId@12@A 000000018003eaf0     BerconNoise.obj
 0003:00001b00       ?BerconNoiseDesc@@3VBerconNoiseClassDesc@@A 000000018003eb00     BerconNoise.obj
 0003:00001b30       ?xyz_blk@@3VXYZ_Desc@@A    000000018003eb30     BerconNoise.obj
 0003:00001bb0       ?black@@3VAColor@@A        000000018003ebb0     BerconNoise.obj
 0003:00001bc0       ?kInvalidId@AssetManagement@MaxSDK@@3UAssetId@12@A 000000018003ebc0     fractal.obj
 0003:00001bd0       ?kInvalidId@AssetManagement@MaxSDK@@3UAssetId@12@A 000000018003ebd0     GradientRamp.obj
 0003:00001be0       ?kInvalidId@AssetManagement@MaxSDK@@3UAssetId@12@A 000000018003ebe0     IGradient.obj
 0003:00001bf0       ?kInvalidId@AssetManagement@MaxSDK@@3UAssetId@12@A 000000018003ebf0     noise.obj
 0003:00001c00       ?kInvalidId@AssetManagement@MaxSDK@@3UAssetId@12@A 000000018003ec00     tile.obj
 0003:00001c10       ?kInvalidId@AssetManagement@MaxSDK@@3UAssetId@12@A 000000018003ec10     commonMath.obj
 0003:00001c30       ?module_local_atexit_table@@3U_onexit_table_t@@A 000000018003ec30     MSVCRT:utility.obj
 0003:00001c48       ?module_local_at_quick_exit_table@@3U_onexit_table_t@@A 000000018003ec48     MSVCRT:utility.obj
 0003:00001c60       ?is_initialized_as_dll@@3_NA 000000018003ec60     MSVCRT:utility.obj
 0003:00001c64       ?__proc_attached@@3HA      000000018003ec64     MSVCRT:dll_dllmain.obj
 0004:00000000       $pdata$??__EBerconDistortionDesc@@YAXXZ 000000018003f000     BerconDistortion.obj
 0004:0000000c       $pdata$??__EBerconDistortion_param_blk@@YAXXZ 000000018003f00c     BerconDistortion.obj
 0004:00000018       $pdata$??__Exyz_blk@@YAXXZ 000000018003f018     BerconDistortion.obj
 0004:00000024       $pdata$??__EBerconGradientDesc@@YAXXZ 000000018003f024     BerconGradient.obj
 0004:00000030       $pdata$??__Egradientmap_param_blk@@YAXXZ 000000018003f030     BerconGradient.obj
 0004:0000003c       $pdata$??__Exyz_blk@@YAXXZ 000000018003f03c     BerconGradient.obj
 0004:00000048       $pdata$??__EBerconMap_param_blk@@YAXXZ 000000018003f048     BerconTile.obj
 0004:00000054       $pdata$??__EBerconTileDesc@@YAXXZ 000000018003f054     BerconTile.obj
 0004:00000060       $pdata$??__EBerconTile_param_blk@@YAXXZ 000000018003f060     BerconTile.obj
 0004:0000006c       $pdata$??__Exyz_blk@@YAXXZ 000000018003f06c     BerconTile.obj
 0004:00000078       $pdata$??__EBerconMap_param_blk@@YAXXZ 000000018003f078     BerconWood.obj
 0004:00000084       $pdata$??__EBerconWoodDesc@@YAXXZ 000000018003f084     BerconWood.obj
 0004:00000090       $pdata$??__EBerconWood_param_blk@@YAXXZ 000000018003f090     BerconWood.obj
 0004:0000009c       $pdata$??__Exyz_blk@@YAXXZ 000000018003f09c     BerconWood.obj
 0004:000000a8       $pdata$??__EBerconMap_param_blk@@YAXXZ 000000018003f0a8     BerconNoise.obj
 0004:000000b4       $pdata$??__EBerconNoiseDesc@@YAXXZ 000000018003f0b4     BerconNoise.obj
 0004:000000c0       $pdata$??__Eberconnoise_param_blk@@YAXXZ 000000018003f0c0     BerconNoise.obj
 0004:000000cc       $pdata$??__Exyz_blk@@YAXXZ 000000018003f0cc     BerconNoise.obj
 0004:000000d8       $pdata$?Create@BerconDistortionClassDesc@@UEAAPEAXH@Z 000000018003f0d8     BerconDistortion.obj
 0004:000000e4       $pdata$??_GBerconDistortionClassDesc@@UEAAPEAXI@Z 000000018003f0e4     BerconDistortion.obj
 0004:000000f0       $pdata$??_GXYZ_Desc@@UEAAPEAXI@Z 000000018003f0f0     BerconDistortion.obj
 0004:000000fc       $pdata$?GetInterfaceAt@ClassDesc@@UEAAPEAVFPInterface@@H@Z 000000018003f0fc     BerconDistortion.obj
 0004:00000108       $pdata$??1TabOutOfRangeException@Util@MaxSDK@@UEAA@XZ 000000018003f108     BerconDistortion.obj
 0004:00000114       $pdata$??0TabOutOfRangeException@Util@MaxSDK@@QEAA@AEBV012@@Z 000000018003f114     BerconDistortion.obj
 0004:00000120       $pdata$??_GTabOutOfRangeException@Util@MaxSDK@@UEAAPEAXI@Z 000000018003f120     BerconDistortion.obj
 0004:0000012c       $pdata$??0BerconDistortion@@QEAA@XZ 000000018003f12c     BerconDistortion.obj
 0004:00000138       $pdata$??0BerconSC@@QEAA@QEAVShadeContext@@@Z 000000018003f138     BerconDistortion.obj
 0004:00000144       $pdata$??0BerconXYZ@@QEAA@XZ 000000018003f144     BerconDistortion.obj
 0004:00000150       $pdata$??0VertexNormalsControl@@QEAA@XZ 000000018003f150     BerconDistortion.obj
 0004:0000015c       $pdata$??0XYZ_Desc@@QEAA@PEAVClassDesc2@@HHHHHHH@Z 000000018003f15c     BerconDistortion.obj
 0004:00000168       $pdata$??1?$Tab@PEAVBaseInterface@@@@QEAA@XZ 000000018003f168     BerconDistortion.obj
 0004:00000174       $pdata$??1?$Tab@PEAVVertexNormalsCallback@@@@QEAA@XZ 000000018003f174     BerconDistortion.obj
 0004:00000180       $pdata$??1BerconSC@@UEAA@XZ 000000018003f180     BerconDistortion.obj
 0004:0000018c       $pdata$??1RenderGlobalContext@@UEAA@XZ 000000018003f18c     BerconDistortion.obj
 0004:00000198       $pdata$??1ShadeContext@@UEAA@XZ 000000018003f198     BerconDistortion.obj
 0004:000001a4       $pdata$??1ShadeOutput@@UEAA@XZ 000000018003f1a4     BerconDistortion.obj
 0004:000001b0       $pdata$??1Texmap@@UEAA@XZ  000000018003f1b0     BerconDistortion.obj
 0004:000001bc       $pdata$??A?$Tab@PEAVFPInterface@@@@QEBAAEAPEAVFPInterface@@_J@Z 000000018003f1bc     BerconDistortion.obj
 0004:000001c8       $pdata$??_GBaseInterfaceServer@@UEAAPEAXI@Z 000000018003f1c8     BerconDistortion.obj
 0004:000001d4       $pdata$??_GBerconDistortion@@UEAAPEAXI@Z 000000018003f1d4     BerconDistortion.obj
 0004:000001e0       $pdata$??_GBerconSC@@UEAAPEAXI@Z 000000018003f1e0     BerconDistortion.obj
 0004:000001ec       $pdata$??_GBerconXYZDlgProc@@UEAAPEAXI@Z 000000018003f1ec     BerconDistortion.obj
 0004:000001f8       $pdata$??_GInterfaceServer@@UEAAPEAXI@Z 000000018003f1f8     BerconDistortion.obj
 0004:00000204       $pdata$??_GParamMap2UserDlgProc@@UEAAPEAXI@Z 000000018003f204     BerconDistortion.obj
 0004:00000210       $pdata$??_GRenderGlobalContext@@UEAAPEAXI@Z 000000018003f210     BerconDistortion.obj
 0004:0000021c       $pdata$??_GShadeContext@@UEAAPEAXI@Z 000000018003f21c     BerconDistortion.obj
 0004:00000228       $pdata$??_GShadeOutput@@UEAAPEAXI@Z 000000018003f228     BerconDistortion.obj
 0004:00000234       $pdata$?ActivateTexDisplay@BerconDistortion@@UEAAXH@Z 000000018003f234     BerconDistortion.obj
 0004:00000240       $pdata$?BarycentricCoords@BerconSC@@UEAA?AVPoint3@@XZ 000000018003f240     BerconDistortion.obj
 0004:0000024c       $pdata$?CamPos@BerconSC@@UEAA?AVPoint3@@XZ 000000018003f24c     BerconDistortion.obj
 0004:00000258       $pdata$?Clone@BerconDistortion@@UEAAPEAVReferenceTarget@@AEAVRemapDir@@@Z 000000018003f258     BerconDistortion.obj
 0004:00000264       $pdata$?CreateParamDlg@BerconDistortion@@UEAAPEAVParamDlg@@PEAUHWND__@@PEAVIMtlParams@@@Z 000000018003f264     BerconDistortion.obj
 0004:00000270       $pdata$?DP@BerconSC@@UEAA?AVPoint3@@XZ 000000018003f270     BerconDistortion.obj
 0004:0000027c       $pdata$?DPObj@BerconSC@@UEAA?AVPoint3@@XZ 000000018003f27c     BerconDistortion.obj
 0004:00000288       $pdata$?DPObjRelBox@BerconSC@@UEAA?AVPoint3@@XZ 000000018003f288     BerconDistortion.obj
 0004:00000294       $pdata$?DUVW@BerconSC@@UEAA?AVPoint3@@H@Z 000000018003f294     BerconDistortion.obj
 0004:000002a0       $pdata$?DeleteThis@BerconXYZDlgProc@@UEAAXXZ 000000018003f2a0     BerconDistortion.obj
 0004:000002ac       $pdata$?DiffuseIllum@BerconSC@@UEAA?AVColor@@XZ 000000018003f2ac     BerconDistortion.obj
 0004:000002b8       $pdata$?DlgProc@BerconXYZDlgProc@@UEAA_JHPEAVIParamMap2@@PEAUHWND__@@I_K_J@Z 000000018003f2b8     BerconDistortion.obj
 0004:000002c4       $pdata$1$?DlgProc@BerconXYZDlgProc@@UEAA_JHPEAVIParamMap2@@PEAUHWND__@@I_K_J@Z 000000018003f2c4     BerconDistortion.obj
 0004:000002d0       $pdata$?EvalColor@BerconDistortion@@UEAA?AVAColor@@AEAVShadeContext@@@Z 000000018003f2d0     BerconDistortion.obj
 0004:000002dc       $pdata$?EvalEnvironMap@BerconSC@@UEAA?AVAColor@@PEAVTexmap@@VPoint3@@@Z 000000018003f2dc     BerconDistortion.obj
 0004:000002e8       $pdata$?EvalGlobalEnvironMap@BerconSC@@UEAA?AVAColor@@VPoint3@@@Z 000000018003f2e8     BerconDistortion.obj
 0004:000002f4       $pdata$?EvalMono@BerconDistortion@@UEAAMAEAVShadeContext@@@Z 000000018003f2f4     BerconDistortion.obj
 0004:00000300       $pdata$?EvalNormalPerturb@BerconDistortion@@UEAA?AVPoint3@@AEAVShadeContext@@@Z 000000018003f300     BerconDistortion.obj
 0004:0000030c       $pdata$?GNormal@BerconSC@@UEAA?AVPoint3@@XZ 000000018003f30c     BerconDistortion.obj
 0004:00000318       $pdata$?GetActiveTexHandle@BerconDistortion@@UEAA_KHAEAVTexHandleMaker@@@Z 000000018003f318     BerconDistortion.obj
 0004:00000324       $pdata$0$?GetActiveTexHandle@BerconDistortion@@UEAA_KHAEAVTexHandleMaker@@@Z 000000018003f324     BerconDistortion.obj
 0004:00000330       $pdata$1$?GetActiveTexHandle@BerconDistortion@@UEAA_KHAEAVTexHandleMaker@@@Z 000000018003f330     BerconDistortion.obj
 0004:0000033c       $pdata$?GetClassName@BerconDistortion@@UEAAXAEAVWStr@@@Z 000000018003f33c     BerconDistortion.obj
 0004:00000348       $pdata$?GetInterface@MtlBase@@UEAAPEAVBaseInterface@@VInterface_ID@@@Z 000000018003f348     BerconDistortion.obj
 0004:00000354       $pdata$?GetParamBlockByID@BerconDistortion@@UEAAPEAVIParamBlock2@@F@Z 000000018003f354     BerconDistortion.obj
 0004:00000360       $pdata$?GetSubTexmapSlotName@BerconDistortion@@UEAA?AVWStr@@H@Z 000000018003f360     BerconDistortion.obj
 0004:0000036c       $pdata$?IsSubClassOf@Animatable@@UEAAHVClass_ID@@@Z 000000018003f36c     BerconDistortion.obj
 0004:00000378       $pdata$?Normal@BerconSC@@UEAA?AVPoint3@@XZ 000000018003f378     BerconDistortion.obj
 0004:00000384       $pdata$?NotifyDependents@SealedReferenceMaker@@EEAA?AW4RefResult@@VInterval@@_KIKHPEAVReferenceTarget@@@Z 000000018003f384     BerconDistortion.obj
 0004:00000390       $pdata$?NotifyForeground@ReferenceTarget@@UEAAXH@Z 000000018003f390     BerconDistortion.obj
 0004:0000039c       $pdata$?NotifyRefChanged@BerconDistortion@@UEAA?AW4RefResult@@AEBVInterval@@PEAVReferenceTarget@@AEA_KIH@Z 000000018003f39c     BerconDistortion.obj
 0004:000003a8       $pdata$0$?NotifyRefChanged@BerconDistortion@@UEAA?AW4RefResult@@AEBVInterval@@PEAVReferenceTarget@@AEA_KIH@Z 000000018003f3a8     BerconDistortion.obj
 0004:000003b4       $pdata$1$?NotifyRefChanged@BerconDistortion@@UEAA?AW4RefResult@@AEBVInterval@@PEAVReferenceTarget@@AEA_KIH@Z 000000018003f3b4     BerconDistortion.obj
 0004:000003c0       $pdata$?NotifyRefChanged@SealedReferenceMaker@@EEAA?AW4RefResult@@VInterval@@PEAVReferenceTarget@@AEA_KI@Z 000000018003f3c0     BerconDistortion.obj
 0004:000003cc       $pdata$?ObjectBox@BerconSC@@UEAA?AVBox3@@XZ 000000018003f3cc     BerconDistortion.obj
 0004:000003d8       $pdata$?OrigNormal@BerconSC@@UEAA?AVPoint3@@XZ 000000018003f3d8     BerconDistortion.obj
 0004:000003e4       $pdata$?OrigNormal@ShadeContext@@UEAA?AVPoint3@@XZ 000000018003f3e4     BerconDistortion.obj
 0004:000003f0       $pdata$?OrigView@BerconSC@@UEAA?AVPoint3@@XZ 000000018003f3f0     BerconDistortion.obj
 0004:000003fc       $pdata$?OrigView@ShadeContext@@UEAA?AVPoint3@@XZ 000000018003f3fc     BerconDistortion.obj
 0004:00000408       $pdata$?P@BerconSC@@UEAA?AVPoint3@@XZ 000000018003f408     BerconDistortion.obj
 0004:00000414       $pdata$?PObj@BerconSC@@UEAA?AVPoint3@@XZ 000000018003f414     BerconDistortion.obj
 0004:00000420       $pdata$?PObjRelBox@BerconSC@@UEAA?AVPoint3@@XZ 000000018003f420     BerconDistortion.obj
 0004:0000042c       $pdata$?PointFrom@BerconSC@@UEAA?AVPoint3@@AEBV2@W4RefFrame@@@Z 000000018003f42c     BerconDistortion.obj
 0004:00000438       $pdata$?PointTo@BerconSC@@UEAA?AVPoint3@@AEBV2@W4RefFrame@@@Z 000000018003f438     BerconDistortion.obj
 0004:00000444       $pdata$?RayDiam@ShadeContext@@UEAAMXZ 000000018003f444     BerconDistortion.obj
 0004:00000450       $pdata$?ReflectVector@BerconSC@@UEAA?AVPoint3@@XZ 000000018003f450     BerconDistortion.obj
 0004:0000045c       $pdata$?RefractVector@BerconSC@@UEAA?AVPoint3@@M@Z 000000018003f45c     BerconDistortion.obj
 0004:00000468       $pdata$?Reset@BerconDistortion@@UEAAXXZ 000000018003f468     BerconDistortion.obj
 0004:00000474       $pdata$?ScreenCoord@BerconSC@@UEAA?AVIPoint2@@XZ 000000018003f474     BerconDistortion.obj
 0004:00000480       $pdata$?ScreenUV@BerconSC@@UEAAXAEAVPoint2@@0@Z 000000018003f480     BerconDistortion.obj
 0004:0000048c       $pdata$?Set@BitArray@@QEAAXH@Z 000000018003f48c     BerconDistortion.obj
 0004:00000498       $pdata$?SetNormal@BerconSC@@UEAAXVPoint3@@@Z 000000018003f498     BerconDistortion.obj
 0004:000004a4       $pdata$?SetSubTexmap@BerconDistortion@@UEAAXHPEAVTexmap@@@Z 000000018003f4a4     BerconDistortion.obj
 0004:000004b0       $pdata$?SetView@BerconSC@@UEAAXVPoint3@@@Z 000000018003f4b0     BerconDistortion.obj
 0004:000004bc       $pdata$?SubAnimName@BerconDistortion@@UEAA?AVWStr@@H@Z 000000018003f4bc     BerconDistortion.obj
 0004:000004c8       $pdata$?SurfacePtScreen@BerconSC@@UEAA?AVPoint2@@XZ 000000018003f4c8     BerconDistortion.obj
 0004:000004d4       $pdata$?UVW@BerconSC@@UEAA?AVPoint3@@H@Z 000000018003f4d4     BerconDistortion.obj
 0004:000004e0       $pdata$?UVWNormal@BerconSC@@UEAA?AVPoint3@@H@Z 000000018003f4e0     BerconDistortion.obj
 0004:000004ec       $pdata$?Update@BerconDistortion@@UEAAXHAEAVInterval@@@Z 000000018003f4ec     BerconDistortion.obj
 0004:000004f8       $pdata$0$?Update@BerconDistortion@@UEAAXHAEAVInterval@@@Z 000000018003f4f8     BerconDistortion.obj
 0004:00000504       $pdata$2$?Update@BerconDistortion@@UEAAXHAEAVInterval@@@Z 000000018003f504     BerconDistortion.obj
 0004:00000510       $pdata$3$?Update@BerconDistortion@@UEAAXHAEAVInterval@@@Z 000000018003f510     BerconDistortion.obj
 0004:0000051c       $pdata$4$?Update@BerconDistortion@@UEAAXHAEAVInterval@@@Z 000000018003f51c     BerconDistortion.obj
 0004:00000528       $pdata$?V@BerconSC@@UEAA?AVPoint3@@XZ 000000018003f528     BerconDistortion.obj
 0004:00000534       $pdata$?Validity@BerconDistortion@@UEAA?AVInterval@@H@Z 000000018003f534     BerconDistortion.obj
 0004:00000540       $pdata$?VectorFrom@BerconSC@@UEAA?AVPoint3@@AEBV2@W4RefFrame@@@Z 000000018003f540     BerconDistortion.obj
 0004:0000054c       $pdata$?VectorFromNoScale@BerconSC@@UEAA?AVPoint3@@AEBV2@W4RefFrame@@@Z 000000018003f54c     BerconDistortion.obj
 0004:00000558       $pdata$?VectorTo@BerconSC@@UEAA?AVPoint3@@AEBV2@W4RefFrame@@@Z 000000018003f558     BerconDistortion.obj
 0004:00000564       $pdata$?VectorToNoScale@BerconSC@@UEAA?AVPoint3@@AEBV2@W4RefFrame@@@Z 000000018003f564     BerconDistortion.obj
 0004:00000570       $pdata$?getDistVector@BerconDistortion@@QEAA?AVPoint3@@AEAVShadeContext@@@Z 000000018003f570     BerconDistortion.obj
 0004:0000057c       $pdata$1$?getDistVector@BerconDistortion@@QEAA?AVPoint3@@AEAVShadeContext@@@Z 000000018003f57c     BerconDistortion.obj
 0004:00000588       $pdata$2$?getDistVector@BerconDistortion@@QEAA?AVPoint3@@AEAVShadeContext@@@Z 000000018003f588     BerconDistortion.obj
 0004:00000594       $pdata$?Create@BerconGradientClassDesc@@UEAAPEAXH@Z 000000018003f594     BerconGradient.obj
 0004:000005a0       $pdata$??_GBerconGradientClassDesc@@UEAAPEAXI@Z 000000018003f5a0     BerconGradient.obj
 0004:000005ac       $pdata$??0BerconGradient@@QEAA@XZ 000000018003f5ac     BerconGradient.obj
 0004:000005b8       $pdata$??0IGradient@@QEAA@PEAUHWND__@@PEAVGradientRamp@@@Z 000000018003f5b8     BerconGradient.obj
 0004:000005c4       $pdata$??1BerconGradient@@UEAA@XZ 000000018003f5c4     BerconGradient.obj
 0004:000005d0       $pdata$??1ICustomControl@@UEAA@XZ 000000018003f5d0     BerconGradient.obj
 0004:000005dc       $pdata$??_GBerconGradient@@UEAAPEAXI@Z 000000018003f5dc     BerconGradient.obj
 0004:000005e8       $pdata$??_GBerconGradientDlgProc@@UEAAPEAXI@Z 000000018003f5e8     BerconGradient.obj
 0004:000005f4       $pdata$??_GICustomControl@@UEAAPEAXI@Z 000000018003f5f4     BerconGradient.obj
 0004:00000600       $pdata$??_GIGradient@@UEAAPEAXI@Z 000000018003f600     BerconGradient.obj
 0004:0000060c       $pdata$?ActivateTexDisplay@BerconGradient@@UEAAXH@Z 000000018003f60c     BerconGradient.obj
 0004:00000618       $pdata$?Clone@BerconGradient@@UEAAPEAVReferenceTarget@@AEAVRemapDir@@@Z 000000018003f618     BerconGradient.obj
 0004:00000624       $pdata$?CreateParamDlg@BerconGradient@@UEAAPEAVParamDlg@@PEAUHWND__@@PEAVIMtlParams@@@Z 000000018003f624     BerconGradient.obj
 0004:00000630       $pdata$?DeleteThis@BerconGradient@@UEAAXXZ 000000018003f630     BerconGradient.obj
 0004:0000063c       $pdata$?DiscardTexHandle@BerconGradient@@QEAAXXZ 000000018003f63c     BerconGradient.obj
 0004:00000648       $pdata$?DlgProc@BerconGradientDlgProc@@UEAA_JHPEAVIParamMap2@@PEAUHWND__@@I_K_J@Z 000000018003f648     BerconGradient.obj
 0004:00000654       $pdata$?EnableStuff@BerconGradient@@QEAAXXZ 000000018003f654     BerconGradient.obj
 0004:00000660       $pdata$0$?EnableStuff@BerconGradient@@QEAAXXZ 000000018003f660     BerconGradient.obj
 0004:0000066c       $pdata$2$?EnableStuff@BerconGradient@@QEAAXXZ 000000018003f66c     BerconGradient.obj
 0004:00000678       $pdata$6$?EnableStuff@BerconGradient@@QEAAXXZ 000000018003f678     BerconGradient.obj
 0004:00000684       $pdata$7$?EnableStuff@BerconGradient@@QEAAXXZ 000000018003f684     BerconGradient.obj
 0004:00000690       $pdata$8$?EnableStuff@BerconGradient@@QEAAXXZ 000000018003f690     BerconGradient.obj
 0004:0000069c       $pdata$9$?EnableStuff@BerconGradient@@QEAAXXZ 000000018003f69c     BerconGradient.obj
 0004:000006a8       $pdata$10$?EnableStuff@BerconGradient@@QEAAXXZ 000000018003f6a8     BerconGradient.obj
 0004:000006b4       $pdata$?EvalColor@BerconGradient@@UEAA?AVAColor@@AEAVShadeContext@@@Z 000000018003f6b4     BerconGradient.obj
 0004:000006c0       $pdata$0$?EvalColor@BerconGradient@@UEAA?AVAColor@@AEAVShadeContext@@@Z 000000018003f6c0     BerconGradient.obj
 0004:000006cc       $pdata$1$?EvalColor@BerconGradient@@UEAA?AVAColor@@AEAVShadeContext@@@Z 000000018003f6cc     BerconGradient.obj
 0004:000006d8       $pdata$2$?EvalColor@BerconGradient@@UEAA?AVAColor@@AEAVShadeContext@@@Z 000000018003f6d8     BerconGradient.obj
 0004:000006e4       $pdata$3$?EvalColor@BerconGradient@@UEAA?AVAColor@@AEAVShadeContext@@@Z 000000018003f6e4     BerconGradient.obj
 0004:000006f0       $pdata$?EvalMono@BerconGradient@@UEAAMAEAVShadeContext@@@Z 000000018003f6f0     BerconGradient.obj
 0004:000006fc       $pdata$?EvalNormalPerturb@BerconGradient@@UEAA?AVPoint3@@AEAVShadeContext@@@Z 000000018003f6fc     BerconGradient.obj
 0004:00000708       $pdata$3$?EvalNormalPerturb@BerconGradient@@UEAA?AVPoint3@@AEAVShadeContext@@@Z 000000018003f708     BerconGradient.obj
 0004:00000714       $pdata$5$?EvalNormalPerturb@BerconGradient@@UEAA?AVPoint3@@AEAVShadeContext@@@Z 000000018003f714     BerconGradient.obj
 0004:00000720       $pdata$8$?EvalNormalPerturb@BerconGradient@@UEAA?AVPoint3@@AEAVShadeContext@@@Z 000000018003f720     BerconGradient.obj
 0004:0000072c       $pdata$9$?EvalNormalPerturb@BerconGradient@@UEAA?AVPoint3@@AEAVShadeContext@@@Z 000000018003f72c     BerconGradient.obj
 0004:00000738       $pdata$10$?EvalNormalPerturb@BerconGradient@@UEAA?AVPoint3@@AEAVShadeContext@@@Z 000000018003f738     BerconGradient.obj
 0004:00000744       $pdata$11$?EvalNormalPerturb@BerconGradient@@UEAA?AVPoint3@@AEAVShadeContext@@@Z 000000018003f744     BerconGradient.obj
 0004:00000750       $pdata$?GetActiveTexHandle@BerconGradient@@UEAA_KHAEAVTexHandleMaker@@@Z 000000018003f750     BerconGradient.obj
 0004:0000075c       $pdata$0$?GetActiveTexHandle@BerconGradient@@UEAA_KHAEAVTexHandleMaker@@@Z 000000018003f75c     BerconGradient.obj
 0004:00000768       $pdata$1$?GetActiveTexHandle@BerconGradient@@UEAA_KHAEAVTexHandleMaker@@@Z 000000018003f768     BerconGradient.obj
 0004:00000774       $pdata$?GetClassName@BerconGradient@@UEAAXAEAVWStr@@@Z 000000018003f774     BerconGradient.obj
 0004:00000780       $pdata$?GetParamBlockByID@BerconGradient@@UEAAPEAVIParamBlock2@@F@Z 000000018003f780     BerconGradient.obj
 0004:0000078c       $pdata$?GetSubTexmapSlotName@BerconGradient@@UEAA?AVWStr@@H@Z 000000018003f78c     BerconGradient.obj
 0004:00000798       $pdata$?NotifyRefChanged@BerconGradient@@UEAA?AW4RefResult@@AEBVInterval@@PEAVReferenceTarget@@AEA_KIH@Z 000000018003f798     BerconGradient.obj
 0004:000007a4       $pdata$0$?NotifyRefChanged@BerconGradient@@UEAA?AW4RefResult@@AEBVInterval@@PEAVReferenceTarget@@AEA_KIH@Z 000000018003f7a4     BerconGradient.obj
 0004:000007b0       $pdata$2$?NotifyRefChanged@BerconGradient@@UEAA?AW4RefResult@@AEBVInterval@@PEAVReferenceTarget@@AEA_KIH@Z 000000018003f7b0     BerconGradient.obj
 0004:000007bc       $pdata$3$?NotifyRefChanged@BerconGradient@@UEAA?AW4RefResult@@AEBVInterval@@PEAVReferenceTarget@@AEA_KIH@Z 000000018003f7bc     BerconGradient.obj
 0004:000007c8       $pdata$?Reset@BerconGradient@@UEAAXXZ 000000018003f7c8     BerconGradient.obj
 0004:000007d4       $pdata$?SetDlgThing@BerconGradient@@UEAAHPEAVParamDlg@@@Z 000000018003f7d4     BerconGradient.obj
 0004:000007e0       $pdata$?SetReference@BerconGradient@@EEAAXHPEAVReferenceTarget@@@Z 000000018003f7e0     BerconGradient.obj
 0004:000007ec       $pdata$0$?SetReference@BerconGradient@@EEAAXHPEAVReferenceTarget@@@Z 000000018003f7ec     BerconGradient.obj
 0004:000007f8       $pdata$1$?SetReference@BerconGradient@@EEAAXHPEAVReferenceTarget@@@Z 000000018003f7f8     BerconGradient.obj
 0004:00000804       $pdata$?SetSubTexmap@BerconGradient@@UEAAXHPEAVTexmap@@@Z 000000018003f804     BerconGradient.obj
 0004:00000810       $pdata$?SetThing@BerconGradientDlgProc@@UEAAXPEAVReferenceTarget@@@Z 000000018003f810     BerconGradient.obj
 0004:0000081c       $pdata$?SubAnimName@BerconGradient@@UEAA?AVWStr@@H@Z 000000018003f81c     BerconGradient.obj
 0004:00000828       $pdata$?Update@BerconGradient@@UEAAXHAEAVInterval@@@Z 000000018003f828     BerconGradient.obj
 0004:00000834       $pdata$0$?Update@BerconGradient@@UEAAXHAEAVInterval@@@Z 000000018003f834     BerconGradient.obj
 0004:00000840       $pdata$3$?Update@BerconGradient@@UEAAXHAEAVInterval@@@Z 000000018003f840     BerconGradient.obj
 0004:0000084c       $pdata$4$?Update@BerconGradient@@UEAAXHAEAVInterval@@@Z 000000018003f84c     BerconGradient.obj
 0004:00000858       $pdata$5$?Update@BerconGradient@@UEAAXHAEAVInterval@@@Z 000000018003f858     BerconGradient.obj
 0004:00000864       $pdata$6$?Update@BerconGradient@@UEAAXHAEAVInterval@@@Z 000000018003f864     BerconGradient.obj
 0004:00000870       $pdata$7$?Update@BerconGradient@@UEAAXHAEAVInterval@@@Z 000000018003f870     BerconGradient.obj
 0004:0000087c       $pdata$8$?Update@BerconGradient@@UEAAXHAEAVInterval@@@Z 000000018003f87c     BerconGradient.obj
 0004:00000888       $pdata$?Validity@BerconGradient@@UEAA?AVInterval@@H@Z 000000018003f888     BerconGradient.obj
 0004:00000894       $pdata$?countKeys@BerconGradient@@QEAAHXZ 000000018003f894     BerconGradient.obj
 0004:000008a0       $pdata$?getGradientValue@BerconGradient@@QEAAMAEAVShadeContext@@@Z 000000018003f8a0     BerconGradient.obj
 0004:000008ac       $pdata$3$?getGradientValue@BerconGradient@@QEAAMAEAVShadeContext@@@Z 000000018003f8ac     BerconGradient.obj
 0004:000008b8       $pdata$4$?getGradientValue@BerconGradient@@QEAAMAEAVShadeContext@@@Z 000000018003f8b8     BerconGradient.obj
 0004:000008c4       $pdata$?getGradientValueDist@BerconGradient@@QEAAMAEAVShadeContext@@@Z 000000018003f8c4     BerconGradient.obj
 0004:000008d0       $pdata$3$?getGradientValueDist@BerconGradient@@QEAAMAEAVShadeContext@@@Z 000000018003f8d0     BerconGradient.obj
 0004:000008dc       $pdata$4$?getGradientValueDist@BerconGradient@@QEAAMAEAVShadeContext@@@Z 000000018003f8dc     BerconGradient.obj
 0004:000008e8       $pdata$?getGradientValueNormal@BerconGradient@@QEAAMAEAVShadeContext@@@Z 000000018003f8e8     BerconGradient.obj
 0004:000008f4       $pdata$?getGradientValueUVW@BerconGradient@@QEAAMVPoint3@@@Z 000000018003f8f4     BerconGradient.obj
 0004:00000900       $pdata$0$?getGradientValueUVW@BerconGradient@@QEAAMVPoint3@@@Z 000000018003f900     BerconGradient.obj
 0004:0000090c       $pdata$2$?getGradientValueUVW@BerconGradient@@QEAAMVPoint3@@@Z 000000018003f90c     BerconGradient.obj
 0004:00000918       $pdata$3$?getGradientValueUVW@BerconGradient@@QEAAMVPoint3@@@Z 000000018003f918     BerconGradient.obj
 0004:00000924       $pdata$?gradAddKey@BerconGradient@@UEAAXM@Z 000000018003f924     BerconGradient.obj
 0004:00000930       $pdata$1$?gradAddKey@BerconGradient@@UEAAXM@Z 000000018003f930     BerconGradient.obj
 0004:0000093c       $pdata$2$?gradAddKey@BerconGradient@@UEAAXM@Z 000000018003f93c     BerconGradient.obj
 0004:00000948       $pdata$?gradDelKey@BerconGradient@@UEAAXH@Z 000000018003f948     BerconGradient.obj
 0004:00000954       $pdata$0$?gradDelKey@BerconGradient@@UEAAXH@Z 000000018003f954     BerconGradient.obj
 0004:00000960       $pdata$1$?gradDelKey@BerconGradient@@UEAAXH@Z 000000018003f960     BerconGradient.obj
 0004:0000096c       $pdata$?gradMoveKey@BerconGradient@@UEAAXHM@Z 000000018003f96c     BerconGradient.obj
 0004:00000978       $pdata$?gradSelKey@BerconGradient@@UEAAXXZ 000000018003f978     BerconGradient.obj
 0004:00000984       $pdata$?keyColorChanged@BerconGradient@@QEAAXVAColor@@@Z 000000018003f984     BerconGradient.obj
 0004:00000990       $pdata$?keyNumChanged@BerconGradient@@QEAAXH@Z 000000018003f990     BerconGradient.obj
 0004:0000099c       $pdata$?keyPosChanged@BerconGradient@@QEAAXM@Z 000000018003f99c     BerconGradient.obj
 0004:000009a8       $pdata$?resetKeys@BerconGradient@@QEAAXXZ 000000018003f9a8     BerconGradient.obj
 0004:000009b4       $pdata$?seedRandomGen@BerconGradient@@QEAAXAEAVShadeContext@@@Z 000000018003f9b4     BerconGradient.obj
 0004:000009c0       $pdata$0$?seedRandomGen@BerconGradient@@QEAAXAEAVShadeContext@@@Z 000000018003f9c0     BerconGradient.obj
 0004:000009cc       $pdata$1$?seedRandomGen@BerconGradient@@QEAAXAEAVShadeContext@@@Z 000000018003f9cc     BerconGradient.obj
 0004:000009d8       $pdata$2$?seedRandomGen@BerconGradient@@QEAAXAEAVShadeContext@@@Z 000000018003f9d8     BerconGradient.obj
 0004:000009e4       $pdata$3$?seedRandomGen@BerconGradient@@QEAAXAEAVShadeContext@@@Z 000000018003f9e4     BerconGradient.obj
 0004:000009f0       $pdata$?setKeyTex@BerconGradient@@QEAAXPEAVTexmap@@@Z 000000018003f9f0     BerconGradient.obj
 0004:000009fc       $pdata$0$?setKeyTex@BerconGradient@@QEAAXPEAVTexmap@@@Z 000000018003f9fc     BerconGradient.obj
 0004:00000a08       $pdata$1$?setKeyTex@BerconGradient@@QEAAXPEAVTexmap@@@Z 000000018003fa08     BerconGradient.obj
 0004:00000a14       $pdata$?Create@BerconTileClassDesc@@UEAAPEAXH@Z 000000018003fa14     BerconTile.obj
 0004:00000a20       $pdata$??_GBerconTileClassDesc@@UEAAPEAXI@Z 000000018003fa20     BerconTile.obj
 0004:00000a2c       $pdata$??$_Destroy_range1@V?$allocator@VTileRow@@@std@@PEAVTileRow@@@std@@YAXPEAVTileRow@@0AEAU?$_Wrap_alloc@V?$allocator@VTileRow@@@std@@@0@U?$integral_constant@_N$0A@@0@@Z 000000018003fa2c     BerconTile.obj
 0004:00000a38       $pdata$??0BerconTile@@QEAA@XZ 000000018003fa38     BerconTile.obj
 0004:00000a44       $pdata$??1?$basic_string@_WU?$char_traits@_W@std@@V?$allocator@_W@2@@std@@QEAA@XZ 000000018003fa44     BerconTile.obj
 0004:00000a50       $pdata$??1?$vector@MV?$allocator@M@std@@@std@@QEAA@XZ 000000018003fa50     BerconTile.obj
 0004:00000a5c       $pdata$??1?$vector@VTileRow@@V?$allocator@VTileRow@@@std@@@std@@QEAA@XZ 000000018003fa5c     BerconTile.obj
 0004:00000a68       $pdata$??1BerconTile@@UEAA@XZ 000000018003fa68     BerconTile.obj
 0004:00000a74       $pdata$??1TilePattern@@QEAA@XZ 000000018003fa74     BerconTile.obj
 0004:00000a80       $pdata$??_GBerconTile@@UEAAPEAXI@Z 000000018003fa80     BerconTile.obj
 0004:00000a8c       $pdata$??_GBerconTileDlgProc@@UEAAPEAXI@Z 000000018003fa8c     BerconTile.obj
 0004:00000a98       $pdata$?ActivateTexDisplay@BerconTile@@UEAAXH@Z 000000018003fa98     BerconTile.obj
 0004:00000aa4       $pdata$?Clone@BerconTile@@UEAAPEAVReferenceTarget@@AEAVRemapDir@@@Z 000000018003faa4     BerconTile.obj
 0004:00000ab0       $pdata$?CreateParamDlg@BerconTile@@UEAAPEAVParamDlg@@PEAUHWND__@@PEAVIMtlParams@@@Z 000000018003fab0     BerconTile.obj
 0004:00000abc       $pdata$?DeleteThis@BerconTile@@UEAAXXZ 000000018003fabc     BerconTile.obj
 0004:00000ac8       $pdata$?DiscardTexHandle@BerconTile@@QEAAXXZ 000000018003fac8     BerconTile.obj
 0004:00000ad4       $pdata$?DlgProc@BerconTileDlgProc@@UEAA_JHPEAVIParamMap2@@PEAUHWND__@@I_K_J@Z 000000018003fad4     BerconTile.obj
 0004:00000ae0       $pdata$?EnableStuff@BerconTile@@QEAAXH@Z 000000018003fae0     BerconTile.obj
 0004:00000aec       $pdata$0$?EnableStuff@BerconTile@@QEAAXH@Z 000000018003faec     BerconTile.obj
 0004:00000af8       $pdata$3$?EnableStuff@BerconTile@@QEAAXH@Z 000000018003faf8     BerconTile.obj
 0004:00000b04       $pdata$4$?EnableStuff@BerconTile@@QEAAXH@Z 000000018003fb04     BerconTile.obj
 0004:00000b10       $pdata$5$?EnableStuff@BerconTile@@QEAAXH@Z 000000018003fb10     BerconTile.obj
 0004:00000b1c       $pdata$?EvalColor@BerconTile@@UEAA?AVAColor@@AEAVShadeContext@@@Z 000000018003fb1c     BerconTile.obj
 0004:00000b28       $pdata$?EvalMono@BerconTile@@UEAAMAEAVShadeContext@@@Z 000000018003fb28     BerconTile.obj
 0004:00000b34       $pdata$?EvalNormalPerturb@BerconTile@@UEAA?AVPoint3@@AEAVShadeContext@@@Z 000000018003fb34     BerconTile.obj
 0004:00000b40       $pdata$?EvalParameters@BerconTile@@QEAA?AVTileParam@@AEAVShadeContext@@@Z 000000018003fb40     BerconTile.obj
 0004:00000b4c       $pdata$?GetActiveTexHandle@BerconTile@@UEAA_KHAEAVTexHandleMaker@@@Z 000000018003fb4c     BerconTile.obj
 0004:00000b58       $pdata$0$?GetActiveTexHandle@BerconTile@@UEAA_KHAEAVTexHandleMaker@@@Z 000000018003fb58     BerconTile.obj
 0004:00000b64       $pdata$1$?GetActiveTexHandle@BerconTile@@UEAA_KHAEAVTexHandleMaker@@@Z 000000018003fb64     BerconTile.obj
 0004:00000b70       $pdata$?GetClassName@BerconTile@@UEAAXAEAVWStr@@@Z 000000018003fb70     BerconTile.obj
 0004:00000b7c       $pdata$?GetParamBlockByID@BerconTile@@UEAAPEAVIParamBlock2@@F@Z 000000018003fb7c     BerconTile.obj
 0004:00000b88       $pdata$?GetSubTexmapSlotName@BerconTile@@UEAA?AVWStr@@H@Z 000000018003fb88     BerconTile.obj
 0004:00000b94       $pdata$?NotifyRefChanged@BerconTile@@UEAA?AW4RefResult@@AEBVInterval@@PEAVReferenceTarget@@AEA_KIH@Z 000000018003fb94     BerconTile.obj
 0004:00000ba0       $pdata$0$?NotifyRefChanged@BerconTile@@UEAA?AW4RefResult@@AEBVInterval@@PEAVReferenceTarget@@AEA_KIH@Z 000000018003fba0     BerconTile.obj
 0004:00000bac       $pdata$2$?NotifyRefChanged@BerconTile@@UEAA?AW4RefResult@@AEBVInterval@@PEAVReferenceTarget@@AEA_KIH@Z 000000018003fbac     BerconTile.obj
 0004:00000bb8       $pdata$3$?NotifyRefChanged@BerconTile@@UEAA?AW4RefResult@@AEBVInterval@@PEAVReferenceTarget@@AEA_KIH@Z 000000018003fbb8     BerconTile.obj
 0004:00000bc4       $pdata$?Reset@BerconTile@@UEAAXXZ 000000018003fbc4     BerconTile.obj
 0004:00000bd0       $pdata$?SetDlgThing@BerconTile@@UEAAHPEAVParamDlg@@@Z 000000018003fbd0     BerconTile.obj
 0004:00000bdc       $pdata$?SetSubTexmap@BerconTile@@UEAAXHPEAVTexmap@@@Z 000000018003fbdc     BerconTile.obj
 0004:00000be8       $pdata$?SetThing@BerconTileDlgProc@@UEAAXPEAVReferenceTarget@@@Z 000000018003fbe8     BerconTile.obj
 0004:00000bf4       $pdata$?SubAnimName@BerconTile@@UEAA?AVWStr@@H@Z 000000018003fbf4     BerconTile.obj
 0004:00000c00       $pdata$?Update@BerconTile@@UEAAXHAEAVInterval@@@Z 000000018003fc00     BerconTile.obj
 0004:00000c0c       $pdata$?Validity@BerconTile@@UEAA?AVInterval@@H@Z 000000018003fc0c     BerconTile.obj
 0004:00000c18       $pdata$?_Copy@?$basic_string@_WU?$char_traits@_W@std@@V?$allocator@_W@2@@std@@QEAAX_K0@Z 000000018003fc18     BerconTile.obj
 0004:00000c24       $pdata$?allocate@?$allocator@_W@std@@QEAAPEA_W_K@Z 000000018003fc24     BerconTile.obj
 0004:00000c30       $pdata$?assign@?$basic_string@_WU?$char_traits@_W@std@@V?$allocator@_W@2@@std@@QEAAAEAV12@AEBV12@_K1@Z 000000018003fc30     BerconTile.obj
 0004:00000c3c       $pdata$?assign@?$basic_string@_WU?$char_traits@_W@std@@V?$allocator@_W@2@@std@@QEAAAEAV12@PEB_W_K@Z 000000018003fc3c     BerconTile.obj
 0004:00000c48       $pdata$?deallocate@?$allocator@M@std@@QEAAXPEAM_K@Z 000000018003fc48     BerconTile.obj
 0004:00000c54       $pdata$?deallocate@?$allocator@_W@std@@QEAAXPEA_W_K@Z 000000018003fc54     BerconTile.obj
 0004:00000c60       $pdata$?erase@?$basic_string@_WU?$char_traits@_W@std@@V?$allocator@_W@2@@std@@QEAAAEAV12@_K0@Z 000000018003fc60     BerconTile.obj
 0004:00000c6c       $pdata$?getColor@BerconTile@@QEAA?AVAColor@@AEAVShadeContext@@H@Z 000000018003fc6c     BerconTile.obj
 0004:00000c78       $pdata$?getDistVector@BerconTile@@QEAA?AVPoint3@@AEAVShadeContext@@@Z 000000018003fc78     BerconTile.obj
 0004:00000c84       $pdata$0$?getDistVector@BerconTile@@QEAA?AVPoint3@@AEAVShadeContext@@@Z 000000018003fc84     BerconTile.obj
 0004:00000c90       $pdata$2$?getDistVector@BerconTile@@QEAA?AVPoint3@@AEAVShadeContext@@@Z 000000018003fc90     BerconTile.obj
 0004:00000c9c       $pdata$3$?getDistVector@BerconTile@@QEAA?AVPoint3@@AEAVShadeContext@@@Z 000000018003fc9c     BerconTile.obj
 0004:00000ca8       $pdata$5$?getDistVector@BerconTile@@QEAA?AVPoint3@@AEAVShadeContext@@@Z 000000018003fca8     BerconTile.obj
 0004:00000cb4       $pdata$6$?getDistVector@BerconTile@@QEAA?AVPoint3@@AEAVShadeContext@@@Z 000000018003fcb4     BerconTile.obj
 0004:00000cc0       $pdata$?getNormal@BerconTile@@QEAA?AVPoint3@@AEAVShadeContext@@H@Z 000000018003fcc0     BerconTile.obj
 0004:00000ccc       $pdata$?update@TilePattern@@QEAAXXZ 000000018003fccc     BerconTile.obj
 0004:00000cd8       $pdata$0$?update@TilePattern@@QEAAXXZ 000000018003fcd8     BerconTile.obj
 0004:00000ce4       $pdata$1$?update@TilePattern@@QEAAXXZ 000000018003fce4     BerconTile.obj
 0004:00000cf0       $pdata$?Create@BerconWoodClassDesc@@UEAAPEAXH@Z 000000018003fcf0     BerconWood.obj
 0004:00000cfc       $pdata$??_GBerconWoodClassDesc@@UEAAPEAXI@Z 000000018003fcfc     BerconWood.obj
 0004:00000d08       $pdata$??0BerconWood@@QEAA@XZ 000000018003fd08     BerconWood.obj
 0004:00000d14       $pdata$??1BerconWood@@UEAA@XZ 000000018003fd14     BerconWood.obj
 0004:00000d20       $pdata$??_GBerconWood@@UEAAPEAXI@Z 000000018003fd20     BerconWood.obj
 0004:00000d2c       $pdata$??_GBerconWoodDlgProc@@UEAAPEAXI@Z 000000018003fd2c     BerconWood.obj
 0004:00000d38       $pdata$?ActivateTexDisplay@BerconWood@@UEAAXH@Z 000000018003fd38     BerconWood.obj
 0004:00000d44       $pdata$?Clone@BerconWood@@UEAAPEAVReferenceTarget@@AEAVRemapDir@@@Z 000000018003fd44     BerconWood.obj
 0004:00000d50       $pdata$?CreateParamDlg@BerconWood@@UEAAPEAVParamDlg@@PEAUHWND__@@PEAVIMtlParams@@@Z 000000018003fd50     BerconWood.obj
 0004:00000d5c       $pdata$?DeleteThis@BerconWood@@UEAAXXZ 000000018003fd5c     BerconWood.obj
 0004:00000d68       $pdata$?DiscardTexHandle@BerconWood@@QEAAXXZ 000000018003fd68     BerconWood.obj
 0004:00000d74       $pdata$?DlgProc@BerconWoodDlgProc@@UEAA_JHPEAVIParamMap2@@PEAUHWND__@@I_K_J@Z 000000018003fd74     BerconWood.obj
 0004:00000d80       $pdata$?EnableStuff@BerconWood@@QEAAXXZ 000000018003fd80     BerconWood.obj
 0004:00000d8c       $pdata$0$?EnableStuff@BerconWood@@QEAAXXZ 000000018003fd8c     BerconWood.obj
 0004:00000d98       $pdata$4$?EnableStuff@BerconWood@@QEAAXXZ 000000018003fd98     BerconWood.obj
 0004:00000da4       $pdata$5$?EnableStuff@BerconWood@@QEAAXXZ 000000018003fda4     BerconWood.obj
 0004:00000db0       $pdata$6$?EnableStuff@BerconWood@@QEAAXXZ 000000018003fdb0     BerconWood.obj
 0004:00000dbc       $pdata$?EvalColor@BerconWood@@UEAA?AVAColor@@AEAVShadeContext@@@Z 000000018003fdbc     BerconWood.obj
 0004:00000dc8       $pdata$8$?EvalColor@BerconWood@@UEAA?AVAColor@@AEAVShadeContext@@@Z 000000018003fdc8     BerconWood.obj
 0004:00000dd4       $pdata$9$?EvalColor@BerconWood@@UEAA?AVAColor@@AEAVShadeContext@@@Z 000000018003fdd4     BerconWood.obj
 0004:00000de0       $pdata$?EvalMono@BerconWood@@UEAAMAEAVShadeContext@@@Z 000000018003fde0     BerconWood.obj
 0004:00000dec       $pdata$?EvalNormalPerturb@BerconWood@@UEAA?AVPoint3@@AEAVShadeContext@@@Z 000000018003fdec     BerconWood.obj
 0004:00000df8       $pdata$10$?EvalNormalPerturb@BerconWood@@UEAA?AVPoint3@@AEAVShadeContext@@@Z 000000018003fdf8     BerconWood.obj
 0004:00000e04       $pdata$11$?EvalNormalPerturb@BerconWood@@UEAA?AVPoint3@@AEAVShadeContext@@@Z 000000018003fe04     BerconWood.obj
 0004:00000e10       $pdata$12$?EvalNormalPerturb@BerconWood@@UEAA?AVPoint3@@AEAVShadeContext@@@Z 000000018003fe10     BerconWood.obj
 0004:00000e1c       $pdata$13$?EvalNormalPerturb@BerconWood@@UEAA?AVPoint3@@AEAVShadeContext@@@Z 000000018003fe1c     BerconWood.obj
 0004:00000e28       $pdata$?EvalParameters@BerconWood@@QEAA?AVWoodParam@@AEAVShadeContext@@@Z 000000018003fe28     BerconWood.obj
 0004:00000e34       $pdata$?GetActiveTexHandle@BerconWood@@UEAA_KHAEAVTexHandleMaker@@@Z 000000018003fe34     BerconWood.obj
 0004:00000e40       $pdata$0$?GetActiveTexHandle@BerconWood@@UEAA_KHAEAVTexHandleMaker@@@Z 000000018003fe40     BerconWood.obj
 0004:00000e4c       $pdata$1$?GetActiveTexHandle@BerconWood@@UEAA_KHAEAVTexHandleMaker@@@Z 000000018003fe4c     BerconWood.obj
 0004:00000e58       $pdata$?GetClassName@BerconWood@@UEAAXAEAVWStr@@@Z 000000018003fe58     BerconWood.obj
 0004:00000e64       $pdata$?GetParamBlockByID@BerconWood@@UEAAPEAVIParamBlock2@@F@Z 000000018003fe64     BerconWood.obj
 0004:00000e70       $pdata$?GetSubTexmapSlotName@BerconWood@@UEAA?AVWStr@@H@Z 000000018003fe70     BerconWood.obj
 0004:00000e7c       $pdata$?NotifyRefChanged@BerconWood@@UEAA?AW4RefResult@@AEBVInterval@@PEAVReferenceTarget@@AEA_KIH@Z 000000018003fe7c     BerconWood.obj
 0004:00000e88       $pdata$0$?NotifyRefChanged@BerconWood@@UEAA?AW4RefResult@@AEBVInterval@@PEAVReferenceTarget@@AEA_KIH@Z 000000018003fe88     BerconWood.obj
 0004:00000e94       $pdata$2$?NotifyRefChanged@BerconWood@@UEAA?AW4RefResult@@AEBVInterval@@PEAVReferenceTarget@@AEA_KIH@Z 000000018003fe94     BerconWood.obj
 0004:00000ea0       $pdata$3$?NotifyRefChanged@BerconWood@@UEAA?AW4RefResult@@AEBVInterval@@PEAVReferenceTarget@@AEA_KIH@Z 000000018003fea0     BerconWood.obj
 0004:00000eac       $pdata$?Reset@BerconWood@@UEAAXXZ 000000018003feac     BerconWood.obj
 0004:00000eb8       $pdata$?SetDlgThing@BerconWood@@UEAAHPEAVParamDlg@@@Z 000000018003feb8     BerconWood.obj
 0004:00000ec4       $pdata$?SetSubTexmap@BerconWood@@UEAAXHPEAVTexmap@@@Z 000000018003fec4     BerconWood.obj
 0004:00000ed0       $pdata$?SubAnimName@BerconWood@@UEAA?AVWStr@@H@Z 000000018003fed0     BerconWood.obj
 0004:00000edc       $pdata$?Update@BerconWood@@UEAAXHAEAVInterval@@@Z 000000018003fedc     BerconWood.obj
 0004:00000ee8       $pdata$0$?Update@BerconWood@@UEAAXHAEAVInterval@@@Z 000000018003fee8     BerconWood.obj
 0004:00000ef4       $pdata$4$?Update@BerconWood@@UEAAXHAEAVInterval@@@Z 000000018003fef4     BerconWood.obj
 0004:00000f00       $pdata$5$?Update@BerconWood@@UEAAXHAEAVInterval@@@Z 000000018003ff00     BerconWood.obj
 0004:00000f0c       $pdata$6$?Update@BerconWood@@UEAAXHAEAVInterval@@@Z 000000018003ff0c     BerconWood.obj
 0004:00000f18       $pdata$7$?Update@BerconWood@@UEAAXHAEAVInterval@@@Z 000000018003ff18     BerconWood.obj
 0004:00000f24       $pdata$8$?Update@BerconWood@@UEAAXHAEAVInterval@@@Z 000000018003ff24     BerconWood.obj
 0004:00000f30       $pdata$?Validity@BerconWood@@UEAA?AVInterval@@H@Z 000000018003ff30     BerconWood.obj
 0004:00000f3c       $pdata$?applyDistortion@BerconWood@@QEAAXAEAVShadeContext@@AEAVPoint3@@@Z 000000018003ff3c     BerconWood.obj
 0004:00000f48       $pdata$0$?applyDistortion@BerconWood@@QEAAXAEAVShadeContext@@AEAVPoint3@@@Z 000000018003ff48     BerconWood.obj
 0004:00000f54       $pdata$2$?applyDistortion@BerconWood@@QEAAXAEAVShadeContext@@AEAVPoint3@@@Z 000000018003ff54     BerconWood.obj
 0004:00000f60       $pdata$3$?applyDistortion@BerconWood@@QEAAXAEAVShadeContext@@AEAVPoint3@@@Z 000000018003ff60     BerconWood.obj
 0004:00000f6c       $pdata$4$?applyDistortion@BerconWood@@QEAAXAEAVShadeContext@@AEAVPoint3@@@Z 000000018003ff6c     BerconWood.obj
 0004:00000f78       $pdata$?GetString@@YAPEA_WH@Z 000000018003ff78     DllEntry.obj
 0004:00000f84       $pdata$0$?GetString@@YAPEA_WH@Z 000000018003ff84     DllEntry.obj
 0004:00000f90       $pdata$1$?GetString@@YAPEA_WH@Z 000000018003ff90     DllEntry.obj
 0004:00000f9c       $pdata$?LibClassDesc@@YAPEAVClassDesc@@H@Z 000000018003ff9c     DllEntry.obj
 0004:00000fa8       $pdata$?LibDescription@@YAPEB_WXZ 000000018003ffa8     DllEntry.obj
 0004:00000fb4       $pdata$0$?LibDescription@@YAPEB_WXZ 000000018003ffb4     DllEntry.obj
 0004:00000fc0       $pdata$1$?LibDescription@@YAPEB_WXZ 000000018003ffc0     DllEntry.obj
 0004:00000fcc       $pdata$CommctrlIsolationAwarePrivatetRgCebPnQQeRff_pbZPgYQP_QYY 000000018003ffcc     DllEntry.obj
 0004:00000fd8       $pdata$DllMain             000000018003ffd8     DllEntry.obj
 0004:00000fe4       $pdata$IsolationAwareInitCommonControls 000000018003ffe4     DllEntry.obj
 0004:00000ff0       $pdata$IsolationAwarePrivatenPgViNgRzlnPgpgk 000000018003fff0     DllEntry.obj
 0004:00000ffc       $pdata$WinbaseIsolationAwarePrivatetRgzlnPgpgk 000000018003fffc     DllEntry.obj
 0004:00001008       $pdata$?EnableStuff@BerconXYZ@@AEAAXPEAVIParamBlock2@@H@Z 0000000180040008     BerconCommon.obj
 0004:00001014       $pdata$0$?EnableStuff@BerconXYZ@@AEAAXPEAVIParamBlock2@@H@Z 0000000180040014     BerconCommon.obj
 0004:00001020       $pdata$2$?EnableStuff@BerconXYZ@@AEAAXPEAVIParamBlock2@@H@Z 0000000180040020     BerconCommon.obj
 0004:0000102c       $pdata$3$?EnableStuff@BerconXYZ@@AEAAXPEAVIParamBlock2@@H@Z 000000018004002c     BerconCommon.obj
 0004:00001038       $pdata$4$?EnableStuff@BerconXYZ@@AEAAXPEAVIParamBlock2@@H@Z 0000000180040038     BerconCommon.obj
 0004:00001044       $pdata$?get@BerconXYZ@@AEAAHAEAVShadeContext@@AEAVPoint3@@11VMatrix3@@PEAH@Z 0000000180040044     BerconCommon.obj
 0004:00001050       $pdata$0$?get@BerconXYZ@@AEAAHAEAVShadeContext@@AEAVPoint3@@11VMatrix3@@PEAH@Z 0000000180040050     BerconCommon.obj
 0004:0000105c       $pdata$1$?get@BerconXYZ@@AEAAHAEAVShadeContext@@AEAVPoint3@@11VMatrix3@@PEAH@Z 000000018004005c     BerconCommon.obj
 0004:00001068       $pdata$2$?get@BerconXYZ@@AEAAHAEAVShadeContext@@AEAVPoint3@@11VMatrix3@@PEAH@Z 0000000180040068     BerconCommon.obj
 0004:00001074       $pdata$3$?get@BerconXYZ@@AEAAHAEAVShadeContext@@AEAVPoint3@@11VMatrix3@@PEAH@Z 0000000180040074     BerconCommon.obj
 0004:00001080       $pdata$?get@BerconXYZ@@AEAAHAEAVShadeContext@@AEAVPoint3@@VMatrix3@@PEAH@Z 0000000180040080     BerconCommon.obj
 0004:0000108c       $pdata$1$?get@BerconXYZ@@AEAAHAEAVShadeContext@@AEAVPoint3@@VMatrix3@@PEAH@Z 000000018004008c     BerconCommon.obj
 0004:00001098       $pdata$2$?get@BerconXYZ@@AEAAHAEAVShadeContext@@AEAVPoint3@@VMatrix3@@PEAH@Z 0000000180040098     BerconCommon.obj
 0004:000010a4       $pdata$?get@BerconXYZ@@QEAAHAEAVShadeContext@@AEAVPoint3@@11@Z 00000001800400a4     BerconCommon.obj
 0004:000010b0       $pdata$?get@BerconXYZ@@QEAAHAEAVShadeContext@@AEAVPoint3@@11PEAV3@@Z 00000001800400b0     BerconCommon.obj
 0004:000010bc       $pdata$?get@BerconXYZ@@QEAAHAEAVShadeContext@@AEAVPoint3@@@Z 00000001800400bc     BerconCommon.obj
 0004:000010c8       $pdata$?get@BerconXYZ@@QEAAHAEAVShadeContext@@AEAVPoint3@@PEAV3@@Z 00000001800400c8     BerconCommon.obj
 0004:000010d4       $pdata$?getBasis@BerconXYZ@@AEAAXVMatrix3@@PEAVPoint3@@@Z 00000001800400d4     BerconCommon.obj
 0004:000010e0       $pdata$?random@BerconXYZ@@AEAA?AVMatrix3@@AEAVShadeContext@@PEAV2@@Z 00000001800400e0     BerconCommon.obj
 0004:000010ec       $pdata$?reset@BerconXYZ@@QEAAXPEAVIParamBlock2@@AEAVInterval@@HHHH@Z 00000001800400ec     BerconCommon.obj
 0004:000010f8       $pdata$2$?reset@BerconXYZ@@QEAAXPEAVIParamBlock2@@AEAVInterval@@HHHH@Z 00000001800400f8     BerconCommon.obj
 0004:00001104       $pdata$3$?reset@BerconXYZ@@QEAAXPEAVIParamBlock2@@AEAVInterval@@HHHH@Z 0000000180040104     BerconCommon.obj
 0004:00001110       $pdata$?seedRandomGen@BerconXYZ@@AEAAXAEAVShadeContext@@@Z 0000000180040110     BerconCommon.obj
 0004:0000111c       $pdata$0$?seedRandomGen@BerconXYZ@@AEAAXAEAVShadeContext@@@Z 000000018004011c     BerconCommon.obj
 0004:00001128       $pdata$1$?seedRandomGen@BerconXYZ@@AEAAXAEAVShadeContext@@@Z 0000000180040128     BerconCommon.obj
 0004:00001134       $pdata$2$?seedRandomGen@BerconXYZ@@AEAAXAEAVShadeContext@@@Z 0000000180040134     BerconCommon.obj
 0004:00001140       $pdata$3$?seedRandomGen@BerconXYZ@@AEAAXAEAVShadeContext@@@Z 0000000180040140     BerconCommon.obj
 0004:0000114c       $pdata$?setSpinnerType@@YAXPEAVIParamMap2@@HHHHH_N@Z 000000018004014c     BerconCommon.obj
 0004:0000114c       $pdata$?setSpinnerType@@YAXPEAVIParamMap2@@HHHHH_N@Z 000000018004014c     BerconTile.obj
 0004:00001158       $pdata$0$?setSpinnerType@@YAXPEAVIParamMap2@@HHHHH_N@Z 0000000180040158     BerconCommon.obj
 0004:00001158       $pdata$0$?setSpinnerType@@YAXPEAVIParamMap2@@HHHHH_N@Z 0000000180040158     BerconTile.obj
 0004:00001164       $pdata$1$?setSpinnerType@@YAXPEAVIParamMap2@@HHHHH_N@Z 0000000180040164     BerconCommon.obj
 0004:00001164       $pdata$1$?setSpinnerType@@YAXPEAVIParamMap2@@HHHHH_N@Z 0000000180040164     BerconTile.obj
 0004:00001170       $pdata$?update@BerconXYZ@@QEAAXPEAVIParamBlock2@@HAEAVInterval@@@Z 0000000180040170     BerconCommon.obj
 0004:0000117c       $pdata$3$?update@BerconXYZ@@QEAAXPEAVIParamBlock2@@HAEAVInterval@@@Z 000000018004017c     BerconCommon.obj
 0004:00001188       $pdata$4$?update@BerconXYZ@@QEAAXPEAVIParamBlock2@@HAEAVInterval@@@Z 0000000180040188     BerconCommon.obj
 0004:00001194       $pdata$?update@BerconXYZ@@QEAAXXZ 0000000180040194     BerconCommon.obj
 0004:000011a0       $pdata$?Create@BerconNoiseClassDesc@@UEAAPEAXH@Z 00000001800401a0     BerconNoise.obj
 0004:000011ac       $pdata$??_GBerconNoiseClassDesc@@UEAAPEAXI@Z 00000001800401ac     BerconNoise.obj
 0004:000011b8       $pdata$??0BerconNoise@@QEAA@XZ 00000001800401b8     BerconNoise.obj
 0004:000011c4       $pdata$??1BerconNoise@@UEAA@XZ 00000001800401c4     BerconNoise.obj
 0004:000011d0       $pdata$??_GBerconNoise@@UEAAPEAXI@Z 00000001800401d0     BerconNoise.obj
 0004:000011dc       $pdata$??_GBerconNoiseDlgProc@@UEAAPEAXI@Z 00000001800401dc     BerconNoise.obj
 0004:000011e8       $pdata$?ActivateTexDisplay@BerconNoise@@UEAAXH@Z 00000001800401e8     BerconNoise.obj
 0004:000011f4       $pdata$?Clone@BerconNoise@@UEAAPEAVReferenceTarget@@AEAVRemapDir@@@Z 00000001800401f4     BerconNoise.obj
 0004:00001200       $pdata$?CreateParamDlg@BerconNoise@@UEAAPEAVParamDlg@@PEAUHWND__@@PEAVIMtlParams@@@Z 0000000180040200     BerconNoise.obj
 0004:0000120c       $pdata$?DeleteThis@BerconNoise@@UEAAXXZ 000000018004020c     BerconNoise.obj
 0004:00001218       $pdata$?DiscardTexHandle@BerconNoise@@QEAAXXZ 0000000180040218     BerconNoise.obj
 0004:00001224       $pdata$?DlgProc@BerconNoiseDlgProc@@UEAA_JHPEAVIParamMap2@@PEAUHWND__@@I_K_J@Z 0000000180040224     BerconNoise.obj
 0004:00001230       $pdata$?EnableStuff@BerconNoise@@QEAAXXZ 0000000180040230     BerconNoise.obj
 0004:0000123c       $pdata$0$?EnableStuff@BerconNoise@@QEAAXXZ 000000018004023c     BerconNoise.obj
 0004:00001248       $pdata$5$?EnableStuff@BerconNoise@@QEAAXXZ 0000000180040248     BerconNoise.obj
 0004:00001254       $pdata$6$?EnableStuff@BerconNoise@@QEAAXXZ 0000000180040254     BerconNoise.obj
 0004:00001260       $pdata$7$?EnableStuff@BerconNoise@@QEAAXXZ 0000000180040260     BerconNoise.obj
 0004:0000126c       $pdata$8$?EnableStuff@BerconNoise@@QEAAXXZ 000000018004026c     BerconNoise.obj
 0004:00001278       $pdata$?EvalColor@BerconNoise@@UEAA?AVAColor@@AEAVShadeContext@@@Z 0000000180040278     BerconNoise.obj
 0004:00001284       $pdata$5$?EvalColor@BerconNoise@@UEAA?AVAColor@@AEAVShadeContext@@@Z 0000000180040284     BerconNoise.obj
 0004:00001290       $pdata$6$?EvalColor@BerconNoise@@UEAA?AVAColor@@AEAVShadeContext@@@Z 0000000180040290     BerconNoise.obj
 0004:0000129c       $pdata$?EvalMono@BerconNoise@@UEAAMAEAVShadeContext@@@Z 000000018004029c     BerconNoise.obj
 0004:000012a8       $pdata$?EvalNormalPerturb@BerconNoise@@UEAA?AVPoint3@@AEAVShadeContext@@@Z 00000001800402a8     BerconNoise.obj
 0004:000012b4       $pdata$2$?EvalNormalPerturb@BerconNoise@@UEAA?AVPoint3@@AEAVShadeContext@@@Z 00000001800402b4     BerconNoise.obj
 0004:000012c0       $pdata$3$?EvalNormalPerturb@BerconNoise@@UEAA?AVPoint3@@AEAVShadeContext@@@Z 00000001800402c0     BerconNoise.obj
 0004:000012cc       $pdata$6$?EvalNormalPerturb@BerconNoise@@UEAA?AVPoint3@@AEAVShadeContext@@@Z 00000001800402cc     BerconNoise.obj
 0004:000012d8       $pdata$7$?EvalNormalPerturb@BerconNoise@@UEAA?AVPoint3@@AEAVShadeContext@@@Z 00000001800402d8     BerconNoise.obj
 0004:000012e4       $pdata$8$?EvalNormalPerturb@BerconNoise@@UEAA?AVPoint3@@AEAVShadeContext@@@Z 00000001800402e4     BerconNoise.obj
 0004:000012f0       $pdata$?EvalParameters@BerconNoise@@QEAA?AVNoiseParams@@PEAVShadeContext@@@Z 00000001800402f0     BerconNoise.obj
 0004:000012fc       $pdata$?GetActiveTexHandle@BerconNoise@@UEAA_KHAEAVTexHandleMaker@@@Z 00000001800402fc     BerconNoise.obj
 0004:00001308       $pdata$0$?GetActiveTexHandle@BerconNoise@@UEAA_KHAEAVTexHandleMaker@@@Z 0000000180040308     BerconNoise.obj
 0004:00001314       $pdata$1$?GetActiveTexHandle@BerconNoise@@UEAA_KHAEAVTexHandleMaker@@@Z 0000000180040314     BerconNoise.obj
 0004:00001320       $pdata$?GetClassName@BerconNoise@@UEAAXAEAVWStr@@@Z 0000000180040320     BerconNoise.obj
 0004:0000132c       $pdata$?GetParamBlockByID@BerconNoise@@UEAAPEAVIParamBlock2@@F@Z 000000018004032c     BerconNoise.obj
 0004:00001338       $pdata$?GetSubTexmapSlotName@BerconNoise@@UEAA?AVWStr@@H@Z 0000000180040338     BerconNoise.obj
 0004:00001344       $pdata$?NotifyRefChanged@BerconNoise@@UEAA?AW4RefResult@@AEBVInterval@@PEAVReferenceTarget@@AEA_KIH@Z 0000000180040344     BerconNoise.obj
 0004:00001350       $pdata$0$?NotifyRefChanged@BerconNoise@@UEAA?AW4RefResult@@AEBVInterval@@PEAVReferenceTarget@@AEA_KIH@Z 0000000180040350     BerconNoise.obj
 0004:0000135c       $pdata$2$?NotifyRefChanged@BerconNoise@@UEAA?AW4RefResult@@AEBVInterval@@PEAVReferenceTarget@@AEA_KIH@Z 000000018004035c     BerconNoise.obj
 0004:00001368       $pdata$3$?NotifyRefChanged@BerconNoise@@UEAA?AW4RefResult@@AEBVInterval@@PEAVReferenceTarget@@AEA_KIH@Z 0000000180040368     BerconNoise.obj
 0004:00001374       $pdata$?Reset@BerconNoise@@UEAAXXZ 0000000180040374     BerconNoise.obj
 0004:00001380       $pdata$0$?Reset@BerconNoise@@UEAAXXZ 0000000180040380     BerconNoise.obj
 0004:0000138c       $pdata$1$?Reset@BerconNoise@@UEAAXXZ 000000018004038c     BerconNoise.obj
 0004:00001398       $pdata$?SetDlgThing@BerconNoise@@UEAAHPEAVParamDlg@@@Z 0000000180040398     BerconNoise.obj
 0004:000013a4       $pdata$?SetSubTexmap@BerconNoise@@UEAAXHPEAVTexmap@@@Z 00000001800403a4     BerconNoise.obj
 0004:000013b0       $pdata$?SubAnimName@BerconNoise@@UEAA?AVWStr@@H@Z 00000001800403b0     BerconNoise.obj
 0004:000013bc       $pdata$?SwapInputs@BerconNoise@@QEAAXXZ 00000001800403bc     BerconNoise.obj
 0004:000013c8       $pdata$?Update@BerconNoise@@UEAAXHAEAVInterval@@@Z 00000001800403c8     BerconNoise.obj
 0004:000013d4       $pdata$0$?Update@BerconNoise@@UEAAXHAEAVInterval@@@Z 00000001800403d4     BerconNoise.obj
 0004:000013e0       $pdata$4$?Update@BerconNoise@@UEAAXHAEAVInterval@@@Z 00000001800403e0     BerconNoise.obj
 0004:000013ec       $pdata$5$?Update@BerconNoise@@UEAAXHAEAVInterval@@@Z 00000001800403ec     BerconNoise.obj
 0004:000013f8       $pdata$6$?Update@BerconNoise@@UEAAXHAEAVInterval@@@Z 00000001800403f8     BerconNoise.obj
 0004:00001404       $pdata$7$?Update@BerconNoise@@UEAAXHAEAVInterval@@@Z 0000000180040404     BerconNoise.obj
 0004:00001410       $pdata$?Validity@BerconNoise@@UEAA?AVInterval@@H@Z 0000000180040410     BerconNoise.obj
 0004:0000141c       $pdata$?applyDistortion@BerconNoise@@QEAAXAEAVShadeContext@@AEAVPoint3@@@Z 000000018004041c     BerconNoise.obj
 0004:00001428       $pdata$0$?applyDistortion@BerconNoise@@QEAAXAEAVShadeContext@@AEAVPoint3@@@Z 0000000180040428     BerconNoise.obj
 0004:00001434       $pdata$2$?applyDistortion@BerconNoise@@QEAAXAEAVShadeContext@@AEAVPoint3@@@Z 0000000180040434     BerconNoise.obj
 0004:00001440       $pdata$3$?applyDistortion@BerconNoise@@QEAAXAEAVShadeContext@@AEAVPoint3@@@Z 0000000180040440     BerconNoise.obj
 0004:0000144c       $pdata$4$?applyDistortion@BerconNoise@@QEAAXAEAVShadeContext@@AEAVPoint3@@@Z 000000018004044c     BerconNoise.obj
 0004:00001458       $pdata$?fBm@Fractal@@SAMVPoint3@@AEAVNoiseParams@@@Z 0000000180040458     fractal.obj
 0004:00001464       $pdata$?fBm@Fractal@@SAMVPoint3@@MAEAVNoiseParams@@@Z 0000000180040464     fractal.obj
 0004:00001470       $pdata$?fBm@Fractal@@SAMVPoint3@@MMM@Z 0000000180040470     fractal.obj
 0004:0000147c       $pdata$2$?fBm@Fractal@@SAMVPoint3@@MMM@Z 000000018004047c     fractal.obj
 0004:00001488       $pdata$3$?fBm@Fractal@@SAMVPoint3@@MMM@Z 0000000180040488     fractal.obj
 0004:00001494       $pdata$4$?fBm@Fractal@@SAMVPoint3@@MMM@Z 0000000180040494     fractal.obj
 0004:000014a0       $pdata$5$?fBm@Fractal@@SAMVPoint3@@MMM@Z 00000001800404a0     fractal.obj
 0004:000014ac       $pdata$?fBmTurb@Fractal@@SAMVPoint3@@AEAVNoiseParams@@@Z 00000001800404ac     fractal.obj
 0004:000014b8       $pdata$?fBmTurb@Fractal@@SAMVPoint3@@MAEAVNoiseParams@@@Z 00000001800404b8     fractal.obj
 0004:000014c4       $pdata$?fractal@Fractal@@SAMVPoint3@@AEAVNoiseParams@@@Z 00000001800404c4     fractal.obj
 0004:000014d0       $pdata$0$?fractal@Fractal@@SAMVPoint3@@AEAVNoiseParams@@@Z 00000001800404d0     fractal.obj
 0004:000014dc       $pdata$1$?fractal@Fractal@@SAMVPoint3@@AEAVNoiseParams@@@Z 00000001800404dc     fractal.obj
 0004:000014e8       $pdata$2$?fractal@Fractal@@SAMVPoint3@@AEAVNoiseParams@@@Z 00000001800404e8     fractal.obj
 0004:000014f4       $pdata$3$?fractal@Fractal@@SAMVPoint3@@AEAVNoiseParams@@@Z 00000001800404f4     fractal.obj
 0004:00001500       $pdata$?fractal@Fractal@@SAMVPoint3@@MAEAVNoiseParams@@@Z 0000000180040500     fractal.obj
 0004:0000150c       $pdata$0$?fractal@Fractal@@SAMVPoint3@@MAEAVNoiseParams@@@Z 000000018004050c     fractal.obj
 0004:00001518       $pdata$1$?fractal@Fractal@@SAMVPoint3@@MAEAVNoiseParams@@@Z 0000000180040518     fractal.obj
 0004:00001524       $pdata$2$?fractal@Fractal@@SAMVPoint3@@MAEAVNoiseParams@@@Z 0000000180040524     fractal.obj
 0004:00001530       $pdata$3$?fractal@Fractal@@SAMVPoint3@@MAEAVNoiseParams@@@Z 0000000180040530     fractal.obj
 0004:0000153c       $pdata$?grain@Fractal@@SAMVPoint3@@MM@Z 000000018004053c     fractal.obj
 0004:00001548       $pdata$?heteroTerrain@Fractal@@SAMVPoint3@@AEAVNoiseParams@@@Z 0000000180040548     fractal.obj
 0004:00001554       $pdata$?hybridMultiFractal@Fractal@@SAMVPoint3@@AEAVNoiseParams@@@Z 0000000180040554     fractal.obj
 0004:00001560       $pdata$?hybridMultiFractal@Fractal@@SAMVPoint3@@MAEAVNoiseParams@@@Z 0000000180040560     fractal.obj
 0004:0000156c       $pdata$?ridgedMultiFractal@Fractal@@SAMVPoint3@@AEAVNoiseParams@@@Z 000000018004056c     fractal.obj
 0004:00001578       $pdata$1$?ridgedMultiFractal@Fractal@@SAMVPoint3@@AEAVNoiseParams@@@Z 0000000180040578     fractal.obj
 0004:00001584       $pdata$2$?ridgedMultiFractal@Fractal@@SAMVPoint3@@AEAVNoiseParams@@@Z 0000000180040584     fractal.obj
 0004:00001590       $pdata$?ridgedMultiFractal@Fractal@@SAMVPoint3@@MAEAVNoiseParams@@@Z 0000000180040590     fractal.obj
 0004:0000159c       $pdata$1$?ridgedMultiFractal@Fractal@@SAMVPoint3@@MAEAVNoiseParams@@@Z 000000018004059c     fractal.obj
 0004:000015a8       $pdata$2$?ridgedMultiFractal@Fractal@@SAMVPoint3@@MAEAVNoiseParams@@@Z 00000001800405a8     fractal.obj
 0004:000015b4       $pdata$?turbulence@Fractal@@SAMVPoint3@@AEAVNoiseParams@@@Z 00000001800405b4     fractal.obj
 0004:000015c0       $pdata$1$?turbulence@Fractal@@SAMVPoint3@@AEAVNoiseParams@@@Z 00000001800405c0     fractal.obj
 0004:000015cc       $pdata$2$?turbulence@Fractal@@SAMVPoint3@@AEAVNoiseParams@@@Z 00000001800405cc     fractal.obj
 0004:000015d8       $pdata$3$?turbulence@Fractal@@SAMVPoint3@@AEAVNoiseParams@@@Z 00000001800405d8     fractal.obj
 0004:000015e4       $pdata$4$?turbulence@Fractal@@SAMVPoint3@@AEAVNoiseParams@@@Z 00000001800405e4     fractal.obj
 0004:000015f0       $pdata$?turbulence@Fractal@@SAMVPoint3@@MAEAVNoiseParams@@@Z 00000001800405f0     fractal.obj
 0004:000015fc       $pdata$1$?turbulence@Fractal@@SAMVPoint3@@MAEAVNoiseParams@@@Z 00000001800405fc     fractal.obj
 0004:00001608       $pdata$2$?turbulence@Fractal@@SAMVPoint3@@MAEAVNoiseParams@@@Z 0000000180040608     fractal.obj
 0004:00001614       $pdata$3$?turbulence@Fractal@@SAMVPoint3@@MAEAVNoiseParams@@@Z 0000000180040614     fractal.obj
 0004:00001620       $pdata$4$?turbulence@Fractal@@SAMVPoint3@@MAEAVNoiseParams@@@Z 0000000180040620     fractal.obj
 0004:0000162c       $pdata$?addKey@GradientRamp@@QEAAXHMVAColor@@PEAVTexmap@@@Z 000000018004062c     GradientRamp.obj
 0004:00001638       $pdata$?getBump@GradientRamp@@QEAA?AVPoint3@@MV2@AEAVShadeContext@@@Z 0000000180040638     GradientRamp.obj
 0004:00001644       $pdata$0$?getBump@GradientRamp@@QEAA?AVPoint3@@MV2@AEAVShadeContext@@@Z 0000000180040644     GradientRamp.obj
 0004:00001650       $pdata$1$?getBump@GradientRamp@@QEAA?AVPoint3@@MV2@AEAVShadeContext@@@Z 0000000180040650     GradientRamp.obj
 0004:0000165c       $pdata$2$?getBump@GradientRamp@@QEAA?AVPoint3@@MV2@AEAVShadeContext@@@Z 000000018004065c     GradientRamp.obj
 0004:00001668       $pdata$3$?getBump@GradientRamp@@QEAA?AVPoint3@@MV2@AEAVShadeContext@@@Z 0000000180040668     GradientRamp.obj
 0004:00001674       $pdata$4$?getBump@GradientRamp@@QEAA?AVPoint3@@MV2@AEAVShadeContext@@@Z 0000000180040674     GradientRamp.obj
 0004:00001680       $pdata$5$?getBump@GradientRamp@@QEAA?AVPoint3@@MV2@AEAVShadeContext@@@Z 0000000180040680     GradientRamp.obj
 0004:0000168c       $pdata$?getColor@GradientRamp@@QEAA?AVAColor@@M@Z 000000018004068c     GradientRamp.obj
 0004:00001698       $pdata$0$?getColor@GradientRamp@@QEAA?AVAColor@@M@Z 0000000180040698     GradientRamp.obj
 0004:000016a4       $pdata$2$?getColor@GradientRamp@@QEAA?AVAColor@@M@Z 00000001800406a4     GradientRamp.obj
 0004:000016b0       $pdata$7$?getColor@GradientRamp@@QEAA?AVAColor@@M@Z 00000001800406b0     GradientRamp.obj
 0004:000016bc       $pdata$?getColor@GradientRamp@@QEAA?AVAColor@@MAEAVShadeContext@@@Z 00000001800406bc     GradientRamp.obj
 0004:000016c8       $pdata$0$?getColor@GradientRamp@@QEAA?AVAColor@@MAEAVShadeContext@@@Z 00000001800406c8     GradientRamp.obj
 0004:000016d4       $pdata$4$?getColor@GradientRamp@@QEAA?AVAColor@@MAEAVShadeContext@@@Z 00000001800406d4     GradientRamp.obj
 0004:000016e0       $pdata$5$?getColor@GradientRamp@@QEAA?AVAColor@@MAEAVShadeContext@@@Z 00000001800406e0     GradientRamp.obj
 0004:000016ec       $pdata$6$?getColor@GradientRamp@@QEAA?AVAColor@@MAEAVShadeContext@@@Z 00000001800406ec     GradientRamp.obj
 0004:000016f8       $pdata$?leftUp@GradientRamp@@QEAAXHH_N00@Z 00000001800406f8     GradientRamp.obj
 0004:00001704       $pdata$?paint@GradientRamp@@QEAAXPEAUHDC__@@@Z 0000000180040704     GradientRamp.obj
 0004:00001710       $pdata$5$?paint@GradientRamp@@QEAAXPEAUHDC__@@@Z 0000000180040710     GradientRamp.obj
 0004:0000171c       $pdata$7$?paint@GradientRamp@@QEAAXPEAUHDC__@@@Z 000000018004071c     GradientRamp.obj
 0004:00001728       $pdata$8$?paint@GradientRamp@@QEAAXPEAUHDC__@@@Z 0000000180040728     GradientRamp.obj
 0004:00001734       $pdata$9$?paint@GradientRamp@@QEAAXPEAUHDC__@@@Z 0000000180040734     GradientRamp.obj
 0004:00001740       $pdata$10$?paint@GradientRamp@@QEAAXPEAUHDC__@@@Z 0000000180040740     GradientRamp.obj
 0004:0000174c       $pdata$11$?paint@GradientRamp@@QEAAXPEAUHDC__@@@Z 000000018004074c     GradientRamp.obj
 0004:00001758       $pdata$?popup@GradientRamp@@QEAAXHHH@Z 0000000180040758     GradientRamp.obj
 0004:00001764       $pdata$?reset@GradientRamp@@QEAAXXZ 0000000180040764     GradientRamp.obj
 0004:00001770       $pdata$?setHWND@GradientRamp@@QEAAXPEAUHWND__@@@Z 0000000180040770     GradientRamp.obj
 0004:0000177c       $pdata$?setSubtex@GradientRamp@@QEAAXHPEAVTexmap@@@Z 000000018004077c     GradientRamp.obj
 0004:00001788       $pdata$?sort@GradientRamp@@QEAAXXZ 0000000180040788     GradientRamp.obj
 0004:00001794       $pdata$1$?sort@GradientRamp@@QEAAXXZ 0000000180040794     GradientRamp.obj
 0004:000017a0       $pdata$2$?sort@GradientRamp@@QEAAXXZ 00000001800407a0     GradientRamp.obj
 0004:000017ac       $pdata$?GradientProc@IGradient@@SA_JPEAUHWND__@@I_K_J@Z 00000001800407ac     IGradient.obj
 0004:000017b8       $pdata$?InitGradientControls@@YAXXZ 00000001800407b8     IGradient.obj
 0004:000017c4       $pdata$IsolationAwareRegisterClassExW 00000001800407c4     IGradient.obj
 0004:000017d0       $pdata$?alterUVW@Noise@@SAXAEAVPoint3@@H@Z 00000001800407d0     noise.obj
 0004:000017dc       $pdata$?f@Fractal@@SAMVPoint3@@AEAVNoiseParams@@@Z 00000001800407dc     noise.obj
 0004:000017e8       $pdata$?f@Fractal@@SAMVPoint3@@MAEAVNoiseParams@@@Z 00000001800407e8     noise.obj
 0004:000017f4       $pdata$?limitedNoise@Noise@@SAMVPoint3@@00AEAVNoiseParams@@@Z 00000001800407f4     noise.obj
 0004:00001800       $pdata$?limitedNoise@Noise@@SAMVPoint3@@AEAVNoiseParams@@@Z 0000000180040800     noise.obj
 0004:0000180c       $pdata$?noise@Noise@@SAMVPoint3@@AEAVNoiseParams@@@Z 000000018004080c     noise.obj
 0004:00001818       $pdata$?noise@Noise@@SAMVPoint3@@MAEAVNoiseParams@@@Z 0000000180040818     noise.obj
 0004:00001824       $pdata$?wood@Noise@@SAMVPoint3@@00AEAV2@VWoodParam@@@Z 0000000180040824     noise.obj
 0004:00001830       $pdata$3$?wood@Noise@@SAMVPoint3@@00AEAV2@VWoodParam@@@Z 0000000180040830     noise.obj
 0004:0000183c       $pdata$4$?wood@Noise@@SAMVPoint3@@00AEAV2@VWoodParam@@@Z 000000018004083c     noise.obj
 0004:00001848       $pdata$?wood@Noise@@SAMVPoint3@@AEAV2@AEAVWoodParam@@@Z 0000000180040848     noise.obj
 0004:00001854       $pdata$?worleyWrapper@Noise@@SAMVPoint3@@AEAVNoiseParams@@@Z 0000000180040854     noise.obj
 0004:00001860       $pdata$?fnoise2D@Perlin@@SAMMMM@Z 0000000180040860     perlin.obj
 0004:0000186c       $pdata$?fnoise3D@Perlin@@SAMMMMM@Z 000000018004086c     perlin.obj
 0004:00001878       $pdata$?fnoise4D@Perlin@@SAMMMMMM@Z 0000000180040878     perlin.obj
 0004:00001884       $pdata$?fsnoise2D@Perlin@@SAMMMM@Z 0000000180040884     perlin.obj
 0004:00001890       $pdata$?fsnoise3D@Perlin@@SAMMMMM@Z 0000000180040890     perlin.obj
 0004:0000189c       $pdata$?fsnoise4D@Perlin@@SAMMMMMM@Z 000000018004089c     perlin.obj
 0004:000018a8       $pdata$?noise@Perlin@@SAMMM@Z 00000001800408a8     perlin.obj
 0004:000018b4       $pdata$?noise@Perlin@@SAMMMM@Z 00000001800408b4     perlin.obj
 0004:000018c0       $pdata$?noise@Perlin@@SAMMMMM@Z 00000001800408c0     perlin.obj
 0004:000018cc       $pdata$?point@Perlin@@CAMMMMHHH@Z 00000001800408cc     perlin.obj
 0004:000018d8       $pdata$?point@Perlin@@CAMMMMMHHHH@Z 00000001800408d8     perlin.obj
 0004:000018e4       $pdata$?snoise@Perlin@@SAMM@Z 00000001800408e4     perlin.obj
 0004:000018f0       $pdata$?snoise@Perlin@@SAMMM@Z 00000001800408f0     perlin.obj
 0004:000018fc       $pdata$?snoise@Perlin@@SAMMMM@Z 00000001800408fc     perlin.obj
 0004:00001908       $pdata$?snoise@Perlin@@SAMMMMM@Z 0000000180040908     perlin.obj
 0004:00001914       $pdata$??$_Destroy_range1@V?$allocator@V?$basic_string@_WU?$char_traits@_W@std@@V?$allocator@_W@2@@std@@@std@@PEAV?$basic_string@_WU?$char_traits@_W@std@@V?$allocator@_W@2@@2@@std@@YAXPEAV?$basic_string@_WU?$char_traits@_W@std@@V?$allocator@_W@2@@0@0AEAU?$_Wrap_alloc@V?$allocator@V?$basic_string@_WU?$char_traits@_W@std@@V?$allocator@_W@2@@std@@@std@@@0@U?$integral_constant@_N$0A@@0@@Z 0000000180040914     tile.obj
 0004:00001920       $pdata$2$??$_Destroy_range1@V?$allocator@V?$basic_string@_WU?$char_traits@_W@std@@V?$allocator@_W@2@@std@@@std@@PEAV?$basic_string@_WU?$char_traits@_W@std@@V?$allocator@_W@2@@2@@std@@YAXPEAV?$basic_string@_WU?$char_traits@_W@std@@V?$allocator@_W@2@@0@0AEAU?$_Wrap_alloc@V?$allocator@V?$basic_string@_WU?$char_traits@_W@std@@V?$allocator@_W@2@@std@@@std@@@0@U?$integral_constant@_N$0A@@0@@Z 0000000180040920     tile.obj
 0004:0000192c       $pdata$3$??$_Destroy_range1@V?$allocator@V?$basic_string@_WU?$char_traits@_W@std@@V?$allocator@_W@2@@std@@@std@@PEAV?$basic_string@_WU?$char_traits@_W@std@@V?$allocator@_W@2@@2@@std@@YAXPEAV?$basic_string@_WU?$char_traits@_W@std@@V?$allocator@_W@2@@0@0AEAU?$_Wrap_alloc@V?$allocator@V?$basic_string@_WU?$char_traits@_W@std@@V?$allocator@_W@2@@std@@@std@@@0@U?$integral_constant@_N$0A@@0@@Z 000000018004092c     tile.obj
 0004:00001938       $pdata$4$??$_Destroy_range1@V?$allocator@V?$basic_string@_WU?$char_traits@_W@std@@V?$allocator@_W@2@@std@@@std@@PEAV?$basic_string@_WU?$char_traits@_W@std@@V?$allocator@_W@2@@2@@std@@YAXPEAV?$basic_string@_WU?$char_traits@_W@std@@V?$allocator@_W@2@@0@0AEAU?$_Wrap_alloc@V?$allocator@V?$basic_string@_WU?$char_traits@_W@std@@V?$allocator@_W@2@@std@@@std@@@0@U?$integral_constant@_N$0A@@0@@Z 0000000180040938     tile.obj
 0004:00001944       $pdata$??$_Uninitialized_move_al_unchecked1@PEAV?$basic_string@_WU?$char_traits@_W@std@@V?$allocator@_W@2@@std@@PEAV12@V?$allocator@V?$basic_string@_WU?$char_traits@_W@std@@V?$allocator@_W@2@@std@@@2@@std@@YAPEAV?$basic_string@_WU?$char_traits@_W@std@@V?$allocator@_W@2@@0@PEAV10@00AEAU?$_Wrap_alloc@V?$allocator@V?$basic_string@_WU?$char_traits@_W@std@@V?$allocator@_W@2@@std@@@std@@@0@U_General_ptr_iterator_tag@0@U_Any_tag@0@@Z 0000000180040944     tile.obj
 0004:00001950       $pdata$??$_Uninitialized_move_al_unchecked1@PEAVTileRow@@PEAV1@V?$allocator@VTileRow@@@std@@@std@@YAPEAVTileRow@@PEAV1@00AEAU?$_Wrap_alloc@V?$allocator@VTileRow@@@std@@@0@U_General_ptr_iterator_tag@0@U_Any_tag@0@@Z 0000000180040950     tile.obj
 0004:0000195c       $pdata$??0?$vector@MV?$allocator@M@std@@@std@@QEAA@AEBV01@@Z 000000018004095c     tile.obj
 0004:00001968       $pdata$??1?$basic_stringbuf@_WU?$char_traits@_W@std@@V?$allocator@_W@2@@std@@UEAA@XZ 0000000180040968     tile.obj
 0004:00001974       $pdata$??1?$basic_stringstream@_WU?$char_traits@_W@std@@V?$allocator@_W@2@@std@@UEAA@XZ 0000000180040974     tile.obj
 0004:00001980       $pdata$??1?$vector@V?$basic_string@_WU?$char_traits@_W@std@@V?$allocator@_W@2@@std@@V?$allocator@V?$basic_string@_WU?$char_traits@_W@std@@V?$allocator@_W@2@@std@@@2@@std@@QEAA@XZ 0000000180040980     tile.obj
 0004:0000198c       $pdata$??1TileRow@@QEAA@XZ 000000018004098c     tile.obj
 0004:00001998       $pdata$??_D?$basic_stringstream@_WU?$char_traits@_W@std@@V?$allocator@_W@2@@std@@QEAAXXZ 0000000180040998     tile.obj
 0004:000019a4       $pdata$??_G?$basic_stringbuf@_WU?$char_traits@_W@std@@V?$allocator@_W@2@@std@@UEAAPEAXI@Z 00000001800409a4     tile.obj
 0004:000019b0       $pdata$??_G?$basic_stringstream@_WU?$char_traits@_W@std@@V?$allocator@_W@2@@std@@UEAAPEAXI@Z 00000001800409b0     tile.obj
 0004:000019bc       $pdata$?_Assign_rv@?$basic_string@_WU?$char_traits@_W@std@@V?$allocator@_W@2@@std@@QEAAX$$QEAV12@@Z 00000001800409bc     tile.obj
 0004:000019c8       $pdata$?_Init@?$basic_stringbuf@_WU?$char_traits@_W@std@@V?$allocator@_W@2@@std@@IEAAXPEB_W_KH@Z 00000001800409c8     tile.obj
 0004:000019d4       $pdata$1$?_Init@?$basic_stringbuf@_WU?$char_traits@_W@std@@V?$allocator@_W@2@@std@@IEAAXPEB_W_KH@Z 00000001800409d4     tile.obj
 0004:000019e0       $pdata$2$?_Init@?$basic_stringbuf@_WU?$char_traits@_W@std@@V?$allocator@_W@2@@std@@IEAAXPEB_W_KH@Z 00000001800409e0     tile.obj
 0004:000019ec       $pdata$?_Reallocate@?$vector@MV?$allocator@M@std@@@std@@IEAAX_K@Z 00000001800409ec     tile.obj
 0004:000019f8       $pdata$?_Reallocate@?$vector@V?$basic_string@_WU?$char_traits@_W@std@@V?$allocator@_W@2@@std@@V?$allocator@V?$basic_string@_WU?$char_traits@_W@std@@V?$allocator@_W@2@@std@@@2@@std@@IEAAX_K@Z 00000001800409f8     tile.obj
 0004:00001a04       $pdata$?_Reallocate@?$vector@VTileRow@@V?$allocator@VTileRow@@@std@@@std@@IEAAX_K@Z 0000000180040a04     tile.obj
 0004:00001a10       $pdata$?_Tidy@?$basic_stringbuf@_WU?$char_traits@_W@std@@V?$allocator@_W@2@@std@@IEAAXXZ 0000000180040a10     tile.obj
 0004:00001a1c       $pdata$?allocate@?$allocator@M@std@@QEAAPEAM_K@Z 0000000180040a1c     tile.obj
 0004:00001a28       $pdata$?allocate@?$allocator@V?$basic_string@_WU?$char_traits@_W@std@@V?$allocator@_W@2@@std@@@std@@QEAAPEAV?$basic_string@_WU?$char_traits@_W@std@@V?$allocator@_W@2@@2@_K@Z 0000000180040a28     tile.obj
 0004:00001a28       $pdata$?allocate@?$allocator@VTileRow@@@std@@QEAAPEAVTileRow@@_K@Z 0000000180040a28     tile.obj
 0004:00001a34       $pdata$?corner@Tile@@CA?AVTilePoint@@MMMMAEAVTileParam@@@Z 0000000180040a34     tile.obj
 0004:00001a40       $pdata$?deallocate@?$allocator@V?$basic_string@_WU?$char_traits@_W@std@@V?$allocator@_W@2@@std@@@std@@QEAAXPEAV?$basic_string@_WU?$char_traits@_W@std@@V?$allocator@_W@2@@2@_K@Z 0000000180040a40     tile.obj
 0004:00001a40       $pdata$?deallocate@?$allocator@VTileRow@@@std@@QEAAXPEAVTileRow@@_K@Z 0000000180040a40     BerconTile.obj
 0004:00001a4c       $pdata$?draw@Tile@@SA?AVTilePoint@@VPoint3@@AEAVTileParam@@@Z 0000000180040a4c     tile.obj
 0004:00001a58       $pdata$?drawTile@Tile@@CA?AVTilePoint@@VPoint3@@QEAMAEAVTileParam@@HH@Z 0000000180040a58     tile.obj
 0004:00001a64       $pdata$1$?drawTile@Tile@@CA?AVTilePoint@@VPoint3@@QEAMAEAVTileParam@@HH@Z 0000000180040a64     tile.obj
 0004:00001a70       $pdata$2$?drawTile@Tile@@CA?AVTilePoint@@VPoint3@@QEAMAEAVTileParam@@HH@Z 0000000180040a70     tile.obj
 0004:00001a7c       $pdata$?find_first_not_of@?$basic_string@_WU?$char_traits@_W@std@@V?$allocator@_W@2@@std@@QEBA_KAEBV12@_K@Z 0000000180040a7c     tile.obj
 0004:00001a88       $pdata$?find_first_of@?$basic_string@_WU?$char_traits@_W@std@@V?$allocator@_W@2@@std@@QEBA_KAEBV12@_K@Z 0000000180040a88     tile.obj
 0004:00001a94       $pdata$?getAngle@@YAMHM@Z  0000000180040a94     tile.obj
 0004:00001aa0       $pdata$?overflow@?$basic_stringbuf@_WU?$char_traits@_W@std@@V?$allocator@_W@2@@std@@MEAAGG@Z 0000000180040aa0     tile.obj
 0004:00001aac       $pdata$0$?overflow@?$basic_stringbuf@_WU?$char_traits@_W@std@@V?$allocator@_W@2@@std@@MEAAGG@Z 0000000180040aac     tile.obj
 0004:00001ab8       $pdata$2$?overflow@?$basic_stringbuf@_WU?$char_traits@_W@std@@V?$allocator@_W@2@@std@@MEAAGG@Z 0000000180040ab8     tile.obj
 0004:00001ac4       $pdata$5$?overflow@?$basic_stringbuf@_WU?$char_traits@_W@std@@V?$allocator@_W@2@@std@@MEAAGG@Z 0000000180040ac4     tile.obj
 0004:00001ad0       $pdata$11$?overflow@?$basic_stringbuf@_WU?$char_traits@_W@std@@V?$allocator@_W@2@@std@@MEAAGG@Z 0000000180040ad0     tile.obj
 0004:00001adc       $pdata$12$?overflow@?$basic_stringbuf@_WU?$char_traits@_W@std@@V?$allocator@_W@2@@std@@MEAAGG@Z 0000000180040adc     tile.obj
 0004:00001ae8       $pdata$?parsePattern@@YAHV?$basic_string@_WU?$char_traits@_W@std@@V?$allocator@_W@2@@std@@PEAVTilePattern@@@Z 0000000180040ae8     tile.obj
 0004:00001af4       $pdata$?pat_herring@Tile@@CA?AVTilePoint@@VPoint3@@AEAVTileParam@@@Z 0000000180040af4     tile.obj
 0004:00001b00       $pdata$?pat_xBond@Tile@@CA?AVTilePoint@@VPoint3@@AEAVTileParam@@@Z 0000000180040b00     tile.obj
 0004:00001b0c       $pdata$0$?pat_xBond@Tile@@CA?AVTilePoint@@VPoint3@@AEAVTileParam@@@Z 0000000180040b0c     tile.obj
 0004:00001b18       $pdata$1$?pat_xBond@Tile@@CA?AVTilePoint@@VPoint3@@AEAVTileParam@@@Z 0000000180040b18     tile.obj
 0004:00001b24       $pdata$?rowcol@@YAHAEAM0AEAHMMAEAV?$vector@MV?$allocator@M@std@@@std@@MMM@Z 0000000180040b24     tile.obj
 0004:00001b30       $pdata$5$?rowcol@@YAHAEAM0AEAHMMAEAV?$vector@MV?$allocator@M@std@@@std@@MMM@Z 0000000180040b30     tile.obj
 0004:00001b3c       $pdata$6$?rowcol@@YAHAEAM0AEAHMMAEAV?$vector@MV?$allocator@M@std@@@std@@MMM@Z 0000000180040b3c     tile.obj
 0004:00001b48       $pdata$?seekoff@?$basic_stringbuf@_WU?$char_traits@_W@std@@V?$allocator@_W@2@@std@@MEAA?AV?$fpos@U_Mbstatet@@@2@_JHH@Z 0000000180040b48     tile.obj
 0004:00001b54       $pdata$?seekpos@?$basic_stringbuf@_WU?$char_traits@_W@std@@V?$allocator@_W@2@@std@@MEAA?AV?$fpos@U_Mbstatet@@@2@V32@H@Z 0000000180040b54     tile.obj
 0004:00001b60       $pdata$?setPattern@TilePattern@@QEAAXV?$basic_string@_WU?$char_traits@_W@std@@V?$allocator@_W@2@@std@@@Z 0000000180040b60     tile.obj
 0004:00001b6c       $pdata$?setPreset@TilePattern@@QEAAXH@Z 0000000180040b6c     tile.obj
 0004:00001b78       $pdata$?substr@?$basic_string@_WU?$char_traits@_W@std@@V?$allocator@_W@2@@std@@QEBA?AV12@_K0@Z 0000000180040b78     tile.obj
 0004:00001b84       $pdata$?tokenize@@YAXAEBV?$basic_string@_WU?$char_traits@_W@std@@V?$allocator@_W@2@@std@@AEAV?$vector@V?$basic_string@_WU?$char_traits@_W@std@@V?$allocator@_W@2@@std@@V?$allocator@V?$basic_string@_WU?$char_traits@_W@std@@V?$allocator@_W@2@@std@@@2@@2@0@Z 0000000180040b84     tile.obj
 0004:00001b90       $pdata$?uvMapping@Tile@@CAXAEAVTilePoint@@VPoint3@@QEAMAEAVTileParam@@H@Z 0000000180040b90     tile.obj
 0004:00001b9c       $pdata$?add@Worley@@CAXJJJQEBNHPEANH@Z 0000000180040b9c     worley.obj
 0004:00001ba8       $pdata$11$?add@Worley@@CAXJJJQEBNHPEANH@Z 0000000180040ba8     worley.obj
 0004:00001bb4       $pdata$12$?add@Worley@@CAXJJJQEBNHPEANH@Z 0000000180040bb4     worley.obj
 0004:00001bc0       $pdata$13$?add@Worley@@CAXJJJQEBNHPEANH@Z 0000000180040bc0     worley.obj
 0004:00001bcc       $pdata$?noise@Worley@@SAXQEBNHPEANH@Z 0000000180040bcc     worley.obj
 0004:00001bd8       $pdata$??_Gtype_info@@UEAAPEAXI@Z 0000000180040bd8     MSVCRT:std_type_info_static.obj
 0004:00001be4       $pdata$__scrt_acquire_startup_lock 0000000180040be4     MSVCRT:utility.obj
 0004:00001bf0       $pdata$__scrt_dllmain_after_initialize_c 0000000180040bf0     MSVCRT:utility.obj
 0004:00001bfc       $pdata$__scrt_dllmain_before_initialize_c 0000000180040bfc     MSVCRT:utility.obj
 0004:00001c08       $pdata$__scrt_dllmain_crt_thread_attach 0000000180040c08     MSVCRT:utility.obj
 0004:00001c14       $pdata$__scrt_dllmain_crt_thread_detach 0000000180040c14     MSVCRT:utility.obj
 0004:00001c20       $pdata$__scrt_dllmain_exception_filter 0000000180040c20     MSVCRT:utility.obj
 0004:00001c2c       $pdata$__scrt_dllmain_uninitialize_c 0000000180040c2c     MSVCRT:utility.obj
 0004:00001c38       $pdata$__scrt_dllmain_uninitialize_critical 0000000180040c38     MSVCRT:utility.obj
 0004:00001c44       $pdata$__scrt_initialize_crt 0000000180040c44     MSVCRT:utility.obj
 0004:00001c50       $pdata$__scrt_initialize_onexit_tables 0000000180040c50     MSVCRT:utility.obj
 0004:00001c5c       $pdata$__scrt_is_nonwritable_in_current_image 0000000180040c5c     MSVCRT:utility.obj
 0004:00001c68       $pdata$__scrt_release_startup_lock 0000000180040c68     MSVCRT:utility.obj
 0004:00001c74       $pdata$__scrt_uninitialize_crt 0000000180040c74     MSVCRT:utility.obj
 0004:00001c80       $pdata$_onexit             0000000180040c80     MSVCRT:utility.obj
 0004:00001c8c       $pdata$atexit              0000000180040c8c     MSVCRT:utility.obj
 0004:00001c98       $pdata$??2@YAPEAX_K@Z      0000000180040c98     MSVCRT:new_scalar.obj
 0004:00001cb0       $pdata$?dllmain_crt_dispatch@@YAHQEAUHINSTANCE__@@KQEAX@Z 0000000180040cb0     MSVCRT:dll_dllmain.obj
 0004:00001cbc       $pdata$?dllmain_crt_process_attach@@YAHQEAUHINSTANCE__@@QEAX@Z 0000000180040cbc     MSVCRT:dll_dllmain.obj
 0004:00001cc8       $pdata$?dllmain_crt_process_detach@@YAH_N@Z 0000000180040cc8     MSVCRT:dll_dllmain.obj
 0004:00001cd4       $pdata$?dllmain_dispatch@@YAHQEAUHINSTANCE__@@KQEAX@Z 0000000180040cd4     MSVCRT:dll_dllmain.obj
 0004:00001ce0       $pdata$?dllmain_raw@@YAHQEAUHINSTANCE__@@KQEAX@Z 0000000180040ce0     MSVCRT:dll_dllmain.obj
 0004:00001cec       $pdata$_DllMainCRTStartup  0000000180040cec     MSVCRT:dll_dllmain.obj
 0004:00001cf8       $pdata$__isa_available_init 0000000180040cf8     MSVCRT:_cpu_disp_.obj
 0004:00001d04       $pdata$__scrt_fastfail     0000000180040d04     MSVCRT:utility_desktop.obj
 0004:00001d10       $pdata$??0bad_alloc@std@@QEAA@AEBV01@@Z 0000000180040d10     MSVCRT:throw_bad_alloc.obj
 0004:00001d1c       $pdata$??0bad_array_new_length@std@@QEAA@AEBV01@@Z 0000000180040d1c     MSVCRT:throw_bad_alloc.obj
 0004:00001d28       $pdata$??0exception@std@@QEAA@AEBV01@@Z 0000000180040d28     MSVCRT:throw_bad_alloc.obj
 0004:00001d34       $pdata$??_Gbad_alloc@std@@UEAAPEAXI@Z 0000000180040d34     MSVCRT:throw_bad_alloc.obj
 0004:00001d34       $pdata$??_Gbad_array_new_length@std@@UEAAPEAXI@Z 0000000180040d34     MSVCRT:throw_bad_alloc.obj
 0004:00001d34       $pdata$??_Gexception@std@@UEAAPEAXI@Z 0000000180040d34     MSVCRT:throw_bad_alloc.obj
 0004:00001d40       $pdata$?__scrt_throw_std_bad_alloc@@YAXXZ 0000000180040d40     MSVCRT:throw_bad_alloc.obj
 0004:00001d4c       $pdata$?__scrt_throw_std_bad_array_new_length@@YAXXZ 0000000180040d4c     MSVCRT:throw_bad_alloc.obj
 0004:00001d58       $pdata$__security_init_cookie 0000000180040d58     MSVCRT:gs_support.obj
 0004:00001d64       $pdata$__scrt_initialize_default_local_stdio_options 0000000180040d64     MSVCRT:default_local_stdio_options.obj
 0004:00001d70       $pdata$_RTC_Initialize     0000000180040d70     MSVCRT:_initsect_.obj
 0004:00001d7c       $pdata$_RTC_Terminate      0000000180040d7c     MSVCRT:_initsect_.obj
 0004:00001d94       $pdata$?dtor$1@?0???0BerconGradient@@QEAA@XZ@4HA 0000000180040d94     BerconGradient.obj
 0004:00001da0       $pdata$?dtor$0@?0??GetSubTexmapSlotName@BerconGradient@@UEAA?AVWStr@@H@Z@4HA 0000000180040da0     BerconGradient.obj
 0004:00001dac       $pdata$?dtor$0@?0??SubAnimName@BerconNoise@@UEAA?AVWStr@@H@Z@4HA 0000000180040dac     BerconNoise.obj
 0004:00001dac       $pdata$?dtor$0@?0??GetSubTexmapSlotName@BerconNoise@@UEAA?AVWStr@@H@Z@4HA 0000000180040dac     BerconNoise.obj
 0004:00001dac       $pdata$?dtor$0@?0??GetSubTexmapSlotName@BerconDistortion@@UEAA?AVWStr@@H@Z@4HA 0000000180040dac     BerconDistortion.obj
 0004:00001dac       $pdata$?dtor$0@?0??SubAnimName@BerconTile@@UEAA?AVWStr@@H@Z@4HA 0000000180040dac     BerconTile.obj
 0004:00001dac       $pdata$?dtor$0@?0??GetSubTexmapSlotName@BerconTile@@UEAA?AVWStr@@H@Z@4HA 0000000180040dac     BerconTile.obj
 0004:00001dac       $pdata$?dtor$0@?0??SubAnimName@BerconGradient@@UEAA?AVWStr@@H@Z@4HA 0000000180040dac     BerconGradient.obj
 0004:00001dac       $pdata$?dtor$0@?0??SubAnimName@BerconWood@@UEAA?AVWStr@@H@Z@4HA 0000000180040dac     BerconWood.obj
 0004:00001dac       $pdata$?dtor$0@?0??SubAnimName@BerconDistortion@@UEAA?AVWStr@@H@Z@4HA 0000000180040dac     BerconDistortion.obj
 0004:00001dac       $pdata$?dtor$0@?0??GetSubTexmapSlotName@BerconWood@@UEAA?AVWStr@@H@Z@4HA 0000000180040dac     BerconWood.obj
 0004:00001db8       $pdata$?catch$1@?0??_Copy@?$basic_string@_WU?$char_traits@_W@std@@V?$allocator@_W@2@@std@@QEAAX_K0@Z@4HA 0000000180040db8     BerconTile.obj
 0004:00001dc4       $pdata$?catch$0@?0??_Copy@?$basic_string@_WU?$char_traits@_W@std@@V?$allocator@_W@2@@std@@QEAAX_K0@Z@4HA 0000000180040dc4     BerconTile.obj
 0004:00001dd0       $pdata$CommctrlIsolationAwarePrivatetRgCebPnQQeRff_pbZPgYQP_QYY$fin$0 0000000180040dd0     DllEntry.obj
 0004:00001ddc       $pdata$IsolationAwareInitCommonControls$fin$0 0000000180040ddc     DllEntry.obj
 0004:00001de8       $pdata$WinbaseIsolationAwarePrivatetRgzlnPgpgk$fin$0 0000000180040de8     DllEntry.obj
 0004:00001df4       $pdata$IsolationAwareRegisterClassExW$fin$0 0000000180040df4     IGradient.obj
 0004:00001e00       $pdata$?catch$0@?0???$_Uninitialized_move_al_unchecked1@PEAV?$basic_string@_WU?$char_traits@_W@std@@V?$allocator@_W@2@@std@@PEAV12@V?$allocator@V?$basic_string@_WU?$char_traits@_W@std@@V?$allocator@_W@2@@std@@@2@@std@@YAPEAV?$basic_string@_WU?$char_traits@_W@std@@V?$allocator@_W@2@@0@PEAV10@00AEAU?$_Wrap_alloc@V?$allocator@V?$basic_string@_WU?$char_traits@_W@std@@V?$allocator@_W@2@@std@@@std@@@0@U_General_ptr_iterator_tag@0@U_Any_tag@0@@Z@4HA 0000000180040e00     tile.obj
 0004:00001e0c       $pdata$?catch$1@?0???$_Uninitialized_move_al_unchecked1@PEAVTileRow@@PEAV1@V?$allocator@VTileRow@@@std@@@std@@YAPEAVTileRow@@PEAV1@00AEAU?$_Wrap_alloc@V?$allocator@VTileRow@@@std@@@0@U_General_ptr_iterator_tag@0@U_Any_tag@0@@Z@4HA 0000000180040e0c     tile.obj
 0004:00001e18       $pdata$?catch$0@?0???0?$vector@MV?$allocator@M@std@@@std@@QEAA@AEBV01@@Z@4HA 0000000180040e18     tile.obj
 0004:00001e24       $pdata$?catch$0@?0??_Reallocate@?$vector@MV?$allocator@M@std@@@std@@IEAAX_K@Z@4HA 0000000180040e24     tile.obj
 0004:00001e30       $pdata$?catch$0@?0??_Reallocate@?$vector@V?$basic_string@_WU?$char_traits@_W@std@@V?$allocator@_W@2@@std@@V?$allocator@V?$basic_string@_WU?$char_traits@_W@std@@V?$allocator@_W@2@@std@@@2@@std@@IEAAX_K@Z@4HA 0000000180040e30     tile.obj
 0004:00001e3c       $pdata$?catch$0@?0??_Reallocate@?$vector@VTileRow@@V?$allocator@VTileRow@@@std@@@std@@IEAAX_K@Z@4HA 0000000180040e3c     tile.obj
 0004:00001e48       $pdata$?dtor$9@?0??parsePattern@@YAHV?$basic_string@_WU?$char_traits@_W@std@@V?$allocator@_W@2@@std@@PEAVTilePattern@@@Z@4HA 0000000180040e48     tile.obj
 0004:00001e54       $pdata$?dtor$13@?0??parsePattern@@YAHV?$basic_string@_WU?$char_traits@_W@std@@V?$allocator@_W@2@@std@@PEAVTilePattern@@@Z@4HA 0000000180040e54     tile.obj
 0004:00001e60       $pdata$?dtor$18@?0??parsePattern@@YAHV?$basic_string@_WU?$char_traits@_W@std@@V?$allocator@_W@2@@std@@PEAVTilePattern@@@Z@4HA 0000000180040e60     tile.obj
 0004:00001e6c       $pdata$?dtor$26@?0??parsePattern@@YAHV?$basic_string@_WU?$char_traits@_W@std@@V?$allocator@_W@2@@std@@PEAVTilePattern@@@Z@4HA 0000000180040e6c     tile.obj
 0004:00001e78       $pdata$?dtor$28@?0??parsePattern@@YAHV?$basic_string@_WU?$char_traits@_W@std@@V?$allocator@_W@2@@std@@PEAVTilePattern@@@Z@4HA 0000000180040e78     tile.obj
 0004:00001e84       $pdata$?dtor$0@?0??substr@?$basic_string@_WU?$char_traits@_W@std@@V?$allocator@_W@2@@std@@QEBA?AV12@_K0@Z@4HA 0000000180040e84     tile.obj
 0004:00001e90       $pdata$__scrt_is_nonwritable_in_current_image$filt$0 0000000180040e90     MSVCRT:utility.obj
 0004:00001e9c       $pdata$?fin$0@?0??dllmain_crt_process_attach@@YAHQEAUHINSTANCE__@@QEAX@Z@4HA 0000000180040e9c     MSVCRT:dll_dllmain.obj
 0004:00001ea8       $pdata$?fin$0@?0??dllmain_crt_process_detach@@YAH_N@Z@4HA 0000000180040ea8     MSVCRT:dll_dllmain.obj
 0004:00001eb4       $pdata$?filt$0@?0??dllmain_dispatch@@YAHQEAUHINSTANCE__@@KQEAX@Z@4HA 0000000180040eb4     MSVCRT:dll_dllmain.obj
 0004:00001ec0       $pdata$??__FBerconDistortionDesc@@YAXXZ 0000000180040ec0     BerconDistortion.obj
 0004:00001ecc       $pdata$??__Fxyz_blk@@YAXXZ 0000000180040ecc     BerconDistortion.obj
 0004:00001ed8       $pdata$??__FBerconGradientDesc@@YAXXZ 0000000180040ed8     BerconGradient.obj
 0004:00001ee4       $pdata$??__Fxyz_blk@@YAXXZ 0000000180040ee4     BerconGradient.obj
 0004:00001ef0       $pdata$??__FBerconTileDesc@@YAXXZ 0000000180040ef0     BerconTile.obj
 0004:00001efc       $pdata$??__Fxyz_blk@@YAXXZ 0000000180040efc     BerconTile.obj
 0004:00001f08       $pdata$??__FBerconWoodDesc@@YAXXZ 0000000180040f08     BerconWood.obj
 0004:00001f14       $pdata$??__Fxyz_blk@@YAXXZ 0000000180040f14     BerconWood.obj
 0004:00001f20       $pdata$??__FBerconNoiseDesc@@YAXXZ 0000000180040f20     BerconNoise.obj
 0004:00001f2c       $pdata$??__Fxyz_blk@@YAXXZ 0000000180040f2c     BerconNoise.obj
 0005:00000000       __guard_fids__             0000000180041000     MSVCRT:std_type_info_static.obj
 0005:00000004       __guard_fids_?dllmain_crt_process_attach@@YAHQEAUHINSTANCE__@@QEAX@Z 0000000180041004     MSVCRT:dll_dllmain.obj
 0005:0000000c       __guard_fids_?dllmain_dispatch@@YAHQEAUHINSTANCE__@@KQEAX@Z 000000018004100c     MSVCRT:dll_dllmain.obj
 0005:00000010       __guard_fids__             0000000180041010     MSVCRT:throw_bad_alloc.obj
 0005:00000018       __guard_fids__             0000000180041018     MSVCRT:throw_bad_alloc.obj
 0005:00000020       __guard_fids__             0000000180041020     MSVCRT:throw_bad_alloc.obj
 0005:00000028       __guard_fids__             0000000180041028     MSVCRT:guard_support.obj
 0006:00000a10       $R000000                   0000000180042a10     BerconNoise.res
 0006:00000ac8       $R0000B8                   0000000180042ac8     BerconNoise.res
 0006:00000af8       $R0000E8                   0000000180042af8     BerconNoise.res
 0006:00000ba0       $R000190                   0000000180042ba0     BerconNoise.res
 0006:00000d30       $R000320                   0000000180042d30     BerconNoise.res
 0006:00000dd8       $R0003C8                   0000000180042dd8     BerconNoise.res
 0006:00000e80       $R000470                   0000000180042e80     BerconNoise.res
 0006:00000f70       $R000560                   0000000180042f70     BerconNoise.res
 0006:00001018       $R000608                   0000000180043018     BerconNoise.res
 0006:00001ea8       $R001498                   0000000180043ea8     BerconNoise.res
 0006:00003138       $R002728                   0000000180045138     BerconNoise.res
 0006:00004910       $R003F00                   0000000180046910     BerconNoise.res
 0006:00005318       $R004908                   0000000180047318     BerconNoise.res
 0006:00005560       $R004B50                   0000000180047560     BerconNoise.res
 0006:000056d8       $R004CC8                   00000001800476d8     BerconNoise.res
 0006:00005ec8       $R0054B8                   0000000180047ec8     BerconNoise.res
 0006:00006ac8       $R0060B8                   0000000180048ac8     BerconNoise.res
 0006:00007c20       $R007210                   0000000180049c20     BerconNoise.res
 0006:00008d88       $R008378                   000000018004ad88     BerconNoise.res
 0006:00009d40       $R009330                   000000018004bd40     BerconNoise.res
 0006:0000add8       $R00A3C8                   000000018004cdd8     BerconNoise.res
 0006:0000b758       $R00AD48                   000000018004d758     BerconNoise.res
 0006:0000b760       $R00AD50                   000000018004d760     BerconNoise.res
 0006:0000b768       $R00AD58                   000000018004d768     BerconNoise.res
 0006:0000b770       $R00AD60                   000000018004d770     BerconNoise.res
 0006:0000b778       $R00AD68                   000000018004d778     BerconNoise.res
 0006:0000b780       $R00AD70                   000000018004d780     BerconNoise.res
 0006:0000b840       $R00AE30                   000000018004d840     BerconNoise.res
 0006:00018988       $R017F78                   000000018005a988     BerconNoise.res
 0006:00018b00       $R0180F0                   000000018005ab00     BerconNoise.res
 0006:00018b68       $R018158                   000000018005ab68     BerconNoise.res
 0006:00018cd0       $R0182C0                   000000018005acd0     BerconNoise.res
 0006:00018d20       $R018310                   000000018005ad20     BerconNoise.res
 0006:00018ee8       $R0184D8                   000000018005aee8     BerconNoise.res
 0006:000190c0       $R0186B0                   000000018005b0c0     BerconNoise.res
 0006:00019298       $R018888                   000000018005b298     BerconNoise.res
 0006:00019398       $R018988                   000000018005b398     BerconNoise.res
 0006:00019468       $R018A58                   000000018005b468     BerconNoise.res
 0006:00019590       $R018B80                   000000018005b590     BerconNoise.res
 0006:00019690       $R018C80                   000000018005b690     BerconNoise.res
 0006:00019808       $R018DF8                   000000018005b808     BerconNoise.res
 0006:00019988       $R018F78                   000000018005b988     BerconNoise.res
 0006:00019b38       $R019128                   000000018005bb38     BerconNoise.res
 0006:00019c18       $R019208                   000000018005bc18     BerconNoise.res
 0006:00019d58       $R019348                   000000018005bd58     BerconNoise.res
 0006:00019ed0       $R0194C0                   000000018005bed0     BerconNoise.res
 0006:0001a0e0       $R0196D0                   000000018005c0e0     BerconNoise.res
 0006:0001a298       $R019888                   000000018005c298     BerconNoise.res
 0006:0001a3b0       $R0199A0                   000000018005c3b0     BerconNoise.res

 Exports

  ordinal    name

        1    ?LibDescription@@YAPEB_WXZ (wchar_t const * __cdecl LibDescription(void))
               exported name: LibDescription
        2    ?LibNumberClasses@@YAHXZ (int __cdecl LibNumberClasses(void))
               exported name: LibNumberClasses
        3    ?LibClassDesc@@YAPEAVClassDesc@@H@Z (class ClassDesc * __cdecl LibClassDesc(int))
               exported name: LibClassDesc
        4    ?LibVersion@@YAKXZ (unsigned long __cdecl LibVersion(void))
               exported name: LibVersion
        5    ??0VertexNormalsControl@@QEAA@XZ (public: __cdecl VertexNormalsControl::VertexNormalsControl(void))
        6    ?LibInitialize@@YAHXZ (int __cdecl LibInitialize(void))
        7    ?LibShutdown@@YAHXZ (int __cdecl LibShutdown(void))
