; Listing generated by Microsoft (R) Optimizing Compiler Version 19.00.24234.1 

include listing.inc

INCLUDELIB MSVCRTD
INCLUDELIB OLDNAMES

PUBLIC	WinbaseIsolationAwarePrivateT_UnPgpgk
PUBLIC	IsolationAwarePrivateT_SqbjaYRiRY
PUBLIC	IsolationAwarePrivateT_SAbnPgpgk
PUBLIC	WinbaseIsolationAwarePrivateT_SpeRNgRQnPgpgk
PUBLIC	WinbaseIsolationAwarePrivateT_SpYRNahcpNYYRQ
EXTRN	GUID_NULL:BYTE
;	COMDAT IsolationAwarePrivateT_SqbjaYRiRY
_BSS	SEGMENT
IsolationAwarePrivateT_SqbjaYRiRY DD 01H DUP (?)
_BSS	ENDS
;	COMDAT IsolationAwarePrivateT_SAbnPgpgk
_BSS	SEGMENT
IsolationAwarePrivateT_SAbnPgpgk DD 01H DUP (?)
_BSS	ENDS
;	COMDAT WinbaseIsolationAwarePrivateT_SpeRNgRQnPgpgk
_BSS	SEGMENT
WinbaseIsolationAwarePrivateT_SpeRNgRQnPgpgk DD 01H DUP (?)
_BSS	ENDS
;	COMDAT WinbaseIsolationAwarePrivateT_SpYRNahcpNYYRQ
_BSS	SEGMENT
WinbaseIsolationAwarePrivateT_SpYRNahcpNYYRQ DD 01H DUP (?)
_BSS	ENDS
;	COMDAT WinbaseIsolationAwarePrivateT_UnPgpgk
_DATA	SEGMENT
WinbaseIsolationAwarePrivateT_UnPgpgk DQ ffffffffffffffffH
_DATA	ENDS
PUBLIC	??_H@YAXPEAX_K1P6APEAX0@Z@Z			; `vector constructor iterator'
PUBLIC	?__empty_global_delete@@YAXPEAX@Z		; __empty_global_delete
PUBLIC	?__empty_global_delete@@YAXPEAX_K@Z		; __empty_global_delete
PUBLIC	?fractal@Fractal@@SAMVPoint3@@AEAVNoiseParams@@@Z ; Fractal::fractal
PUBLIC	?turbulence@Fractal@@SAMVPoint3@@AEAVNoiseParams@@@Z ; Fractal::turbulence
PUBLIC	?fBm@Fractal@@SAMVPoint3@@AEAVNoiseParams@@@Z	; Fractal::fBm
PUBLIC	?fBmTurb@Fractal@@SAMVPoint3@@AEAVNoiseParams@@@Z ; Fractal::fBmTurb
PUBLIC	?heteroTerrain@Fractal@@SAMVPoint3@@AEAVNoiseParams@@@Z ; Fractal::heteroTerrain
PUBLIC	?hybridMultiFractal@Fractal@@SAMVPoint3@@AEAVNoiseParams@@@Z ; Fractal::hybridMultiFractal
PUBLIC	?ridgedMultiFractal@Fractal@@SAMVPoint3@@AEAVNoiseParams@@@Z ; Fractal::ridgedMultiFractal
PUBLIC	?fractal@Fractal@@SAMVPoint3@@MAEAVNoiseParams@@@Z ; Fractal::fractal
PUBLIC	?turbulence@Fractal@@SAMVPoint3@@MAEAVNoiseParams@@@Z ; Fractal::turbulence
PUBLIC	?fBm@Fractal@@SAMVPoint3@@MAEAVNoiseParams@@@Z	; Fractal::fBm
PUBLIC	?fBmTurb@Fractal@@SAMVPoint3@@MAEAVNoiseParams@@@Z ; Fractal::fBmTurb
PUBLIC	?heteroTerrain@Fractal@@SAMVPoint3@@MAEAVNoiseParams@@@Z ; Fractal::heteroTerrain
PUBLIC	?hybridMultiFractal@Fractal@@SAMVPoint3@@MAEAVNoiseParams@@@Z ; Fractal::hybridMultiFractal
PUBLIC	?ridgedMultiFractal@Fractal@@SAMVPoint3@@MAEAVNoiseParams@@@Z ; Fractal::ridgedMultiFractal
PUBLIC	?fBm@Fractal@@SAMVPoint3@@MMM@Z			; Fractal::fBm
PUBLIC	?grain@Fractal@@SAMVPoint3@@MM@Z		; Fractal::grain
PUBLIC	__real@3d4ccccd
PUBLIC	__real@3f000000
PUBLIC	__real@3f50624dd2f1a9fc
PUBLIC	__real@3f800000
PUBLIC	__real@40000000
PUBLIC	__real@40800000
PUBLIC	__real@bf800000
PUBLIC	__xmm@7fffffffffffffff7fffffffffffffff
PUBLIC	__xmm@80000000800000008000000080000000
EXTRN	?smooth@@YAMMMM@Z:PROC				; smooth
EXTRN	?noise@Perlin@@SAMMMM@Z:PROC			; Perlin::noise
EXTRN	?noise@Noise@@SAMVPoint3@@AEAVNoiseParams@@@Z:PROC ; Noise::noise
EXTRN	?noise@Noise@@SAMVPoint3@@MAEAVNoiseParams@@@Z:PROC ; Noise::noise
EXTRN	powf:PROC
EXTRN	_fltused:DWORD
_BSS	SEGMENT
?kInvalidId@AssetManagement@MaxSDK@@3UAssetId@12@A DB 010H DUP (?) ; MaxSDK::AssetManagement::kInvalidId
_BSS	ENDS
;	COMDAT pdata
pdata	SEGMENT
$pdata$??_H@YAXPEAX_K1P6APEAX0@Z@Z DD imagerel $LN12
	DD	imagerel $LN12+72
	DD	imagerel $unwind$??_H@YAXPEAX_K1P6APEAX0@Z@Z
pdata	ENDS
;	COMDAT pdata
pdata	SEGMENT
$pdata$?pow@@YAMMM@Z DD imagerel $LN4
	DD	imagerel $LN4+14
	DD	imagerel $unwind$?pow@@YAMMM@Z
pdata	ENDS
;	COMDAT pdata
pdata	SEGMENT
$pdata$?fractal@Fractal@@SAMVPoint3@@AEAVNoiseParams@@@Z DD imagerel $LN20
	DD	imagerel $LN20+59
	DD	imagerel $unwind$?fractal@Fractal@@SAMVPoint3@@AEAVNoiseParams@@@Z
pdata	ENDS
;	COMDAT pdata
pdata	SEGMENT
$pdata$0$?fractal@Fractal@@SAMVPoint3@@AEAVNoiseParams@@@Z DD imagerel $LN20+59
	DD	imagerel $LN20+81
	DD	imagerel $chain$0$?fractal@Fractal@@SAMVPoint3@@AEAVNoiseParams@@@Z
pdata	ENDS
;	COMDAT pdata
pdata	SEGMENT
$pdata$1$?fractal@Fractal@@SAMVPoint3@@AEAVNoiseParams@@@Z DD imagerel $LN20+81
	DD	imagerel $LN20+171
	DD	imagerel $chain$1$?fractal@Fractal@@SAMVPoint3@@AEAVNoiseParams@@@Z
pdata	ENDS
;	COMDAT pdata
pdata	SEGMENT
$pdata$2$?fractal@Fractal@@SAMVPoint3@@AEAVNoiseParams@@@Z DD imagerel $LN20+171
	DD	imagerel $LN20+184
	DD	imagerel $chain$2$?fractal@Fractal@@SAMVPoint3@@AEAVNoiseParams@@@Z
pdata	ENDS
;	COMDAT pdata
pdata	SEGMENT
$pdata$3$?fractal@Fractal@@SAMVPoint3@@AEAVNoiseParams@@@Z DD imagerel $LN20+184
	DD	imagerel $LN20+295
	DD	imagerel $chain$3$?fractal@Fractal@@SAMVPoint3@@AEAVNoiseParams@@@Z
pdata	ENDS
;	COMDAT pdata
pdata	SEGMENT
$pdata$?turbulence@Fractal@@SAMVPoint3@@AEAVNoiseParams@@@Z DD imagerel $LN29
	DD	imagerel $LN29+54
	DD	imagerel $unwind$?turbulence@Fractal@@SAMVPoint3@@AEAVNoiseParams@@@Z
pdata	ENDS
;	COMDAT pdata
pdata	SEGMENT
$pdata$1$?turbulence@Fractal@@SAMVPoint3@@AEAVNoiseParams@@@Z DD imagerel $LN29+54
	DD	imagerel $LN29+94
	DD	imagerel $chain$1$?turbulence@Fractal@@SAMVPoint3@@AEAVNoiseParams@@@Z
pdata	ENDS
;	COMDAT pdata
pdata	SEGMENT
$pdata$2$?turbulence@Fractal@@SAMVPoint3@@AEAVNoiseParams@@@Z DD imagerel $LN29+94
	DD	imagerel $LN29+200
	DD	imagerel $chain$2$?turbulence@Fractal@@SAMVPoint3@@AEAVNoiseParams@@@Z
pdata	ENDS
;	COMDAT pdata
pdata	SEGMENT
$pdata$3$?turbulence@Fractal@@SAMVPoint3@@AEAVNoiseParams@@@Z DD imagerel $LN29+200
	DD	imagerel $LN29+219
	DD	imagerel $chain$3$?turbulence@Fractal@@SAMVPoint3@@AEAVNoiseParams@@@Z
pdata	ENDS
;	COMDAT pdata
pdata	SEGMENT
$pdata$4$?turbulence@Fractal@@SAMVPoint3@@AEAVNoiseParams@@@Z DD imagerel $LN29+219
	DD	imagerel $LN29+337
	DD	imagerel $chain$4$?turbulence@Fractal@@SAMVPoint3@@AEAVNoiseParams@@@Z
pdata	ENDS
;	COMDAT pdata
pdata	SEGMENT
$pdata$?fBm@Fractal@@SAMVPoint3@@AEAVNoiseParams@@@Z DD imagerel $LN23
	DD	imagerel $LN23+368
	DD	imagerel $unwind$?fBm@Fractal@@SAMVPoint3@@AEAVNoiseParams@@@Z
pdata	ENDS
;	COMDAT pdata
pdata	SEGMENT
$pdata$?fBmTurb@Fractal@@SAMVPoint3@@AEAVNoiseParams@@@Z DD imagerel $LN32
	DD	imagerel $LN32+409
	DD	imagerel $unwind$?fBmTurb@Fractal@@SAMVPoint3@@AEAVNoiseParams@@@Z
pdata	ENDS
;	COMDAT pdata
pdata	SEGMENT
$pdata$?heteroTerrain@Fractal@@SAMVPoint3@@AEAVNoiseParams@@@Z DD imagerel $LN27
	DD	imagerel $LN27+447
	DD	imagerel $unwind$?heteroTerrain@Fractal@@SAMVPoint3@@AEAVNoiseParams@@@Z
pdata	ENDS
;	COMDAT pdata
pdata	SEGMENT
$pdata$?hybridMultiFractal@Fractal@@SAMVPoint3@@AEAVNoiseParams@@@Z DD imagerel $LN29
	DD	imagerel $LN29+528
	DD	imagerel $unwind$?hybridMultiFractal@Fractal@@SAMVPoint3@@AEAVNoiseParams@@@Z
pdata	ENDS
;	COMDAT pdata
pdata	SEGMENT
$pdata$?ridgedMultiFractal@Fractal@@SAMVPoint3@@AEAVNoiseParams@@@Z DD imagerel $LN31
	DD	imagerel $LN31+180
	DD	imagerel $unwind$?ridgedMultiFractal@Fractal@@SAMVPoint3@@AEAVNoiseParams@@@Z
pdata	ENDS
;	COMDAT pdata
pdata	SEGMENT
$pdata$2$?ridgedMultiFractal@Fractal@@SAMVPoint3@@AEAVNoiseParams@@@Z DD imagerel $LN31+180
	DD	imagerel $LN31+392
	DD	imagerel $chain$2$?ridgedMultiFractal@Fractal@@SAMVPoint3@@AEAVNoiseParams@@@Z
pdata	ENDS
;	COMDAT pdata
pdata	SEGMENT
$pdata$3$?ridgedMultiFractal@Fractal@@SAMVPoint3@@AEAVNoiseParams@@@Z DD imagerel $LN31+392
	DD	imagerel $LN31+442
	DD	imagerel $chain$3$?ridgedMultiFractal@Fractal@@SAMVPoint3@@AEAVNoiseParams@@@Z
pdata	ENDS
;	COMDAT pdata
pdata	SEGMENT
$pdata$?fractal@Fractal@@SAMVPoint3@@MAEAVNoiseParams@@@Z DD imagerel $LN20
	DD	imagerel $LN20+65
	DD	imagerel $unwind$?fractal@Fractal@@SAMVPoint3@@MAEAVNoiseParams@@@Z
pdata	ENDS
;	COMDAT pdata
pdata	SEGMENT
$pdata$0$?fractal@Fractal@@SAMVPoint3@@MAEAVNoiseParams@@@Z DD imagerel $LN20+65
	DD	imagerel $LN20+91
	DD	imagerel $chain$0$?fractal@Fractal@@SAMVPoint3@@MAEAVNoiseParams@@@Z
pdata	ENDS
;	COMDAT pdata
pdata	SEGMENT
$pdata$1$?fractal@Fractal@@SAMVPoint3@@MAEAVNoiseParams@@@Z DD imagerel $LN20+91
	DD	imagerel $LN20+192
	DD	imagerel $chain$1$?fractal@Fractal@@SAMVPoint3@@MAEAVNoiseParams@@@Z
pdata	ENDS
;	COMDAT pdata
pdata	SEGMENT
$pdata$2$?fractal@Fractal@@SAMVPoint3@@MAEAVNoiseParams@@@Z DD imagerel $LN20+192
	DD	imagerel $LN20+205
	DD	imagerel $chain$2$?fractal@Fractal@@SAMVPoint3@@MAEAVNoiseParams@@@Z
pdata	ENDS
;	COMDAT pdata
pdata	SEGMENT
$pdata$3$?fractal@Fractal@@SAMVPoint3@@MAEAVNoiseParams@@@Z DD imagerel $LN20+205
	DD	imagerel $LN20+327
	DD	imagerel $chain$3$?fractal@Fractal@@SAMVPoint3@@MAEAVNoiseParams@@@Z
pdata	ENDS
;	COMDAT pdata
pdata	SEGMENT
$pdata$?turbulence@Fractal@@SAMVPoint3@@MAEAVNoiseParams@@@Z DD imagerel $LN29
	DD	imagerel $LN29+60
	DD	imagerel $unwind$?turbulence@Fractal@@SAMVPoint3@@MAEAVNoiseParams@@@Z
pdata	ENDS
;	COMDAT pdata
pdata	SEGMENT
$pdata$1$?turbulence@Fractal@@SAMVPoint3@@MAEAVNoiseParams@@@Z DD imagerel $LN29+60
	DD	imagerel $LN29+104
	DD	imagerel $chain$1$?turbulence@Fractal@@SAMVPoint3@@MAEAVNoiseParams@@@Z
pdata	ENDS
;	COMDAT pdata
pdata	SEGMENT
$pdata$2$?turbulence@Fractal@@SAMVPoint3@@MAEAVNoiseParams@@@Z DD imagerel $LN29+104
	DD	imagerel $LN29+221
	DD	imagerel $chain$2$?turbulence@Fractal@@SAMVPoint3@@MAEAVNoiseParams@@@Z
pdata	ENDS
;	COMDAT pdata
pdata	SEGMENT
$pdata$3$?turbulence@Fractal@@SAMVPoint3@@MAEAVNoiseParams@@@Z DD imagerel $LN29+221
	DD	imagerel $LN29+240
	DD	imagerel $chain$3$?turbulence@Fractal@@SAMVPoint3@@MAEAVNoiseParams@@@Z
pdata	ENDS
;	COMDAT pdata
pdata	SEGMENT
$pdata$4$?turbulence@Fractal@@SAMVPoint3@@MAEAVNoiseParams@@@Z DD imagerel $LN29+240
	DD	imagerel $LN29+369
	DD	imagerel $chain$4$?turbulence@Fractal@@SAMVPoint3@@MAEAVNoiseParams@@@Z
pdata	ENDS
;	COMDAT pdata
pdata	SEGMENT
$pdata$?fBm@Fractal@@SAMVPoint3@@MAEAVNoiseParams@@@Z DD imagerel $LN23
	DD	imagerel $LN23+382
	DD	imagerel $unwind$?fBm@Fractal@@SAMVPoint3@@MAEAVNoiseParams@@@Z
pdata	ENDS
;	COMDAT pdata
pdata	SEGMENT
$pdata$?fBmTurb@Fractal@@SAMVPoint3@@MAEAVNoiseParams@@@Z DD imagerel $LN32
	DD	imagerel $LN32+423
	DD	imagerel $unwind$?fBmTurb@Fractal@@SAMVPoint3@@MAEAVNoiseParams@@@Z
pdata	ENDS
;	COMDAT pdata
pdata	SEGMENT
$pdata$?heteroTerrain@Fractal@@SAMVPoint3@@MAEAVNoiseParams@@@Z DD imagerel $LN27
	DD	imagerel $LN27+458
	DD	imagerel $unwind$?heteroTerrain@Fractal@@SAMVPoint3@@MAEAVNoiseParams@@@Z
pdata	ENDS
;	COMDAT pdata
pdata	SEGMENT
$pdata$?hybridMultiFractal@Fractal@@SAMVPoint3@@MAEAVNoiseParams@@@Z DD imagerel $LN29
	DD	imagerel $LN29+558
	DD	imagerel $unwind$?hybridMultiFractal@Fractal@@SAMVPoint3@@MAEAVNoiseParams@@@Z
pdata	ENDS
;	COMDAT pdata
pdata	SEGMENT
$pdata$?ridgedMultiFractal@Fractal@@SAMVPoint3@@MAEAVNoiseParams@@@Z DD imagerel $LN31
	DD	imagerel $LN31+192
	DD	imagerel $unwind$?ridgedMultiFractal@Fractal@@SAMVPoint3@@MAEAVNoiseParams@@@Z
pdata	ENDS
;	COMDAT pdata
pdata	SEGMENT
$pdata$2$?ridgedMultiFractal@Fractal@@SAMVPoint3@@MAEAVNoiseParams@@@Z DD imagerel $LN31+192
	DD	imagerel $LN31+419
	DD	imagerel $chain$2$?ridgedMultiFractal@Fractal@@SAMVPoint3@@MAEAVNoiseParams@@@Z
pdata	ENDS
;	COMDAT pdata
pdata	SEGMENT
$pdata$3$?ridgedMultiFractal@Fractal@@SAMVPoint3@@MAEAVNoiseParams@@@Z DD imagerel $LN31+419
	DD	imagerel $LN31+468
	DD	imagerel $chain$3$?ridgedMultiFractal@Fractal@@SAMVPoint3@@MAEAVNoiseParams@@@Z
pdata	ENDS
;	COMDAT pdata
pdata	SEGMENT
$pdata$?fBm@Fractal@@SAMVPoint3@@MMM@Z DD imagerel $LN19
	DD	imagerel $LN19+37
	DD	imagerel $unwind$?fBm@Fractal@@SAMVPoint3@@MMM@Z
pdata	ENDS
;	COMDAT pdata
pdata	SEGMENT
$pdata$2$?fBm@Fractal@@SAMVPoint3@@MMM@Z DD imagerel $LN19+37
	DD	imagerel $LN19+77
	DD	imagerel $chain$2$?fBm@Fractal@@SAMVPoint3@@MMM@Z
pdata	ENDS
;	COMDAT pdata
pdata	SEGMENT
$pdata$3$?fBm@Fractal@@SAMVPoint3@@MMM@Z DD imagerel $LN19+77
	DD	imagerel $LN19+104
	DD	imagerel $chain$3$?fBm@Fractal@@SAMVPoint3@@MMM@Z
pdata	ENDS
;	COMDAT pdata
pdata	SEGMENT
$pdata$4$?fBm@Fractal@@SAMVPoint3@@MMM@Z DD imagerel $LN19+104
	DD	imagerel $LN19+188
	DD	imagerel $chain$4$?fBm@Fractal@@SAMVPoint3@@MMM@Z
pdata	ENDS
;	COMDAT pdata
pdata	SEGMENT
$pdata$5$?fBm@Fractal@@SAMVPoint3@@MMM@Z DD imagerel $LN19+188
	DD	imagerel $LN19+201
	DD	imagerel $chain$5$?fBm@Fractal@@SAMVPoint3@@MMM@Z
pdata	ENDS
;	COMDAT pdata
pdata	SEGMENT
$pdata$6$?fBm@Fractal@@SAMVPoint3@@MMM@Z DD imagerel $LN19+201
	DD	imagerel $LN19+242
	DD	imagerel $chain$6$?fBm@Fractal@@SAMVPoint3@@MMM@Z
pdata	ENDS
;	COMDAT pdata
pdata	SEGMENT
$pdata$7$?fBm@Fractal@@SAMVPoint3@@MMM@Z DD imagerel $LN19+242
	DD	imagerel $LN19+319
	DD	imagerel $chain$7$?fBm@Fractal@@SAMVPoint3@@MMM@Z
pdata	ENDS
;	COMDAT pdata
pdata	SEGMENT
$pdata$?grain@Fractal@@SAMVPoint3@@MM@Z DD imagerel $LN8
	DD	imagerel $LN8+141
	DD	imagerel $unwind$?grain@Fractal@@SAMVPoint3@@MM@Z
pdata	ENDS
CRT$XCU	SEGMENT
?kInvalidId$initializer$@AssetManagement@MaxSDK@@3P6AXXZEA DQ FLAT:??__EkInvalidId@AssetManagement@MaxSDK@@YAXXZ ; MaxSDK::AssetManagement::kInvalidId$initializer$
CRT$XCU	ENDS
;	COMDAT __xmm@80000000800000008000000080000000
CONST	SEGMENT
__xmm@80000000800000008000000080000000 DB 00H, 00H, 00H, 080H, 00H, 00H, 00H
	DB	080H, 00H, 00H, 00H, 080H, 00H, 00H, 00H, 080H
CONST	ENDS
;	COMDAT __xmm@7fffffffffffffff7fffffffffffffff
CONST	SEGMENT
__xmm@7fffffffffffffff7fffffffffffffff DB 0ffH, 0ffH, 0ffH, 0ffH, 0ffH, 0ffH
	DB	0ffH, 07fH, 0ffH, 0ffH, 0ffH, 0ffH, 0ffH, 0ffH, 0ffH, 07fH
CONST	ENDS
;	COMDAT __real@bf800000
CONST	SEGMENT
__real@bf800000 DD 0bf800000r			; -1
CONST	ENDS
;	COMDAT __real@40800000
CONST	SEGMENT
__real@40800000 DD 040800000r			; 4
CONST	ENDS
;	COMDAT __real@40000000
CONST	SEGMENT
__real@40000000 DD 040000000r			; 2
CONST	ENDS
;	COMDAT __real@3f800000
CONST	SEGMENT
__real@3f800000 DD 03f800000r			; 1
CONST	ENDS
;	COMDAT __real@3f50624dd2f1a9fc
CONST	SEGMENT
__real@3f50624dd2f1a9fc DQ 03f50624dd2f1a9fcr	; 0.001
CONST	ENDS
;	COMDAT __real@3f000000
CONST	SEGMENT
__real@3f000000 DD 03f000000r			; 0.5
CONST	ENDS
;	COMDAT __real@3d4ccccd
CONST	SEGMENT
__real@3d4ccccd DD 03d4ccccdr			; 0.05
CONST	ENDS
_DATA	SEGMENT
?kTriObjNormalXTCID@@3VClass_ID@@B DD 0730a33d7H	; kTriObjNormalXTCID
	DD	027246c55H
_DATA	ENDS
;	COMDAT xdata
xdata	SEGMENT
$unwind$?grain@Fractal@@SAMVPoint3@@MM@Z DD 033701H
	DD	037837H
	DD	08204H
xdata	ENDS
;	COMDAT xdata
xdata	SEGMENT
$chain$7$?fBm@Fractal@@SAMVPoint3@@MMM@Z DD 021H
	DD	imagerel $LN19
	DD	imagerel $LN19+37
	DD	imagerel $unwind$?fBm@Fractal@@SAMVPoint3@@MMM@Z
xdata	ENDS
;	COMDAT xdata
xdata	SEGMENT
$chain$6$?fBm@Fractal@@SAMVPoint3@@MMM@Z DD 021H
	DD	imagerel $LN19+37
	DD	imagerel $LN19+77
	DD	imagerel $chain$2$?fBm@Fractal@@SAMVPoint3@@MMM@Z
xdata	ENDS
;	COMDAT xdata
xdata	SEGMENT
$chain$5$?fBm@Fractal@@SAMVPoint3@@MMM@Z DD 021H
	DD	imagerel $LN19+77
	DD	imagerel $LN19+104
	DD	imagerel $chain$3$?fBm@Fractal@@SAMVPoint3@@MMM@Z
xdata	ENDS
;	COMDAT xdata
xdata	SEGMENT
$chain$4$?fBm@Fractal@@SAMVPoint3@@MMM@Z DD 020821H
	DD	0136408H
	DD	imagerel $LN19+77
	DD	imagerel $LN19+104
	DD	imagerel $chain$3$?fBm@Fractal@@SAMVPoint3@@MMM@Z
xdata	ENDS
;	COMDAT xdata
xdata	SEGMENT
$chain$3$?fBm@Fractal@@SAMVPoint3@@MMM@Z DD 020521H
	DD	02b805H
	DD	imagerel $LN19+37
	DD	imagerel $LN19+77
	DD	imagerel $chain$2$?fBm@Fractal@@SAMVPoint3@@MMM@Z
xdata	ENDS
;	COMDAT xdata
xdata	SEGMENT
$chain$2$?fBm@Fractal@@SAMVPoint3@@MMM@Z DD 060e21H
	DD	03a80eH
	DD	049809H
	DD	0147404H
	DD	imagerel $LN19
	DD	imagerel $LN19+37
	DD	imagerel $unwind$?fBm@Fractal@@SAMVPoint3@@MMM@Z
xdata	ENDS
;	COMDAT xdata
xdata	SEGMENT
$unwind$?fBm@Fractal@@SAMVPoint3@@MMM@Z DD 082501H
	DD	058825H
	DD	067818H
	DD	076810H
	DD	03004f20bH
xdata	ENDS
;	COMDAT xdata
xdata	SEGMENT
$chain$3$?ridgedMultiFractal@Fractal@@SAMVPoint3@@MAEAVNoiseParams@@@Z DD 021H
	DD	imagerel $LN31
	DD	imagerel $LN31+192
	DD	imagerel $unwind$?ridgedMultiFractal@Fractal@@SAMVPoint3@@MAEAVNoiseParams@@@Z
xdata	ENDS
;	COMDAT xdata
xdata	SEGMENT
$chain$2$?ridgedMultiFractal@Fractal@@SAMVPoint3@@MAEAVNoiseParams@@@Z DD 062021H
	DD	05b820H
	DD	088812H
	DD	0a6809H
	DD	imagerel $LN31
	DD	imagerel $LN31+192
	DD	imagerel $unwind$?ridgedMultiFractal@Fractal@@SAMVPoint3@@MAEAVNoiseParams@@@Z
xdata	ENDS
;	COMDAT xdata
xdata	SEGMENT
$unwind$?ridgedMultiFractal@Fractal@@SAMVPoint3@@MAEAVNoiseParams@@@Z DD 0f4a01H
	DD	03d84aH
	DD	04c844H
	DD	06a83eH
	DD	079823H
	DD	09781aH
	DD	016010bH
	DD	060037004H
	DD	03002H
xdata	ENDS
;	COMDAT xdata
xdata	SEGMENT
$unwind$?hybridMultiFractal@Fractal@@SAMVPoint3@@MAEAVNoiseParams@@@Z DD 0134f01H
	DD	03c84fH
	DD	04b849H
	DD	05a832H
	DD	06982dH
	DD	078828H
	DD	087820H
	DD	096818H
	DD	014010dH
	DD	060057006H
	DD	03004H
xdata	ENDS
;	COMDAT xdata
xdata	SEGMENT
$unwind$?heteroTerrain@Fractal@@SAMVPoint3@@MAEAVNoiseParams@@@Z DD 0c3e01H
	DD	03983eH
	DD	048838H
	DD	05782fH
	DD	066814H
	DD	07004d208H
	DD	030026003H
xdata	ENDS
;	COMDAT xdata
xdata	SEGMENT
$unwind$?fBmTurb@Fractal@@SAMVPoint3@@MAEAVNoiseParams@@@Z DD 0115b01H
	DD	03b85bH
	DD	04a83aH
	DD	059835H
	DD	068828H
	DD	077820H
	DD	086818H
	DD	012010dH
	DD	060057006H
	DD	03004H
xdata	ENDS
;	COMDAT xdata
xdata	SEGMENT
$unwind$?fBm@Fractal@@SAMVPoint3@@MAEAVNoiseParams@@@Z DD 0e4f01H
	DD	03a84fH
	DD	049849H
	DD	058829H
	DD	067820H
	DD	076817H
	DD	07004f20bH
	DD	030026003H
xdata	ENDS
;	COMDAT xdata
xdata	SEGMENT
$chain$4$?turbulence@Fractal@@SAMVPoint3@@MAEAVNoiseParams@@@Z DD 021H
	DD	imagerel $LN29
	DD	imagerel $LN29+60
	DD	imagerel $unwind$?turbulence@Fractal@@SAMVPoint3@@MAEAVNoiseParams@@@Z
xdata	ENDS
;	COMDAT xdata
xdata	SEGMENT
$chain$3$?turbulence@Fractal@@SAMVPoint3@@MAEAVNoiseParams@@@Z DD 021H
	DD	imagerel $LN29+60
	DD	imagerel $LN29+104
	DD	imagerel $chain$1$?turbulence@Fractal@@SAMVPoint3@@MAEAVNoiseParams@@@Z
xdata	ENDS
;	COMDAT xdata
xdata	SEGMENT
$chain$2$?turbulence@Fractal@@SAMVPoint3@@MAEAVNoiseParams@@@Z DD 020621H
	DD	03d806H
	DD	imagerel $LN29+60
	DD	imagerel $LN29+104
	DD	imagerel $chain$1$?turbulence@Fractal@@SAMVPoint3@@MAEAVNoiseParams@@@Z
xdata	ENDS
;	COMDAT xdata
xdata	SEGMENT
$chain$1$?turbulence@Fractal@@SAMVPoint3@@MAEAVNoiseParams@@@Z DD 041721H
	DD	06a817H
	DD	079805H
	DD	imagerel $LN29
	DD	imagerel $LN29+60
	DD	imagerel $unwind$?turbulence@Fractal@@SAMVPoint3@@MAEAVNoiseParams@@@Z
xdata	ENDS
;	COMDAT xdata
xdata	SEGMENT
$unwind$?turbulence@Fractal@@SAMVPoint3@@MAEAVNoiseParams@@@Z DD 0f3401H
	DD	04c834H
	DD	05b82fH
	DD	08882aH
	DD	09781cH
	DD	0a6814H
	DD	018340fH
	DD	016010fH
	DD	07008H
xdata	ENDS
;	COMDAT xdata
xdata	SEGMENT
$chain$3$?fractal@Fractal@@SAMVPoint3@@MAEAVNoiseParams@@@Z DD 021H
	DD	imagerel $LN20
	DD	imagerel $LN20+65
	DD	imagerel $unwind$?fractal@Fractal@@SAMVPoint3@@MAEAVNoiseParams@@@Z
xdata	ENDS
;	COMDAT xdata
xdata	SEGMENT
$chain$2$?fractal@Fractal@@SAMVPoint3@@MAEAVNoiseParams@@@Z DD 021H
	DD	imagerel $LN20+65
	DD	imagerel $LN20+91
	DD	imagerel $chain$0$?fractal@Fractal@@SAMVPoint3@@MAEAVNoiseParams@@@Z
xdata	ENDS
;	COMDAT xdata
xdata	SEGMENT
$chain$1$?fractal@Fractal@@SAMVPoint3@@MAEAVNoiseParams@@@Z DD 020521H
	DD	03c805H
	DD	imagerel $LN20+65
	DD	imagerel $LN20+91
	DD	imagerel $chain$0$?fractal@Fractal@@SAMVPoint3@@MAEAVNoiseParams@@@Z
xdata	ENDS
;	COMDAT xdata
xdata	SEGMENT
$chain$0$?fractal@Fractal@@SAMVPoint3@@MAEAVNoiseParams@@@Z DD 020521H
	DD	05a805H
	DD	imagerel $LN20
	DD	imagerel $LN20+65
	DD	imagerel $unwind$?fractal@Fractal@@SAMVPoint3@@MAEAVNoiseParams@@@Z
xdata	ENDS
;	COMDAT xdata
xdata	SEGMENT
$unwind$?fractal@Fractal@@SAMVPoint3@@MAEAVNoiseParams@@@Z DD 0f4101H
	DD	04b841H
	DD	06982fH
	DD	07882aH
	DD	08781cH
	DD	096814H
	DD	016340fH
	DD	014010fH
	DD	07008H
xdata	ENDS
;	COMDAT xdata
xdata	SEGMENT
$chain$3$?ridgedMultiFractal@Fractal@@SAMVPoint3@@AEAVNoiseParams@@@Z DD 021H
	DD	imagerel $LN31
	DD	imagerel $LN31+180
	DD	imagerel $unwind$?ridgedMultiFractal@Fractal@@SAMVPoint3@@AEAVNoiseParams@@@Z
xdata	ENDS
;	COMDAT xdata
xdata	SEGMENT
$chain$2$?ridgedMultiFractal@Fractal@@SAMVPoint3@@AEAVNoiseParams@@@Z DD 062021H
	DD	069820H
	DD	087812H
	DD	096809H
	DD	imagerel $LN31
	DD	imagerel $LN31+180
	DD	imagerel $unwind$?ridgedMultiFractal@Fractal@@SAMVPoint3@@AEAVNoiseParams@@@Z
xdata	ENDS
;	COMDAT xdata
xdata	SEGMENT
$unwind$?ridgedMultiFractal@Fractal@@SAMVPoint3@@AEAVNoiseParams@@@Z DD 0f4201H
	DD	03c842H
	DD	04b83cH
	DD	05a833H
	DD	07882aH
	DD	0196412H
	DD	0183412H
	DD	0140112H
	DD	0700bH
xdata	ENDS
;	COMDAT xdata
xdata	SEGMENT
$unwind$?hybridMultiFractal@Fractal@@SAMVPoint3@@AEAVNoiseParams@@@Z DD 0134901H
	DD	03b849H
	DD	04a844H
	DD	05983fH
	DD	06883aH
	DD	077832H
	DD	08682aH
	DD	0176413H
	DD	0163413H
	DD	0120113H
	DD	0700cH
xdata	ENDS
;	COMDAT xdata
xdata	SEGMENT
$unwind$?heteroTerrain@Fractal@@SAMVPoint3@@AEAVNoiseParams@@@Z DD 0c3901H
	DD	038839H
	DD	047830H
	DD	056827H
	DD	011640fH
	DD	010340fH
	DD	0700bb20fH
xdata	ENDS
;	COMDAT xdata
xdata	SEGMENT
$unwind$?fBmTurb@Fractal@@SAMVPoint3@@AEAVNoiseParams@@@Z DD 0105601H
	DD	03a856H
	DD	049847H
	DD	058842H
	DD	067832H
	DD	07682aH
	DD	0156413H
	DD	0143413H
	DD	0700cf213H
xdata	ENDS
;	COMDAT xdata
xdata	SEGMENT
$unwind$?fBm@Fractal@@SAMVPoint3@@AEAVNoiseParams@@@Z DD 0e4701H
	DD	039847H
	DD	048841H
	DD	057830H
	DD	066827H
	DD	013640fH
	DD	012340fH
	DD	0700bd20fH
xdata	ENDS
;	COMDAT xdata
xdata	SEGMENT
$chain$4$?turbulence@Fractal@@SAMVPoint3@@AEAVNoiseParams@@@Z DD 021H
	DD	imagerel $LN29
	DD	imagerel $LN29+54
	DD	imagerel $unwind$?turbulence@Fractal@@SAMVPoint3@@AEAVNoiseParams@@@Z
xdata	ENDS
;	COMDAT xdata
xdata	SEGMENT
$chain$3$?turbulence@Fractal@@SAMVPoint3@@AEAVNoiseParams@@@Z DD 021H
	DD	imagerel $LN29+54
	DD	imagerel $LN29+94
	DD	imagerel $chain$1$?turbulence@Fractal@@SAMVPoint3@@AEAVNoiseParams@@@Z
xdata	ENDS
;	COMDAT xdata
xdata	SEGMENT
$chain$2$?turbulence@Fractal@@SAMVPoint3@@AEAVNoiseParams@@@Z DD 020521H
	DD	03c805H
	DD	imagerel $LN29+54
	DD	imagerel $LN29+94
	DD	imagerel $chain$1$?turbulence@Fractal@@SAMVPoint3@@AEAVNoiseParams@@@Z
xdata	ENDS
;	COMDAT xdata
xdata	SEGMENT
$chain$1$?turbulence@Fractal@@SAMVPoint3@@AEAVNoiseParams@@@Z DD 041721H
	DD	05a817H
	DD	069805H
	DD	imagerel $LN29
	DD	imagerel $LN29+54
	DD	imagerel $unwind$?turbulence@Fractal@@SAMVPoint3@@AEAVNoiseParams@@@Z
xdata	ENDS
;	COMDAT xdata
xdata	SEGMENT
$unwind$?turbulence@Fractal@@SAMVPoint3@@AEAVNoiseParams@@@Z DD 0d2e01H
	DD	04b82eH
	DD	078829H
	DD	08781cH
	DD	096814H
	DD	016340fH
	DD	014010fH
	DD	07008H
xdata	ENDS
;	COMDAT xdata
xdata	SEGMENT
$chain$3$?fractal@Fractal@@SAMVPoint3@@AEAVNoiseParams@@@Z DD 021H
	DD	imagerel $LN20
	DD	imagerel $LN20+59
	DD	imagerel $unwind$?fractal@Fractal@@SAMVPoint3@@AEAVNoiseParams@@@Z
xdata	ENDS
;	COMDAT xdata
xdata	SEGMENT
$chain$2$?fractal@Fractal@@SAMVPoint3@@AEAVNoiseParams@@@Z DD 021H
	DD	imagerel $LN20+59
	DD	imagerel $LN20+81
	DD	imagerel $chain$0$?fractal@Fractal@@SAMVPoint3@@AEAVNoiseParams@@@Z
xdata	ENDS
;	COMDAT xdata
xdata	SEGMENT
$chain$1$?fractal@Fractal@@SAMVPoint3@@AEAVNoiseParams@@@Z DD 020521H
	DD	03b805H
	DD	imagerel $LN20+59
	DD	imagerel $LN20+81
	DD	imagerel $chain$0$?fractal@Fractal@@SAMVPoint3@@AEAVNoiseParams@@@Z
xdata	ENDS
;	COMDAT xdata
xdata	SEGMENT
$chain$0$?fractal@Fractal@@SAMVPoint3@@AEAVNoiseParams@@@Z DD 020521H
	DD	04a805H
	DD	imagerel $LN20
	DD	imagerel $LN20+59
	DD	imagerel $unwind$?fractal@Fractal@@SAMVPoint3@@AEAVNoiseParams@@@Z
xdata	ENDS
;	COMDAT xdata
xdata	SEGMENT
$unwind$?fractal@Fractal@@SAMVPoint3@@AEAVNoiseParams@@@Z DD 0d2e01H
	DD	05982eH
	DD	068829H
	DD	07781cH
	DD	086814H
	DD	014340fH
	DD	012010fH
	DD	07008H
xdata	ENDS
;	COMDAT xdata
xdata	SEGMENT
$unwind$?pow@@YAMMM@Z DD 010401H
	DD	04204H
xdata	ENDS
;	COMDAT xdata
xdata	SEGMENT
$unwind$??_H@YAXPEAX_K1P6APEAX0@Z@Z DD 081901H
	DD	086419H
	DD	075419H
	DD	063419H
	DD	070153219H
xdata	ENDS
; Function compile flags: /Ogtpy
; File g:\dropbox\github\berconmaps\src\fractal.cpp
; File c:\program files\autodesk\3ds max 2019 sdk\maxsdk\include\point3.h
; File g:\dropbox\github\berconmaps\src\fractal.cpp
; File c:\program files\autodesk\3ds max 2019 sdk\maxsdk\include\point3.h
; File g:\dropbox\github\berconmaps\src\fractal.cpp
; File c:\program files\autodesk\3ds max 2019 sdk\maxsdk\include\point3.h
; File g:\dropbox\github\berconmaps\src\fractal.cpp
; File c:\program files\autodesk\3ds max 2019 sdk\maxsdk\include\point3.h
; File g:\dropbox\github\berconmaps\src\fractal.cpp
;	COMDAT ?grain@Fractal@@SAMVPoint3@@MM@Z
_TEXT	SEGMENT
$T1 = 32
p$ = 80
amount$ = 88
freq$ = 96
?grain@Fractal@@SAMVPoint3@@MM@Z PROC			; Fractal::grain, COMDAT

; 308  : float Fractal::grain(Point3 p, float amount, float freq) {

$LN8:
	sub	rsp, 72					; 00000048H
; File c:\program files\autodesk\3ds max 2019 sdk\maxsdk\include\point3.h

; 271  :    x *= f;   y *= f; z *= f;

	vmulss	xmm3, xmm2, DWORD PTR [rcx+4]
	vmulss	xmm0, xmm2, DWORD PTR [rcx+8]
	vmulss	xmm4, xmm2, DWORD PTR [rcx]
; File g:\dropbox\github\berconmaps\src\fractal.cpp

; 311  : 		float g = (fBm(p, 4.f, 2.f, .5f)+1.f)*.5f;

	vmovss	xmm2, DWORD PTR __real@40000000
; File c:\program files\autodesk\3ds max 2019 sdk\maxsdk\include\point3.h

; 271  :    x *= f;   y *= f; z *= f;

	vmovss	DWORD PTR [rcx+4], xmm3
	vmovss	DWORD PTR [rcx], xmm4

; 73   : 		 x = a.x; y = a.y; z = a.z; 

	vmovss	DWORD PTR $T1[rsp+4], xmm3
; File g:\dropbox\github\berconmaps\src\fractal.cpp

; 311  : 		float g = (fBm(p, 4.f, 2.f, .5f)+1.f)*.5f;

	vmovss	xmm3, DWORD PTR __real@3f000000
	vmovaps	XMMWORD PTR [rsp+48], xmm7
	vmovaps	xmm7, xmm1
	vmulss	xmm1, xmm0, DWORD PTR __real@3d4ccccd
	vmovss	DWORD PTR [rcx+8], xmm1
; File c:\program files\autodesk\3ds max 2019 sdk\maxsdk\include\point3.h

; 73   : 		 x = a.x; y = a.y; z = a.z; 

	vmovss	DWORD PTR $T1[rsp+8], xmm1
; File g:\dropbox\github\berconmaps\src\fractal.cpp

; 311  : 		float g = (fBm(p, 4.f, 2.f, .5f)+1.f)*.5f;

	vmovss	xmm1, DWORD PTR __real@40800000
	lea	rcx, QWORD PTR $T1[rsp]
; File c:\program files\autodesk\3ds max 2019 sdk\maxsdk\include\point3.h

; 73   : 		 x = a.x; y = a.y; z = a.z; 

	vmovss	DWORD PTR $T1[rsp], xmm4
; File g:\dropbox\github\berconmaps\src\fractal.cpp

; 311  : 		float g = (fBm(p, 4.f, 2.f, .5f)+1.f)*.5f;

	call	?fBm@Fractal@@SAMVPoint3@@MMM@Z		; Fractal::fBm
	vmovss	xmm2, DWORD PTR __real@3f800000
	vaddss	xmm0, xmm0, xmm2
	vmulss	xmm0, xmm0, DWORD PTR __real@3f000000

; 312  : 		return smooth(g, (1.f-amount), 1.f);;

	vsubss	xmm1, xmm2, xmm7

; 313  : }

	vmovaps	xmm7, XMMWORD PTR [rsp+48]
	add	rsp, 72					; 00000048H

; 312  : 		return smooth(g, (1.f-amount), 1.f);;

	jmp	?smooth@@YAMMMM@Z			; smooth
?grain@Fractal@@SAMVPoint3@@MM@Z ENDP			; Fractal::grain
_TEXT	ENDS
; Function compile flags: /Ogtpy
; File g:\dropbox\github\berconmaps\src\fractal.cpp
; File c:\program files (x86)\microsoft visual studio 14.0\vc\include\cmath
; File g:\dropbox\github\berconmaps\src\fractal.cpp
; File c:\program files (x86)\microsoft visual studio 14.0\vc\include\cmath
; File g:\dropbox\github\berconmaps\src\fractal.cpp
; File c:\program files (x86)\microsoft visual studio 14.0\vc\include\cmath
; File g:\dropbox\github\berconmaps\src\fractal.cpp
; File c:\program files\autodesk\3ds max 2019 sdk\maxsdk\include\point3.h
; File g:\dropbox\github\berconmaps\src\fractal.cpp
; File c:\program files\autodesk\3ds max 2019 sdk\maxsdk\include\point3.h
; File g:\dropbox\github\berconmaps\src\fractal.cpp
;	COMDAT ?fBm@Fractal@@SAMVPoint3@@MMM@Z
_TEXT	SEGMENT
p$ = 144
levels$ = 152
lacunarity$ = 160
H$ = 168
?fBm@Fractal@@SAMVPoint3@@MMM@Z PROC			; Fractal::fBm, COMDAT

; 290  : float Fractal::fBm(Point3 p, float levels, float lacunarity, float H) {

$LN19:
	mov	rax, rsp
	push	rbx
	sub	rsp, 128				; 00000080H
	vmovaps	XMMWORD PTR [rax-24], xmm6
	mov	rbx, rcx
	vmovaps	XMMWORD PTR [rax-40], xmm7

; 292  : 	float pwr = 1.0f;

	vmovss	xmm7, DWORD PTR __real@3f800000
	vmovaps	XMMWORD PTR [rax-56], xmm8
	mov	QWORD PTR [rax+24], rdi
	vmovaps	XMMWORD PTR [rax-72], xmm9
	vmovaps	XMMWORD PTR [rax-88], xmm10
	vmovaps	xmm9, xmm1

; 293  : 	float pwHL = pow(lacunarity, -H);	

	vxorps	xmm1, xmm3, DWORD PTR __xmm@80000000800000008000000080000000
	vxorps	xmm10, xmm10, xmm10
; File c:\program files (x86)\microsoft visual studio 14.0\vc\include\cmath

; 251  : 	return (_CSTD powf(_Xx, _Yx));

	vmovaps	xmm0, xmm2
; File g:\dropbox\github\berconmaps\src\fractal.cpp

; 291  : 	float sum = 0.0f;

	vmovaps	xmm6, xmm10
	vmovaps	XMMWORD PTR [rax-104], xmm11
	vmovaps	xmm8, xmm2
; File c:\program files (x86)\microsoft visual studio 14.0\vc\include\cmath

; 251  : 	return (_CSTD powf(_Xx, _Yx));

	call	powf
; File g:\dropbox\github\berconmaps\src\fractal.cpp

; 295  : 	for (int i=0; i<(int)levels; i++) {

	vcvttss2si edi, xmm9
; File c:\program files (x86)\microsoft visual studio 14.0\vc\include\cmath

; 251  : 	return (_CSTD powf(_Xx, _Yx));

	vmovaps	xmm11, xmm0
; File g:\dropbox\github\berconmaps\src\fractal.cpp

; 295  : 	for (int i=0; i<(int)levels; i++) {

	test	edi, edi
	jle	SHORT $LN3@fBm
	mov	QWORD PTR [rsp+152], rsi
	mov	esi, edi
$LL4@fBm:

; 296  : 		sum += Perlin::noise(p.x, p.y, p.z) * pwr;

	vmovss	xmm2, DWORD PTR [rbx+8]
	vmovss	xmm1, DWORD PTR [rbx+4]
	vmovss	xmm0, DWORD PTR [rbx]
	call	?noise@Perlin@@SAMMMM@Z			; Perlin::noise
	vmulss	xmm1, xmm0, xmm7
; File c:\program files\autodesk\3ds max 2019 sdk\maxsdk\include\point3.h

; 271  :    x *= f;   y *= f; z *= f;

	vmulss	xmm0, xmm8, DWORD PTR [rbx]
	vmovss	DWORD PTR [rbx], xmm0
	vmulss	xmm0, xmm8, DWORD PTR [rbx+8]
; File g:\dropbox\github\berconmaps\src\fractal.cpp

; 296  : 		sum += Perlin::noise(p.x, p.y, p.z) * pwr;

	vaddss	xmm6, xmm6, xmm1
; File c:\program files\autodesk\3ds max 2019 sdk\maxsdk\include\point3.h

; 271  :    x *= f;   y *= f; z *= f;

	vmulss	xmm1, xmm8, DWORD PTR [rbx+4]
	vmovss	DWORD PTR [rbx+8], xmm0
	vmovss	DWORD PTR [rbx+4], xmm1
; File g:\dropbox\github\berconmaps\src\fractal.cpp

; 297  : 		pwr *= pwHL;

	vmulss	xmm7, xmm7, xmm11
	sub	rsi, 1
	jne	SHORT $LL4@fBm
	mov	rsi, QWORD PTR [rsp+152]
$LN3@fBm:

; 298  : 		p *= lacunarity;
; 299  : 	}
; 300  : 
; 301  : 	float rmd = levels - FASTFLOOR(levels);

	vcomiss	xmm10, xmm9
	vmovaps	xmm11, XMMWORD PTR [rsp+32]
	jbe	SHORT $LN7@fBm
	dec	edi
$LN7@fBm:
	vxorps	xmm1, xmm1, xmm1
	vcvtsi2ss xmm1, xmm1, edi
	mov	rdi, QWORD PTR [rsp+160]
	vsubss	xmm8, xmm9, xmm1
	vmovaps	xmm9, XMMWORD PTR [rsp+64]

; 302  : 	if (rmd!=0.f) sum += rmd * Perlin::noise(p.x, p.y, p.z) * pwr;

	vucomiss xmm8, xmm10
	vmovaps	xmm10, XMMWORD PTR [rsp+48]
	jp	SHORT $LN17@fBm
	je	SHORT $LN5@fBm
$LN17@fBm:
	vmovss	xmm2, DWORD PTR [rbx+8]
	vmovss	xmm1, DWORD PTR [rbx+4]
	vmovss	xmm0, DWORD PTR [rbx]
	call	?noise@Perlin@@SAMMMM@Z			; Perlin::noise
	vmulss	xmm1, xmm0, xmm8
	vmulss	xmm2, xmm1, xmm7
	vaddss	xmm6, xmm6, xmm2
$LN5@fBm:

; 303  : 
; 304  : 	return (sum+1.f)*.5f;

	vaddss	xmm0, xmm6, DWORD PTR __real@3f800000
	vmulss	xmm0, xmm0, DWORD PTR __real@3f000000

; 305  : }

	vmovaps	xmm6, XMMWORD PTR [rsp+112]
	vmovaps	xmm7, XMMWORD PTR [rsp+96]
	vmovaps	xmm8, XMMWORD PTR [rsp+80]
	add	rsp, 128				; 00000080H
	pop	rbx
	ret	0
?fBm@Fractal@@SAMVPoint3@@MMM@Z ENDP			; Fractal::fBm
_TEXT	ENDS
; Function compile flags: /Ogtpy
; File g:\dropbox\github\berconmaps\src\fractal.cpp
; File c:\program files (x86)\microsoft visual studio 14.0\vc\include\cmath
; File c:\program files\autodesk\3ds max 2019 sdk\maxsdk\include\point3.h
; File g:\dropbox\github\berconmaps\src\fractal.cpp
; File c:\program files\autodesk\3ds max 2019 sdk\maxsdk\include\point3.h
; File c:\program files (x86)\microsoft visual studio 14.0\vc\include\cmath
; File g:\dropbox\github\berconmaps\src\fractal.cpp
; File c:\program files (x86)\windows kits\10\include\10.0.10586.0\ucrt\math.h
; File g:\dropbox\github\berconmaps\src\fractal.cpp
; File c:\program files (x86)\windows kits\10\include\10.0.10586.0\ucrt\math.h
; File g:\dropbox\github\berconmaps\src\fractal.cpp
; File c:\program files (x86)\windows kits\10\include\10.0.10586.0\ucrt\math.h
; File g:\dropbox\github\berconmaps\src\fractal.cpp
; File c:\program files\autodesk\3ds max 2019 sdk\maxsdk\include\point3.h
; File g:\dropbox\github\berconmaps\src\fractal.cpp
; File c:\program files\autodesk\3ds max 2019 sdk\maxsdk\include\point3.h
; File g:\dropbox\github\berconmaps\src\fractal.cpp
; File c:\program files\autodesk\3ds max 2019 sdk\maxsdk\include\point3.h
; File g:\dropbox\github\berconmaps\src\fractal.cpp
; File c:\program files (x86)\windows kits\10\include\10.0.10586.0\ucrt\math.h
; File g:\dropbox\github\berconmaps\src\fractal.cpp
;	COMDAT ?ridgedMultiFractal@Fractal@@SAMVPoint3@@MAEAVNoiseParams@@@Z
_TEXT	SEGMENT
$T1 = 32
$T2 = 32
p$ = 208
d$ = 216
np$ = 224
?ridgedMultiFractal@Fractal@@SAMVPoint3@@MAEAVNoiseParams@@@Z PROC ; Fractal::ridgedMultiFractal, COMDAT

; 262  : float Fractal::ridgedMultiFractal(Point3 p, float d, NoiseParams& np) {

$LN31:
	push	rbx
	push	rsi
	push	rdi
	sub	rsp, 176				; 000000b0H

; 263  : 	float sum = 0.0f;
; 264  : 	float pwHL = pow(np.lacunarity, -np.H);	

	vmovss	xmm0, DWORD PTR [r8+40]
	vmovaps	XMMWORD PTR [rsp+144], xmm7
	mov	rdi, r8
	vmovaps	XMMWORD PTR [rsp+112], xmm9
	mov	rbx, rcx
	vmovaps	xmm7, xmm1
	vxorps	xmm1, xmm0, DWORD PTR __xmm@80000000800000008000000080000000
; File c:\program files (x86)\microsoft visual studio 14.0\vc\include\cmath

; 251  : 	return (_CSTD powf(_Xx, _Yx));

	vmovss	xmm0, DWORD PTR [r8+44]
	vmovaps	XMMWORD PTR [rsp+96], xmm10
	vmovaps	XMMWORD PTR [rsp+64], xmm12
	vmovaps	XMMWORD PTR [rsp+48], xmm13
	call	powf
; File c:\program files\autodesk\3ds max 2019 sdk\maxsdk\include\point3.h

; 73   : 		 x = a.x; y = a.y; z = a.z; 

	vmovss	xmm1, DWORD PTR [rbx]
	vmovss	xmm2, DWORD PTR [rbx+4]
	vmovss	DWORD PTR $T1[rsp], xmm1
	vmovss	xmm1, DWORD PTR [rbx+8]
	vmovss	DWORD PTR $T1[rsp+8], xmm1
; File g:\dropbox\github\berconmaps\src\fractal.cpp

; 269  : 	signal = np.offset - fabs(Noise::noise(p, d, np));

	vmovaps	xmm1, xmm7
	mov	r8, rdi
	lea	rcx, QWORD PTR $T1[rsp]
; File c:\program files\autodesk\3ds max 2019 sdk\maxsdk\include\point3.h

; 73   : 		 x = a.x; y = a.y; z = a.z; 

	vmovss	DWORD PTR $T1[rsp+4], xmm2
; File c:\program files (x86)\microsoft visual studio 14.0\vc\include\cmath

; 251  : 	return (_CSTD powf(_Xx, _Yx));

	vmovaps	xmm12, xmm0
; File g:\dropbox\github\berconmaps\src\fractal.cpp

; 265  : 	float pwr = pwHL;

	vmovaps	xmm10, xmm0

; 269  : 	signal = np.offset - fabs(Noise::noise(p, d, np));

	call	?noise@Noise@@SAMVPoint3@@MAEAVNoiseParams@@@Z ; Noise::noise
; File c:\program files (x86)\windows kits\10\include\10.0.10586.0\ucrt\math.h

; 671  :         return (float)fabs(_X);

	vmovsd	xmm13, QWORD PTR __xmm@7fffffffffffffff7fffffffffffffff
; File g:\dropbox\github\berconmaps\src\fractal.cpp

; 274  : 	for(int i=1; i<(int)np.levels; i++ ) {

	vcvttss2si eax, DWORD PTR [rdi+36]
; File c:\program files (x86)\windows kits\10\include\10.0.10586.0\ucrt\math.h

; 671  :         return (float)fabs(_X);

	vcvtss2sd xmm1, xmm0, xmm0
; File g:\dropbox\github\berconmaps\src\fractal.cpp

; 269  : 	signal = np.offset - fabs(Noise::noise(p, d, np));

	vmovss	xmm0, DWORD PTR [rdi+48]
; File c:\program files (x86)\windows kits\10\include\10.0.10586.0\ucrt\math.h

; 671  :         return (float)fabs(_X);

	vandpd	xmm1, xmm1, xmm13
	vcvtsd2ss xmm1, xmm1, xmm1
; File g:\dropbox\github\berconmaps\src\fractal.cpp

; 269  : 	signal = np.offset - fabs(Noise::noise(p, d, np));

	vsubss	xmm1, xmm0, xmm1

; 274  : 	for(int i=1; i<(int)np.levels; i++ ) {

	mov	esi, 1
	vmulss	xmm4, xmm1, xmm1
	vmovaps	xmm9, xmm4
	cmp	eax, esi
	jle	$LN29@ridgedMult
	vmovaps	XMMWORD PTR [rsp+160], xmm6
	vmovaps	XMMWORD PTR [rsp+128], xmm8
	vmovss	xmm8, DWORD PTR __real@3f800000
	vmovaps	XMMWORD PTR [rsp+80], xmm11
	vxorps	xmm11, xmm11, xmm11
	npad	11
$LL4@ridgedMult:

; 275  : 		p *= np.lacunarity;

	vmovss	xmm0, DWORD PTR [rdi+44]
; File c:\program files\autodesk\3ds max 2019 sdk\maxsdk\include\point3.h

; 271  :    x *= f;   y *= f; z *= f;

	vmulss	xmm1, xmm0, DWORD PTR [rbx]
	vmulss	xmm2, xmm0, DWORD PTR [rbx+4]
	vmulss	xmm3, xmm0, DWORD PTR [rbx+8]
	vmovss	DWORD PTR [rbx], xmm1
	vmovss	DWORD PTR [rbx+4], xmm2
	vmovss	DWORD PTR [rbx+8], xmm3
; File g:\dropbox\github\berconmaps\src\fractal.cpp

; 277  : 		weight = signal * np.gain;

	vmulss	xmm0, xmm4, DWORD PTR [rdi+52]

; 278  : 		if (weight>1.0) weight=1.0; else if (weight<0.0) weight=0.0;

	vcomiss	xmm0, xmm8
	vmulss	xmm7, xmm7, DWORD PTR [rdi+44]
	jbe	SHORT $LN5@ridgedMult
	vmovaps	xmm6, xmm8
	jmp	SHORT $LN7@ridgedMult
$LN5@ridgedMult:
	vmaxss	xmm6, xmm11, xmm0
$LN7@ridgedMult:
; File c:\program files\autodesk\3ds max 2019 sdk\maxsdk\include\point3.h

; 73   : 		 x = a.x; y = a.y; z = a.z; 

	vmovss	DWORD PTR $T2[rsp], xmm1
; File g:\dropbox\github\berconmaps\src\fractal.cpp

; 279  : 		signal = np.offset - fabs(Noise::noise(p, d, np));

	vmovaps	xmm1, xmm7
	mov	r8, rdi
	lea	rcx, QWORD PTR $T2[rsp]
; File c:\program files\autodesk\3ds max 2019 sdk\maxsdk\include\point3.h

; 73   : 		 x = a.x; y = a.y; z = a.z; 

	vmovss	DWORD PTR $T2[rsp+4], xmm2
	vmovss	DWORD PTR $T2[rsp+8], xmm3
; File g:\dropbox\github\berconmaps\src\fractal.cpp

; 279  : 		signal = np.offset - fabs(Noise::noise(p, d, np));

	call	?noise@Noise@@SAMVPoint3@@MAEAVNoiseParams@@@Z ; Noise::noise
	vcvttss2si eax, DWORD PTR [rdi+36]
; File c:\program files (x86)\windows kits\10\include\10.0.10586.0\ucrt\math.h

; 671  :         return (float)fabs(_X);

	vcvtss2sd xmm1, xmm0, xmm0
	vandpd	xmm1, xmm1, xmm13
	vcvtsd2ss xmm2, xmm1, xmm1
; File g:\dropbox\github\berconmaps\src\fractal.cpp

; 279  : 		signal = np.offset - fabs(Noise::noise(p, d, np));

	vmovss	xmm1, DWORD PTR [rdi+48]
	vsubss	xmm2, xmm1, xmm2

; 280  : 		signal *= signal;

	vmulss	xmm3, xmm2, xmm2

; 281  : 		signal *= weight;

	vmulss	xmm4, xmm3, xmm6

; 282  : 		sum += signal * pwr;

	vmulss	xmm1, xmm4, xmm10
	inc	esi
	vaddss	xmm9, xmm9, xmm1

; 283  : 		pwr *= pwHL;

	vmulss	xmm10, xmm10, xmm12
	cmp	esi, eax
	jl	$LL4@ridgedMult
	vmovaps	xmm11, XMMWORD PTR [rsp+80]
	vmovaps	xmm8, XMMWORD PTR [rsp+128]
	vmovaps	xmm6, XMMWORD PTR [rsp+160]
$LN29@ridgedMult:

; 284  : 	}
; 285  : 	
; 286  : 	return sum;
; 287  : }

	vmovaps	xmm7, XMMWORD PTR [rsp+144]
	vmovaps	xmm10, XMMWORD PTR [rsp+96]
	vmovaps	xmm12, XMMWORD PTR [rsp+64]
	vmovaps	xmm13, XMMWORD PTR [rsp+48]
	vmovaps	xmm0, xmm9
	vmovaps	xmm9, XMMWORD PTR [rsp+112]
	add	rsp, 176				; 000000b0H
	pop	rdi
	pop	rsi
	pop	rbx
	ret	0
?ridgedMultiFractal@Fractal@@SAMVPoint3@@MAEAVNoiseParams@@@Z ENDP ; Fractal::ridgedMultiFractal
_TEXT	ENDS
; Function compile flags: /Ogtpy
; File g:\dropbox\github\berconmaps\src\fractal.cpp
; File c:\program files (x86)\microsoft visual studio 14.0\vc\include\cmath
; File c:\program files\autodesk\3ds max 2019 sdk\maxsdk\include\point3.h
; File g:\dropbox\github\berconmaps\src\fractal.cpp
; File c:\program files\autodesk\3ds max 2019 sdk\maxsdk\include\point3.h
; File c:\program files (x86)\microsoft visual studio 14.0\vc\include\cmath
; File g:\dropbox\github\berconmaps\src\fractal.cpp
; File c:\program files\autodesk\3ds max 2019 sdk\maxsdk\include\point3.h
; File g:\dropbox\github\berconmaps\src\fractal.cpp
; File c:\program files\autodesk\3ds max 2019 sdk\maxsdk\include\point3.h
; File g:\dropbox\github\berconmaps\src\fractal.cpp
; File c:\program files\autodesk\3ds max 2019 sdk\maxsdk\include\point3.h
; File g:\dropbox\github\berconmaps\src\fractal.cpp
; File c:\program files\autodesk\3ds max 2019 sdk\maxsdk\include\point3.h
; File g:\dropbox\github\berconmaps\src\fractal.cpp
; File c:\program files\autodesk\3ds max 2019 sdk\maxsdk\include\point3.h
; File g:\dropbox\github\berconmaps\src\fractal.cpp
; File c:\program files\autodesk\3ds max 2019 sdk\maxsdk\include\point3.h
; File g:\dropbox\github\berconmaps\src\fractal.cpp
; File c:\program files\autodesk\3ds max 2019 sdk\maxsdk\include\point3.h
; File g:\dropbox\github\berconmaps\src\fractal.cpp
; File c:\program files\autodesk\3ds max 2019 sdk\maxsdk\include\point3.h
; File g:\dropbox\github\berconmaps\src\fractal.cpp
; File c:\program files\autodesk\3ds max 2019 sdk\maxsdk\include\point3.h
; File g:\dropbox\github\berconmaps\src\fractal.cpp
; File c:\program files\autodesk\3ds max 2019 sdk\maxsdk\include\point3.h
; File g:\dropbox\github\berconmaps\src\fractal.cpp
;	COMDAT ?hybridMultiFractal@Fractal@@SAMVPoint3@@MAEAVNoiseParams@@@Z
_TEXT	SEGMENT
$T1 = 32
$T2 = 32
$T3 = 32
p$ = 192
d$ = 200
np$ = 208
?hybridMultiFractal@Fractal@@SAMVPoint3@@MAEAVNoiseParams@@@Z PROC ; Fractal::hybridMultiFractal, COMDAT

; 234  : float Fractal::hybridMultiFractal(Point3 p, float d, NoiseParams& np) {

$LN29:
	mov	rax, rsp
	push	rbx
	push	rsi
	push	rdi
	sub	rsp, 160				; 000000a0H

; 235  : 	float sum = 0.0f;
; 236  : 	float pwHL = pow(np.lacunarity, -np.H);	

	vmovss	xmm0, DWORD PTR [r8+40]
	vmovaps	XMMWORD PTR [rax-40], xmm6
	mov	rbx, r8
	vmovaps	XMMWORD PTR [rax-56], xmm7
	mov	rdi, rcx
	vmovaps	XMMWORD PTR [rax-72], xmm8
	vmovaps	XMMWORD PTR [rax-88], xmm9
	vmovaps	XMMWORD PTR [rax-104], xmm10
	vmovaps	xmm6, xmm1
	vxorps	xmm1, xmm0, DWORD PTR __xmm@80000000800000008000000080000000
; File c:\program files (x86)\microsoft visual studio 14.0\vc\include\cmath

; 251  : 	return (_CSTD powf(_Xx, _Yx));

	vmovss	xmm0, DWORD PTR [r8+44]
	vmovaps	XMMWORD PTR [rax-120], xmm11
	vmovaps	XMMWORD PTR [rsp+48], xmm12
	call	powf
; File c:\program files\autodesk\3ds max 2019 sdk\maxsdk\include\point3.h

; 73   : 		 x = a.x; y = a.y; z = a.z; 

	vmovss	xmm1, DWORD PTR [rdi]
	vmovss	xmm2, DWORD PTR [rdi+4]
	vmovss	DWORD PTR $T2[rsp], xmm1
	vmovss	xmm1, DWORD PTR [rdi+8]
	vmovss	DWORD PTR $T2[rsp+8], xmm1
; File g:\dropbox\github\berconmaps\src\fractal.cpp

; 241  : 	sum = Noise::noise(p, d, np) + np.offset;

	vmovaps	xmm1, xmm6
	mov	r8, rbx
	lea	rcx, QWORD PTR $T2[rsp]
; File c:\program files\autodesk\3ds max 2019 sdk\maxsdk\include\point3.h

; 73   : 		 x = a.x; y = a.y; z = a.z; 

	vmovss	DWORD PTR $T2[rsp+4], xmm2
; File c:\program files (x86)\microsoft visual studio 14.0\vc\include\cmath

; 251  : 	return (_CSTD powf(_Xx, _Yx));

	vmovaps	xmm11, xmm0
; File g:\dropbox\github\berconmaps\src\fractal.cpp

; 237  : 	float pwr = pwHL;

	vmovaps	xmm8, xmm0

; 241  : 	sum = Noise::noise(p, d, np) + np.offset;

	call	?noise@Noise@@SAMVPoint3@@MAEAVNoiseParams@@@Z ; Noise::noise
	vaddss	xmm7, xmm0, DWORD PTR [rbx+48]

; 242  : 	weight = np.gain * sum;
; 243  : 	p *= np.lacunarity;

	vmovss	xmm2, DWORD PTR [rbx+44]
	vmulss	xmm4, xmm7, DWORD PTR [rbx+52]
; File c:\program files\autodesk\3ds max 2019 sdk\maxsdk\include\point3.h

; 271  :    x *= f;   y *= f; z *= f;

	vmulss	xmm0, xmm2, DWORD PTR [rdi]
	vmulss	xmm1, xmm2, DWORD PTR [rdi+4]
; File g:\dropbox\github\berconmaps\src\fractal.cpp

; 246  : 	for (int i=1; (weight>0.001) && (i<(int)np.levels); i++) {

	vmovsd	xmm12, QWORD PTR __real@3f50624dd2f1a9fc
	vmovss	xmm10, DWORD PTR __real@3f800000
; File c:\program files\autodesk\3ds max 2019 sdk\maxsdk\include\point3.h

; 271  :    x *= f;   y *= f; z *= f;

	vmovss	DWORD PTR [rdi], xmm0
	vmulss	xmm0, xmm2, DWORD PTR [rdi+8]
	vmovss	DWORD PTR [rdi+8], xmm0
; File g:\dropbox\github\berconmaps\src\fractal.cpp

; 246  : 	for (int i=1; (weight>0.001) && (i<(int)np.levels); i++) {

	vcvtss2sd xmm0, xmm4, xmm4
	vcomisd	xmm0, xmm12
; File c:\program files\autodesk\3ds max 2019 sdk\maxsdk\include\point3.h

; 271  :    x *= f;   y *= f; z *= f;

	vmovss	DWORD PTR [rdi+4], xmm1
; File g:\dropbox\github\berconmaps\src\fractal.cpp

; 244  : 	d *= np.lacunarity;

	vmulss	xmm9, xmm6, DWORD PTR [rbx+44]

; 246  : 	for (int i=1; (weight>0.001) && (i<(int)np.levels); i++) {

	mov	esi, 1
	jbe	$LN27@hybridMult
$LL4@hybridMult:
	vcvttss2si eax, DWORD PTR [rbx+36]
	cmp	esi, eax
	jge	$LN27@hybridMult
; File c:\program files\autodesk\3ds max 2019 sdk\maxsdk\include\point3.h

; 73   : 		 x = a.x; y = a.y; z = a.z; 

	vmovss	xmm0, DWORD PTR [rdi]
	vmovss	xmm1, DWORD PTR [rdi+4]
	vmovss	DWORD PTR $T3[rsp], xmm0
	vmovss	xmm0, DWORD PTR [rdi+8]
	vmovss	DWORD PTR $T3[rsp+4], xmm1
; File g:\dropbox\github\berconmaps\src\fractal.cpp

; 248  : 		signal = (Noise::noise(p, d, np) + np.offset) * pwr;

	mov	r8, rbx
	lea	rcx, QWORD PTR $T3[rsp]
	vmovaps	xmm1, xmm9
; File c:\program files\autodesk\3ds max 2019 sdk\maxsdk\include\point3.h

; 73   : 		 x = a.x; y = a.y; z = a.z; 

	vmovss	DWORD PTR $T3[rsp+8], xmm0
	vminss	xmm6, xmm10, xmm4
; File g:\dropbox\github\berconmaps\src\fractal.cpp

; 248  : 		signal = (Noise::noise(p, d, np) + np.offset) * pwr;

	call	?noise@Noise@@SAMVPoint3@@MAEAVNoiseParams@@@Z ; Noise::noise
	vaddss	xmm1, xmm0, DWORD PTR [rbx+48]

; 252  : 		p *= np.lacunarity;

	vmovss	xmm3, DWORD PTR [rbx+44]
	vmulss	xmm2, xmm1, xmm8
	vmulss	xmm1, xmm2, DWORD PTR [rbx+52]
	vmulss	xmm0, xmm2, xmm6
	vaddss	xmm7, xmm7, xmm0
; File c:\program files\autodesk\3ds max 2019 sdk\maxsdk\include\point3.h

; 271  :    x *= f;   y *= f; z *= f;

	vmulss	xmm0, xmm3, DWORD PTR [rdi]
	vmovss	DWORD PTR [rdi], xmm0
	vmulss	xmm0, xmm3, DWORD PTR [rdi+8]
; File g:\dropbox\github\berconmaps\src\fractal.cpp

; 251  : 		weight *= np.gain * signal;

	vmulss	xmm4, xmm6, xmm1
; File c:\program files\autodesk\3ds max 2019 sdk\maxsdk\include\point3.h

; 271  :    x *= f;   y *= f; z *= f;

	vmulss	xmm1, xmm3, DWORD PTR [rdi+4]
	vmovss	DWORD PTR [rdi+8], xmm0
; File g:\dropbox\github\berconmaps\src\fractal.cpp

; 246  : 	for (int i=1; (weight>0.001) && (i<(int)np.levels); i++) {

	vcvtss2sd xmm0, xmm4, xmm4
	inc	esi
	vcomisd	xmm0, xmm12
; File c:\program files\autodesk\3ds max 2019 sdk\maxsdk\include\point3.h

; 271  :    x *= f;   y *= f; z *= f;

	vmovss	DWORD PTR [rdi+4], xmm1
; File g:\dropbox\github\berconmaps\src\fractal.cpp

; 253  : 		d *= np.lacunarity;

	vmulss	xmm9, xmm9, DWORD PTR [rbx+44]
	vmulss	xmm8, xmm8, xmm11
	ja	$LL4@hybridMult
$LN27@hybridMult:

; 254  : 	}
; 255  : 
; 256  : 	rmd = np.levels - FASTFLOOR(np.levels);

	vmovss	xmm1, DWORD PTR [rbx+36]
	vxorps	xmm2, xmm2, xmm2
	vcomiss	xmm2, xmm1
	vcvttss2si eax, xmm1
	jbe	SHORT $LN9@hybridMult
	dec	eax
$LN9@hybridMult:
	vxorps	xmm0, xmm0, xmm0
	vcvtsi2ss xmm0, xmm0, eax
	vsubss	xmm6, xmm1, xmm0

; 257  : 	if (rmd!=0.f) sum += rmd * (Noise::noise(p, d, np) + np.offset) * pwr;	

	vucomiss xmm6, xmm2
	jp	SHORT $LN26@hybridMult
	je	SHORT $LN6@hybridMult
$LN26@hybridMult:
; File c:\program files\autodesk\3ds max 2019 sdk\maxsdk\include\point3.h

; 73   : 		 x = a.x; y = a.y; z = a.z; 

	vmovss	xmm0, DWORD PTR [rdi]
	vmovss	xmm2, DWORD PTR [rdi+4]
	vmovss	DWORD PTR $T1[rsp], xmm0
	vmovss	xmm0, DWORD PTR [rdi+8]
; File g:\dropbox\github\berconmaps\src\fractal.cpp

; 257  : 	if (rmd!=0.f) sum += rmd * (Noise::noise(p, d, np) + np.offset) * pwr;	

	mov	r8, rbx
	lea	rcx, QWORD PTR $T1[rsp]
	vmovaps	xmm1, xmm9
; File c:\program files\autodesk\3ds max 2019 sdk\maxsdk\include\point3.h

; 73   : 		 x = a.x; y = a.y; z = a.z; 

	vmovss	DWORD PTR $T1[rsp+8], xmm0
	vmovss	DWORD PTR $T1[rsp+4], xmm2
; File g:\dropbox\github\berconmaps\src\fractal.cpp

; 257  : 	if (rmd!=0.f) sum += rmd * (Noise::noise(p, d, np) + np.offset) * pwr;	

	call	?noise@Noise@@SAMVPoint3@@MAEAVNoiseParams@@@Z ; Noise::noise
	vaddss	xmm1, xmm0, DWORD PTR [rbx+48]
	vmulss	xmm2, xmm1, xmm6
	vmulss	xmm3, xmm2, xmm8
	vaddss	xmm7, xmm7, xmm3
$LN6@hybridMult:

; 258  : 													
; 259  : 	return (sum+1.f)*.5f;
; 260  : }

	lea	r11, QWORD PTR [rsp+160]
	vmovaps	xmm6, XMMWORD PTR [r11-16]
	vmovaps	xmm8, XMMWORD PTR [r11-48]
	vmovaps	xmm9, XMMWORD PTR [r11-64]
	vmovaps	xmm11, XMMWORD PTR [r11-96]
	vmovaps	xmm12, XMMWORD PTR [r11-112]
	vaddss	xmm0, xmm7, xmm10
	vmulss	xmm0, xmm0, DWORD PTR __real@3f000000
	vmovaps	xmm7, XMMWORD PTR [r11-32]
	vmovaps	xmm10, XMMWORD PTR [r11-80]
	mov	rsp, r11
	pop	rdi
	pop	rsi
	pop	rbx
	ret	0
?hybridMultiFractal@Fractal@@SAMVPoint3@@MAEAVNoiseParams@@@Z ENDP ; Fractal::hybridMultiFractal
_TEXT	ENDS
; Function compile flags: /Ogtpy
; File g:\dropbox\github\berconmaps\src\fractal.cpp
; File c:\program files (x86)\microsoft visual studio 14.0\vc\include\cmath
; File g:\dropbox\github\berconmaps\src\fractal.cpp
; File c:\program files (x86)\microsoft visual studio 14.0\vc\include\cmath
; File c:\program files\autodesk\3ds max 2019 sdk\maxsdk\include\point3.h
; File g:\dropbox\github\berconmaps\src\fractal.cpp
; File c:\program files\autodesk\3ds max 2019 sdk\maxsdk\include\point3.h
; File c:\program files (x86)\microsoft visual studio 14.0\vc\include\cmath
; File g:\dropbox\github\berconmaps\src\fractal.cpp
; File c:\program files\autodesk\3ds max 2019 sdk\maxsdk\include\point3.h
; File g:\dropbox\github\berconmaps\src\fractal.cpp
; File c:\program files\autodesk\3ds max 2019 sdk\maxsdk\include\point3.h
; File g:\dropbox\github\berconmaps\src\fractal.cpp
; File c:\program files\autodesk\3ds max 2019 sdk\maxsdk\include\point3.h
; File g:\dropbox\github\berconmaps\src\fractal.cpp
; File c:\program files\autodesk\3ds max 2019 sdk\maxsdk\include\point3.h
; File g:\dropbox\github\berconmaps\src\fractal.cpp
; File c:\program files\autodesk\3ds max 2019 sdk\maxsdk\include\point3.h
; File g:\dropbox\github\berconmaps\src\fractal.cpp
; File c:\program files\autodesk\3ds max 2019 sdk\maxsdk\include\point3.h
; File g:\dropbox\github\berconmaps\src\fractal.cpp
;	COMDAT ?heteroTerrain@Fractal@@SAMVPoint3@@MAEAVNoiseParams@@@Z
_TEXT	SEGMENT
$T1 = 32
$T2 = 32
$T3 = 32
p$ = 144
d$ = 152
np$ = 160
?heteroTerrain@Fractal@@SAMVPoint3@@MAEAVNoiseParams@@@Z PROC ; Fractal::heteroTerrain, COMDAT

; 212  : float Fractal::heteroTerrain(Point3 p, float d, NoiseParams& np) {

$LN27:
	push	rbx
	push	rsi
	push	rdi
	sub	rsp, 112				; 00000070H

; 213  : 	float sum = 0.0f;
; 214  : 	float pwHL = pow(np.lacunarity, -np.H);	

	vmovss	xmm0, DWORD PTR [r8+40]
	vmovaps	XMMWORD PTR [rsp+96], xmm6
	mov	rdi, r8
	vmovaps	xmm6, xmm1
	vxorps	xmm1, xmm0, DWORD PTR __xmm@80000000800000008000000080000000
; File c:\program files (x86)\microsoft visual studio 14.0\vc\include\cmath

; 251  : 	return (_CSTD powf(_Xx, _Yx));

	vmovss	xmm0, DWORD PTR [r8+44]
	vmovaps	XMMWORD PTR [rsp+80], xmm7
; File g:\dropbox\github\berconmaps\src\fractal.cpp

; 212  : float Fractal::heteroTerrain(Point3 p, float d, NoiseParams& np) {

	mov	rbx, rcx
	vmovaps	XMMWORD PTR [rsp+64], xmm8
	vmovaps	XMMWORD PTR [rsp+48], xmm9
; File c:\program files (x86)\microsoft visual studio 14.0\vc\include\cmath

; 251  : 	return (_CSTD powf(_Xx, _Yx));

	call	powf
; File c:\program files\autodesk\3ds max 2019 sdk\maxsdk\include\point3.h

; 73   : 		 x = a.x; y = a.y; z = a.z; 

	vmovss	xmm1, DWORD PTR [rbx]
	vmovss	xmm2, DWORD PTR [rbx+4]
	vmovss	DWORD PTR $T2[rsp], xmm1
	vmovss	xmm1, DWORD PTR [rbx+8]
; File g:\dropbox\github\berconmaps\src\fractal.cpp

; 217  : 	sum = Noise::noise(p, np) + np.offset;

	mov	rdx, rdi
	lea	rcx, QWORD PTR $T2[rsp]
; File c:\program files\autodesk\3ds max 2019 sdk\maxsdk\include\point3.h

; 73   : 		 x = a.x; y = a.y; z = a.z; 

	vmovss	DWORD PTR $T2[rsp+8], xmm1
	vmovss	DWORD PTR $T2[rsp+4], xmm2
; File c:\program files (x86)\microsoft visual studio 14.0\vc\include\cmath

; 251  : 	return (_CSTD powf(_Xx, _Yx));

	vmovaps	xmm9, xmm0
; File g:\dropbox\github\berconmaps\src\fractal.cpp

; 215  : 	float pwr = pwHL;

	vmovaps	xmm8, xmm0

; 217  : 	sum = Noise::noise(p, np) + np.offset;

	call	?noise@Noise@@SAMVPoint3@@AEAVNoiseParams@@@Z ; Noise::noise

; 218  : 	p *= np.lacunarity;

	vmovss	xmm2, DWORD PTR [rdi+44]
	vaddss	xmm7, xmm0, DWORD PTR [rdi+48]
; File c:\program files\autodesk\3ds max 2019 sdk\maxsdk\include\point3.h

; 271  :    x *= f;   y *= f; z *= f;

	vmulss	xmm0, xmm2, DWORD PTR [rbx]
	vmulss	xmm1, xmm2, DWORD PTR [rbx+4]
	vmovss	DWORD PTR [rbx], xmm0
	vmulss	xmm0, xmm2, DWORD PTR [rbx+8]
	vmovss	DWORD PTR [rbx+8], xmm0
	vmovss	DWORD PTR [rbx+4], xmm1
; File g:\dropbox\github\berconmaps\src\fractal.cpp

; 221  : 	for (int i=0; i<(int)np.levels; i++) {

	vcvttss2si eax, DWORD PTR [rdi+36]
	vmulss	xmm6, xmm6, DWORD PTR [rdi+44]
	xor	esi, esi
	test	eax, eax
	jle	SHORT $LN3@heteroTerr
	npad	2
$LL4@heteroTerr:
; File c:\program files\autodesk\3ds max 2019 sdk\maxsdk\include\point3.h

; 73   : 		 x = a.x; y = a.y; z = a.z; 

	vmovss	xmm0, DWORD PTR [rbx]
	vmovss	xmm1, DWORD PTR [rbx+4]
	vmovss	DWORD PTR $T3[rsp], xmm0
	vmovss	xmm0, DWORD PTR [rbx+8]
	vmovss	DWORD PTR $T3[rsp+4], xmm1
; File g:\dropbox\github\berconmaps\src\fractal.cpp

; 222  : 		sum += (Noise::noise(p, d, np) + np.offset) * pwr * sum;

	mov	r8, rdi
	lea	rcx, QWORD PTR $T3[rsp]
	vmovaps	xmm1, xmm6
; File c:\program files\autodesk\3ds max 2019 sdk\maxsdk\include\point3.h

; 73   : 		 x = a.x; y = a.y; z = a.z; 

	vmovss	DWORD PTR $T3[rsp+8], xmm0
; File g:\dropbox\github\berconmaps\src\fractal.cpp

; 222  : 		sum += (Noise::noise(p, d, np) + np.offset) * pwr * sum;

	call	?noise@Noise@@SAMVPoint3@@MAEAVNoiseParams@@@Z ; Noise::noise
	vaddss	xmm1, xmm0, DWORD PTR [rdi+48]
	vmulss	xmm2, xmm1, xmm8
	vmulss	xmm3, xmm2, xmm7

; 223  : 		pwr *= pwHL;
; 224  : 		p *= np.lacunarity;

	vmovss	xmm2, DWORD PTR [rdi+44]
; File c:\program files\autodesk\3ds max 2019 sdk\maxsdk\include\point3.h

; 271  :    x *= f;   y *= f; z *= f;

	vmulss	xmm0, xmm2, DWORD PTR [rbx]
	vmulss	xmm1, xmm2, DWORD PTR [rbx+4]
	vmovss	DWORD PTR [rbx], xmm0
	vmulss	xmm0, xmm2, DWORD PTR [rbx+8]
	vmovss	DWORD PTR [rbx+8], xmm0
	vmovss	DWORD PTR [rbx+4], xmm1
; File g:\dropbox\github\berconmaps\src\fractal.cpp

; 221  : 	for (int i=0; i<(int)np.levels; i++) {

	vcvttss2si eax, DWORD PTR [rdi+36]

; 225  : 		d *= np.lacunarity;

	vmulss	xmm6, xmm6, DWORD PTR [rdi+44]
	inc	esi
	vaddss	xmm7, xmm7, xmm3
	vmulss	xmm8, xmm8, xmm9
	cmp	esi, eax
	jl	SHORT $LL4@heteroTerr
$LN3@heteroTerr:

; 226  : 	}
; 227  : 
; 228  : 	float rmd = np.levels - FASTFLOOR(np.levels);

	vmovss	xmm1, DWORD PTR [rdi+36]
	vxorps	xmm2, xmm2, xmm2
	vcomiss	xmm2, xmm1
	vcvttss2si eax, xmm1
	jbe	SHORT $LN8@heteroTerr
	dec	eax
$LN8@heteroTerr:
	vxorps	xmm0, xmm0, xmm0
	vcvtsi2ss xmm0, xmm0, eax
	vsubss	xmm9, xmm1, xmm0

; 229  : 	if (rmd!=0.f) sum += rmd * (Noise::noise(p, d, np) + np.offset) * pwr * sum;

	vucomiss xmm9, xmm2
	jp	SHORT $LN25@heteroTerr
	je	SHORT $LN5@heteroTerr
$LN25@heteroTerr:
; File c:\program files\autodesk\3ds max 2019 sdk\maxsdk\include\point3.h

; 73   : 		 x = a.x; y = a.y; z = a.z; 

	vmovss	xmm0, DWORD PTR [rbx]
	vmovss	xmm2, DWORD PTR [rbx+4]
	vmovss	DWORD PTR $T1[rsp], xmm0
	vmovss	xmm0, DWORD PTR [rbx+8]
; File g:\dropbox\github\berconmaps\src\fractal.cpp

; 229  : 	if (rmd!=0.f) sum += rmd * (Noise::noise(p, d, np) + np.offset) * pwr * sum;

	mov	r8, rdi
	lea	rcx, QWORD PTR $T1[rsp]
	vmovaps	xmm1, xmm6
; File c:\program files\autodesk\3ds max 2019 sdk\maxsdk\include\point3.h

; 73   : 		 x = a.x; y = a.y; z = a.z; 

	vmovss	DWORD PTR $T1[rsp+8], xmm0
	vmovss	DWORD PTR $T1[rsp+4], xmm2
; File g:\dropbox\github\berconmaps\src\fractal.cpp

; 229  : 	if (rmd!=0.f) sum += rmd * (Noise::noise(p, d, np) + np.offset) * pwr * sum;

	call	?noise@Noise@@SAMVPoint3@@MAEAVNoiseParams@@@Z ; Noise::noise
	vaddss	xmm1, xmm0, DWORD PTR [rdi+48]
	vmulss	xmm2, xmm1, xmm9
	vmulss	xmm3, xmm2, xmm8
	vmulss	xmm0, xmm3, xmm7
	vaddss	xmm7, xmm7, xmm0
$LN5@heteroTerr:

; 230  : 
; 231  : 	return (sum+1.f)*.5f;

	vaddss	xmm0, xmm7, DWORD PTR __real@3f800000
	vmulss	xmm0, xmm0, DWORD PTR __real@3f000000

; 232  : }

	vmovaps	xmm6, XMMWORD PTR [rsp+96]
	vmovaps	xmm7, XMMWORD PTR [rsp+80]
	vmovaps	xmm8, XMMWORD PTR [rsp+64]
	vmovaps	xmm9, XMMWORD PTR [rsp+48]
	add	rsp, 112				; 00000070H
	pop	rdi
	pop	rsi
	pop	rbx
	ret	0
?heteroTerrain@Fractal@@SAMVPoint3@@MAEAVNoiseParams@@@Z ENDP ; Fractal::heteroTerrain
_TEXT	ENDS
; Function compile flags: /Ogtpy
; File g:\dropbox\github\berconmaps\src\fractal.cpp
; File c:\program files (x86)\microsoft visual studio 14.0\vc\include\cmath
; File g:\dropbox\github\berconmaps\src\fractal.cpp
; File c:\program files (x86)\microsoft visual studio 14.0\vc\include\cmath
; File g:\dropbox\github\berconmaps\src\fractal.cpp
; File c:\program files (x86)\microsoft visual studio 14.0\vc\include\cmath
; File g:\dropbox\github\berconmaps\src\fractal.cpp
; File c:\program files\autodesk\3ds max 2019 sdk\maxsdk\include\point3.h
; File g:\dropbox\github\berconmaps\src\fractal.cpp
; File c:\program files\autodesk\3ds max 2019 sdk\maxsdk\include\point3.h
; File g:\dropbox\github\berconmaps\src\fractal.cpp
; File c:\program files (x86)\windows kits\10\include\10.0.10586.0\ucrt\math.h
; File g:\dropbox\github\berconmaps\src\fractal.cpp
; File c:\program files\autodesk\3ds max 2019 sdk\maxsdk\include\point3.h
; File g:\dropbox\github\berconmaps\src\fractal.cpp
; File c:\program files\autodesk\3ds max 2019 sdk\maxsdk\include\point3.h
; File g:\dropbox\github\berconmaps\src\fractal.cpp
; File c:\program files\autodesk\3ds max 2019 sdk\maxsdk\include\point3.h
; File g:\dropbox\github\berconmaps\src\fractal.cpp
; File c:\program files\autodesk\3ds max 2019 sdk\maxsdk\include\point3.h
; File g:\dropbox\github\berconmaps\src\fractal.cpp
; File c:\program files (x86)\windows kits\10\include\10.0.10586.0\ucrt\math.h
; File g:\dropbox\github\berconmaps\src\fractal.cpp
;	COMDAT ?fBmTurb@Fractal@@SAMVPoint3@@MAEAVNoiseParams@@@Z
_TEXT	SEGMENT
$T1 = 32
$T2 = 32
p$ = 176
d$ = 184
np$ = 192
?fBmTurb@Fractal@@SAMVPoint3@@MAEAVNoiseParams@@@Z PROC	; Fractal::fBmTurb, COMDAT

; 194  : float Fractal::fBmTurb(Point3 p, float d, NoiseParams& np) {

$LN32:
	mov	rax, rsp
	push	rbx
	push	rsi
	push	rdi
	sub	rsp, 144				; 00000090H

; 196  : 	float pwr = 1.0f;
; 197  : 	float pwHL = pow(np.lacunarity, -np.H);	

	vmovss	xmm0, DWORD PTR [r8+40]
	vmovaps	XMMWORD PTR [rax-40], xmm6
	mov	rdi, r8
	vmovaps	XMMWORD PTR [rax-56], xmm7
	mov	rbx, rcx
	vmovaps	XMMWORD PTR [rax-72], xmm8
	vmovss	xmm8, DWORD PTR __real@3f800000
	vmovaps	XMMWORD PTR [rax-88], xmm9
	vmovaps	XMMWORD PTR [rax-104], xmm10
	vmovaps	xmm7, xmm1
	vxorps	xmm1, xmm0, DWORD PTR __xmm@80000000800000008000000080000000
; File c:\program files (x86)\microsoft visual studio 14.0\vc\include\cmath

; 251  : 	return (_CSTD powf(_Xx, _Yx));

	vmovss	xmm0, DWORD PTR [r8+44]
	vxorps	xmm10, xmm10, xmm10
; File g:\dropbox\github\berconmaps\src\fractal.cpp

; 195  : 	float sum = 0.0f;

	vmovaps	xmm6, xmm10
	vmovaps	XMMWORD PTR [rax-120], xmm11
; File c:\program files (x86)\microsoft visual studio 14.0\vc\include\cmath

; 251  : 	return (_CSTD powf(_Xx, _Yx));

	call	powf
; File g:\dropbox\github\berconmaps\src\fractal.cpp

; 199  : 	for (int i=0; i<(int)np.levels; i++) {

	vcvttss2si eax, DWORD PTR [rdi+36]
	vmovsd	xmm11, QWORD PTR __xmm@7fffffffffffffff7fffffffffffffff
	xor	esi, esi
; File c:\program files (x86)\microsoft visual studio 14.0\vc\include\cmath

; 251  : 	return (_CSTD powf(_Xx, _Yx));

	vmovaps	xmm9, xmm0
; File g:\dropbox\github\berconmaps\src\fractal.cpp

; 199  : 	for (int i=0; i<(int)np.levels; i++) {

	test	eax, eax
	jle	$LN3@fBmTurb
	npad	5
$LL4@fBmTurb:
; File c:\program files\autodesk\3ds max 2019 sdk\maxsdk\include\point3.h

; 73   : 		 x = a.x; y = a.y; z = a.z; 

	vmovss	xmm0, DWORD PTR [rbx]
	vmovss	xmm1, DWORD PTR [rbx+4]
	vmovss	DWORD PTR $T2[rsp], xmm0
	vmovss	xmm0, DWORD PTR [rbx+8]
	vmovss	DWORD PTR $T2[rsp+4], xmm1
; File g:\dropbox\github\berconmaps\src\fractal.cpp

; 200  : 		sum += fabs(Noise::noise(p, d, np)) * pwr;

	mov	r8, rdi
	lea	rcx, QWORD PTR $T2[rsp]
	vmovaps	xmm1, xmm7
; File c:\program files\autodesk\3ds max 2019 sdk\maxsdk\include\point3.h

; 73   : 		 x = a.x; y = a.y; z = a.z; 

	vmovss	DWORD PTR $T2[rsp+8], xmm0
; File g:\dropbox\github\berconmaps\src\fractal.cpp

; 200  : 		sum += fabs(Noise::noise(p, d, np)) * pwr;

	call	?noise@Noise@@SAMVPoint3@@MAEAVNoiseParams@@@Z ; Noise::noise

; 201  : 		pwr *= pwHL;
; 202  : 		p *= np.lacunarity;

	vmovss	xmm2, DWORD PTR [rdi+44]
; File c:\program files (x86)\windows kits\10\include\10.0.10586.0\ucrt\math.h

; 671  :         return (float)fabs(_X);

	vcvtss2sd xmm1, xmm0, xmm0
	vandpd	xmm1, xmm1, xmm11
	vcvtsd2ss xmm1, xmm1, xmm1
; File g:\dropbox\github\berconmaps\src\fractal.cpp

; 200  : 		sum += fabs(Noise::noise(p, d, np)) * pwr;

	vmulss	xmm0, xmm1, xmm8
; File c:\program files\autodesk\3ds max 2019 sdk\maxsdk\include\point3.h

; 271  :    x *= f;   y *= f; z *= f;

	vmulss	xmm1, xmm2, DWORD PTR [rbx+4]
; File g:\dropbox\github\berconmaps\src\fractal.cpp

; 200  : 		sum += fabs(Noise::noise(p, d, np)) * pwr;

	vaddss	xmm6, xmm6, xmm0
; File c:\program files\autodesk\3ds max 2019 sdk\maxsdk\include\point3.h

; 271  :    x *= f;   y *= f; z *= f;

	vmulss	xmm0, xmm2, DWORD PTR [rbx]
	vmovss	DWORD PTR [rbx], xmm0
	vmulss	xmm0, xmm2, DWORD PTR [rbx+8]
	vmovss	DWORD PTR [rbx+8], xmm0
	vmovss	DWORD PTR [rbx+4], xmm1
; File g:\dropbox\github\berconmaps\src\fractal.cpp

; 199  : 	for (int i=0; i<(int)np.levels; i++) {

	vcvttss2si eax, DWORD PTR [rdi+36]

; 203  : 		d *= np.lacunarity;

	vmulss	xmm7, xmm7, DWORD PTR [rdi+44]
	inc	esi
	vmulss	xmm8, xmm8, xmm9
	cmp	esi, eax
	jl	SHORT $LL4@fBmTurb
$LN3@fBmTurb:

; 204  : 	}
; 205  : 
; 206  : 	float rmd = np.levels - FASTFLOOR(np.levels);

	vmovss	xmm0, DWORD PTR [rdi+36]
	vcomiss	xmm10, xmm0
	vcvttss2si eax, xmm0
	jbe	SHORT $LN8@fBmTurb
	dec	eax
$LN8@fBmTurb:
	vxorps	xmm1, xmm1, xmm1
	vcvtsi2ss xmm1, xmm1, eax
	vsubss	xmm9, xmm0, xmm1

; 207  : 	if (rmd!=0.f) sum += rmd * fabs(Noise::noise(p, d, np)) * pwr;

	vucomiss xmm9, xmm10
	jp	SHORT $LN29@fBmTurb
	jne	SHORT $LN29@fBmTurb

; 208  : 
; 209  : 	return sum;

	vmovaps	xmm0, xmm6
	jmp	SHORT $LN5@fBmTurb
$LN29@fBmTurb:
; File c:\program files\autodesk\3ds max 2019 sdk\maxsdk\include\point3.h

; 73   : 		 x = a.x; y = a.y; z = a.z; 

	vmovss	xmm0, DWORD PTR [rbx]
	vmovss	xmm2, DWORD PTR [rbx+4]
	vmovss	DWORD PTR $T1[rsp], xmm0
	vmovss	xmm0, DWORD PTR [rbx+8]
; File g:\dropbox\github\berconmaps\src\fractal.cpp

; 207  : 	if (rmd!=0.f) sum += rmd * fabs(Noise::noise(p, d, np)) * pwr;

	mov	r8, rdi
	lea	rcx, QWORD PTR $T1[rsp]
	vmovaps	xmm1, xmm7
; File c:\program files\autodesk\3ds max 2019 sdk\maxsdk\include\point3.h

; 73   : 		 x = a.x; y = a.y; z = a.z; 

	vmovss	DWORD PTR $T1[rsp+8], xmm0
	vmovss	DWORD PTR $T1[rsp+4], xmm2
; File g:\dropbox\github\berconmaps\src\fractal.cpp

; 207  : 	if (rmd!=0.f) sum += rmd * fabs(Noise::noise(p, d, np)) * pwr;

	call	?noise@Noise@@SAMVPoint3@@MAEAVNoiseParams@@@Z ; Noise::noise
; File c:\program files (x86)\windows kits\10\include\10.0.10586.0\ucrt\math.h

; 671  :         return (float)fabs(_X);

	vcvtss2sd xmm1, xmm0, xmm0
	vandpd	xmm1, xmm1, xmm11
	vcvtsd2ss xmm1, xmm1, xmm1
; File g:\dropbox\github\berconmaps\src\fractal.cpp

; 207  : 	if (rmd!=0.f) sum += rmd * fabs(Noise::noise(p, d, np)) * pwr;

	vmulss	xmm0, xmm1, xmm9
	vmulss	xmm2, xmm0, xmm8
	vaddss	xmm0, xmm6, xmm2
$LN5@fBmTurb:

; 210  : }

	vmovaps	xmm6, XMMWORD PTR [rsp+128]
	vmovaps	xmm7, XMMWORD PTR [rsp+112]
	vmovaps	xmm8, XMMWORD PTR [rsp+96]
	vmovaps	xmm9, XMMWORD PTR [rsp+80]
	vmovaps	xmm10, XMMWORD PTR [rsp+64]
	vmovaps	xmm11, XMMWORD PTR [rsp+48]
	add	rsp, 144				; 00000090H
	pop	rdi
	pop	rsi
	pop	rbx
	ret	0
?fBmTurb@Fractal@@SAMVPoint3@@MAEAVNoiseParams@@@Z ENDP	; Fractal::fBmTurb
_TEXT	ENDS
; Function compile flags: /Ogtpy
; File g:\dropbox\github\berconmaps\src\fractal.cpp
; File c:\program files (x86)\microsoft visual studio 14.0\vc\include\cmath
; File g:\dropbox\github\berconmaps\src\fractal.cpp
; File c:\program files (x86)\microsoft visual studio 14.0\vc\include\cmath
; File g:\dropbox\github\berconmaps\src\fractal.cpp
; File c:\program files (x86)\microsoft visual studio 14.0\vc\include\cmath
; File g:\dropbox\github\berconmaps\src\fractal.cpp
; File c:\program files\autodesk\3ds max 2019 sdk\maxsdk\include\point3.h
; File g:\dropbox\github\berconmaps\src\fractal.cpp
; File c:\program files\autodesk\3ds max 2019 sdk\maxsdk\include\point3.h
; File g:\dropbox\github\berconmaps\src\fractal.cpp
; File c:\program files\autodesk\3ds max 2019 sdk\maxsdk\include\point3.h
; File g:\dropbox\github\berconmaps\src\fractal.cpp
; File c:\program files\autodesk\3ds max 2019 sdk\maxsdk\include\point3.h
; File g:\dropbox\github\berconmaps\src\fractal.cpp
; File c:\program files\autodesk\3ds max 2019 sdk\maxsdk\include\point3.h
; File g:\dropbox\github\berconmaps\src\fractal.cpp
; File c:\program files\autodesk\3ds max 2019 sdk\maxsdk\include\point3.h
; File g:\dropbox\github\berconmaps\src\fractal.cpp
;	COMDAT ?fBm@Fractal@@SAMVPoint3@@MAEAVNoiseParams@@@Z
_TEXT	SEGMENT
$T1 = 32
$T2 = 32
p$ = 160
d$ = 168
np$ = 176
?fBm@Fractal@@SAMVPoint3@@MAEAVNoiseParams@@@Z PROC	; Fractal::fBm, COMDAT

; 176  : float Fractal::fBm(Point3 p, float d, NoiseParams& np) {

$LN23:
	push	rbx
	push	rsi
	push	rdi
	sub	rsp, 128				; 00000080H

; 178  : 	float pwr = 1.0f;
; 179  : 	float pwHL = pow(np.lacunarity, -np.H);	

	vmovss	xmm0, DWORD PTR [r8+40]
	vmovaps	XMMWORD PTR [rsp+112], xmm6
	mov	rdi, r8
	vmovaps	XMMWORD PTR [rsp+96], xmm7
	mov	rbx, rcx
	vmovaps	XMMWORD PTR [rsp+80], xmm8
	vmovss	xmm8, DWORD PTR __real@3f800000
	vmovaps	xmm7, xmm1
	vxorps	xmm1, xmm0, DWORD PTR __xmm@80000000800000008000000080000000
; File c:\program files (x86)\microsoft visual studio 14.0\vc\include\cmath

; 251  : 	return (_CSTD powf(_Xx, _Yx));

	vmovss	xmm0, DWORD PTR [r8+44]
	vmovaps	XMMWORD PTR [rsp+64], xmm9
	vmovaps	XMMWORD PTR [rsp+48], xmm10
	vxorps	xmm10, xmm10, xmm10
; File g:\dropbox\github\berconmaps\src\fractal.cpp

; 177  : 	float sum = 0.0f;

	vmovaps	xmm6, xmm10
; File c:\program files (x86)\microsoft visual studio 14.0\vc\include\cmath

; 251  : 	return (_CSTD powf(_Xx, _Yx));

	call	powf
; File g:\dropbox\github\berconmaps\src\fractal.cpp

; 181  : 	for (int i=0; i<(int)np.levels; i++) {

	vcvttss2si eax, DWORD PTR [rdi+36]
	xor	esi, esi
; File c:\program files (x86)\microsoft visual studio 14.0\vc\include\cmath

; 251  : 	return (_CSTD powf(_Xx, _Yx));

	vmovaps	xmm9, xmm0
; File g:\dropbox\github\berconmaps\src\fractal.cpp

; 181  : 	for (int i=0; i<(int)np.levels; i++) {

	test	eax, eax
	jle	SHORT $LN3@fBm
	npad	3
$LL4@fBm:
; File c:\program files\autodesk\3ds max 2019 sdk\maxsdk\include\point3.h

; 73   : 		 x = a.x; y = a.y; z = a.z; 

	vmovss	xmm1, DWORD PTR [rbx]
	vmovss	xmm2, DWORD PTR [rbx+4]
	vmovss	xmm0, DWORD PTR [rbx+8]
	vmovss	DWORD PTR $T2[rsp], xmm1
; File g:\dropbox\github\berconmaps\src\fractal.cpp

; 182  : 		sum += Noise::noise(p, d, np) * pwr;

	vmovaps	xmm1, xmm7
	mov	r8, rdi
	lea	rcx, QWORD PTR $T2[rsp]
; File c:\program files\autodesk\3ds max 2019 sdk\maxsdk\include\point3.h

; 73   : 		 x = a.x; y = a.y; z = a.z; 

	vmovss	DWORD PTR $T2[rsp+4], xmm2
	vmovss	DWORD PTR $T2[rsp+8], xmm0
; File g:\dropbox\github\berconmaps\src\fractal.cpp

; 182  : 		sum += Noise::noise(p, d, np) * pwr;

	call	?noise@Noise@@SAMVPoint3@@MAEAVNoiseParams@@@Z ; Noise::noise

; 183  : 		pwr *= pwHL;
; 184  : 		p *= np.lacunarity;

	vmovss	xmm2, DWORD PTR [rdi+44]
	vmulss	xmm1, xmm0, xmm8
; File c:\program files\autodesk\3ds max 2019 sdk\maxsdk\include\point3.h

; 271  :    x *= f;   y *= f; z *= f;

	vmulss	xmm0, xmm2, DWORD PTR [rbx]
	vmovss	DWORD PTR [rbx], xmm0
	vmulss	xmm0, xmm2, DWORD PTR [rbx+8]
	vmovss	DWORD PTR [rbx+8], xmm0
; File g:\dropbox\github\berconmaps\src\fractal.cpp

; 182  : 		sum += Noise::noise(p, d, np) * pwr;

	vaddss	xmm6, xmm6, xmm1
; File c:\program files\autodesk\3ds max 2019 sdk\maxsdk\include\point3.h

; 271  :    x *= f;   y *= f; z *= f;

	vmulss	xmm1, xmm2, DWORD PTR [rbx+4]
	vmovss	DWORD PTR [rbx+4], xmm1
; File g:\dropbox\github\berconmaps\src\fractal.cpp

; 181  : 	for (int i=0; i<(int)np.levels; i++) {

	vcvttss2si eax, DWORD PTR [rdi+36]

; 185  : 		d *= np.lacunarity;

	vmulss	xmm7, xmm7, DWORD PTR [rdi+44]
	inc	esi
	vmulss	xmm8, xmm8, xmm9
	cmp	esi, eax
	jl	SHORT $LL4@fBm
$LN3@fBm:

; 186  : 	}
; 187  : 
; 188  : 	float rmd = np.levels - FASTFLOOR(np.levels);

	vmovss	xmm1, DWORD PTR [rdi+36]
	vcomiss	xmm10, xmm1
	vcvttss2si eax, xmm1
	jbe	SHORT $LN8@fBm
	dec	eax
$LN8@fBm:
	vxorps	xmm0, xmm0, xmm0
	vcvtsi2ss xmm0, xmm0, eax
	vsubss	xmm9, xmm1, xmm0

; 189  : 	if (rmd!=0.f) sum += rmd * Noise::noise(p, d, np) * pwr;

	vucomiss xmm9, xmm10
	jp	SHORT $LN21@fBm
	je	SHORT $LN5@fBm
$LN21@fBm:
; File c:\program files\autodesk\3ds max 2019 sdk\maxsdk\include\point3.h

; 73   : 		 x = a.x; y = a.y; z = a.z; 

	vmovss	xmm0, DWORD PTR [rbx]
	vmovss	xmm2, DWORD PTR [rbx+4]
	vmovss	DWORD PTR $T1[rsp], xmm0
	vmovss	xmm0, DWORD PTR [rbx+8]
; File g:\dropbox\github\berconmaps\src\fractal.cpp

; 189  : 	if (rmd!=0.f) sum += rmd * Noise::noise(p, d, np) * pwr;

	mov	r8, rdi
	lea	rcx, QWORD PTR $T1[rsp]
	vmovaps	xmm1, xmm7
; File c:\program files\autodesk\3ds max 2019 sdk\maxsdk\include\point3.h

; 73   : 		 x = a.x; y = a.y; z = a.z; 

	vmovss	DWORD PTR $T1[rsp+8], xmm0
	vmovss	DWORD PTR $T1[rsp+4], xmm2
; File g:\dropbox\github\berconmaps\src\fractal.cpp

; 189  : 	if (rmd!=0.f) sum += rmd * Noise::noise(p, d, np) * pwr;

	call	?noise@Noise@@SAMVPoint3@@MAEAVNoiseParams@@@Z ; Noise::noise
	vmulss	xmm1, xmm0, xmm9
	vmulss	xmm2, xmm1, xmm8
	vaddss	xmm6, xmm6, xmm2
$LN5@fBm:

; 190  : 
; 191  : 	return (sum+1.f)*.5f;

	vaddss	xmm0, xmm6, DWORD PTR __real@3f800000
	vmulss	xmm0, xmm0, DWORD PTR __real@3f000000

; 192  : }

	vmovaps	xmm6, XMMWORD PTR [rsp+112]
	vmovaps	xmm7, XMMWORD PTR [rsp+96]
	vmovaps	xmm8, XMMWORD PTR [rsp+80]
	vmovaps	xmm9, XMMWORD PTR [rsp+64]
	vmovaps	xmm10, XMMWORD PTR [rsp+48]
	add	rsp, 128				; 00000080H
	pop	rdi
	pop	rsi
	pop	rbx
	ret	0
?fBm@Fractal@@SAMVPoint3@@MAEAVNoiseParams@@@Z ENDP	; Fractal::fBm
_TEXT	ENDS
; Function compile flags: /Ogtpy
; File g:\dropbox\github\berconmaps\src\fractal.cpp
; File c:\program files\autodesk\3ds max 2019 sdk\maxsdk\include\point3.h
; File g:\dropbox\github\berconmaps\src\fractal.cpp
; File c:\program files\autodesk\3ds max 2019 sdk\maxsdk\include\point3.h
; File g:\dropbox\github\berconmaps\src\fractal.cpp
; File c:\program files (x86)\windows kits\10\include\10.0.10586.0\ucrt\math.h
; File g:\dropbox\github\berconmaps\src\fractal.cpp
; File c:\program files\autodesk\3ds max 2019 sdk\maxsdk\include\point3.h
; File g:\dropbox\github\berconmaps\src\fractal.cpp
; File c:\program files\autodesk\3ds max 2019 sdk\maxsdk\include\point3.h
; File g:\dropbox\github\berconmaps\src\fractal.cpp
; File c:\program files (x86)\windows kits\10\include\10.0.10586.0\ucrt\math.h
; File g:\dropbox\github\berconmaps\src\fractal.cpp
;	COMDAT ?turbulence@Fractal@@SAMVPoint3@@MAEAVNoiseParams@@@Z
_TEXT	SEGMENT
$T1 = 32
$T2 = 32
p$ = 192
d$ = 200
np$ = 208
?turbulence@Fractal@@SAMVPoint3@@MAEAVNoiseParams@@@Z PROC ; Fractal::turbulence, COMDAT

; 164  : float Fractal::turbulence(Point3 p, float d, NoiseParams& np) {

$LN29:
	mov	rax, rsp
	mov	QWORD PTR [rax+8], rbx
	push	rdi
	sub	rsp, 176				; 000000b0H
	vmovaps	XMMWORD PTR [rax-24], xmm6
	mov	rdi, r8
	vmovaps	XMMWORD PTR [rax-40], xmm7
	mov	rbx, rcx

; 165  : 	float sum = 0.0f;
; 166  : 	float l,f = 1.0f;	
; 167  : 	for (l = np.levels; l >= 1.0f; l-=1.0f) {

	vmovss	xmm7, DWORD PTR [r8+36]
	vmovaps	XMMWORD PTR [rax-56], xmm8
	vmovaps	XMMWORD PTR [rax-104], xmm11
	vmovaps	XMMWORD PTR [rax-120], xmm12
	vmovsd	xmm12, QWORD PTR __xmm@7fffffffffffffff7fffffffffffffff
	vmovaps	XMMWORD PTR [rax-72], xmm9
	vmovss	xmm9, DWORD PTR __real@3f800000
	vcomiss	xmm7, xmm9
	vmovaps	XMMWORD PTR [rax-88], xmm10
	vxorps	xmm10, xmm10, xmm10
	vmovaps	xmm8, xmm10
	vmovaps	xmm11, xmm1
	vmovaps	xmm6, xmm9
	jb	SHORT $LN3@turbulence
	vmovaps	XMMWORD PTR [rsp+48], xmm13
	vmovss	xmm13, DWORD PTR __real@bf800000
	npad	10
$LL4@turbulence:
; File c:\program files\autodesk\3ds max 2019 sdk\maxsdk\include\point3.h

; 327  :    return(Point3(a.x*f, a.y*f, a.z*f));

	vmulss	xmm0, xmm6, DWORD PTR [rbx]
	vmulss	xmm1, xmm6, DWORD PTR [rbx+4]
	vmovss	DWORD PTR $T2[rsp], xmm0
	vmulss	xmm0, xmm6, DWORD PTR [rbx+8]
	vmovss	DWORD PTR $T2[rsp+4], xmm1
; File g:\dropbox\github\berconmaps\src\fractal.cpp

; 168  : 		sum += fabs(Noise::noise(p*f, d*f, np))/f;

	vmulss	xmm1, xmm6, xmm11
	mov	r8, rdi
	lea	rcx, QWORD PTR $T2[rsp]
; File c:\program files\autodesk\3ds max 2019 sdk\maxsdk\include\point3.h

; 327  :    return(Point3(a.x*f, a.y*f, a.z*f));

	vmovss	DWORD PTR $T2[rsp+8], xmm0
; File g:\dropbox\github\berconmaps\src\fractal.cpp

; 168  : 		sum += fabs(Noise::noise(p*f, d*f, np))/f;

	call	?noise@Noise@@SAMVPoint3@@MAEAVNoiseParams@@@Z ; Noise::noise
; File c:\program files (x86)\windows kits\10\include\10.0.10586.0\ucrt\math.h

; 671  :         return (float)fabs(_X);

	vcvtss2sd xmm1, xmm0, xmm0
	vandpd	xmm1, xmm1, xmm12
	vcvtsd2ss xmm1, xmm1, xmm1
; File g:\dropbox\github\berconmaps\src\fractal.cpp

; 168  : 		sum += fabs(Noise::noise(p*f, d*f, np))/f;

	vdivss	xmm0, xmm1, xmm6
	vaddss	xmm7, xmm7, xmm13
	vcomiss	xmm7, xmm9
	vaddss	xmm8, xmm8, xmm0

; 169  : 		f *= 2.0f;

	vaddss	xmm6, xmm6, xmm6
	jae	SHORT $LL4@turbulence
	vmovaps	xmm13, XMMWORD PTR [rsp+48]
$LN3@turbulence:
	vmovaps	xmm9, XMMWORD PTR [rsp+112]

; 170  : 	}
; 171  : 	if (l>0.0f)

	vcomiss	xmm7, xmm10
	vmovaps	xmm10, XMMWORD PTR [rsp+96]
	jbe	SHORT $LN27@turbulence
; File c:\program files\autodesk\3ds max 2019 sdk\maxsdk\include\point3.h

; 327  :    return(Point3(a.x*f, a.y*f, a.z*f));

	vmulss	xmm0, xmm6, DWORD PTR [rbx]
	vmulss	xmm1, xmm6, DWORD PTR [rbx+4]
	vmovss	DWORD PTR $T1[rsp], xmm0
	vmulss	xmm0, xmm6, DWORD PTR [rbx+8]
	vmovss	DWORD PTR $T1[rsp+4], xmm1
; File g:\dropbox\github\berconmaps\src\fractal.cpp

; 172  : 		sum += l*fabs(Noise::noise(p*f, d*f, np))/f;

	vmulss	xmm1, xmm6, xmm11
	mov	r8, rdi
	lea	rcx, QWORD PTR $T1[rsp]
; File c:\program files\autodesk\3ds max 2019 sdk\maxsdk\include\point3.h

; 327  :    return(Point3(a.x*f, a.y*f, a.z*f));

	vmovss	DWORD PTR $T1[rsp+8], xmm0
; File g:\dropbox\github\berconmaps\src\fractal.cpp

; 172  : 		sum += l*fabs(Noise::noise(p*f, d*f, np))/f;

	call	?noise@Noise@@SAMVPoint3@@MAEAVNoiseParams@@@Z ; Noise::noise
; File c:\program files (x86)\windows kits\10\include\10.0.10586.0\ucrt\math.h

; 671  :         return (float)fabs(_X);

	vcvtss2sd xmm1, xmm0, xmm0
	vandpd	xmm1, xmm1, xmm12
	vcvtsd2ss xmm1, xmm1, xmm1
; File g:\dropbox\github\berconmaps\src\fractal.cpp

; 172  : 		sum += l*fabs(Noise::noise(p*f, d*f, np))/f;

	vmulss	xmm0, xmm1, xmm7
	vdivss	xmm2, xmm0, xmm6
	vaddss	xmm0, xmm8, xmm2
	jmp	SHORT $LN5@turbulence
$LN27@turbulence:

; 173  : 	return sum;

	vmovaps	xmm0, xmm8
$LN5@turbulence:

; 174  : }

	lea	r11, QWORD PTR [rsp+176]
	mov	rbx, QWORD PTR [r11+16]
	vmovaps	xmm6, XMMWORD PTR [r11-16]
	vmovaps	xmm7, XMMWORD PTR [r11-32]
	vmovaps	xmm8, XMMWORD PTR [r11-48]
	vmovaps	xmm11, XMMWORD PTR [r11-96]
	vmovaps	xmm12, XMMWORD PTR [r11-112]
	mov	rsp, r11
	pop	rdi
	ret	0
?turbulence@Fractal@@SAMVPoint3@@MAEAVNoiseParams@@@Z ENDP ; Fractal::turbulence
_TEXT	ENDS
; Function compile flags: /Ogtpy
; File g:\dropbox\github\berconmaps\src\fractal.cpp
; File c:\program files\autodesk\3ds max 2019 sdk\maxsdk\include\point3.h
; File g:\dropbox\github\berconmaps\src\fractal.cpp
; File c:\program files\autodesk\3ds max 2019 sdk\maxsdk\include\point3.h
; File g:\dropbox\github\berconmaps\src\fractal.cpp
; File c:\program files\autodesk\3ds max 2019 sdk\maxsdk\include\point3.h
; File g:\dropbox\github\berconmaps\src\fractal.cpp
; File c:\program files\autodesk\3ds max 2019 sdk\maxsdk\include\point3.h
; File g:\dropbox\github\berconmaps\src\fractal.cpp
;	COMDAT ?fractal@Fractal@@SAMVPoint3@@MAEAVNoiseParams@@@Z
_TEXT	SEGMENT
$T1 = 32
$T2 = 32
p$ = 176
d$ = 184
np$ = 192
?fractal@Fractal@@SAMVPoint3@@MAEAVNoiseParams@@@Z PROC	; Fractal::fractal, COMDAT

; 152  : float Fractal::fractal(Point3 p, float d, NoiseParams& np) {

$LN20:
	mov	rax, rsp
	mov	QWORD PTR [rax+8], rbx
	push	rdi
	sub	rsp, 160				; 000000a0H
	vmovaps	XMMWORD PTR [rax-24], xmm6
	mov	rdi, r8
	vmovaps	XMMWORD PTR [rax-40], xmm7
	mov	rbx, rcx

; 153  : 	float sum = 0.0f;
; 154  : 	float l, f = 1.0f;
; 155  : 	for (l = np.levels; l >= 1.0f; l-=1.0f) {				

	vmovss	xmm7, DWORD PTR [r8+36]
	vmovaps	XMMWORD PTR [rax-56], xmm8
	vmovaps	XMMWORD PTR [rax-72], xmm9
	vmovss	xmm9, DWORD PTR __real@3f800000
	vcomiss	xmm7, xmm9
	vmovaps	XMMWORD PTR [rax-104], xmm11
	vmovaps	XMMWORD PTR [rax-88], xmm10
	vxorps	xmm10, xmm10, xmm10
	vmovaps	xmm8, xmm10
	vmovaps	xmm11, xmm1
	vmovaps	xmm6, xmm9
	jb	SHORT $LN3@fractal
	vmovaps	XMMWORD PTR [rax-120], xmm12
	vmovss	xmm12, DWORD PTR __real@bf800000
	npad	8
$LL4@fractal:
; File c:\program files\autodesk\3ds max 2019 sdk\maxsdk\include\point3.h

; 327  :    return(Point3(a.x*f, a.y*f, a.z*f));

	vmulss	xmm0, xmm6, DWORD PTR [rbx]
	vmulss	xmm1, xmm6, DWORD PTR [rbx+4]
	vmovss	DWORD PTR $T2[rsp], xmm0
	vmulss	xmm0, xmm6, DWORD PTR [rbx+8]
	vmovss	DWORD PTR $T2[rsp+4], xmm1
; File g:\dropbox\github\berconmaps\src\fractal.cpp

; 156  : 		sum += Noise::noise(p*f, d*f, np)/f;

	vmulss	xmm1, xmm6, xmm11
	mov	r8, rdi
	lea	rcx, QWORD PTR $T2[rsp]
; File c:\program files\autodesk\3ds max 2019 sdk\maxsdk\include\point3.h

; 327  :    return(Point3(a.x*f, a.y*f, a.z*f));

	vmovss	DWORD PTR $T2[rsp+8], xmm0
; File g:\dropbox\github\berconmaps\src\fractal.cpp

; 156  : 		sum += Noise::noise(p*f, d*f, np)/f;

	call	?noise@Noise@@SAMVPoint3@@MAEAVNoiseParams@@@Z ; Noise::noise
	vdivss	xmm1, xmm0, xmm6
	vaddss	xmm7, xmm7, xmm12
	vcomiss	xmm7, xmm9
	vaddss	xmm8, xmm8, xmm1

; 157  : 		f *= 2.0f;

	vaddss	xmm6, xmm6, xmm6
	jae	SHORT $LL4@fractal
	vmovaps	xmm12, XMMWORD PTR [rsp+48]
$LN3@fractal:

; 158  : 	}	
; 159  : 	if (l>0.0f)				

	vcomiss	xmm7, xmm10
	vmovaps	xmm10, XMMWORD PTR [rsp+80]
	jbe	SHORT $LN5@fractal
; File c:\program files\autodesk\3ds max 2019 sdk\maxsdk\include\point3.h

; 327  :    return(Point3(a.x*f, a.y*f, a.z*f));

	vmulss	xmm0, xmm6, DWORD PTR [rbx]
	vmulss	xmm1, xmm6, DWORD PTR [rbx+4]
	vmovss	DWORD PTR $T1[rsp], xmm0
	vmulss	xmm0, xmm6, DWORD PTR [rbx+8]
	vmovss	DWORD PTR $T1[rsp+4], xmm1
; File g:\dropbox\github\berconmaps\src\fractal.cpp

; 160  : 		sum += l*Noise::noise(p*f, d*f, np)/f;				

	vmulss	xmm1, xmm6, xmm11
	mov	r8, rdi
	lea	rcx, QWORD PTR $T1[rsp]
; File c:\program files\autodesk\3ds max 2019 sdk\maxsdk\include\point3.h

; 327  :    return(Point3(a.x*f, a.y*f, a.z*f));

	vmovss	DWORD PTR $T1[rsp+8], xmm0
; File g:\dropbox\github\berconmaps\src\fractal.cpp

; 160  : 		sum += l*Noise::noise(p*f, d*f, np)/f;				

	call	?noise@Noise@@SAMVPoint3@@MAEAVNoiseParams@@@Z ; Noise::noise
	vmulss	xmm1, xmm0, xmm7
	vdivss	xmm2, xmm1, xmm6
	vaddss	xmm8, xmm8, xmm2
$LN5@fractal:

; 161  : 	return 0.5f*(sum+1.0f);
; 162  : }

	lea	r11, QWORD PTR [rsp+160]
	mov	rbx, QWORD PTR [r11+16]
	vmovaps	xmm6, XMMWORD PTR [r11-16]
	vmovaps	xmm7, XMMWORD PTR [r11-32]
	vmovaps	xmm11, XMMWORD PTR [r11-96]
	vaddss	xmm0, xmm8, xmm9
	vmulss	xmm0, xmm0, DWORD PTR __real@3f000000
	vmovaps	xmm8, XMMWORD PTR [r11-48]
	vmovaps	xmm9, XMMWORD PTR [r11-64]
	mov	rsp, r11
	pop	rdi
	ret	0
?fractal@Fractal@@SAMVPoint3@@MAEAVNoiseParams@@@Z ENDP	; Fractal::fractal
_TEXT	ENDS
; Function compile flags: /Ogtpy
; File g:\dropbox\github\berconmaps\src\fractal.cpp
; File c:\program files (x86)\microsoft visual studio 14.0\vc\include\cmath
; File g:\dropbox\github\berconmaps\src\fractal.cpp
; File c:\program files (x86)\microsoft visual studio 14.0\vc\include\cmath
; File c:\program files\autodesk\3ds max 2019 sdk\maxsdk\include\point3.h
; File g:\dropbox\github\berconmaps\src\fractal.cpp
; File c:\program files\autodesk\3ds max 2019 sdk\maxsdk\include\point3.h
; File c:\program files (x86)\microsoft visual studio 14.0\vc\include\cmath
; File g:\dropbox\github\berconmaps\src\fractal.cpp
; File c:\program files (x86)\windows kits\10\include\10.0.10586.0\ucrt\math.h
; File g:\dropbox\github\berconmaps\src\fractal.cpp
; File c:\program files (x86)\windows kits\10\include\10.0.10586.0\ucrt\math.h
; File g:\dropbox\github\berconmaps\src\fractal.cpp
; File c:\program files (x86)\windows kits\10\include\10.0.10586.0\ucrt\math.h
; File g:\dropbox\github\berconmaps\src\fractal.cpp
; File c:\program files\autodesk\3ds max 2019 sdk\maxsdk\include\point3.h
; File g:\dropbox\github\berconmaps\src\fractal.cpp
; File c:\program files\autodesk\3ds max 2019 sdk\maxsdk\include\point3.h
; File g:\dropbox\github\berconmaps\src\fractal.cpp
; File c:\program files (x86)\windows kits\10\include\10.0.10586.0\ucrt\math.h
; File g:\dropbox\github\berconmaps\src\fractal.cpp
;	COMDAT ?ridgedMultiFractal@Fractal@@SAMVPoint3@@AEAVNoiseParams@@@Z
_TEXT	SEGMENT
$T1 = 32
$T2 = 32
p$ = 176
np$ = 184
?ridgedMultiFractal@Fractal@@SAMVPoint3@@AEAVNoiseParams@@@Z PROC ; Fractal::ridgedMultiFractal, COMDAT

; 124  : float Fractal::ridgedMultiFractal(Point3 p, NoiseParams& np) {

$LN31:
	mov	QWORD PTR [rsp+24], rbx
	mov	QWORD PTR [rsp+32], rsi
	push	rdi
	sub	rsp, 160				; 000000a0H

; 125  : 	float sum = 0.0f;
; 126  : 	float pwHL = pow(np.lacunarity, -np.H);	

	vmovss	xmm0, DWORD PTR [rdx+40]
	vxorps	xmm1, xmm0, DWORD PTR __xmm@80000000800000008000000080000000
; File c:\program files (x86)\microsoft visual studio 14.0\vc\include\cmath

; 251  : 	return (_CSTD powf(_Xx, _Yx));

	vmovss	xmm0, DWORD PTR [rdx+44]
	vmovaps	XMMWORD PTR [rsp+112], xmm8
; File g:\dropbox\github\berconmaps\src\fractal.cpp

; 124  : float Fractal::ridgedMultiFractal(Point3 p, NoiseParams& np) {

	mov	rdi, rdx
	vmovaps	XMMWORD PTR [rsp+80], xmm10
	mov	rbx, rcx
	vmovaps	XMMWORD PTR [rsp+64], xmm11
	vmovaps	XMMWORD PTR [rsp+48], xmm12
; File c:\program files (x86)\microsoft visual studio 14.0\vc\include\cmath

; 251  : 	return (_CSTD powf(_Xx, _Yx));

	call	powf
; File c:\program files\autodesk\3ds max 2019 sdk\maxsdk\include\point3.h

; 73   : 		 x = a.x; y = a.y; z = a.z; 

	vmovss	xmm1, DWORD PTR [rbx]
	vmovss	xmm2, DWORD PTR [rbx+4]
	vmovss	DWORD PTR $T1[rsp], xmm1
	vmovss	xmm1, DWORD PTR [rbx+8]
; File g:\dropbox\github\berconmaps\src\fractal.cpp

; 131  : 	signal = np.offset - fabs(Noise::noise(p, np));

	mov	rdx, rdi
	lea	rcx, QWORD PTR $T1[rsp]
; File c:\program files\autodesk\3ds max 2019 sdk\maxsdk\include\point3.h

; 73   : 		 x = a.x; y = a.y; z = a.z; 

	vmovss	DWORD PTR $T1[rsp+8], xmm1
	vmovss	DWORD PTR $T1[rsp+4], xmm2
; File c:\program files (x86)\microsoft visual studio 14.0\vc\include\cmath

; 251  : 	return (_CSTD powf(_Xx, _Yx));

	vmovaps	xmm11, xmm0
; File g:\dropbox\github\berconmaps\src\fractal.cpp

; 127  : 	float pwr = pwHL;

	vmovaps	xmm10, xmm0

; 131  : 	signal = np.offset - fabs(Noise::noise(p, np));

	call	?noise@Noise@@SAMVPoint3@@AEAVNoiseParams@@@Z ; Noise::noise
; File c:\program files (x86)\windows kits\10\include\10.0.10586.0\ucrt\math.h

; 671  :         return (float)fabs(_X);

	vmovsd	xmm12, QWORD PTR __xmm@7fffffffffffffff7fffffffffffffff
; File g:\dropbox\github\berconmaps\src\fractal.cpp

; 136  : 	for(int i=1; i<(int)np.levels; i++ ) {

	vcvttss2si eax, DWORD PTR [rdi+36]
; File c:\program files (x86)\windows kits\10\include\10.0.10586.0\ucrt\math.h

; 671  :         return (float)fabs(_X);

	vcvtss2sd xmm1, xmm0, xmm0
; File g:\dropbox\github\berconmaps\src\fractal.cpp

; 131  : 	signal = np.offset - fabs(Noise::noise(p, np));

	vmovss	xmm0, DWORD PTR [rdi+48]
; File c:\program files (x86)\windows kits\10\include\10.0.10586.0\ucrt\math.h

; 671  :         return (float)fabs(_X);

	vandpd	xmm1, xmm1, xmm12
	vcvtsd2ss xmm1, xmm1, xmm1
; File g:\dropbox\github\berconmaps\src\fractal.cpp

; 131  : 	signal = np.offset - fabs(Noise::noise(p, np));

	vsubss	xmm1, xmm0, xmm1

; 136  : 	for(int i=1; i<(int)np.levels; i++ ) {

	mov	esi, 1
	vmulss	xmm5, xmm1, xmm1
	vmovaps	xmm8, xmm5
	cmp	eax, esi
	jle	$LN29@ridgedMult
	vmovaps	XMMWORD PTR [rsp+144], xmm6
	vmovaps	XMMWORD PTR [rsp+128], xmm7
	vmovss	xmm7, DWORD PTR __real@3f800000
	vmovaps	XMMWORD PTR [rsp+96], xmm9
	vxorps	xmm9, xmm9, xmm9
	npad	7
$LL4@ridgedMult:

; 137  : 		p *= np.lacunarity;

	vmovss	xmm0, DWORD PTR [rdi+44]
; File c:\program files\autodesk\3ds max 2019 sdk\maxsdk\include\point3.h

; 271  :    x *= f;   y *= f; z *= f;

	vmulss	xmm2, xmm0, DWORD PTR [rbx]
	vmulss	xmm3, xmm0, DWORD PTR [rbx+4]
	vmulss	xmm4, xmm0, DWORD PTR [rbx+8]
	vmovss	DWORD PTR [rbx], xmm2
	vmovss	DWORD PTR [rbx+4], xmm3
	vmovss	DWORD PTR [rbx+8], xmm4
; File g:\dropbox\github\berconmaps\src\fractal.cpp

; 138  : 		weight = signal * np.gain;

	vmulss	xmm1, xmm5, DWORD PTR [rdi+52]

; 139  : 		if (weight>1.0) weight=1.0; else if (weight<0.0) weight=0.0;

	vcomiss	xmm1, xmm7
	jbe	SHORT $LN5@ridgedMult
	vmovaps	xmm6, xmm7
	jmp	SHORT $LN7@ridgedMult
$LN5@ridgedMult:
	vmaxss	xmm6, xmm9, xmm1
$LN7@ridgedMult:

; 140  : 		signal = np.offset - fabs(Noise::noise(p, np));

	mov	rdx, rdi
	lea	rcx, QWORD PTR $T2[rsp]
; File c:\program files\autodesk\3ds max 2019 sdk\maxsdk\include\point3.h

; 73   : 		 x = a.x; y = a.y; z = a.z; 

	vmovss	DWORD PTR $T2[rsp], xmm2
	vmovss	DWORD PTR $T2[rsp+4], xmm3
	vmovss	DWORD PTR $T2[rsp+8], xmm4
; File g:\dropbox\github\berconmaps\src\fractal.cpp

; 140  : 		signal = np.offset - fabs(Noise::noise(p, np));

	call	?noise@Noise@@SAMVPoint3@@AEAVNoiseParams@@@Z ; Noise::noise
	vcvttss2si eax, DWORD PTR [rdi+36]
; File c:\program files (x86)\windows kits\10\include\10.0.10586.0\ucrt\math.h

; 671  :         return (float)fabs(_X);

	vcvtss2sd xmm1, xmm0, xmm0
	vandpd	xmm1, xmm1, xmm12
	vcvtsd2ss xmm2, xmm1, xmm1
; File g:\dropbox\github\berconmaps\src\fractal.cpp

; 140  : 		signal = np.offset - fabs(Noise::noise(p, np));

	vmovss	xmm1, DWORD PTR [rdi+48]
	vsubss	xmm2, xmm1, xmm2

; 141  : 		signal *= signal;

	vmulss	xmm3, xmm2, xmm2

; 142  : 		signal *= weight;

	vmulss	xmm5, xmm3, xmm6

; 143  : 		sum += signal * pwr;

	vmulss	xmm1, xmm5, xmm10
	inc	esi
	vaddss	xmm8, xmm8, xmm1

; 144  : 		pwr *= pwHL;

	vmulss	xmm10, xmm10, xmm11
	cmp	esi, eax
	jl	$LL4@ridgedMult
	vmovaps	xmm9, XMMWORD PTR [rsp+96]
	vmovaps	xmm7, XMMWORD PTR [rsp+128]
	vmovaps	xmm6, XMMWORD PTR [rsp+144]
$LN29@ridgedMult:

; 145  : 	}
; 146  : 	
; 147  : 	return sum;
; 148  : }

	lea	r11, QWORD PTR [rsp+160]
	mov	rbx, QWORD PTR [r11+32]
	mov	rsi, QWORD PTR [r11+40]
	vmovaps	xmm10, XMMWORD PTR [r11-80]
	vmovaps	xmm11, XMMWORD PTR [r11-96]
	vmovaps	xmm12, XMMWORD PTR [r11-112]
	vmovaps	xmm0, xmm8
	vmovaps	xmm8, XMMWORD PTR [r11-48]
	mov	rsp, r11
	pop	rdi
	ret	0
?ridgedMultiFractal@Fractal@@SAMVPoint3@@AEAVNoiseParams@@@Z ENDP ; Fractal::ridgedMultiFractal
_TEXT	ENDS
; Function compile flags: /Ogtpy
; File g:\dropbox\github\berconmaps\src\fractal.cpp
; File c:\program files (x86)\microsoft visual studio 14.0\vc\include\cmath
; File g:\dropbox\github\berconmaps\src\fractal.cpp
; File c:\program files (x86)\microsoft visual studio 14.0\vc\include\cmath
; File c:\program files\autodesk\3ds max 2019 sdk\maxsdk\include\point3.h
; File g:\dropbox\github\berconmaps\src\fractal.cpp
; File c:\program files\autodesk\3ds max 2019 sdk\maxsdk\include\point3.h
; File c:\program files (x86)\microsoft visual studio 14.0\vc\include\cmath
; File g:\dropbox\github\berconmaps\src\fractal.cpp
; File c:\program files\autodesk\3ds max 2019 sdk\maxsdk\include\point3.h
; File g:\dropbox\github\berconmaps\src\fractal.cpp
; File c:\program files\autodesk\3ds max 2019 sdk\maxsdk\include\point3.h
; File g:\dropbox\github\berconmaps\src\fractal.cpp
; File c:\program files\autodesk\3ds max 2019 sdk\maxsdk\include\point3.h
; File g:\dropbox\github\berconmaps\src\fractal.cpp
; File c:\program files\autodesk\3ds max 2019 sdk\maxsdk\include\point3.h
; File g:\dropbox\github\berconmaps\src\fractal.cpp
; File c:\program files\autodesk\3ds max 2019 sdk\maxsdk\include\point3.h
; File g:\dropbox\github\berconmaps\src\fractal.cpp
; File c:\program files\autodesk\3ds max 2019 sdk\maxsdk\include\point3.h
; File g:\dropbox\github\berconmaps\src\fractal.cpp
; File c:\program files\autodesk\3ds max 2019 sdk\maxsdk\include\point3.h
; File g:\dropbox\github\berconmaps\src\fractal.cpp
; File c:\program files\autodesk\3ds max 2019 sdk\maxsdk\include\point3.h
; File g:\dropbox\github\berconmaps\src\fractal.cpp
; File c:\program files\autodesk\3ds max 2019 sdk\maxsdk\include\point3.h
; File g:\dropbox\github\berconmaps\src\fractal.cpp
; File c:\program files\autodesk\3ds max 2019 sdk\maxsdk\include\point3.h
; File g:\dropbox\github\berconmaps\src\fractal.cpp
; File c:\program files\autodesk\3ds max 2019 sdk\maxsdk\include\point3.h
; File g:\dropbox\github\berconmaps\src\fractal.cpp
;	COMDAT ?hybridMultiFractal@Fractal@@SAMVPoint3@@AEAVNoiseParams@@@Z
_TEXT	SEGMENT
$T1 = 32
$T2 = 32
$T3 = 32
p$ = 160
np$ = 168
?hybridMultiFractal@Fractal@@SAMVPoint3@@AEAVNoiseParams@@@Z PROC ; Fractal::hybridMultiFractal, COMDAT

; 98   : float Fractal::hybridMultiFractal(Point3 p, NoiseParams& np) {

$LN29:
	mov	rax, rsp
	mov	QWORD PTR [rax+24], rbx
	mov	QWORD PTR [rax+32], rsi
	push	rdi
	sub	rsp, 144				; 00000090H

; 99   : 	float sum = 0.0f;
; 100  : 	float pwHL = pow(np.lacunarity, -np.H);	

	vmovss	xmm0, DWORD PTR [rdx+40]
	vxorps	xmm1, xmm0, DWORD PTR __xmm@80000000800000008000000080000000
; File c:\program files (x86)\microsoft visual studio 14.0\vc\include\cmath

; 251  : 	return (_CSTD powf(_Xx, _Yx));

	vmovss	xmm0, DWORD PTR [rdx+44]
	vmovaps	XMMWORD PTR [rax-24], xmm6
; File g:\dropbox\github\berconmaps\src\fractal.cpp

; 98   : float Fractal::hybridMultiFractal(Point3 p, NoiseParams& np) {

	mov	rbx, rdx
	vmovaps	XMMWORD PTR [rax-40], xmm7
	mov	rdi, rcx
	vmovaps	XMMWORD PTR [rax-56], xmm8
	vmovaps	XMMWORD PTR [rax-72], xmm9
	vmovaps	XMMWORD PTR [rax-88], xmm10
	vmovaps	XMMWORD PTR [rax-104], xmm11
; File c:\program files (x86)\microsoft visual studio 14.0\vc\include\cmath

; 251  : 	return (_CSTD powf(_Xx, _Yx));

	call	powf
; File c:\program files\autodesk\3ds max 2019 sdk\maxsdk\include\point3.h

; 73   : 		 x = a.x; y = a.y; z = a.z; 

	vmovss	xmm1, DWORD PTR [rdi]
	vmovss	xmm2, DWORD PTR [rdi+4]
	vmovss	DWORD PTR $T2[rsp], xmm1
	vmovss	xmm1, DWORD PTR [rdi+8]
; File g:\dropbox\github\berconmaps\src\fractal.cpp

; 105  : 	sum = Noise::noise(p, np) + np.offset;

	mov	rdx, rbx
	lea	rcx, QWORD PTR $T2[rsp]
; File c:\program files\autodesk\3ds max 2019 sdk\maxsdk\include\point3.h

; 73   : 		 x = a.x; y = a.y; z = a.z; 

	vmovss	DWORD PTR $T2[rsp+8], xmm1
	vmovss	DWORD PTR $T2[rsp+4], xmm2
; File c:\program files (x86)\microsoft visual studio 14.0\vc\include\cmath

; 251  : 	return (_CSTD powf(_Xx, _Yx));

	vmovaps	xmm10, xmm0
; File g:\dropbox\github\berconmaps\src\fractal.cpp

; 101  : 	float pwr = pwHL;

	vmovaps	xmm8, xmm0

; 105  : 	sum = Noise::noise(p, np) + np.offset;

	call	?noise@Noise@@SAMVPoint3@@AEAVNoiseParams@@@Z ; Noise::noise

; 106  : 	weight = np.gain * sum;
; 107  : 	p *= np.lacunarity;

	vmovss	xmm2, DWORD PTR [rbx+44]
	vaddss	xmm7, xmm0, DWORD PTR [rbx+48]
	vmulss	xmm4, xmm7, DWORD PTR [rbx+52]
; File c:\program files\autodesk\3ds max 2019 sdk\maxsdk\include\point3.h

; 271  :    x *= f;   y *= f; z *= f;

	vmulss	xmm1, xmm2, DWORD PTR [rdi+4]
	vmulss	xmm0, xmm2, DWORD PTR [rdi]
; File g:\dropbox\github\berconmaps\src\fractal.cpp

; 109  : 	for (int i=1; (weight>0.001) && (i<(int)np.levels); i++) {

	vmovsd	xmm11, QWORD PTR __real@3f50624dd2f1a9fc
	vmovss	xmm9, DWORD PTR __real@3f800000
; File c:\program files\autodesk\3ds max 2019 sdk\maxsdk\include\point3.h

; 271  :    x *= f;   y *= f; z *= f;

	vmovss	DWORD PTR [rdi+4], xmm1
; File g:\dropbox\github\berconmaps\src\fractal.cpp

; 109  : 	for (int i=1; (weight>0.001) && (i<(int)np.levels); i++) {

	vcvtss2sd xmm1, xmm4, xmm4
	vcomisd	xmm1, xmm11
; File c:\program files\autodesk\3ds max 2019 sdk\maxsdk\include\point3.h

; 271  :    x *= f;   y *= f; z *= f;

	vmovss	DWORD PTR [rdi], xmm0
	vmulss	xmm0, xmm2, DWORD PTR [rdi+8]
	vmovss	DWORD PTR [rdi+8], xmm0
; File g:\dropbox\github\berconmaps\src\fractal.cpp

; 109  : 	for (int i=1; (weight>0.001) && (i<(int)np.levels); i++) {

	mov	esi, 1
	jbe	$LN27@hybridMult
$LL4@hybridMult:
	vcvttss2si eax, DWORD PTR [rbx+36]
	cmp	esi, eax
	jge	$LN27@hybridMult
; File c:\program files\autodesk\3ds max 2019 sdk\maxsdk\include\point3.h

; 73   : 		 x = a.x; y = a.y; z = a.z; 

	vmovss	xmm0, DWORD PTR [rdi]
	vmovss	xmm1, DWORD PTR [rdi+4]
	vmovss	DWORD PTR $T3[rsp], xmm0
	vmovss	xmm0, DWORD PTR [rdi+8]
; File g:\dropbox\github\berconmaps\src\fractal.cpp

; 111  : 		signal = (Noise::noise(p, np) + np.offset) * pwr;

	mov	rdx, rbx
	lea	rcx, QWORD PTR $T3[rsp]
; File c:\program files\autodesk\3ds max 2019 sdk\maxsdk\include\point3.h

; 73   : 		 x = a.x; y = a.y; z = a.z; 

	vmovss	DWORD PTR $T3[rsp+8], xmm0
	vmovss	DWORD PTR $T3[rsp+4], xmm1
	vminss	xmm6, xmm9, xmm4
; File g:\dropbox\github\berconmaps\src\fractal.cpp

; 111  : 		signal = (Noise::noise(p, np) + np.offset) * pwr;

	call	?noise@Noise@@SAMVPoint3@@AEAVNoiseParams@@@Z ; Noise::noise
	vaddss	xmm1, xmm0, DWORD PTR [rbx+48]

; 114  : 		weight *= np.gain * signal;
; 115  : 		p *= np.lacunarity;

	vmovss	xmm3, DWORD PTR [rbx+44]
	vmulss	xmm2, xmm1, xmm8
	vmulss	xmm1, xmm2, DWORD PTR [rbx+52]
	vmulss	xmm0, xmm2, xmm6
	vmulss	xmm4, xmm6, xmm1
; File c:\program files\autodesk\3ds max 2019 sdk\maxsdk\include\point3.h

; 271  :    x *= f;   y *= f; z *= f;

	vmulss	xmm1, xmm3, DWORD PTR [rdi+4]
; File g:\dropbox\github\berconmaps\src\fractal.cpp

; 113  : 		sum += weight * signal;

	vaddss	xmm7, xmm7, xmm0
; File c:\program files\autodesk\3ds max 2019 sdk\maxsdk\include\point3.h

; 271  :    x *= f;   y *= f; z *= f;

	vmulss	xmm0, xmm3, DWORD PTR [rdi]
	vmovss	DWORD PTR [rdi+4], xmm1
; File g:\dropbox\github\berconmaps\src\fractal.cpp

; 109  : 	for (int i=1; (weight>0.001) && (i<(int)np.levels); i++) {

	vcvtss2sd xmm1, xmm4, xmm4
; File c:\program files\autodesk\3ds max 2019 sdk\maxsdk\include\point3.h

; 271  :    x *= f;   y *= f; z *= f;

	vmovss	DWORD PTR [rdi], xmm0
	vmulss	xmm0, xmm3, DWORD PTR [rdi+8]
; File g:\dropbox\github\berconmaps\src\fractal.cpp

; 109  : 	for (int i=1; (weight>0.001) && (i<(int)np.levels); i++) {

	inc	esi
	vcomisd	xmm1, xmm11
; File c:\program files\autodesk\3ds max 2019 sdk\maxsdk\include\point3.h

; 271  :    x *= f;   y *= f; z *= f;

	vmovss	DWORD PTR [rdi+8], xmm0
; File g:\dropbox\github\berconmaps\src\fractal.cpp

; 112  : 		pwr *= pwHL;

	vmulss	xmm8, xmm8, xmm10
	ja	$LL4@hybridMult
$LN27@hybridMult:

; 116  : 	}
; 117  : 
; 118  : 	rmd = np.levels - FASTFLOOR(np.levels);

	vmovss	xmm1, DWORD PTR [rbx+36]
	vxorps	xmm2, xmm2, xmm2
	vcomiss	xmm2, xmm1
	vcvttss2si eax, xmm1
	jbe	SHORT $LN9@hybridMult
	dec	eax
$LN9@hybridMult:
	vxorps	xmm0, xmm0, xmm0
	vcvtsi2ss xmm0, xmm0, eax
	vsubss	xmm6, xmm1, xmm0

; 119  : 	if (rmd!=0.f) sum += rmd * (Noise::noise(p, np) + np.offset) * pwr;	

	vucomiss xmm6, xmm2
	jp	SHORT $LN26@hybridMult
	je	SHORT $LN6@hybridMult
$LN26@hybridMult:
; File c:\program files\autodesk\3ds max 2019 sdk\maxsdk\include\point3.h

; 73   : 		 x = a.x; y = a.y; z = a.z; 

	vmovss	xmm0, DWORD PTR [rdi]
	vmovss	xmm1, DWORD PTR [rdi+4]
	vmovss	DWORD PTR $T1[rsp], xmm0
	vmovss	xmm0, DWORD PTR [rdi+8]
; File g:\dropbox\github\berconmaps\src\fractal.cpp

; 119  : 	if (rmd!=0.f) sum += rmd * (Noise::noise(p, np) + np.offset) * pwr;	

	mov	rdx, rbx
	lea	rcx, QWORD PTR $T1[rsp]
; File c:\program files\autodesk\3ds max 2019 sdk\maxsdk\include\point3.h

; 73   : 		 x = a.x; y = a.y; z = a.z; 

	vmovss	DWORD PTR $T1[rsp+8], xmm0
	vmovss	DWORD PTR $T1[rsp+4], xmm1
; File g:\dropbox\github\berconmaps\src\fractal.cpp

; 119  : 	if (rmd!=0.f) sum += rmd * (Noise::noise(p, np) + np.offset) * pwr;	

	call	?noise@Noise@@SAMVPoint3@@AEAVNoiseParams@@@Z ; Noise::noise
	vaddss	xmm1, xmm0, DWORD PTR [rbx+48]
	vmulss	xmm2, xmm1, xmm6
	vmulss	xmm3, xmm2, xmm8
	vaddss	xmm7, xmm7, xmm3
$LN6@hybridMult:

; 120  : 													
; 121  : 	return (sum+1.f)*.5f;
; 122  : }

	lea	r11, QWORD PTR [rsp+144]
	mov	rbx, QWORD PTR [r11+32]
	mov	rsi, QWORD PTR [r11+40]
	vmovaps	xmm6, XMMWORD PTR [r11-16]
	vmovaps	xmm8, XMMWORD PTR [r11-48]
	vmovaps	xmm10, XMMWORD PTR [r11-80]
	vmovaps	xmm11, XMMWORD PTR [r11-96]
	vaddss	xmm0, xmm7, xmm9
	vmulss	xmm0, xmm0, DWORD PTR __real@3f000000
	vmovaps	xmm9, XMMWORD PTR [r11-64]
	vmovaps	xmm7, XMMWORD PTR [rsp+112]
	mov	rsp, r11
	pop	rdi
	ret	0
?hybridMultiFractal@Fractal@@SAMVPoint3@@AEAVNoiseParams@@@Z ENDP ; Fractal::hybridMultiFractal
_TEXT	ENDS
; Function compile flags: /Ogtpy
; File g:\dropbox\github\berconmaps\src\fractal.cpp
; File c:\program files (x86)\microsoft visual studio 14.0\vc\include\cmath
; File g:\dropbox\github\berconmaps\src\fractal.cpp
; File c:\program files (x86)\microsoft visual studio 14.0\vc\include\cmath
; File c:\program files\autodesk\3ds max 2019 sdk\maxsdk\include\point3.h
; File g:\dropbox\github\berconmaps\src\fractal.cpp
; File c:\program files\autodesk\3ds max 2019 sdk\maxsdk\include\point3.h
; File c:\program files (x86)\microsoft visual studio 14.0\vc\include\cmath
; File g:\dropbox\github\berconmaps\src\fractal.cpp
; File c:\program files\autodesk\3ds max 2019 sdk\maxsdk\include\point3.h
; File g:\dropbox\github\berconmaps\src\fractal.cpp
; File c:\program files\autodesk\3ds max 2019 sdk\maxsdk\include\point3.h
; File g:\dropbox\github\berconmaps\src\fractal.cpp
; File c:\program files\autodesk\3ds max 2019 sdk\maxsdk\include\point3.h
; File g:\dropbox\github\berconmaps\src\fractal.cpp
; File c:\program files\autodesk\3ds max 2019 sdk\maxsdk\include\point3.h
; File g:\dropbox\github\berconmaps\src\fractal.cpp
; File c:\program files\autodesk\3ds max 2019 sdk\maxsdk\include\point3.h
; File g:\dropbox\github\berconmaps\src\fractal.cpp
; File c:\program files\autodesk\3ds max 2019 sdk\maxsdk\include\point3.h
; File g:\dropbox\github\berconmaps\src\fractal.cpp
;	COMDAT ?heteroTerrain@Fractal@@SAMVPoint3@@AEAVNoiseParams@@@Z
_TEXT	SEGMENT
$T1 = 32
$T2 = 32
$T3 = 32
p$ = 112
np$ = 120
?heteroTerrain@Fractal@@SAMVPoint3@@AEAVNoiseParams@@@Z PROC ; Fractal::heteroTerrain, COMDAT

; 78   : float Fractal::heteroTerrain(Point3 p, NoiseParams& np) {

$LN27:
	mov	QWORD PTR [rsp+24], rbx
	mov	QWORD PTR [rsp+32], rsi
	push	rdi
	sub	rsp, 96					; 00000060H

; 79   : 	float sum = 0.0f;
; 80   : 	float pwHL = pow(np.lacunarity, -np.H);	

	vmovss	xmm0, DWORD PTR [rdx+40]
	vxorps	xmm1, xmm0, DWORD PTR __xmm@80000000800000008000000080000000
; File c:\program files (x86)\microsoft visual studio 14.0\vc\include\cmath

; 251  : 	return (_CSTD powf(_Xx, _Yx));

	vmovss	xmm0, DWORD PTR [rdx+44]
	vmovaps	XMMWORD PTR [rsp+80], xmm6
; File g:\dropbox\github\berconmaps\src\fractal.cpp

; 78   : float Fractal::heteroTerrain(Point3 p, NoiseParams& np) {

	mov	rdi, rdx
	vmovaps	XMMWORD PTR [rsp+64], xmm7
	mov	rbx, rcx
	vmovaps	XMMWORD PTR [rsp+48], xmm8
; File c:\program files (x86)\microsoft visual studio 14.0\vc\include\cmath

; 251  : 	return (_CSTD powf(_Xx, _Yx));

	call	powf
; File c:\program files\autodesk\3ds max 2019 sdk\maxsdk\include\point3.h

; 73   : 		 x = a.x; y = a.y; z = a.z; 

	vmovss	xmm1, DWORD PTR [rbx]
	vmovss	xmm2, DWORD PTR [rbx+4]
	vmovss	DWORD PTR $T2[rsp], xmm1
	vmovss	xmm1, DWORD PTR [rbx+8]
; File g:\dropbox\github\berconmaps\src\fractal.cpp

; 83   : 	sum = Noise::noise(p, np) + np.offset;

	mov	rdx, rdi
	lea	rcx, QWORD PTR $T2[rsp]
; File c:\program files\autodesk\3ds max 2019 sdk\maxsdk\include\point3.h

; 73   : 		 x = a.x; y = a.y; z = a.z; 

	vmovss	DWORD PTR $T2[rsp+8], xmm1
	vmovss	DWORD PTR $T2[rsp+4], xmm2
; File c:\program files (x86)\microsoft visual studio 14.0\vc\include\cmath

; 251  : 	return (_CSTD powf(_Xx, _Yx));

	vmovaps	xmm8, xmm0
; File g:\dropbox\github\berconmaps\src\fractal.cpp

; 81   : 	float pwr = pwHL;

	vmovaps	xmm7, xmm0

; 83   : 	sum = Noise::noise(p, np) + np.offset;

	call	?noise@Noise@@SAMVPoint3@@AEAVNoiseParams@@@Z ; Noise::noise

; 84   : 	p *= np.lacunarity;

	vmovss	xmm2, DWORD PTR [rdi+44]
	vaddss	xmm6, xmm0, DWORD PTR [rdi+48]
; File c:\program files\autodesk\3ds max 2019 sdk\maxsdk\include\point3.h

; 271  :    x *= f;   y *= f; z *= f;

	vmulss	xmm0, xmm2, DWORD PTR [rbx]
	vmulss	xmm1, xmm2, DWORD PTR [rbx+4]
	vmovss	DWORD PTR [rbx], xmm0
	vmulss	xmm0, xmm2, DWORD PTR [rbx+8]
	vmovss	DWORD PTR [rbx+8], xmm0
	vmovss	DWORD PTR [rbx+4], xmm1
; File g:\dropbox\github\berconmaps\src\fractal.cpp

; 86   : 	for (int i=0; i<(int)np.levels; i++) {

	vcvttss2si eax, DWORD PTR [rdi+36]
	xor	esi, esi
	test	eax, eax
	jle	SHORT $LN3@heteroTerr
	npad	12
$LL4@heteroTerr:
; File c:\program files\autodesk\3ds max 2019 sdk\maxsdk\include\point3.h

; 73   : 		 x = a.x; y = a.y; z = a.z; 

	vmovss	xmm0, DWORD PTR [rbx]
	vmovss	xmm1, DWORD PTR [rbx+4]
	vmovss	DWORD PTR $T3[rsp], xmm0
	vmovss	xmm0, DWORD PTR [rbx+8]
; File g:\dropbox\github\berconmaps\src\fractal.cpp

; 87   : 		sum += (Noise::noise(p, np) + np.offset) * pwr * sum;

	mov	rdx, rdi
	lea	rcx, QWORD PTR $T3[rsp]
; File c:\program files\autodesk\3ds max 2019 sdk\maxsdk\include\point3.h

; 73   : 		 x = a.x; y = a.y; z = a.z; 

	vmovss	DWORD PTR $T3[rsp+8], xmm0
	vmovss	DWORD PTR $T3[rsp+4], xmm1
; File g:\dropbox\github\berconmaps\src\fractal.cpp

; 87   : 		sum += (Noise::noise(p, np) + np.offset) * pwr * sum;

	call	?noise@Noise@@SAMVPoint3@@AEAVNoiseParams@@@Z ; Noise::noise
	vaddss	xmm1, xmm0, DWORD PTR [rdi+48]
	vmulss	xmm2, xmm1, xmm7
	vmulss	xmm3, xmm2, xmm6

; 89   : 		p *= np.lacunarity;

	vmovss	xmm2, DWORD PTR [rdi+44]
; File c:\program files\autodesk\3ds max 2019 sdk\maxsdk\include\point3.h

; 271  :    x *= f;   y *= f; z *= f;

	vmulss	xmm0, xmm2, DWORD PTR [rbx]
	vmulss	xmm1, xmm2, DWORD PTR [rbx+4]
	vmovss	DWORD PTR [rbx], xmm0
	vmulss	xmm0, xmm2, DWORD PTR [rbx+8]
	vmovss	DWORD PTR [rbx+8], xmm0
	vmovss	DWORD PTR [rbx+4], xmm1
; File g:\dropbox\github\berconmaps\src\fractal.cpp

; 86   : 	for (int i=0; i<(int)np.levels; i++) {

	vcvttss2si eax, DWORD PTR [rdi+36]
	inc	esi

; 87   : 		sum += (Noise::noise(p, np) + np.offset) * pwr * sum;

	vaddss	xmm6, xmm6, xmm3

; 88   : 		pwr *= pwHL;

	vmulss	xmm7, xmm7, xmm8
	cmp	esi, eax
	jl	SHORT $LL4@heteroTerr
$LN3@heteroTerr:

; 90   : 	}
; 91   : 
; 92   : 	float rmd = np.levels - FASTFLOOR(np.levels);

	vmovss	xmm1, DWORD PTR [rdi+36]
	vxorps	xmm2, xmm2, xmm2
	vcomiss	xmm2, xmm1
	vcvttss2si eax, xmm1
	jbe	SHORT $LN8@heteroTerr
	dec	eax
$LN8@heteroTerr:
	vxorps	xmm0, xmm0, xmm0
	vcvtsi2ss xmm0, xmm0, eax
	vsubss	xmm8, xmm1, xmm0

; 93   : 	if (rmd!=0.f) sum += rmd * (Noise::noise(p, np) + np.offset) * pwr * sum;

	vucomiss xmm8, xmm2
	jp	SHORT $LN25@heteroTerr
	je	SHORT $LN5@heteroTerr
$LN25@heteroTerr:
; File c:\program files\autodesk\3ds max 2019 sdk\maxsdk\include\point3.h

; 73   : 		 x = a.x; y = a.y; z = a.z; 

	vmovss	xmm0, DWORD PTR [rbx]
	vmovss	xmm1, DWORD PTR [rbx+4]
	vmovss	DWORD PTR $T1[rsp], xmm0
	vmovss	xmm0, DWORD PTR [rbx+8]
; File g:\dropbox\github\berconmaps\src\fractal.cpp

; 93   : 	if (rmd!=0.f) sum += rmd * (Noise::noise(p, np) + np.offset) * pwr * sum;

	mov	rdx, rdi
	lea	rcx, QWORD PTR $T1[rsp]
; File c:\program files\autodesk\3ds max 2019 sdk\maxsdk\include\point3.h

; 73   : 		 x = a.x; y = a.y; z = a.z; 

	vmovss	DWORD PTR $T1[rsp+8], xmm0
	vmovss	DWORD PTR $T1[rsp+4], xmm1
; File g:\dropbox\github\berconmaps\src\fractal.cpp

; 93   : 	if (rmd!=0.f) sum += rmd * (Noise::noise(p, np) + np.offset) * pwr * sum;

	call	?noise@Noise@@SAMVPoint3@@AEAVNoiseParams@@@Z ; Noise::noise
	vaddss	xmm1, xmm0, DWORD PTR [rdi+48]
	vmulss	xmm2, xmm1, xmm8
	vmulss	xmm3, xmm2, xmm7
	vmulss	xmm0, xmm3, xmm6
	vaddss	xmm6, xmm6, xmm0
$LN5@heteroTerr:

; 94   : 
; 95   : 	return (sum+1.f)*.5f;

	vaddss	xmm0, xmm6, DWORD PTR __real@3f800000
	vmulss	xmm0, xmm0, DWORD PTR __real@3f000000

; 96   : }

	vmovaps	xmm6, XMMWORD PTR [rsp+80]
	lea	r11, QWORD PTR [rsp+96]
	mov	rbx, QWORD PTR [r11+32]
	mov	rsi, QWORD PTR [r11+40]
	vmovaps	xmm8, XMMWORD PTR [r11-48]
	vmovaps	xmm7, XMMWORD PTR [rsp+64]
	mov	rsp, r11
	pop	rdi
	ret	0
?heteroTerrain@Fractal@@SAMVPoint3@@AEAVNoiseParams@@@Z ENDP ; Fractal::heteroTerrain
_TEXT	ENDS
; Function compile flags: /Ogtpy
; File g:\dropbox\github\berconmaps\src\fractal.cpp
; File c:\program files (x86)\microsoft visual studio 14.0\vc\include\cmath
; File g:\dropbox\github\berconmaps\src\fractal.cpp
; File c:\program files (x86)\microsoft visual studio 14.0\vc\include\cmath
; File g:\dropbox\github\berconmaps\src\fractal.cpp
; File c:\program files (x86)\microsoft visual studio 14.0\vc\include\cmath
; File g:\dropbox\github\berconmaps\src\fractal.cpp
; File c:\program files\autodesk\3ds max 2019 sdk\maxsdk\include\point3.h
; File g:\dropbox\github\berconmaps\src\fractal.cpp
; File c:\program files\autodesk\3ds max 2019 sdk\maxsdk\include\point3.h
; File g:\dropbox\github\berconmaps\src\fractal.cpp
; File c:\program files (x86)\windows kits\10\include\10.0.10586.0\ucrt\math.h
; File g:\dropbox\github\berconmaps\src\fractal.cpp
; File c:\program files\autodesk\3ds max 2019 sdk\maxsdk\include\point3.h
; File g:\dropbox\github\berconmaps\src\fractal.cpp
; File c:\program files\autodesk\3ds max 2019 sdk\maxsdk\include\point3.h
; File g:\dropbox\github\berconmaps\src\fractal.cpp
; File c:\program files\autodesk\3ds max 2019 sdk\maxsdk\include\point3.h
; File g:\dropbox\github\berconmaps\src\fractal.cpp
; File c:\program files\autodesk\3ds max 2019 sdk\maxsdk\include\point3.h
; File g:\dropbox\github\berconmaps\src\fractal.cpp
; File c:\program files (x86)\windows kits\10\include\10.0.10586.0\ucrt\math.h
; File g:\dropbox\github\berconmaps\src\fractal.cpp
;	COMDAT ?fBmTurb@Fractal@@SAMVPoint3@@AEAVNoiseParams@@@Z
_TEXT	SEGMENT
$T1 = 32
$T2 = 32
p$ = 144
np$ = 152
?fBmTurb@Fractal@@SAMVPoint3@@AEAVNoiseParams@@@Z PROC	; Fractal::fBmTurb, COMDAT

; 61   : float Fractal::fBmTurb(Point3 p, NoiseParams& np) {

$LN32:
	mov	rax, rsp
	mov	QWORD PTR [rax+24], rbx
	mov	QWORD PTR [rax+32], rsi
	push	rdi
	sub	rsp, 128				; 00000080H

; 64   : 	float pwHL = pow(np.lacunarity, -np.H);	

	vmovss	xmm0, DWORD PTR [rdx+40]
	vxorps	xmm1, xmm0, DWORD PTR __xmm@80000000800000008000000080000000
; File c:\program files (x86)\microsoft visual studio 14.0\vc\include\cmath

; 251  : 	return (_CSTD powf(_Xx, _Yx));

	vmovss	xmm0, DWORD PTR [rdx+44]
	vmovaps	XMMWORD PTR [rax-24], xmm6
; File g:\dropbox\github\berconmaps\src\fractal.cpp

; 61   : float Fractal::fBmTurb(Point3 p, NoiseParams& np) {

	mov	rdi, rdx
	vmovaps	XMMWORD PTR [rax-40], xmm7
	mov	rbx, rcx

; 62   : 	float sum = 0.0f;
; 63   : 	float pwr = 1.0f;

	vmovss	xmm7, DWORD PTR __real@3f800000
	vmovaps	XMMWORD PTR [rax-56], xmm8
	vmovaps	XMMWORD PTR [rax-72], xmm9
	vxorps	xmm9, xmm9, xmm9
	vmovaps	xmm6, xmm9
	vmovaps	XMMWORD PTR [rax-88], xmm10
; File c:\program files (x86)\microsoft visual studio 14.0\vc\include\cmath

; 251  : 	return (_CSTD powf(_Xx, _Yx));

	call	powf
; File g:\dropbox\github\berconmaps\src\fractal.cpp

; 66   : 	for (int i=0; i<(int)np.levels; i++) {

	vcvttss2si eax, DWORD PTR [rdi+36]
	vmovsd	xmm10, QWORD PTR __xmm@7fffffffffffffff7fffffffffffffff
	xor	esi, esi
; File c:\program files (x86)\microsoft visual studio 14.0\vc\include\cmath

; 251  : 	return (_CSTD powf(_Xx, _Yx));

	vmovaps	xmm8, xmm0
; File g:\dropbox\github\berconmaps\src\fractal.cpp

; 66   : 	for (int i=0; i<(int)np.levels; i++) {

	test	eax, eax
	jle	$LN3@fBmTurb
	npad	10
$LL4@fBmTurb:
; File c:\program files\autodesk\3ds max 2019 sdk\maxsdk\include\point3.h

; 73   : 		 x = a.x; y = a.y; z = a.z; 

	vmovss	xmm0, DWORD PTR [rbx]
	vmovss	xmm1, DWORD PTR [rbx+4]
	vmovss	DWORD PTR $T2[rsp], xmm0
	vmovss	xmm0, DWORD PTR [rbx+8]
; File g:\dropbox\github\berconmaps\src\fractal.cpp

; 67   : 		sum += fabs(Noise::noise(p, np)) * pwr;

	mov	rdx, rdi
	lea	rcx, QWORD PTR $T2[rsp]
; File c:\program files\autodesk\3ds max 2019 sdk\maxsdk\include\point3.h

; 73   : 		 x = a.x; y = a.y; z = a.z; 

	vmovss	DWORD PTR $T2[rsp+8], xmm0
	vmovss	DWORD PTR $T2[rsp+4], xmm1
; File g:\dropbox\github\berconmaps\src\fractal.cpp

; 67   : 		sum += fabs(Noise::noise(p, np)) * pwr;

	call	?noise@Noise@@SAMVPoint3@@AEAVNoiseParams@@@Z ; Noise::noise

; 69   : 		p *= np.lacunarity;

	vmovss	xmm2, DWORD PTR [rdi+44]
; File c:\program files (x86)\windows kits\10\include\10.0.10586.0\ucrt\math.h

; 671  :         return (float)fabs(_X);

	vcvtss2sd xmm1, xmm0, xmm0
	vandpd	xmm1, xmm1, xmm10
	vcvtsd2ss xmm1, xmm1, xmm1
; File g:\dropbox\github\berconmaps\src\fractal.cpp

; 67   : 		sum += fabs(Noise::noise(p, np)) * pwr;

	vmulss	xmm0, xmm1, xmm7
; File c:\program files\autodesk\3ds max 2019 sdk\maxsdk\include\point3.h

; 271  :    x *= f;   y *= f; z *= f;

	vmulss	xmm1, xmm2, DWORD PTR [rbx+4]
; File g:\dropbox\github\berconmaps\src\fractal.cpp

; 67   : 		sum += fabs(Noise::noise(p, np)) * pwr;

	vaddss	xmm6, xmm6, xmm0
; File c:\program files\autodesk\3ds max 2019 sdk\maxsdk\include\point3.h

; 271  :    x *= f;   y *= f; z *= f;

	vmulss	xmm0, xmm2, DWORD PTR [rbx]
	vmovss	DWORD PTR [rbx], xmm0
	vmulss	xmm0, xmm2, DWORD PTR [rbx+8]
	vmovss	DWORD PTR [rbx+8], xmm0
	vmovss	DWORD PTR [rbx+4], xmm1
; File g:\dropbox\github\berconmaps\src\fractal.cpp

; 66   : 	for (int i=0; i<(int)np.levels; i++) {

	vcvttss2si eax, DWORD PTR [rdi+36]
	inc	esi

; 68   : 		pwr *= pwHL;

	vmulss	xmm7, xmm7, xmm8
	cmp	esi, eax
	jl	SHORT $LL4@fBmTurb
$LN3@fBmTurb:

; 70   : 	}
; 71   : 
; 72   : 	float rmd = np.levels - FASTFLOOR(np.levels);

	vmovss	xmm0, DWORD PTR [rdi+36]
	vcomiss	xmm9, xmm0
	vcvttss2si eax, xmm0
	jbe	SHORT $LN8@fBmTurb
	dec	eax
$LN8@fBmTurb:
	vxorps	xmm1, xmm1, xmm1
	vcvtsi2ss xmm1, xmm1, eax
	vsubss	xmm8, xmm0, xmm1

; 73   : 	if (rmd!=0.f) sum += rmd * fabs(Noise::noise(p, np)) * pwr;

	vucomiss xmm8, xmm9
	jp	SHORT $LN29@fBmTurb
	jne	SHORT $LN29@fBmTurb

; 74   : 
; 75   : 	return sum;

	vmovaps	xmm0, xmm6
	jmp	SHORT $LN5@fBmTurb
$LN29@fBmTurb:
; File c:\program files\autodesk\3ds max 2019 sdk\maxsdk\include\point3.h

; 73   : 		 x = a.x; y = a.y; z = a.z; 

	vmovss	xmm0, DWORD PTR [rbx]
	vmovss	xmm1, DWORD PTR [rbx+4]
	vmovss	DWORD PTR $T1[rsp], xmm0
	vmovss	xmm0, DWORD PTR [rbx+8]
; File g:\dropbox\github\berconmaps\src\fractal.cpp

; 73   : 	if (rmd!=0.f) sum += rmd * fabs(Noise::noise(p, np)) * pwr;

	mov	rdx, rdi
	lea	rcx, QWORD PTR $T1[rsp]
; File c:\program files\autodesk\3ds max 2019 sdk\maxsdk\include\point3.h

; 73   : 		 x = a.x; y = a.y; z = a.z; 

	vmovss	DWORD PTR $T1[rsp+8], xmm0
	vmovss	DWORD PTR $T1[rsp+4], xmm1
; File g:\dropbox\github\berconmaps\src\fractal.cpp

; 73   : 	if (rmd!=0.f) sum += rmd * fabs(Noise::noise(p, np)) * pwr;

	call	?noise@Noise@@SAMVPoint3@@AEAVNoiseParams@@@Z ; Noise::noise
; File c:\program files (x86)\windows kits\10\include\10.0.10586.0\ucrt\math.h

; 671  :         return (float)fabs(_X);

	vcvtss2sd xmm1, xmm0, xmm0
	vandpd	xmm1, xmm1, xmm10
	vcvtsd2ss xmm1, xmm1, xmm1
; File g:\dropbox\github\berconmaps\src\fractal.cpp

; 73   : 	if (rmd!=0.f) sum += rmd * fabs(Noise::noise(p, np)) * pwr;

	vmulss	xmm0, xmm1, xmm8
	vmulss	xmm2, xmm0, xmm7
	vaddss	xmm0, xmm6, xmm2
$LN5@fBmTurb:

; 76   : }

	vmovaps	xmm6, XMMWORD PTR [rsp+112]
	lea	r11, QWORD PTR [rsp+128]
	mov	rbx, QWORD PTR [r11+32]
	mov	rsi, QWORD PTR [r11+40]
	vmovaps	xmm8, XMMWORD PTR [r11-48]
	vmovaps	xmm9, XMMWORD PTR [r11-64]
	vmovaps	xmm10, XMMWORD PTR [r11-80]
	vmovaps	xmm7, XMMWORD PTR [rsp+96]
	mov	rsp, r11
	pop	rdi
	ret	0
?fBmTurb@Fractal@@SAMVPoint3@@AEAVNoiseParams@@@Z ENDP	; Fractal::fBmTurb
_TEXT	ENDS
; Function compile flags: /Ogtpy
; File g:\dropbox\github\berconmaps\src\fractal.cpp
; File c:\program files (x86)\microsoft visual studio 14.0\vc\include\cmath
; File g:\dropbox\github\berconmaps\src\fractal.cpp
; File c:\program files (x86)\microsoft visual studio 14.0\vc\include\cmath
; File g:\dropbox\github\berconmaps\src\fractal.cpp
; File c:\program files (x86)\microsoft visual studio 14.0\vc\include\cmath
; File g:\dropbox\github\berconmaps\src\fractal.cpp
; File c:\program files\autodesk\3ds max 2019 sdk\maxsdk\include\point3.h
; File g:\dropbox\github\berconmaps\src\fractal.cpp
; File c:\program files\autodesk\3ds max 2019 sdk\maxsdk\include\point3.h
; File g:\dropbox\github\berconmaps\src\fractal.cpp
; File c:\program files\autodesk\3ds max 2019 sdk\maxsdk\include\point3.h
; File g:\dropbox\github\berconmaps\src\fractal.cpp
; File c:\program files\autodesk\3ds max 2019 sdk\maxsdk\include\point3.h
; File g:\dropbox\github\berconmaps\src\fractal.cpp
; File c:\program files\autodesk\3ds max 2019 sdk\maxsdk\include\point3.h
; File g:\dropbox\github\berconmaps\src\fractal.cpp
; File c:\program files\autodesk\3ds max 2019 sdk\maxsdk\include\point3.h
; File g:\dropbox\github\berconmaps\src\fractal.cpp
;	COMDAT ?fBm@Fractal@@SAMVPoint3@@AEAVNoiseParams@@@Z
_TEXT	SEGMENT
$T1 = 32
$T2 = 32
p$ = 128
np$ = 136
?fBm@Fractal@@SAMVPoint3@@AEAVNoiseParams@@@Z PROC	; Fractal::fBm, COMDAT

; 44   : float Fractal::fBm(Point3 p, NoiseParams& np) {

$LN23:
	mov	QWORD PTR [rsp+24], rbx
	mov	QWORD PTR [rsp+32], rsi
	push	rdi
	sub	rsp, 112				; 00000070H

; 47   : 	float pwHL = pow(np.lacunarity, -np.H);	

	vmovss	xmm0, DWORD PTR [rdx+40]
	vxorps	xmm1, xmm0, DWORD PTR __xmm@80000000800000008000000080000000
; File c:\program files (x86)\microsoft visual studio 14.0\vc\include\cmath

; 251  : 	return (_CSTD powf(_Xx, _Yx));

	vmovss	xmm0, DWORD PTR [rdx+44]
	vmovaps	XMMWORD PTR [rsp+96], xmm6
; File g:\dropbox\github\berconmaps\src\fractal.cpp

; 44   : float Fractal::fBm(Point3 p, NoiseParams& np) {

	mov	rdi, rdx
	vmovaps	XMMWORD PTR [rsp+80], xmm7
	mov	rbx, rcx

; 45   : 	float sum = 0.0f;
; 46   : 	float pwr = 1.0f;

	vmovss	xmm7, DWORD PTR __real@3f800000
	vmovaps	XMMWORD PTR [rsp+64], xmm8
	vmovaps	XMMWORD PTR [rsp+48], xmm9
	vxorps	xmm9, xmm9, xmm9
	vmovaps	xmm6, xmm9
; File c:\program files (x86)\microsoft visual studio 14.0\vc\include\cmath

; 251  : 	return (_CSTD powf(_Xx, _Yx));

	call	powf
; File g:\dropbox\github\berconmaps\src\fractal.cpp

; 49   : 	for (int i=0; i<(int)np.levels; i++) {

	vcvttss2si eax, DWORD PTR [rdi+36]
	xor	esi, esi
; File c:\program files (x86)\microsoft visual studio 14.0\vc\include\cmath

; 251  : 	return (_CSTD powf(_Xx, _Yx));

	vmovaps	xmm8, xmm0
; File g:\dropbox\github\berconmaps\src\fractal.cpp

; 49   : 	for (int i=0; i<(int)np.levels; i++) {

	test	eax, eax
	jle	SHORT $LN3@fBm
	npad	11
$LL4@fBm:
; File c:\program files\autodesk\3ds max 2019 sdk\maxsdk\include\point3.h

; 73   : 		 x = a.x; y = a.y; z = a.z; 

	vmovss	xmm1, DWORD PTR [rbx]
	vmovss	xmm2, DWORD PTR [rbx+4]
	vmovss	xmm0, DWORD PTR [rbx+8]
; File g:\dropbox\github\berconmaps\src\fractal.cpp

; 50   : 		sum += Noise::noise(p, np) * pwr;

	mov	rdx, rdi
	lea	rcx, QWORD PTR $T2[rsp]
; File c:\program files\autodesk\3ds max 2019 sdk\maxsdk\include\point3.h

; 73   : 		 x = a.x; y = a.y; z = a.z; 

	vmovss	DWORD PTR $T2[rsp], xmm1
	vmovss	DWORD PTR $T2[rsp+4], xmm2
	vmovss	DWORD PTR $T2[rsp+8], xmm0
; File g:\dropbox\github\berconmaps\src\fractal.cpp

; 50   : 		sum += Noise::noise(p, np) * pwr;

	call	?noise@Noise@@SAMVPoint3@@AEAVNoiseParams@@@Z ; Noise::noise

; 52   : 		p *= np.lacunarity;

	vmovss	xmm2, DWORD PTR [rdi+44]
	vmulss	xmm1, xmm0, xmm7
; File c:\program files\autodesk\3ds max 2019 sdk\maxsdk\include\point3.h

; 271  :    x *= f;   y *= f; z *= f;

	vmulss	xmm0, xmm2, DWORD PTR [rbx]
	vmovss	DWORD PTR [rbx], xmm0
	vmulss	xmm0, xmm2, DWORD PTR [rbx+8]
; File g:\dropbox\github\berconmaps\src\fractal.cpp

; 50   : 		sum += Noise::noise(p, np) * pwr;

	vaddss	xmm6, xmm6, xmm1
; File c:\program files\autodesk\3ds max 2019 sdk\maxsdk\include\point3.h

; 271  :    x *= f;   y *= f; z *= f;

	vmulss	xmm1, xmm2, DWORD PTR [rbx+4]
	vmovss	DWORD PTR [rbx+8], xmm0
	vmovss	DWORD PTR [rbx+4], xmm1
; File g:\dropbox\github\berconmaps\src\fractal.cpp

; 49   : 	for (int i=0; i<(int)np.levels; i++) {

	vcvttss2si eax, DWORD PTR [rdi+36]
	inc	esi

; 51   : 		pwr *= pwHL;

	vmulss	xmm7, xmm7, xmm8
	cmp	esi, eax
	jl	SHORT $LL4@fBm
$LN3@fBm:

; 53   : 	}
; 54   : 
; 55   : 	float rmd = np.levels - FASTFLOOR(np.levels);

	vmovss	xmm1, DWORD PTR [rdi+36]
	vcomiss	xmm9, xmm1
	vcvttss2si eax, xmm1
	jbe	SHORT $LN8@fBm
	dec	eax
$LN8@fBm:
	vxorps	xmm0, xmm0, xmm0
	vcvtsi2ss xmm0, xmm0, eax
	vsubss	xmm8, xmm1, xmm0

; 56   : 	if (rmd!=0.f) sum += rmd * Noise::noise(p, np) * pwr;

	vucomiss xmm8, xmm9
	jp	SHORT $LN21@fBm
	je	SHORT $LN5@fBm
$LN21@fBm:
; File c:\program files\autodesk\3ds max 2019 sdk\maxsdk\include\point3.h

; 73   : 		 x = a.x; y = a.y; z = a.z; 

	vmovss	xmm0, DWORD PTR [rbx]
	vmovss	xmm1, DWORD PTR [rbx+4]
	vmovss	DWORD PTR $T1[rsp], xmm0
	vmovss	xmm0, DWORD PTR [rbx+8]
; File g:\dropbox\github\berconmaps\src\fractal.cpp

; 56   : 	if (rmd!=0.f) sum += rmd * Noise::noise(p, np) * pwr;

	mov	rdx, rdi
	lea	rcx, QWORD PTR $T1[rsp]
; File c:\program files\autodesk\3ds max 2019 sdk\maxsdk\include\point3.h

; 73   : 		 x = a.x; y = a.y; z = a.z; 

	vmovss	DWORD PTR $T1[rsp+8], xmm0
	vmovss	DWORD PTR $T1[rsp+4], xmm1
; File g:\dropbox\github\berconmaps\src\fractal.cpp

; 56   : 	if (rmd!=0.f) sum += rmd * Noise::noise(p, np) * pwr;

	call	?noise@Noise@@SAMVPoint3@@AEAVNoiseParams@@@Z ; Noise::noise
	vmulss	xmm1, xmm0, xmm8
	vmulss	xmm2, xmm1, xmm7
	vaddss	xmm6, xmm6, xmm2
$LN5@fBm:

; 57   : 
; 58   : 	return (sum+1.f)*.5f;

	vaddss	xmm0, xmm6, DWORD PTR __real@3f800000
	vmulss	xmm0, xmm0, DWORD PTR __real@3f000000

; 59   : }

	vmovaps	xmm6, XMMWORD PTR [rsp+96]
	lea	r11, QWORD PTR [rsp+112]
	mov	rbx, QWORD PTR [r11+32]
	mov	rsi, QWORD PTR [r11+40]
	vmovaps	xmm8, XMMWORD PTR [r11-48]
	vmovaps	xmm9, XMMWORD PTR [r11-64]
	vmovaps	xmm7, XMMWORD PTR [rsp+80]
	mov	rsp, r11
	pop	rdi
	ret	0
?fBm@Fractal@@SAMVPoint3@@AEAVNoiseParams@@@Z ENDP	; Fractal::fBm
_TEXT	ENDS
; Function compile flags: /Ogtpy
; File g:\dropbox\github\berconmaps\src\fractal.cpp
; File c:\program files\autodesk\3ds max 2019 sdk\maxsdk\include\point3.h
; File g:\dropbox\github\berconmaps\src\fractal.cpp
; File c:\program files\autodesk\3ds max 2019 sdk\maxsdk\include\point3.h
; File g:\dropbox\github\berconmaps\src\fractal.cpp
; File c:\program files (x86)\windows kits\10\include\10.0.10586.0\ucrt\math.h
; File g:\dropbox\github\berconmaps\src\fractal.cpp
; File c:\program files\autodesk\3ds max 2019 sdk\maxsdk\include\point3.h
; File g:\dropbox\github\berconmaps\src\fractal.cpp
; File c:\program files\autodesk\3ds max 2019 sdk\maxsdk\include\point3.h
; File g:\dropbox\github\berconmaps\src\fractal.cpp
; File c:\program files (x86)\windows kits\10\include\10.0.10586.0\ucrt\math.h
; File g:\dropbox\github\berconmaps\src\fractal.cpp
;	COMDAT ?turbulence@Fractal@@SAMVPoint3@@AEAVNoiseParams@@@Z
_TEXT	SEGMENT
$T1 = 32
$T2 = 32
p$ = 176
np$ = 184
?turbulence@Fractal@@SAMVPoint3@@AEAVNoiseParams@@@Z PROC ; Fractal::turbulence, COMDAT

; 32   : float Fractal::turbulence(Point3 p, NoiseParams& np) {

$LN29:
	mov	rax, rsp
	mov	QWORD PTR [rax+8], rbx
	push	rdi
	sub	rsp, 160				; 000000a0H
	vmovaps	XMMWORD PTR [rax-24], xmm6
	mov	rdi, rdx
	vmovaps	XMMWORD PTR [rax-40], xmm7
	mov	rbx, rcx

; 33   : 	float sum = 0.0f;
; 34   : 	float l,f = 1.0f;	
; 35   : 	for (l = np.levels; l >= 1.0f; l-=1.0f) {

	vmovss	xmm7, DWORD PTR [rdx+36]
	vmovaps	XMMWORD PTR [rax-56], xmm8
	vmovaps	XMMWORD PTR [rax-104], xmm11
	vmovsd	xmm11, QWORD PTR __xmm@7fffffffffffffff7fffffffffffffff
	vmovaps	XMMWORD PTR [rax-72], xmm9
	vmovss	xmm9, DWORD PTR __real@3f800000
	vcomiss	xmm7, xmm9
	vmovaps	XMMWORD PTR [rax-88], xmm10
	vxorps	xmm10, xmm10, xmm10
	vmovaps	xmm8, xmm10
	vmovaps	xmm6, xmm9
	jb	SHORT $LN3@turbulence
	vmovaps	XMMWORD PTR [rax-120], xmm12
	vmovss	xmm12, DWORD PTR __real@bf800000
	npad	5
$LL4@turbulence:
; File c:\program files\autodesk\3ds max 2019 sdk\maxsdk\include\point3.h

; 327  :    return(Point3(a.x*f, a.y*f, a.z*f));

	vmulss	xmm0, xmm6, DWORD PTR [rbx]
	vmulss	xmm1, xmm6, DWORD PTR [rbx+4]
	vmovss	DWORD PTR $T2[rsp], xmm0
	vmulss	xmm0, xmm6, DWORD PTR [rbx+8]
; File g:\dropbox\github\berconmaps\src\fractal.cpp

; 36   : 		sum += fabs(Noise::noise(p*f, np))/f;

	mov	rdx, rdi
	lea	rcx, QWORD PTR $T2[rsp]
; File c:\program files\autodesk\3ds max 2019 sdk\maxsdk\include\point3.h

; 327  :    return(Point3(a.x*f, a.y*f, a.z*f));

	vmovss	DWORD PTR $T2[rsp+8], xmm0
	vmovss	DWORD PTR $T2[rsp+4], xmm1
; File g:\dropbox\github\berconmaps\src\fractal.cpp

; 36   : 		sum += fabs(Noise::noise(p*f, np))/f;

	call	?noise@Noise@@SAMVPoint3@@AEAVNoiseParams@@@Z ; Noise::noise
; File c:\program files (x86)\windows kits\10\include\10.0.10586.0\ucrt\math.h

; 671  :         return (float)fabs(_X);

	vcvtss2sd xmm1, xmm0, xmm0
	vandpd	xmm1, xmm1, xmm11
	vcvtsd2ss xmm1, xmm1, xmm1
; File g:\dropbox\github\berconmaps\src\fractal.cpp

; 36   : 		sum += fabs(Noise::noise(p*f, np))/f;

	vdivss	xmm0, xmm1, xmm6
	vaddss	xmm7, xmm7, xmm12
	vcomiss	xmm7, xmm9
	vaddss	xmm8, xmm8, xmm0

; 37   : 		f *= 2.0f;

	vaddss	xmm6, xmm6, xmm6
	jae	SHORT $LL4@turbulence
	vmovaps	xmm12, XMMWORD PTR [rsp+48]
$LN3@turbulence:
	vmovaps	xmm9, XMMWORD PTR [rsp+96]

; 38   : 	}
; 39   : 	if (l>0.0f)

	vcomiss	xmm7, xmm10
	vmovaps	xmm10, XMMWORD PTR [rsp+80]
	jbe	SHORT $LN27@turbulence
; File c:\program files\autodesk\3ds max 2019 sdk\maxsdk\include\point3.h

; 327  :    return(Point3(a.x*f, a.y*f, a.z*f));

	vmulss	xmm0, xmm6, DWORD PTR [rbx]
	vmulss	xmm1, xmm6, DWORD PTR [rbx+4]
	vmovss	DWORD PTR $T1[rsp], xmm0
	vmulss	xmm0, xmm6, DWORD PTR [rbx+8]
; File g:\dropbox\github\berconmaps\src\fractal.cpp

; 40   : 		sum += l*fabs(Noise::noise(p*f, np))/f;

	mov	rdx, rdi
	lea	rcx, QWORD PTR $T1[rsp]
; File c:\program files\autodesk\3ds max 2019 sdk\maxsdk\include\point3.h

; 327  :    return(Point3(a.x*f, a.y*f, a.z*f));

	vmovss	DWORD PTR $T1[rsp+8], xmm0
	vmovss	DWORD PTR $T1[rsp+4], xmm1
; File g:\dropbox\github\berconmaps\src\fractal.cpp

; 40   : 		sum += l*fabs(Noise::noise(p*f, np))/f;

	call	?noise@Noise@@SAMVPoint3@@AEAVNoiseParams@@@Z ; Noise::noise
; File c:\program files (x86)\windows kits\10\include\10.0.10586.0\ucrt\math.h

; 671  :         return (float)fabs(_X);

	vcvtss2sd xmm1, xmm0, xmm0
	vandpd	xmm1, xmm1, xmm11
	vcvtsd2ss xmm1, xmm1, xmm1
; File g:\dropbox\github\berconmaps\src\fractal.cpp

; 40   : 		sum += l*fabs(Noise::noise(p*f, np))/f;

	vmulss	xmm0, xmm1, xmm7
	vdivss	xmm2, xmm0, xmm6
	vaddss	xmm0, xmm8, xmm2
	jmp	SHORT $LN5@turbulence
$LN27@turbulence:

; 41   : 	return sum;

	vmovaps	xmm0, xmm8
$LN5@turbulence:

; 42   : }

	lea	r11, QWORD PTR [rsp+160]
	mov	rbx, QWORD PTR [r11+16]
	vmovaps	xmm6, XMMWORD PTR [r11-16]
	vmovaps	xmm7, XMMWORD PTR [r11-32]
	vmovaps	xmm8, XMMWORD PTR [r11-48]
	vmovaps	xmm11, XMMWORD PTR [r11-96]
	mov	rsp, r11
	pop	rdi
	ret	0
?turbulence@Fractal@@SAMVPoint3@@AEAVNoiseParams@@@Z ENDP ; Fractal::turbulence
_TEXT	ENDS
; Function compile flags: /Ogtpy
; File g:\dropbox\github\berconmaps\src\fractal.cpp
; File c:\program files\autodesk\3ds max 2019 sdk\maxsdk\include\point3.h
; File g:\dropbox\github\berconmaps\src\fractal.cpp
; File c:\program files\autodesk\3ds max 2019 sdk\maxsdk\include\point3.h
; File g:\dropbox\github\berconmaps\src\fractal.cpp
; File c:\program files\autodesk\3ds max 2019 sdk\maxsdk\include\point3.h
; File g:\dropbox\github\berconmaps\src\fractal.cpp
; File c:\program files\autodesk\3ds max 2019 sdk\maxsdk\include\point3.h
; File g:\dropbox\github\berconmaps\src\fractal.cpp
;	COMDAT ?fractal@Fractal@@SAMVPoint3@@AEAVNoiseParams@@@Z
_TEXT	SEGMENT
$T1 = 32
$T2 = 32
p$ = 160
np$ = 168
?fractal@Fractal@@SAMVPoint3@@AEAVNoiseParams@@@Z PROC	; Fractal::fractal, COMDAT

; 20   : float Fractal::fractal(Point3 p, NoiseParams& np) {

$LN20:
	mov	rax, rsp
	mov	QWORD PTR [rax+8], rbx
	push	rdi
	sub	rsp, 144				; 00000090H
	vmovaps	XMMWORD PTR [rax-24], xmm6
	mov	rdi, rdx
	vmovaps	XMMWORD PTR [rax-40], xmm7
	mov	rbx, rcx

; 21   : 	float sum = 0.0f;
; 22   : 	float l, f = 1.0f;
; 23   : 	for (l = np.levels; l >= 1.0f; l-=1.0f) {				

	vmovss	xmm7, DWORD PTR [rdx+36]
	vmovaps	XMMWORD PTR [rax-56], xmm8
	vmovaps	XMMWORD PTR [rax-72], xmm9
	vmovss	xmm9, DWORD PTR __real@3f800000
	vcomiss	xmm7, xmm9
	vmovaps	XMMWORD PTR [rax-88], xmm10
	vxorps	xmm10, xmm10, xmm10
	vmovaps	xmm8, xmm10
	vmovaps	xmm6, xmm9
	jb	SHORT $LN3@fractal
	vmovaps	XMMWORD PTR [rax-104], xmm11
	vmovss	xmm11, DWORD PTR __real@bf800000
	npad	2
$LL4@fractal:
; File c:\program files\autodesk\3ds max 2019 sdk\maxsdk\include\point3.h

; 327  :    return(Point3(a.x*f, a.y*f, a.z*f));

	vmulss	xmm0, xmm6, DWORD PTR [rbx]
	vmulss	xmm1, xmm6, DWORD PTR [rbx+4]
	vmovss	DWORD PTR $T2[rsp], xmm0
	vmulss	xmm0, xmm6, DWORD PTR [rbx+8]
; File g:\dropbox\github\berconmaps\src\fractal.cpp

; 24   : 		sum += Noise::noise(p*f, np)/f;

	mov	rdx, rdi
	lea	rcx, QWORD PTR $T2[rsp]
; File c:\program files\autodesk\3ds max 2019 sdk\maxsdk\include\point3.h

; 327  :    return(Point3(a.x*f, a.y*f, a.z*f));

	vmovss	DWORD PTR $T2[rsp+8], xmm0
	vmovss	DWORD PTR $T2[rsp+4], xmm1
; File g:\dropbox\github\berconmaps\src\fractal.cpp

; 24   : 		sum += Noise::noise(p*f, np)/f;

	call	?noise@Noise@@SAMVPoint3@@AEAVNoiseParams@@@Z ; Noise::noise
	vdivss	xmm1, xmm0, xmm6
	vaddss	xmm7, xmm7, xmm11
	vcomiss	xmm7, xmm9
	vaddss	xmm8, xmm8, xmm1

; 25   : 		f *= 2.0f;

	vaddss	xmm6, xmm6, xmm6
	jae	SHORT $LL4@fractal
	vmovaps	xmm11, XMMWORD PTR [rsp+48]
$LN3@fractal:

; 26   : 	}	
; 27   : 	if (l>0.0f)				

	vcomiss	xmm7, xmm10
	vmovaps	xmm10, XMMWORD PTR [rsp+64]
	jbe	SHORT $LN5@fractal
; File c:\program files\autodesk\3ds max 2019 sdk\maxsdk\include\point3.h

; 327  :    return(Point3(a.x*f, a.y*f, a.z*f));

	vmulss	xmm0, xmm6, DWORD PTR [rbx]
	vmulss	xmm1, xmm6, DWORD PTR [rbx+4]
	vmovss	DWORD PTR $T1[rsp], xmm0
	vmulss	xmm0, xmm6, DWORD PTR [rbx+8]
; File g:\dropbox\github\berconmaps\src\fractal.cpp

; 28   : 		sum += l*Noise::noise(p*f, np)/f;				

	mov	rdx, rdi
	lea	rcx, QWORD PTR $T1[rsp]
; File c:\program files\autodesk\3ds max 2019 sdk\maxsdk\include\point3.h

; 327  :    return(Point3(a.x*f, a.y*f, a.z*f));

	vmovss	DWORD PTR $T1[rsp+8], xmm0
	vmovss	DWORD PTR $T1[rsp+4], xmm1
; File g:\dropbox\github\berconmaps\src\fractal.cpp

; 28   : 		sum += l*Noise::noise(p*f, np)/f;				

	call	?noise@Noise@@SAMVPoint3@@AEAVNoiseParams@@@Z ; Noise::noise
	vmulss	xmm1, xmm0, xmm7
	vdivss	xmm2, xmm1, xmm6
	vaddss	xmm8, xmm8, xmm2
$LN5@fractal:

; 29   : 	return 0.5f*(sum+1.0f);
; 30   : }

	vmovaps	xmm7, XMMWORD PTR [rsp+112]
	lea	r11, QWORD PTR [rsp+144]
	mov	rbx, QWORD PTR [r11+16]
	vmovaps	xmm6, XMMWORD PTR [r11-16]
	vaddss	xmm0, xmm8, xmm9
	vmulss	xmm0, xmm0, DWORD PTR __real@3f000000
	vmovaps	xmm8, XMMWORD PTR [r11-48]
	vmovaps	xmm9, XMMWORD PTR [r11-64]
	mov	rsp, r11
	pop	rdi
	ret	0
?fractal@Fractal@@SAMVPoint3@@AEAVNoiseParams@@@Z ENDP	; Fractal::fractal
_TEXT	ENDS
; Function compile flags: /Ogtpy
; File c:\program files\autodesk\3ds max 2019 sdk\maxsdk\include\assetmanagement\assetid.h
;	COMDAT ??__EkInvalidId@AssetManagement@MaxSDK@@YAXXZ
text$di	SEGMENT
??__EkInvalidId@AssetManagement@MaxSDK@@YAXXZ PROC	; MaxSDK::AssetManagement::`dynamic initializer for 'kInvalidId'', COMDAT

; 29   : 			AssetId() { *static_cast<GUID*>(this) = CLSID_NULL; }

	vmovups	xmm0, XMMWORD PTR GUID_NULL
	vmovups	XMMWORD PTR ?kInvalidId@AssetManagement@MaxSDK@@3UAssetId@12@A, xmm0

; 32   : 		static AssetId kInvalidId;

	ret	0
??__EkInvalidId@AssetManagement@MaxSDK@@YAXXZ ENDP	; MaxSDK::AssetManagement::`dynamic initializer for 'kInvalidId''
text$di	ENDS
; Function compile flags: /Ogtpy
; File c:\program files\autodesk\3ds max 2019 sdk\maxsdk\include\assetmanagement\assetid.h
;	COMDAT ??0AssetId@AssetManagement@MaxSDK@@QEAA@XZ
_TEXT	SEGMENT
this$ = 8
??0AssetId@AssetManagement@MaxSDK@@QEAA@XZ PROC		; MaxSDK::AssetManagement::AssetId::AssetId, COMDAT

; 29   : 			AssetId() { *static_cast<GUID*>(this) = CLSID_NULL; }

	vmovups	xmm0, XMMWORD PTR GUID_NULL
	vmovups	XMMWORD PTR [rcx], xmm0
	mov	rax, rcx
	ret	0
??0AssetId@AssetManagement@MaxSDK@@QEAA@XZ ENDP		; MaxSDK::AssetManagement::AssetId::AssetId
_TEXT	ENDS
; Function compile flags: /Ogtpy
; File c:\program files\autodesk\3ds max 2019 sdk\maxsdk\include\point3.h
;	COMDAT ??D@YA?AVPoint3@@AEBV0@M@Z
_TEXT	SEGMENT
__$ReturnUdt$ = 8
a$ = 16
f$ = 24
??D@YA?AVPoint3@@AEBV0@M@Z PROC				; operator*, COMDAT

; 327  :    return(Point3(a.x*f, a.y*f, a.z*f));

	vmulss	xmm0, xmm2, DWORD PTR [rdx]
	vmulss	xmm1, xmm2, DWORD PTR [rdx+4]

; 61   : 		 x = X; y = Y; z = Z; 

	vmovss	DWORD PTR [rcx], xmm0

; 327  :    return(Point3(a.x*f, a.y*f, a.z*f));

	vmulss	xmm0, xmm2, DWORD PTR [rdx+8]

; 61   : 		 x = X; y = Y; z = Z; 

	vmovss	DWORD PTR [rcx+8], xmm0
	vmovss	DWORD PTR [rcx+4], xmm1

; 327  :    return(Point3(a.x*f, a.y*f, a.z*f));

	mov	rax, rcx

; 328  :    }

	ret	0
??D@YA?AVPoint3@@AEBV0@M@Z ENDP				; operator*
_TEXT	ENDS
; Function compile flags: /Ogtpy
; File c:\program files (x86)\microsoft visual studio 14.0\vc\include\cmath
;	COMDAT ?pow@@YAMMM@Z
_TEXT	SEGMENT
_Xx$ = 48
_Yx$ = 56
?pow@@YAMMM@Z PROC					; pow, COMDAT

; 250  : 	{

$LN4:
	sub	rsp, 40					; 00000028H

; 251  : 	return (_CSTD powf(_Xx, _Yx));

	call	powf

; 252  : 	}

	add	rsp, 40					; 00000028H
	ret	0
?pow@@YAMMM@Z ENDP					; pow
_TEXT	ENDS
; Function compile flags: /Ogtpy
; File c:\program files (x86)\microsoft visual studio 14.0\vc\include\cmath
; File c:\program files (x86)\windows kits\10\include\10.0.10586.0\ucrt\math.h
; File c:\program files (x86)\microsoft visual studio 14.0\vc\include\cmath
;	COMDAT ?fabs@@YAMM@Z
_TEXT	SEGMENT
_Xx$ = 8
?fabs@@YAMM@Z PROC					; fabs, COMDAT
; File c:\program files (x86)\windows kits\10\include\10.0.10586.0\ucrt\math.h

; 671  :         return (float)fabs(_X);

	vcvtss2sd xmm1, xmm0, xmm0
	vandpd	xmm1, xmm1, QWORD PTR __xmm@7fffffffffffffff7fffffffffffffff
	vcvtsd2ss xmm0, xmm1, xmm1
; File c:\program files (x86)\microsoft visual studio 14.0\vc\include\cmath

; 124  : 	}

	ret	0
?fabs@@YAMM@Z ENDP					; fabs
_TEXT	ENDS
; Function compile flags: /Ogtpy
; File c:\program files\autodesk\3ds max 2019 sdk\maxsdk\include\maxtypes.h
;	COMDAT ??0Class_ID@@QEAA@KK@Z
_TEXT	SEGMENT
this$ = 8
aa$ = 16
bb$ = 24
??0Class_ID@@QEAA@KK@Z PROC				; Class_ID::Class_ID, COMDAT

; 160  : 	Class_ID(ulong aa, ulong bb) { a = aa; b = bb; }

	mov	DWORD PTR [rcx], edx
	mov	rax, rcx
	mov	DWORD PTR [rcx+4], r8d
	ret	0
??0Class_ID@@QEAA@KK@Z ENDP				; Class_ID::Class_ID
_TEXT	ENDS
; Function compile flags: /Ogtpy
; File c:\program files (x86)\windows kits\10\include\10.0.10586.0\ucrt\math.h
;	COMDAT fabsf
_TEXT	SEGMENT
_X$ = 8
fabsf	PROC						; COMDAT

; 671  :         return (float)fabs(_X);

	vcvtss2sd xmm1, xmm0, xmm0
	vandpd	xmm1, xmm1, QWORD PTR __xmm@7fffffffffffffff7fffffffffffffff
	vcvtsd2ss xmm0, xmm1, xmm1

; 672  :     }

	ret	0
fabsf	ENDP
_TEXT	ENDS
; Function compile flags: /Ogtpy
; File g:\dropbox\github\berconmaps\src\fractal.cpp
;	COMDAT ?__empty_global_delete@@YAXPEAX_K@Z
_TEXT	SEGMENT
__formal$ = 8
__formal$ = 16
?__empty_global_delete@@YAXPEAX_K@Z PROC		; __empty_global_delete, COMDAT

	ret	0
?__empty_global_delete@@YAXPEAX_K@Z ENDP		; __empty_global_delete
_TEXT	ENDS
; Function compile flags: /Ogtpy
; File g:\dropbox\github\berconmaps\src\fractal.cpp
;	COMDAT ?__empty_global_delete@@YAXPEAX@Z
_TEXT	SEGMENT
__formal$ = 8
?__empty_global_delete@@YAXPEAX@Z PROC			; __empty_global_delete, COMDAT

	ret	0
?__empty_global_delete@@YAXPEAX@Z ENDP			; __empty_global_delete
_TEXT	ENDS
; Function compile flags: /Ogtpy
;	COMDAT ??_H@YAXPEAX_K1P6APEAX0@Z@Z
_TEXT	SEGMENT
__t$ = 48
__s$ = 56
__n$ = 64
__f$ = 72
??_H@YAXPEAX_K1P6APEAX0@Z@Z PROC			; `vector constructor iterator', COMDAT
$LN12:
	test	r8, r8
	je	SHORT $LN10@vector
	mov	QWORD PTR [rsp+8], rbx
	mov	QWORD PTR [rsp+16], rbp
	mov	QWORD PTR [rsp+24], rsi
	push	rdi
	sub	rsp, 32					; 00000020H
	mov	rsi, r9
	mov	rbx, r8
	mov	rbp, rdx
	mov	rdi, rcx
$LL2@vector:
	mov	rcx, rdi
	call	rsi
	add	rdi, rbp
	sub	rbx, 1
	jne	SHORT $LL2@vector
	mov	rbx, QWORD PTR [rsp+48]
	mov	rbp, QWORD PTR [rsp+56]
	mov	rsi, QWORD PTR [rsp+64]
	add	rsp, 32					; 00000020H
	pop	rdi
$LN10@vector:
	ret	0
??_H@YAXPEAX_K1P6APEAX0@Z@Z ENDP			; `vector constructor iterator'
_TEXT	ENDS
END
