; Listing generated by Microsoft (R) Optimizing Compiler Version 19.00.24234.1 

include listing.inc

INCLUDELIB MSVCRTD
INCLUDELIB OLDNAMES

PUBLIC	WinbaseIsolationAwarePrivateT_UnPgpgk
PUBLIC	IsolationAwarePrivateT_SqbjaYRiRY
PUBLIC	IsolationAwarePrivateT_SAbnPgpgk
PUBLIC	WinbaseIsolationAwarePrivateT_SpeRNgRQnPgpgk
PUBLIC	WinbaseIsolationAwarePrivateT_SpYRNahcpNYYRQ
EXTRN	GUID_NULL:BYTE
;	COMDAT IsolationAwarePrivateT_SqbjaYRiRY
_BSS	SEGMENT
IsolationAwarePrivateT_SqbjaYRiRY DD 01H DUP (?)
_BSS	ENDS
;	COMDAT IsolationAwarePrivateT_SAbnPgpgk
_BSS	SEGMENT
IsolationAwarePrivateT_SAbnPgpgk DD 01H DUP (?)
_BSS	ENDS
;	COMDAT WinbaseIsolationAwarePrivateT_SpeRNgRQnPgpgk
_BSS	SEGMENT
WinbaseIsolationAwarePrivateT_SpeRNgRQnPgpgk DD 01H DUP (?)
_BSS	ENDS
;	COMDAT WinbaseIsolationAwarePrivateT_SpYRNahcpNYYRQ
_BSS	SEGMENT
WinbaseIsolationAwarePrivateT_SpYRNahcpNYYRQ DD 01H DUP (?)
_BSS	ENDS
;	COMDAT WinbaseIsolationAwarePrivateT_UnPgpgk
_DATA	SEGMENT
WinbaseIsolationAwarePrivateT_UnPgpgk DQ ffffffffffffffffH
_DATA	ENDS
PUBLIC	??_H@YAXPEAX_K1P6APEAX0@Z@Z			; `vector constructor iterator'
PUBLIC	?__empty_global_delete@@YAXPEAX@Z		; __empty_global_delete
PUBLIC	?__empty_global_delete@@YAXPEAX_K@Z		; __empty_global_delete
PUBLIC	?noise@Noise@@SAMVPoint3@@AEAVNoiseParams@@@Z	; Noise::noise
PUBLIC	?noise@Noise@@SAMVPoint3@@MAEAVNoiseParams@@@Z	; Noise::noise
PUBLIC	?worleyWrapper@Noise@@SAMVPoint3@@AEAVNoiseParams@@@Z ; Noise::worleyWrapper
PUBLIC	?wood@Noise@@SAMVPoint3@@AEAV2@AEAVWoodParam@@@Z ; Noise::wood
PUBLIC	?wood@Noise@@SAMVPoint3@@00AEAV2@VWoodParam@@@Z	; Noise::wood
PUBLIC	?alterUVW@Noise@@SAXAEAVPoint3@@H@Z		; Noise::alterUVW
PUBLIC	?limitedNoise@Noise@@SAMVPoint3@@AEAVNoiseParams@@@Z ; Noise::limitedNoise
PUBLIC	?limitedNoise@Noise@@SAMVPoint3@@00AEAVNoiseParams@@@Z ; Noise::limitedNoise
PUBLIC	?f@Fractal@@SAMVPoint3@@AEAVNoiseParams@@@Z	; Fractal::f
PUBLIC	?f@Fractal@@SAMVPoint3@@MAEAVNoiseParams@@@Z	; Fractal::f
PUBLIC	__real@38d1b717
PUBLIC	__real@3d4ccccd
PUBLIC	__real@3f000000
PUBLIC	__real@3f800000
PUBLIC	__real@3f900000
PUBLIC	__real@40000000
PUBLIC	__real@40400000
PUBLIC	__real@40490fdb
PUBLIC	__real@4049999a
PUBLIC	__real@40b00000
PUBLIC	__real@40e33333
PUBLIC	__real@4129999a
PUBLIC	__real@41700000
PUBLIC	__real@439d1127
PUBLIC	__real@b8d1b717
PUBLIC	__xmm@80000000800000008000000080000000
EXTRN	__imp_?Length@Point3@@QEBAMXZ:PROC
EXTRN	__imp_?threshold@@YAMMMM@Z:PROC
EXTRN	?noise@Worley@@SAXQEANHPEANH@Z:PROC		; Worley::noise
EXTRN	?smooth@@YAMM@Z:PROC				; smooth
EXTRN	?smooth@@YAMMMM@Z:PROC				; smooth
EXTRN	?noise@Perlin@@SAMMM@Z:PROC			; Perlin::noise
EXTRN	?noise@Perlin@@SAMMMM@Z:PROC			; Perlin::noise
EXTRN	?noise@Perlin@@SAMMMMM@Z:PROC			; Perlin::noise
EXTRN	?snoise@Perlin@@SAMM@Z:PROC			; Perlin::snoise
EXTRN	?snoise@Perlin@@SAMMM@Z:PROC			; Perlin::snoise
EXTRN	?snoise@Perlin@@SAMMMM@Z:PROC			; Perlin::snoise
EXTRN	?snoise@Perlin@@SAMMMMM@Z:PROC			; Perlin::snoise
EXTRN	?fnoise2D@Perlin@@SAMMMM@Z:PROC			; Perlin::fnoise2D
EXTRN	?fnoise3D@Perlin@@SAMMMMM@Z:PROC		; Perlin::fnoise3D
EXTRN	?fnoise4D@Perlin@@SAMMMMMM@Z:PROC		; Perlin::fnoise4D
EXTRN	?fsnoise2D@Perlin@@SAMMMM@Z:PROC		; Perlin::fsnoise2D
EXTRN	?fsnoise3D@Perlin@@SAMMMMM@Z:PROC		; Perlin::fsnoise3D
EXTRN	?fsnoise4D@Perlin@@SAMMMMMM@Z:PROC		; Perlin::fsnoise4D
EXTRN	?fractal@Fractal@@SAMVPoint3@@AEAVNoiseParams@@@Z:PROC ; Fractal::fractal
EXTRN	?turbulence@Fractal@@SAMVPoint3@@AEAVNoiseParams@@@Z:PROC ; Fractal::turbulence
EXTRN	?fBm@Fractal@@SAMVPoint3@@AEAVNoiseParams@@@Z:PROC ; Fractal::fBm
EXTRN	?fBmTurb@Fractal@@SAMVPoint3@@AEAVNoiseParams@@@Z:PROC ; Fractal::fBmTurb
EXTRN	?heteroTerrain@Fractal@@SAMVPoint3@@AEAVNoiseParams@@@Z:PROC ; Fractal::heteroTerrain
EXTRN	?hybridMultiFractal@Fractal@@SAMVPoint3@@AEAVNoiseParams@@@Z:PROC ; Fractal::hybridMultiFractal
EXTRN	?ridgedMultiFractal@Fractal@@SAMVPoint3@@AEAVNoiseParams@@@Z:PROC ; Fractal::ridgedMultiFractal
EXTRN	?fractal@Fractal@@SAMVPoint3@@MAEAVNoiseParams@@@Z:PROC ; Fractal::fractal
EXTRN	?turbulence@Fractal@@SAMVPoint3@@MAEAVNoiseParams@@@Z:PROC ; Fractal::turbulence
EXTRN	?fBm@Fractal@@SAMVPoint3@@MAEAVNoiseParams@@@Z:PROC ; Fractal::fBm
EXTRN	?fBmTurb@Fractal@@SAMVPoint3@@MAEAVNoiseParams@@@Z:PROC ; Fractal::fBmTurb
EXTRN	?hybridMultiFractal@Fractal@@SAMVPoint3@@MAEAVNoiseParams@@@Z:PROC ; Fractal::hybridMultiFractal
EXTRN	?ridgedMultiFractal@Fractal@@SAMVPoint3@@MAEAVNoiseParams@@@Z:PROC ; Fractal::ridgedMultiFractal
EXTRN	__GSHandlerCheck:PROC
EXTRN	__security_check_cookie:PROC
EXTRN	cosf:PROC
EXTRN	sinf:PROC
EXTRN	sqrtf:PROC
EXTRN	__ImageBase:BYTE
EXTRN	__security_cookie:QWORD
EXTRN	_fltused:DWORD
_BSS	SEGMENT
?kInvalidId@AssetManagement@MaxSDK@@3UAssetId@12@A DB 010H DUP (?) ; MaxSDK::AssetManagement::kInvalidId
_BSS	ENDS
;	COMDAT pdata
pdata	SEGMENT
$pdata$??_H@YAXPEAX_K1P6APEAX0@Z@Z DD imagerel $LN12
	DD	imagerel $LN12+72
	DD	imagerel $unwind$??_H@YAXPEAX_K1P6APEAX0@Z@Z
pdata	ENDS
;	COMDAT pdata
pdata	SEGMENT
$pdata$?cos@@YAMM@Z DD imagerel $LN4
	DD	imagerel $LN4+14
	DD	imagerel $unwind$?cos@@YAMM@Z
pdata	ENDS
;	COMDAT pdata
pdata	SEGMENT
$pdata$?sin@@YAMM@Z DD imagerel $LN4
	DD	imagerel $LN4+14
	DD	imagerel $unwind$?sin@@YAMM@Z
pdata	ENDS
;	COMDAT pdata
pdata	SEGMENT
$pdata$?sqrt@@YAMM@Z DD imagerel $LN4
	DD	imagerel $LN4+14
	DD	imagerel $unwind$?sqrt@@YAMM@Z
pdata	ENDS
;	COMDAT pdata
pdata	SEGMENT
$pdata$?noise@Noise@@SAMVPoint3@@AEAVNoiseParams@@@Z DD imagerel $LN17
	DD	imagerel $LN17+272
	DD	imagerel $unwind$?noise@Noise@@SAMVPoint3@@AEAVNoiseParams@@@Z
pdata	ENDS
;	COMDAT pdata
pdata	SEGMENT
$pdata$?noise@Noise@@SAMVPoint3@@MAEAVNoiseParams@@@Z DD imagerel $LN17
	DD	imagerel $LN17+296
	DD	imagerel $unwind$?noise@Noise@@SAMVPoint3@@MAEAVNoiseParams@@@Z
pdata	ENDS
;	COMDAT pdata
pdata	SEGMENT
$pdata$?worleyWrapper@Noise@@SAMVPoint3@@AEAVNoiseParams@@@Z DD imagerel $LN19
	DD	imagerel $LN19+445
	DD	imagerel $unwind$?worleyWrapper@Noise@@SAMVPoint3@@AEAVNoiseParams@@@Z
pdata	ENDS
;	COMDAT pdata
pdata	SEGMENT
$pdata$?wood@Noise@@SAMVPoint3@@AEAV2@AEAVWoodParam@@@Z DD imagerel $LN51
	DD	imagerel $LN51+924
	DD	imagerel $unwind$?wood@Noise@@SAMVPoint3@@AEAV2@AEAVWoodParam@@@Z
pdata	ENDS
;	COMDAT pdata
pdata	SEGMENT
$pdata$?wood@Noise@@SAMVPoint3@@00AEAV2@VWoodParam@@@Z DD imagerel $LN98
	DD	imagerel $LN98+660
	DD	imagerel $unwind$?wood@Noise@@SAMVPoint3@@00AEAV2@VWoodParam@@@Z
pdata	ENDS
;	COMDAT pdata
pdata	SEGMENT
$pdata$2$?wood@Noise@@SAMVPoint3@@00AEAV2@VWoodParam@@@Z DD imagerel $LN98+660
	DD	imagerel $LN98+1359
	DD	imagerel $chain$2$?wood@Noise@@SAMVPoint3@@00AEAV2@VWoodParam@@@Z
pdata	ENDS
;	COMDAT pdata
pdata	SEGMENT
$pdata$3$?wood@Noise@@SAMVPoint3@@00AEAV2@VWoodParam@@@Z DD imagerel $LN98+1359
	DD	imagerel $LN98+1439
	DD	imagerel $chain$3$?wood@Noise@@SAMVPoint3@@00AEAV2@VWoodParam@@@Z
pdata	ENDS
;	COMDAT pdata
pdata	SEGMENT
$pdata$?alterUVW@Noise@@SAXAEAVPoint3@@H@Z DD imagerel $LN13
	DD	imagerel $LN13+115
	DD	imagerel $unwind$?alterUVW@Noise@@SAXAEAVPoint3@@H@Z
pdata	ENDS
;	COMDAT pdata
pdata	SEGMENT
$pdata$?limitedNoise@Noise@@SAMVPoint3@@AEAVNoiseParams@@@Z DD imagerel $LN10
	DD	imagerel $LN10+107
	DD	imagerel $unwind$?limitedNoise@Noise@@SAMVPoint3@@AEAVNoiseParams@@@Z
pdata	ENDS
;	COMDAT pdata
pdata	SEGMENT
$pdata$?limitedNoise@Noise@@SAMVPoint3@@00AEAVNoiseParams@@@Z DD imagerel $LN12
	DD	imagerel $LN12+168
	DD	imagerel $unwind$?limitedNoise@Noise@@SAMVPoint3@@00AEAVNoiseParams@@@Z
pdata	ENDS
;	COMDAT pdata
pdata	SEGMENT
$pdata$?f@Fractal@@SAMVPoint3@@AEAVNoiseParams@@@Z DD imagerel $LN31
	DD	imagerel $LN31+456
	DD	imagerel $unwind$?f@Fractal@@SAMVPoint3@@AEAVNoiseParams@@@Z
pdata	ENDS
;	COMDAT pdata
pdata	SEGMENT
$pdata$?f@Fractal@@SAMVPoint3@@MAEAVNoiseParams@@@Z DD imagerel $LN31
	DD	imagerel $LN31+484
	DD	imagerel $unwind$?f@Fractal@@SAMVPoint3@@MAEAVNoiseParams@@@Z
pdata	ENDS
CRT$XCU	SEGMENT
?kInvalidId$initializer$@AssetManagement@MaxSDK@@3P6AXXZEA DQ FLAT:??__EkInvalidId@AssetManagement@MaxSDK@@YAXXZ ; MaxSDK::AssetManagement::kInvalidId$initializer$
CRT$XCU	ENDS
;	COMDAT __xmm@80000000800000008000000080000000
CONST	SEGMENT
__xmm@80000000800000008000000080000000 DB 00H, 00H, 00H, 080H, 00H, 00H, 00H
	DB	080H, 00H, 00H, 00H, 080H, 00H, 00H, 00H, 080H
CONST	ENDS
;	COMDAT __real@b8d1b717
CONST	SEGMENT
__real@b8d1b717 DD 0b8d1b717r			; -0.0001
CONST	ENDS
;	COMDAT __real@439d1127
CONST	SEGMENT
__real@439d1127 DD 0439d1127r			; 314.134
CONST	ENDS
;	COMDAT __real@41700000
CONST	SEGMENT
__real@41700000 DD 041700000r			; 15
CONST	ENDS
;	COMDAT __real@4129999a
CONST	SEGMENT
__real@4129999a DD 04129999ar			; 10.6
CONST	ENDS
;	COMDAT __real@40e33333
CONST	SEGMENT
__real@40e33333 DD 040e33333r			; 7.1
CONST	ENDS
;	COMDAT __real@40b00000
CONST	SEGMENT
__real@40b00000 DD 040b00000r			; 5.5
CONST	ENDS
;	COMDAT __real@4049999a
CONST	SEGMENT
__real@4049999a DD 04049999ar			; 3.15
CONST	ENDS
;	COMDAT __real@40490fdb
CONST	SEGMENT
__real@40490fdb DD 040490fdbr			; 3.14159
CONST	ENDS
;	COMDAT __real@40400000
CONST	SEGMENT
__real@40400000 DD 040400000r			; 3
CONST	ENDS
;	COMDAT __real@40000000
CONST	SEGMENT
__real@40000000 DD 040000000r			; 2
CONST	ENDS
;	COMDAT __real@3f900000
CONST	SEGMENT
__real@3f900000 DD 03f900000r			; 1.125
CONST	ENDS
;	COMDAT __real@3f800000
CONST	SEGMENT
__real@3f800000 DD 03f800000r			; 1
CONST	ENDS
;	COMDAT __real@3f000000
CONST	SEGMENT
__real@3f000000 DD 03f000000r			; 0.5
CONST	ENDS
;	COMDAT __real@3d4ccccd
CONST	SEGMENT
__real@3d4ccccd DD 03d4ccccdr			; 0.05
CONST	ENDS
;	COMDAT __real@38d1b717
CONST	SEGMENT
__real@38d1b717 DD 038d1b717r			; 0.0001
CONST	ENDS
_DATA	SEGMENT
?kTriObjNormalXTCID@@3VClass_ID@@B DD 0730a33d7H	; kTriObjNormalXTCID
	DD	027246c55H
_DATA	ENDS
;	COMDAT xdata
xdata	SEGMENT
$unwind$?f@Fractal@@SAMVPoint3@@MAEAVNoiseParams@@@Z DD 020901H
	DD	050025209H
xdata	ENDS
;	COMDAT xdata
xdata	SEGMENT
$unwind$?f@Fractal@@SAMVPoint3@@AEAVNoiseParams@@@Z DD 020901H
	DD	050025209H
xdata	ENDS
;	COMDAT xdata
xdata	SEGMENT
$unwind$?limitedNoise@Noise@@SAMVPoint3@@00AEAVNoiseParams@@@Z DD 061101H
	DD	036811H
	DD	070047208H
	DD	030026003H
xdata	ENDS
;	COMDAT xdata
xdata	SEGMENT
$unwind$?limitedNoise@Noise@@SAMVPoint3@@AEAVNoiseParams@@@Z DD 020601H
	DD	030025206H
xdata	ENDS
;	COMDAT xdata
xdata	SEGMENT
$unwind$?alterUVW@Noise@@SAXAEAVPoint3@@H@Z DD 020601H
	DD	030023206H
xdata	ENDS
;	COMDAT xdata
xdata	SEGMENT
$chain$3$?wood@Noise@@SAMVPoint3@@00AEAV2@VWoodParam@@@Z DD 021H
	DD	imagerel $LN98
	DD	imagerel $LN98+660
	DD	imagerel $unwind$?wood@Noise@@SAMVPoint3@@00AEAV2@VWoodParam@@@Z
xdata	ENDS
;	COMDAT xdata
xdata	SEGMENT
$chain$2$?wood@Noise@@SAMVPoint3@@00AEAV2@VWoodParam@@@Z DD 062321H
	DD	08c823H
	DD	09b81aH
	DD	0aa809H
	DD	imagerel $LN98
	DD	imagerel $LN98+660
	DD	imagerel $unwind$?wood@Noise@@SAMVPoint3@@00AEAV2@VWoodParam@@@Z
xdata	ENDS
;	COMDAT xdata
xdata	SEGMENT
$unwind$?wood@Noise@@SAMVPoint3@@00AEAV2@VWoodParam@@@Z DD 0164f01H
	DD	05f84fH
	DD	06e849H
	DD	07d843H
	DD	0b983aH
	DD	0c8832H
	DD	0d782aH
	DD	0e6822H
	DD	01f0112H
	DD	0e009f00bH
	DD	060067007H
	DD	030045005H
xdata	ENDS
;	COMDAT xdata
xdata	SEGMENT
$unwind$?wood@Noise@@SAMVPoint3@@AEAV2@AEAVWoodParam@@@Z DD 0e5e01H
	DD	03a85eH
	DD	049858H
	DD	05884fH
	DD	067846H
	DD	076822H
	DD	07004f20bH
	DD	030026003H
xdata	ENDS
;	COMDAT xdata
xdata	SEGMENT
$unwind$?worleyWrapper@Noise@@SAMVPoint3@@AEAVNoiseParams@@@Z DD 041919H
	DD	010340aH
	DD	07006b20aH
	DD	imagerel __GSHandlerCheck
	DD	058H
xdata	ENDS
;	COMDAT xdata
xdata	SEGMENT
$unwind$?noise@Noise@@SAMVPoint3@@MAEAVNoiseParams@@@Z DD 010401H
	DD	08204H
xdata	ENDS
;	COMDAT xdata
xdata	SEGMENT
$unwind$?noise@Noise@@SAMVPoint3@@AEAVNoiseParams@@@Z DD 010401H
	DD	06204H
xdata	ENDS
;	COMDAT xdata
xdata	SEGMENT
$unwind$?sqrt@@YAMM@Z DD 010401H
	DD	04204H
xdata	ENDS
;	COMDAT xdata
xdata	SEGMENT
$unwind$?sin@@YAMM@Z DD 010401H
	DD	04204H
xdata	ENDS
;	COMDAT xdata
xdata	SEGMENT
$unwind$?cos@@YAMM@Z DD 010401H
	DD	04204H
xdata	ENDS
;	COMDAT xdata
xdata	SEGMENT
$unwind$??_H@YAXPEAX_K1P6APEAX0@Z@Z DD 081901H
	DD	086419H
	DD	075419H
	DD	063419H
	DD	070153219H
xdata	ENDS
; Function compile flags: /Ogtpy
; File g:\dropbox\github\berconmaps\src\fractal.h
; File c:\program files\autodesk\3ds max 2019 sdk\maxsdk\include\point3.h
; File g:\dropbox\github\berconmaps\src\fractal.h
; File c:\program files\autodesk\3ds max 2019 sdk\maxsdk\include\point3.h
; File g:\dropbox\github\berconmaps\src\fractal.h
; File c:\program files\autodesk\3ds max 2019 sdk\maxsdk\include\point3.h
; File g:\dropbox\github\berconmaps\src\fractal.h
; File c:\program files\autodesk\3ds max 2019 sdk\maxsdk\include\point3.h
; File g:\dropbox\github\berconmaps\src\fractal.h
; File c:\program files\autodesk\3ds max 2019 sdk\maxsdk\include\point3.h
; File g:\dropbox\github\berconmaps\src\fractal.h
; File c:\program files\autodesk\3ds max 2019 sdk\maxsdk\include\point3.h
; File g:\dropbox\github\berconmaps\src\fractal.h
; File c:\program files\autodesk\3ds max 2019 sdk\maxsdk\include\point3.h
; File g:\dropbox\github\berconmaps\src\fractal.h
; File c:\program files\autodesk\3ds max 2019 sdk\maxsdk\include\point3.h
; File g:\dropbox\github\berconmaps\src\fractal.h
; File c:\program files\autodesk\3ds max 2019 sdk\maxsdk\include\point3.h
; File g:\dropbox\github\berconmaps\src\fractal.h
; File c:\program files\autodesk\3ds max 2019 sdk\maxsdk\include\point3.h
; File g:\dropbox\github\berconmaps\src\fractal.h
; File c:\program files\autodesk\3ds max 2019 sdk\maxsdk\include\point3.h
; File g:\dropbox\github\berconmaps\src\fractal.h
; File c:\program files\autodesk\3ds max 2019 sdk\maxsdk\include\point3.h
; File g:\dropbox\github\berconmaps\src\fractal.h
; File c:\program files\autodesk\3ds max 2019 sdk\maxsdk\include\point3.h
; File g:\dropbox\github\berconmaps\src\fractal.h
; File c:\program files\autodesk\3ds max 2019 sdk\maxsdk\include\point3.h
; File g:\dropbox\github\berconmaps\src\fractal.h
; File c:\program files\autodesk\3ds max 2019 sdk\maxsdk\include\point3.h
; File g:\dropbox\github\berconmaps\src\fractal.h
; File c:\program files\autodesk\3ds max 2019 sdk\maxsdk\include\point3.h
; File g:\dropbox\github\berconmaps\src\fractal.h
;	COMDAT ?f@Fractal@@SAMVPoint3@@MAEAVNoiseParams@@@Z
_TEXT	SEGMENT
$T1 = 32
$T2 = 32
$T3 = 32
$T4 = 32
$T5 = 32
$T6 = 32
$T7 = 32
$T8 = 32
p$ = 64
d$ = 72
np$ = 80
?f@Fractal@@SAMVPoint3@@MAEAVNoiseParams@@@Z PROC	; Fractal::f, COMDAT

; 62   : 	static float f(Point3 p, float d, NoiseParams &np) {

$LN31:
	push	rbp
	mov	rbp, rsp
	sub	rsp, 48					; 00000030H

; 63   : 		switch (np.fractalFunction) {

	movsxd	rax, DWORD PTR [r8+4]
	vmovaps	xmm3, xmm1
	cmp	eax, 7
	ja	$LN2@f
	lea	r9, OFFSET FLAT:__ImageBase
	mov	edx, DWORD PTR $LN29@f[r9+rax*4]
	add	rdx, r9
	jmp	rdx
$LN4@f:
; File c:\program files\autodesk\3ds max 2019 sdk\maxsdk\include\point3.h

; 73   : 		 x = a.x; y = a.y; z = a.z; 

	vmovss	xmm0, DWORD PTR [rcx]
	vmovss	xmm2, DWORD PTR [rcx+4]
	vmovss	DWORD PTR $T8[rbp-48], xmm0
	vmovss	xmm0, DWORD PTR [rcx+8]
; File g:\dropbox\github\berconmaps\src\fractal.h

; 64   : 			case 0: return (1.0f + Noise::noise(p, d, np)) * .5f;

	lea	rcx, QWORD PTR $T8[rbp-48]
; File c:\program files\autodesk\3ds max 2019 sdk\maxsdk\include\point3.h

; 73   : 		 x = a.x; y = a.y; z = a.z; 

	vmovss	DWORD PTR $T8[rbp-40], xmm0
	vmovss	DWORD PTR $T8[rbp-44], xmm2
; File g:\dropbox\github\berconmaps\src\fractal.h

; 64   : 			case 0: return (1.0f + Noise::noise(p, d, np)) * .5f;

	call	?noise@Noise@@SAMVPoint3@@MAEAVNoiseParams@@@Z ; Noise::noise
	vaddss	xmm1, xmm0, DWORD PTR __real@3f800000
	vmulss	xmm0, xmm1, DWORD PTR __real@3f000000

; 72   : 		}
; 73   : 		return 0.f;
; 74   : 	}

	add	rsp, 48					; 00000030H
	pop	rbp
	ret	0
$LN5@f:
; File c:\program files\autodesk\3ds max 2019 sdk\maxsdk\include\point3.h

; 73   : 		 x = a.x; y = a.y; z = a.z; 

	vmovss	xmm0, DWORD PTR [rcx]
	vmovss	xmm1, DWORD PTR [rcx+4]
	vmovss	DWORD PTR $T7[rbp-48], xmm0
	vmovss	xmm0, DWORD PTR [rcx+8]
	vmovss	DWORD PTR $T7[rbp-44], xmm1
; File g:\dropbox\github\berconmaps\src\fractal.h

; 65   : 			case 1: return fractal(p, d, np);

	lea	rcx, QWORD PTR $T7[rbp-48]
	vmovaps	xmm1, xmm3
; File c:\program files\autodesk\3ds max 2019 sdk\maxsdk\include\point3.h

; 73   : 		 x = a.x; y = a.y; z = a.z; 

	vmovss	DWORD PTR $T7[rbp-40], xmm0
; File g:\dropbox\github\berconmaps\src\fractal.h

; 65   : 			case 1: return fractal(p, d, np);

	call	?fractal@Fractal@@SAMVPoint3@@MAEAVNoiseParams@@@Z ; Fractal::fractal

; 72   : 		}
; 73   : 		return 0.f;
; 74   : 	}

	add	rsp, 48					; 00000030H
	pop	rbp
	ret	0
$LN6@f:
; File c:\program files\autodesk\3ds max 2019 sdk\maxsdk\include\point3.h

; 73   : 		 x = a.x; y = a.y; z = a.z; 

	vmovss	xmm0, DWORD PTR [rcx]
	vmovss	xmm1, DWORD PTR [rcx+4]
	vmovss	DWORD PTR $T6[rbp-48], xmm0
	vmovss	xmm0, DWORD PTR [rcx+8]
	vmovss	DWORD PTR $T6[rbp-44], xmm1
; File g:\dropbox\github\berconmaps\src\fractal.h

; 66   : 			case 2: return turbulence(p, d, np);

	lea	rcx, QWORD PTR $T6[rbp-48]
	vmovaps	xmm1, xmm3
; File c:\program files\autodesk\3ds max 2019 sdk\maxsdk\include\point3.h

; 73   : 		 x = a.x; y = a.y; z = a.z; 

	vmovss	DWORD PTR $T6[rbp-40], xmm0
; File g:\dropbox\github\berconmaps\src\fractal.h

; 66   : 			case 2: return turbulence(p, d, np);

	call	?turbulence@Fractal@@SAMVPoint3@@MAEAVNoiseParams@@@Z ; Fractal::turbulence

; 72   : 		}
; 73   : 		return 0.f;
; 74   : 	}

	add	rsp, 48					; 00000030H
	pop	rbp
	ret	0
$LN7@f:
; File c:\program files\autodesk\3ds max 2019 sdk\maxsdk\include\point3.h

; 73   : 		 x = a.x; y = a.y; z = a.z; 

	vmovss	xmm0, DWORD PTR [rcx]
	vmovss	xmm1, DWORD PTR [rcx+4]
	vmovss	DWORD PTR $T5[rbp-48], xmm0
	vmovss	xmm0, DWORD PTR [rcx+8]
	vmovss	DWORD PTR $T5[rbp-44], xmm1
; File g:\dropbox\github\berconmaps\src\fractal.h

; 67   : 			case 3: return fBm(p, d, np);

	lea	rcx, QWORD PTR $T5[rbp-48]
	vmovaps	xmm1, xmm3
; File c:\program files\autodesk\3ds max 2019 sdk\maxsdk\include\point3.h

; 73   : 		 x = a.x; y = a.y; z = a.z; 

	vmovss	DWORD PTR $T5[rbp-40], xmm0
; File g:\dropbox\github\berconmaps\src\fractal.h

; 67   : 			case 3: return fBm(p, d, np);

	call	?fBm@Fractal@@SAMVPoint3@@MAEAVNoiseParams@@@Z ; Fractal::fBm

; 72   : 		}
; 73   : 		return 0.f;
; 74   : 	}

	add	rsp, 48					; 00000030H
	pop	rbp
	ret	0
$LN8@f:
; File c:\program files\autodesk\3ds max 2019 sdk\maxsdk\include\point3.h

; 73   : 		 x = a.x; y = a.y; z = a.z; 

	vmovss	xmm0, DWORD PTR [rcx]
	vmovss	xmm1, DWORD PTR [rcx+4]
	vmovss	DWORD PTR $T4[rbp-48], xmm0
	vmovss	xmm0, DWORD PTR [rcx+8]
	vmovss	DWORD PTR $T4[rbp-44], xmm1
; File g:\dropbox\github\berconmaps\src\fractal.h

; 68   : 			case 4: return fBmTurb(p, d, np);

	lea	rcx, QWORD PTR $T4[rbp-48]
	vmovaps	xmm1, xmm3
; File c:\program files\autodesk\3ds max 2019 sdk\maxsdk\include\point3.h

; 73   : 		 x = a.x; y = a.y; z = a.z; 

	vmovss	DWORD PTR $T4[rbp-40], xmm0
; File g:\dropbox\github\berconmaps\src\fractal.h

; 68   : 			case 4: return fBmTurb(p, d, np);

	call	?fBmTurb@Fractal@@SAMVPoint3@@MAEAVNoiseParams@@@Z ; Fractal::fBmTurb

; 72   : 		}
; 73   : 		return 0.f;
; 74   : 	}

	add	rsp, 48					; 00000030H
	pop	rbp
	ret	0
$LN9@f:
; File c:\program files\autodesk\3ds max 2019 sdk\maxsdk\include\point3.h

; 73   : 		 x = a.x; y = a.y; z = a.z; 

	vmovss	xmm0, DWORD PTR [rcx]
	vmovss	xmm1, DWORD PTR [rcx+4]
	vmovss	DWORD PTR $T3[rbp-48], xmm0
	vmovss	xmm0, DWORD PTR [rcx+8]
; File g:\dropbox\github\berconmaps\src\fractal.h

; 69   : 			case 5: return heteroTerrain(p, np);

	lea	rcx, QWORD PTR $T3[rbp-48]
	mov	rdx, r8
; File c:\program files\autodesk\3ds max 2019 sdk\maxsdk\include\point3.h

; 73   : 		 x = a.x; y = a.y; z = a.z; 

	vmovss	DWORD PTR $T3[rbp-40], xmm0
	vmovss	DWORD PTR $T3[rbp-44], xmm1
; File g:\dropbox\github\berconmaps\src\fractal.h

; 69   : 			case 5: return heteroTerrain(p, np);

	call	?heteroTerrain@Fractal@@SAMVPoint3@@AEAVNoiseParams@@@Z ; Fractal::heteroTerrain

; 72   : 		}
; 73   : 		return 0.f;
; 74   : 	}

	add	rsp, 48					; 00000030H
	pop	rbp
	ret	0
$LN10@f:
; File c:\program files\autodesk\3ds max 2019 sdk\maxsdk\include\point3.h

; 73   : 		 x = a.x; y = a.y; z = a.z; 

	vmovss	xmm0, DWORD PTR [rcx]
	vmovss	xmm1, DWORD PTR [rcx+4]
	vmovss	DWORD PTR $T2[rbp-48], xmm0
	vmovss	xmm0, DWORD PTR [rcx+8]
	vmovss	DWORD PTR $T2[rbp-44], xmm1
; File g:\dropbox\github\berconmaps\src\fractal.h

; 70   : 			case 6: return hybridMultiFractal(p, d, np);

	lea	rcx, QWORD PTR $T2[rbp-48]
	vmovaps	xmm1, xmm3
; File c:\program files\autodesk\3ds max 2019 sdk\maxsdk\include\point3.h

; 73   : 		 x = a.x; y = a.y; z = a.z; 

	vmovss	DWORD PTR $T2[rbp-40], xmm0
; File g:\dropbox\github\berconmaps\src\fractal.h

; 70   : 			case 6: return hybridMultiFractal(p, d, np);

	call	?hybridMultiFractal@Fractal@@SAMVPoint3@@MAEAVNoiseParams@@@Z ; Fractal::hybridMultiFractal

; 72   : 		}
; 73   : 		return 0.f;
; 74   : 	}

	add	rsp, 48					; 00000030H
	pop	rbp
	ret	0
$LN11@f:
; File c:\program files\autodesk\3ds max 2019 sdk\maxsdk\include\point3.h

; 73   : 		 x = a.x; y = a.y; z = a.z; 

	vmovss	xmm0, DWORD PTR [rcx]
	vmovss	xmm1, DWORD PTR [rcx+4]
	vmovss	DWORD PTR $T1[rbp-48], xmm0
	vmovss	xmm0, DWORD PTR [rcx+8]
	vmovss	DWORD PTR $T1[rbp-44], xmm1
; File g:\dropbox\github\berconmaps\src\fractal.h

; 71   : 			case 7: return ridgedMultiFractal(p, d, np);

	lea	rcx, QWORD PTR $T1[rbp-48]
	vmovaps	xmm1, xmm3
; File c:\program files\autodesk\3ds max 2019 sdk\maxsdk\include\point3.h

; 73   : 		 x = a.x; y = a.y; z = a.z; 

	vmovss	DWORD PTR $T1[rbp-40], xmm0
; File g:\dropbox\github\berconmaps\src\fractal.h

; 71   : 			case 7: return ridgedMultiFractal(p, d, np);

	call	?ridgedMultiFractal@Fractal@@SAMVPoint3@@MAEAVNoiseParams@@@Z ; Fractal::ridgedMultiFractal

; 72   : 		}
; 73   : 		return 0.f;
; 74   : 	}

	add	rsp, 48					; 00000030H
	pop	rbp
	ret	0
$LN2@f:
	vxorps	xmm0, xmm0, xmm0
	add	rsp, 48					; 00000030H
	pop	rbp
	ret	0
	npad	1
$LN29@f:
	DD	$LN4@f
	DD	$LN5@f
	DD	$LN6@f
	DD	$LN7@f
	DD	$LN8@f
	DD	$LN9@f
	DD	$LN10@f
	DD	$LN11@f
?f@Fractal@@SAMVPoint3@@MAEAVNoiseParams@@@Z ENDP	; Fractal::f
_TEXT	ENDS
; Function compile flags: /Ogtpy
; File g:\dropbox\github\berconmaps\src\fractal.h
; File c:\program files\autodesk\3ds max 2019 sdk\maxsdk\include\point3.h
; File g:\dropbox\github\berconmaps\src\fractal.h
; File c:\program files\autodesk\3ds max 2019 sdk\maxsdk\include\point3.h
; File g:\dropbox\github\berconmaps\src\fractal.h
; File c:\program files\autodesk\3ds max 2019 sdk\maxsdk\include\point3.h
; File g:\dropbox\github\berconmaps\src\fractal.h
; File c:\program files\autodesk\3ds max 2019 sdk\maxsdk\include\point3.h
; File g:\dropbox\github\berconmaps\src\fractal.h
; File c:\program files\autodesk\3ds max 2019 sdk\maxsdk\include\point3.h
; File g:\dropbox\github\berconmaps\src\fractal.h
; File c:\program files\autodesk\3ds max 2019 sdk\maxsdk\include\point3.h
; File g:\dropbox\github\berconmaps\src\fractal.h
; File c:\program files\autodesk\3ds max 2019 sdk\maxsdk\include\point3.h
; File g:\dropbox\github\berconmaps\src\fractal.h
; File c:\program files\autodesk\3ds max 2019 sdk\maxsdk\include\point3.h
; File g:\dropbox\github\berconmaps\src\fractal.h
; File c:\program files\autodesk\3ds max 2019 sdk\maxsdk\include\point3.h
; File g:\dropbox\github\berconmaps\src\fractal.h
; File c:\program files\autodesk\3ds max 2019 sdk\maxsdk\include\point3.h
; File g:\dropbox\github\berconmaps\src\fractal.h
; File c:\program files\autodesk\3ds max 2019 sdk\maxsdk\include\point3.h
; File g:\dropbox\github\berconmaps\src\fractal.h
; File c:\program files\autodesk\3ds max 2019 sdk\maxsdk\include\point3.h
; File g:\dropbox\github\berconmaps\src\fractal.h
; File c:\program files\autodesk\3ds max 2019 sdk\maxsdk\include\point3.h
; File g:\dropbox\github\berconmaps\src\fractal.h
; File c:\program files\autodesk\3ds max 2019 sdk\maxsdk\include\point3.h
; File g:\dropbox\github\berconmaps\src\fractal.h
; File c:\program files\autodesk\3ds max 2019 sdk\maxsdk\include\point3.h
; File g:\dropbox\github\berconmaps\src\fractal.h
; File c:\program files\autodesk\3ds max 2019 sdk\maxsdk\include\point3.h
; File g:\dropbox\github\berconmaps\src\fractal.h
;	COMDAT ?f@Fractal@@SAMVPoint3@@AEAVNoiseParams@@@Z
_TEXT	SEGMENT
$T1 = 32
$T2 = 32
$T3 = 32
$T4 = 32
$T5 = 32
$T6 = 32
$T7 = 32
$T8 = 32
p$ = 64
np$ = 72
?f@Fractal@@SAMVPoint3@@AEAVNoiseParams@@@Z PROC	; Fractal::f, COMDAT

; 48   : 	static float f(Point3 p, NoiseParams &np) {

$LN31:
	push	rbp
	mov	rbp, rsp
	sub	rsp, 48					; 00000030H

; 49   : 		switch (np.fractalFunction) {

	movsxd	rax, DWORD PTR [rdx+4]
	cmp	eax, 7
	ja	$LN2@f
	lea	r9, OFFSET FLAT:__ImageBase
	mov	r8d, DWORD PTR $LN29@f[r9+rax*4]
	add	r8, r9
	jmp	r8
$LN4@f:
; File c:\program files\autodesk\3ds max 2019 sdk\maxsdk\include\point3.h

; 73   : 		 x = a.x; y = a.y; z = a.z; 

	vmovss	xmm0, DWORD PTR [rcx]
	vmovss	xmm1, DWORD PTR [rcx+4]
	vmovss	DWORD PTR $T8[rbp-48], xmm0
	vmovss	xmm0, DWORD PTR [rcx+8]
; File g:\dropbox\github\berconmaps\src\fractal.h

; 50   : 			case 0: return (1.0f + Noise::noise(p, np)) * .5f;

	lea	rcx, QWORD PTR $T8[rbp-48]
; File c:\program files\autodesk\3ds max 2019 sdk\maxsdk\include\point3.h

; 73   : 		 x = a.x; y = a.y; z = a.z; 

	vmovss	DWORD PTR $T8[rbp-40], xmm0
	vmovss	DWORD PTR $T8[rbp-44], xmm1
; File g:\dropbox\github\berconmaps\src\fractal.h

; 50   : 			case 0: return (1.0f + Noise::noise(p, np)) * .5f;

	call	?noise@Noise@@SAMVPoint3@@AEAVNoiseParams@@@Z ; Noise::noise
	vaddss	xmm1, xmm0, DWORD PTR __real@3f800000
	vmulss	xmm0, xmm1, DWORD PTR __real@3f000000

; 58   : 		}
; 59   : 		return 0.f;
; 60   : 	}

	add	rsp, 48					; 00000030H
	pop	rbp
	ret	0
$LN5@f:
; File c:\program files\autodesk\3ds max 2019 sdk\maxsdk\include\point3.h

; 73   : 		 x = a.x; y = a.y; z = a.z; 

	vmovss	xmm0, DWORD PTR [rcx]
	vmovss	xmm1, DWORD PTR [rcx+4]
	vmovss	DWORD PTR $T7[rbp-48], xmm0
	vmovss	xmm0, DWORD PTR [rcx+8]
; File g:\dropbox\github\berconmaps\src\fractal.h

; 51   : 			case 1: return fractal(p, np);

	lea	rcx, QWORD PTR $T7[rbp-48]
; File c:\program files\autodesk\3ds max 2019 sdk\maxsdk\include\point3.h

; 73   : 		 x = a.x; y = a.y; z = a.z; 

	vmovss	DWORD PTR $T7[rbp-40], xmm0
	vmovss	DWORD PTR $T7[rbp-44], xmm1
; File g:\dropbox\github\berconmaps\src\fractal.h

; 51   : 			case 1: return fractal(p, np);

	call	?fractal@Fractal@@SAMVPoint3@@AEAVNoiseParams@@@Z ; Fractal::fractal

; 58   : 		}
; 59   : 		return 0.f;
; 60   : 	}

	add	rsp, 48					; 00000030H
	pop	rbp
	ret	0
$LN6@f:
; File c:\program files\autodesk\3ds max 2019 sdk\maxsdk\include\point3.h

; 73   : 		 x = a.x; y = a.y; z = a.z; 

	vmovss	xmm0, DWORD PTR [rcx]
	vmovss	xmm1, DWORD PTR [rcx+4]
	vmovss	DWORD PTR $T6[rbp-48], xmm0
	vmovss	xmm0, DWORD PTR [rcx+8]
; File g:\dropbox\github\berconmaps\src\fractal.h

; 52   : 			case 2: return turbulence(p, np);

	lea	rcx, QWORD PTR $T6[rbp-48]
; File c:\program files\autodesk\3ds max 2019 sdk\maxsdk\include\point3.h

; 73   : 		 x = a.x; y = a.y; z = a.z; 

	vmovss	DWORD PTR $T6[rbp-40], xmm0
	vmovss	DWORD PTR $T6[rbp-44], xmm1
; File g:\dropbox\github\berconmaps\src\fractal.h

; 52   : 			case 2: return turbulence(p, np);

	call	?turbulence@Fractal@@SAMVPoint3@@AEAVNoiseParams@@@Z ; Fractal::turbulence

; 58   : 		}
; 59   : 		return 0.f;
; 60   : 	}

	add	rsp, 48					; 00000030H
	pop	rbp
	ret	0
$LN7@f:
; File c:\program files\autodesk\3ds max 2019 sdk\maxsdk\include\point3.h

; 73   : 		 x = a.x; y = a.y; z = a.z; 

	vmovss	xmm0, DWORD PTR [rcx]
	vmovss	xmm1, DWORD PTR [rcx+4]
	vmovss	DWORD PTR $T5[rbp-48], xmm0
	vmovss	xmm0, DWORD PTR [rcx+8]
; File g:\dropbox\github\berconmaps\src\fractal.h

; 53   : 			case 3: return fBm(p, np);

	lea	rcx, QWORD PTR $T5[rbp-48]
; File c:\program files\autodesk\3ds max 2019 sdk\maxsdk\include\point3.h

; 73   : 		 x = a.x; y = a.y; z = a.z; 

	vmovss	DWORD PTR $T5[rbp-40], xmm0
	vmovss	DWORD PTR $T5[rbp-44], xmm1
; File g:\dropbox\github\berconmaps\src\fractal.h

; 53   : 			case 3: return fBm(p, np);

	call	?fBm@Fractal@@SAMVPoint3@@AEAVNoiseParams@@@Z ; Fractal::fBm

; 58   : 		}
; 59   : 		return 0.f;
; 60   : 	}

	add	rsp, 48					; 00000030H
	pop	rbp
	ret	0
$LN8@f:
; File c:\program files\autodesk\3ds max 2019 sdk\maxsdk\include\point3.h

; 73   : 		 x = a.x; y = a.y; z = a.z; 

	vmovss	xmm0, DWORD PTR [rcx]
	vmovss	xmm1, DWORD PTR [rcx+4]
	vmovss	DWORD PTR $T4[rbp-48], xmm0
	vmovss	xmm0, DWORD PTR [rcx+8]
; File g:\dropbox\github\berconmaps\src\fractal.h

; 54   : 			case 4: return fBmTurb(p, np);

	lea	rcx, QWORD PTR $T4[rbp-48]
; File c:\program files\autodesk\3ds max 2019 sdk\maxsdk\include\point3.h

; 73   : 		 x = a.x; y = a.y; z = a.z; 

	vmovss	DWORD PTR $T4[rbp-40], xmm0
	vmovss	DWORD PTR $T4[rbp-44], xmm1
; File g:\dropbox\github\berconmaps\src\fractal.h

; 54   : 			case 4: return fBmTurb(p, np);

	call	?fBmTurb@Fractal@@SAMVPoint3@@AEAVNoiseParams@@@Z ; Fractal::fBmTurb

; 58   : 		}
; 59   : 		return 0.f;
; 60   : 	}

	add	rsp, 48					; 00000030H
	pop	rbp
	ret	0
$LN9@f:
; File c:\program files\autodesk\3ds max 2019 sdk\maxsdk\include\point3.h

; 73   : 		 x = a.x; y = a.y; z = a.z; 

	vmovss	xmm0, DWORD PTR [rcx]
	vmovss	xmm1, DWORD PTR [rcx+4]
	vmovss	DWORD PTR $T3[rbp-48], xmm0
	vmovss	xmm0, DWORD PTR [rcx+8]
; File g:\dropbox\github\berconmaps\src\fractal.h

; 55   : 			case 5: return heteroTerrain(p, np);

	lea	rcx, QWORD PTR $T3[rbp-48]
; File c:\program files\autodesk\3ds max 2019 sdk\maxsdk\include\point3.h

; 73   : 		 x = a.x; y = a.y; z = a.z; 

	vmovss	DWORD PTR $T3[rbp-40], xmm0
	vmovss	DWORD PTR $T3[rbp-44], xmm1
; File g:\dropbox\github\berconmaps\src\fractal.h

; 55   : 			case 5: return heteroTerrain(p, np);

	call	?heteroTerrain@Fractal@@SAMVPoint3@@AEAVNoiseParams@@@Z ; Fractal::heteroTerrain

; 58   : 		}
; 59   : 		return 0.f;
; 60   : 	}

	add	rsp, 48					; 00000030H
	pop	rbp
	ret	0
$LN10@f:
; File c:\program files\autodesk\3ds max 2019 sdk\maxsdk\include\point3.h

; 73   : 		 x = a.x; y = a.y; z = a.z; 

	vmovss	xmm0, DWORD PTR [rcx]
	vmovss	xmm1, DWORD PTR [rcx+4]
	vmovss	DWORD PTR $T2[rbp-48], xmm0
	vmovss	xmm0, DWORD PTR [rcx+8]
; File g:\dropbox\github\berconmaps\src\fractal.h

; 56   : 			case 6: return hybridMultiFractal(p, np);

	lea	rcx, QWORD PTR $T2[rbp-48]
; File c:\program files\autodesk\3ds max 2019 sdk\maxsdk\include\point3.h

; 73   : 		 x = a.x; y = a.y; z = a.z; 

	vmovss	DWORD PTR $T2[rbp-40], xmm0
	vmovss	DWORD PTR $T2[rbp-44], xmm1
; File g:\dropbox\github\berconmaps\src\fractal.h

; 56   : 			case 6: return hybridMultiFractal(p, np);

	call	?hybridMultiFractal@Fractal@@SAMVPoint3@@AEAVNoiseParams@@@Z ; Fractal::hybridMultiFractal

; 58   : 		}
; 59   : 		return 0.f;
; 60   : 	}

	add	rsp, 48					; 00000030H
	pop	rbp
	ret	0
$LN11@f:
; File c:\program files\autodesk\3ds max 2019 sdk\maxsdk\include\point3.h

; 73   : 		 x = a.x; y = a.y; z = a.z; 

	vmovss	xmm0, DWORD PTR [rcx]
	vmovss	xmm1, DWORD PTR [rcx+4]
	vmovss	DWORD PTR $T1[rbp-48], xmm0
	vmovss	xmm0, DWORD PTR [rcx+8]
; File g:\dropbox\github\berconmaps\src\fractal.h

; 57   : 			case 7: return ridgedMultiFractal(p, np);

	lea	rcx, QWORD PTR $T1[rbp-48]
; File c:\program files\autodesk\3ds max 2019 sdk\maxsdk\include\point3.h

; 73   : 		 x = a.x; y = a.y; z = a.z; 

	vmovss	DWORD PTR $T1[rbp-40], xmm0
	vmovss	DWORD PTR $T1[rbp-44], xmm1
; File g:\dropbox\github\berconmaps\src\fractal.h

; 57   : 			case 7: return ridgedMultiFractal(p, np);

	call	?ridgedMultiFractal@Fractal@@SAMVPoint3@@AEAVNoiseParams@@@Z ; Fractal::ridgedMultiFractal

; 58   : 		}
; 59   : 		return 0.f;
; 60   : 	}

	add	rsp, 48					; 00000030H
	pop	rbp
	ret	0
$LN2@f:
	vxorps	xmm0, xmm0, xmm0
	add	rsp, 48					; 00000030H
	pop	rbp
	ret	0
	npad	3
$LN29@f:
	DD	$LN4@f
	DD	$LN5@f
	DD	$LN6@f
	DD	$LN7@f
	DD	$LN8@f
	DD	$LN9@f
	DD	$LN10@f
	DD	$LN11@f
?f@Fractal@@SAMVPoint3@@AEAVNoiseParams@@@Z ENDP	; Fractal::f
_TEXT	ENDS
; Function compile flags: /Ogtpy
; File g:\dropbox\github\berconmaps\src\noise.cpp
; File c:\program files\autodesk\3ds max 2019 sdk\maxsdk\include\point3.h
; File g:\dropbox\github\berconmaps\src\noise.cpp
; File c:\program files\autodesk\3ds max 2019 sdk\maxsdk\include\point3.h
; File g:\dropbox\github\berconmaps\src\noise.cpp
;	COMDAT ?limitedNoise@Noise@@SAMVPoint3@@00AEAVNoiseParams@@@Z
_TEXT	SEGMENT
$T1 = 32
p$ = 96
dpdx$ = 104
dpdy$ = 112
np$ = 120
?limitedNoise@Noise@@SAMVPoint3@@00AEAVNoiseParams@@@Z PROC ; Noise::limitedNoise, COMDAT

; 211  : float Noise::limitedNoise(Point3 p, Point3 dpdx, Point3 dpdy, NoiseParams &np) {

$LN12:
	push	rbx
	push	rsi
	push	rdi
	sub	rsp, 64					; 00000040H
	mov	rdi, rcx
	vmovaps	XMMWORD PTR [rsp+48], xmm6

; 212  : 	float lx = dpdx.Length();

	mov	rcx, rdx
	mov	rsi, r9
	mov	rbx, r8
	call	QWORD PTR __imp_?Length@Point3@@QEBAMXZ

; 213  : 	float ly = dpdy.Length();

	mov	rcx, rbx
	vmovaps	xmm6, xmm0
	call	QWORD PTR __imp_?Length@Point3@@QEBAMXZ

; 214  : 	lx = MAX(lx, ly);

	vcomiss	xmm6, xmm0
	ja	SHORT $LN7@limitedNoi
	vmovaps	xmm6, xmm0
$LN7@limitedNoi:
; File c:\program files\autodesk\3ds max 2019 sdk\maxsdk\include\point3.h

; 73   : 		 x = a.x; y = a.y; z = a.z; 

	vmovss	xmm0, DWORD PTR [rdi]
	vmovss	xmm1, DWORD PTR [rdi+4]
	vmovss	DWORD PTR $T1[rsp], xmm0
	vmovss	xmm0, DWORD PTR [rdi+8]
	vmovss	DWORD PTR $T1[rsp+4], xmm1
; File g:\dropbox\github\berconmaps\src\noise.cpp

; 215  : 	float res = Fractal::f(p, lx, np);	

	mov	r8, rsi
	lea	rcx, QWORD PTR $T1[rsp]
	vmovaps	xmm1, xmm6
; File c:\program files\autodesk\3ds max 2019 sdk\maxsdk\include\point3.h

; 73   : 		 x = a.x; y = a.y; z = a.z; 

	vmovss	DWORD PTR $T1[rsp+8], xmm0
; File g:\dropbox\github\berconmaps\src\noise.cpp

; 215  : 	float res = Fractal::f(p, lx, np);	

	call	?f@Fractal@@SAMVPoint3@@MAEAVNoiseParams@@@Z ; Fractal::f

; 216  : 	if (np.low<np.high) res = threshold(res,np.low,np.high);		

	vmovss	xmm1, DWORD PTR [rsi+60]
	vmovss	xmm2, DWORD PTR [rsi+64]
	vcomiss	xmm2, xmm1
	jbe	SHORT $LN2@limitedNoi
	call	QWORD PTR __imp_?threshold@@YAMMMM@Z
$LN2@limitedNoi:
	vxorps	xmm1, xmm1, xmm1

; 217  : 	if (res < 0) return 0.0f;

	vcomiss	xmm1, xmm0
	ja	SHORT $LN10@limitedNoi

; 218  : 	if (res > 1) return 1.0f;

	vmovss	xmm1, DWORD PTR __real@3f800000
	vcomiss	xmm0, xmm1
	jbe	SHORT $LN4@limitedNoi
$LN10@limitedNoi:
	vmovaps	xmm0, xmm1
$LN4@limitedNoi:

; 219  : 	return res;
; 220  : }

	vmovaps	xmm6, XMMWORD PTR [rsp+48]
	add	rsp, 64					; 00000040H
	pop	rdi
	pop	rsi
	pop	rbx
	ret	0
?limitedNoise@Noise@@SAMVPoint3@@00AEAVNoiseParams@@@Z ENDP ; Noise::limitedNoise
_TEXT	ENDS
; Function compile flags: /Ogtpy
; File g:\dropbox\github\berconmaps\src\noise.cpp
; File c:\program files\autodesk\3ds max 2019 sdk\maxsdk\include\point3.h
; File g:\dropbox\github\berconmaps\src\noise.cpp
; File c:\program files\autodesk\3ds max 2019 sdk\maxsdk\include\point3.h
; File g:\dropbox\github\berconmaps\src\noise.cpp
;	COMDAT ?limitedNoise@Noise@@SAMVPoint3@@AEAVNoiseParams@@@Z
_TEXT	SEGMENT
$T1 = 32
p$ = 64
np$ = 72
?limitedNoise@Noise@@SAMVPoint3@@AEAVNoiseParams@@@Z PROC ; Noise::limitedNoise, COMDAT

; 203  : float Noise::limitedNoise(Point3 p, NoiseParams &np) {

$LN10:
	push	rbx
	sub	rsp, 48					; 00000030H
; File c:\program files\autodesk\3ds max 2019 sdk\maxsdk\include\point3.h

; 73   : 		 x = a.x; y = a.y; z = a.z; 

	vmovss	xmm0, DWORD PTR [rcx]
	vmovss	xmm1, DWORD PTR [rcx+4]
	vmovss	DWORD PTR $T1[rsp], xmm0
	vmovss	xmm0, DWORD PTR [rcx+8]
; File g:\dropbox\github\berconmaps\src\noise.cpp

; 204  : 	float res = Fractal::f(p, np);	

	lea	rcx, QWORD PTR $T1[rsp]
	mov	rbx, rdx
; File c:\program files\autodesk\3ds max 2019 sdk\maxsdk\include\point3.h

; 73   : 		 x = a.x; y = a.y; z = a.z; 

	vmovss	DWORD PTR $T1[rsp+8], xmm0
	vmovss	DWORD PTR $T1[rsp+4], xmm1
; File g:\dropbox\github\berconmaps\src\noise.cpp

; 204  : 	float res = Fractal::f(p, np);	

	call	?f@Fractal@@SAMVPoint3@@AEAVNoiseParams@@@Z ; Fractal::f

; 205  : 	if (np.low<np.high) res = threshold(res,np.low,np.high);		

	vmovss	xmm1, DWORD PTR [rbx+60]
	vmovss	xmm2, DWORD PTR [rbx+64]
	vcomiss	xmm2, xmm1
	jbe	SHORT $LN2@limitedNoi
	call	QWORD PTR __imp_?threshold@@YAMMMM@Z
$LN2@limitedNoi:
	vxorps	xmm1, xmm1, xmm1

; 206  : 	if (res < 0) return 0.0f;

	vcomiss	xmm1, xmm0
	ja	SHORT $LN8@limitedNoi

; 207  : 	if (res > 1) return 1.0f;

	vmovss	xmm1, DWORD PTR __real@3f800000
	vcomiss	xmm0, xmm1
	jbe	SHORT $LN4@limitedNoi
$LN8@limitedNoi:
	vmovaps	xmm0, xmm1
$LN4@limitedNoi:

; 208  : 	return res;
; 209  : }

	add	rsp, 48					; 00000030H
	pop	rbx
	ret	0
?limitedNoise@Noise@@SAMVPoint3@@AEAVNoiseParams@@@Z ENDP ; Noise::limitedNoise
_TEXT	ENDS
; Function compile flags: /Ogtpy
; File g:\dropbox\github\berconmaps\src\noise.cpp
; File c:\program files (x86)\microsoft visual studio 14.0\vc\include\cmath
; File g:\dropbox\github\berconmaps\src\noise.cpp
; File c:\program files (x86)\microsoft visual studio 14.0\vc\include\cmath
; File g:\dropbox\github\berconmaps\src\noise.cpp
;	COMDAT ?alterUVW@Noise@@SAXAEAVPoint3@@H@Z
_TEXT	SEGMENT
p$ = 48
type$ = 56
?alterUVW@Noise@@SAXAEAVPoint3@@H@Z PROC		; Noise::alterUVW, COMDAT

; 21   : void Noise::alterUVW(Point3& p, int type) {

$LN13:
	push	rbx
	sub	rsp, 32					; 00000020H
	mov	rbx, rcx

; 22   : 	switch (type) {

	sub	edx, 1
	je	SHORT $LN4@alterUVW
	cmp	edx, 1
	jne	SHORT $LN2@alterUVW

; 26   : 			break;
; 27   : 		case 2:	
; 28   : 			p.x = sqrt(p.x * p.x + p.y * p.y + p.z * p.z);

	vmovss	xmm0, DWORD PTR [rcx]
	vmovss	xmm2, DWORD PTR [rcx+4]
	vmovss	xmm3, DWORD PTR [rcx+8]
	vmulss	xmm1, xmm0, xmm0
	vmulss	xmm0, xmm2, xmm2
	vaddss	xmm2, xmm1, xmm0
	vmulss	xmm1, xmm3, xmm3
	vaddss	xmm0, xmm2, xmm1
; File c:\program files (x86)\microsoft visual studio 14.0\vc\include\cmath

; 305  : 	return (_CSTD sqrtf(_Xx));

	call	sqrtf
; File g:\dropbox\github\berconmaps\src\noise.cpp

; 29   : 			p.y = 0.f;			

	xor	eax, eax
	mov	QWORD PTR [rbx+4], rax
	vmovss	DWORD PTR [rbx], xmm0

; 30   : 			p.z = 0.f;
; 31   : 			break;
; 32   : 	}
; 33   : }

	add	rsp, 32					; 00000020H
	pop	rbx
	ret	0
$LN4@alterUVW:

; 23   : 		case 1: 
; 24   : 			p.x = sqrt(p.x * p.x + p.y * p.y);

	vmovss	xmm0, DWORD PTR [rcx]
	vmovss	xmm1, DWORD PTR [rcx+4]
	vmulss	xmm2, xmm0, xmm0
	vmulss	xmm1, xmm1, xmm1
	vaddss	xmm0, xmm2, xmm1
; File c:\program files (x86)\microsoft visual studio 14.0\vc\include\cmath

; 305  : 	return (_CSTD sqrtf(_Xx));

	call	sqrtf
; File g:\dropbox\github\berconmaps\src\noise.cpp

; 25   : 			p.y = 0.f;

	xor	eax, eax
	mov	DWORD PTR [rbx+4], eax
	vmovss	DWORD PTR [rbx], xmm0
$LN2@alterUVW:

; 30   : 			p.z = 0.f;
; 31   : 			break;
; 32   : 	}
; 33   : }

	add	rsp, 32					; 00000020H
	pop	rbx
	ret	0
?alterUVW@Noise@@SAXAEAVPoint3@@H@Z ENDP		; Noise::alterUVW
_TEXT	ENDS
; Function compile flags: /Ogtpy
; File g:\dropbox\github\berconmaps\src\noise.cpp
; File c:\program files (x86)\microsoft visual studio 14.0\vc\include\cmath
; File g:\dropbox\github\berconmaps\src\noise.cpp
; File c:\program files (x86)\microsoft visual studio 14.0\vc\include\cmath
; File g:\dropbox\github\berconmaps\src\noise.cpp
; File c:\program files\autodesk\3ds max 2019 sdk\maxsdk\include\point3.h
; File g:\dropbox\github\berconmaps\src\noise.cpp
; File c:\program files\autodesk\3ds max 2019 sdk\maxsdk\include\point3.h
; File g:\dropbox\github\berconmaps\src\noise.cpp
; File c:\program files\autodesk\3ds max 2019 sdk\maxsdk\include\point3.h
; File g:\dropbox\github\berconmaps\src\noise.cpp
; File c:\program files\autodesk\3ds max 2019 sdk\maxsdk\include\point3.h
; File g:\dropbox\github\berconmaps\src\noise.cpp
; File c:\program files\autodesk\3ds max 2019 sdk\maxsdk\include\point3.h
; File g:\dropbox\github\berconmaps\src\noise.cpp
; File c:\program files\autodesk\3ds max 2019 sdk\maxsdk\include\point3.h
; File g:\dropbox\github\berconmaps\src\noise.cpp
; File c:\program files\autodesk\3ds max 2019 sdk\maxsdk\include\point3.h
; File g:\dropbox\github\berconmaps\src\noise.cpp
; File c:\program files\autodesk\3ds max 2019 sdk\maxsdk\include\point3.h
; File g:\dropbox\github\berconmaps\src\noise.cpp
; File c:\program files\autodesk\3ds max 2019 sdk\maxsdk\include\point3.h
; File g:\dropbox\github\berconmaps\src\noise.cpp
; File c:\program files\autodesk\3ds max 2019 sdk\maxsdk\include\point3.h
; File g:\dropbox\github\berconmaps\src\noise.cpp
; File c:\program files (x86)\microsoft visual studio 14.0\vc\include\cmath
; File g:\dropbox\github\berconmaps\src\noise.cpp
;	COMDAT ?wood@Noise@@SAMVPoint3@@00AEAV2@VWoodParam@@@Z
_TEXT	SEGMENT
fp$1$ = 48
fp$2$ = 52
fp$3$ = 56
angNoise$1$ = 60
$T1 = 64
$T2 = 64
p$ = 304
dPdx$ = 312
dPdy$ = 320
g$ = 328
wp$ = 336
?wood@Noise@@SAMVPoint3@@00AEAV2@VWoodParam@@@Z PROC	; Noise::wood, COMDAT

; 143  : float Noise::wood(Point3 p, Point3 dPdx, Point3 dPdy, Point3 &g, WoodParam wp) {

$LN98:
	mov	rax, rsp
	push	rbx
	push	rbp
	push	rsi
	push	rdi
	push	r14
	push	r15
	sub	rsp, 248				; 000000f8H
	mov	rsi, QWORD PTR wp$[rsp]
	mov	rdi, rcx
	vmovaps	XMMWORD PTR [rax-72], xmm6

; 144  : 	// Filtered noises are only intrested in maximum change in X, Y and Z axis.
; 145  : 	float lx = dPdx.Length();

	mov	rcx, rdx
	vmovaps	XMMWORD PTR [rax-88], xmm7
	mov	rbx, r9
	vmovaps	XMMWORD PTR [rax-104], xmm8
	mov	r14, r8
	vmovaps	XMMWORD PTR [rax-120], xmm9
	mov	rbp, rdx
	vmovaps	XMMWORD PTR [rsp+112], xmm13
	vmovaps	XMMWORD PTR [rsp+96], xmm14
	vmovaps	XMMWORD PTR [rsp+80], xmm15
	call	QWORD PTR __imp_?Length@Point3@@QEBAMXZ

; 146  : 	float ly = dPdy.Length();

	mov	rcx, r14
	vmovaps	xmm6, xmm0
	call	QWORD PTR __imp_?Length@Point3@@QEBAMXZ

; 147  : 	float filter = MAX(lx, ly);
; 148  : 	// Radial noise
; 149  : 	p.x += Perlin::fsnoise4D(p.x*wp.radialFreq, p.y*wp.radialFreq, p.z*wp.radialZ, wp.randSeed-1.125f, filter*wp.radialFreq) * wp.radialStr;

	vmovss	xmm5, DWORD PTR [rsi+44]
	vmovss	xmm7, DWORD PTR __real@3f900000
	vmulss	xmm1, xmm5, DWORD PTR [rdi+4]
	vmaxss	xmm8, xmm6, xmm0
	vmovss	xmm0, DWORD PTR [rsi+4]
	vsubss	xmm3, xmm0, xmm7
	vmovss	xmm0, DWORD PTR [rdi+8]
	vmulss	xmm2, xmm0, DWORD PTR [rsi+48]
	vmulss	xmm0, xmm5, DWORD PTR [rdi]
	vmulss	xmm4, xmm5, xmm8
	vmovss	DWORD PTR [rsp+32], xmm4
	call	?fsnoise4D@Perlin@@SAMMMMMM@Z		; Perlin::fsnoise4D
	vmulss	xmm1, xmm0, DWORD PTR [rsi+40]
	vaddss	xmm6, xmm1, DWORD PTR [rdi]

; 150  : 	p.y += Perlin::fsnoise4D(p.x*wp.radialFreq, p.y*wp.radialFreq, p.z*wp.radialZ, wp.randSeed+1.125f, filter*wp.radialFreq) * wp.radialStr;

	vmovss	xmm1, DWORD PTR [rdi+8]
	vmovss	DWORD PTR [rdi], xmm6
	vmovss	xmm4, DWORD PTR [rsi+44]
	vmulss	xmm2, xmm1, DWORD PTR [rsi+48]
	vaddss	xmm3, xmm7, DWORD PTR [rsi+4]
	vmulss	xmm1, xmm4, DWORD PTR [rdi+4]
	vmulss	xmm5, xmm4, xmm8
	vmulss	xmm0, xmm4, xmm6
	vmovss	DWORD PTR [rsp+32], xmm5
	call	?fsnoise4D@Perlin@@SAMMMMMM@Z		; Perlin::fsnoise4D
	vmulss	xmm1, xmm0, DWORD PTR [rsi+40]
	vaddss	xmm2, xmm1, DWORD PTR [rdi+4]
	vmovss	DWORD PTR [rdi+4], xmm2

; 151  : 	g = p; // Store radial component for gain

	vmovsd	xmm0, QWORD PTR [rdi]
	vmovsd	QWORD PTR [rbx], xmm0
	mov	eax, DWORD PTR [rdi+8]
	mov	DWORD PTR [rbx+8], eax

; 152  : 	// Trunk wobble		
; 153  : 	float angle = Perlin::fsnoise2D(p.z*wp.trunkFreq, wp.randSeed+3.f, filter*wp.trunkFreq) * (float)pi;

	vmovss	xmm0, DWORD PTR [rsi+4]
	vmovss	xmm3, DWORD PTR [rsi+36]
	vaddss	xmm1, xmm0, DWORD PTR __real@40400000
	vmulss	xmm0, xmm3, DWORD PTR [rdi+8]
	vmulss	xmm2, xmm8, xmm3
	call	?fsnoise2D@Perlin@@SAMMMM@Z		; Perlin::fsnoise2D
	vmulss	xmm6, xmm0, DWORD PTR __real@40490fdb
; File c:\program files (x86)\microsoft visual studio 14.0\vc\include\cmath

; 88   : 	return (_CSTD cosf(_Xx));

	vmovaps	xmm0, xmm6
	call	cosf
	vmovaps	xmm7, xmm0

; 295  : 	return (_CSTD sinf(_Xx));

	vmovaps	xmm0, xmm6
	call	sinf
; File g:\dropbox\github\berconmaps\src\noise.cpp

; 154  : 	p += Point3(cos(angle), sin(angle), 0.f) * Perlin::fsnoise2D(p.z*wp.trunkFreq, wp.randSeed-5.5f, filter*wp.trunkFreq) * wp.trunkStr;		

	vmovss	xmm3, DWORD PTR [rsi+36]
	vmovss	xmm1, DWORD PTR [rsi+4]
	vsubss	xmm1, xmm1, DWORD PTR __real@40b00000
; File c:\program files (x86)\microsoft visual studio 14.0\vc\include\cmath

; 295  : 	return (_CSTD sinf(_Xx));

	vmovaps	xmm6, xmm0
; File g:\dropbox\github\berconmaps\src\noise.cpp

; 154  : 	p += Point3(cos(angle), sin(angle), 0.f) * Perlin::fsnoise2D(p.z*wp.trunkFreq, wp.randSeed-5.5f, filter*wp.trunkFreq) * wp.trunkStr;		

	vmulss	xmm0, xmm3, DWORD PTR [rdi+8]
	vmulss	xmm2, xmm8, xmm3
	call	?fsnoise2D@Perlin@@SAMMMM@Z		; Perlin::fsnoise2D
; File c:\program files\autodesk\3ds max 2019 sdk\maxsdk\include\point3.h

; 327  :    return(Point3(a.x*f, a.y*f, a.z*f));

	vmulss	xmm3, xmm6, xmm0
	vmulss	xmm2, xmm7, xmm0
	vxorps	xmm13, xmm13, xmm13
	vmulss	xmm1, xmm0, xmm13
; File g:\dropbox\github\berconmaps\src\noise.cpp

; 154  : 	p += Point3(cos(angle), sin(angle), 0.f) * Perlin::fsnoise2D(p.z*wp.trunkFreq, wp.randSeed-5.5f, filter*wp.trunkFreq) * wp.trunkStr;		

	vmovss	xmm0, DWORD PTR [rsi+32]
; File c:\program files\autodesk\3ds max 2019 sdk\maxsdk\include\point3.h

; 327  :    return(Point3(a.x*f, a.y*f, a.z*f));

	vmulss	xmm4, xmm0, xmm3
	vmulss	xmm2, xmm0, xmm2

; 266  :    x += a.x;   y += a.y;   z += a.z;

	vaddss	xmm3, xmm2, DWORD PTR [rdi]

; 327  :    return(Point3(a.x*f, a.y*f, a.z*f));

	vmulss	xmm5, xmm0, xmm1

; 266  :    x += a.x;   y += a.y;   z += a.z;

	vaddss	xmm1, xmm4, DWORD PTR [rdi+4]
	vaddss	xmm0, xmm5, DWORD PTR [rdi+8]
	vmovss	DWORD PTR [rdi], xmm3
	vmovss	DWORD PTR [rdi+4], xmm1
	vmovss	DWORD PTR [rdi+8], xmm0

; 321  :    return(Point3(a.x*f, a.y*f, a.z*f));

	vmovss	xmm9, DWORD PTR __real@3f000000
	vmulss	xmm4, xmm9, DWORD PTR [rbx+8]
	vmulss	xmm2, xmm9, DWORD PTR [rbx]
	vmulss	xmm7, xmm0, xmm9

; 297  :    return(Point3(x+b.x,y+b.y,z+b.z));

	vaddss	xmm0, xmm4, xmm7

; 61   : 		 x = X; y = Y; z = Z; 

	vmovss	DWORD PTR $T2[rsp+8], xmm0
; File g:\dropbox\github\berconmaps\src\noise.cpp

; 155  : 	g = .5f*g + .5f*p; // We don't want trunk wobble to affect too much to grain

	mov	eax, DWORD PTR $T2[rsp+8]
; File c:\program files\autodesk\3ds max 2019 sdk\maxsdk\include\point3.h

; 321  :    return(Point3(a.x*f, a.y*f, a.z*f));

	vmulss	xmm5, xmm3, xmm9
	vmulss	xmm3, xmm9, DWORD PTR [rbx+4]
	vmulss	xmm6, xmm1, xmm9

; 297  :    return(Point3(x+b.x,y+b.y,z+b.z));

	vaddss	xmm1, xmm3, xmm6
	vaddss	xmm5, xmm2, xmm5
; File g:\dropbox\github\berconmaps\src\noise.cpp

; 155  : 	g = .5f*g + .5f*p; // We don't want trunk wobble to affect too much to grain

	vunpcklps xmm0, xmm5, xmm1
	vmovsd	QWORD PTR [rbx], xmm0
	mov	DWORD PTR [rbx+8], eax

; 157  : 	float angNoise = Perlin::fnoise4D(p.x*wp.angleFreq, p.y*wp.angleFreq, p.z*wp.angleFreq*.5f, wp.randSeed+10.6f, filter*wp.angleFreq);	

	vmovss	xmm4, DWORD PTR [rsi+56]
	vmulss	xmm1, xmm4, DWORD PTR [rdi+8]
	vmovss	xmm0, DWORD PTR [rsi+4]
	vaddss	xmm3, xmm0, DWORD PTR __real@4129999a
	vmulss	xmm0, xmm4, DWORD PTR [rdi]
	vmulss	xmm2, xmm1, xmm9
	vmulss	xmm1, xmm4, DWORD PTR [rdi+4]
	vmulss	xmm5, xmm4, xmm8
	vmovss	DWORD PTR [rsp+32], xmm5
	call	?fnoise4D@Perlin@@SAMMMMMM@Z		; Perlin::fnoise4D

; 159  : 	float samplesf = (float)wp.samples;

	mov	eax, DWORD PTR [rsi+8]

; 161  : 	Point3 fp = p - dPdx * .5f - dPdy * .5f;
; 162  : 	for (int i=0; i<wp.samples; i++) for (int j=0; j<wp.samples; j++) {

	xor	r15d, r15d
; File c:\program files\autodesk\3ds max 2019 sdk\maxsdk\include\point3.h

; 327  :    return(Point3(a.x*f, a.y*f, a.z*f));

	vmulss	xmm4, xmm9, DWORD PTR [rbp]
	vmulss	xmm3, xmm9, DWORD PTR [rbp+4]
	vmulss	xmm2, xmm9, DWORD PTR [rbp+8]

; 293  :    return(Point3(x-b.x,y-b.y,z-b.z));

	vmovss	xmm1, DWORD PTR [rdi+4]

; 327  :    return(Point3(a.x*f, a.y*f, a.z*f));

	vmulss	xmm7, xmm9, DWORD PTR [r14]
	vmulss	xmm6, xmm9, DWORD PTR [r14+4]
	vmulss	xmm5, xmm9, DWORD PTR [r14+8]
; File g:\dropbox\github\berconmaps\src\noise.cpp

; 157  : 	float angNoise = Perlin::fnoise4D(p.x*wp.angleFreq, p.y*wp.angleFreq, p.z*wp.angleFreq*.5f, wp.randSeed+10.6f, filter*wp.angleFreq);	

	vmovss	DWORD PTR angNoise$1$[rsp], xmm0
; File c:\program files\autodesk\3ds max 2019 sdk\maxsdk\include\point3.h

; 293  :    return(Point3(x-b.x,y-b.y,z-b.z));

	vmovss	xmm0, DWORD PTR [rdi]
	vsubss	xmm4, xmm0, xmm4
	vmovss	xmm0, DWORD PTR [rdi+8]
	vsubss	xmm2, xmm0, xmm2
	vsubss	xmm3, xmm1, xmm3
	vsubss	xmm0, xmm2, xmm5
	vxorps	xmm15, xmm15, xmm15
	vsubss	xmm4, xmm4, xmm7
	vsubss	xmm3, xmm3, xmm6
	vmovss	DWORD PTR fp$3$[rsp], xmm0
	vmovss	DWORD PTR fp$1$[rsp], xmm4
	vmovss	DWORD PTR fp$2$[rsp], xmm3
; File g:\dropbox\github\berconmaps\src\noise.cpp

; 159  : 	float samplesf = (float)wp.samples;

	vcvtsi2ss xmm15, xmm15, eax

; 160  : 	float total = 0.f;

	vmovaps	xmm14, xmm13

; 161  : 	Point3 fp = p - dPdx * .5f - dPdy * .5f;
; 162  : 	for (int i=0; i<wp.samples; i++) for (int j=0; j<wp.samples; j++) {

	test	eax, eax
	jle	$LN3@wood
	vmovss	xmm8, DWORD PTR __real@3f800000
	vmovaps	XMMWORD PTR [rsp+160], xmm10
	vmovss	xmm10, DWORD PTR __real@3d4ccccd
	vmovaps	XMMWORD PTR [rsp+144], xmm11
	vmovaps	XMMWORD PTR [rsp+128], xmm12
	vmovss	xmm12, DWORD PTR __real@41700000
	npad	1
$LL4@wood:
	xor	ebx, ebx
	test	eax, eax
	jle	$LN2@wood
	vxorps	xmm0, xmm0, xmm0
	vcvtsi2ss xmm0, xmm0, r15d
	vaddss	xmm1, xmm0, xmm9
	vdivss	xmm11, xmm1, xmm15
	npad	3
$LL7@wood:
	vxorps	xmm0, xmm0, xmm0

; 164  : 		p = fp + dPdx * (((float)i + .5f) / samplesf) + dPdy * (((float)j + .5f) / samplesf);

	vcvtsi2ss xmm0, xmm0, ebx
	vaddss	xmm1, xmm0, xmm9
; File c:\program files\autodesk\3ds max 2019 sdk\maxsdk\include\point3.h

; 327  :    return(Point3(a.x*f, a.y*f, a.z*f));

	vmulss	xmm0, xmm11, DWORD PTR [rbp+8]
; File g:\dropbox\github\berconmaps\src\noise.cpp

; 164  : 		p = fp + dPdx * (((float)i + .5f) / samplesf) + dPdy * (((float)j + .5f) / samplesf);

	vdivss	xmm2, xmm1, xmm15
; File c:\program files\autodesk\3ds max 2019 sdk\maxsdk\include\point3.h

; 327  :    return(Point3(a.x*f, a.y*f, a.z*f));

	vmulss	xmm5, xmm2, DWORD PTR [r14]
	vmulss	xmm6, xmm2, DWORD PTR [r14+4]
	vmulss	xmm7, xmm2, DWORD PTR [r14+8]
	vmulss	xmm2, xmm11, DWORD PTR [rbp+4]
	vmulss	xmm1, xmm11, DWORD PTR [rbp]

; 297  :    return(Point3(x+b.x,y+b.y,z+b.z));

	vaddss	xmm1, xmm1, xmm4
	vaddss	xmm4, xmm0, DWORD PTR fp$3$[rsp]
	vaddss	xmm0, xmm4, xmm7

; 61   : 		 x = X; y = Y; z = Z; 

	vmovss	DWORD PTR $T1[rsp+8], xmm0
; File g:\dropbox\github\berconmaps\src\noise.cpp

; 164  : 		p = fp + dPdx * (((float)i + .5f) / samplesf) + dPdy * (((float)j + .5f) / samplesf);

	mov	eax, DWORD PTR $T1[rsp+8]
; File c:\program files\autodesk\3ds max 2019 sdk\maxsdk\include\point3.h

; 297  :    return(Point3(x+b.x,y+b.y,z+b.z));

	vaddss	xmm3, xmm2, xmm3
	vaddss	xmm2, xmm3, xmm6
	vaddss	xmm5, xmm1, xmm5
; File g:\dropbox\github\berconmaps\src\noise.cpp

; 164  : 		p = fp + dPdx * (((float)i + .5f) / samplesf) + dPdy * (((float)j + .5f) / samplesf);

	vunpcklps xmm0, xmm5, xmm2
	vmovsd	QWORD PTR [rdi], xmm0
	mov	DWORD PTR [rdi+8], eax

; 165  : 		// Distance	
; 166  : 		float dist = 0.f;	
; 167  : 		switch (wp.woodType) {

	mov	ecx, DWORD PTR [rsi]
	vmovaps	xmm6, xmm13
	test	ecx, ecx
	je	$LN10@wood
	sub	ecx, 1
	je	SHORT $LN11@wood
	sub	ecx, 1
	je	SHORT $LN12@wood
	cmp	ecx, 1
	jne	$LN8@wood

; 171  : 			case 3: dist = p.x<0.f?-p.x:p.x; break;

	vmovss	xmm6, DWORD PTR [rdi]
	vcomiss	xmm13, xmm6
	jbe	$LN8@wood
	vxorps	xmm6, xmm6, DWORD PTR __xmm@80000000800000008000000080000000
	jmp	$LN8@wood
$LN12@wood:
; File c:\program files\autodesk\3ds max 2019 sdk\maxsdk\include\point3.h

; 271  :    x *= f;   y *= f; z *= f;

	vmulss	xmm0, xmm10, DWORD PTR [rdi]
	vmulss	xmm1, xmm10, DWORD PTR [rdi+4]
	vmulss	xmm2, xmm10, DWORD PTR [rdi+8]
	vmovss	DWORD PTR [rdi], xmm0
	vmovss	DWORD PTR [rdi+4], xmm1
	vmovss	DWORD PTR [rdi+8], xmm2
; File g:\dropbox\github\berconmaps\src\noise.cpp

; 170  : 			case 2: p*=.05f; dist = (Perlin::snoise(p.x, p.y, p.z, wp.randSeed+3.15f)+1.f) / .5f * 15.f; break;

	vmovss	xmm3, DWORD PTR [rsi+4]
	vaddss	xmm3, xmm3, DWORD PTR __real@4049999a
	call	?snoise@Perlin@@SAMMMMM@Z		; Perlin::snoise
	vaddss	xmm1, xmm0, xmm8
	vaddss	xmm2, xmm1, xmm1
	vmulss	xmm6, xmm2, xmm12
	jmp	SHORT $LN8@wood
$LN11@wood:
; File c:\program files\autodesk\3ds max 2019 sdk\maxsdk\include\point3.h

; 271  :    x *= f;   y *= f; z *= f;

	vmulss	xmm0, xmm10, DWORD PTR [rdi]
	vmulss	xmm1, xmm10, DWORD PTR [rdi+4]
	vmulss	xmm2, xmm10, DWORD PTR [rdi+8]
	vmovss	DWORD PTR [rdi], xmm0
	vmovss	DWORD PTR [rdi+4], xmm1
	vmovss	DWORD PTR [rdi+8], xmm2
; File g:\dropbox\github\berconmaps\src\noise.cpp

; 169  : 			case 1: p*=.05f; dist = (Perlin::noise(p.x, p.y, p.z, wp.randSeed-7.1f)+1.f) / .5f * 15.f; break;

	vmovss	xmm3, DWORD PTR [rsi+4]
	vsubss	xmm3, xmm3, DWORD PTR __real@40e33333
	call	?noise@Perlin@@SAMMMMM@Z		; Perlin::noise
	vaddss	xmm1, xmm0, xmm8
	vaddss	xmm2, xmm1, xmm1
	vmulss	xmm6, xmm2, xmm12
	jmp	SHORT $LN8@wood
$LN10@wood:

; 168  : 			case 0: dist = sqrt(p.x*p.x+p.y*p.y); break;

	vmovss	xmm0, DWORD PTR [rdi]
	vmovss	xmm1, DWORD PTR [rdi+4]
	vmulss	xmm2, xmm0, xmm0
	vmulss	xmm1, xmm1, xmm1
	vaddss	xmm0, xmm2, xmm1
; File c:\program files (x86)\microsoft visual studio 14.0\vc\include\cmath

; 305  : 	return (_CSTD sqrtf(_Xx));

	call	sqrtf
	vmovaps	xmm6, xmm0
$LN8@wood:
; File g:\dropbox\github\berconmaps\src\noise.cpp

; 174  : 		dist += Perlin::snoise(dist+wp.randSeed*2.f) * wp.widthVar; // We need FAST and continous random function here, 1D Simplex does fairly well

	vmovss	xmm1, DWORD PTR [rsi+4]
	vaddss	xmm2, xmm1, xmm1
	vaddss	xmm0, xmm2, xmm6
	call	?snoise@Perlin@@SAMM@Z			; Perlin::snoise
	vmulss	xmm1, xmm0, DWORD PTR [rsi+24]
	vmovss	xmm4, DWORD PTR [rsi+60]
	vaddss	xmm5, xmm6, xmm1
	vminss	xmm2, xmm4, xmm5

; 175  : 		// Angular noise
; 176  : 		float d = dist;
; 177  : 		if (d > wp.angleRad) d = wp.angleRad;	
; 178  : 		dist += SMOOTH(d/wp.angleRad) * angNoise * wp.angleStr;

	vaddss	xmm0, xmm2, xmm2
	vdivss	xmm1, xmm0, xmm4
	vmovss	xmm0, DWORD PTR __real@40400000
	vsubss	xmm3, xmm0, xmm1
	vdivss	xmm0, xmm2, xmm4
	vmulss	xmm1, xmm0, xmm2
	vdivss	xmm2, xmm1, xmm4
	vmulss	xmm3, xmm3, xmm2
	vmulss	xmm0, xmm3, DWORD PTR angNoise$1$[rsp]
	vmulss	xmm1, xmm0, DWORD PTR [rsi+52]

; 179  : 		// Mod
; 180  : 		float ipart = (float)(int)dist;		
; 181  : 		dist -= ipart;
; 182  : 		// Skew
; 183  : 		if (dist < wp.skew)

	vmovss	xmm3, DWORD PTR [rsi+20]
	vaddss	xmm2, xmm5, xmm1
	vcvttss2si eax, xmm2
	vxorps	xmm7, xmm7, xmm7
	vcvtsi2ss xmm7, xmm7, eax
	vsubss	xmm4, xmm2, xmm7
	vcomiss	xmm3, xmm4
	jbe	SHORT $LN15@wood

; 184  : 			dist *= .5f / wp.skew;

	vdivss	xmm0, xmm9, xmm3
	vmulss	xmm1, xmm4, xmm0

; 185  : 		else

	jmp	SHORT $LN16@wood
$LN15@wood:

; 186  : 			dist = dist * .5f / (1.f-wp.skew) - wp.skew * (.5f/(1.f-wp.skew)) + .5f;	

	vsubss	xmm1, xmm8, xmm3
	vmulss	xmm0, xmm4, xmm9
	vdivss	xmm2, xmm0, xmm1
	vdivss	xmm1, xmm9, xmm1
	vmulss	xmm0, xmm1, xmm3
	vsubss	xmm2, xmm2, xmm0
	vaddss	xmm1, xmm2, xmm9
$LN16@wood:

; 187  : 		// Reverse
; 188  : 		dist *= 2.f;

	vaddss	xmm0, xmm1, xmm1

; 189  : 		if (dist > 1.f)

	vcomiss	xmm0, xmm8
	jbe	SHORT $LN17@wood

; 190  : 			dist = 2.f - dist;

	vmovss	xmm1, DWORD PTR __real@40000000
	vsubss	xmm0, xmm1, xmm0
$LN17@wood:

; 191  : 		// Smooth and scale
; 192  : 		dist = smooth(dist, wp.lowTresh, wp.highTresh);	

	vmovss	xmm2, DWORD PTR [rsi+16]
	vmovss	xmm1, DWORD PTR [rsi+12]
	call	?smooth@@YAMMMM@Z			; smooth

; 193  : 		// Gain variation				
; 194  : 		float gain = (Perlin::snoise((ipart + wp.randSeed) * 314.134f) + 1.f) * .5f; // Again we need FAST random function, in this case it doesn't have to be continous		

	vaddss	xmm1, xmm7, DWORD PTR [rsi+4]
	vmovaps	xmm6, xmm0
	vmulss	xmm0, xmm1, DWORD PTR __real@439d1127
	call	?snoise@Perlin@@SAMM@Z			; Perlin::snoise
	vmovss	xmm3, DWORD PTR fp$2$[rsp]
	vaddss	xmm1, xmm0, xmm8
	vmulss	xmm2, xmm1, xmm9

; 195  : 		dist *= (1.f-wp.gainVar) + gain * wp.gainVar;

	vmulss	xmm4, xmm2, DWORD PTR [rsi+28]
	vsubss	xmm1, xmm8, DWORD PTR [rsi+28]
	vaddss	xmm2, xmm4, xmm1
	vmovss	xmm4, DWORD PTR fp$1$[rsp]
	inc	ebx
	vmulss	xmm0, xmm2, xmm6

; 196  : 		// Add to total value
; 197  : 	 	total += dist;

	vaddss	xmm14, xmm14, xmm0
	cmp	ebx, DWORD PTR [rsi+8]
	jl	$LL7@wood
$LN2@wood:

; 161  : 	Point3 fp = p - dPdx * .5f - dPdy * .5f;
; 162  : 	for (int i=0; i<wp.samples; i++) for (int j=0; j<wp.samples; j++) {

	mov	eax, DWORD PTR [rsi+8]
	inc	r15d
	cmp	r15d, eax
	jl	$LL4@wood
	vmovaps	xmm12, XMMWORD PTR [rsp+128]
	vmovaps	xmm11, XMMWORD PTR [rsp+144]
	vmovaps	xmm10, XMMWORD PTR [rsp+160]
$LN3@wood:

; 198  : 	}
; 199  : 	// Return final value, just need to divide sum with number of samples taken
; 200  : 	return total / (float)(wp.samples * wp.samples);

	mov	eax, DWORD PTR [rsi+8]

; 201  : }

	lea	r11, QWORD PTR [rsp+248]
	vmovaps	xmm6, XMMWORD PTR [r11-24]
	vmovaps	xmm7, XMMWORD PTR [r11-40]
	vmovaps	xmm8, XMMWORD PTR [r11-56]
	vmovaps	xmm9, XMMWORD PTR [r11-72]
	vmovaps	xmm13, XMMWORD PTR [rsp+112]
	vmovaps	xmm15, XMMWORD PTR [rsp+80]
	vxorps	xmm0, xmm0, xmm0
	imul	eax, eax
	vcvtsi2ss xmm0, xmm0, eax
	vdivss	xmm0, xmm14, xmm0
	vmovaps	xmm14, XMMWORD PTR [rsp+96]
	mov	rsp, r11
	pop	r15
	pop	r14
	pop	rdi
	pop	rsi
	pop	rbp
	pop	rbx
	ret	0
?wood@Noise@@SAMVPoint3@@00AEAV2@VWoodParam@@@Z ENDP	; Noise::wood
_TEXT	ENDS
; Function compile flags: /Ogtpy
; File g:\dropbox\github\berconmaps\src\noise.cpp
; File c:\program files (x86)\microsoft visual studio 14.0\vc\include\cmath
; File g:\dropbox\github\berconmaps\src\noise.cpp
; File c:\program files (x86)\microsoft visual studio 14.0\vc\include\cmath
; File g:\dropbox\github\berconmaps\src\noise.cpp
; File c:\program files\autodesk\3ds max 2019 sdk\maxsdk\include\point3.h
; File g:\dropbox\github\berconmaps\src\noise.cpp
; File c:\program files\autodesk\3ds max 2019 sdk\maxsdk\include\point3.h
; File g:\dropbox\github\berconmaps\src\noise.cpp
; File c:\program files\autodesk\3ds max 2019 sdk\maxsdk\include\point3.h
; File g:\dropbox\github\berconmaps\src\noise.cpp
; File c:\program files\autodesk\3ds max 2019 sdk\maxsdk\include\point3.h
; File g:\dropbox\github\berconmaps\src\noise.cpp
; File c:\program files\autodesk\3ds max 2019 sdk\maxsdk\include\point3.h
; File g:\dropbox\github\berconmaps\src\noise.cpp
; File c:\program files (x86)\microsoft visual studio 14.0\vc\include\cmath
; File g:\dropbox\github\berconmaps\src\noise.cpp
;	COMDAT ?wood@Noise@@SAMVPoint3@@AEAV2@AEAVWoodParam@@@Z
_TEXT	SEGMENT
$T1 = 32
p$ = 160
g$ = 168
wp$ = 176
?wood@Noise@@SAMVPoint3@@AEAV2@AEAVWoodParam@@@Z PROC	; Noise::wood, COMDAT

; 87   : float Noise::wood(Point3 p, Point3 &g, WoodParam &wp) {

$LN51:
	push	rbx
	push	rsi
	push	rdi
	sub	rsp, 128				; 00000080H

; 88   : 	// Radial noise
; 89   : 	p.x += Perlin::snoise(p.x*wp.radialFreq, p.y*wp.radialFreq, p.z*wp.radialZ, wp.randSeed-1.125f) * wp.radialStr;

	vmovss	xmm0, DWORD PTR [r8+4]
	vmovss	xmm4, DWORD PTR [r8+44]
	vmulss	xmm1, xmm4, DWORD PTR [rcx+4]
	vmovaps	XMMWORD PTR [rsp+112], xmm6
	mov	rsi, r8
	vmovss	xmm6, DWORD PTR __real@3f900000
	vsubss	xmm3, xmm0, xmm6
	vmovss	xmm0, DWORD PTR [rcx+8]
	vmulss	xmm2, xmm0, DWORD PTR [r8+48]
	vmulss	xmm0, xmm4, DWORD PTR [rcx]
	vmovaps	XMMWORD PTR [rsp+96], xmm7
	mov	rbx, rdx
	vmovaps	XMMWORD PTR [rsp+80], xmm8
	mov	rdi, rcx
	vmovaps	XMMWORD PTR [rsp+64], xmm9
	vmovaps	XMMWORD PTR [rsp+48], xmm10
	call	?snoise@Perlin@@SAMMMMM@Z		; Perlin::snoise
	vmulss	xmm1, xmm0, DWORD PTR [rsi+40]
	vaddss	xmm5, xmm1, DWORD PTR [rdi]

; 90   : 	p.y += Perlin::snoise(p.x*wp.radialFreq, p.y*wp.radialFreq, p.z*wp.radialZ, wp.randSeed+1.125f) * wp.radialStr;

	vmovss	xmm1, DWORD PTR [rdi+8]
	vmovss	DWORD PTR [rdi], xmm5
	vmovss	xmm4, DWORD PTR [rsi+44]
	vmulss	xmm2, xmm1, DWORD PTR [rsi+48]
	vmulss	xmm1, xmm4, DWORD PTR [rdi+4]
	vaddss	xmm3, xmm6, DWORD PTR [rsi+4]
	vmulss	xmm0, xmm4, xmm5
	call	?snoise@Perlin@@SAMMMMM@Z		; Perlin::snoise
	vmulss	xmm1, xmm0, DWORD PTR [rsi+40]
	vaddss	xmm2, xmm1, DWORD PTR [rdi+4]
	vmovss	DWORD PTR [rdi+4], xmm2

; 91   : 	g = p; // Store radial component for gain

	vmovsd	xmm0, QWORD PTR [rdi]
	vmovsd	QWORD PTR [rbx], xmm0
	mov	eax, DWORD PTR [rdi+8]
	mov	DWORD PTR [rbx+8], eax

; 92   : 	// Trunk wobble		
; 93   : 	float angle = Perlin::snoise(p.z*wp.trunkFreq, wp.randSeed+3.f) * (float)pi; // Offset so we dont get the same value as below

	vmovss	xmm0, DWORD PTR [rsi+4]
	vmovss	xmm2, DWORD PTR [rdi+8]
	vaddss	xmm1, xmm0, DWORD PTR __real@40400000
	vmulss	xmm0, xmm2, DWORD PTR [rsi+36]
	call	?snoise@Perlin@@SAMMM@Z			; Perlin::snoise
	vmulss	xmm6, xmm0, DWORD PTR __real@40490fdb
; File c:\program files (x86)\microsoft visual studio 14.0\vc\include\cmath

; 88   : 	return (_CSTD cosf(_Xx));

	vmovaps	xmm0, xmm6
	call	cosf
	vmovaps	xmm7, xmm0

; 295  : 	return (_CSTD sinf(_Xx));

	vmovaps	xmm0, xmm6
	call	sinf
; File g:\dropbox\github\berconmaps\src\noise.cpp

; 94   : 	p += Point3(cos(angle), sin(angle), 0.f) * Perlin::snoise(p.z*wp.trunkFreq, wp.randSeed-5.5f) * wp.trunkStr;		

	vmovss	xmm1, DWORD PTR [rsi+4]
	vmovss	xmm2, DWORD PTR [rdi+8]
	vsubss	xmm1, xmm1, DWORD PTR __real@40b00000
; File c:\program files (x86)\microsoft visual studio 14.0\vc\include\cmath

; 295  : 	return (_CSTD sinf(_Xx));

	vmovaps	xmm6, xmm0
; File g:\dropbox\github\berconmaps\src\noise.cpp

; 94   : 	p += Point3(cos(angle), sin(angle), 0.f) * Perlin::snoise(p.z*wp.trunkFreq, wp.randSeed-5.5f) * wp.trunkStr;		

	vmulss	xmm0, xmm2, DWORD PTR [rsi+36]
	call	?snoise@Perlin@@SAMMM@Z			; Perlin::snoise
; File c:\program files\autodesk\3ds max 2019 sdk\maxsdk\include\point3.h

; 321  :    return(Point3(a.x*f, a.y*f, a.z*f));

	vmovss	xmm9, DWORD PTR __real@3f000000

; 327  :    return(Point3(a.x*f, a.y*f, a.z*f));

	vmulss	xmm1, xmm7, xmm0
	vmulss	xmm3, xmm6, xmm0
	vxorps	xmm8, xmm8, xmm8
	vmulss	xmm2, xmm0, xmm8
; File g:\dropbox\github\berconmaps\src\noise.cpp

; 94   : 	p += Point3(cos(angle), sin(angle), 0.f) * Perlin::snoise(p.z*wp.trunkFreq, wp.randSeed-5.5f) * wp.trunkStr;		

	vmovss	xmm0, DWORD PTR [rsi+32]
; File c:\program files\autodesk\3ds max 2019 sdk\maxsdk\include\point3.h

; 327  :    return(Point3(a.x*f, a.y*f, a.z*f));

	vmulss	xmm4, xmm2, xmm0
	vmulss	xmm1, xmm1, xmm0

; 266  :    x += a.x;   y += a.y;   z += a.z;

	vaddss	xmm5, xmm1, DWORD PTR [rdi]
	vmovss	DWORD PTR [rdi], xmm5

; 327  :    return(Point3(a.x*f, a.y*f, a.z*f));

	vmulss	xmm3, xmm3, xmm0

; 266  :    x += a.x;   y += a.y;   z += a.z;

	vaddss	xmm0, xmm4, DWORD PTR [rdi+8]
	vaddss	xmm2, xmm3, DWORD PTR [rdi+4]
	vmovss	DWORD PTR [rdi+8], xmm0
	vmovss	DWORD PTR [rdi+4], xmm2

; 321  :    return(Point3(a.x*f, a.y*f, a.z*f));

	vmulss	xmm4, xmm9, DWORD PTR [rbx+8]
	vmulss	xmm3, xmm9, DWORD PTR [rbx+4]
	vmulss	xmm6, xmm2, xmm9
	vmulss	xmm2, xmm9, DWORD PTR [rbx]
	vmulss	xmm7, xmm0, xmm9

; 297  :    return(Point3(x+b.x,y+b.y,z+b.z));

	vaddss	xmm0, xmm7, xmm4

; 61   : 		 x = X; y = Y; z = Z; 

	vmovss	DWORD PTR $T1[rsp+8], xmm0
; File g:\dropbox\github\berconmaps\src\noise.cpp

; 95   : 	g = .5f*g + .5f*p; // We don't want trunk wobble to affect too much to grain

	mov	eax, DWORD PTR $T1[rsp+8]
; File c:\program files\autodesk\3ds max 2019 sdk\maxsdk\include\point3.h

; 321  :    return(Point3(a.x*f, a.y*f, a.z*f));

	vmulss	xmm5, xmm5, xmm9

; 297  :    return(Point3(x+b.x,y+b.y,z+b.z));

	vaddss	xmm5, xmm5, xmm2
	vaddss	xmm1, xmm6, xmm3
; File g:\dropbox\github\berconmaps\src\noise.cpp

; 95   : 	g = .5f*g + .5f*p; // We don't want trunk wobble to affect too much to grain

	vunpcklps xmm0, xmm5, xmm1
	vmovsd	QWORD PTR [rbx], xmm0
	mov	DWORD PTR [rbx+8], eax

; 96   : 	// Distance
; 97   : 	float dist = 0.f;
; 98   : 	switch (wp.woodType) {

	mov	ecx, DWORD PTR [rsi]
	vmovss	xmm10, DWORD PTR __real@3f800000
	test	ecx, ecx
	je	$LN4@wood
	sub	ecx, 1
	je	SHORT $LN5@wood
	sub	ecx, 1
	je	SHORT $LN6@wood
	cmp	ecx, 1
	jne	$LN2@wood

; 102  : 		case 3: dist = p.x<0.f?-p.x:p.x; break;

	vmovss	xmm0, DWORD PTR [rdi]
	vcomiss	xmm8, xmm0
	jbe	$LN13@wood
	vxorps	xmm8, xmm0, DWORD PTR __xmm@80000000800000008000000080000000
	jmp	$LN2@wood
$LN6@wood:
; File c:\program files\autodesk\3ds max 2019 sdk\maxsdk\include\point3.h

; 271  :    x *= f;   y *= f; z *= f;

	vmovss	xmm3, DWORD PTR __real@3d4ccccd
	vmulss	xmm0, xmm3, DWORD PTR [rdi]
	vmulss	xmm1, xmm3, DWORD PTR [rdi+4]
	vmulss	xmm2, xmm3, DWORD PTR [rdi+8]
	vmovss	DWORD PTR [rdi], xmm0
	vmovss	DWORD PTR [rdi+4], xmm1
	vmovss	DWORD PTR [rdi+8], xmm2
; File g:\dropbox\github\berconmaps\src\noise.cpp

; 101  : 		case 2: p*=.05f; dist = (Perlin::snoise(p.x, p.y, p.z, wp.randSeed+3.15f)+1.f) / .5f * 15.f; break;

	vmovss	xmm3, DWORD PTR [rsi+4]
	vaddss	xmm3, xmm3, DWORD PTR __real@4049999a
	call	?snoise@Perlin@@SAMMMMM@Z		; Perlin::snoise
	jmp	SHORT $LN49@wood
$LN5@wood:
; File c:\program files\autodesk\3ds max 2019 sdk\maxsdk\include\point3.h

; 271  :    x *= f;   y *= f; z *= f;

	vmovss	xmm3, DWORD PTR __real@3d4ccccd
	vmulss	xmm0, xmm3, DWORD PTR [rdi]
	vmulss	xmm1, xmm3, DWORD PTR [rdi+4]
	vmulss	xmm2, xmm3, DWORD PTR [rdi+8]
	vmovss	DWORD PTR [rdi], xmm0
	vmovss	DWORD PTR [rdi+4], xmm1
	vmovss	DWORD PTR [rdi+8], xmm2
; File g:\dropbox\github\berconmaps\src\noise.cpp

; 100  : 		case 1: p*=.05f; dist = (Perlin::noise(p.x, p.y, p.z, wp.randSeed-7.1f)+1.f) / .5f * 15.f; break;

	vmovss	xmm3, DWORD PTR [rsi+4]
	vsubss	xmm3, xmm3, DWORD PTR __real@40e33333
	call	?noise@Perlin@@SAMMMMM@Z		; Perlin::noise
$LN49@wood:
	vaddss	xmm1, xmm0, xmm10
	vaddss	xmm2, xmm1, xmm1
	vmulss	xmm8, xmm2, DWORD PTR __real@41700000
	jmp	SHORT $LN2@wood
$LN4@wood:

; 99   : 		case 0: dist = sqrt(p.x*p.x+p.y*p.y); break;

	vmovss	xmm0, DWORD PTR [rdi]
	vmovss	xmm1, DWORD PTR [rdi+4]
	vmulss	xmm2, xmm0, xmm0
	vmulss	xmm1, xmm1, xmm1
	vaddss	xmm0, xmm2, xmm1
; File c:\program files (x86)\microsoft visual studio 14.0\vc\include\cmath

; 305  : 	return (_CSTD sqrtf(_Xx));

	call	sqrtf
$LN13@wood:
	vmovaps	xmm8, xmm0
$LN2@wood:
; File g:\dropbox\github\berconmaps\src\noise.cpp

; 105  : 	dist += Perlin::snoise(dist+wp.randSeed*2.f) * wp.widthVar;

	vmovss	xmm1, DWORD PTR [rsi+4]
	vaddss	xmm2, xmm1, xmm1
	vaddss	xmm0, xmm2, xmm8
	call	?snoise@Perlin@@SAMM@Z			; Perlin::snoise
	vmulss	xmm1, xmm0, DWORD PTR [rsi+24]

; 106  : 	// Angular noise
; 107  : 	float d = dist;
; 108  : 	if (d > wp.angleRad) d = wp.angleRad;	
; 109  : 	dist += smooth(d/wp.angleRad) * Perlin::noise(p.x*wp.angleFreq, p.y*wp.angleFreq, p.z*wp.angleFreq*.5f, wp.randSeed+10.6f) * wp.angleStr;

	vmovss	xmm4, DWORD PTR [rsi+56]
	vmovss	xmm0, DWORD PTR [rsi+60]
	vaddss	xmm8, xmm8, xmm1
	vmovss	xmm1, DWORD PTR [rsi+4]
	vaddss	xmm3, xmm1, DWORD PTR __real@4129999a
	vmulss	xmm1, xmm4, DWORD PTR [rdi+4]
	vminss	xmm7, xmm0, xmm8
	vmulss	xmm0, xmm4, DWORD PTR [rdi+8]
	vmulss	xmm2, xmm0, xmm9
	vmulss	xmm0, xmm4, DWORD PTR [rdi]
	call	?noise@Perlin@@SAMMMMM@Z		; Perlin::noise
	vmovaps	xmm6, xmm0
	vdivss	xmm0, xmm7, DWORD PTR [rsi+60]
	call	?smooth@@YAMM@Z				; smooth

; 110  : 	// Mod
; 111  : 	float ipart = (float)(int)dist;		
; 112  : 	dist -= ipart;
; 113  : 	// Skew
; 114  : 	if (dist < wp.skew)

	vmovss	xmm3, DWORD PTR [rsi+20]
	vmulss	xmm1, xmm6, xmm0
	vmulss	xmm1, xmm1, DWORD PTR [rsi+52]
	vaddss	xmm0, xmm8, xmm1
	vcvttss2si eax, xmm0
	vxorps	xmm7, xmm7, xmm7
	vcvtsi2ss xmm7, xmm7, eax
	vsubss	xmm2, xmm0, xmm7
	vcomiss	xmm3, xmm2
	jbe	SHORT $LN9@wood

; 115  : 		dist *= .5f / wp.skew;

	vdivss	xmm0, xmm9, xmm3
	vmulss	xmm1, xmm2, xmm0

; 116  : 	else

	jmp	SHORT $LN10@wood
$LN9@wood:

; 117  : 		dist = dist * .5f / (1.f-wp.skew) - wp.skew * (.5f/(1.f-wp.skew)) + .5f;	

	vmulss	xmm0, xmm2, xmm9
	vsubss	xmm1, xmm10, xmm3
	vdivss	xmm2, xmm0, xmm1
	vdivss	xmm1, xmm9, xmm1
	vmulss	xmm0, xmm1, xmm3
	vsubss	xmm2, xmm2, xmm0
	vaddss	xmm1, xmm2, xmm9
$LN10@wood:

; 118  : 	// Reverse
; 119  : 	dist *= 2.f;

	vaddss	xmm0, xmm1, xmm1

; 120  : 	if (dist > 1.f)

	vcomiss	xmm0, xmm10
	jbe	SHORT $LN11@wood

; 121  : 		dist = 2.f-dist;

	vmovss	xmm1, DWORD PTR __real@40000000
	vsubss	xmm0, xmm1, xmm0
$LN11@wood:

; 122  : 	// Smooth and scale
; 123  : 	dist = smooth(dist, wp.lowTresh, wp.highTresh);	

	vmovss	xmm2, DWORD PTR [rsi+16]
	vmovss	xmm1, DWORD PTR [rsi+12]
	call	?smooth@@YAMMMM@Z			; smooth

; 124  : 	// Gain variation		
; 125  : 	float gain = (Perlin::snoise((ipart + wp.randSeed) * 314.134f) + 1.f) * .5f;

	vaddss	xmm1, xmm7, DWORD PTR [rsi+4]
	vmovaps	xmm6, xmm0
	vmulss	xmm0, xmm1, DWORD PTR __real@439d1127
	call	?snoise@Perlin@@SAMM@Z			; Perlin::snoise

; 126  : 	dist *= (1.f-wp.gainVar) + gain * wp.gainVar;
; 127  : 	// Return	
; 128  : 	return dist;
; 129  : }

	vmovaps	xmm7, XMMWORD PTR [rsp+96]
	vmovaps	xmm8, XMMWORD PTR [rsp+80]
	vaddss	xmm1, xmm0, xmm10
	vmulss	xmm2, xmm1, xmm9
	vsubss	xmm1, xmm10, DWORD PTR [rsi+28]
	vmulss	xmm4, xmm2, DWORD PTR [rsi+28]
	vmovaps	xmm9, XMMWORD PTR [rsp+64]
	vmovaps	xmm10, XMMWORD PTR [rsp+48]
	vaddss	xmm2, xmm4, xmm1
	vmulss	xmm0, xmm2, xmm6
	vmovaps	xmm6, XMMWORD PTR [rsp+112]
	add	rsp, 128				; 00000080H
	pop	rdi
	pop	rsi
	pop	rbx
	ret	0
?wood@Noise@@SAMVPoint3@@AEAV2@AEAVWoodParam@@@Z ENDP	; Noise::wood
_TEXT	ENDS
; Function compile flags: /Ogtpy
; File g:\dropbox\github\berconmaps\src\noise.cpp
;	COMDAT ?worleyWrapper@Noise@@SAMVPoint3@@AEAVNoiseParams@@@Z
_TEXT	SEGMENT
f$ = 32
p3$ = 64
__$ArrayPad$ = 88
p$ = 112
np$ = 120
?worleyWrapper@Noise@@SAMVPoint3@@AEAVNoiseParams@@@Z PROC ; Noise::worleyWrapper, COMDAT

; 61   : float Noise::worleyWrapper(Point3 p, NoiseParams& np) {	

$LN19:
	mov	QWORD PTR [rsp+24], rbx
	push	rdi
	sub	rsp, 96					; 00000060H
	mov	rax, QWORD PTR __security_cookie
	xor	rax, rsp
	mov	QWORD PTR __$ArrayPad$[rsp], rax
	vmovss	xmm0, DWORD PTR [rcx]
	vmovss	xmm1, DWORD PTR [rcx+4]

; 62   : 	float val;
; 63   : 	double p3[3] = {(double)p.x, (double)p.y, (double)p.z};
; 64   : 	double f[4];
; 65   : 	int order = 1;
; 66   : 	// Calc order
; 67   : 	if (np.F4 > 0.0001f || np.F4 < -0.0001f)

	vmovss	xmm2, DWORD PTR __real@38d1b717
	vcvtss2sd xmm0, xmm0, xmm0
	vcvtss2sd xmm1, xmm1, xmm1
	vmovsd	QWORD PTR p3$[rsp], xmm0
	vmovss	xmm0, DWORD PTR [rcx+8]
	vmovsd	QWORD PTR p3$[rsp+8], xmm1
	vmovss	xmm1, DWORD PTR [rdx+32]
	vcomiss	xmm1, xmm2
	vcvtss2sd xmm0, xmm0, xmm0
	vmovsd	QWORD PTR p3$[rsp+16], xmm0
	mov	rdi, rdx
	mov	ebx, 1
	ja	SHORT $LN6@worleyWrap
	vmovss	xmm0, DWORD PTR __real@b8d1b717
	vcomiss	xmm0, xmm1
	ja	SHORT $LN6@worleyWrap

; 69   : 	else if (np.F3 > 0.0001f || np.F3 < -0.0001f)

	vmovss	xmm1, DWORD PTR [rdx+28]
	vcomiss	xmm1, xmm2
	ja	SHORT $LN9@worleyWrap
	vcomiss	xmm0, xmm1
	ja	SHORT $LN9@worleyWrap

; 71   : 	else if (np.F2 > 0.0001f || np.F2 < -0.0001f)

	vmovss	xmm1, DWORD PTR [rdx+24]
	vcomiss	xmm1, xmm2
	ja	SHORT $LN11@worleyWrap
	vcomiss	xmm0, xmm1
	jbe	SHORT $LN10@worleyWrap
$LN11@worleyWrap:

; 72   : 		order = 2;

	mov	ebx, 2
	jmp	SHORT $LN10@worleyWrap
$LN9@worleyWrap:

; 70   : 		order = 3;

	mov	ebx, 3
	jmp	SHORT $LN10@worleyWrap
$LN6@worleyWrap:

; 68   : 		order = 4;

	mov	ebx, 4
$LN10@worleyWrap:

; 73   : 	// Worley
; 74   : 	Worley::noise(p3, order, f, np.worleyFunction);	

	mov	r9d, DWORD PTR [rdx+8]
	lea	r8, QWORD PTR f$[rsp]
	mov	edx, ebx
	lea	rcx, QWORD PTR p3$[rsp]
	call	?noise@Worley@@SAXQEANHPEANH@Z		; Worley::noise

; 75   : 	// Return value
; 76   : 	switch (order) {

	sub	ebx, 1
	je	$LN12@worleyWrap
	sub	ebx, 1
	je	$LN13@worleyWrap
	sub	ebx, 1
	je	SHORT $LN14@worleyWrap
	cmp	ebx, 1
	je	SHORT $LN15@worleyWrap
	vxorps	xmm0, xmm0, xmm0

; 81   : 		default: val = 0.0f;

	jmp	$LN2@worleyWrap
$LN15@worleyWrap:
	vmovsd	xmm0, QWORD PTR f$[rsp]
	vmovsd	xmm1, QWORD PTR f$[rsp+8]

; 80   : 		case 4: val = (float)f[0]*np.F1 + (float)f[1]*np.F2 + (float)f[2]*np.F3 + (float)f[3]*np.F4; break;

	vcvtpd2ps xmm0, xmm0
	vmulss	xmm2, xmm0, DWORD PTR [rdi+20]
	vcvtpd2ps xmm1, xmm1
	vmulss	xmm0, xmm1, DWORD PTR [rdi+24]
	vmovsd	xmm1, QWORD PTR f$[rsp+24]
	vaddss	xmm3, xmm2, xmm0
	vmovsd	xmm2, QWORD PTR f$[rsp+16]
	vcvtpd2ps xmm2, xmm2
	vmulss	xmm0, xmm2, DWORD PTR [rdi+28]
	vcvtpd2ps xmm1, xmm1
	vmulss	xmm2, xmm1, DWORD PTR [rdi+32]
	vaddss	xmm3, xmm3, xmm0
	vaddss	xmm0, xmm3, xmm2
	jmp	SHORT $LN2@worleyWrap
$LN14@worleyWrap:
	vmovsd	xmm0, QWORD PTR f$[rsp]
	vmovsd	xmm1, QWORD PTR f$[rsp+8]

; 79   : 		case 3: val = (float)f[0]*np.F1 + (float)f[1]*np.F2 + (float)f[2]*np.F3; break;

	vcvtpd2ps xmm0, xmm0
	vmulss	xmm2, xmm0, DWORD PTR [rdi+20]
	vcvtpd2ps xmm1, xmm1
	vmulss	xmm0, xmm1, DWORD PTR [rdi+24]
	vaddss	xmm3, xmm2, xmm0
	vmovsd	xmm2, QWORD PTR f$[rsp+16]
	vcvtpd2ps xmm2, xmm2
	vmulss	xmm0, xmm2, DWORD PTR [rdi+28]
	vaddss	xmm0, xmm3, xmm0
	jmp	SHORT $LN2@worleyWrap
$LN13@worleyWrap:
	vmovsd	xmm0, QWORD PTR f$[rsp]
	vmovsd	xmm1, QWORD PTR f$[rsp+8]

; 78   : 		case 2: val = (float)f[0]*np.F1 + (float)f[1]*np.F2; break;

	vcvtpd2ps xmm0, xmm0
	vmulss	xmm2, xmm0, DWORD PTR [rdi+20]
	vcvtpd2ps xmm1, xmm1
	vmulss	xmm0, xmm1, DWORD PTR [rdi+24]
	vaddss	xmm0, xmm2, xmm0
	jmp	SHORT $LN2@worleyWrap
$LN12@worleyWrap:
	vmovsd	xmm0, QWORD PTR f$[rsp]

; 77   : 		case 1: val = (float)f[0]*np.F1; break;

	vcvtpd2ps xmm0, xmm0
	vmulss	xmm0, xmm0, DWORD PTR [rdi+20]
$LN2@worleyWrap:

; 82   : 	}
; 83   : 	val = val/np.spread*2.f-1.f;

	vdivss	xmm0, xmm0, DWORD PTR [rdi+16]
	vaddss	xmm1, xmm0, xmm0
	vsubss	xmm0, xmm1, DWORD PTR __real@3f800000

; 84   : 	return val;
; 85   : }

	mov	rcx, QWORD PTR __$ArrayPad$[rsp]
	xor	rcx, rsp
	call	__security_check_cookie
	mov	rbx, QWORD PTR [rsp+128]
	add	rsp, 96					; 00000060H
	pop	rdi
	ret	0
?worleyWrapper@Noise@@SAMVPoint3@@AEAVNoiseParams@@@Z ENDP ; Noise::worleyWrapper
_TEXT	ENDS
; Function compile flags: /Ogtpy
; File g:\dropbox\github\berconmaps\src\noise.cpp
; File c:\program files\autodesk\3ds max 2019 sdk\maxsdk\include\point3.h
; File g:\dropbox\github\berconmaps\src\noise.cpp
; File c:\program files\autodesk\3ds max 2019 sdk\maxsdk\include\point3.h
; File g:\dropbox\github\berconmaps\src\noise.cpp
;	COMDAT ?noise@Noise@@SAMVPoint3@@MAEAVNoiseParams@@@Z
_TEXT	SEGMENT
$T1 = 48
p$ = 80
d$ = 88
np$ = 96
?noise@Noise@@SAMVPoint3@@MAEAVNoiseParams@@@Z PROC	; Noise::noise, COMDAT

; 48   : float Noise::noise(Point3 p, float d, NoiseParams& np) {

$LN17:
	sub	rsp, 72					; 00000048H

; 49   : 	switch (np.noiseFunction) {

	movsxd	rax, DWORD PTR [r8]
	mov	rdx, rcx
	cmp	eax, 6
	ja	$LN11@noise
	lea	r9, OFFSET FLAT:__ImageBase
	mov	ecx, DWORD PTR $LN15@noise[r9+rax*4]
	add	rcx, r9
	jmp	rcx
$LN4@noise:

; 50   : 		case 0: return Perlin::fnoise2D(p.x, p.y, d);

	vmovss	xmm0, DWORD PTR [rdx]
	vmovaps	xmm2, xmm1
	vmovss	xmm1, DWORD PTR [rdx+4]

; 57   : 		default: return 0.0f;
; 58   : 	}
; 59   : }

	add	rsp, 72					; 00000048H

; 50   : 		case 0: return Perlin::fnoise2D(p.x, p.y, d);

	jmp	?fnoise2D@Perlin@@SAMMMM@Z		; Perlin::fnoise2D
$LN5@noise:

; 51   : 		case 1: return Perlin::fnoise3D(p.x, p.y, p.z, d);

	vmovss	xmm2, DWORD PTR [rdx+8]
	vmovss	xmm0, DWORD PTR [rdx]
	vmovaps	xmm3, xmm1
	vmovss	xmm1, DWORD PTR [rdx+4]

; 57   : 		default: return 0.0f;
; 58   : 	}
; 59   : }

	add	rsp, 72					; 00000048H

; 51   : 		case 1: return Perlin::fnoise3D(p.x, p.y, p.z, d);

	jmp	?fnoise3D@Perlin@@SAMMMMM@Z		; Perlin::fnoise3D
$LN6@noise:

; 52   : 		case 2: return Perlin::fnoise4D(p.x, p.y, p.z, np.phase, d);		

	vmovss	xmm3, DWORD PTR [r8+12]
	vmovss	xmm2, DWORD PTR [rdx+8]
	vmovss	xmm0, DWORD PTR [rdx]
	vmovss	DWORD PTR [rsp+32], xmm1
	vmovss	xmm1, DWORD PTR [rdx+4]
	call	?fnoise4D@Perlin@@SAMMMMMM@Z		; Perlin::fnoise4D

; 57   : 		default: return 0.0f;
; 58   : 	}
; 59   : }

	add	rsp, 72					; 00000048H
	ret	0
$LN7@noise:

; 53   : 		case 3: return Perlin::fsnoise2D(p.x, p.y, d);

	vmovss	xmm0, DWORD PTR [rdx]
	vmovaps	xmm2, xmm1
	vmovss	xmm1, DWORD PTR [rdx+4]

; 57   : 		default: return 0.0f;
; 58   : 	}
; 59   : }

	add	rsp, 72					; 00000048H

; 53   : 		case 3: return Perlin::fsnoise2D(p.x, p.y, d);

	jmp	?fsnoise2D@Perlin@@SAMMMM@Z		; Perlin::fsnoise2D
$LN8@noise:

; 54   : 		case 4: return Perlin::fsnoise3D(p.x, p.y, p.z, d);

	vmovss	xmm2, DWORD PTR [rdx+8]
	vmovss	xmm0, DWORD PTR [rdx]
	vmovaps	xmm3, xmm1
	vmovss	xmm1, DWORD PTR [rdx+4]

; 57   : 		default: return 0.0f;
; 58   : 	}
; 59   : }

	add	rsp, 72					; 00000048H

; 54   : 		case 4: return Perlin::fsnoise3D(p.x, p.y, p.z, d);

	jmp	?fsnoise3D@Perlin@@SAMMMMM@Z		; Perlin::fsnoise3D
$LN9@noise:

; 55   : 		case 5: return Perlin::fsnoise4D(p.x, p.y, p.z, np.phase, d);		

	vmovss	xmm3, DWORD PTR [r8+12]
	vmovss	xmm2, DWORD PTR [rdx+8]
	vmovss	xmm0, DWORD PTR [rdx]
	vmovss	DWORD PTR [rsp+32], xmm1
	vmovss	xmm1, DWORD PTR [rdx+4]
	call	?fsnoise4D@Perlin@@SAMMMMMM@Z		; Perlin::fsnoise4D

; 57   : 		default: return 0.0f;
; 58   : 	}
; 59   : }

	add	rsp, 72					; 00000048H
	ret	0
$LN10@noise:
; File c:\program files\autodesk\3ds max 2019 sdk\maxsdk\include\point3.h

; 73   : 		 x = a.x; y = a.y; z = a.z; 

	vmovss	xmm0, DWORD PTR [rdx]
	vmovss	xmm1, DWORD PTR [rdx+4]
	vmovss	DWORD PTR $T1[rsp], xmm0
	vmovss	xmm0, DWORD PTR [rdx+8]
; File g:\dropbox\github\berconmaps\src\noise.cpp

; 56   : 		case 6: return worleyWrapper(p, np);

	mov	rdx, r8
	lea	rcx, QWORD PTR $T1[rsp]
; File c:\program files\autodesk\3ds max 2019 sdk\maxsdk\include\point3.h

; 73   : 		 x = a.x; y = a.y; z = a.z; 

	vmovss	DWORD PTR $T1[rsp+8], xmm0
	vmovss	DWORD PTR $T1[rsp+4], xmm1
; File g:\dropbox\github\berconmaps\src\noise.cpp

; 56   : 		case 6: return worleyWrapper(p, np);

	call	?worleyWrapper@Noise@@SAMVPoint3@@AEAVNoiseParams@@@Z ; Noise::worleyWrapper

; 57   : 		default: return 0.0f;
; 58   : 	}
; 59   : }

	add	rsp, 72					; 00000048H
	ret	0
$LN11@noise:
	vxorps	xmm0, xmm0, xmm0
	add	rsp, 72					; 00000048H
	ret	0
$LN15@noise:
	DD	$LN4@noise
	DD	$LN5@noise
	DD	$LN6@noise
	DD	$LN7@noise
	DD	$LN8@noise
	DD	$LN9@noise
	DD	$LN10@noise
?noise@Noise@@SAMVPoint3@@MAEAVNoiseParams@@@Z ENDP	; Noise::noise
_TEXT	ENDS
; Function compile flags: /Ogtpy
; File g:\dropbox\github\berconmaps\src\noise.cpp
; File c:\program files\autodesk\3ds max 2019 sdk\maxsdk\include\point3.h
; File g:\dropbox\github\berconmaps\src\noise.cpp
; File c:\program files\autodesk\3ds max 2019 sdk\maxsdk\include\point3.h
; File g:\dropbox\github\berconmaps\src\noise.cpp
;	COMDAT ?noise@Noise@@SAMVPoint3@@AEAVNoiseParams@@@Z
_TEXT	SEGMENT
$T1 = 32
p$ = 64
np$ = 72
?noise@Noise@@SAMVPoint3@@AEAVNoiseParams@@@Z PROC	; Noise::noise, COMDAT

; 35   : float Noise::noise(Point3 p, NoiseParams& np) {

$LN17:
	sub	rsp, 56					; 00000038H
	mov	r8, rdx
	mov	rdx, rcx

; 36   : 	switch (np.noiseFunction) {

	movsxd	rax, DWORD PTR [r8]
	cmp	eax, 6
	ja	$LN11@noise
	lea	r9, OFFSET FLAT:__ImageBase
	mov	ecx, DWORD PTR $LN15@noise[r9+rax*4]
	add	rcx, r9
	jmp	rcx
$LN4@noise:

; 37   : 		case 0: return Perlin::noise(p.x, p.y);

	vmovss	xmm1, DWORD PTR [rdx+4]
	vmovss	xmm0, DWORD PTR [rdx]

; 44   : 		default: return 0.0f;
; 45   : 	}
; 46   : }

	add	rsp, 56					; 00000038H

; 37   : 		case 0: return Perlin::noise(p.x, p.y);

	jmp	?noise@Perlin@@SAMMM@Z			; Perlin::noise
$LN5@noise:

; 38   : 		case 1: return Perlin::noise(p.x, p.y, p.z);

	vmovss	xmm2, DWORD PTR [rdx+8]
	vmovss	xmm1, DWORD PTR [rdx+4]
	vmovss	xmm0, DWORD PTR [rdx]

; 44   : 		default: return 0.0f;
; 45   : 	}
; 46   : }

	add	rsp, 56					; 00000038H

; 38   : 		case 1: return Perlin::noise(p.x, p.y, p.z);

	jmp	?noise@Perlin@@SAMMMM@Z			; Perlin::noise
$LN6@noise:

; 39   : 		case 2: return Perlin::noise(p.x, p.y, p.z, np.phase);		

	vmovss	xmm3, DWORD PTR [r8+12]
	vmovss	xmm2, DWORD PTR [rdx+8]
	vmovss	xmm1, DWORD PTR [rdx+4]
	vmovss	xmm0, DWORD PTR [rdx]

; 44   : 		default: return 0.0f;
; 45   : 	}
; 46   : }

	add	rsp, 56					; 00000038H

; 39   : 		case 2: return Perlin::noise(p.x, p.y, p.z, np.phase);		

	jmp	?noise@Perlin@@SAMMMMM@Z		; Perlin::noise
$LN7@noise:

; 40   : 		case 3: return Perlin::snoise(p.x, p.y);

	vmovss	xmm1, DWORD PTR [rdx+4]
	vmovss	xmm0, DWORD PTR [rdx]

; 44   : 		default: return 0.0f;
; 45   : 	}
; 46   : }

	add	rsp, 56					; 00000038H

; 40   : 		case 3: return Perlin::snoise(p.x, p.y);

	jmp	?snoise@Perlin@@SAMMM@Z			; Perlin::snoise
$LN8@noise:

; 41   : 		case 4: return Perlin::snoise(p.x, p.y, p.z);

	vmovss	xmm2, DWORD PTR [rdx+8]
	vmovss	xmm1, DWORD PTR [rdx+4]
	vmovss	xmm0, DWORD PTR [rdx]

; 44   : 		default: return 0.0f;
; 45   : 	}
; 46   : }

	add	rsp, 56					; 00000038H

; 41   : 		case 4: return Perlin::snoise(p.x, p.y, p.z);

	jmp	?snoise@Perlin@@SAMMMM@Z		; Perlin::snoise
$LN9@noise:

; 42   : 		case 5: return Perlin::snoise(p.x, p.y, p.z, np.phase);		

	vmovss	xmm3, DWORD PTR [r8+12]
	vmovss	xmm2, DWORD PTR [rdx+8]
	vmovss	xmm1, DWORD PTR [rdx+4]
	vmovss	xmm0, DWORD PTR [rdx]

; 44   : 		default: return 0.0f;
; 45   : 	}
; 46   : }

	add	rsp, 56					; 00000038H

; 42   : 		case 5: return Perlin::snoise(p.x, p.y, p.z, np.phase);		

	jmp	?snoise@Perlin@@SAMMMMM@Z		; Perlin::snoise
$LN10@noise:
; File c:\program files\autodesk\3ds max 2019 sdk\maxsdk\include\point3.h

; 73   : 		 x = a.x; y = a.y; z = a.z; 

	vmovss	xmm0, DWORD PTR [rdx]
	vmovss	xmm1, DWORD PTR [rdx+4]
	vmovss	DWORD PTR $T1[rsp], xmm0
	vmovss	xmm0, DWORD PTR [rdx+8]
; File g:\dropbox\github\berconmaps\src\noise.cpp

; 43   : 		case 6: return worleyWrapper(p, np);

	mov	rdx, r8
	lea	rcx, QWORD PTR $T1[rsp]
; File c:\program files\autodesk\3ds max 2019 sdk\maxsdk\include\point3.h

; 73   : 		 x = a.x; y = a.y; z = a.z; 

	vmovss	DWORD PTR $T1[rsp+8], xmm0
	vmovss	DWORD PTR $T1[rsp+4], xmm1
; File g:\dropbox\github\berconmaps\src\noise.cpp

; 43   : 		case 6: return worleyWrapper(p, np);

	call	?worleyWrapper@Noise@@SAMVPoint3@@AEAVNoiseParams@@@Z ; Noise::worleyWrapper

; 44   : 		default: return 0.0f;
; 45   : 	}
; 46   : }

	add	rsp, 56					; 00000038H
	ret	0
$LN11@noise:
	vxorps	xmm0, xmm0, xmm0
	add	rsp, 56					; 00000038H
	ret	0
	npad	3
$LN15@noise:
	DD	$LN4@noise
	DD	$LN5@noise
	DD	$LN6@noise
	DD	$LN7@noise
	DD	$LN8@noise
	DD	$LN9@noise
	DD	$LN10@noise
?noise@Noise@@SAMVPoint3@@AEAVNoiseParams@@@Z ENDP	; Noise::noise
_TEXT	ENDS
; Function compile flags: /Ogtpy
; File c:\program files\autodesk\3ds max 2019 sdk\maxsdk\include\assetmanagement\assetid.h
;	COMDAT ??__EkInvalidId@AssetManagement@MaxSDK@@YAXXZ
text$di	SEGMENT
??__EkInvalidId@AssetManagement@MaxSDK@@YAXXZ PROC	; MaxSDK::AssetManagement::`dynamic initializer for 'kInvalidId'', COMDAT

; 29   : 			AssetId() { *static_cast<GUID*>(this) = CLSID_NULL; }

	vmovups	xmm0, XMMWORD PTR GUID_NULL
	vmovups	XMMWORD PTR ?kInvalidId@AssetManagement@MaxSDK@@3UAssetId@12@A, xmm0

; 32   : 		static AssetId kInvalidId;

	ret	0
??__EkInvalidId@AssetManagement@MaxSDK@@YAXXZ ENDP	; MaxSDK::AssetManagement::`dynamic initializer for 'kInvalidId''
text$di	ENDS
; Function compile flags: /Ogtpy
; File c:\program files\autodesk\3ds max 2019 sdk\maxsdk\include\assetmanagement\assetid.h
;	COMDAT ??0AssetId@AssetManagement@MaxSDK@@QEAA@XZ
_TEXT	SEGMENT
this$ = 8
??0AssetId@AssetManagement@MaxSDK@@QEAA@XZ PROC		; MaxSDK::AssetManagement::AssetId::AssetId, COMDAT

; 29   : 			AssetId() { *static_cast<GUID*>(this) = CLSID_NULL; }

	vmovups	xmm0, XMMWORD PTR GUID_NULL
	vmovups	XMMWORD PTR [rcx], xmm0
	mov	rax, rcx
	ret	0
??0AssetId@AssetManagement@MaxSDK@@QEAA@XZ ENDP		; MaxSDK::AssetManagement::AssetId::AssetId
_TEXT	ENDS
; Function compile flags: /Ogtpy
; File c:\program files\autodesk\3ds max 2019 sdk\maxsdk\include\point3.h
;	COMDAT ??D@YA?AVPoint3@@AEBV0@M@Z
_TEXT	SEGMENT
__$ReturnUdt$ = 8
a$ = 16
f$ = 24
??D@YA?AVPoint3@@AEBV0@M@Z PROC				; operator*, COMDAT

; 327  :    return(Point3(a.x*f, a.y*f, a.z*f));

	vmulss	xmm0, xmm2, DWORD PTR [rdx]
	vmulss	xmm1, xmm2, DWORD PTR [rdx+4]

; 61   : 		 x = X; y = Y; z = Z; 

	vmovss	DWORD PTR [rcx], xmm0

; 327  :    return(Point3(a.x*f, a.y*f, a.z*f));

	vmulss	xmm0, xmm2, DWORD PTR [rdx+8]

; 61   : 		 x = X; y = Y; z = Z; 

	vmovss	DWORD PTR [rcx+8], xmm0
	vmovss	DWORD PTR [rcx+4], xmm1

; 327  :    return(Point3(a.x*f, a.y*f, a.z*f));

	mov	rax, rcx

; 328  :    }

	ret	0
??D@YA?AVPoint3@@AEBV0@M@Z ENDP				; operator*
_TEXT	ENDS
; Function compile flags: /Ogtpy
; File c:\program files\autodesk\3ds max 2019 sdk\maxsdk\include\point3.h
;	COMDAT ??D@YA?AVPoint3@@MAEBV0@@Z
_TEXT	SEGMENT
__$ReturnUdt$ = 8
f$ = 16
a$ = 24
??D@YA?AVPoint3@@MAEBV0@@Z PROC				; operator*, COMDAT

; 321  :    return(Point3(a.x*f, a.y*f, a.z*f));

	vmulss	xmm0, xmm1, DWORD PTR [r8]
	vmulss	xmm2, xmm1, DWORD PTR [r8+4]

; 61   : 		 x = X; y = Y; z = Z; 

	vmovss	DWORD PTR [rcx], xmm0

; 321  :    return(Point3(a.x*f, a.y*f, a.z*f));

	vmulss	xmm0, xmm1, DWORD PTR [r8+8]

; 61   : 		 x = X; y = Y; z = Z; 

	vmovss	DWORD PTR [rcx+8], xmm0
	vmovss	DWORD PTR [rcx+4], xmm2

; 321  :    return(Point3(a.x*f, a.y*f, a.z*f));

	mov	rax, rcx

; 322  :    }

	ret	0
??D@YA?AVPoint3@@MAEBV0@@Z ENDP				; operator*
_TEXT	ENDS
; Function compile flags: /Ogtpy
; File c:\program files (x86)\microsoft visual studio 14.0\vc\include\cmath
;	COMDAT ?sqrt@@YAMM@Z
_TEXT	SEGMENT
_Xx$ = 48
?sqrt@@YAMM@Z PROC					; sqrt, COMDAT

; 304  : 	{

$LN4:
	sub	rsp, 40					; 00000028H

; 305  : 	return (_CSTD sqrtf(_Xx));

	call	sqrtf

; 306  : 	}

	add	rsp, 40					; 00000028H
	ret	0
?sqrt@@YAMM@Z ENDP					; sqrt
_TEXT	ENDS
; Function compile flags: /Ogtpy
; File c:\program files (x86)\microsoft visual studio 14.0\vc\include\cmath
;	COMDAT ?sin@@YAMM@Z
_TEXT	SEGMENT
_Xx$ = 48
?sin@@YAMM@Z PROC					; sin, COMDAT

; 294  : 	{

$LN4:
	sub	rsp, 40					; 00000028H

; 295  : 	return (_CSTD sinf(_Xx));

	call	sinf

; 296  : 	}

	add	rsp, 40					; 00000028H
	ret	0
?sin@@YAMM@Z ENDP					; sin
_TEXT	ENDS
; Function compile flags: /Ogtpy
; File c:\program files (x86)\microsoft visual studio 14.0\vc\include\cmath
;	COMDAT ?cos@@YAMM@Z
_TEXT	SEGMENT
_Xx$ = 48
?cos@@YAMM@Z PROC					; cos, COMDAT

; 87   : 	{

$LN4:
	sub	rsp, 40					; 00000028H

; 88   : 	return (_CSTD cosf(_Xx));

	call	cosf

; 89   : 	}

	add	rsp, 40					; 00000028H
	ret	0
?cos@@YAMM@Z ENDP					; cos
_TEXT	ENDS
; Function compile flags: /Ogtpy
; File c:\program files\autodesk\3ds max 2019 sdk\maxsdk\include\maxtypes.h
;	COMDAT ??0Class_ID@@QEAA@KK@Z
_TEXT	SEGMENT
this$ = 8
aa$ = 16
bb$ = 24
??0Class_ID@@QEAA@KK@Z PROC				; Class_ID::Class_ID, COMDAT

; 160  : 	Class_ID(ulong aa, ulong bb) { a = aa; b = bb; }

	mov	DWORD PTR [rcx], edx
	mov	rax, rcx
	mov	DWORD PTR [rcx+4], r8d
	ret	0
??0Class_ID@@QEAA@KK@Z ENDP				; Class_ID::Class_ID
_TEXT	ENDS
; Function compile flags: /Ogtpy
; File g:\dropbox\github\berconmaps\src\noise.cpp
;	COMDAT ?__empty_global_delete@@YAXPEAX_K@Z
_TEXT	SEGMENT
__formal$ = 8
__formal$ = 16
?__empty_global_delete@@YAXPEAX_K@Z PROC		; __empty_global_delete, COMDAT

; 221  : }

	ret	0
?__empty_global_delete@@YAXPEAX_K@Z ENDP		; __empty_global_delete
_TEXT	ENDS
; Function compile flags: /Ogtpy
; File g:\dropbox\github\berconmaps\src\noise.cpp
;	COMDAT ?__empty_global_delete@@YAXPEAX@Z
_TEXT	SEGMENT
__formal$ = 8
?__empty_global_delete@@YAXPEAX@Z PROC			; __empty_global_delete, COMDAT

; 221  : }

	ret	0
?__empty_global_delete@@YAXPEAX@Z ENDP			; __empty_global_delete
_TEXT	ENDS
; Function compile flags: /Ogtpy
;	COMDAT ??_H@YAXPEAX_K1P6APEAX0@Z@Z
_TEXT	SEGMENT
__t$ = 48
__s$ = 56
__n$ = 64
__f$ = 72
??_H@YAXPEAX_K1P6APEAX0@Z@Z PROC			; `vector constructor iterator', COMDAT
$LN12:
	test	r8, r8
	je	SHORT $LN10@vector
	mov	QWORD PTR [rsp+8], rbx
	mov	QWORD PTR [rsp+16], rbp
	mov	QWORD PTR [rsp+24], rsi
	push	rdi
	sub	rsp, 32					; 00000020H
	mov	rsi, r9
	mov	rbx, r8
	mov	rbp, rdx
	mov	rdi, rcx
$LL2@vector:
	mov	rcx, rdi
	call	rsi
	add	rdi, rbp
	sub	rbx, 1
	jne	SHORT $LL2@vector
	mov	rbx, QWORD PTR [rsp+48]
	mov	rbp, QWORD PTR [rsp+56]
	mov	rsi, QWORD PTR [rsp+64]
	add	rsp, 32					; 00000020H
	pop	rdi
$LN10@vector:
	ret	0
??_H@YAXPEAX_K1P6APEAX0@Z@Z ENDP			; `vector constructor iterator'
_TEXT	ENDS
END
