; Listing generated by Microsoft (R) Optimizing Compiler Version 19.00.24234.1 

include listing.inc

INCLUDELIB MSVCRT
INCLUDELIB OLDNAMES

PUBLIC	WinbaseIsolationAwarePrivateT_UnPgpgk
PUBLIC	IsolationAwarePrivateT_SqbjaYRiRY
PUBLIC	IsolationAwarePrivateT_SAbnPgpgk
PUBLIC	WinbaseIsolationAwarePrivateT_SpeRNgRQnPgpgk
PUBLIC	WinbaseIsolationAwarePrivateT_SpYRNahcpNYYRQ
EXTRN	GUID_NULL:BYTE
;	COMDAT IsolationAwarePrivateT_SqbjaYRiRY
_BSS	SEGMENT
IsolationAwarePrivateT_SqbjaYRiRY DD 01H DUP (?)
_BSS	ENDS
;	COMDAT IsolationAwarePrivateT_SAbnPgpgk
_BSS	SEGMENT
IsolationAwarePrivateT_SAbnPgpgk DD 01H DUP (?)
_BSS	ENDS
;	COMDAT WinbaseIsolationAwarePrivateT_SpeRNgRQnPgpgk
_BSS	SEGMENT
WinbaseIsolationAwarePrivateT_SpeRNgRQnPgpgk DD 01H DUP (?)
_BSS	ENDS
;	COMDAT WinbaseIsolationAwarePrivateT_SpYRNahcpNYYRQ
_BSS	SEGMENT
WinbaseIsolationAwarePrivateT_SpYRNahcpNYYRQ DD 01H DUP (?)
_BSS	ENDS
;	COMDAT WinbaseIsolationAwarePrivateT_UnPgpgk
_DATA	SEGMENT
WinbaseIsolationAwarePrivateT_UnPgpgk DQ ffffffffffffffffH
_DATA	ENDS
PUBLIC	??_H@YAXPEAX_K1P6APEAX0@Z@Z			; `vector constructor iterator'
PUBLIC	?__empty_global_delete@@YAXPEAX@Z		; __empty_global_delete
PUBLIC	?__empty_global_delete@@YAXPEAX_K@Z		; __empty_global_delete
PUBLIC	??3@YAXPEAX0@Z					; operator delete
PUBLIC	?deallocate@?$allocator@_W@std@@QEAAXPEA_W_K@Z	; std::allocator<wchar_t>::deallocate
PUBLIC	?allocate@?$allocator@_W@std@@QEAAPEA_W_K@Z	; std::allocator<wchar_t>::allocate
PUBLIC	?_Assign_rv@?$basic_string@_WU?$char_traits@_W@std@@V?$allocator@_W@2@@std@@QEAAX$$QEAV12@@Z ; std::basic_string<wchar_t,std::char_traits<wchar_t>,std::allocator<wchar_t> >::_Assign_rv
PUBLIC	??1?$basic_string@_WU?$char_traits@_W@std@@V?$allocator@_W@2@@std@@QEAA@XZ ; std::basic_string<wchar_t,std::char_traits<wchar_t>,std::allocator<wchar_t> >::~basic_string<wchar_t,std::char_traits<wchar_t>,std::allocator<wchar_t> >
PUBLIC	?assign@?$basic_string@_WU?$char_traits@_W@std@@V?$allocator@_W@2@@std@@QEAAAEAV12@AEBV12@_K1@Z ; std::basic_string<wchar_t,std::char_traits<wchar_t>,std::allocator<wchar_t> >::assign
PUBLIC	?assign@?$basic_string@_WU?$char_traits@_W@std@@V?$allocator@_W@2@@std@@QEAAAEAV12@PEB_W_K@Z ; std::basic_string<wchar_t,std::char_traits<wchar_t>,std::allocator<wchar_t> >::assign
PUBLIC	?erase@?$basic_string@_WU?$char_traits@_W@std@@V?$allocator@_W@2@@std@@QEAAAEAV12@_K0@Z ; std::basic_string<wchar_t,std::char_traits<wchar_t>,std::allocator<wchar_t> >::erase
PUBLIC	?find_first_of@?$basic_string@_WU?$char_traits@_W@std@@V?$allocator@_W@2@@std@@QEBA_KAEBV12@_K@Z ; std::basic_string<wchar_t,std::char_traits<wchar_t>,std::allocator<wchar_t> >::find_first_of
PUBLIC	?find_first_not_of@?$basic_string@_WU?$char_traits@_W@std@@V?$allocator@_W@2@@std@@QEBA_KAEBV12@_K@Z ; std::basic_string<wchar_t,std::char_traits<wchar_t>,std::allocator<wchar_t> >::find_first_not_of
PUBLIC	?substr@?$basic_string@_WU?$char_traits@_W@std@@V?$allocator@_W@2@@std@@QEBA?AV12@_K0@Z ; std::basic_string<wchar_t,std::char_traits<wchar_t>,std::allocator<wchar_t> >::substr
PUBLIC	?_Copy@?$basic_string@_WU?$char_traits@_W@std@@V?$allocator@_W@2@@std@@QEAAX_K0@Z ; std::basic_string<wchar_t,std::char_traits<wchar_t>,std::allocator<wchar_t> >::_Copy
PUBLIC	?deallocate@?$allocator@M@std@@QEAAXPEAM_K@Z	; std::allocator<float>::deallocate
PUBLIC	?allocate@?$allocator@M@std@@QEAAPEAM_K@Z	; std::allocator<float>::allocate
PUBLIC	??0?$vector@MV?$allocator@M@std@@@std@@QEAA@AEBV01@@Z ; std::vector<float,std::allocator<float> >::vector<float,std::allocator<float> >
PUBLIC	??1?$vector@MV?$allocator@M@std@@@std@@QEAA@XZ	; std::vector<float,std::allocator<float> >::~vector<float,std::allocator<float> >
PUBLIC	?_Reallocate@?$vector@MV?$allocator@M@std@@@std@@IEAAX_K@Z ; std::vector<float,std::allocator<float> >::_Reallocate
PUBLIC	??1TileRow@@QEAA@XZ				; TileRow::~TileRow
PUBLIC	?deallocate@?$allocator@VTileRow@@@std@@QEAAXPEAVTileRow@@_K@Z ; std::allocator<TileRow>::deallocate
PUBLIC	?allocate@?$allocator@VTileRow@@@std@@QEAAPEAVTileRow@@_K@Z ; std::allocator<TileRow>::allocate
PUBLIC	?_Reallocate@?$vector@VTileRow@@V?$allocator@VTileRow@@@std@@@std@@IEAAX_K@Z ; std::vector<TileRow,std::allocator<TileRow> >::_Reallocate
PUBLIC	?setPattern@TilePattern@@QEAAXV?$basic_string@_WU?$char_traits@_W@std@@V?$allocator@_W@2@@std@@@Z ; TilePattern::setPattern
PUBLIC	?update@TilePattern@@QEAAXXZ			; TilePattern::update
PUBLIC	?setPreset@TilePattern@@QEAAXH@Z		; TilePattern::setPreset
PUBLIC	?edgeBlur@Tile@@CAMMMH@Z			; Tile::edgeBlur
PUBLIC	?corner@Tile@@CA?AVTilePoint@@MMMMAEAVTileParam@@@Z ; Tile::corner
PUBLIC	?rotatePoint2@Tile@@CAXAEAVPoint3@@M@Z		; Tile::rotatePoint2
PUBLIC	?rotateUV@Tile@@CAXHMAEAVPoint3@@@Z		; Tile::rotateUV
PUBLIC	?uvMapping@Tile@@CAXAEAVTilePoint@@VPoint3@@QEAMAEAVTileParam@@H@Z ; Tile::uvMapping
PUBLIC	?drawTile@Tile@@CA?AVTilePoint@@VPoint3@@QEAMAEAVTileParam@@HH@Z ; Tile::drawTile
PUBLIC	?pat_xBond@Tile@@CA?AVTilePoint@@VPoint3@@AEAVTileParam@@@Z ; Tile::pat_xBond
PUBLIC	?pat_herring@Tile@@CA?AVTilePoint@@VPoint3@@AEAVTileParam@@@Z ; Tile::pat_herring
PUBLIC	?draw@Tile@@SA?AVTilePoint@@VPoint3@@AEAVTileParam@@@Z ; Tile::draw
PUBLIC	?deallocate@?$allocator@V?$basic_string@_WU?$char_traits@_W@std@@V?$allocator@_W@2@@std@@@std@@QEAAXPEAV?$basic_string@_WU?$char_traits@_W@std@@V?$allocator@_W@2@@2@_K@Z ; std::allocator<std::basic_string<wchar_t,std::char_traits<wchar_t>,std::allocator<wchar_t> > >::deallocate
PUBLIC	?allocate@?$allocator@V?$basic_string@_WU?$char_traits@_W@std@@V?$allocator@_W@2@@std@@@std@@QEAAPEAV?$basic_string@_WU?$char_traits@_W@std@@V?$allocator@_W@2@@2@_K@Z ; std::allocator<std::basic_string<wchar_t,std::char_traits<wchar_t>,std::allocator<wchar_t> > >::allocate
PUBLIC	??1?$vector@V?$basic_string@_WU?$char_traits@_W@std@@V?$allocator@_W@2@@std@@V?$allocator@V?$basic_string@_WU?$char_traits@_W@std@@V?$allocator@_W@2@@std@@@2@@std@@QEAA@XZ ; std::vector<std::basic_string<wchar_t,std::char_traits<wchar_t>,std::allocator<wchar_t> >,std::allocator<std::basic_string<wchar_t,std::char_traits<wchar_t>,std::allocator<wchar_t> > > >::~vector<std::basic_string<wchar_t,std::char_traits<wchar_t>,std::allocator<wchar_t> >,std::allocator<std::basic_string<wchar_t,std::char_traits<wchar_t>,std::allocator<wchar_t> > > >
PUBLIC	?_Reallocate@?$vector@V?$basic_string@_WU?$char_traits@_W@std@@V?$allocator@_W@2@@std@@V?$allocator@V?$basic_string@_WU?$char_traits@_W@std@@V?$allocator@_W@2@@std@@@2@@std@@IEAAX_K@Z ; std::vector<std::basic_string<wchar_t,std::char_traits<wchar_t>,std::allocator<wchar_t> >,std::allocator<std::basic_string<wchar_t,std::char_traits<wchar_t>,std::allocator<wchar_t> > > >::_Reallocate
PUBLIC	??1?$basic_stringstream@_WU?$char_traits@_W@std@@V?$allocator@_W@2@@std@@UEAA@XZ ; std::basic_stringstream<wchar_t,std::char_traits<wchar_t>,std::allocator<wchar_t> >::~basic_stringstream<wchar_t,std::char_traits<wchar_t>,std::allocator<wchar_t> >
PUBLIC	??1?$basic_stringbuf@_WU?$char_traits@_W@std@@V?$allocator@_W@2@@std@@UEAA@XZ ; std::basic_stringbuf<wchar_t,std::char_traits<wchar_t>,std::allocator<wchar_t> >::~basic_stringbuf<wchar_t,std::char_traits<wchar_t>,std::allocator<wchar_t> >
PUBLIC	?overflow@?$basic_stringbuf@_WU?$char_traits@_W@std@@V?$allocator@_W@2@@std@@MEAAGG@Z ; std::basic_stringbuf<wchar_t,std::char_traits<wchar_t>,std::allocator<wchar_t> >::overflow
PUBLIC	?pbackfail@?$basic_stringbuf@_WU?$char_traits@_W@std@@V?$allocator@_W@2@@std@@MEAAGG@Z ; std::basic_stringbuf<wchar_t,std::char_traits<wchar_t>,std::allocator<wchar_t> >::pbackfail
PUBLIC	?underflow@?$basic_stringbuf@_WU?$char_traits@_W@std@@V?$allocator@_W@2@@std@@MEAAGXZ ; std::basic_stringbuf<wchar_t,std::char_traits<wchar_t>,std::allocator<wchar_t> >::underflow
PUBLIC	?seekoff@?$basic_stringbuf@_WU?$char_traits@_W@std@@V?$allocator@_W@2@@std@@MEAA?AV?$fpos@U_Mbstatet@@@2@_JHH@Z ; std::basic_stringbuf<wchar_t,std::char_traits<wchar_t>,std::allocator<wchar_t> >::seekoff
PUBLIC	?seekpos@?$basic_stringbuf@_WU?$char_traits@_W@std@@V?$allocator@_W@2@@std@@MEAA?AV?$fpos@U_Mbstatet@@@2@V32@H@Z ; std::basic_stringbuf<wchar_t,std::char_traits<wchar_t>,std::allocator<wchar_t> >::seekpos
PUBLIC	?_Init@?$basic_stringbuf@_WU?$char_traits@_W@std@@V?$allocator@_W@2@@std@@IEAAXPEB_W_KH@Z ; std::basic_stringbuf<wchar_t,std::char_traits<wchar_t>,std::allocator<wchar_t> >::_Init
PUBLIC	?_Tidy@?$basic_stringbuf@_WU?$char_traits@_W@std@@V?$allocator@_W@2@@std@@IEAAXXZ ; std::basic_stringbuf<wchar_t,std::char_traits<wchar_t>,std::allocator<wchar_t> >::_Tidy
PUBLIC	??_G?$basic_stringbuf@_WU?$char_traits@_W@std@@V?$allocator@_W@2@@std@@UEAAPEAXI@Z ; std::basic_stringbuf<wchar_t,std::char_traits<wchar_t>,std::allocator<wchar_t> >::`scalar deleting destructor'
PUBLIC	??_G?$basic_stringstream@_WU?$char_traits@_W@std@@V?$allocator@_W@2@@std@@UEAAPEAXI@Z ; std::basic_stringstream<wchar_t,std::char_traits<wchar_t>,std::allocator<wchar_t> >::`scalar deleting destructor'
PUBLIC	??_D?$basic_stringstream@_WU?$char_traits@_W@std@@V?$allocator@_W@2@@std@@QEAAXXZ ; std::basic_stringstream<wchar_t,std::char_traits<wchar_t>,std::allocator<wchar_t> >::`vbase destructor'
PUBLIC	??$_Destroy_range1@V?$allocator@VTileRow@@@std@@PEAVTileRow@@@std@@YAXPEAVTileRow@@0AEAU?$_Wrap_alloc@V?$allocator@VTileRow@@@std@@@0@U?$integral_constant@_N$0A@@0@@Z ; std::_Destroy_range1<std::allocator<TileRow>,TileRow * __ptr64>
PUBLIC	??$_Destroy_range1@V?$allocator@V?$basic_string@_WU?$char_traits@_W@std@@V?$allocator@_W@2@@std@@@std@@PEAV?$basic_string@_WU?$char_traits@_W@std@@V?$allocator@_W@2@@2@@std@@YAXPEAV?$basic_string@_WU?$char_traits@_W@std@@V?$allocator@_W@2@@0@0AEAU?$_Wrap_alloc@V?$allocator@V?$basic_string@_WU?$char_traits@_W@std@@V?$allocator@_W@2@@std@@@std@@@0@U?$integral_constant@_N$0A@@0@@Z ; std::_Destroy_range1<std::allocator<std::basic_string<wchar_t,std::char_traits<wchar_t>,std::allocator<wchar_t> > >,std::basic_string<wchar_t,std::char_traits<wchar_t>,std::allocator<wchar_t> > * __ptr64>
PUBLIC	??$_Uninitialized_move_al_unchecked1@PEAV?$basic_string@_WU?$char_traits@_W@std@@V?$allocator@_W@2@@std@@PEAV12@V?$allocator@V?$basic_string@_WU?$char_traits@_W@std@@V?$allocator@_W@2@@std@@@2@@std@@YAPEAV?$basic_string@_WU?$char_traits@_W@std@@V?$allocator@_W@2@@0@PEAV10@00AEAU?$_Wrap_alloc@V?$allocator@V?$basic_string@_WU?$char_traits@_W@std@@V?$allocator@_W@2@@std@@@std@@@0@U_General_ptr_iterator_tag@0@U_Any_tag@0@@Z ; std::_Uninitialized_move_al_unchecked1<std::basic_string<wchar_t,std::char_traits<wchar_t>,std::allocator<wchar_t> > * __ptr64,std::basic_string<wchar_t,std::char_traits<wchar_t>,std::allocator<wchar_t> > * __ptr64,std::allocator<std::basic_string<wchar_t,std::char_traits<wchar_t>,std::allocator<wchar_t> > > >
PUBLIC	??$_Uninitialized_move_al_unchecked1@PEAVTileRow@@PEAV1@V?$allocator@VTileRow@@@std@@@std@@YAPEAVTileRow@@PEAV1@00AEAU?$_Wrap_alloc@V?$allocator@VTileRow@@@std@@@0@U_General_ptr_iterator_tag@0@U_Any_tag@0@@Z ; std::_Uninitialized_move_al_unchecked1<TileRow * __ptr64,TileRow * __ptr64,std::allocator<TileRow> >
PUBLIC	??_E?$basic_stringstream@_WU?$char_traits@_W@std@@V?$allocator@_W@2@@std@@$4PPPPPPPM@A@EAAPEAXI@Z ; std::basic_stringstream<wchar_t,std::char_traits<wchar_t>,std::allocator<wchar_t> >::`vector deleting destructor'
PUBLIC	??_C@_1BA@HLCPMHKJ@?$AA0?$AA?0?$AA?5?$AA1?$AA?0?$AA?5?$AA1?$AA?$AA@ ; `string'
PUBLIC	??_C@_1CI@MGOLCOH@?$AA0?$AA?0?$AA?5?$AA1?$AA?0?$AA?5?$AA1?$AA?5?$AA?1?$AA?5?$AA0?$AA?4?$AA5?$AA?0?$AA?5?$AA1?$AA?0?$AA?5?$AA1?$AA?$AA@ ; `string'
PUBLIC	??_C@_1HM@KFKBNDNL@?$AA?4?$AA2?$AA5?$AA?0?$AA?5?$AA1?$AA?0?$AA?5?$AA1?$AA?0?$AA?5?$AA?4?$AA5?$AA?5?$AA?1?$AA?5?$AA?9?$AA?4?$AA5?$AA?0?$AA?5?$AA1?$AA?0?$AA?5?$AA1?$AA?5?$AA?1?$AA?5?$AA?9?$AA?4?$AA5?$AA?0@ ; `string'
PUBLIC	??_C@_1HG@LGFFBGEF@?$AA?4?$AA2?$AA5?$AA?0?$AA?5?$AA1?$AA?0?$AA?5?$AA?4?$AA5?$AA?5?$AA?1?$AA?5?$AA?9?$AA?4?$AA5?$AA?0?$AA?5?$AA1?$AA?0?$AA?5?$AA1?$AA?5?$AA?1?$AA?5?$AA?9?$AA?4?$AA5?$AA?0?$AA?5?$AA1?$AA?0@ ; `string'
PUBLIC	??_C@_1DI@OGPGLDJP@?$AA0?$AA?0?$AA?5?$AA1?$AA?0?$AA?5?$AA1?$AA?0?$AA?5?$AA?4?$AA5?$AA?5?$AA?1?$AA?5?$AA?4?$AA7?$AA5?$AA?0?$AA?5?$AA1?$AA?0?$AA?5?$AA1?$AA?0?$AA?5?$AA?4?$AA5?$AA?$AA@ ; `string'
PUBLIC	??_C@_1EG@NKHPAEJM@?$AA0?$AA?0?$AA?5?$AA1?$AA?0?$AA?5?$AA1?$AA?0?$AA?5?$AA1?$AA?0?$AA?5?$AA?4?$AA5?$AA?5?$AA?1?$AA?5?$AA1?$AA?4?$AA2?$AA5?$AA?0?$AA?5?$AA1?$AA?0?$AA?5?$AA1?$AA?0?$AA?5?$AA1?$AA?0?$AA?5@ ; `string'
PUBLIC	??_C@_1FC@MFPKJHBG@?$AA0?$AA?0?$AA?5?$AA1?$AA?0?$AA?5?$AA1?$AA?0?$AA?5?$AA1?$AA?0?$AA?5?$AA1?$AA?0?$AA?5?$AA?4?$AA5?$AA?5?$AA?1?$AA?5?$AA1?$AA?4?$AA7?$AA5?$AA?0?$AA?5?$AA1?$AA?0?$AA?5?$AA1?$AA?0?$AA?5@ ; `string'
PUBLIC	??_C@_1CK@FBIPLABB@?$AA?4?$AA2?$AA5?$AA?0?$AA?5?$AA1?$AA?0?$AA?5?$AA?4?$AA5?$AA?5?$AA?1?$AA?5?$AA0?$AA?0?$AA?5?$AA1?$AA?0?$AA?5?$AA1?$AA?$AA@ ; `string'
PUBLIC	??_C@_1FC@LEIJMHNO@?$AA0?$AA?0?$AA1?$AA?0?$AA1?$AA?5?$AA?1?$AA?5?$AA?9?$AA?4?$AA2?$AA5?$AA?0?$AA1?$AA?0?$AA?4?$AA5?$AA?5?$AA?1?$AA?5?$AA?9?$AA?4?$AA2?$AA5?$AA?0?$AA1?$AA?0?$AA1?$AA?5?$AA?1?$AA?5?$AA?9@ ; `string'
PUBLIC	??_C@_1FC@DKDGEDND@?$AA0?$AA?0?$AA1?$AA?0?$AA?4?$AA5?$AA?5?$AA?1?$AA?5?$AA?9?$AA?4?$AA2?$AA5?$AA?0?$AA1?$AA?0?$AA?4?$AA5?$AA?5?$AA?1?$AA?5?$AA?9?$AA?4?$AA2?$AA5?$AA?0?$AA1?$AA?0?$AA1?$AA?5?$AA?1?$AA?5@ ; `string'
PUBLIC	??_7?$basic_stringbuf@_WU?$char_traits@_W@std@@V?$allocator@_W@2@@std@@6B@ ; std::basic_stringbuf<wchar_t,std::char_traits<wchar_t>,std::allocator<wchar_t> >::`vftable'
PUBLIC	??_7?$basic_stringstream@_WU?$char_traits@_W@std@@V?$allocator@_W@2@@std@@6B@ ; std::basic_stringstream<wchar_t,std::char_traits<wchar_t>,std::allocator<wchar_t> >::`vftable'
PUBLIC	??_8?$basic_stringstream@_WU?$char_traits@_W@std@@V?$allocator@_W@2@@std@@7B?$basic_istream@_WU?$char_traits@_W@std@@@1@@ ; std::basic_stringstream<wchar_t,std::char_traits<wchar_t>,std::allocator<wchar_t> >::`vbtable'
PUBLIC	??_8?$basic_stringstream@_WU?$char_traits@_W@std@@V?$allocator@_W@2@@std@@7B?$basic_ostream@_WU?$char_traits@_W@std@@@1@@ ; std::basic_stringstream<wchar_t,std::char_traits<wchar_t>,std::allocator<wchar_t> >::`vbtable'
PUBLIC	??_C@_13CGOKJPIL@?$AA?1?$AA?$AA@		; `string'
PUBLIC	??_C@_13DEFPDAGF@?$AA?0?$AA?$AA@		; `string'
PUBLIC	??_C@_0BD@OLBABOEK@vector?$DMT?$DO?5too?5long?$AA@ ; `string'
PUBLIC	??_C@_0BA@JFNIOLAK@string?5too?5long?$AA@	; `string'
PUBLIC	??_C@_0BI@CFPLBAOH@invalid?5string?5position?$AA@ ; `string'
PUBLIC	??_R4?$basic_stringbuf@_WU?$char_traits@_W@std@@V?$allocator@_W@2@@std@@6B@ ; std::basic_stringbuf<wchar_t,std::char_traits<wchar_t>,std::allocator<wchar_t> >::`RTTI Complete Object Locator'
PUBLIC	??_R0?AV?$basic_stringbuf@_WU?$char_traits@_W@std@@V?$allocator@_W@2@@std@@@8 ; std::basic_stringbuf<wchar_t,std::char_traits<wchar_t>,std::allocator<wchar_t> > `RTTI Type Descriptor'
PUBLIC	??_R3?$basic_stringbuf@_WU?$char_traits@_W@std@@V?$allocator@_W@2@@std@@8 ; std::basic_stringbuf<wchar_t,std::char_traits<wchar_t>,std::allocator<wchar_t> >::`RTTI Class Hierarchy Descriptor'
PUBLIC	??_R2?$basic_stringbuf@_WU?$char_traits@_W@std@@V?$allocator@_W@2@@std@@8 ; std::basic_stringbuf<wchar_t,std::char_traits<wchar_t>,std::allocator<wchar_t> >::`RTTI Base Class Array'
PUBLIC	??_R1A@?0A@EA@?$basic_stringbuf@_WU?$char_traits@_W@std@@V?$allocator@_W@2@@std@@8 ; std::basic_stringbuf<wchar_t,std::char_traits<wchar_t>,std::allocator<wchar_t> >::`RTTI Base Class Descriptor at (0,-1,0,64)'
PUBLIC	??_R1A@?0A@EA@?$basic_streambuf@_WU?$char_traits@_W@std@@@std@@8 ; std::basic_streambuf<wchar_t,std::char_traits<wchar_t> >::`RTTI Base Class Descriptor at (0,-1,0,64)'
PUBLIC	??_R0?AV?$basic_streambuf@_WU?$char_traits@_W@std@@@std@@@8 ; std::basic_streambuf<wchar_t,std::char_traits<wchar_t> > `RTTI Type Descriptor'
PUBLIC	??_R3?$basic_streambuf@_WU?$char_traits@_W@std@@@std@@8 ; std::basic_streambuf<wchar_t,std::char_traits<wchar_t> >::`RTTI Class Hierarchy Descriptor'
PUBLIC	??_R2?$basic_streambuf@_WU?$char_traits@_W@std@@@std@@8 ; std::basic_streambuf<wchar_t,std::char_traits<wchar_t> >::`RTTI Base Class Array'
PUBLIC	??_R4?$basic_stringstream@_WU?$char_traits@_W@std@@V?$allocator@_W@2@@std@@6B@ ; std::basic_stringstream<wchar_t,std::char_traits<wchar_t>,std::allocator<wchar_t> >::`RTTI Complete Object Locator'
PUBLIC	??_R0?AV?$basic_stringstream@_WU?$char_traits@_W@std@@V?$allocator@_W@2@@std@@@8 ; std::basic_stringstream<wchar_t,std::char_traits<wchar_t>,std::allocator<wchar_t> > `RTTI Type Descriptor'
PUBLIC	??_R3?$basic_stringstream@_WU?$char_traits@_W@std@@V?$allocator@_W@2@@std@@8 ; std::basic_stringstream<wchar_t,std::char_traits<wchar_t>,std::allocator<wchar_t> >::`RTTI Class Hierarchy Descriptor'
PUBLIC	??_R2?$basic_stringstream@_WU?$char_traits@_W@std@@V?$allocator@_W@2@@std@@8 ; std::basic_stringstream<wchar_t,std::char_traits<wchar_t>,std::allocator<wchar_t> >::`RTTI Base Class Array'
PUBLIC	??_R1A@?0A@EA@?$basic_stringstream@_WU?$char_traits@_W@std@@V?$allocator@_W@2@@std@@8 ; std::basic_stringstream<wchar_t,std::char_traits<wchar_t>,std::allocator<wchar_t> >::`RTTI Base Class Descriptor at (0,-1,0,64)'
PUBLIC	??_R1A@?0A@EA@?$basic_iostream@_WU?$char_traits@_W@std@@@std@@8 ; std::basic_iostream<wchar_t,std::char_traits<wchar_t> >::`RTTI Base Class Descriptor at (0,-1,0,64)'
PUBLIC	??_R0?AV?$basic_iostream@_WU?$char_traits@_W@std@@@std@@@8 ; std::basic_iostream<wchar_t,std::char_traits<wchar_t> > `RTTI Type Descriptor'
PUBLIC	??_R3?$basic_iostream@_WU?$char_traits@_W@std@@@std@@8 ; std::basic_iostream<wchar_t,std::char_traits<wchar_t> >::`RTTI Class Hierarchy Descriptor'
PUBLIC	??_R2?$basic_iostream@_WU?$char_traits@_W@std@@@std@@8 ; std::basic_iostream<wchar_t,std::char_traits<wchar_t> >::`RTTI Base Class Array'
PUBLIC	??_R1A@?0A@EA@?$basic_istream@_WU?$char_traits@_W@std@@@std@@8 ; std::basic_istream<wchar_t,std::char_traits<wchar_t> >::`RTTI Base Class Descriptor at (0,-1,0,64)'
PUBLIC	??_R0?AV?$basic_istream@_WU?$char_traits@_W@std@@@std@@@8 ; std::basic_istream<wchar_t,std::char_traits<wchar_t> > `RTTI Type Descriptor'
PUBLIC	??_R3?$basic_istream@_WU?$char_traits@_W@std@@@std@@8 ; std::basic_istream<wchar_t,std::char_traits<wchar_t> >::`RTTI Class Hierarchy Descriptor'
PUBLIC	??_R2?$basic_istream@_WU?$char_traits@_W@std@@@std@@8 ; std::basic_istream<wchar_t,std::char_traits<wchar_t> >::`RTTI Base Class Array'
PUBLIC	??_R1A@A@3FA@?$basic_ios@_WU?$char_traits@_W@std@@@std@@8 ; std::basic_ios<wchar_t,std::char_traits<wchar_t> >::`RTTI Base Class Descriptor at (0,0,4,80)'
PUBLIC	??_R0?AV?$basic_ios@_WU?$char_traits@_W@std@@@std@@@8 ; std::basic_ios<wchar_t,std::char_traits<wchar_t> > `RTTI Type Descriptor'
PUBLIC	??_R3?$basic_ios@_WU?$char_traits@_W@std@@@std@@8 ; std::basic_ios<wchar_t,std::char_traits<wchar_t> >::`RTTI Class Hierarchy Descriptor'
PUBLIC	??_R2?$basic_ios@_WU?$char_traits@_W@std@@@std@@8 ; std::basic_ios<wchar_t,std::char_traits<wchar_t> >::`RTTI Base Class Array'
PUBLIC	??_R1A@?0A@EA@?$basic_ios@_WU?$char_traits@_W@std@@@std@@8 ; std::basic_ios<wchar_t,std::char_traits<wchar_t> >::`RTTI Base Class Descriptor at (0,-1,0,64)'
PUBLIC	??_R1A@?0A@EA@ios_base@std@@8			; std::ios_base::`RTTI Base Class Descriptor at (0,-1,0,64)'
PUBLIC	??_R0?AVios_base@std@@@8			; std::ios_base `RTTI Type Descriptor'
PUBLIC	??_R3ios_base@std@@8				; std::ios_base::`RTTI Class Hierarchy Descriptor'
PUBLIC	??_R2ios_base@std@@8				; std::ios_base::`RTTI Base Class Array'
PUBLIC	??_R17?0A@EA@?$_Iosb@H@std@@8			; std::_Iosb<int>::`RTTI Base Class Descriptor at (8,-1,0,64)'
PUBLIC	??_R0?AV?$_Iosb@H@std@@@8			; std::_Iosb<int> `RTTI Type Descriptor'
PUBLIC	??_R3?$_Iosb@H@std@@8				; std::_Iosb<int>::`RTTI Class Hierarchy Descriptor'
PUBLIC	??_R2?$_Iosb@H@std@@8				; std::_Iosb<int>::`RTTI Base Class Array'
PUBLIC	??_R1A@?0A@EA@?$_Iosb@H@std@@8			; std::_Iosb<int>::`RTTI Base Class Descriptor at (0,-1,0,64)'
PUBLIC	??_R1A@A@3EA@ios_base@std@@8			; std::ios_base::`RTTI Base Class Descriptor at (0,0,4,64)'
PUBLIC	??_R17A@3EA@?$_Iosb@H@std@@8			; std::_Iosb<int>::`RTTI Base Class Descriptor at (8,0,4,64)'
PUBLIC	??_R1BA@?0A@EA@?$basic_ostream@_WU?$char_traits@_W@std@@@std@@8 ; std::basic_ostream<wchar_t,std::char_traits<wchar_t> >::`RTTI Base Class Descriptor at (16,-1,0,64)'
PUBLIC	??_R0?AV?$basic_ostream@_WU?$char_traits@_W@std@@@std@@@8 ; std::basic_ostream<wchar_t,std::char_traits<wchar_t> > `RTTI Type Descriptor'
PUBLIC	??_R3?$basic_ostream@_WU?$char_traits@_W@std@@@std@@8 ; std::basic_ostream<wchar_t,std::char_traits<wchar_t> >::`RTTI Class Hierarchy Descriptor'
PUBLIC	??_R2?$basic_ostream@_WU?$char_traits@_W@std@@@std@@8 ; std::basic_ostream<wchar_t,std::char_traits<wchar_t> >::`RTTI Base Class Array'
PUBLIC	??_R1A@?0A@EA@?$basic_ostream@_WU?$char_traits@_W@std@@@std@@8 ; std::basic_ostream<wchar_t,std::char_traits<wchar_t> >::`RTTI Base Class Descriptor at (0,-1,0,64)'
PUBLIC	__real@38d1b717
PUBLIC	__real@3dfcb924
PUBLIC	__real@3f000000
PUBLIC	__real@3f490fdb
PUBLIC	__real@3f800000
PUBLIC	__real@3f9d70a4
PUBLIC	__real@3fa9999a
PUBLIC	__real@3fb504f3
PUBLIC	__real@3fc90fdb
PUBLIC	__real@3ff0000000000000
PUBLIC	__real@403f666666666666
PUBLIC	__real@4048f5c3
PUBLIC	__real@40490fdb
PUBLIC	__real@4096cbe4
PUBLIC	__real@40dfffc000000000
PUBLIC	__real@41fb4c0b
PUBLIC	__xmm@7fffffff7fffffff7fffffff7fffffff
PUBLIC	__xmm@80000000800000008000000080000000
EXTRN	??2@YAPEAX_K@Z:PROC				; operator new
EXTRN	??3@YAXPEAX@Z:PROC				; operator delete
EXTRN	??3@YAXPEAX_K@Z:PROC				; operator delete
EXTRN	__imp__invalid_parameter_noinfo_noreturn:PROC
EXTRN	__imp_memmove:PROC
EXTRN	__imp_srand:PROC
EXTRN	__imp_rand:PROC
EXTRN	__imp_?_Xbad_alloc@std@@YAXXZ:PROC
EXTRN	__imp_?_Xlength_error@std@@YAXPEBD@Z:PROC
EXTRN	__imp_?_Xout_of_range@std@@YAXPEBD@Z:PROC
EXTRN	__imp_??1ios_base@std@@UEAA@XZ:PROC
EXTRN	__imp_?_Ios_base_dtor@ios_base@std@@CAXPEAV12@@Z:PROC
EXTRN	__imp_??0?$basic_streambuf@_WU?$char_traits@_W@std@@@std@@IEAA@XZ:PROC
EXTRN	__imp_??1?$basic_streambuf@_WU?$char_traits@_W@std@@@std@@UEAA@XZ:PROC
EXTRN	__imp_?_Pninc@?$basic_streambuf@_WU?$char_traits@_W@std@@@std@@IEAAPEA_WXZ:PROC
EXTRN	__imp_??1?$basic_ios@_WU?$char_traits@_W@std@@@std@@UEAA@XZ:PROC
EXTRN	__imp_??0?$basic_ios@_WU?$char_traits@_W@std@@@std@@IEAA@XZ:PROC
EXTRN	__imp_??5?$basic_istream@_WU?$char_traits@_W@std@@@std@@QEAAAEAV01@AEAN@Z:PROC
EXTRN	__imp_??0?$basic_iostream@_WU?$char_traits@_W@std@@@std@@QEAA@PEAV?$basic_streambuf@_WU?$char_traits@_W@std@@@1@@Z:PROC
EXTRN	__imp_??1?$basic_iostream@_WU?$char_traits@_W@std@@@std@@UEAA@XZ:PROC
EXTRN	?smooth@@YAMMMM@Z:PROC				; smooth
EXTRN	?snoise@Perlin@@SAMM@Z:PROC			; Perlin::snoise
EXTRN	??_E?$basic_stringbuf@_WU?$char_traits@_W@std@@V?$allocator@_W@2@@std@@UEAAPEAXI@Z:PROC ; std::basic_stringbuf<wchar_t,std::char_traits<wchar_t>,std::allocator<wchar_t> >::`vector deleting destructor'
EXTRN	??_E?$basic_stringstream@_WU?$char_traits@_W@std@@V?$allocator@_W@2@@std@@UEAAPEAXI@Z:PROC ; std::basic_stringstream<wchar_t,std::char_traits<wchar_t>,std::allocator<wchar_t> >::`vector deleting destructor'
EXTRN	?_Lock@?$basic_streambuf@_WU?$char_traits@_W@std@@@std@@UEAAXXZ:PROC ; std::basic_streambuf<wchar_t,std::char_traits<wchar_t> >::_Lock
EXTRN	?_Unlock@?$basic_streambuf@_WU?$char_traits@_W@std@@@std@@UEAAXXZ:PROC ; std::basic_streambuf<wchar_t,std::char_traits<wchar_t> >::_Unlock
EXTRN	?imbue@?$basic_streambuf@_WU?$char_traits@_W@std@@@std@@MEAAXAEBVlocale@2@@Z:PROC ; std::basic_streambuf<wchar_t,std::char_traits<wchar_t> >::imbue
EXTRN	?setbuf@?$basic_streambuf@_WU?$char_traits@_W@std@@@std@@MEAAPEAV12@PEA_W_J@Z:PROC ; std::basic_streambuf<wchar_t,std::char_traits<wchar_t> >::setbuf
EXTRN	?showmanyc@?$basic_streambuf@_WU?$char_traits@_W@std@@@std@@MEAA_JXZ:PROC ; std::basic_streambuf<wchar_t,std::char_traits<wchar_t> >::showmanyc
EXTRN	?sync@?$basic_streambuf@_WU?$char_traits@_W@std@@@std@@MEAAHXZ:PROC ; std::basic_streambuf<wchar_t,std::char_traits<wchar_t> >::sync
EXTRN	?uflow@?$basic_streambuf@_WU?$char_traits@_W@std@@@std@@MEAAGXZ:PROC ; std::basic_streambuf<wchar_t,std::char_traits<wchar_t> >::uflow
EXTRN	?xsgetn@?$basic_streambuf@_WU?$char_traits@_W@std@@@std@@MEAA_JPEA_W_J@Z:PROC ; std::basic_streambuf<wchar_t,std::char_traits<wchar_t> >::xsgetn
EXTRN	?xsputn@?$basic_streambuf@_WU?$char_traits@_W@std@@@std@@MEAA_JPEB_W_J@Z:PROC ; std::basic_streambuf<wchar_t,std::char_traits<wchar_t> >::xsputn
EXTRN	_CxxThrowException:PROC
EXTRN	__CxxFrameHandler3:PROC
EXTRN	cosf:PROC
EXTRN	fmodf:PROC
EXTRN	memcpy:PROC
EXTRN	sinf:PROC
EXTRN	sqrtf:PROC
EXTRN	__imp_?_BADOFF@std@@3_JB:QWORD
EXTRN	??_7type_info@@6B@:BYTE				; type_info::`vftable'
EXTRN	__imp_??_7ios_base@std@@6B@:BYTE
EXTRN	__imp_??_7?$basic_ios@_WU?$char_traits@_W@std@@@std@@6B@:BYTE
EXTRN	__ImageBase:BYTE
EXTRN	_fltused:DWORD
_BSS	SEGMENT
?kInvalidId@AssetManagement@MaxSDK@@3UAssetId@12@A DB 010H DUP (?) ; MaxSDK::AssetManagement::kInvalidId
_BSS	ENDS
;	COMDAT pdata
pdata	SEGMENT
$pdata$??_H@YAXPEAX_K1P6APEAX0@Z@Z DD imagerel $LN12
	DD	imagerel $LN12+72
	DD	imagerel $unwind$??_H@YAXPEAX_K1P6APEAX0@Z@Z
pdata	ENDS
;	COMDAT pdata
pdata	SEGMENT
$pdata$wmemcpy DD imagerel $LN4
	DD	imagerel $LN4+26
	DD	imagerel $unwind$wmemcpy
pdata	ENDS
;	COMDAT pdata
pdata	SEGMENT
$pdata$?cos@@YAMM@Z DD imagerel $LN4
	DD	imagerel $LN4+14
	DD	imagerel $unwind$?cos@@YAMM@Z
pdata	ENDS
;	COMDAT pdata
pdata	SEGMENT
$pdata$?fmod@@YAMMM@Z DD imagerel $LN4
	DD	imagerel $LN4+14
	DD	imagerel $unwind$?fmod@@YAMMM@Z
pdata	ENDS
;	COMDAT pdata
pdata	SEGMENT
$pdata$?sin@@YAMM@Z DD imagerel $LN4
	DD	imagerel $LN4+14
	DD	imagerel $unwind$?sin@@YAMM@Z
pdata	ENDS
;	COMDAT pdata
pdata	SEGMENT
$pdata$?sqrt@@YAMM@Z DD imagerel $LN4
	DD	imagerel $LN4+14
	DD	imagerel $unwind$?sqrt@@YAMM@Z
pdata	ENDS
;	COMDAT pdata
pdata	SEGMENT
$pdata$?copy@?$char_traits@_W@std@@SAPEA_WPEA_WPEB_W_K@Z DD imagerel $LN9
	DD	imagerel $LN9+31
	DD	imagerel $unwind$?copy@?$char_traits@_W@std@@SAPEA_WPEA_WPEB_W_K@Z
pdata	ENDS
;	COMDAT pdata
pdata	SEGMENT
$pdata$?_Allocate@std@@YAPEAX_K0_N@Z DD imagerel $LN12
	DD	imagerel $LN12+131
	DD	imagerel $unwind$?_Allocate@std@@YAPEAX_K0_N@Z
pdata	ENDS
;	COMDAT pdata
pdata	SEGMENT
$pdata$?_Deallocate@std@@YAXPEAX_K1@Z DD imagerel $LN11
	DD	imagerel $LN11+110
	DD	imagerel $unwind$?_Deallocate@std@@YAXPEAX_K1@Z
pdata	ENDS
;	COMDAT pdata
pdata	SEGMENT
$pdata$?deallocate@?$allocator@_W@std@@QEAAXPEA_W_K@Z DD imagerel $LN14
	DD	imagerel $LN14+110
	DD	imagerel $unwind$?deallocate@?$allocator@_W@std@@QEAAXPEA_W_K@Z
pdata	ENDS
;	COMDAT pdata
pdata	SEGMENT
$pdata$?allocate@?$allocator@_W@std@@QEAAPEA_W_K@Z DD imagerel $LN15
	DD	imagerel $LN15+124
	DD	imagerel $unwind$?allocate@?$allocator@_W@std@@QEAAPEA_W_K@Z
pdata	ENDS
;	COMDAT pdata
pdata	SEGMENT
$pdata$??0?$basic_string@_WU?$char_traits@_W@std@@V?$allocator@_W@2@@std@@QEAA@AEBV01@@Z DD imagerel $LN100
	DD	imagerel $LN100+47
	DD	imagerel $unwind$??0?$basic_string@_WU?$char_traits@_W@std@@V?$allocator@_W@2@@std@@QEAA@AEBV01@@Z
pdata	ENDS
;	COMDAT pdata
pdata	SEGMENT
$pdata$??0?$basic_string@_WU?$char_traits@_W@std@@V?$allocator@_W@2@@std@@QEAA@AEBV01@_K1AEBV?$allocator@_W@1@@Z DD imagerel $LN90
	DD	imagerel $LN90+40
	DD	imagerel $unwind$??0?$basic_string@_WU?$char_traits@_W@std@@V?$allocator@_W@2@@std@@QEAA@AEBV01@_K1AEBV?$allocator@_W@1@@Z
pdata	ENDS
;	COMDAT pdata
pdata	SEGMENT
$pdata$??0?$basic_string@_WU?$char_traits@_W@std@@V?$allocator@_W@2@@std@@QEAA@PEB_W@Z DD imagerel $LN93
	DD	imagerel $LN93+73
	DD	imagerel $unwind$??0?$basic_string@_WU?$char_traits@_W@std@@V?$allocator@_W@2@@std@@QEAA@PEB_W@Z
pdata	ENDS
;	COMDAT pdata
pdata	SEGMENT
$pdata$??0?$basic_string@_WU?$char_traits@_W@std@@V?$allocator@_W@2@@std@@QEAA@$$QEAV01@@Z DD imagerel $LN97
	DD	imagerel $LN97+50
	DD	imagerel $unwind$??0?$basic_string@_WU?$char_traits@_W@std@@V?$allocator@_W@2@@std@@QEAA@$$QEAV01@@Z
pdata	ENDS
;	COMDAT pdata
pdata	SEGMENT
$pdata$?_Assign_rv@?$basic_string@_WU?$char_traits@_W@std@@V?$allocator@_W@2@@std@@QEAAX$$QEAV12@@Z DD imagerel $LN176
	DD	imagerel $LN176+141
	DD	imagerel $unwind$?_Assign_rv@?$basic_string@_WU?$char_traits@_W@std@@V?$allocator@_W@2@@std@@QEAAX$$QEAV12@@Z
pdata	ENDS
;	COMDAT pdata
pdata	SEGMENT
$pdata$??1?$basic_string@_WU?$char_traits@_W@std@@V?$allocator@_W@2@@std@@QEAA@XZ DD imagerel $LN79
	DD	imagerel $LN79+78
	DD	imagerel $unwind$??1?$basic_string@_WU?$char_traits@_W@std@@V?$allocator@_W@2@@std@@QEAA@XZ
pdata	ENDS
;	COMDAT pdata
pdata	SEGMENT
$pdata$?assign@?$basic_string@_WU?$char_traits@_W@std@@V?$allocator@_W@2@@std@@QEAAAEAV12@AEBV12@_K1@Z DD imagerel $LN171
	DD	imagerel $LN171+306
	DD	imagerel $unwind$?assign@?$basic_string@_WU?$char_traits@_W@std@@V?$allocator@_W@2@@std@@QEAAAEAV12@AEBV12@_K1@Z
pdata	ENDS
;	COMDAT pdata
pdata	SEGMENT
$pdata$?assign@?$basic_string@_WU?$char_traits@_W@std@@V?$allocator@_W@2@@std@@QEAAAEAV12@PEB_W_K@Z DD imagerel $LN155
	DD	imagerel $LN155+325
	DD	imagerel $unwind$?assign@?$basic_string@_WU?$char_traits@_W@std@@V?$allocator@_W@2@@std@@QEAAAEAV12@PEB_W_K@Z
pdata	ENDS
;	COMDAT pdata
pdata	SEGMENT
$pdata$?erase@?$basic_string@_WU?$char_traits@_W@std@@V?$allocator@_W@2@@std@@QEAAAEAV12@_K@Z DD imagerel $LN32
	DD	imagerel $LN32+70
	DD	imagerel $unwind$?erase@?$basic_string@_WU?$char_traits@_W@std@@V?$allocator@_W@2@@std@@QEAAAEAV12@_K@Z
pdata	ENDS
;	COMDAT pdata
pdata	SEGMENT
$pdata$?erase@?$basic_string@_WU?$char_traits@_W@std@@V?$allocator@_W@2@@std@@QEAAAEAV12@_K0@Z DD imagerel $LN79
	DD	imagerel $LN79+171
	DD	imagerel $unwind$?erase@?$basic_string@_WU?$char_traits@_W@std@@V?$allocator@_W@2@@std@@QEAAAEAV12@_K0@Z
pdata	ENDS
;	COMDAT pdata
pdata	SEGMENT
$pdata$?find_first_of@?$basic_string@_WU?$char_traits@_W@std@@V?$allocator@_W@2@@std@@QEBA_KAEBV12@_K@Z DD imagerel $LN101
	DD	imagerel $LN101+162
	DD	imagerel $unwind$?find_first_of@?$basic_string@_WU?$char_traits@_W@std@@V?$allocator@_W@2@@std@@QEBA_KAEBV12@_K@Z
pdata	ENDS
;	COMDAT pdata
pdata	SEGMENT
$pdata$?find_first_of@?$basic_string@_WU?$char_traits@_W@std@@V?$allocator@_W@2@@std@@QEBA_KPEB_W_K1@Z DD imagerel $LN79
	DD	imagerel $LN79+166
	DD	imagerel $unwind$?find_first_of@?$basic_string@_WU?$char_traits@_W@std@@V?$allocator@_W@2@@std@@QEBA_KPEB_W_K1@Z
pdata	ENDS
;	COMDAT pdata
pdata	SEGMENT
$pdata$?find_first_not_of@?$basic_string@_WU?$char_traits@_W@std@@V?$allocator@_W@2@@std@@QEBA_KAEBV12@_K@Z DD imagerel $LN102
	DD	imagerel $LN102+162
	DD	imagerel $unwind$?find_first_not_of@?$basic_string@_WU?$char_traits@_W@std@@V?$allocator@_W@2@@std@@QEBA_KAEBV12@_K@Z
pdata	ENDS
;	COMDAT pdata
pdata	SEGMENT
$pdata$?find_first_not_of@?$basic_string@_WU?$char_traits@_W@std@@V?$allocator@_W@2@@std@@QEBA_KPEB_W_K1@Z DD imagerel $LN80
	DD	imagerel $LN80+140
	DD	imagerel $unwind$?find_first_not_of@?$basic_string@_WU?$char_traits@_W@std@@V?$allocator@_W@2@@std@@QEBA_KPEB_W_K1@Z
pdata	ENDS
;	COMDAT pdata
pdata	SEGMENT
$pdata$?substr@?$basic_string@_WU?$char_traits@_W@std@@V?$allocator@_W@2@@std@@QEBA?AV12@_K0@Z DD imagerel $LN101
	DD	imagerel $LN101+73
	DD	imagerel $unwind$?substr@?$basic_string@_WU?$char_traits@_W@std@@V?$allocator@_W@2@@std@@QEBA?AV12@_K0@Z
pdata	ENDS
;	COMDAT pdata
pdata	SEGMENT
$pdata$?dtor$0@?0??substr@?$basic_string@_WU?$char_traits@_W@std@@V?$allocator@_W@2@@std@@QEBA?AV12@_K0@Z@4HA DD imagerel ?dtor$0@?0??substr@?$basic_string@_WU?$char_traits@_W@std@@V?$allocator@_W@2@@std@@QEBA?AV12@_K0@Z@4HA
	DD	imagerel ?dtor$0@?0??substr@?$basic_string@_WU?$char_traits@_W@std@@V?$allocator@_W@2@@std@@QEBA?AV12@_K0@Z@4HA+38
	DD	imagerel $unwind$?dtor$0@?0??substr@?$basic_string@_WU?$char_traits@_W@std@@V?$allocator@_W@2@@std@@QEBA?AV12@_K0@Z@4HA
pdata	ENDS
;	COMDAT pdata
pdata	SEGMENT
$pdata$?_Copy@?$basic_string@_WU?$char_traits@_W@std@@V?$allocator@_W@2@@std@@QEAAX_K0@Z DD imagerel $LN326
	DD	imagerel $LN326+293
	DD	imagerel $unwind$?_Copy@?$basic_string@_WU?$char_traits@_W@std@@V?$allocator@_W@2@@std@@QEAAX_K0@Z
pdata	ENDS
;	COMDAT pdata
pdata	SEGMENT
$pdata$?catch$1@?0??_Copy@?$basic_string@_WU?$char_traits@_W@std@@V?$allocator@_W@2@@std@@QEAAX_K0@Z@4HA DD imagerel ?catch$1@?0??_Copy@?$basic_string@_WU?$char_traits@_W@std@@V?$allocator@_W@2@@std@@QEAAX_K0@Z@4HA
	DD	imagerel ?catch$1@?0??_Copy@?$basic_string@_WU?$char_traits@_W@std@@V?$allocator@_W@2@@std@@QEAAX_K0@Z@4HA+51
	DD	imagerel $unwind$?catch$1@?0??_Copy@?$basic_string@_WU?$char_traits@_W@std@@V?$allocator@_W@2@@std@@QEAAX_K0@Z@4HA
pdata	ENDS
;	COMDAT pdata
pdata	SEGMENT
$pdata$?catch$0@?0??_Copy@?$basic_string@_WU?$char_traits@_W@std@@V?$allocator@_W@2@@std@@QEAAX_K0@Z@4HA DD imagerel ?catch$0@?0??_Copy@?$basic_string@_WU?$char_traits@_W@std@@V?$allocator@_W@2@@std@@QEAAX_K0@Z@4HA
	DD	imagerel ?catch$0@?0??_Copy@?$basic_string@_WU?$char_traits@_W@std@@V?$allocator@_W@2@@std@@QEAAX_K0@Z@4HA+83
	DD	imagerel $unwind$?catch$0@?0??_Copy@?$basic_string@_WU?$char_traits@_W@std@@V?$allocator@_W@2@@std@@QEAAX_K0@Z@4HA
pdata	ENDS
;	COMDAT pdata
pdata	SEGMENT
$pdata$?_Grow@?$basic_string@_WU?$char_traits@_W@std@@V?$allocator@_W@2@@std@@QEAA_N_K_N@Z DD imagerel $LN69
	DD	imagerel $LN69+142
	DD	imagerel $unwind$?_Grow@?$basic_string@_WU?$char_traits@_W@std@@V?$allocator@_W@2@@std@@QEAA_N_K_N@Z
pdata	ENDS
;	COMDAT pdata
pdata	SEGMENT
$pdata$?_Tidy@?$basic_string@_WU?$char_traits@_W@std@@V?$allocator@_W@2@@std@@QEAAX_N_K@Z DD imagerel $LN78
	DD	imagerel $LN78+27
	DD	imagerel $unwind$?_Tidy@?$basic_string@_WU?$char_traits@_W@std@@V?$allocator@_W@2@@std@@QEAAX_N_K@Z
pdata	ENDS
;	COMDAT pdata
pdata	SEGMENT
$pdata$0$?_Tidy@?$basic_string@_WU?$char_traits@_W@std@@V?$allocator@_W@2@@std@@QEAAX_N_K@Z DD imagerel $LN78+27
	DD	imagerel $LN78+74
	DD	imagerel $chain$0$?_Tidy@?$basic_string@_WU?$char_traits@_W@std@@V?$allocator@_W@2@@std@@QEAAX_N_K@Z
pdata	ENDS
;	COMDAT pdata
pdata	SEGMENT
$pdata$1$?_Tidy@?$basic_string@_WU?$char_traits@_W@std@@V?$allocator@_W@2@@std@@QEAAX_N_K@Z DD imagerel $LN78+74
	DD	imagerel $LN78+128
	DD	imagerel $chain$1$?_Tidy@?$basic_string@_WU?$char_traits@_W@std@@V?$allocator@_W@2@@std@@QEAAX_N_K@Z
pdata	ENDS
;	COMDAT pdata
pdata	SEGMENT
$pdata$?_Xlen@?$basic_string@_WU?$char_traits@_W@std@@V?$allocator@_W@2@@std@@QEBAXXZ DD imagerel $LN4
	DD	imagerel $LN4+18
	DD	imagerel $unwind$?_Xlen@?$basic_string@_WU?$char_traits@_W@std@@V?$allocator@_W@2@@std@@QEBAXXZ
pdata	ENDS
;	COMDAT pdata
pdata	SEGMENT
$pdata$?_Check_offset@?$basic_string@_WU?$char_traits@_W@std@@V?$allocator@_W@2@@std@@QEBAX_K@Z DD imagerel $LN15
	DD	imagerel $LN15+29
	DD	imagerel $unwind$?_Check_offset@?$basic_string@_WU?$char_traits@_W@std@@V?$allocator@_W@2@@std@@QEBAX_K@Z
pdata	ENDS
;	COMDAT pdata
pdata	SEGMENT
$pdata$?_Xran@?$basic_string@_WU?$char_traits@_W@std@@V?$allocator@_W@2@@std@@QEBAXXZ DD imagerel $LN4
	DD	imagerel $LN4+18
	DD	imagerel $unwind$?_Xran@?$basic_string@_WU?$char_traits@_W@std@@V?$allocator@_W@2@@std@@QEBAXXZ
pdata	ENDS
;	COMDAT pdata
pdata	SEGMENT
$pdata$??_G?$basic_string@_WU?$char_traits@_W@std@@V?$allocator@_W@2@@std@@QEAAPEAXI@Z DD imagerel $LN83
	DD	imagerel $LN83+113
	DD	imagerel $unwind$??_G?$basic_string@_WU?$char_traits@_W@std@@V?$allocator@_W@2@@std@@QEAAPEAXI@Z
pdata	ENDS
;	COMDAT pdata
pdata	SEGMENT
$pdata$??0TileRow@@QEAA@M@Z DD imagerel $LN12
	DD	imagerel $LN12+43
	DD	imagerel $unwind$??0TileRow@@QEAA@M@Z
pdata	ENDS
;	COMDAT pdata
pdata	SEGMENT
$pdata$?deallocate@?$allocator@M@std@@QEAAXPEAM_K@Z DD imagerel $LN14
	DD	imagerel $LN14+114
	DD	imagerel $unwind$?deallocate@?$allocator@M@std@@QEAAXPEAM_K@Z
pdata	ENDS
;	COMDAT pdata
pdata	SEGMENT
$pdata$?allocate@?$allocator@M@std@@QEAAPEAM_K@Z DD imagerel $LN15
	DD	imagerel $LN15+128
	DD	imagerel $unwind$?allocate@?$allocator@M@std@@QEAAPEAM_K@Z
pdata	ENDS
;	COMDAT pdata
pdata	SEGMENT
$pdata$??0?$vector@MV?$allocator@M@std@@@std@@QEAA@AEBV01@@Z DD imagerel $LN256
	DD	imagerel $LN256+191
	DD	imagerel $unwind$??0?$vector@MV?$allocator@M@std@@@std@@QEAA@AEBV01@@Z
pdata	ENDS
;	COMDAT pdata
pdata	SEGMENT
$pdata$?catch$0@?0???0?$vector@MV?$allocator@M@std@@@std@@QEAA@AEBV01@@Z@4HA DD imagerel ?catch$0@?0???0?$vector@MV?$allocator@M@std@@@std@@QEAA@AEBV01@@Z@4HA
	DD	imagerel ?catch$0@?0???0?$vector@MV?$allocator@M@std@@@std@@QEAA@AEBV01@@Z@4HA+78
	DD	imagerel $unwind$?catch$0@?0???0?$vector@MV?$allocator@M@std@@@std@@QEAA@AEBV01@@Z@4HA
pdata	ENDS
;	COMDAT pdata
pdata	SEGMENT
$pdata$?push_back@?$vector@MV?$allocator@M@std@@@std@@QEAAX$$QEAM@Z DD imagerel $LN171
	DD	imagerel $LN171+140
	DD	imagerel $unwind$?push_back@?$vector@MV?$allocator@M@std@@@std@@QEAAX$$QEAM@Z
pdata	ENDS
;	COMDAT pdata
pdata	SEGMENT
$pdata$??1?$vector@MV?$allocator@M@std@@@std@@QEAA@XZ DD imagerel $LN66
	DD	imagerel $LN66+62
	DD	imagerel $unwind$??1?$vector@MV?$allocator@M@std@@@std@@QEAA@XZ
pdata	ENDS
;	COMDAT pdata
pdata	SEGMENT
$pdata$?push_back@?$vector@MV?$allocator@M@std@@@std@@QEAAXAEBM@Z DD imagerel $LN167
	DD	imagerel $LN167+140
	DD	imagerel $unwind$?push_back@?$vector@MV?$allocator@M@std@@@std@@QEAAXAEBM@Z
pdata	ENDS
;	COMDAT pdata
pdata	SEGMENT
$pdata$?_Buy@?$vector@MV?$allocator@M@std@@@std@@IEAA_N_K@Z DD imagerel $LN78
	DD	imagerel $LN78+96
	DD	imagerel $unwind$?_Buy@?$vector@MV?$allocator@M@std@@@std@@IEAA_N_K@Z
pdata	ENDS
;	COMDAT pdata
pdata	SEGMENT
$pdata$?_Reallocate@?$vector@MV?$allocator@M@std@@@std@@IEAAX_K@Z DD imagerel $LN132
	DD	imagerel $LN132+142
	DD	imagerel $unwind$?_Reallocate@?$vector@MV?$allocator@M@std@@@std@@IEAAX_K@Z
pdata	ENDS
;	COMDAT pdata
pdata	SEGMENT
$pdata$?catch$0@?0??_Reallocate@?$vector@MV?$allocator@M@std@@@std@@IEAAX_K@Z@4HA DD imagerel ?catch$0@?0??_Reallocate@?$vector@MV?$allocator@M@std@@@std@@IEAAX_K@Z@4HA
	DD	imagerel ?catch$0@?0??_Reallocate@?$vector@MV?$allocator@M@std@@@std@@IEAAX_K@Z@4HA+40
	DD	imagerel $unwind$?catch$0@?0??_Reallocate@?$vector@MV?$allocator@M@std@@@std@@IEAAX_K@Z@4HA
pdata	ENDS
;	COMDAT pdata
pdata	SEGMENT
$pdata$?_Reserve@?$vector@MV?$allocator@M@std@@@std@@IEAAX_K@Z DD imagerel $LN95
	DD	imagerel $LN95+130
	DD	imagerel $unwind$?_Reserve@?$vector@MV?$allocator@M@std@@@std@@IEAAX_K@Z
pdata	ENDS
;	COMDAT pdata
pdata	SEGMENT
$pdata$?_Tidy@?$vector@MV?$allocator@M@std@@@std@@IEAAXXZ DD imagerel $LN65
	DD	imagerel $LN65+52
	DD	imagerel $unwind$?_Tidy@?$vector@MV?$allocator@M@std@@@std@@IEAAXXZ
pdata	ENDS
;	COMDAT pdata
pdata	SEGMENT
$pdata$?_Xlen@?$vector@MV?$allocator@M@std@@@std@@IEBAXXZ DD imagerel $LN4
	DD	imagerel $LN4+18
	DD	imagerel $unwind$?_Xlen@?$vector@MV?$allocator@M@std@@@std@@IEBAXXZ
pdata	ENDS
;	COMDAT pdata
pdata	SEGMENT
$pdata$??1TileRow@@QEAA@XZ DD imagerel $LN69
	DD	imagerel $LN69+70
	DD	imagerel $unwind$??1TileRow@@QEAA@XZ
pdata	ENDS
;	COMDAT pdata
pdata	SEGMENT
$pdata$??0TileRow@@QEAA@AEBV0@@Z DD imagerel $LN4
	DD	imagerel $LN4+55
	DD	imagerel $unwind$??0TileRow@@QEAA@AEBV0@@Z
pdata	ENDS
;	COMDAT pdata
pdata	SEGMENT
$pdata$??0TileRow@@QEAA@$$QEAV0@@Z DD imagerel $LN80
	DD	imagerel $LN80+86
	DD	imagerel $unwind$??0TileRow@@QEAA@$$QEAV0@@Z
pdata	ENDS
;	COMDAT pdata
pdata	SEGMENT
$pdata$??_GTileRow@@QEAAPEAXI@Z DD imagerel $LN73
	DD	imagerel $LN73+117
	DD	imagerel $unwind$??_GTileRow@@QEAAPEAXI@Z
pdata	ENDS
;	COMDAT pdata
pdata	SEGMENT
$pdata$?deallocate@?$allocator@VTileRow@@@std@@QEAAXPEAVTileRow@@_K@Z DD imagerel $LN14
	DD	imagerel $LN14+111
	DD	imagerel $unwind$?deallocate@?$allocator@VTileRow@@@std@@QEAAXPEAVTileRow@@_K@Z
pdata	ENDS
;	COMDAT pdata
pdata	SEGMENT
$pdata$?allocate@?$allocator@VTileRow@@@std@@QEAAPEAVTileRow@@_K@Z DD imagerel $LN15
	DD	imagerel $LN15+124
	DD	imagerel $unwind$?allocate@?$allocator@VTileRow@@@std@@QEAAPEAVTileRow@@_K@Z
pdata	ENDS
;	COMDAT pdata
pdata	SEGMENT
$pdata$?push_back@?$vector@VTileRow@@V?$allocator@VTileRow@@@std@@@std@@QEAAXAEBVTileRow@@@Z DD imagerel $LN175
	DD	imagerel $LN175+195
	DD	imagerel $unwind$?push_back@?$vector@VTileRow@@V?$allocator@VTileRow@@@std@@@std@@QEAAXAEBVTileRow@@@Z
pdata	ENDS
;	COMDAT pdata
pdata	SEGMENT
$pdata$?dtor$0@?0??push_back@?$vector@VTileRow@@V?$allocator@VTileRow@@@std@@@std@@QEAAXAEBVTileRow@@@Z@4HA DD imagerel ?dtor$0@?0??push_back@?$vector@VTileRow@@V?$allocator@VTileRow@@@std@@@std@@QEAAXAEBVTileRow@@@Z@4HA
	DD	imagerel ?dtor$0@?0??push_back@?$vector@VTileRow@@V?$allocator@VTileRow@@@std@@@std@@QEAAXAEBVTileRow@@@Z@4HA+28
	DD	imagerel $unwind$?dtor$0@?0??push_back@?$vector@VTileRow@@V?$allocator@VTileRow@@@std@@@std@@QEAAXAEBVTileRow@@@Z@4HA
pdata	ENDS
;	COMDAT pdata
pdata	SEGMENT
$pdata$?dtor$2@?0??push_back@?$vector@VTileRow@@V?$allocator@VTileRow@@@std@@@std@@QEAAXAEBVTileRow@@@Z@4HA DD imagerel ?dtor$2@?0??push_back@?$vector@VTileRow@@V?$allocator@VTileRow@@@std@@@std@@QEAAXAEBVTileRow@@@Z@4HA
	DD	imagerel ?dtor$2@?0??push_back@?$vector@VTileRow@@V?$allocator@VTileRow@@@std@@@std@@QEAAXAEBVTileRow@@@Z@4HA+28
	DD	imagerel $unwind$?dtor$2@?0??push_back@?$vector@VTileRow@@V?$allocator@VTileRow@@@std@@@std@@QEAAXAEBVTileRow@@@Z@4HA
pdata	ENDS
;	COMDAT pdata
pdata	SEGMENT
$pdata$?clear@?$vector@VTileRow@@V?$allocator@VTileRow@@@std@@@std@@QEAAXXZ DD imagerel $LN35
	DD	imagerel $LN35+53
	DD	imagerel $unwind$?clear@?$vector@VTileRow@@V?$allocator@VTileRow@@@std@@@std@@QEAAXXZ
pdata	ENDS
;	COMDAT pdata
pdata	SEGMENT
$pdata$?_Reallocate@?$vector@VTileRow@@V?$allocator@VTileRow@@@std@@@std@@IEAAX_K@Z DD imagerel $LN138
	DD	imagerel $LN138+178
	DD	imagerel $unwind$?_Reallocate@?$vector@VTileRow@@V?$allocator@VTileRow@@@std@@@std@@IEAAX_K@Z
pdata	ENDS
;	COMDAT pdata
pdata	SEGMENT
$pdata$?catch$0@?0??_Reallocate@?$vector@VTileRow@@V?$allocator@VTileRow@@@std@@@std@@IEAAX_K@Z@4HA DD imagerel ?catch$0@?0??_Reallocate@?$vector@VTileRow@@V?$allocator@VTileRow@@@std@@@std@@IEAAX_K@Z@4HA
	DD	imagerel ?catch$0@?0??_Reallocate@?$vector@VTileRow@@V?$allocator@VTileRow@@@std@@@std@@IEAAX_K@Z@4HA+43
	DD	imagerel $unwind$?catch$0@?0??_Reallocate@?$vector@VTileRow@@V?$allocator@VTileRow@@@std@@@std@@IEAAX_K@Z@4HA
pdata	ENDS
;	COMDAT pdata
pdata	SEGMENT
$pdata$?_Reserve@?$vector@VTileRow@@V?$allocator@VTileRow@@@std@@@std@@IEAAX_K@Z DD imagerel $LN95
	DD	imagerel $LN95+130
	DD	imagerel $unwind$?_Reserve@?$vector@VTileRow@@V?$allocator@VTileRow@@@std@@@std@@IEAAX_K@Z
pdata	ENDS
;	COMDAT pdata
pdata	SEGMENT
$pdata$?_Xlen@?$vector@VTileRow@@V?$allocator@VTileRow@@@std@@@std@@IEBAXXZ DD imagerel $LN4
	DD	imagerel $LN4+18
	DD	imagerel $unwind$?_Xlen@?$vector@VTileRow@@V?$allocator@VTileRow@@@std@@@std@@IEBAXXZ
pdata	ENDS
;	COMDAT pdata
pdata	SEGMENT
$pdata$?setPattern@TilePattern@@QEAAXV?$basic_string@_WU?$char_traits@_W@std@@V?$allocator@_W@2@@std@@@Z DD imagerel $LN181
	DD	imagerel $LN181+170
	DD	imagerel $unwind$?setPattern@TilePattern@@QEAAXV?$basic_string@_WU?$char_traits@_W@std@@V?$allocator@_W@2@@std@@@Z
pdata	ENDS
;	COMDAT pdata
pdata	SEGMENT
$pdata$?update@TilePattern@@QEAAXXZ DD imagerel $LN72
	DD	imagerel $LN72+36
	DD	imagerel $unwind$?update@TilePattern@@QEAAXXZ
pdata	ENDS
;	COMDAT pdata
pdata	SEGMENT
$pdata$0$?update@TilePattern@@QEAAXXZ DD imagerel $LN72+36
	DD	imagerel $LN72+195
	DD	imagerel $chain$0$?update@TilePattern@@QEAAXXZ
pdata	ENDS
;	COMDAT pdata
pdata	SEGMENT
$pdata$1$?update@TilePattern@@QEAAXXZ DD imagerel $LN72+195
	DD	imagerel $LN72+202
	DD	imagerel $chain$1$?update@TilePattern@@QEAAXXZ
pdata	ENDS
;	COMDAT pdata
pdata	SEGMENT
$pdata$?setPreset@TilePattern@@QEAAXH@Z DD imagerel $LN928
	DD	imagerel $LN928+628
	DD	imagerel $unwind$?setPreset@TilePattern@@QEAAXH@Z
pdata	ENDS
;	COMDAT pdata
pdata	SEGMENT
$pdata$?corner@Tile@@CA?AVTilePoint@@MMMMAEAVTileParam@@@Z DD imagerel $LN90
	DD	imagerel $LN90+745
	DD	imagerel $unwind$?corner@Tile@@CA?AVTilePoint@@MMMMAEAVTileParam@@@Z
pdata	ENDS
;	COMDAT pdata
pdata	SEGMENT
$pdata$?rotatePoint2@Tile@@CAXAEAVPoint3@@M@Z DD imagerel $LN12
	DD	imagerel $LN12+112
	DD	imagerel $unwind$?rotatePoint2@Tile@@CAXAEAVPoint3@@M@Z
pdata	ENDS
;	COMDAT pdata
pdata	SEGMENT
$pdata$?uvMapping@Tile@@CAXAEAVTilePoint@@VPoint3@@QEAMAEAVTileParam@@H@Z DD imagerel $LN49
	DD	imagerel $LN49+998
	DD	imagerel $unwind$?uvMapping@Tile@@CAXAEAVTilePoint@@VPoint3@@QEAMAEAVTileParam@@H@Z
pdata	ENDS
;	COMDAT pdata
pdata	SEGMENT
$pdata$?drawTile@Tile@@CA?AVTilePoint@@VPoint3@@QEAMAEAVTileParam@@HH@Z DD imagerel $LN127
	DD	imagerel $LN127+75
	DD	imagerel $unwind$?drawTile@Tile@@CA?AVTilePoint@@VPoint3@@QEAMAEAVTileParam@@HH@Z
pdata	ENDS
;	COMDAT pdata
pdata	SEGMENT
$pdata$1$?drawTile@Tile@@CA?AVTilePoint@@VPoint3@@QEAMAEAVTileParam@@HH@Z DD imagerel $LN127+75
	DD	imagerel $LN127+723
	DD	imagerel $chain$1$?drawTile@Tile@@CA?AVTilePoint@@VPoint3@@QEAMAEAVTileParam@@HH@Z
pdata	ENDS
;	COMDAT pdata
pdata	SEGMENT
$pdata$2$?drawTile@Tile@@CA?AVTilePoint@@VPoint3@@QEAMAEAVTileParam@@HH@Z DD imagerel $LN127+723
	DD	imagerel $LN127+1668
	DD	imagerel $chain$2$?drawTile@Tile@@CA?AVTilePoint@@VPoint3@@QEAMAEAVTileParam@@HH@Z
pdata	ENDS
;	COMDAT pdata
pdata	SEGMENT
$pdata$?pat_xBond@Tile@@CA?AVTilePoint@@VPoint3@@AEAVTileParam@@@Z DD imagerel $LN57
	DD	imagerel $LN57+237
	DD	imagerel $unwind$?pat_xBond@Tile@@CA?AVTilePoint@@VPoint3@@AEAVTileParam@@@Z
pdata	ENDS
;	COMDAT pdata
pdata	SEGMENT
$pdata$0$?pat_xBond@Tile@@CA?AVTilePoint@@VPoint3@@AEAVTileParam@@@Z DD imagerel $LN57+237
	DD	imagerel $LN57+492
	DD	imagerel $chain$0$?pat_xBond@Tile@@CA?AVTilePoint@@VPoint3@@AEAVTileParam@@@Z
pdata	ENDS
;	COMDAT pdata
pdata	SEGMENT
$pdata$1$?pat_xBond@Tile@@CA?AVTilePoint@@VPoint3@@AEAVTileParam@@@Z DD imagerel $LN57+492
	DD	imagerel $LN57+519
	DD	imagerel $chain$1$?pat_xBond@Tile@@CA?AVTilePoint@@VPoint3@@AEAVTileParam@@@Z
pdata	ENDS
;	COMDAT pdata
pdata	SEGMENT
$pdata$?pat_herring@Tile@@CA?AVTilePoint@@VPoint3@@AEAVTileParam@@@Z DD imagerel $LN21
	DD	imagerel $LN21+514
	DD	imagerel $unwind$?pat_herring@Tile@@CA?AVTilePoint@@VPoint3@@AEAVTileParam@@@Z
pdata	ENDS
;	COMDAT pdata
pdata	SEGMENT
$pdata$?draw@Tile@@SA?AVTilePoint@@VPoint3@@AEAVTileParam@@@Z DD imagerel $LN10
	DD	imagerel $LN10+80
	DD	imagerel $unwind$?draw@Tile@@SA?AVTilePoint@@VPoint3@@AEAVTileParam@@@Z
pdata	ENDS
;	COMDAT pdata
pdata	SEGMENT
$pdata$?getAngle@@YAMHM@Z DD imagerel ?getAngle@@YAMHM@Z
	DD	imagerel ?getAngle@@YAMHM@Z+232
	DD	imagerel $unwind$?getAngle@@YAMHM@Z
pdata	ENDS
;	COMDAT pdata
pdata	SEGMENT
$pdata$?rowcol@@YAHAEAM0AEAHMMAEAV?$vector@MV?$allocator@M@std@@@std@@MMM@Z DD imagerel ?rowcol@@YAHAEAM0AEAHMMAEAV?$vector@MV?$allocator@M@std@@@std@@MMM@Z
	DD	imagerel ?rowcol@@YAHAEAM0AEAHMMAEAV?$vector@MV?$allocator@M@std@@@std@@MMM@Z+208
	DD	imagerel $unwind$?rowcol@@YAHAEAM0AEAHMMAEAV?$vector@MV?$allocator@M@std@@@std@@MMM@Z
pdata	ENDS
;	COMDAT pdata
pdata	SEGMENT
$pdata$8$?rowcol@@YAHAEAM0AEAHMMAEAV?$vector@MV?$allocator@M@std@@@std@@MMM@Z DD imagerel ?rowcol@@YAHAEAM0AEAHMMAEAV?$vector@MV?$allocator@M@std@@@std@@MMM@Z+208
	DD	imagerel ?rowcol@@YAHAEAM0AEAHMMAEAV?$vector@MV?$allocator@M@std@@@std@@MMM@Z+822
	DD	imagerel $chain$8$?rowcol@@YAHAEAM0AEAHMMAEAV?$vector@MV?$allocator@M@std@@@std@@MMM@Z
pdata	ENDS
;	COMDAT pdata
pdata	SEGMENT
$pdata$9$?rowcol@@YAHAEAM0AEAHMMAEAV?$vector@MV?$allocator@M@std@@@std@@MMM@Z DD imagerel ?rowcol@@YAHAEAM0AEAHMMAEAV?$vector@MV?$allocator@M@std@@@std@@MMM@Z+822
	DD	imagerel ?rowcol@@YAHAEAM0AEAHMMAEAV?$vector@MV?$allocator@M@std@@@std@@MMM@Z+878
	DD	imagerel $chain$9$?rowcol@@YAHAEAM0AEAHMMAEAV?$vector@MV?$allocator@M@std@@@std@@MMM@Z
pdata	ENDS
;	COMDAT pdata
pdata	SEGMENT
$pdata$?tokenize@@YAXAEBV?$basic_string@_WU?$char_traits@_W@std@@V?$allocator@_W@2@@std@@AEAV?$vector@V?$basic_string@_WU?$char_traits@_W@std@@V?$allocator@_W@2@@std@@V?$allocator@V?$basic_string@_WU?$char_traits@_W@std@@V?$allocator@_W@2@@std@@@2@@2@0@Z DD imagerel ?tokenize@@YAXAEBV?$basic_string@_WU?$char_traits@_W@std@@V?$allocator@_W@2@@std@@AEAV?$vector@V?$basic_string@_WU?$char_traits@_W@std@@V?$allocator@_W@2@@std@@V?$allocator@V?$basic_string@_WU?$char_traits@_W@std@@V?$allocator@_W@2@@std@@@2@@2@0@Z
	DD	imagerel ?tokenize@@YAXAEBV?$basic_string@_WU?$char_traits@_W@std@@V?$allocator@_W@2@@std@@AEAV?$vector@V?$basic_string@_WU?$char_traits@_W@std@@V?$allocator@_W@2@@std@@V?$allocator@V?$basic_string@_WU?$char_traits@_W@std@@V?$allocator@_W@2@@std@@@2@@2@0@Z+636
	DD	imagerel $unwind$?tokenize@@YAXAEBV?$basic_string@_WU?$char_traits@_W@std@@V?$allocator@_W@2@@std@@AEAV?$vector@V?$basic_string@_WU?$char_traits@_W@std@@V?$allocator@_W@2@@std@@V?$allocator@V?$basic_string@_WU?$char_traits@_W@std@@V?$allocator@_W@2@@std@@@2@@2@0@Z
pdata	ENDS
;	COMDAT pdata
pdata	SEGMENT
$pdata$?deallocate@?$allocator@V?$basic_string@_WU?$char_traits@_W@std@@V?$allocator@_W@2@@std@@@std@@QEAAXPEAV?$basic_string@_WU?$char_traits@_W@std@@V?$allocator@_W@2@@2@_K@Z DD imagerel $LN14
	DD	imagerel $LN14+111
	DD	imagerel $unwind$?deallocate@?$allocator@V?$basic_string@_WU?$char_traits@_W@std@@V?$allocator@_W@2@@std@@@std@@QEAAXPEAV?$basic_string@_WU?$char_traits@_W@std@@V?$allocator@_W@2@@2@_K@Z
pdata	ENDS
;	COMDAT pdata
pdata	SEGMENT
$pdata$?allocate@?$allocator@V?$basic_string@_WU?$char_traits@_W@std@@V?$allocator@_W@2@@std@@@std@@QEAAPEAV?$basic_string@_WU?$char_traits@_W@std@@V?$allocator@_W@2@@2@_K@Z DD imagerel $LN15
	DD	imagerel $LN15+124
	DD	imagerel $unwind$?allocate@?$allocator@V?$basic_string@_WU?$char_traits@_W@std@@V?$allocator@_W@2@@std@@@std@@QEAAPEAV?$basic_string@_WU?$char_traits@_W@std@@V?$allocator@_W@2@@2@_K@Z
pdata	ENDS
;	COMDAT pdata
pdata	SEGMENT
$pdata$?push_back@?$vector@V?$basic_string@_WU?$char_traits@_W@std@@V?$allocator@_W@2@@std@@V?$allocator@V?$basic_string@_WU?$char_traits@_W@std@@V?$allocator@_W@2@@std@@@2@@std@@QEAAX$$QEAV?$basic_string@_WU?$char_traits@_W@std@@V?$allocator@_W@2@@2@@Z DD imagerel $LN365
	DD	imagerel $LN365+133
	DD	imagerel $unwind$?push_back@?$vector@V?$basic_string@_WU?$char_traits@_W@std@@V?$allocator@_W@2@@std@@V?$allocator@V?$basic_string@_WU?$char_traits@_W@std@@V?$allocator@_W@2@@std@@@2@@std@@QEAAX$$QEAV?$basic_string@_WU?$char_traits@_W@std@@V?$allocator@_W@2@@2@@Z
pdata	ENDS
;	COMDAT pdata
pdata	SEGMENT
$pdata$??1?$vector@V?$basic_string@_WU?$char_traits@_W@std@@V?$allocator@_W@2@@std@@V?$allocator@V?$basic_string@_WU?$char_traits@_W@std@@V?$allocator@_W@2@@std@@@2@@std@@QEAA@XZ DD imagerel $LN74
	DD	imagerel $LN74+87
	DD	imagerel $unwind$??1?$vector@V?$basic_string@_WU?$char_traits@_W@std@@V?$allocator@_W@2@@std@@V?$allocator@V?$basic_string@_WU?$char_traits@_W@std@@V?$allocator@_W@2@@std@@@2@@std@@QEAA@XZ
pdata	ENDS
;	COMDAT pdata
pdata	SEGMENT
$pdata$?_Reallocate@?$vector@V?$basic_string@_WU?$char_traits@_W@std@@V?$allocator@_W@2@@std@@V?$allocator@V?$basic_string@_WU?$char_traits@_W@std@@V?$allocator@_W@2@@std@@@2@@std@@IEAAX_K@Z DD imagerel $LN138
	DD	imagerel $LN138+178
	DD	imagerel $unwind$?_Reallocate@?$vector@V?$basic_string@_WU?$char_traits@_W@std@@V?$allocator@_W@2@@std@@V?$allocator@V?$basic_string@_WU?$char_traits@_W@std@@V?$allocator@_W@2@@std@@@2@@std@@IEAAX_K@Z
pdata	ENDS
;	COMDAT pdata
pdata	SEGMENT
$pdata$?catch$0@?0??_Reallocate@?$vector@V?$basic_string@_WU?$char_traits@_W@std@@V?$allocator@_W@2@@std@@V?$allocator@V?$basic_string@_WU?$char_traits@_W@std@@V?$allocator@_W@2@@std@@@2@@std@@IEAAX_K@Z@4HA DD imagerel ?catch$0@?0??_Reallocate@?$vector@V?$basic_string@_WU?$char_traits@_W@std@@V?$allocator@_W@2@@std@@V?$allocator@V?$basic_string@_WU?$char_traits@_W@std@@V?$allocator@_W@2@@std@@@2@@std@@IEAAX_K@Z@4HA
	DD	imagerel ?catch$0@?0??_Reallocate@?$vector@V?$basic_string@_WU?$char_traits@_W@std@@V?$allocator@_W@2@@std@@V?$allocator@V?$basic_string@_WU?$char_traits@_W@std@@V?$allocator@_W@2@@std@@@2@@std@@IEAAX_K@Z@4HA+43
	DD	imagerel $unwind$?catch$0@?0??_Reallocate@?$vector@V?$basic_string@_WU?$char_traits@_W@std@@V?$allocator@_W@2@@std@@V?$allocator@V?$basic_string@_WU?$char_traits@_W@std@@V?$allocator@_W@2@@std@@@2@@std@@IEAAX_K@Z@4HA
pdata	ENDS
;	COMDAT pdata
pdata	SEGMENT
$pdata$?_Reserve@?$vector@V?$basic_string@_WU?$char_traits@_W@std@@V?$allocator@_W@2@@std@@V?$allocator@V?$basic_string@_WU?$char_traits@_W@std@@V?$allocator@_W@2@@std@@@2@@std@@IEAAX_K@Z DD imagerel $LN95
	DD	imagerel $LN95+130
	DD	imagerel $unwind$?_Reserve@?$vector@V?$basic_string@_WU?$char_traits@_W@std@@V?$allocator@_W@2@@std@@V?$allocator@V?$basic_string@_WU?$char_traits@_W@std@@V?$allocator@_W@2@@std@@@2@@std@@IEAAX_K@Z
pdata	ENDS
;	COMDAT pdata
pdata	SEGMENT
$pdata$?_Tidy@?$vector@V?$basic_string@_WU?$char_traits@_W@std@@V?$allocator@_W@2@@std@@V?$allocator@V?$basic_string@_WU?$char_traits@_W@std@@V?$allocator@_W@2@@std@@@2@@std@@IEAAXXZ DD imagerel $LN73
	DD	imagerel $LN73+76
	DD	imagerel $unwind$?_Tidy@?$vector@V?$basic_string@_WU?$char_traits@_W@std@@V?$allocator@_W@2@@std@@V?$allocator@V?$basic_string@_WU?$char_traits@_W@std@@V?$allocator@_W@2@@std@@@2@@std@@IEAAXXZ
pdata	ENDS
;	COMDAT pdata
pdata	SEGMENT
$pdata$?_Xlen@?$vector@V?$basic_string@_WU?$char_traits@_W@std@@V?$allocator@_W@2@@std@@V?$allocator@V?$basic_string@_WU?$char_traits@_W@std@@V?$allocator@_W@2@@std@@@2@@std@@IEBAXXZ DD imagerel $LN4
	DD	imagerel $LN4+18
	DD	imagerel $unwind$?_Xlen@?$vector@V?$basic_string@_WU?$char_traits@_W@std@@V?$allocator@_W@2@@std@@V?$allocator@V?$basic_string@_WU?$char_traits@_W@std@@V?$allocator@_W@2@@std@@@2@@std@@IEBAXXZ
pdata	ENDS
;	COMDAT pdata
pdata	SEGMENT
$pdata$?parsePattern@@YAHV?$basic_string@_WU?$char_traits@_W@std@@V?$allocator@_W@2@@std@@PEAVTilePattern@@@Z DD imagerel ?parsePattern@@YAHV?$basic_string@_WU?$char_traits@_W@std@@V?$allocator@_W@2@@std@@PEAVTilePattern@@@Z
	DD	imagerel ?parsePattern@@YAHV?$basic_string@_WU?$char_traits@_W@std@@V?$allocator@_W@2@@std@@PEAVTilePattern@@@Z+3677
	DD	imagerel $unwind$?parsePattern@@YAHV?$basic_string@_WU?$char_traits@_W@std@@V?$allocator@_W@2@@std@@PEAVTilePattern@@@Z
pdata	ENDS
;	COMDAT pdata
pdata	SEGMENT
$pdata$?dtor$9@?0??parsePattern@@YAHV?$basic_string@_WU?$char_traits@_W@std@@V?$allocator@_W@2@@std@@PEAVTilePattern@@@Z@4HA DD imagerel ?dtor$9@?0??parsePattern@@YAHV?$basic_string@_WU?$char_traits@_W@std@@V?$allocator@_W@2@@std@@PEAVTilePattern@@@Z@4HA
	DD	imagerel ?dtor$9@?0??parsePattern@@YAHV?$basic_string@_WU?$char_traits@_W@std@@V?$allocator@_W@2@@std@@PEAVTilePattern@@@Z@4HA+49
	DD	imagerel $unwind$?dtor$9@?0??parsePattern@@YAHV?$basic_string@_WU?$char_traits@_W@std@@V?$allocator@_W@2@@std@@PEAVTilePattern@@@Z@4HA
pdata	ENDS
;	COMDAT pdata
pdata	SEGMENT
$pdata$?dtor$13@?0??parsePattern@@YAHV?$basic_string@_WU?$char_traits@_W@std@@V?$allocator@_W@2@@std@@PEAVTilePattern@@@Z@4HA DD imagerel ?dtor$13@?0??parsePattern@@YAHV?$basic_string@_WU?$char_traits@_W@std@@V?$allocator@_W@2@@std@@PEAVTilePattern@@@Z@4HA
	DD	imagerel ?dtor$13@?0??parsePattern@@YAHV?$basic_string@_WU?$char_traits@_W@std@@V?$allocator@_W@2@@std@@PEAVTilePattern@@@Z@4HA+49
	DD	imagerel $unwind$?dtor$13@?0??parsePattern@@YAHV?$basic_string@_WU?$char_traits@_W@std@@V?$allocator@_W@2@@std@@PEAVTilePattern@@@Z@4HA
pdata	ENDS
;	COMDAT pdata
pdata	SEGMENT
$pdata$?dtor$18@?0??parsePattern@@YAHV?$basic_string@_WU?$char_traits@_W@std@@V?$allocator@_W@2@@std@@PEAVTilePattern@@@Z@4HA DD imagerel ?dtor$18@?0??parsePattern@@YAHV?$basic_string@_WU?$char_traits@_W@std@@V?$allocator@_W@2@@std@@PEAVTilePattern@@@Z@4HA
	DD	imagerel ?dtor$18@?0??parsePattern@@YAHV?$basic_string@_WU?$char_traits@_W@std@@V?$allocator@_W@2@@std@@PEAVTilePattern@@@Z@4HA+49
	DD	imagerel $unwind$?dtor$18@?0??parsePattern@@YAHV?$basic_string@_WU?$char_traits@_W@std@@V?$allocator@_W@2@@std@@PEAVTilePattern@@@Z@4HA
pdata	ENDS
;	COMDAT pdata
pdata	SEGMENT
$pdata$?dtor$26@?0??parsePattern@@YAHV?$basic_string@_WU?$char_traits@_W@std@@V?$allocator@_W@2@@std@@PEAVTilePattern@@@Z@4HA DD imagerel ?dtor$26@?0??parsePattern@@YAHV?$basic_string@_WU?$char_traits@_W@std@@V?$allocator@_W@2@@std@@PEAVTilePattern@@@Z@4HA
	DD	imagerel ?dtor$26@?0??parsePattern@@YAHV?$basic_string@_WU?$char_traits@_W@std@@V?$allocator@_W@2@@std@@PEAVTilePattern@@@Z@4HA+34
	DD	imagerel $unwind$?dtor$26@?0??parsePattern@@YAHV?$basic_string@_WU?$char_traits@_W@std@@V?$allocator@_W@2@@std@@PEAVTilePattern@@@Z@4HA
pdata	ENDS
;	COMDAT pdata
pdata	SEGMENT
$pdata$?dtor$28@?0??parsePattern@@YAHV?$basic_string@_WU?$char_traits@_W@std@@V?$allocator@_W@2@@std@@PEAVTilePattern@@@Z@4HA DD imagerel ?dtor$28@?0??parsePattern@@YAHV?$basic_string@_WU?$char_traits@_W@std@@V?$allocator@_W@2@@std@@PEAVTilePattern@@@Z@4HA
	DD	imagerel ?dtor$28@?0??parsePattern@@YAHV?$basic_string@_WU?$char_traits@_W@std@@V?$allocator@_W@2@@std@@PEAVTilePattern@@@Z@4HA+34
	DD	imagerel $unwind$?dtor$28@?0??parsePattern@@YAHV?$basic_string@_WU?$char_traits@_W@std@@V?$allocator@_W@2@@std@@PEAVTilePattern@@@Z@4HA
pdata	ENDS
;	COMDAT pdata
pdata	SEGMENT
$pdata$??0?$basic_stringstream@_WU?$char_traits@_W@std@@V?$allocator@_W@2@@std@@QEAA@AEBV?$basic_string@_WU?$char_traits@_W@std@@V?$allocator@_W@2@@1@H@Z DD imagerel $LN13
	DD	imagerel $LN13+208
	DD	imagerel $unwind$??0?$basic_stringstream@_WU?$char_traits@_W@std@@V?$allocator@_W@2@@std@@QEAA@AEBV?$basic_string@_WU?$char_traits@_W@std@@V?$allocator@_W@2@@1@H@Z
pdata	ENDS
;	COMDAT pdata
pdata	SEGMENT
$pdata$?dtor$0@?0???0?$basic_stringstream@_WU?$char_traits@_W@std@@V?$allocator@_W@2@@std@@QEAA@AEBV?$basic_string@_WU?$char_traits@_W@std@@V?$allocator@_W@2@@1@H@Z@4HA DD imagerel ?dtor$0@?0???0?$basic_stringstream@_WU?$char_traits@_W@std@@V?$allocator@_W@2@@std@@QEAA@AEBV?$basic_string@_WU?$char_traits@_W@std@@V?$allocator@_W@2@@1@H@Z@4HA
	DD	imagerel ?dtor$0@?0???0?$basic_stringstream@_WU?$char_traits@_W@std@@V?$allocator@_W@2@@std@@QEAA@AEBV?$basic_string@_WU?$char_traits@_W@std@@V?$allocator@_W@2@@1@H@Z@4HA+46
	DD	imagerel $unwind$?dtor$0@?0???0?$basic_stringstream@_WU?$char_traits@_W@std@@V?$allocator@_W@2@@std@@QEAA@AEBV?$basic_string@_WU?$char_traits@_W@std@@V?$allocator@_W@2@@1@H@Z@4HA
pdata	ENDS
;	COMDAT pdata
pdata	SEGMENT
$pdata$??1?$basic_stringstream@_WU?$char_traits@_W@std@@V?$allocator@_W@2@@std@@UEAA@XZ DD imagerel $LN16
	DD	imagerel $LN16+138
	DD	imagerel $unwind$??1?$basic_stringstream@_WU?$char_traits@_W@std@@V?$allocator@_W@2@@std@@UEAA@XZ
pdata	ENDS
;	COMDAT pdata
pdata	SEGMENT
$pdata$??0?$basic_stringbuf@_WU?$char_traits@_W@std@@V?$allocator@_W@2@@std@@QEAA@AEBV?$basic_string@_WU?$char_traits@_W@std@@V?$allocator@_W@2@@1@H@Z DD imagerel $LN34
	DD	imagerel $LN34+155
	DD	imagerel $unwind$??0?$basic_stringbuf@_WU?$char_traits@_W@std@@V?$allocator@_W@2@@std@@QEAA@AEBV?$basic_string@_WU?$char_traits@_W@std@@V?$allocator@_W@2@@1@H@Z
pdata	ENDS
;	COMDAT pdata
pdata	SEGMENT
$pdata$??1?$basic_stringbuf@_WU?$char_traits@_W@std@@V?$allocator@_W@2@@std@@UEAA@XZ DD imagerel $LN4
	DD	imagerel $LN4+53
	DD	imagerel $unwind$??1?$basic_stringbuf@_WU?$char_traits@_W@std@@V?$allocator@_W@2@@std@@UEAA@XZ
pdata	ENDS
;	COMDAT pdata
pdata	SEGMENT
$pdata$?overflow@?$basic_stringbuf@_WU?$char_traits@_W@std@@V?$allocator@_W@2@@std@@MEAAGG@Z DD imagerel $LN116
	DD	imagerel $LN116+41
	DD	imagerel $unwind$?overflow@?$basic_stringbuf@_WU?$char_traits@_W@std@@V?$allocator@_W@2@@std@@MEAAGG@Z
pdata	ENDS
;	COMDAT pdata
pdata	SEGMENT
$pdata$0$?overflow@?$basic_stringbuf@_WU?$char_traits@_W@std@@V?$allocator@_W@2@@std@@MEAAGG@Z DD imagerel $LN116+41
	DD	imagerel $LN116+70
	DD	imagerel $chain$0$?overflow@?$basic_stringbuf@_WU?$char_traits@_W@std@@V?$allocator@_W@2@@std@@MEAAGG@Z
pdata	ENDS
;	COMDAT pdata
pdata	SEGMENT
$pdata$2$?overflow@?$basic_stringbuf@_WU?$char_traits@_W@std@@V?$allocator@_W@2@@std@@MEAAGG@Z DD imagerel $LN116+70
	DD	imagerel $LN116+179
	DD	imagerel $chain$2$?overflow@?$basic_stringbuf@_WU?$char_traits@_W@std@@V?$allocator@_W@2@@std@@MEAAGG@Z
pdata	ENDS
;	COMDAT pdata
pdata	SEGMENT
$pdata$5$?overflow@?$basic_stringbuf@_WU?$char_traits@_W@std@@V?$allocator@_W@2@@std@@MEAAGG@Z DD imagerel $LN116+179
	DD	imagerel $LN116+287
	DD	imagerel $chain$5$?overflow@?$basic_stringbuf@_WU?$char_traits@_W@std@@V?$allocator@_W@2@@std@@MEAAGG@Z
pdata	ENDS
;	COMDAT pdata
pdata	SEGMENT
$pdata$11$?overflow@?$basic_stringbuf@_WU?$char_traits@_W@std@@V?$allocator@_W@2@@std@@MEAAGG@Z DD imagerel $LN116+287
	DD	imagerel $LN116+618
	DD	imagerel $chain$11$?overflow@?$basic_stringbuf@_WU?$char_traits@_W@std@@V?$allocator@_W@2@@std@@MEAAGG@Z
pdata	ENDS
;	COMDAT pdata
pdata	SEGMENT
$pdata$12$?overflow@?$basic_stringbuf@_WU?$char_traits@_W@std@@V?$allocator@_W@2@@std@@MEAAGG@Z DD imagerel $LN116+618
	DD	imagerel $LN116+682
	DD	imagerel $chain$12$?overflow@?$basic_stringbuf@_WU?$char_traits@_W@std@@V?$allocator@_W@2@@std@@MEAAGG@Z
pdata	ENDS
;	COMDAT pdata
pdata	SEGMENT
$pdata$?seekoff@?$basic_stringbuf@_WU?$char_traits@_W@std@@V?$allocator@_W@2@@std@@MEAA?AV?$fpos@U_Mbstatet@@@2@_JHH@Z DD imagerel $LN76
	DD	imagerel $LN76+453
	DD	imagerel $unwind$?seekoff@?$basic_stringbuf@_WU?$char_traits@_W@std@@V?$allocator@_W@2@@std@@MEAA?AV?$fpos@U_Mbstatet@@@2@_JHH@Z
pdata	ENDS
;	COMDAT pdata
pdata	SEGMENT
$pdata$?seekpos@?$basic_stringbuf@_WU?$char_traits@_W@std@@V?$allocator@_W@2@@std@@MEAA?AV?$fpos@U_Mbstatet@@@2@V32@H@Z DD imagerel $LN57
	DD	imagerel $LN57+297
	DD	imagerel $unwind$?seekpos@?$basic_stringbuf@_WU?$char_traits@_W@std@@V?$allocator@_W@2@@std@@MEAA?AV?$fpos@U_Mbstatet@@@2@V32@H@Z
pdata	ENDS
;	COMDAT pdata
pdata	SEGMENT
$pdata$?_Init@?$basic_stringbuf@_WU?$char_traits@_W@std@@V?$allocator@_W@2@@std@@IEAAXPEB_W_KH@Z DD imagerel $LN24
	DD	imagerel $LN24+60
	DD	imagerel $unwind$?_Init@?$basic_stringbuf@_WU?$char_traits@_W@std@@V?$allocator@_W@2@@std@@IEAAXPEB_W_KH@Z
pdata	ENDS
;	COMDAT pdata
pdata	SEGMENT
$pdata$1$?_Init@?$basic_stringbuf@_WU?$char_traits@_W@std@@V?$allocator@_W@2@@std@@IEAAXPEB_W_KH@Z DD imagerel $LN24+60
	DD	imagerel $LN24+236
	DD	imagerel $chain$1$?_Init@?$basic_stringbuf@_WU?$char_traits@_W@std@@V?$allocator@_W@2@@std@@IEAAXPEB_W_KH@Z
pdata	ENDS
;	COMDAT pdata
pdata	SEGMENT
$pdata$2$?_Init@?$basic_stringbuf@_WU?$char_traits@_W@std@@V?$allocator@_W@2@@std@@IEAAXPEB_W_KH@Z DD imagerel $LN24+236
	DD	imagerel $LN24+253
	DD	imagerel $chain$2$?_Init@?$basic_stringbuf@_WU?$char_traits@_W@std@@V?$allocator@_W@2@@std@@IEAAXPEB_W_KH@Z
pdata	ENDS
;	COMDAT pdata
pdata	SEGMENT
$pdata$?_Tidy@?$basic_stringbuf@_WU?$char_traits@_W@std@@V?$allocator@_W@2@@std@@IEAAXXZ DD imagerel $LN22
	DD	imagerel $LN22+132
	DD	imagerel $unwind$?_Tidy@?$basic_stringbuf@_WU?$char_traits@_W@std@@V?$allocator@_W@2@@std@@IEAAXXZ
pdata	ENDS
;	COMDAT pdata
pdata	SEGMENT
$pdata$??_G?$basic_stringbuf@_WU?$char_traits@_W@std@@V?$allocator@_W@2@@std@@UEAAPEAXI@Z DD imagerel $LN8
	DD	imagerel $LN8+88
	DD	imagerel $unwind$??_G?$basic_stringbuf@_WU?$char_traits@_W@std@@V?$allocator@_W@2@@std@@UEAAPEAXI@Z
pdata	ENDS
;	COMDAT pdata
pdata	SEGMENT
$pdata$??_G?$basic_stringstream@_WU?$char_traits@_W@std@@V?$allocator@_W@2@@std@@UEAAPEAXI@Z DD imagerel $LN12
	DD	imagerel $LN12+107
	DD	imagerel $unwind$??_G?$basic_stringstream@_WU?$char_traits@_W@std@@V?$allocator@_W@2@@std@@UEAAPEAXI@Z
pdata	ENDS
;	COMDAT pdata
pdata	SEGMENT
$pdata$??_D?$basic_stringstream@_WU?$char_traits@_W@std@@V?$allocator@_W@2@@std@@QEAAXXZ DD imagerel $LN8
	DD	imagerel $LN8+72
	DD	imagerel $unwind$??_D?$basic_stringstream@_WU?$char_traits@_W@std@@V?$allocator@_W@2@@std@@QEAAXXZ
pdata	ENDS
;	COMDAT pdata
pdata	SEGMENT
$pdata$??$construct@VTileRow@@AEAV1@@?$_Wrap_alloc@V?$allocator@VTileRow@@@std@@@std@@QEAAXPEAVTileRow@@AEAV2@@Z DD imagerel $LN23
	DD	imagerel $LN23+62
	DD	imagerel $unwind$??$construct@VTileRow@@AEAV1@@?$_Wrap_alloc@V?$allocator@VTileRow@@@std@@@std@@QEAAXPEAVTileRow@@AEAV2@@Z
pdata	ENDS
;	COMDAT pdata
pdata	SEGMENT
$pdata$?dtor$0@?0???$construct@VTileRow@@AEAV1@@?$_Wrap_alloc@V?$allocator@VTileRow@@@std@@@std@@QEAAXPEAVTileRow@@AEAV2@@Z@4HA DD imagerel ?dtor$0@?0???$construct@VTileRow@@AEAV1@@?$_Wrap_alloc@V?$allocator@VTileRow@@@std@@@std@@QEAAXPEAVTileRow@@AEAV2@@Z@4HA
	DD	imagerel ?dtor$0@?0???$construct@VTileRow@@AEAV1@@?$_Wrap_alloc@V?$allocator@VTileRow@@@std@@@std@@QEAAXPEAVTileRow@@AEAV2@@Z@4HA+28
	DD	imagerel $unwind$?dtor$0@?0???$construct@VTileRow@@AEAV1@@?$_Wrap_alloc@V?$allocator@VTileRow@@@std@@@std@@QEAAXPEAVTileRow@@AEAV2@@Z@4HA
pdata	ENDS
;	COMDAT pdata
pdata	SEGMENT
$pdata$??$construct@VTileRow@@AEBV1@@?$_Wrap_alloc@V?$allocator@VTileRow@@@std@@@std@@QEAAXPEAVTileRow@@AEBV2@@Z DD imagerel $LN23
	DD	imagerel $LN23+62
	DD	imagerel $unwind$??$construct@VTileRow@@AEBV1@@?$_Wrap_alloc@V?$allocator@VTileRow@@@std@@@std@@QEAAXPEAVTileRow@@AEBV2@@Z
pdata	ENDS
;	COMDAT pdata
pdata	SEGMENT
$pdata$?dtor$0@?0???$construct@VTileRow@@AEBV1@@?$_Wrap_alloc@V?$allocator@VTileRow@@@std@@@std@@QEAAXPEAVTileRow@@AEBV2@@Z@4HA DD imagerel ?dtor$0@?0???$construct@VTileRow@@AEBV1@@?$_Wrap_alloc@V?$allocator@VTileRow@@@std@@@std@@QEAAXPEAVTileRow@@AEBV2@@Z@4HA
	DD	imagerel ?dtor$0@?0???$construct@VTileRow@@AEBV1@@?$_Wrap_alloc@V?$allocator@VTileRow@@@std@@@std@@QEAAXPEAVTileRow@@AEBV2@@Z@4HA+28
	DD	imagerel $unwind$?dtor$0@?0???$construct@VTileRow@@AEBV1@@?$_Wrap_alloc@V?$allocator@VTileRow@@@std@@@std@@QEAAXPEAVTileRow@@AEBV2@@Z@4HA
pdata	ENDS
;	COMDAT pdata
pdata	SEGMENT
$pdata$??$_Umove@PEAV?$basic_string@_WU?$char_traits@_W@std@@V?$allocator@_W@2@@std@@@?$vector@V?$basic_string@_WU?$char_traits@_W@std@@V?$allocator@_W@2@@std@@V?$allocator@V?$basic_string@_WU?$char_traits@_W@std@@V?$allocator@_W@2@@std@@@2@@std@@IEAAPEAV?$basic_string@_WU?$char_traits@_W@std@@V?$allocator@_W@2@@1@PEAV21@00@Z DD imagerel $LN24
	DD	imagerel $LN24+53
	DD	imagerel $unwind$??$_Umove@PEAV?$basic_string@_WU?$char_traits@_W@std@@V?$allocator@_W@2@@std@@@?$vector@V?$basic_string@_WU?$char_traits@_W@std@@V?$allocator@_W@2@@std@@V?$allocator@V?$basic_string@_WU?$char_traits@_W@std@@V?$allocator@_W@2@@std@@@2@@std@@IEAAPEAV?$basic_string@_WU?$char_traits@_W@std@@V?$allocator@_W@2@@1@PEAV21@00@Z
pdata	ENDS
;	COMDAT pdata
pdata	SEGMENT
$pdata$??$_Umove@PEAVTileRow@@@?$vector@VTileRow@@V?$allocator@VTileRow@@@std@@@std@@IEAAPEAVTileRow@@PEAV2@00@Z DD imagerel $LN24
	DD	imagerel $LN24+53
	DD	imagerel $unwind$??$_Umove@PEAVTileRow@@@?$vector@VTileRow@@V?$allocator@VTileRow@@@std@@@std@@IEAAPEAVTileRow@@PEAV2@00@Z
pdata	ENDS
;	COMDAT pdata
pdata	SEGMENT
$pdata$??$_Umove@PEAM@?$vector@MV?$allocator@M@std@@@std@@IEAAPEAMPEAM00@Z DD imagerel $LN26
	DD	imagerel $LN26+46
	DD	imagerel $unwind$??$_Umove@PEAM@?$vector@MV?$allocator@M@std@@@std@@IEAAPEAMPEAM00@Z
pdata	ENDS
;	COMDAT pdata
pdata	SEGMENT
$pdata$??$construct@VTileRow@@AEAV1@@?$allocator_traits@V?$allocator@VTileRow@@@std@@@std@@SAXAEAV?$allocator@VTileRow@@@1@PEAVTileRow@@AEAV3@@Z DD imagerel $LN19
	DD	imagerel $LN19+62
	DD	imagerel $unwind$??$construct@VTileRow@@AEAV1@@?$allocator_traits@V?$allocator@VTileRow@@@std@@@std@@SAXAEAV?$allocator@VTileRow@@@1@PEAVTileRow@@AEAV3@@Z
pdata	ENDS
;	COMDAT pdata
pdata	SEGMENT
$pdata$?dtor$0@?0???$construct@VTileRow@@AEAV1@@?$allocator_traits@V?$allocator@VTileRow@@@std@@@std@@SAXAEAV?$allocator@VTileRow@@@1@PEAVTileRow@@AEAV3@@Z@4HA DD imagerel ?dtor$0@?0???$construct@VTileRow@@AEAV1@@?$allocator_traits@V?$allocator@VTileRow@@@std@@@std@@SAXAEAV?$allocator@VTileRow@@@1@PEAVTileRow@@AEAV3@@Z@4HA
	DD	imagerel ?dtor$0@?0???$construct@VTileRow@@AEAV1@@?$allocator_traits@V?$allocator@VTileRow@@@std@@@std@@SAXAEAV?$allocator@VTileRow@@@1@PEAVTileRow@@AEAV3@@Z@4HA+28
	DD	imagerel $unwind$?dtor$0@?0???$construct@VTileRow@@AEAV1@@?$allocator_traits@V?$allocator@VTileRow@@@std@@@std@@SAXAEAV?$allocator@VTileRow@@@1@PEAVTileRow@@AEAV3@@Z@4HA
pdata	ENDS
;	COMDAT pdata
pdata	SEGMENT
$pdata$??$construct@VTileRow@@AEBV1@@?$allocator_traits@V?$allocator@VTileRow@@@std@@@std@@SAXAEAV?$allocator@VTileRow@@@1@PEAVTileRow@@AEBV3@@Z DD imagerel $LN19
	DD	imagerel $LN19+62
	DD	imagerel $unwind$??$construct@VTileRow@@AEBV1@@?$allocator_traits@V?$allocator@VTileRow@@@std@@@std@@SAXAEAV?$allocator@VTileRow@@@1@PEAVTileRow@@AEBV3@@Z
pdata	ENDS
;	COMDAT pdata
pdata	SEGMENT
$pdata$?dtor$0@?0???$construct@VTileRow@@AEBV1@@?$allocator_traits@V?$allocator@VTileRow@@@std@@@std@@SAXAEAV?$allocator@VTileRow@@@1@PEAVTileRow@@AEBV3@@Z@4HA DD imagerel ?dtor$0@?0???$construct@VTileRow@@AEBV1@@?$allocator_traits@V?$allocator@VTileRow@@@std@@@std@@SAXAEAV?$allocator@VTileRow@@@1@PEAVTileRow@@AEBV3@@Z@4HA
	DD	imagerel ?dtor$0@?0???$construct@VTileRow@@AEBV1@@?$allocator_traits@V?$allocator@VTileRow@@@std@@@std@@SAXAEAV?$allocator@VTileRow@@@1@PEAVTileRow@@AEBV3@@Z@4HA+28
	DD	imagerel $unwind$?dtor$0@?0???$construct@VTileRow@@AEBV1@@?$allocator_traits@V?$allocator@VTileRow@@@std@@@std@@SAXAEAV?$allocator@VTileRow@@@1@PEAVTileRow@@AEBV3@@Z@4HA
pdata	ENDS
;	COMDAT pdata
pdata	SEGMENT
$pdata$??$_Destroy_range1@V?$allocator@VTileRow@@@std@@PEAVTileRow@@@std@@YAXPEAVTileRow@@0AEAU?$_Wrap_alloc@V?$allocator@VTileRow@@@std@@@0@U?$integral_constant@_N$0A@@0@@Z DD imagerel $LN117
	DD	imagerel $LN117+226
	DD	imagerel $unwind$??$_Destroy_range1@V?$allocator@VTileRow@@@std@@PEAVTileRow@@@std@@YAXPEAVTileRow@@0AEAU?$_Wrap_alloc@V?$allocator@VTileRow@@@std@@@0@U?$integral_constant@_N$0A@@0@@Z
pdata	ENDS
;	COMDAT pdata
pdata	SEGMENT
$pdata$??$_Uninitialized_move@PEAV?$basic_string@_WU?$char_traits@_W@std@@V?$allocator@_W@2@@std@@PEAV12@V?$allocator@V?$basic_string@_WU?$char_traits@_W@std@@V?$allocator@_W@2@@std@@@2@@std@@YAPEAV?$basic_string@_WU?$char_traits@_W@std@@V?$allocator@_W@2@@0@PEAV10@00AEAU?$_Wrap_alloc@V?$allocator@V?$basic_string@_WU?$char_traits@_W@std@@V?$allocator@_W@2@@std@@@std@@@0@@Z DD imagerel $LN18
	DD	imagerel $LN18+31
	DD	imagerel $unwind$??$_Uninitialized_move@PEAV?$basic_string@_WU?$char_traits@_W@std@@V?$allocator@_W@2@@std@@PEAV12@V?$allocator@V?$basic_string@_WU?$char_traits@_W@std@@V?$allocator@_W@2@@std@@@2@@std@@YAPEAV?$basic_string@_WU?$char_traits@_W@std@@V?$allocator@_W@2@@0@PEAV10@00AEAU?$_Wrap_alloc@V?$allocator@V?$basic_string@_WU?$char_traits@_W@std@@V?$allocator@_W@2@@std@@@std@@@0@@Z
pdata	ENDS
;	COMDAT pdata
pdata	SEGMENT
$pdata$??$_Destroy_range1@V?$allocator@V?$basic_string@_WU?$char_traits@_W@std@@V?$allocator@_W@2@@std@@@std@@PEAV?$basic_string@_WU?$char_traits@_W@std@@V?$allocator@_W@2@@2@@std@@YAXPEAV?$basic_string@_WU?$char_traits@_W@std@@V?$allocator@_W@2@@0@0AEAU?$_Wrap_alloc@V?$allocator@V?$basic_string@_WU?$char_traits@_W@std@@V?$allocator@_W@2@@std@@@std@@@0@U?$integral_constant@_N$0A@@0@@Z DD imagerel $LN130
	DD	imagerel $LN130+14
	DD	imagerel $unwind$??$_Destroy_range1@V?$allocator@V?$basic_string@_WU?$char_traits@_W@std@@V?$allocator@_W@2@@std@@@std@@PEAV?$basic_string@_WU?$char_traits@_W@std@@V?$allocator@_W@2@@2@@std@@YAXPEAV?$basic_string@_WU?$char_traits@_W@std@@V?$allocator@_W@2@@0@0AEAU?$_Wrap_alloc@V?$allocator@V?$basic_string@_WU?$char_traits@_W@std@@V?$allocator@_W@2@@std@@@std@@@0@U?$integral_constant@_N$0A@@0@@Z
pdata	ENDS
;	COMDAT pdata
pdata	SEGMENT
$pdata$2$??$_Destroy_range1@V?$allocator@V?$basic_string@_WU?$char_traits@_W@std@@V?$allocator@_W@2@@std@@@std@@PEAV?$basic_string@_WU?$char_traits@_W@std@@V?$allocator@_W@2@@2@@std@@YAXPEAV?$basic_string@_WU?$char_traits@_W@std@@V?$allocator@_W@2@@0@0AEAU?$_Wrap_alloc@V?$allocator@V?$basic_string@_WU?$char_traits@_W@std@@V?$allocator@_W@2@@std@@@std@@@0@U?$integral_constant@_N$0A@@0@@Z DD imagerel $LN130+14
	DD	imagerel $LN130+184
	DD	imagerel $chain$2$??$_Destroy_range1@V?$allocator@V?$basic_string@_WU?$char_traits@_W@std@@V?$allocator@_W@2@@std@@@std@@PEAV?$basic_string@_WU?$char_traits@_W@std@@V?$allocator@_W@2@@2@@std@@YAXPEAV?$basic_string@_WU?$char_traits@_W@std@@V?$allocator@_W@2@@0@0AEAU?$_Wrap_alloc@V?$allocator@V?$basic_string@_WU?$char_traits@_W@std@@V?$allocator@_W@2@@std@@@std@@@0@U?$integral_constant@_N$0A@@0@@Z
pdata	ENDS
;	COMDAT pdata
pdata	SEGMENT
$pdata$3$??$_Destroy_range1@V?$allocator@V?$basic_string@_WU?$char_traits@_W@std@@V?$allocator@_W@2@@std@@@std@@PEAV?$basic_string@_WU?$char_traits@_W@std@@V?$allocator@_W@2@@2@@std@@YAXPEAV?$basic_string@_WU?$char_traits@_W@std@@V?$allocator@_W@2@@0@0AEAU?$_Wrap_alloc@V?$allocator@V?$basic_string@_WU?$char_traits@_W@std@@V?$allocator@_W@2@@std@@@std@@@0@U?$integral_constant@_N$0A@@0@@Z DD imagerel $LN130+184
	DD	imagerel $LN130+185
	DD	imagerel $chain$3$??$_Destroy_range1@V?$allocator@V?$basic_string@_WU?$char_traits@_W@std@@V?$allocator@_W@2@@std@@@std@@PEAV?$basic_string@_WU?$char_traits@_W@std@@V?$allocator@_W@2@@2@@std@@YAXPEAV?$basic_string@_WU?$char_traits@_W@std@@V?$allocator@_W@2@@0@0AEAU?$_Wrap_alloc@V?$allocator@V?$basic_string@_WU?$char_traits@_W@std@@V?$allocator@_W@2@@std@@@std@@@0@U?$integral_constant@_N$0A@@0@@Z
pdata	ENDS
;	COMDAT pdata
pdata	SEGMENT
$pdata$4$??$_Destroy_range1@V?$allocator@V?$basic_string@_WU?$char_traits@_W@std@@V?$allocator@_W@2@@std@@@std@@PEAV?$basic_string@_WU?$char_traits@_W@std@@V?$allocator@_W@2@@2@@std@@YAXPEAV?$basic_string@_WU?$char_traits@_W@std@@V?$allocator@_W@2@@0@0AEAU?$_Wrap_alloc@V?$allocator@V?$basic_string@_WU?$char_traits@_W@std@@V?$allocator@_W@2@@std@@@std@@@0@U?$integral_constant@_N$0A@@0@@Z DD imagerel $LN130+185
	DD	imagerel $LN130+220
	DD	imagerel $chain$4$??$_Destroy_range1@V?$allocator@V?$basic_string@_WU?$char_traits@_W@std@@V?$allocator@_W@2@@std@@@std@@PEAV?$basic_string@_WU?$char_traits@_W@std@@V?$allocator@_W@2@@2@@std@@YAXPEAV?$basic_string@_WU?$char_traits@_W@std@@V?$allocator@_W@2@@0@0AEAU?$_Wrap_alloc@V?$allocator@V?$basic_string@_WU?$char_traits@_W@std@@V?$allocator@_W@2@@std@@@std@@@0@U?$integral_constant@_N$0A@@0@@Z
pdata	ENDS
;	COMDAT pdata
pdata	SEGMENT
$pdata$??$_Uninitialized_move@PEAVTileRow@@PEAV1@V?$allocator@VTileRow@@@std@@@std@@YAPEAVTileRow@@PEAV1@00AEAU?$_Wrap_alloc@V?$allocator@VTileRow@@@std@@@0@@Z DD imagerel $LN18
	DD	imagerel $LN18+31
	DD	imagerel $unwind$??$_Uninitialized_move@PEAVTileRow@@PEAV1@V?$allocator@VTileRow@@@std@@@std@@YAPEAVTileRow@@PEAV1@00AEAU?$_Wrap_alloc@V?$allocator@VTileRow@@@std@@@0@@Z
pdata	ENDS
;	COMDAT pdata
pdata	SEGMENT
$pdata$??$_Uninitialized_move@PEAMPEAMV?$allocator@M@std@@@std@@YAPEAMPEAM00AEAU?$_Wrap_alloc@V?$allocator@M@std@@@0@@Z DD imagerel $LN20
	DD	imagerel $LN20+49
	DD	imagerel $unwind$??$_Uninitialized_move@PEAMPEAMV?$allocator@M@std@@@std@@YAPEAMPEAM00AEAU?$_Wrap_alloc@V?$allocator@M@std@@@0@@Z
pdata	ENDS
;	COMDAT pdata
pdata	SEGMENT
$pdata$??$construct@VTileRow@@AEAV1@@?$allocator@VTileRow@@@std@@QEAAXPEAVTileRow@@AEAV2@@Z DD imagerel $LN15
	DD	imagerel $LN15+62
	DD	imagerel $unwind$??$construct@VTileRow@@AEAV1@@?$allocator@VTileRow@@@std@@QEAAXPEAVTileRow@@AEAV2@@Z
pdata	ENDS
;	COMDAT pdata
pdata	SEGMENT
$pdata$?dtor$0@?0???$construct@VTileRow@@AEAV1@@?$allocator@VTileRow@@@std@@QEAAXPEAVTileRow@@AEAV2@@Z@4HA DD imagerel ?dtor$0@?0???$construct@VTileRow@@AEAV1@@?$allocator@VTileRow@@@std@@QEAAXPEAVTileRow@@AEAV2@@Z@4HA
	DD	imagerel ?dtor$0@?0???$construct@VTileRow@@AEAV1@@?$allocator@VTileRow@@@std@@QEAAXPEAVTileRow@@AEAV2@@Z@4HA+28
	DD	imagerel $unwind$?dtor$0@?0???$construct@VTileRow@@AEAV1@@?$allocator@VTileRow@@@std@@QEAAXPEAVTileRow@@AEAV2@@Z@4HA
pdata	ENDS
;	COMDAT pdata
pdata	SEGMENT
$pdata$??$construct@VTileRow@@AEBV1@@?$allocator@VTileRow@@@std@@QEAAXPEAVTileRow@@AEBV2@@Z DD imagerel $LN15
	DD	imagerel $LN15+62
	DD	imagerel $unwind$??$construct@VTileRow@@AEBV1@@?$allocator@VTileRow@@@std@@QEAAXPEAVTileRow@@AEBV2@@Z
pdata	ENDS
;	COMDAT pdata
pdata	SEGMENT
$pdata$?dtor$0@?0???$construct@VTileRow@@AEBV1@@?$allocator@VTileRow@@@std@@QEAAXPEAVTileRow@@AEBV2@@Z@4HA DD imagerel ?dtor$0@?0???$construct@VTileRow@@AEBV1@@?$allocator@VTileRow@@@std@@QEAAXPEAVTileRow@@AEBV2@@Z@4HA
	DD	imagerel ?dtor$0@?0???$construct@VTileRow@@AEBV1@@?$allocator@VTileRow@@@std@@QEAAXPEAVTileRow@@AEBV2@@Z@4HA+28
	DD	imagerel $unwind$?dtor$0@?0???$construct@VTileRow@@AEBV1@@?$allocator@VTileRow@@@std@@QEAAXPEAVTileRow@@AEBV2@@Z@4HA
pdata	ENDS
;	COMDAT pdata
pdata	SEGMENT
$pdata$??$destroy@VTileRow@@@?$_Wrap_alloc@V?$allocator@VTileRow@@@std@@@std@@QEAAXPEAVTileRow@@@Z DD imagerel $LN78
	DD	imagerel $LN78+69
	DD	imagerel $unwind$??$destroy@VTileRow@@@?$_Wrap_alloc@V?$allocator@VTileRow@@@std@@@std@@QEAAXPEAVTileRow@@@Z
pdata	ENDS
;	COMDAT pdata
pdata	SEGMENT
$pdata$??$_Uninitialized_move_al_unchecked@PEAV?$basic_string@_WU?$char_traits@_W@std@@V?$allocator@_W@2@@std@@PEAV12@V?$allocator@V?$basic_string@_WU?$char_traits@_W@std@@V?$allocator@_W@2@@std@@@2@@std@@YAPEAV?$basic_string@_WU?$char_traits@_W@std@@V?$allocator@_W@2@@0@PEAV10@00AEAU?$_Wrap_alloc@V?$allocator@V?$basic_string@_WU?$char_traits@_W@std@@V?$allocator@_W@2@@std@@@std@@@0@@Z DD imagerel $LN8
	DD	imagerel $LN8+31
	DD	imagerel $unwind$??$_Uninitialized_move_al_unchecked@PEAV?$basic_string@_WU?$char_traits@_W@std@@V?$allocator@_W@2@@std@@PEAV12@V?$allocator@V?$basic_string@_WU?$char_traits@_W@std@@V?$allocator@_W@2@@std@@@2@@std@@YAPEAV?$basic_string@_WU?$char_traits@_W@std@@V?$allocator@_W@2@@0@PEAV10@00AEAU?$_Wrap_alloc@V?$allocator@V?$basic_string@_WU?$char_traits@_W@std@@V?$allocator@_W@2@@std@@@std@@@0@@Z
pdata	ENDS
;	COMDAT pdata
pdata	SEGMENT
$pdata$??$destroy@V?$basic_string@_WU?$char_traits@_W@std@@V?$allocator@_W@2@@std@@@?$_Wrap_alloc@V?$allocator@V?$basic_string@_WU?$char_traits@_W@std@@V?$allocator@_W@2@@std@@@std@@@std@@QEAAXPEAV?$basic_string@_WU?$char_traits@_W@std@@V?$allocator@_W@2@@1@@Z DD imagerel $LN89
	DD	imagerel $LN89+75
	DD	imagerel $unwind$??$destroy@V?$basic_string@_WU?$char_traits@_W@std@@V?$allocator@_W@2@@std@@@?$_Wrap_alloc@V?$allocator@V?$basic_string@_WU?$char_traits@_W@std@@V?$allocator@_W@2@@std@@@std@@@std@@QEAAXPEAV?$basic_string@_WU?$char_traits@_W@std@@V?$allocator@_W@2@@1@@Z
pdata	ENDS
;	COMDAT pdata
pdata	SEGMENT
$pdata$??$_Uninitialized_move_al_unchecked@PEAVTileRow@@PEAV1@V?$allocator@VTileRow@@@std@@@std@@YAPEAVTileRow@@PEAV1@00AEAU?$_Wrap_alloc@V?$allocator@VTileRow@@@std@@@0@@Z DD imagerel $LN8
	DD	imagerel $LN8+31
	DD	imagerel $unwind$??$_Uninitialized_move_al_unchecked@PEAVTileRow@@PEAV1@V?$allocator@VTileRow@@@std@@@std@@YAPEAVTileRow@@PEAV1@00AEAU?$_Wrap_alloc@V?$allocator@VTileRow@@@std@@@0@@Z
pdata	ENDS
;	COMDAT pdata
pdata	SEGMENT
$pdata$??$_Uninitialized_move_al_unchecked@PEAMPEAMV?$allocator@M@std@@@std@@YAPEAMPEAM00AEAU?$_Wrap_alloc@V?$allocator@M@std@@@0@@Z DD imagerel $LN10
	DD	imagerel $LN10+49
	DD	imagerel $unwind$??$_Uninitialized_move_al_unchecked@PEAMPEAMV?$allocator@M@std@@@std@@YAPEAMPEAM00AEAU?$_Wrap_alloc@V?$allocator@M@std@@@0@@Z
pdata	ENDS
;	COMDAT pdata
pdata	SEGMENT
$pdata$??$destroy@VTileRow@@@?$allocator_traits@V?$allocator@VTileRow@@@std@@@std@@SAXAEAV?$allocator@VTileRow@@@1@PEAVTileRow@@@Z DD imagerel $LN76
	DD	imagerel $LN76+69
	DD	imagerel $unwind$??$destroy@VTileRow@@@?$allocator_traits@V?$allocator@VTileRow@@@std@@@std@@SAXAEAV?$allocator@VTileRow@@@1@PEAVTileRow@@@Z
pdata	ENDS
;	COMDAT pdata
pdata	SEGMENT
$pdata$??$_Uninitialized_move_al_unchecked1@PEAV?$basic_string@_WU?$char_traits@_W@std@@V?$allocator@_W@2@@std@@PEAV12@V?$allocator@V?$basic_string@_WU?$char_traits@_W@std@@V?$allocator@_W@2@@std@@@2@@std@@YAPEAV?$basic_string@_WU?$char_traits@_W@std@@V?$allocator@_W@2@@0@PEAV10@00AEAU?$_Wrap_alloc@V?$allocator@V?$basic_string@_WU?$char_traits@_W@std@@V?$allocator@_W@2@@std@@@std@@@0@U_General_ptr_iterator_tag@0@U_Any_tag@0@@Z DD imagerel $LN133
	DD	imagerel $LN133+146
	DD	imagerel $unwind$??$_Uninitialized_move_al_unchecked1@PEAV?$basic_string@_WU?$char_traits@_W@std@@V?$allocator@_W@2@@std@@PEAV12@V?$allocator@V?$basic_string@_WU?$char_traits@_W@std@@V?$allocator@_W@2@@std@@@2@@std@@YAPEAV?$basic_string@_WU?$char_traits@_W@std@@V?$allocator@_W@2@@0@PEAV10@00AEAU?$_Wrap_alloc@V?$allocator@V?$basic_string@_WU?$char_traits@_W@std@@V?$allocator@_W@2@@std@@@std@@@0@U_General_ptr_iterator_tag@0@U_Any_tag@0@@Z
pdata	ENDS
;	COMDAT pdata
pdata	SEGMENT
$pdata$?catch$0@?0???$_Uninitialized_move_al_unchecked1@PEAV?$basic_string@_WU?$char_traits@_W@std@@V?$allocator@_W@2@@std@@PEAV12@V?$allocator@V?$basic_string@_WU?$char_traits@_W@std@@V?$allocator@_W@2@@std@@@2@@std@@YAPEAV?$basic_string@_WU?$char_traits@_W@std@@V?$allocator@_W@2@@0@PEAV10@00AEAU?$_Wrap_alloc@V?$allocator@V?$basic_string@_WU?$char_traits@_W@std@@V?$allocator@_W@2@@std@@@std@@@0@U_General_ptr_iterator_tag@0@U_Any_tag@0@@Z@4HA DD imagerel ?catch$0@?0???$_Uninitialized_move_al_unchecked1@PEAV?$basic_string@_WU?$char_traits@_W@std@@V?$allocator@_W@2@@std@@PEAV12@V?$allocator@V?$basic_string@_WU?$char_traits@_W@std@@V?$allocator@_W@2@@std@@@2@@std@@YAPEAV?$basic_string@_WU?$char_traits@_W@std@@V?$allocator@_W@2@@0@PEAV10@00AEAU?$_Wrap_alloc@V?$allocator@V?$basic_string@_WU?$char_traits@_W@std@@V?$allocator@_W@2@@std@@@std@@@0@U_General_ptr_iterator_tag@0@U_Any_tag@0@@Z@4HA
	DD	imagerel ?catch$0@?0???$_Uninitialized_move_al_unchecked1@PEAV?$basic_string@_WU?$char_traits@_W@std@@V?$allocator@_W@2@@std@@PEAV12@V?$allocator@V?$basic_string@_WU?$char_traits@_W@std@@V?$allocator@_W@2@@std@@@2@@std@@YAPEAV?$basic_string@_WU?$char_traits@_W@std@@V?$allocator@_W@2@@0@PEAV10@00AEAU?$_Wrap_alloc@V?$allocator@V?$basic_string@_WU?$char_traits@_W@std@@V?$allocator@_W@2@@std@@@std@@@0@U_General_ptr_iterator_tag@0@U_Any_tag@0@@Z@4HA+45
	DD	imagerel $unwind$?catch$0@?0???$_Uninitialized_move_al_unchecked1@PEAV?$basic_string@_WU?$char_traits@_W@std@@V?$allocator@_W@2@@std@@PEAV12@V?$allocator@V?$basic_string@_WU?$char_traits@_W@std@@V?$allocator@_W@2@@std@@@2@@std@@YAPEAV?$basic_string@_WU?$char_traits@_W@std@@V?$allocator@_W@2@@0@PEAV10@00AEAU?$_Wrap_alloc@V?$allocator@V?$basic_string@_WU?$char_traits@_W@std@@V?$allocator@_W@2@@std@@@std@@@0@U_General_ptr_iterator_tag@0@U_Any_tag@0@@Z@4HA
pdata	ENDS
;	COMDAT pdata
pdata	SEGMENT
$pdata$??$destroy@V?$basic_string@_WU?$char_traits@_W@std@@V?$allocator@_W@2@@std@@@?$allocator_traits@V?$allocator@V?$basic_string@_WU?$char_traits@_W@std@@V?$allocator@_W@2@@std@@@std@@@std@@SAXAEAV?$allocator@V?$basic_string@_WU?$char_traits@_W@std@@V?$allocator@_W@2@@std@@@1@PEAV?$basic_string@_WU?$char_traits@_W@std@@V?$allocator@_W@2@@1@@Z DD imagerel $LN87
	DD	imagerel $LN87+75
	DD	imagerel $unwind$??$destroy@V?$basic_string@_WU?$char_traits@_W@std@@V?$allocator@_W@2@@std@@@?$allocator_traits@V?$allocator@V?$basic_string@_WU?$char_traits@_W@std@@V?$allocator@_W@2@@std@@@std@@@std@@SAXAEAV?$allocator@V?$basic_string@_WU?$char_traits@_W@std@@V?$allocator@_W@2@@std@@@1@PEAV?$basic_string@_WU?$char_traits@_W@std@@V?$allocator@_W@2@@1@@Z
pdata	ENDS
;	COMDAT pdata
pdata	SEGMENT
$pdata$??$_Uninitialized_move_al_unchecked1@PEAVTileRow@@PEAV1@V?$allocator@VTileRow@@@std@@@std@@YAPEAVTileRow@@PEAV1@00AEAU?$_Wrap_alloc@V?$allocator@VTileRow@@@std@@@0@U_General_ptr_iterator_tag@0@U_Any_tag@0@@Z DD imagerel $LN116
	DD	imagerel $LN116+135
	DD	imagerel $unwind$??$_Uninitialized_move_al_unchecked1@PEAVTileRow@@PEAV1@V?$allocator@VTileRow@@@std@@@std@@YAPEAVTileRow@@PEAV1@00AEAU?$_Wrap_alloc@V?$allocator@VTileRow@@@std@@@0@U_General_ptr_iterator_tag@0@U_Any_tag@0@@Z
pdata	ENDS
;	COMDAT pdata
pdata	SEGMENT
$pdata$?catch$1@?0???$_Uninitialized_move_al_unchecked1@PEAVTileRow@@PEAV1@V?$allocator@VTileRow@@@std@@@std@@YAPEAVTileRow@@PEAV1@00AEAU?$_Wrap_alloc@V?$allocator@VTileRow@@@std@@@0@U_General_ptr_iterator_tag@0@U_Any_tag@0@@Z@4HA DD imagerel ?catch$1@?0???$_Uninitialized_move_al_unchecked1@PEAVTileRow@@PEAV1@V?$allocator@VTileRow@@@std@@@std@@YAPEAVTileRow@@PEAV1@00AEAU?$_Wrap_alloc@V?$allocator@VTileRow@@@std@@@0@U_General_ptr_iterator_tag@0@U_Any_tag@0@@Z@4HA
	DD	imagerel ?catch$1@?0???$_Uninitialized_move_al_unchecked1@PEAVTileRow@@PEAV1@V?$allocator@VTileRow@@@std@@@std@@YAPEAVTileRow@@PEAV1@00AEAU?$_Wrap_alloc@V?$allocator@VTileRow@@@std@@@0@U_General_ptr_iterator_tag@0@U_Any_tag@0@@Z@4HA+45
	DD	imagerel $unwind$?catch$1@?0???$_Uninitialized_move_al_unchecked1@PEAVTileRow@@PEAV1@V?$allocator@VTileRow@@@std@@@std@@YAPEAVTileRow@@PEAV1@00AEAU?$_Wrap_alloc@V?$allocator@VTileRow@@@std@@@0@U_General_ptr_iterator_tag@0@U_Any_tag@0@@Z@4HA
pdata	ENDS
;	COMDAT pdata
pdata	SEGMENT
$pdata$??$_Uninitialized_move_al_unchecked1@MMV?$allocator@M@std@@@std@@YAPEAMPEAM00AEAU?$_Wrap_alloc@V?$allocator@M@std@@@0@U_Really_trivial_ptr_iterator_tag@0@U?$integral_constant@_N$00@0@@Z DD imagerel $LN6
	DD	imagerel $LN6+49
	DD	imagerel $unwind$??$_Uninitialized_move_al_unchecked1@MMV?$allocator@M@std@@@std@@YAPEAMPEAM00AEAU?$_Wrap_alloc@V?$allocator@M@std@@@0@U_Really_trivial_ptr_iterator_tag@0@U?$integral_constant@_N$00@0@@Z
pdata	ENDS
;	COMDAT pdata
pdata	SEGMENT
$pdata$??$_Ucopy@V?$_Vector_const_iterator@V?$_Vector_val@U?$_Simple_types@M@std@@@std@@@std@@@?$vector@MV?$allocator@M@std@@@std@@IEAAPEAMV?$_Vector_const_iterator@V?$_Vector_val@U?$_Simple_types@M@std@@@std@@@1@0PEAM@Z DD imagerel $LN30
	DD	imagerel $LN30+46
	DD	imagerel $unwind$??$_Ucopy@V?$_Vector_const_iterator@V?$_Vector_val@U?$_Simple_types@M@std@@@std@@@std@@@?$vector@MV?$allocator@M@std@@@std@@IEAAPEAMV?$_Vector_const_iterator@V?$_Vector_val@U?$_Simple_types@M@std@@@std@@@1@0PEAM@Z
pdata	ENDS
;	COMDAT pdata
pdata	SEGMENT
$pdata$??$destroy@VTileRow@@@?$allocator@VTileRow@@@std@@QEAAXPEAVTileRow@@@Z DD imagerel $LN74
	DD	imagerel $LN74+69
	DD	imagerel $unwind$??$destroy@VTileRow@@@?$allocator@VTileRow@@@std@@QEAAXPEAVTileRow@@@Z
pdata	ENDS
;	COMDAT pdata
pdata	SEGMENT
$pdata$??$destroy@V?$basic_string@_WU?$char_traits@_W@std@@V?$allocator@_W@2@@std@@@?$allocator@V?$basic_string@_WU?$char_traits@_W@std@@V?$allocator@_W@2@@std@@@std@@QEAAXPEAV?$basic_string@_WU?$char_traits@_W@std@@V?$allocator@_W@2@@1@@Z DD imagerel $LN85
	DD	imagerel $LN85+75
	DD	imagerel $unwind$??$destroy@V?$basic_string@_WU?$char_traits@_W@std@@V?$allocator@_W@2@@std@@@?$allocator@V?$basic_string@_WU?$char_traits@_W@std@@V?$allocator@_W@2@@std@@@std@@QEAAXPEAV?$basic_string@_WU?$char_traits@_W@std@@V?$allocator@_W@2@@1@@Z
pdata	ENDS
;	COMDAT pdata
pdata	SEGMENT
$pdata$??$construct@VTileRow@@V1@@?$_Wrap_alloc@V?$allocator@VTileRow@@@std@@@std@@QEAAXPEAVTileRow@@$$QEAV2@@Z DD imagerel $LN97
	DD	imagerel $LN97+89
	DD	imagerel $unwind$??$construct@VTileRow@@V1@@?$_Wrap_alloc@V?$allocator@VTileRow@@@std@@@std@@QEAAXPEAVTileRow@@$$QEAV2@@Z
pdata	ENDS
;	COMDAT pdata
pdata	SEGMENT
$pdata$??$_Copy_memmove@PEAMPEAM@std@@YAPEAMPEAM00@Z DD imagerel $LN4
	DD	imagerel $LN4+49
	DD	imagerel $unwind$??$_Copy_memmove@PEAMPEAM@std@@YAPEAMPEAM00@Z
pdata	ENDS
;	COMDAT pdata
pdata	SEGMENT
$pdata$??$_Uninitialized_copy@V?$_Vector_const_iterator@V?$_Vector_val@U?$_Simple_types@M@std@@@std@@@std@@PEAMV?$allocator@M@2@@std@@YAPEAMV?$_Vector_const_iterator@V?$_Vector_val@U?$_Simple_types@M@std@@@std@@@0@0PEAMAEAU?$_Wrap_alloc@V?$allocator@M@std@@@0@@Z DD imagerel $LN24
	DD	imagerel $LN24+49
	DD	imagerel $unwind$??$_Uninitialized_copy@V?$_Vector_const_iterator@V?$_Vector_val@U?$_Simple_types@M@std@@@std@@@std@@PEAMV?$allocator@M@2@@std@@YAPEAMV?$_Vector_const_iterator@V?$_Vector_val@U?$_Simple_types@M@std@@@std@@@0@0PEAMAEAU?$_Wrap_alloc@V?$allocator@M@std@@@0@@Z
pdata	ENDS
;	COMDAT pdata
pdata	SEGMENT
$pdata$??$construct@VTileRow@@V1@@?$allocator_traits@V?$allocator@VTileRow@@@std@@@std@@SAXAEAV?$allocator@VTileRow@@@1@PEAVTileRow@@$$QEAV3@@Z DD imagerel $LN93
	DD	imagerel $LN93+89
	DD	imagerel $unwind$??$construct@VTileRow@@V1@@?$allocator_traits@V?$allocator@VTileRow@@@std@@@std@@SAXAEAV?$allocator@VTileRow@@@1@PEAVTileRow@@$$QEAV3@@Z
pdata	ENDS
;	COMDAT pdata
pdata	SEGMENT
$pdata$??$_Uninitialized_copy_al_unchecked@PEBMPEAMV?$allocator@M@std@@@std@@YAPEAMPEBM0PEAMAEAU?$_Wrap_alloc@V?$allocator@M@std@@@0@@Z DD imagerel $LN10
	DD	imagerel $LN10+49
	DD	imagerel $unwind$??$_Uninitialized_copy_al_unchecked@PEBMPEAMV?$allocator@M@std@@@std@@YAPEAMPEBM0PEAMAEAU?$_Wrap_alloc@V?$allocator@M@std@@@0@@Z
pdata	ENDS
;	COMDAT pdata
pdata	SEGMENT
$pdata$??$construct@VTileRow@@V1@@?$allocator@VTileRow@@@std@@QEAAXPEAVTileRow@@$$QEAV2@@Z DD imagerel $LN89
	DD	imagerel $LN89+89
	DD	imagerel $unwind$??$construct@VTileRow@@V1@@?$allocator@VTileRow@@@std@@QEAAXPEAVTileRow@@$$QEAV2@@Z
pdata	ENDS
;	COMDAT pdata
pdata	SEGMENT
$pdata$??$_Uninitialized_copy_al_unchecked1@$$CBMMV?$allocator@M@std@@@std@@YAPEAMPEBM0PEAMAEAU?$_Wrap_alloc@V?$allocator@M@std@@@0@U_Really_trivial_ptr_iterator_tag@0@U?$integral_constant@_N$00@0@@Z DD imagerel $LN6
	DD	imagerel $LN6+49
	DD	imagerel $unwind$??$_Uninitialized_copy_al_unchecked1@$$CBMMV?$allocator@M@std@@@std@@YAPEAMPEBM0PEAMAEAU?$_Wrap_alloc@V?$allocator@M@std@@@0@U_Really_trivial_ptr_iterator_tag@0@U?$integral_constant@_N$00@0@@Z
pdata	ENDS
;	COMDAT pdata
pdata	SEGMENT
$pdata$??$_Copy_memmove@PEBMPEAM@std@@YAPEAMPEBM0PEAM@Z DD imagerel $LN4
	DD	imagerel $LN4+49
	DD	imagerel $unwind$??$_Copy_memmove@PEBMPEAM@std@@YAPEAMPEBM0PEAM@Z
pdata	ENDS
CRT$XCU	SEGMENT
?kInvalidId$initializer$@AssetManagement@MaxSDK@@3P6AXXZEA DQ FLAT:??__EkInvalidId@AssetManagement@MaxSDK@@YAXXZ ; MaxSDK::AssetManagement::kInvalidId$initializer$
CRT$XCU	ENDS
;	COMDAT __xmm@80000000800000008000000080000000
CONST	SEGMENT
__xmm@80000000800000008000000080000000 DB 00H, 00H, 00H, 080H, 00H, 00H, 00H
	DB	080H, 00H, 00H, 00H, 080H, 00H, 00H, 00H, 080H
CONST	ENDS
;	COMDAT __xmm@7fffffff7fffffff7fffffff7fffffff
CONST	SEGMENT
__xmm@7fffffff7fffffff7fffffff7fffffff DB 0ffH, 0ffH, 0ffH, 07fH, 0ffH, 0ffH
	DB	0ffH, 07fH, 0ffH, 0ffH, 0ffH, 07fH, 0ffH, 0ffH, 0ffH, 07fH
CONST	ENDS
;	COMDAT __real@41fb4c0b
CONST	SEGMENT
__real@41fb4c0b DD 041fb4c0br			; 31.4121
CONST	ENDS
;	COMDAT __real@40dfffc000000000
CONST	SEGMENT
__real@40dfffc000000000 DQ 040dfffc000000000r	; 32767
CONST	ENDS
;	COMDAT __real@4096cbe4
CONST	SEGMENT
__real@4096cbe4 DD 04096cbe4r			; 4.71239
CONST	ENDS
;	COMDAT __real@40490fdb
CONST	SEGMENT
__real@40490fdb DD 040490fdbr			; 3.14159
CONST	ENDS
;	COMDAT __real@4048f5c3
CONST	SEGMENT
__real@4048f5c3 DD 04048f5c3r			; 3.14
CONST	ENDS
;	COMDAT __real@403f666666666666
CONST	SEGMENT
__real@403f666666666666 DQ 0403f666666666666r	; 31.4
CONST	ENDS
;	COMDAT __real@3ff0000000000000
CONST	SEGMENT
__real@3ff0000000000000 DQ 03ff0000000000000r	; 1
CONST	ENDS
;	COMDAT __real@3fc90fdb
CONST	SEGMENT
__real@3fc90fdb DD 03fc90fdbr			; 1.5708
CONST	ENDS
;	COMDAT __real@3fb504f3
CONST	SEGMENT
__real@3fb504f3 DD 03fb504f3r			; 1.41421
CONST	ENDS
;	COMDAT __real@3fa9999a
CONST	SEGMENT
__real@3fa9999a DD 03fa9999ar			; 1.325
CONST	ENDS
;	COMDAT __real@3f9d70a4
CONST	SEGMENT
__real@3f9d70a4 DD 03f9d70a4r			; 1.23
CONST	ENDS
;	COMDAT __real@3f800000
CONST	SEGMENT
__real@3f800000 DD 03f800000r			; 1
CONST	ENDS
;	COMDAT __real@3f490fdb
CONST	SEGMENT
__real@3f490fdb DD 03f490fdbr			; 0.785398
CONST	ENDS
;	COMDAT __real@3f000000
CONST	SEGMENT
__real@3f000000 DD 03f000000r			; 0.5
CONST	ENDS
;	COMDAT __real@3dfcb924
CONST	SEGMENT
__real@3dfcb924 DD 03dfcb924r			; 0.1234
CONST	ENDS
;	COMDAT __real@38d1b717
CONST	SEGMENT
__real@38d1b717 DD 038d1b717r			; 0.0001
CONST	ENDS
;	COMDAT ??_R1A@?0A@EA@?$basic_ostream@_WU?$char_traits@_W@std@@@std@@8
rdata$r	SEGMENT
??_R1A@?0A@EA@?$basic_ostream@_WU?$char_traits@_W@std@@@std@@8 DD imagerel ??_R0?AV?$basic_ostream@_WU?$char_traits@_W@std@@@std@@@8 ; std::basic_ostream<wchar_t,std::char_traits<wchar_t> >::`RTTI Base Class Descriptor at (0,-1,0,64)'
	DD	03H
	DD	00H
	DD	0ffffffffH
	DD	00H
	DD	040H
	DD	imagerel ??_R3?$basic_ostream@_WU?$char_traits@_W@std@@@std@@8
rdata$r	ENDS
;	COMDAT ??_R2?$basic_ostream@_WU?$char_traits@_W@std@@@std@@8
rdata$r	SEGMENT
??_R2?$basic_ostream@_WU?$char_traits@_W@std@@@std@@8 DD imagerel ??_R1A@?0A@EA@?$basic_ostream@_WU?$char_traits@_W@std@@@std@@8 ; std::basic_ostream<wchar_t,std::char_traits<wchar_t> >::`RTTI Base Class Array'
	DD	imagerel ??_R1A@A@3FA@?$basic_ios@_WU?$char_traits@_W@std@@@std@@8
	DD	imagerel ??_R1A@A@3EA@ios_base@std@@8
	DD	imagerel ??_R17A@3EA@?$_Iosb@H@std@@8
	ORG $+3
rdata$r	ENDS
;	COMDAT ??_R3?$basic_ostream@_WU?$char_traits@_W@std@@@std@@8
rdata$r	SEGMENT
??_R3?$basic_ostream@_WU?$char_traits@_W@std@@@std@@8 DD 00H ; std::basic_ostream<wchar_t,std::char_traits<wchar_t> >::`RTTI Class Hierarchy Descriptor'
	DD	00H
	DD	04H
	DD	imagerel ??_R2?$basic_ostream@_WU?$char_traits@_W@std@@@std@@8
rdata$r	ENDS
;	COMDAT ??_R0?AV?$basic_ostream@_WU?$char_traits@_W@std@@@std@@@8
data$r	SEGMENT
??_R0?AV?$basic_ostream@_WU?$char_traits@_W@std@@@std@@@8 DQ FLAT:??_7type_info@@6B@ ; std::basic_ostream<wchar_t,std::char_traits<wchar_t> > `RTTI Type Descriptor'
	DQ	0000000000000000H
	DB	'.?AV?$basic_ostream@_WU?$char_traits@_W@std@@@std@@', 00H
data$r	ENDS
;	COMDAT ??_R1BA@?0A@EA@?$basic_ostream@_WU?$char_traits@_W@std@@@std@@8
rdata$r	SEGMENT
??_R1BA@?0A@EA@?$basic_ostream@_WU?$char_traits@_W@std@@@std@@8 DD imagerel ??_R0?AV?$basic_ostream@_WU?$char_traits@_W@std@@@std@@@8 ; std::basic_ostream<wchar_t,std::char_traits<wchar_t> >::`RTTI Base Class Descriptor at (16,-1,0,64)'
	DD	03H
	DD	010H
	DD	0ffffffffH
	DD	00H
	DD	040H
	DD	imagerel ??_R3?$basic_ostream@_WU?$char_traits@_W@std@@@std@@8
rdata$r	ENDS
;	COMDAT ??_R17A@3EA@?$_Iosb@H@std@@8
rdata$r	SEGMENT
??_R17A@3EA@?$_Iosb@H@std@@8 DD imagerel ??_R0?AV?$_Iosb@H@std@@@8 ; std::_Iosb<int>::`RTTI Base Class Descriptor at (8,0,4,64)'
	DD	00H
	DD	08H
	DD	00H
	DD	04H
	DD	040H
	DD	imagerel ??_R3?$_Iosb@H@std@@8
rdata$r	ENDS
;	COMDAT ??_R1A@A@3EA@ios_base@std@@8
rdata$r	SEGMENT
??_R1A@A@3EA@ios_base@std@@8 DD imagerel ??_R0?AVios_base@std@@@8 ; std::ios_base::`RTTI Base Class Descriptor at (0,0,4,64)'
	DD	01H
	DD	00H
	DD	00H
	DD	04H
	DD	040H
	DD	imagerel ??_R3ios_base@std@@8
rdata$r	ENDS
;	COMDAT ??_R1A@?0A@EA@?$_Iosb@H@std@@8
rdata$r	SEGMENT
??_R1A@?0A@EA@?$_Iosb@H@std@@8 DD imagerel ??_R0?AV?$_Iosb@H@std@@@8 ; std::_Iosb<int>::`RTTI Base Class Descriptor at (0,-1,0,64)'
	DD	00H
	DD	00H
	DD	0ffffffffH
	DD	00H
	DD	040H
	DD	imagerel ??_R3?$_Iosb@H@std@@8
rdata$r	ENDS
;	COMDAT ??_R2?$_Iosb@H@std@@8
rdata$r	SEGMENT
??_R2?$_Iosb@H@std@@8 DD imagerel ??_R1A@?0A@EA@?$_Iosb@H@std@@8 ; std::_Iosb<int>::`RTTI Base Class Array'
	ORG $+3
rdata$r	ENDS
;	COMDAT ??_R3?$_Iosb@H@std@@8
rdata$r	SEGMENT
??_R3?$_Iosb@H@std@@8 DD 00H				; std::_Iosb<int>::`RTTI Class Hierarchy Descriptor'
	DD	00H
	DD	01H
	DD	imagerel ??_R2?$_Iosb@H@std@@8
rdata$r	ENDS
;	COMDAT ??_R0?AV?$_Iosb@H@std@@@8
data$r	SEGMENT
??_R0?AV?$_Iosb@H@std@@@8 DQ FLAT:??_7type_info@@6B@	; std::_Iosb<int> `RTTI Type Descriptor'
	DQ	0000000000000000H
	DB	'.?AV?$_Iosb@H@std@@', 00H
data$r	ENDS
;	COMDAT ??_R17?0A@EA@?$_Iosb@H@std@@8
rdata$r	SEGMENT
??_R17?0A@EA@?$_Iosb@H@std@@8 DD imagerel ??_R0?AV?$_Iosb@H@std@@@8 ; std::_Iosb<int>::`RTTI Base Class Descriptor at (8,-1,0,64)'
	DD	00H
	DD	08H
	DD	0ffffffffH
	DD	00H
	DD	040H
	DD	imagerel ??_R3?$_Iosb@H@std@@8
rdata$r	ENDS
;	COMDAT ??_R2ios_base@std@@8
rdata$r	SEGMENT
??_R2ios_base@std@@8 DD imagerel ??_R1A@?0A@EA@ios_base@std@@8 ; std::ios_base::`RTTI Base Class Array'
	DD	imagerel ??_R17?0A@EA@?$_Iosb@H@std@@8
	ORG $+3
rdata$r	ENDS
;	COMDAT ??_R3ios_base@std@@8
rdata$r	SEGMENT
??_R3ios_base@std@@8 DD 00H				; std::ios_base::`RTTI Class Hierarchy Descriptor'
	DD	00H
	DD	02H
	DD	imagerel ??_R2ios_base@std@@8
rdata$r	ENDS
;	COMDAT ??_R0?AVios_base@std@@@8
data$r	SEGMENT
??_R0?AVios_base@std@@@8 DQ FLAT:??_7type_info@@6B@	; std::ios_base `RTTI Type Descriptor'
	DQ	0000000000000000H
	DB	'.?AVios_base@std@@', 00H
data$r	ENDS
;	COMDAT ??_R1A@?0A@EA@ios_base@std@@8
rdata$r	SEGMENT
??_R1A@?0A@EA@ios_base@std@@8 DD imagerel ??_R0?AVios_base@std@@@8 ; std::ios_base::`RTTI Base Class Descriptor at (0,-1,0,64)'
	DD	01H
	DD	00H
	DD	0ffffffffH
	DD	00H
	DD	040H
	DD	imagerel ??_R3ios_base@std@@8
rdata$r	ENDS
;	COMDAT ??_R1A@?0A@EA@?$basic_ios@_WU?$char_traits@_W@std@@@std@@8
rdata$r	SEGMENT
??_R1A@?0A@EA@?$basic_ios@_WU?$char_traits@_W@std@@@std@@8 DD imagerel ??_R0?AV?$basic_ios@_WU?$char_traits@_W@std@@@std@@@8 ; std::basic_ios<wchar_t,std::char_traits<wchar_t> >::`RTTI Base Class Descriptor at (0,-1,0,64)'
	DD	02H
	DD	00H
	DD	0ffffffffH
	DD	00H
	DD	040H
	DD	imagerel ??_R3?$basic_ios@_WU?$char_traits@_W@std@@@std@@8
rdata$r	ENDS
;	COMDAT ??_R2?$basic_ios@_WU?$char_traits@_W@std@@@std@@8
rdata$r	SEGMENT
??_R2?$basic_ios@_WU?$char_traits@_W@std@@@std@@8 DD imagerel ??_R1A@?0A@EA@?$basic_ios@_WU?$char_traits@_W@std@@@std@@8 ; std::basic_ios<wchar_t,std::char_traits<wchar_t> >::`RTTI Base Class Array'
	DD	imagerel ??_R1A@?0A@EA@ios_base@std@@8
	DD	imagerel ??_R17?0A@EA@?$_Iosb@H@std@@8
	ORG $+3
rdata$r	ENDS
;	COMDAT ??_R3?$basic_ios@_WU?$char_traits@_W@std@@@std@@8
rdata$r	SEGMENT
??_R3?$basic_ios@_WU?$char_traits@_W@std@@@std@@8 DD 00H ; std::basic_ios<wchar_t,std::char_traits<wchar_t> >::`RTTI Class Hierarchy Descriptor'
	DD	00H
	DD	03H
	DD	imagerel ??_R2?$basic_ios@_WU?$char_traits@_W@std@@@std@@8
rdata$r	ENDS
;	COMDAT ??_R0?AV?$basic_ios@_WU?$char_traits@_W@std@@@std@@@8
data$r	SEGMENT
??_R0?AV?$basic_ios@_WU?$char_traits@_W@std@@@std@@@8 DQ FLAT:??_7type_info@@6B@ ; std::basic_ios<wchar_t,std::char_traits<wchar_t> > `RTTI Type Descriptor'
	DQ	0000000000000000H
	DB	'.?AV?$basic_ios@_WU?$char_traits@_W@std@@@std@@', 00H
data$r	ENDS
;	COMDAT ??_R1A@A@3FA@?$basic_ios@_WU?$char_traits@_W@std@@@std@@8
rdata$r	SEGMENT
??_R1A@A@3FA@?$basic_ios@_WU?$char_traits@_W@std@@@std@@8 DD imagerel ??_R0?AV?$basic_ios@_WU?$char_traits@_W@std@@@std@@@8 ; std::basic_ios<wchar_t,std::char_traits<wchar_t> >::`RTTI Base Class Descriptor at (0,0,4,80)'
	DD	02H
	DD	00H
	DD	00H
	DD	04H
	DD	050H
	DD	imagerel ??_R3?$basic_ios@_WU?$char_traits@_W@std@@@std@@8
rdata$r	ENDS
;	COMDAT ??_R2?$basic_istream@_WU?$char_traits@_W@std@@@std@@8
rdata$r	SEGMENT
??_R2?$basic_istream@_WU?$char_traits@_W@std@@@std@@8 DD imagerel ??_R1A@?0A@EA@?$basic_istream@_WU?$char_traits@_W@std@@@std@@8 ; std::basic_istream<wchar_t,std::char_traits<wchar_t> >::`RTTI Base Class Array'
	DD	imagerel ??_R1A@A@3FA@?$basic_ios@_WU?$char_traits@_W@std@@@std@@8
	DD	imagerel ??_R1A@A@3EA@ios_base@std@@8
	DD	imagerel ??_R17A@3EA@?$_Iosb@H@std@@8
	ORG $+3
rdata$r	ENDS
;	COMDAT ??_R3?$basic_istream@_WU?$char_traits@_W@std@@@std@@8
rdata$r	SEGMENT
??_R3?$basic_istream@_WU?$char_traits@_W@std@@@std@@8 DD 00H ; std::basic_istream<wchar_t,std::char_traits<wchar_t> >::`RTTI Class Hierarchy Descriptor'
	DD	00H
	DD	04H
	DD	imagerel ??_R2?$basic_istream@_WU?$char_traits@_W@std@@@std@@8
rdata$r	ENDS
;	COMDAT ??_R0?AV?$basic_istream@_WU?$char_traits@_W@std@@@std@@@8
data$r	SEGMENT
??_R0?AV?$basic_istream@_WU?$char_traits@_W@std@@@std@@@8 DQ FLAT:??_7type_info@@6B@ ; std::basic_istream<wchar_t,std::char_traits<wchar_t> > `RTTI Type Descriptor'
	DQ	0000000000000000H
	DB	'.?AV?$basic_istream@_WU?$char_traits@_W@std@@@std@@', 00H
data$r	ENDS
;	COMDAT ??_R1A@?0A@EA@?$basic_istream@_WU?$char_traits@_W@std@@@std@@8
rdata$r	SEGMENT
??_R1A@?0A@EA@?$basic_istream@_WU?$char_traits@_W@std@@@std@@8 DD imagerel ??_R0?AV?$basic_istream@_WU?$char_traits@_W@std@@@std@@@8 ; std::basic_istream<wchar_t,std::char_traits<wchar_t> >::`RTTI Base Class Descriptor at (0,-1,0,64)'
	DD	03H
	DD	00H
	DD	0ffffffffH
	DD	00H
	DD	040H
	DD	imagerel ??_R3?$basic_istream@_WU?$char_traits@_W@std@@@std@@8
rdata$r	ENDS
;	COMDAT ??_R2?$basic_iostream@_WU?$char_traits@_W@std@@@std@@8
rdata$r	SEGMENT
??_R2?$basic_iostream@_WU?$char_traits@_W@std@@@std@@8 DD imagerel ??_R1A@?0A@EA@?$basic_iostream@_WU?$char_traits@_W@std@@@std@@8 ; std::basic_iostream<wchar_t,std::char_traits<wchar_t> >::`RTTI Base Class Array'
	DD	imagerel ??_R1A@?0A@EA@?$basic_istream@_WU?$char_traits@_W@std@@@std@@8
	DD	imagerel ??_R1A@A@3FA@?$basic_ios@_WU?$char_traits@_W@std@@@std@@8
	DD	imagerel ??_R1A@A@3EA@ios_base@std@@8
	DD	imagerel ??_R17A@3EA@?$_Iosb@H@std@@8
	DD	imagerel ??_R1BA@?0A@EA@?$basic_ostream@_WU?$char_traits@_W@std@@@std@@8
	DD	imagerel ??_R1A@A@3FA@?$basic_ios@_WU?$char_traits@_W@std@@@std@@8
	DD	imagerel ??_R1A@A@3EA@ios_base@std@@8
	DD	imagerel ??_R17A@3EA@?$_Iosb@H@std@@8
	ORG $+3
rdata$r	ENDS
;	COMDAT ??_R3?$basic_iostream@_WU?$char_traits@_W@std@@@std@@8
rdata$r	SEGMENT
??_R3?$basic_iostream@_WU?$char_traits@_W@std@@@std@@8 DD 00H ; std::basic_iostream<wchar_t,std::char_traits<wchar_t> >::`RTTI Class Hierarchy Descriptor'
	DD	03H
	DD	09H
	DD	imagerel ??_R2?$basic_iostream@_WU?$char_traits@_W@std@@@std@@8
rdata$r	ENDS
;	COMDAT ??_R0?AV?$basic_iostream@_WU?$char_traits@_W@std@@@std@@@8
data$r	SEGMENT
??_R0?AV?$basic_iostream@_WU?$char_traits@_W@std@@@std@@@8 DQ FLAT:??_7type_info@@6B@ ; std::basic_iostream<wchar_t,std::char_traits<wchar_t> > `RTTI Type Descriptor'
	DQ	0000000000000000H
	DB	'.?AV?$basic_iostream@_WU?$char_traits@_W@std@@@std@@', 00H
data$r	ENDS
;	COMDAT ??_R1A@?0A@EA@?$basic_iostream@_WU?$char_traits@_W@std@@@std@@8
rdata$r	SEGMENT
??_R1A@?0A@EA@?$basic_iostream@_WU?$char_traits@_W@std@@@std@@8 DD imagerel ??_R0?AV?$basic_iostream@_WU?$char_traits@_W@std@@@std@@@8 ; std::basic_iostream<wchar_t,std::char_traits<wchar_t> >::`RTTI Base Class Descriptor at (0,-1,0,64)'
	DD	08H
	DD	00H
	DD	0ffffffffH
	DD	00H
	DD	040H
	DD	imagerel ??_R3?$basic_iostream@_WU?$char_traits@_W@std@@@std@@8
rdata$r	ENDS
;	COMDAT ??_R1A@?0A@EA@?$basic_stringstream@_WU?$char_traits@_W@std@@V?$allocator@_W@2@@std@@8
rdata$r	SEGMENT
??_R1A@?0A@EA@?$basic_stringstream@_WU?$char_traits@_W@std@@V?$allocator@_W@2@@std@@8 DD imagerel ??_R0?AV?$basic_stringstream@_WU?$char_traits@_W@std@@V?$allocator@_W@2@@std@@@8 ; std::basic_stringstream<wchar_t,std::char_traits<wchar_t>,std::allocator<wchar_t> >::`RTTI Base Class Descriptor at (0,-1,0,64)'
	DD	09H
	DD	00H
	DD	0ffffffffH
	DD	00H
	DD	040H
	DD	imagerel ??_R3?$basic_stringstream@_WU?$char_traits@_W@std@@V?$allocator@_W@2@@std@@8
rdata$r	ENDS
;	COMDAT ??_R2?$basic_stringstream@_WU?$char_traits@_W@std@@V?$allocator@_W@2@@std@@8
rdata$r	SEGMENT
??_R2?$basic_stringstream@_WU?$char_traits@_W@std@@V?$allocator@_W@2@@std@@8 DD imagerel ??_R1A@?0A@EA@?$basic_stringstream@_WU?$char_traits@_W@std@@V?$allocator@_W@2@@std@@8 ; std::basic_stringstream<wchar_t,std::char_traits<wchar_t>,std::allocator<wchar_t> >::`RTTI Base Class Array'
	DD	imagerel ??_R1A@?0A@EA@?$basic_iostream@_WU?$char_traits@_W@std@@@std@@8
	DD	imagerel ??_R1A@?0A@EA@?$basic_istream@_WU?$char_traits@_W@std@@@std@@8
	DD	imagerel ??_R1A@A@3FA@?$basic_ios@_WU?$char_traits@_W@std@@@std@@8
	DD	imagerel ??_R1A@A@3EA@ios_base@std@@8
	DD	imagerel ??_R17A@3EA@?$_Iosb@H@std@@8
	DD	imagerel ??_R1BA@?0A@EA@?$basic_ostream@_WU?$char_traits@_W@std@@@std@@8
	DD	imagerel ??_R1A@A@3FA@?$basic_ios@_WU?$char_traits@_W@std@@@std@@8
	DD	imagerel ??_R1A@A@3EA@ios_base@std@@8
	DD	imagerel ??_R17A@3EA@?$_Iosb@H@std@@8
	ORG $+3
rdata$r	ENDS
;	COMDAT ??_R3?$basic_stringstream@_WU?$char_traits@_W@std@@V?$allocator@_W@2@@std@@8
rdata$r	SEGMENT
??_R3?$basic_stringstream@_WU?$char_traits@_W@std@@V?$allocator@_W@2@@std@@8 DD 00H ; std::basic_stringstream<wchar_t,std::char_traits<wchar_t>,std::allocator<wchar_t> >::`RTTI Class Hierarchy Descriptor'
	DD	03H
	DD	0aH
	DD	imagerel ??_R2?$basic_stringstream@_WU?$char_traits@_W@std@@V?$allocator@_W@2@@std@@8
rdata$r	ENDS
;	COMDAT ??_R0?AV?$basic_stringstream@_WU?$char_traits@_W@std@@V?$allocator@_W@2@@std@@@8
data$r	SEGMENT
??_R0?AV?$basic_stringstream@_WU?$char_traits@_W@std@@V?$allocator@_W@2@@std@@@8 DQ FLAT:??_7type_info@@6B@ ; std::basic_stringstream<wchar_t,std::char_traits<wchar_t>,std::allocator<wchar_t> > `RTTI Type Descriptor'
	DQ	0000000000000000H
	DB	'.?AV?$basic_stringstream@_WU?$char_traits@_W@std@@V?$all'
	DB	'ocator@_W@2@@std@@', 00H
data$r	ENDS
;	COMDAT ??_R4?$basic_stringstream@_WU?$char_traits@_W@std@@V?$allocator@_W@2@@std@@6B@
rdata$r	SEGMENT
??_R4?$basic_stringstream@_WU?$char_traits@_W@std@@V?$allocator@_W@2@@std@@6B@ DD 01H ; std::basic_stringstream<wchar_t,std::char_traits<wchar_t>,std::allocator<wchar_t> >::`RTTI Complete Object Locator'
	DD	098H
	DD	04H
	DD	imagerel ??_R0?AV?$basic_stringstream@_WU?$char_traits@_W@std@@V?$allocator@_W@2@@std@@@8
	DD	imagerel ??_R3?$basic_stringstream@_WU?$char_traits@_W@std@@V?$allocator@_W@2@@std@@8
	DD	imagerel ??_R4?$basic_stringstream@_WU?$char_traits@_W@std@@V?$allocator@_W@2@@std@@6B@
rdata$r	ENDS
;	COMDAT ??_R2?$basic_streambuf@_WU?$char_traits@_W@std@@@std@@8
rdata$r	SEGMENT
??_R2?$basic_streambuf@_WU?$char_traits@_W@std@@@std@@8 DD imagerel ??_R1A@?0A@EA@?$basic_streambuf@_WU?$char_traits@_W@std@@@std@@8 ; std::basic_streambuf<wchar_t,std::char_traits<wchar_t> >::`RTTI Base Class Array'
	ORG $+3
rdata$r	ENDS
;	COMDAT ??_R3?$basic_streambuf@_WU?$char_traits@_W@std@@@std@@8
rdata$r	SEGMENT
??_R3?$basic_streambuf@_WU?$char_traits@_W@std@@@std@@8 DD 00H ; std::basic_streambuf<wchar_t,std::char_traits<wchar_t> >::`RTTI Class Hierarchy Descriptor'
	DD	00H
	DD	01H
	DD	imagerel ??_R2?$basic_streambuf@_WU?$char_traits@_W@std@@@std@@8
rdata$r	ENDS
;	COMDAT ??_R0?AV?$basic_streambuf@_WU?$char_traits@_W@std@@@std@@@8
data$r	SEGMENT
??_R0?AV?$basic_streambuf@_WU?$char_traits@_W@std@@@std@@@8 DQ FLAT:??_7type_info@@6B@ ; std::basic_streambuf<wchar_t,std::char_traits<wchar_t> > `RTTI Type Descriptor'
	DQ	0000000000000000H
	DB	'.?AV?$basic_streambuf@_WU?$char_traits@_W@std@@@std@@', 00H
data$r	ENDS
;	COMDAT ??_R1A@?0A@EA@?$basic_streambuf@_WU?$char_traits@_W@std@@@std@@8
rdata$r	SEGMENT
??_R1A@?0A@EA@?$basic_streambuf@_WU?$char_traits@_W@std@@@std@@8 DD imagerel ??_R0?AV?$basic_streambuf@_WU?$char_traits@_W@std@@@std@@@8 ; std::basic_streambuf<wchar_t,std::char_traits<wchar_t> >::`RTTI Base Class Descriptor at (0,-1,0,64)'
	DD	00H
	DD	00H
	DD	0ffffffffH
	DD	00H
	DD	040H
	DD	imagerel ??_R3?$basic_streambuf@_WU?$char_traits@_W@std@@@std@@8
rdata$r	ENDS
;	COMDAT ??_R1A@?0A@EA@?$basic_stringbuf@_WU?$char_traits@_W@std@@V?$allocator@_W@2@@std@@8
rdata$r	SEGMENT
??_R1A@?0A@EA@?$basic_stringbuf@_WU?$char_traits@_W@std@@V?$allocator@_W@2@@std@@8 DD imagerel ??_R0?AV?$basic_stringbuf@_WU?$char_traits@_W@std@@V?$allocator@_W@2@@std@@@8 ; std::basic_stringbuf<wchar_t,std::char_traits<wchar_t>,std::allocator<wchar_t> >::`RTTI Base Class Descriptor at (0,-1,0,64)'
	DD	01H
	DD	00H
	DD	0ffffffffH
	DD	00H
	DD	040H
	DD	imagerel ??_R3?$basic_stringbuf@_WU?$char_traits@_W@std@@V?$allocator@_W@2@@std@@8
rdata$r	ENDS
;	COMDAT ??_R2?$basic_stringbuf@_WU?$char_traits@_W@std@@V?$allocator@_W@2@@std@@8
rdata$r	SEGMENT
??_R2?$basic_stringbuf@_WU?$char_traits@_W@std@@V?$allocator@_W@2@@std@@8 DD imagerel ??_R1A@?0A@EA@?$basic_stringbuf@_WU?$char_traits@_W@std@@V?$allocator@_W@2@@std@@8 ; std::basic_stringbuf<wchar_t,std::char_traits<wchar_t>,std::allocator<wchar_t> >::`RTTI Base Class Array'
	DD	imagerel ??_R1A@?0A@EA@?$basic_streambuf@_WU?$char_traits@_W@std@@@std@@8
	ORG $+3
rdata$r	ENDS
;	COMDAT ??_R3?$basic_stringbuf@_WU?$char_traits@_W@std@@V?$allocator@_W@2@@std@@8
rdata$r	SEGMENT
??_R3?$basic_stringbuf@_WU?$char_traits@_W@std@@V?$allocator@_W@2@@std@@8 DD 00H ; std::basic_stringbuf<wchar_t,std::char_traits<wchar_t>,std::allocator<wchar_t> >::`RTTI Class Hierarchy Descriptor'
	DD	00H
	DD	02H
	DD	imagerel ??_R2?$basic_stringbuf@_WU?$char_traits@_W@std@@V?$allocator@_W@2@@std@@8
rdata$r	ENDS
;	COMDAT ??_R0?AV?$basic_stringbuf@_WU?$char_traits@_W@std@@V?$allocator@_W@2@@std@@@8
data$r	SEGMENT
??_R0?AV?$basic_stringbuf@_WU?$char_traits@_W@std@@V?$allocator@_W@2@@std@@@8 DQ FLAT:??_7type_info@@6B@ ; std::basic_stringbuf<wchar_t,std::char_traits<wchar_t>,std::allocator<wchar_t> > `RTTI Type Descriptor'
	DQ	0000000000000000H
	DB	'.?AV?$basic_stringbuf@_WU?$char_traits@_W@std@@V?$alloca'
	DB	'tor@_W@2@@std@@', 00H
data$r	ENDS
;	COMDAT ??_R4?$basic_stringbuf@_WU?$char_traits@_W@std@@V?$allocator@_W@2@@std@@6B@
rdata$r	SEGMENT
??_R4?$basic_stringbuf@_WU?$char_traits@_W@std@@V?$allocator@_W@2@@std@@6B@ DD 01H ; std::basic_stringbuf<wchar_t,std::char_traits<wchar_t>,std::allocator<wchar_t> >::`RTTI Complete Object Locator'
	DD	00H
	DD	00H
	DD	imagerel ??_R0?AV?$basic_stringbuf@_WU?$char_traits@_W@std@@V?$allocator@_W@2@@std@@@8
	DD	imagerel ??_R3?$basic_stringbuf@_WU?$char_traits@_W@std@@V?$allocator@_W@2@@std@@8
	DD	imagerel ??_R4?$basic_stringbuf@_WU?$char_traits@_W@std@@V?$allocator@_W@2@@std@@6B@
rdata$r	ENDS
;	COMDAT ??_C@_0BI@CFPLBAOH@invalid?5string?5position?$AA@
CONST	SEGMENT
??_C@_0BI@CFPLBAOH@invalid?5string?5position?$AA@ DB 'invalid string posi'
	DB	'tion', 00H					; `string'
CONST	ENDS
;	COMDAT ??_C@_0BA@JFNIOLAK@string?5too?5long?$AA@
CONST	SEGMENT
??_C@_0BA@JFNIOLAK@string?5too?5long?$AA@ DB 'string too long', 00H ; `string'
CONST	ENDS
;	COMDAT ??_C@_0BD@OLBABOEK@vector?$DMT?$DO?5too?5long?$AA@
CONST	SEGMENT
??_C@_0BD@OLBABOEK@vector?$DMT?$DO?5too?5long?$AA@ DB 'vector<T> too long'
	DB	00H						; `string'
CONST	ENDS
;	COMDAT ??_C@_13DEFPDAGF@?$AA?0?$AA?$AA@
CONST	SEGMENT
??_C@_13DEFPDAGF@?$AA?0?$AA?$AA@ DB ',', 00H, 00H, 00H	; `string'
CONST	ENDS
;	COMDAT ??_C@_13CGOKJPIL@?$AA?1?$AA?$AA@
CONST	SEGMENT
??_C@_13CGOKJPIL@?$AA?1?$AA?$AA@ DB '/', 00H, 00H, 00H	; `string'
CONST	ENDS
;	COMDAT ??_8?$basic_stringstream@_WU?$char_traits@_W@std@@V?$allocator@_W@2@@std@@7B?$basic_ostream@_WU?$char_traits@_W@std@@@1@@
CONST	SEGMENT
??_8?$basic_stringstream@_WU?$char_traits@_W@std@@V?$allocator@_W@2@@std@@7B?$basic_ostream@_WU?$char_traits@_W@std@@@1@@ DD 00H ; std::basic_stringstream<wchar_t,std::char_traits<wchar_t>,std::allocator<wchar_t> >::`vbtable'
	DD	088H
CONST	ENDS
;	COMDAT ??_8?$basic_stringstream@_WU?$char_traits@_W@std@@V?$allocator@_W@2@@std@@7B?$basic_istream@_WU?$char_traits@_W@std@@@1@@
CONST	SEGMENT
??_8?$basic_stringstream@_WU?$char_traits@_W@std@@V?$allocator@_W@2@@std@@7B?$basic_istream@_WU?$char_traits@_W@std@@@1@@ DD 00H ; std::basic_stringstream<wchar_t,std::char_traits<wchar_t>,std::allocator<wchar_t> >::`vbtable'
	DD	098H
CONST	ENDS
;	COMDAT ??_7?$basic_stringstream@_WU?$char_traits@_W@std@@V?$allocator@_W@2@@std@@6B@
CONST	SEGMENT
??_7?$basic_stringstream@_WU?$char_traits@_W@std@@V?$allocator@_W@2@@std@@6B@ DQ FLAT:??_R4?$basic_stringstream@_WU?$char_traits@_W@std@@V?$allocator@_W@2@@std@@6B@ ; std::basic_stringstream<wchar_t,std::char_traits<wchar_t>,std::allocator<wchar_t> >::`vftable'
	DQ	FLAT:??_E?$basic_stringstream@_WU?$char_traits@_W@std@@V?$allocator@_W@2@@std@@$4PPPPPPPM@A@EAAPEAXI@Z
CONST	ENDS
;	COMDAT ??_7?$basic_stringbuf@_WU?$char_traits@_W@std@@V?$allocator@_W@2@@std@@6B@
CONST	SEGMENT
??_7?$basic_stringbuf@_WU?$char_traits@_W@std@@V?$allocator@_W@2@@std@@6B@ DQ FLAT:??_R4?$basic_stringbuf@_WU?$char_traits@_W@std@@V?$allocator@_W@2@@std@@6B@ ; std::basic_stringbuf<wchar_t,std::char_traits<wchar_t>,std::allocator<wchar_t> >::`vftable'
	DQ	FLAT:??_E?$basic_stringbuf@_WU?$char_traits@_W@std@@V?$allocator@_W@2@@std@@UEAAPEAXI@Z
	DQ	FLAT:?_Lock@?$basic_streambuf@_WU?$char_traits@_W@std@@@std@@UEAAXXZ
	DQ	FLAT:?_Unlock@?$basic_streambuf@_WU?$char_traits@_W@std@@@std@@UEAAXXZ
	DQ	FLAT:?overflow@?$basic_stringbuf@_WU?$char_traits@_W@std@@V?$allocator@_W@2@@std@@MEAAGG@Z
	DQ	FLAT:?pbackfail@?$basic_stringbuf@_WU?$char_traits@_W@std@@V?$allocator@_W@2@@std@@MEAAGG@Z
	DQ	FLAT:?showmanyc@?$basic_streambuf@_WU?$char_traits@_W@std@@@std@@MEAA_JXZ
	DQ	FLAT:?underflow@?$basic_stringbuf@_WU?$char_traits@_W@std@@V?$allocator@_W@2@@std@@MEAAGXZ
	DQ	FLAT:?uflow@?$basic_streambuf@_WU?$char_traits@_W@std@@@std@@MEAAGXZ
	DQ	FLAT:?xsgetn@?$basic_streambuf@_WU?$char_traits@_W@std@@@std@@MEAA_JPEA_W_J@Z
	DQ	FLAT:?xsputn@?$basic_streambuf@_WU?$char_traits@_W@std@@@std@@MEAA_JPEB_W_J@Z
	DQ	FLAT:?seekoff@?$basic_stringbuf@_WU?$char_traits@_W@std@@V?$allocator@_W@2@@std@@MEAA?AV?$fpos@U_Mbstatet@@@2@_JHH@Z
	DQ	FLAT:?seekpos@?$basic_stringbuf@_WU?$char_traits@_W@std@@V?$allocator@_W@2@@std@@MEAA?AV?$fpos@U_Mbstatet@@@2@V32@H@Z
	DQ	FLAT:?setbuf@?$basic_streambuf@_WU?$char_traits@_W@std@@@std@@MEAAPEAV12@PEA_W_J@Z
	DQ	FLAT:?sync@?$basic_streambuf@_WU?$char_traits@_W@std@@@std@@MEAAHXZ
	DQ	FLAT:?imbue@?$basic_streambuf@_WU?$char_traits@_W@std@@@std@@MEAAXAEBVlocale@2@@Z
CONST	ENDS
;	COMDAT ??_C@_1FC@DKDGEDND@?$AA0?$AA?0?$AA1?$AA?0?$AA?4?$AA5?$AA?5?$AA?1?$AA?5?$AA?9?$AA?4?$AA2?$AA5?$AA?0?$AA1?$AA?0?$AA?4?$AA5?$AA?5?$AA?1?$AA?5?$AA?9?$AA?4?$AA2?$AA5?$AA?0?$AA1?$AA?0?$AA1?$AA?5?$AA?1?$AA?5@
CONST	SEGMENT
??_C@_1FC@DKDGEDND@?$AA0?$AA?0?$AA1?$AA?0?$AA?4?$AA5?$AA?5?$AA?1?$AA?5?$AA?9?$AA?4?$AA2?$AA5?$AA?0?$AA1?$AA?0?$AA?4?$AA5?$AA?5?$AA?1?$AA?5?$AA?9?$AA?4?$AA2?$AA5?$AA?0?$AA1?$AA?0?$AA1?$AA?5?$AA?1?$AA?5@ DB '0'
	DB	00H, ',', 00H, '1', 00H, ',', 00H, '.', 00H, '5', 00H, ' ', 00H
	DB	'/', 00H, ' ', 00H, '-', 00H, '.', 00H, '2', 00H, '5', 00H, ','
	DB	00H, '1', 00H, ',', 00H, '.', 00H, '5', 00H, ' ', 00H, '/', 00H
	DB	' ', 00H, '-', 00H, '.', 00H, '2', 00H, '5', 00H, ',', 00H, '1'
	DB	00H, ',', 00H, '1', 00H, ' ', 00H, '/', 00H, ' ', 00H, '-', 00H
	DB	'.', 00H, '2', 00H, '5', 00H, ',', 00H, '1', 00H, ',', 00H, '1'
	DB	00H, 00H, 00H				; `string'
CONST	ENDS
;	COMDAT ??_C@_1FC@LEIJMHNO@?$AA0?$AA?0?$AA1?$AA?0?$AA1?$AA?5?$AA?1?$AA?5?$AA?9?$AA?4?$AA2?$AA5?$AA?0?$AA1?$AA?0?$AA?4?$AA5?$AA?5?$AA?1?$AA?5?$AA?9?$AA?4?$AA2?$AA5?$AA?0?$AA1?$AA?0?$AA1?$AA?5?$AA?1?$AA?5?$AA?9@
CONST	SEGMENT
??_C@_1FC@LEIJMHNO@?$AA0?$AA?0?$AA1?$AA?0?$AA1?$AA?5?$AA?1?$AA?5?$AA?9?$AA?4?$AA2?$AA5?$AA?0?$AA1?$AA?0?$AA?4?$AA5?$AA?5?$AA?1?$AA?5?$AA?9?$AA?4?$AA2?$AA5?$AA?0?$AA1?$AA?0?$AA1?$AA?5?$AA?1?$AA?5?$AA?9@ DB '0'
	DB	00H, ',', 00H, '1', 00H, ',', 00H, '1', 00H, ' ', 00H, '/', 00H
	DB	' ', 00H, '-', 00H, '.', 00H, '2', 00H, '5', 00H, ',', 00H, '1'
	DB	00H, ',', 00H, '.', 00H, '5', 00H, ' ', 00H, '/', 00H, ' ', 00H
	DB	'-', 00H, '.', 00H, '2', 00H, '5', 00H, ',', 00H, '1', 00H, ','
	DB	00H, '1', 00H, ' ', 00H, '/', 00H, ' ', 00H, '-', 00H, '.', 00H
	DB	'2', 00H, '5', 00H, ',', 00H, '1', 00H, ',', 00H, '.', 00H, '5'
	DB	00H, 00H, 00H				; `string'
CONST	ENDS
;	COMDAT ??_C@_1CK@FBIPLABB@?$AA?4?$AA2?$AA5?$AA?0?$AA?5?$AA1?$AA?0?$AA?5?$AA?4?$AA5?$AA?5?$AA?1?$AA?5?$AA0?$AA?0?$AA?5?$AA1?$AA?0?$AA?5?$AA1?$AA?$AA@
CONST	SEGMENT
??_C@_1CK@FBIPLABB@?$AA?4?$AA2?$AA5?$AA?0?$AA?5?$AA1?$AA?0?$AA?5?$AA?4?$AA5?$AA?5?$AA?1?$AA?5?$AA0?$AA?0?$AA?5?$AA1?$AA?0?$AA?5?$AA1?$AA?$AA@ DB '.'
	DB	00H, '2', 00H, '5', 00H, ',', 00H, ' ', 00H, '1', 00H, ',', 00H
	DB	' ', 00H, '.', 00H, '5', 00H, ' ', 00H, '/', 00H, ' ', 00H, '0'
	DB	00H, ',', 00H, ' ', 00H, '1', 00H, ',', 00H, ' ', 00H, '1', 00H
	DB	00H, 00H					; `string'
CONST	ENDS
;	COMDAT ??_C@_1FC@MFPKJHBG@?$AA0?$AA?0?$AA?5?$AA1?$AA?0?$AA?5?$AA1?$AA?0?$AA?5?$AA1?$AA?0?$AA?5?$AA1?$AA?0?$AA?5?$AA?4?$AA5?$AA?5?$AA?1?$AA?5?$AA1?$AA?4?$AA7?$AA5?$AA?0?$AA?5?$AA1?$AA?0?$AA?5?$AA1?$AA?0?$AA?5@
CONST	SEGMENT
??_C@_1FC@MFPKJHBG@?$AA0?$AA?0?$AA?5?$AA1?$AA?0?$AA?5?$AA1?$AA?0?$AA?5?$AA1?$AA?0?$AA?5?$AA1?$AA?0?$AA?5?$AA?4?$AA5?$AA?5?$AA?1?$AA?5?$AA1?$AA?4?$AA7?$AA5?$AA?0?$AA?5?$AA1?$AA?0?$AA?5?$AA1?$AA?0?$AA?5@ DB '0'
	DB	00H, ',', 00H, ' ', 00H, '1', 00H, ',', 00H, ' ', 00H, '1', 00H
	DB	',', 00H, ' ', 00H, '1', 00H, ',', 00H, ' ', 00H, '1', 00H, ','
	DB	00H, ' ', 00H, '.', 00H, '5', 00H, ' ', 00H, '/', 00H, ' ', 00H
	DB	'1', 00H, '.', 00H, '7', 00H, '5', 00H, ',', 00H, ' ', 00H, '1'
	DB	00H, ',', 00H, ' ', 00H, '1', 00H, ',', 00H, ' ', 00H, '1', 00H
	DB	',', 00H, ' ', 00H, '1', 00H, ',', 00H, ' ', 00H, '.', 00H, '5'
	DB	00H, 00H, 00H				; `string'
CONST	ENDS
;	COMDAT ??_C@_1EG@NKHPAEJM@?$AA0?$AA?0?$AA?5?$AA1?$AA?0?$AA?5?$AA1?$AA?0?$AA?5?$AA1?$AA?0?$AA?5?$AA?4?$AA5?$AA?5?$AA?1?$AA?5?$AA1?$AA?4?$AA2?$AA5?$AA?0?$AA?5?$AA1?$AA?0?$AA?5?$AA1?$AA?0?$AA?5?$AA1?$AA?0?$AA?5@
CONST	SEGMENT
??_C@_1EG@NKHPAEJM@?$AA0?$AA?0?$AA?5?$AA1?$AA?0?$AA?5?$AA1?$AA?0?$AA?5?$AA1?$AA?0?$AA?5?$AA?4?$AA5?$AA?5?$AA?1?$AA?5?$AA1?$AA?4?$AA2?$AA5?$AA?0?$AA?5?$AA1?$AA?0?$AA?5?$AA1?$AA?0?$AA?5?$AA1?$AA?0?$AA?5@ DB '0'
	DB	00H, ',', 00H, ' ', 00H, '1', 00H, ',', 00H, ' ', 00H, '1', 00H
	DB	',', 00H, ' ', 00H, '1', 00H, ',', 00H, ' ', 00H, '.', 00H, '5'
	DB	00H, ' ', 00H, '/', 00H, ' ', 00H, '1', 00H, '.', 00H, '2', 00H
	DB	'5', 00H, ',', 00H, ' ', 00H, '1', 00H, ',', 00H, ' ', 00H, '1'
	DB	00H, ',', 00H, ' ', 00H, '1', 00H, ',', 00H, ' ', 00H, '.', 00H
	DB	'5', 00H, 00H, 00H				; `string'
CONST	ENDS
;	COMDAT ??_C@_1DI@OGPGLDJP@?$AA0?$AA?0?$AA?5?$AA1?$AA?0?$AA?5?$AA1?$AA?0?$AA?5?$AA?4?$AA5?$AA?5?$AA?1?$AA?5?$AA?4?$AA7?$AA5?$AA?0?$AA?5?$AA1?$AA?0?$AA?5?$AA1?$AA?0?$AA?5?$AA?4?$AA5?$AA?$AA@
CONST	SEGMENT
??_C@_1DI@OGPGLDJP@?$AA0?$AA?0?$AA?5?$AA1?$AA?0?$AA?5?$AA1?$AA?0?$AA?5?$AA?4?$AA5?$AA?5?$AA?1?$AA?5?$AA?4?$AA7?$AA5?$AA?0?$AA?5?$AA1?$AA?0?$AA?5?$AA1?$AA?0?$AA?5?$AA?4?$AA5?$AA?$AA@ DB '0'
	DB	00H, ',', 00H, ' ', 00H, '1', 00H, ',', 00H, ' ', 00H, '1', 00H
	DB	',', 00H, ' ', 00H, '.', 00H, '5', 00H, ' ', 00H, '/', 00H, ' '
	DB	00H, '.', 00H, '7', 00H, '5', 00H, ',', 00H, ' ', 00H, '1', 00H
	DB	',', 00H, ' ', 00H, '1', 00H, ',', 00H, ' ', 00H, '.', 00H, '5'
	DB	00H, 00H, 00H				; `string'
CONST	ENDS
;	COMDAT ??_C@_1HG@LGFFBGEF@?$AA?4?$AA2?$AA5?$AA?0?$AA?5?$AA1?$AA?0?$AA?5?$AA?4?$AA5?$AA?5?$AA?1?$AA?5?$AA?9?$AA?4?$AA5?$AA?0?$AA?5?$AA1?$AA?0?$AA?5?$AA1?$AA?5?$AA?1?$AA?5?$AA?9?$AA?4?$AA5?$AA?0?$AA?5?$AA1?$AA?0@
CONST	SEGMENT
??_C@_1HG@LGFFBGEF@?$AA?4?$AA2?$AA5?$AA?0?$AA?5?$AA1?$AA?0?$AA?5?$AA?4?$AA5?$AA?5?$AA?1?$AA?5?$AA?9?$AA?4?$AA5?$AA?0?$AA?5?$AA1?$AA?0?$AA?5?$AA1?$AA?5?$AA?1?$AA?5?$AA?9?$AA?4?$AA5?$AA?0?$AA?5?$AA1?$AA?0@ DB '.'
	DB	00H, '2', 00H, '5', 00H, ',', 00H, ' ', 00H, '1', 00H, ',', 00H
	DB	' ', 00H, '.', 00H, '5', 00H, ' ', 00H, '/', 00H, ' ', 00H, '-'
	DB	00H, '.', 00H, '5', 00H, ',', 00H, ' ', 00H, '1', 00H, ',', 00H
	DB	' ', 00H, '1', 00H, ' ', 00H, '/', 00H, ' ', 00H, '-', 00H, '.'
	DB	00H, '5', 00H, ',', 00H, ' ', 00H, '1', 00H, ',', 00H, ' ', 00H
	DB	'1', 00H, ' ', 00H, '/', 00H, ' ', 00H, '-', 00H, '.', 00H, '5'
	DB	00H, ',', 00H, ' ', 00H, '1', 00H, ',', 00H, ' ', 00H, '1', 00H
	DB	' ', 00H, '/', 00H, ' ', 00H, '-', 00H, '.', 00H, '5', 00H, ','
	DB	00H, ' ', 00H, '1', 00H, ',', 00H, ' ', 00H, '1', 00H, 00H, 00H ; `string'
CONST	ENDS
;	COMDAT ??_C@_1HM@KFKBNDNL@?$AA?4?$AA2?$AA5?$AA?0?$AA?5?$AA1?$AA?0?$AA?5?$AA1?$AA?0?$AA?5?$AA?4?$AA5?$AA?5?$AA?1?$AA?5?$AA?9?$AA?4?$AA5?$AA?0?$AA?5?$AA1?$AA?0?$AA?5?$AA1?$AA?5?$AA?1?$AA?5?$AA?9?$AA?4?$AA5?$AA?0@
CONST	SEGMENT
??_C@_1HM@KFKBNDNL@?$AA?4?$AA2?$AA5?$AA?0?$AA?5?$AA1?$AA?0?$AA?5?$AA1?$AA?0?$AA?5?$AA?4?$AA5?$AA?5?$AA?1?$AA?5?$AA?9?$AA?4?$AA5?$AA?0?$AA?5?$AA1?$AA?0?$AA?5?$AA1?$AA?5?$AA?1?$AA?5?$AA?9?$AA?4?$AA5?$AA?0@ DB '.'
	DB	00H, '2', 00H, '5', 00H, ',', 00H, ' ', 00H, '1', 00H, ',', 00H
	DB	' ', 00H, '1', 00H, ',', 00H, ' ', 00H, '.', 00H, '5', 00H, ' '
	DB	00H, '/', 00H, ' ', 00H, '-', 00H, '.', 00H, '5', 00H, ',', 00H
	DB	' ', 00H, '1', 00H, ',', 00H, ' ', 00H, '1', 00H, ' ', 00H, '/'
	DB	00H, ' ', 00H, '-', 00H, '.', 00H, '5', 00H, ',', 00H, ' ', 00H
	DB	'1', 00H, ',', 00H, ' ', 00H, '1', 00H, ' ', 00H, '/', 00H, ' '
	DB	00H, '-', 00H, '.', 00H, '5', 00H, ',', 00H, ' ', 00H, '1', 00H
	DB	',', 00H, ' ', 00H, '1', 00H, ' ', 00H, '/', 00H, ' ', 00H, '-'
	DB	00H, '.', 00H, '5', 00H, ',', 00H, ' ', 00H, '1', 00H, ',', 00H
	DB	' ', 00H, '1', 00H, 00H, 00H			; `string'
CONST	ENDS
;	COMDAT ??_C@_1CI@MGOLCOH@?$AA0?$AA?0?$AA?5?$AA1?$AA?0?$AA?5?$AA1?$AA?5?$AA?1?$AA?5?$AA0?$AA?4?$AA5?$AA?0?$AA?5?$AA1?$AA?0?$AA?5?$AA1?$AA?$AA@
CONST	SEGMENT
??_C@_1CI@MGOLCOH@?$AA0?$AA?0?$AA?5?$AA1?$AA?0?$AA?5?$AA1?$AA?5?$AA?1?$AA?5?$AA0?$AA?4?$AA5?$AA?0?$AA?5?$AA1?$AA?0?$AA?5?$AA1?$AA?$AA@ DB '0'
	DB	00H, ',', 00H, ' ', 00H, '1', 00H, ',', 00H, ' ', 00H, '1', 00H
	DB	' ', 00H, '/', 00H, ' ', 00H, '0', 00H, '.', 00H, '5', 00H, ','
	DB	00H, ' ', 00H, '1', 00H, ',', 00H, ' ', 00H, '1', 00H, 00H, 00H ; `string'
CONST	ENDS
;	COMDAT ??_C@_1BA@HLCPMHKJ@?$AA0?$AA?0?$AA?5?$AA1?$AA?0?$AA?5?$AA1?$AA?$AA@
CONST	SEGMENT
??_C@_1BA@HLCPMHKJ@?$AA0?$AA?0?$AA?5?$AA1?$AA?0?$AA?5?$AA1?$AA?$AA@ DB '0'
	DB	00H, ',', 00H, ' ', 00H, '1', 00H, ',', 00H, ' ', 00H, '1', 00H
	DB	00H, 00H					; `string'
CONST	ENDS
_DATA	SEGMENT
?kTriObjNormalXTCID@@3VClass_ID@@B DD 0730a33d7H	; kTriObjNormalXTCID
	DD	027246c55H
?pat_herring_dir@@3PAEA DB 00H				; pat_herring_dir
	DB	00H
	DB	01H
	DB	01H
	DB	00H
	DB	01H
	DB	01H
	DB	00H
	DB	01H
	DB	01H
	DB	00H
	DB	00H
	DB	01H
	DB	00H
	DB	00H
	DB	01H
	ORG $+8
?pat_herring_x@@3PAMA DD 03f800000r		; 1	; pat_herring_x
	DD	03f800000r			; 1
	DD	040200000r			; 2.5
	DD	040600000r			; 3.5
	DD	000000000r			; 0
	DD	03fc00000r			; 1.5
	DD	040200000r			; 2.5
	DD	040800000r			; 4
	DD	03f000000r			; 0.5
	DD	03fc00000r			; 1.5
	DD	040400000r			; 3
	DD	040400000r			; 3
	DD	03f000000r			; 0.5
	DD	040000000r			; 2
	DD	040000000r			; 2
	DD	040600000r			; 3.5
?pat_herring_y@@3PAMA DD 03f000000r		; 0.5	; pat_herring_y
	DD	03f000000r			; 0.5
	DD	03f800000r			; 1
	DD	000000000r			; 0
	DD	03fc00000r			; 1.5
	DD	040000000r			; 2
	DD	03f800000r			; 1
	DD	03fc00000r			; 1.5
	DD	040400000r			; 3
	DD	040000000r			; 2
	DD	040200000r			; 2.5
	DD	040200000r			; 2.5
	DD	040400000r			; 3
	DD	040600000r			; 3.5
	DD	040600000r			; 3.5
	DD	040800000r			; 4
?pat_herring_id@@3PAEA DB 01H				; pat_herring_id
	DB	01H
	DB	01H
	DB	00H
	DB	00H
	DB	02H
	DB	01H
	DB	04H
	DB	03H
	DB	02H
	DB	03H
	DB	03H
	DB	03H
	DB	02H
	DB	02H
	DB	04H
_DATA	ENDS
;	COMDAT xdata
xdata	SEGMENT
$unwind$??$_Copy_memmove@PEBMPEAM@std@@YAPEAMPEBM0PEAM@Z DD 040a01H
	DD	06340aH
	DD	07006320aH
xdata	ENDS
;	COMDAT xdata
xdata	SEGMENT
$unwind$??$_Uninitialized_copy_al_unchecked1@$$CBMMV?$allocator@M@std@@@std@@YAPEAMPEBM0PEAMAEAU?$_Wrap_alloc@V?$allocator@M@std@@@0@U_Really_trivial_ptr_iterator_tag@0@U?$integral_constant@_N$00@0@@Z DD 040a01H
	DD	06340aH
	DD	07006320aH
xdata	ENDS
;	COMDAT xdata
xdata	SEGMENT
$ip2state$??$construct@VTileRow@@V1@@?$allocator@VTileRow@@@std@@QEAAXPEAVTileRow@@$$QEAV2@@Z DD imagerel ??$construct@VTileRow@@V1@@?$allocator@VTileRow@@@std@@QEAAXPEAVTileRow@@$$QEAV2@@Z
	DD	0ffffffffH
xdata	ENDS
;	COMDAT xdata
xdata	SEGMENT
$stateUnwindMap$??$construct@VTileRow@@V1@@?$allocator@VTileRow@@@std@@QEAAXPEAVTileRow@@$$QEAV2@@Z DD 0ffffffffH
	DD	imagerel ?dtor$0@?0???$construct@VTileRow@@V1@@?$allocator@VTileRow@@@std@@QEAAXPEAVTileRow@@$$QEAV2@@Z@4HA
xdata	ENDS
;	COMDAT CONST
CONST	SEGMENT
$cppxdata$??$construct@VTileRow@@V1@@?$allocator@VTileRow@@@std@@QEAAXPEAVTileRow@@$$QEAV2@@Z DD 019930522H
	DD	01H
	DD	imagerel $stateUnwindMap$??$construct@VTileRow@@V1@@?$allocator@VTileRow@@@std@@QEAAXPEAVTileRow@@$$QEAV2@@Z
	DD	00H
	DD	00H
	DD	01H
	DD	imagerel $ip2state$??$construct@VTileRow@@V1@@?$allocator@VTileRow@@@std@@QEAAXPEAVTileRow@@$$QEAV2@@Z
	DD	00H
	DD	00H
	DD	00H
CONST	ENDS
;	COMDAT xdata
xdata	SEGMENT
$unwind$??$construct@VTileRow@@V1@@?$allocator@VTileRow@@@std@@QEAAXPEAVTileRow@@$$QEAV2@@Z DD 011111H
	DD	02209H
	DD	imagerel __CxxFrameHandler3
	DD	imagerel $cppxdata$??$construct@VTileRow@@V1@@?$allocator@VTileRow@@@std@@QEAAXPEAVTileRow@@$$QEAV2@@Z
xdata	ENDS
;	COMDAT xdata
xdata	SEGMENT
$unwind$??$_Uninitialized_copy_al_unchecked@PEBMPEAMV?$allocator@M@std@@@std@@YAPEAMPEBM0PEAMAEAU?$_Wrap_alloc@V?$allocator@M@std@@@0@@Z DD 040a01H
	DD	06340aH
	DD	07006320aH
xdata	ENDS
;	COMDAT xdata
xdata	SEGMENT
$ip2state$??$construct@VTileRow@@V1@@?$allocator_traits@V?$allocator@VTileRow@@@std@@@std@@SAXAEAV?$allocator@VTileRow@@@1@PEAVTileRow@@$$QEAV3@@Z DD imagerel ??$construct@VTileRow@@V1@@?$allocator_traits@V?$allocator@VTileRow@@@std@@@std@@SAXAEAV?$allocator@VTileRow@@@1@PEAVTileRow@@$$QEAV3@@Z
	DD	0ffffffffH
xdata	ENDS
;	COMDAT xdata
xdata	SEGMENT
$stateUnwindMap$??$construct@VTileRow@@V1@@?$allocator_traits@V?$allocator@VTileRow@@@std@@@std@@SAXAEAV?$allocator@VTileRow@@@1@PEAVTileRow@@$$QEAV3@@Z DD 0ffffffffH
	DD	imagerel ?dtor$0@?0???$construct@VTileRow@@V1@@?$allocator_traits@V?$allocator@VTileRow@@@std@@@std@@SAXAEAV?$allocator@VTileRow@@@1@PEAVTileRow@@$$QEAV3@@Z@4HA
xdata	ENDS
;	COMDAT CONST
CONST	SEGMENT
$cppxdata$??$construct@VTileRow@@V1@@?$allocator_traits@V?$allocator@VTileRow@@@std@@@std@@SAXAEAV?$allocator@VTileRow@@@1@PEAVTileRow@@$$QEAV3@@Z DD 019930522H
	DD	01H
	DD	imagerel $stateUnwindMap$??$construct@VTileRow@@V1@@?$allocator_traits@V?$allocator@VTileRow@@@std@@@std@@SAXAEAV?$allocator@VTileRow@@@1@PEAVTileRow@@$$QEAV3@@Z
	DD	00H
	DD	00H
	DD	01H
	DD	imagerel $ip2state$??$construct@VTileRow@@V1@@?$allocator_traits@V?$allocator@VTileRow@@@std@@@std@@SAXAEAV?$allocator@VTileRow@@@1@PEAVTileRow@@$$QEAV3@@Z
	DD	00H
	DD	00H
	DD	00H
CONST	ENDS
;	COMDAT xdata
xdata	SEGMENT
$unwind$??$construct@VTileRow@@V1@@?$allocator_traits@V?$allocator@VTileRow@@@std@@@std@@SAXAEAV?$allocator@VTileRow@@@1@PEAVTileRow@@$$QEAV3@@Z DD 011111H
	DD	02209H
	DD	imagerel __CxxFrameHandler3
	DD	imagerel $cppxdata$??$construct@VTileRow@@V1@@?$allocator_traits@V?$allocator@VTileRow@@@std@@@std@@SAXAEAV?$allocator@VTileRow@@@1@PEAVTileRow@@$$QEAV3@@Z
xdata	ENDS
;	COMDAT xdata
xdata	SEGMENT
$unwind$??$_Uninitialized_copy@V?$_Vector_const_iterator@V?$_Vector_val@U?$_Simple_types@M@std@@@std@@@std@@PEAMV?$allocator@M@2@@std@@YAPEAMV?$_Vector_const_iterator@V?$_Vector_val@U?$_Simple_types@M@std@@@std@@@0@0PEAMAEAU?$_Wrap_alloc@V?$allocator@M@std@@@0@@Z DD 040a01H
	DD	06340aH
	DD	07006320aH
xdata	ENDS
;	COMDAT xdata
xdata	SEGMENT
$unwind$??$_Copy_memmove@PEAMPEAM@std@@YAPEAMPEAM00@Z DD 040a01H
	DD	06340aH
	DD	07006320aH
xdata	ENDS
;	COMDAT xdata
xdata	SEGMENT
$ip2state$??$construct@VTileRow@@V1@@?$_Wrap_alloc@V?$allocator@VTileRow@@@std@@@std@@QEAAXPEAVTileRow@@$$QEAV2@@Z DD imagerel ??$construct@VTileRow@@V1@@?$_Wrap_alloc@V?$allocator@VTileRow@@@std@@@std@@QEAAXPEAVTileRow@@$$QEAV2@@Z
	DD	0ffffffffH
xdata	ENDS
;	COMDAT xdata
xdata	SEGMENT
$stateUnwindMap$??$construct@VTileRow@@V1@@?$_Wrap_alloc@V?$allocator@VTileRow@@@std@@@std@@QEAAXPEAVTileRow@@$$QEAV2@@Z DD 0ffffffffH
	DD	imagerel ?dtor$0@?0???$construct@VTileRow@@V1@@?$_Wrap_alloc@V?$allocator@VTileRow@@@std@@@std@@QEAAXPEAVTileRow@@$$QEAV2@@Z@4HA
xdata	ENDS
;	COMDAT CONST
CONST	SEGMENT
$cppxdata$??$construct@VTileRow@@V1@@?$_Wrap_alloc@V?$allocator@VTileRow@@@std@@@std@@QEAAXPEAVTileRow@@$$QEAV2@@Z DD 019930522H
	DD	01H
	DD	imagerel $stateUnwindMap$??$construct@VTileRow@@V1@@?$_Wrap_alloc@V?$allocator@VTileRow@@@std@@@std@@QEAAXPEAVTileRow@@$$QEAV2@@Z
	DD	00H
	DD	00H
	DD	01H
	DD	imagerel $ip2state$??$construct@VTileRow@@V1@@?$_Wrap_alloc@V?$allocator@VTileRow@@@std@@@std@@QEAAXPEAVTileRow@@$$QEAV2@@Z
	DD	00H
	DD	00H
	DD	00H
CONST	ENDS
;	COMDAT xdata
xdata	SEGMENT
$unwind$??$construct@VTileRow@@V1@@?$_Wrap_alloc@V?$allocator@VTileRow@@@std@@@std@@QEAAXPEAVTileRow@@$$QEAV2@@Z DD 011111H
	DD	02209H
	DD	imagerel __CxxFrameHandler3
	DD	imagerel $cppxdata$??$construct@VTileRow@@V1@@?$_Wrap_alloc@V?$allocator@VTileRow@@@std@@@std@@QEAAXPEAVTileRow@@$$QEAV2@@Z
xdata	ENDS
;	COMDAT xdata
xdata	SEGMENT
$unwind$??$destroy@V?$basic_string@_WU?$char_traits@_W@std@@V?$allocator@_W@2@@std@@@?$allocator@V?$basic_string@_WU?$char_traits@_W@std@@V?$allocator@_W@2@@std@@@std@@QEAAXPEAV?$basic_string@_WU?$char_traits@_W@std@@V?$allocator@_W@2@@1@@Z DD 020601H
	DD	030023206H
xdata	ENDS
;	COMDAT xdata
xdata	SEGMENT
$ip2state$??$destroy@VTileRow@@@?$allocator@VTileRow@@@std@@QEAAXPEAVTileRow@@@Z DD imagerel ??$destroy@VTileRow@@@?$allocator@VTileRow@@@std@@QEAAXPEAVTileRow@@@Z
	DD	0ffffffffH
xdata	ENDS
;	COMDAT xdata
xdata	SEGMENT
$stateUnwindMap$??$destroy@VTileRow@@@?$allocator@VTileRow@@@std@@QEAAXPEAVTileRow@@@Z DD 0ffffffffH
	DD	imagerel ?dtor$0@?0???$destroy@VTileRow@@@?$allocator@VTileRow@@@std@@QEAAXPEAVTileRow@@@Z@4HA
xdata	ENDS
;	COMDAT CONST
CONST	SEGMENT
$cppxdata$??$destroy@VTileRow@@@?$allocator@VTileRow@@@std@@QEAAXPEAVTileRow@@@Z DD 019930522H
	DD	01H
	DD	imagerel $stateUnwindMap$??$destroy@VTileRow@@@?$allocator@VTileRow@@@std@@QEAAXPEAVTileRow@@@Z
	DD	00H
	DD	00H
	DD	01H
	DD	imagerel $ip2state$??$destroy@VTileRow@@@?$allocator@VTileRow@@@std@@QEAAXPEAVTileRow@@@Z
	DD	020H
	DD	00H
	DD	00H
CONST	ENDS
;	COMDAT xdata
xdata	SEGMENT
$unwind$??$destroy@VTileRow@@@?$allocator@VTileRow@@@std@@QEAAXPEAVTileRow@@@Z DD 021311H
	DD	03006520aH
	DD	imagerel __CxxFrameHandler3
	DD	imagerel $cppxdata$??$destroy@VTileRow@@@?$allocator@VTileRow@@@std@@QEAAXPEAVTileRow@@@Z
xdata	ENDS
;	COMDAT xdata
xdata	SEGMENT
$unwind$??$_Ucopy@V?$_Vector_const_iterator@V?$_Vector_val@U?$_Simple_types@M@std@@@std@@@std@@@?$vector@MV?$allocator@M@std@@@std@@IEAAPEAMV?$_Vector_const_iterator@V?$_Vector_val@U?$_Simple_types@M@std@@@std@@@1@0PEAM@Z DD 040a01H
	DD	06340aH
	DD	07006320aH
xdata	ENDS
;	COMDAT xdata
xdata	SEGMENT
$unwind$??$_Uninitialized_move_al_unchecked1@MMV?$allocator@M@std@@@std@@YAPEAMPEAM00AEAU?$_Wrap_alloc@V?$allocator@M@std@@@0@U_Really_trivial_ptr_iterator_tag@0@U?$integral_constant@_N$00@0@@Z DD 040a01H
	DD	06340aH
	DD	07006320aH
xdata	ENDS
;	COMDAT xdata
xdata	SEGMENT
$unwind$?catch$1@?0???$_Uninitialized_move_al_unchecked1@PEAVTileRow@@PEAV1@V?$allocator@VTileRow@@@std@@@std@@YAPEAVTileRow@@PEAV1@00AEAU?$_Wrap_alloc@V?$allocator@VTileRow@@@std@@@0@U_General_ptr_iterator_tag@0@U_Any_tag@0@@Z@4HA DD 020a19H
	DD	05006320aH
	DD	imagerel __CxxFrameHandler3
	DD	imagerel $cppxdata$??$_Uninitialized_move_al_unchecked1@PEAVTileRow@@PEAV1@V?$allocator@VTileRow@@@std@@@std@@YAPEAVTileRow@@PEAV1@00AEAU?$_Wrap_alloc@V?$allocator@VTileRow@@@std@@@0@U_General_ptr_iterator_tag@0@U_Any_tag@0@@Z
xdata	ENDS
;	COMDAT xdata
xdata	SEGMENT
$ip2state$??$_Uninitialized_move_al_unchecked1@PEAVTileRow@@PEAV1@V?$allocator@VTileRow@@@std@@@std@@YAPEAVTileRow@@PEAV1@00AEAU?$_Wrap_alloc@V?$allocator@VTileRow@@@std@@@0@U_General_ptr_iterator_tag@0@U_Any_tag@0@@Z DD imagerel ??$_Uninitialized_move_al_unchecked1@PEAVTileRow@@PEAV1@V?$allocator@VTileRow@@@std@@@std@@YAPEAVTileRow@@PEAV1@00AEAU?$_Wrap_alloc@V?$allocator@VTileRow@@@std@@@0@U_General_ptr_iterator_tag@0@U_Any_tag@0@@Z
	DD	0ffffffffH
	DD	imagerel ??$_Uninitialized_move_al_unchecked1@PEAVTileRow@@PEAV1@V?$allocator@VTileRow@@@std@@@std@@YAPEAVTileRow@@PEAV1@00AEAU?$_Wrap_alloc@V?$allocator@VTileRow@@@std@@@0@U_General_ptr_iterator_tag@0@U_Any_tag@0@@Z+28
	DD	00H
	DD	imagerel ??$_Uninitialized_move_al_unchecked1@PEAVTileRow@@PEAV1@V?$allocator@VTileRow@@@std@@@std@@YAPEAVTileRow@@PEAV1@00AEAU?$_Wrap_alloc@V?$allocator@VTileRow@@@std@@@0@U_General_ptr_iterator_tag@0@U_Any_tag@0@@Z+127
	DD	0ffffffffH
	DD	imagerel ?catch$1@?0???$_Uninitialized_move_al_unchecked1@PEAVTileRow@@PEAV1@V?$allocator@VTileRow@@@std@@@std@@YAPEAVTileRow@@PEAV1@00AEAU?$_Wrap_alloc@V?$allocator@VTileRow@@@std@@@0@U_General_ptr_iterator_tag@0@U_Any_tag@0@@Z@4HA
	DD	00H
	DD	imagerel ?catch$1@?0???$_Uninitialized_move_al_unchecked1@PEAVTileRow@@PEAV1@V?$allocator@VTileRow@@@std@@@std@@YAPEAVTileRow@@PEAV1@00AEAU?$_Wrap_alloc@V?$allocator@VTileRow@@@std@@@0@U_General_ptr_iterator_tag@0@U_Any_tag@0@@Z@4HA+13
	DD	02H
xdata	ENDS
;	COMDAT xdata
xdata	SEGMENT
$handlerMap$0$??$_Uninitialized_move_al_unchecked1@PEAVTileRow@@PEAV1@V?$allocator@VTileRow@@@std@@@std@@YAPEAVTileRow@@PEAV1@00AEAU?$_Wrap_alloc@V?$allocator@VTileRow@@@std@@@0@U_General_ptr_iterator_tag@0@U_Any_tag@0@@Z DD 00H
	DD	00H
	DD	00H
	DD	imagerel ?catch$1@?0???$_Uninitialized_move_al_unchecked1@PEAVTileRow@@PEAV1@V?$allocator@VTileRow@@@std@@@std@@YAPEAVTileRow@@PEAV1@00AEAU?$_Wrap_alloc@V?$allocator@VTileRow@@@std@@@0@U_General_ptr_iterator_tag@0@U_Any_tag@0@@Z@4HA
	DD	038H
xdata	ENDS
;	COMDAT xdata
xdata	SEGMENT
$tryMap$??$_Uninitialized_move_al_unchecked1@PEAVTileRow@@PEAV1@V?$allocator@VTileRow@@@std@@@std@@YAPEAVTileRow@@PEAV1@00AEAU?$_Wrap_alloc@V?$allocator@VTileRow@@@std@@@0@U_General_ptr_iterator_tag@0@U_Any_tag@0@@Z DD 00H
	DD	01H
	DD	02H
	DD	01H
	DD	imagerel $handlerMap$0$??$_Uninitialized_move_al_unchecked1@PEAVTileRow@@PEAV1@V?$allocator@VTileRow@@@std@@@std@@YAPEAVTileRow@@PEAV1@00AEAU?$_Wrap_alloc@V?$allocator@VTileRow@@@std@@@0@U_General_ptr_iterator_tag@0@U_Any_tag@0@@Z
xdata	ENDS
;	COMDAT xdata
xdata	SEGMENT
$stateUnwindMap$??$_Uninitialized_move_al_unchecked1@PEAVTileRow@@PEAV1@V?$allocator@VTileRow@@@std@@@std@@YAPEAVTileRow@@PEAV1@00AEAU?$_Wrap_alloc@V?$allocator@VTileRow@@@std@@@0@U_General_ptr_iterator_tag@0@U_Any_tag@0@@Z DD 0ffffffffH
	DD	00H
	DD	00H
	DD	imagerel ?dtor$0@?0???$_Uninitialized_move_al_unchecked1@PEAVTileRow@@PEAV1@V?$allocator@VTileRow@@@std@@@std@@YAPEAVTileRow@@PEAV1@00AEAU?$_Wrap_alloc@V?$allocator@VTileRow@@@std@@@0@U_General_ptr_iterator_tag@0@U_Any_tag@0@@Z@4HA
	DD	0ffffffffH
	DD	00H
xdata	ENDS
;	COMDAT CONST
CONST	SEGMENT
$cppxdata$??$_Uninitialized_move_al_unchecked1@PEAVTileRow@@PEAV1@V?$allocator@VTileRow@@@std@@@std@@YAPEAVTileRow@@PEAV1@00AEAU?$_Wrap_alloc@V?$allocator@VTileRow@@@std@@@0@U_General_ptr_iterator_tag@0@U_Any_tag@0@@Z DD 019930522H
	DD	03H
	DD	imagerel $stateUnwindMap$??$_Uninitialized_move_al_unchecked1@PEAVTileRow@@PEAV1@V?$allocator@VTileRow@@@std@@@std@@YAPEAVTileRow@@PEAV1@00AEAU?$_Wrap_alloc@V?$allocator@VTileRow@@@std@@@0@U_General_ptr_iterator_tag@0@U_Any_tag@0@@Z
	DD	01H
	DD	imagerel $tryMap$??$_Uninitialized_move_al_unchecked1@PEAVTileRow@@PEAV1@V?$allocator@VTileRow@@@std@@@std@@YAPEAVTileRow@@PEAV1@00AEAU?$_Wrap_alloc@V?$allocator@VTileRow@@@std@@@0@U_General_ptr_iterator_tag@0@U_Any_tag@0@@Z
	DD	05H
	DD	imagerel $ip2state$??$_Uninitialized_move_al_unchecked1@PEAVTileRow@@PEAV1@V?$allocator@VTileRow@@@std@@@std@@YAPEAVTileRow@@PEAV1@00AEAU?$_Wrap_alloc@V?$allocator@VTileRow@@@std@@@0@U_General_ptr_iterator_tag@0@U_Any_tag@0@@Z
	DD	030H
	DD	00H
	DD	00H
CONST	ENDS
;	COMDAT xdata
xdata	SEGMENT
$unwind$??$_Uninitialized_move_al_unchecked1@PEAVTileRow@@PEAV1@V?$allocator@VTileRow@@@std@@@std@@YAPEAVTileRow@@PEAV1@00AEAU?$_Wrap_alloc@V?$allocator@VTileRow@@@std@@@0@U_General_ptr_iterator_tag@0@U_Any_tag@0@@Z DD 011719H
	DD	0820eH
	DD	imagerel __CxxFrameHandler3
	DD	imagerel $cppxdata$??$_Uninitialized_move_al_unchecked1@PEAVTileRow@@PEAV1@V?$allocator@VTileRow@@@std@@@std@@YAPEAVTileRow@@PEAV1@00AEAU?$_Wrap_alloc@V?$allocator@VTileRow@@@std@@@0@U_General_ptr_iterator_tag@0@U_Any_tag@0@@Z
xdata	ENDS
;	COMDAT xdata
xdata	SEGMENT
$unwind$??$destroy@V?$basic_string@_WU?$char_traits@_W@std@@V?$allocator@_W@2@@std@@@?$allocator_traits@V?$allocator@V?$basic_string@_WU?$char_traits@_W@std@@V?$allocator@_W@2@@std@@@std@@@std@@SAXAEAV?$allocator@V?$basic_string@_WU?$char_traits@_W@std@@V?$allocator@_W@2@@std@@@1@PEAV?$basic_string@_WU?$char_traits@_W@std@@V?$allocator@_W@2@@1@@Z DD 020601H
	DD	030023206H
xdata	ENDS
;	COMDAT xdata
xdata	SEGMENT
$unwind$?catch$0@?0???$_Uninitialized_move_al_unchecked1@PEAV?$basic_string@_WU?$char_traits@_W@std@@V?$allocator@_W@2@@std@@PEAV12@V?$allocator@V?$basic_string@_WU?$char_traits@_W@std@@V?$allocator@_W@2@@std@@@2@@std@@YAPEAV?$basic_string@_WU?$char_traits@_W@std@@V?$allocator@_W@2@@0@PEAV10@00AEAU?$_Wrap_alloc@V?$allocator@V?$basic_string@_WU?$char_traits@_W@std@@V?$allocator@_W@2@@std@@@std@@@0@U_General_ptr_iterator_tag@0@U_Any_tag@0@@Z@4HA DD 020a19H
	DD	05006320aH
	DD	imagerel __CxxFrameHandler3
	DD	imagerel $cppxdata$??$_Uninitialized_move_al_unchecked1@PEAV?$basic_string@_WU?$char_traits@_W@std@@V?$allocator@_W@2@@std@@PEAV12@V?$allocator@V?$basic_string@_WU?$char_traits@_W@std@@V?$allocator@_W@2@@std@@@2@@std@@YAPEAV?$basic_string@_WU?$char_traits@_W@std@@V?$allocator@_W@2@@0@PEAV10@00AEAU?$_Wrap_alloc@V?$allocator@V?$basic_string@_WU?$char_traits@_W@std@@V?$allocator@_W@2@@std@@@std@@@0@U_General_ptr_iterator_tag@0@U_Any_tag@0@@Z
xdata	ENDS
;	COMDAT xdata
xdata	SEGMENT
$ip2state$??$_Uninitialized_move_al_unchecked1@PEAV?$basic_string@_WU?$char_traits@_W@std@@V?$allocator@_W@2@@std@@PEAV12@V?$allocator@V?$basic_string@_WU?$char_traits@_W@std@@V?$allocator@_W@2@@std@@@2@@std@@YAPEAV?$basic_string@_WU?$char_traits@_W@std@@V?$allocator@_W@2@@0@PEAV10@00AEAU?$_Wrap_alloc@V?$allocator@V?$basic_string@_WU?$char_traits@_W@std@@V?$allocator@_W@2@@std@@@std@@@0@U_General_ptr_iterator_tag@0@U_Any_tag@0@@Z DD imagerel ??$_Uninitialized_move_al_unchecked1@PEAV?$basic_string@_WU?$char_traits@_W@std@@V?$allocator@_W@2@@std@@PEAV12@V?$allocator@V?$basic_string@_WU?$char_traits@_W@std@@V?$allocator@_W@2@@std@@@2@@std@@YAPEAV?$basic_string@_WU?$char_traits@_W@std@@V?$allocator@_W@2@@0@PEAV10@00AEAU?$_Wrap_alloc@V?$allocator@V?$basic_string@_WU?$char_traits@_W@std@@V?$allocator@_W@2@@std@@@std@@@0@U_General_ptr_iterator_tag@0@U_Any_tag@0@@Z
	DD	0ffffffffH
	DD	imagerel ??$_Uninitialized_move_al_unchecked1@PEAV?$basic_string@_WU?$char_traits@_W@std@@V?$allocator@_W@2@@std@@PEAV12@V?$allocator@V?$basic_string@_WU?$char_traits@_W@std@@V?$allocator@_W@2@@std@@@2@@std@@YAPEAV?$basic_string@_WU?$char_traits@_W@std@@V?$allocator@_W@2@@0@PEAV10@00AEAU?$_Wrap_alloc@V?$allocator@V?$basic_string@_WU?$char_traits@_W@std@@V?$allocator@_W@2@@std@@@std@@@0@U_General_ptr_iterator_tag@0@U_Any_tag@0@@Z+46
	DD	00H
	DD	imagerel ??$_Uninitialized_move_al_unchecked1@PEAV?$basic_string@_WU?$char_traits@_W@std@@V?$allocator@_W@2@@std@@PEAV12@V?$allocator@V?$basic_string@_WU?$char_traits@_W@std@@V?$allocator@_W@2@@std@@@2@@std@@YAPEAV?$basic_string@_WU?$char_traits@_W@std@@V?$allocator@_W@2@@0@PEAV10@00AEAU?$_Wrap_alloc@V?$allocator@V?$basic_string@_WU?$char_traits@_W@std@@V?$allocator@_W@2@@std@@@std@@@0@U_General_ptr_iterator_tag@0@U_Any_tag@0@@Z+129
	DD	0ffffffffH
	DD	imagerel ?catch$0@?0???$_Uninitialized_move_al_unchecked1@PEAV?$basic_string@_WU?$char_traits@_W@std@@V?$allocator@_W@2@@std@@PEAV12@V?$allocator@V?$basic_string@_WU?$char_traits@_W@std@@V?$allocator@_W@2@@std@@@2@@std@@YAPEAV?$basic_string@_WU?$char_traits@_W@std@@V?$allocator@_W@2@@0@PEAV10@00AEAU?$_Wrap_alloc@V?$allocator@V?$basic_string@_WU?$char_traits@_W@std@@V?$allocator@_W@2@@std@@@std@@@0@U_General_ptr_iterator_tag@0@U_Any_tag@0@@Z@4HA
	DD	00H
	DD	imagerel ?catch$0@?0???$_Uninitialized_move_al_unchecked1@PEAV?$basic_string@_WU?$char_traits@_W@std@@V?$allocator@_W@2@@std@@PEAV12@V?$allocator@V?$basic_string@_WU?$char_traits@_W@std@@V?$allocator@_W@2@@std@@@2@@std@@YAPEAV?$basic_string@_WU?$char_traits@_W@std@@V?$allocator@_W@2@@0@PEAV10@00AEAU?$_Wrap_alloc@V?$allocator@V?$basic_string@_WU?$char_traits@_W@std@@V?$allocator@_W@2@@std@@@std@@@0@U_General_ptr_iterator_tag@0@U_Any_tag@0@@Z@4HA+13
	DD	01H
xdata	ENDS
;	COMDAT xdata
xdata	SEGMENT
$handlerMap$0$??$_Uninitialized_move_al_unchecked1@PEAV?$basic_string@_WU?$char_traits@_W@std@@V?$allocator@_W@2@@std@@PEAV12@V?$allocator@V?$basic_string@_WU?$char_traits@_W@std@@V?$allocator@_W@2@@std@@@2@@std@@YAPEAV?$basic_string@_WU?$char_traits@_W@std@@V?$allocator@_W@2@@0@PEAV10@00AEAU?$_Wrap_alloc@V?$allocator@V?$basic_string@_WU?$char_traits@_W@std@@V?$allocator@_W@2@@std@@@std@@@0@U_General_ptr_iterator_tag@0@U_Any_tag@0@@Z DD 00H
	DD	00H
	DD	00H
	DD	imagerel ?catch$0@?0???$_Uninitialized_move_al_unchecked1@PEAV?$basic_string@_WU?$char_traits@_W@std@@V?$allocator@_W@2@@std@@PEAV12@V?$allocator@V?$basic_string@_WU?$char_traits@_W@std@@V?$allocator@_W@2@@std@@@2@@std@@YAPEAV?$basic_string@_WU?$char_traits@_W@std@@V?$allocator@_W@2@@0@PEAV10@00AEAU?$_Wrap_alloc@V?$allocator@V?$basic_string@_WU?$char_traits@_W@std@@V?$allocator@_W@2@@std@@@std@@@0@U_General_ptr_iterator_tag@0@U_Any_tag@0@@Z@4HA
	DD	038H
xdata	ENDS
;	COMDAT xdata
xdata	SEGMENT
$tryMap$??$_Uninitialized_move_al_unchecked1@PEAV?$basic_string@_WU?$char_traits@_W@std@@V?$allocator@_W@2@@std@@PEAV12@V?$allocator@V?$basic_string@_WU?$char_traits@_W@std@@V?$allocator@_W@2@@std@@@2@@std@@YAPEAV?$basic_string@_WU?$char_traits@_W@std@@V?$allocator@_W@2@@0@PEAV10@00AEAU?$_Wrap_alloc@V?$allocator@V?$basic_string@_WU?$char_traits@_W@std@@V?$allocator@_W@2@@std@@@std@@@0@U_General_ptr_iterator_tag@0@U_Any_tag@0@@Z DD 00H
	DD	00H
	DD	01H
	DD	01H
	DD	imagerel $handlerMap$0$??$_Uninitialized_move_al_unchecked1@PEAV?$basic_string@_WU?$char_traits@_W@std@@V?$allocator@_W@2@@std@@PEAV12@V?$allocator@V?$basic_string@_WU?$char_traits@_W@std@@V?$allocator@_W@2@@std@@@2@@std@@YAPEAV?$basic_string@_WU?$char_traits@_W@std@@V?$allocator@_W@2@@0@PEAV10@00AEAU?$_Wrap_alloc@V?$allocator@V?$basic_string@_WU?$char_traits@_W@std@@V?$allocator@_W@2@@std@@@std@@@0@U_General_ptr_iterator_tag@0@U_Any_tag@0@@Z
xdata	ENDS
;	COMDAT xdata
xdata	SEGMENT
$stateUnwindMap$??$_Uninitialized_move_al_unchecked1@PEAV?$basic_string@_WU?$char_traits@_W@std@@V?$allocator@_W@2@@std@@PEAV12@V?$allocator@V?$basic_string@_WU?$char_traits@_W@std@@V?$allocator@_W@2@@std@@@2@@std@@YAPEAV?$basic_string@_WU?$char_traits@_W@std@@V?$allocator@_W@2@@0@PEAV10@00AEAU?$_Wrap_alloc@V?$allocator@V?$basic_string@_WU?$char_traits@_W@std@@V?$allocator@_W@2@@std@@@std@@@0@U_General_ptr_iterator_tag@0@U_Any_tag@0@@Z DD 0ffffffffH
	DD	00H
	DD	0ffffffffH
	DD	00H
xdata	ENDS
;	COMDAT CONST
CONST	SEGMENT
$cppxdata$??$_Uninitialized_move_al_unchecked1@PEAV?$basic_string@_WU?$char_traits@_W@std@@V?$allocator@_W@2@@std@@PEAV12@V?$allocator@V?$basic_string@_WU?$char_traits@_W@std@@V?$allocator@_W@2@@std@@@2@@std@@YAPEAV?$basic_string@_WU?$char_traits@_W@std@@V?$allocator@_W@2@@0@PEAV10@00AEAU?$_Wrap_alloc@V?$allocator@V?$basic_string@_WU?$char_traits@_W@std@@V?$allocator@_W@2@@std@@@std@@@0@U_General_ptr_iterator_tag@0@U_Any_tag@0@@Z DD 019930522H
	DD	02H
	DD	imagerel $stateUnwindMap$??$_Uninitialized_move_al_unchecked1@PEAV?$basic_string@_WU?$char_traits@_W@std@@V?$allocator@_W@2@@std@@PEAV12@V?$allocator@V?$basic_string@_WU?$char_traits@_W@std@@V?$allocator@_W@2@@std@@@2@@std@@YAPEAV?$basic_string@_WU?$char_traits@_W@std@@V?$allocator@_W@2@@0@PEAV10@00AEAU?$_Wrap_alloc@V?$allocator@V?$basic_string@_WU?$char_traits@_W@std@@V?$allocator@_W@2@@std@@@std@@@0@U_General_ptr_iterator_tag@0@U_Any_tag@0@@Z
	DD	01H
	DD	imagerel $tryMap$??$_Uninitialized_move_al_unchecked1@PEAV?$basic_string@_WU?$char_traits@_W@std@@V?$allocator@_W@2@@std@@PEAV12@V?$allocator@V?$basic_string@_WU?$char_traits@_W@std@@V?$allocator@_W@2@@std@@@2@@std@@YAPEAV?$basic_string@_WU?$char_traits@_W@std@@V?$allocator@_W@2@@0@PEAV10@00AEAU?$_Wrap_alloc@V?$allocator@V?$basic_string@_WU?$char_traits@_W@std@@V?$allocator@_W@2@@std@@@std@@@0@U_General_ptr_iterator_tag@0@U_Any_tag@0@@Z
	DD	05H
	DD	imagerel $ip2state$??$_Uninitialized_move_al_unchecked1@PEAV?$basic_string@_WU?$char_traits@_W@std@@V?$allocator@_W@2@@std@@PEAV12@V?$allocator@V?$basic_string@_WU?$char_traits@_W@std@@V?$allocator@_W@2@@std@@@2@@std@@YAPEAV?$basic_string@_WU?$char_traits@_W@std@@V?$allocator@_W@2@@0@PEAV10@00AEAU?$_Wrap_alloc@V?$allocator@V?$basic_string@_WU?$char_traits@_W@std@@V?$allocator@_W@2@@std@@@std@@@0@U_General_ptr_iterator_tag@0@U_Any_tag@0@@Z
	DD	030H
	DD	00H
	DD	00H
CONST	ENDS
;	COMDAT xdata
xdata	SEGMENT
$unwind$??$_Uninitialized_move_al_unchecked1@PEAV?$basic_string@_WU?$char_traits@_W@std@@V?$allocator@_W@2@@std@@PEAV12@V?$allocator@V?$basic_string@_WU?$char_traits@_W@std@@V?$allocator@_W@2@@std@@@2@@std@@YAPEAV?$basic_string@_WU?$char_traits@_W@std@@V?$allocator@_W@2@@0@PEAV10@00AEAU?$_Wrap_alloc@V?$allocator@V?$basic_string@_WU?$char_traits@_W@std@@V?$allocator@_W@2@@std@@@std@@@0@U_General_ptr_iterator_tag@0@U_Any_tag@0@@Z DD 062019H
	DD	0d3420H
	DD	0e00e7212H
	DD	0600b700cH
	DD	imagerel __CxxFrameHandler3
	DD	imagerel $cppxdata$??$_Uninitialized_move_al_unchecked1@PEAV?$basic_string@_WU?$char_traits@_W@std@@V?$allocator@_W@2@@std@@PEAV12@V?$allocator@V?$basic_string@_WU?$char_traits@_W@std@@V?$allocator@_W@2@@std@@@2@@std@@YAPEAV?$basic_string@_WU?$char_traits@_W@std@@V?$allocator@_W@2@@0@PEAV10@00AEAU?$_Wrap_alloc@V?$allocator@V?$basic_string@_WU?$char_traits@_W@std@@V?$allocator@_W@2@@std@@@std@@@0@U_General_ptr_iterator_tag@0@U_Any_tag@0@@Z
xdata	ENDS
;	COMDAT xdata
xdata	SEGMENT
$ip2state$??$destroy@VTileRow@@@?$allocator_traits@V?$allocator@VTileRow@@@std@@@std@@SAXAEAV?$allocator@VTileRow@@@1@PEAVTileRow@@@Z DD imagerel ??$destroy@VTileRow@@@?$allocator_traits@V?$allocator@VTileRow@@@std@@@std@@SAXAEAV?$allocator@VTileRow@@@1@PEAVTileRow@@@Z
	DD	0ffffffffH
xdata	ENDS
;	COMDAT xdata
xdata	SEGMENT
$stateUnwindMap$??$destroy@VTileRow@@@?$allocator_traits@V?$allocator@VTileRow@@@std@@@std@@SAXAEAV?$allocator@VTileRow@@@1@PEAVTileRow@@@Z DD 0ffffffffH
	DD	imagerel ?dtor$0@?0???$destroy@VTileRow@@@?$allocator_traits@V?$allocator@VTileRow@@@std@@@std@@SAXAEAV?$allocator@VTileRow@@@1@PEAVTileRow@@@Z@4HA
xdata	ENDS
;	COMDAT CONST
CONST	SEGMENT
$cppxdata$??$destroy@VTileRow@@@?$allocator_traits@V?$allocator@VTileRow@@@std@@@std@@SAXAEAV?$allocator@VTileRow@@@1@PEAVTileRow@@@Z DD 019930522H
	DD	01H
	DD	imagerel $stateUnwindMap$??$destroy@VTileRow@@@?$allocator_traits@V?$allocator@VTileRow@@@std@@@std@@SAXAEAV?$allocator@VTileRow@@@1@PEAVTileRow@@@Z
	DD	00H
	DD	00H
	DD	01H
	DD	imagerel $ip2state$??$destroy@VTileRow@@@?$allocator_traits@V?$allocator@VTileRow@@@std@@@std@@SAXAEAV?$allocator@VTileRow@@@1@PEAVTileRow@@@Z
	DD	020H
	DD	00H
	DD	00H
CONST	ENDS
;	COMDAT xdata
xdata	SEGMENT
$unwind$??$destroy@VTileRow@@@?$allocator_traits@V?$allocator@VTileRow@@@std@@@std@@SAXAEAV?$allocator@VTileRow@@@1@PEAVTileRow@@@Z DD 021311H
	DD	03006520aH
	DD	imagerel __CxxFrameHandler3
	DD	imagerel $cppxdata$??$destroy@VTileRow@@@?$allocator_traits@V?$allocator@VTileRow@@@std@@@std@@SAXAEAV?$allocator@VTileRow@@@1@PEAVTileRow@@@Z
xdata	ENDS
;	COMDAT xdata
xdata	SEGMENT
$unwind$??$_Uninitialized_move_al_unchecked@PEAMPEAMV?$allocator@M@std@@@std@@YAPEAMPEAM00AEAU?$_Wrap_alloc@V?$allocator@M@std@@@0@@Z DD 040a01H
	DD	06340aH
	DD	07006320aH
xdata	ENDS
;	COMDAT xdata
xdata	SEGMENT
$unwind$??$_Uninitialized_move_al_unchecked@PEAVTileRow@@PEAV1@V?$allocator@VTileRow@@@std@@@std@@YAPEAVTileRow@@PEAV1@00AEAU?$_Wrap_alloc@V?$allocator@VTileRow@@@std@@@0@@Z DD 010401H
	DD	08204H
xdata	ENDS
;	COMDAT xdata
xdata	SEGMENT
$unwind$??$destroy@V?$basic_string@_WU?$char_traits@_W@std@@V?$allocator@_W@2@@std@@@?$_Wrap_alloc@V?$allocator@V?$basic_string@_WU?$char_traits@_W@std@@V?$allocator@_W@2@@std@@@std@@@std@@QEAAXPEAV?$basic_string@_WU?$char_traits@_W@std@@V?$allocator@_W@2@@1@@Z DD 020601H
	DD	030023206H
xdata	ENDS
;	COMDAT xdata
xdata	SEGMENT
$unwind$??$_Uninitialized_move_al_unchecked@PEAV?$basic_string@_WU?$char_traits@_W@std@@V?$allocator@_W@2@@std@@PEAV12@V?$allocator@V?$basic_string@_WU?$char_traits@_W@std@@V?$allocator@_W@2@@std@@@2@@std@@YAPEAV?$basic_string@_WU?$char_traits@_W@std@@V?$allocator@_W@2@@0@PEAV10@00AEAU?$_Wrap_alloc@V?$allocator@V?$basic_string@_WU?$char_traits@_W@std@@V?$allocator@_W@2@@std@@@std@@@0@@Z DD 010401H
	DD	08204H
xdata	ENDS
;	COMDAT xdata
xdata	SEGMENT
$ip2state$??$destroy@VTileRow@@@?$_Wrap_alloc@V?$allocator@VTileRow@@@std@@@std@@QEAAXPEAVTileRow@@@Z DD imagerel ??$destroy@VTileRow@@@?$_Wrap_alloc@V?$allocator@VTileRow@@@std@@@std@@QEAAXPEAVTileRow@@@Z
	DD	0ffffffffH
xdata	ENDS
;	COMDAT xdata
xdata	SEGMENT
$stateUnwindMap$??$destroy@VTileRow@@@?$_Wrap_alloc@V?$allocator@VTileRow@@@std@@@std@@QEAAXPEAVTileRow@@@Z DD 0ffffffffH
	DD	imagerel ?dtor$0@?0???$destroy@VTileRow@@@?$_Wrap_alloc@V?$allocator@VTileRow@@@std@@@std@@QEAAXPEAVTileRow@@@Z@4HA
xdata	ENDS
;	COMDAT CONST
CONST	SEGMENT
$cppxdata$??$destroy@VTileRow@@@?$_Wrap_alloc@V?$allocator@VTileRow@@@std@@@std@@QEAAXPEAVTileRow@@@Z DD 019930522H
	DD	01H
	DD	imagerel $stateUnwindMap$??$destroy@VTileRow@@@?$_Wrap_alloc@V?$allocator@VTileRow@@@std@@@std@@QEAAXPEAVTileRow@@@Z
	DD	00H
	DD	00H
	DD	01H
	DD	imagerel $ip2state$??$destroy@VTileRow@@@?$_Wrap_alloc@V?$allocator@VTileRow@@@std@@@std@@QEAAXPEAVTileRow@@@Z
	DD	020H
	DD	00H
	DD	00H
CONST	ENDS
;	COMDAT xdata
xdata	SEGMENT
$unwind$??$destroy@VTileRow@@@?$_Wrap_alloc@V?$allocator@VTileRow@@@std@@@std@@QEAAXPEAVTileRow@@@Z DD 021311H
	DD	03006520aH
	DD	imagerel __CxxFrameHandler3
	DD	imagerel $cppxdata$??$destroy@VTileRow@@@?$_Wrap_alloc@V?$allocator@VTileRow@@@std@@@std@@QEAAXPEAVTileRow@@@Z
xdata	ENDS
;	COMDAT xdata
xdata	SEGMENT
$unwind$?dtor$0@?0???$construct@VTileRow@@AEBV1@@?$allocator@VTileRow@@@std@@QEAAXPEAVTileRow@@AEBV2@@Z@4HA DD 020601H
	DD	050023206H
xdata	ENDS
;	COMDAT xdata
xdata	SEGMENT
$ip2state$??$construct@VTileRow@@AEBV1@@?$allocator@VTileRow@@@std@@QEAAXPEAVTileRow@@AEBV2@@Z DD imagerel ??$construct@VTileRow@@AEBV1@@?$allocator@VTileRow@@@std@@QEAAXPEAVTileRow@@AEBV2@@Z
	DD	0ffffffffH
	DD	imagerel ??$construct@VTileRow@@AEBV1@@?$allocator@VTileRow@@@std@@QEAAXPEAVTileRow@@AEBV2@@Z+26
	DD	00H
	DD	imagerel ??$construct@VTileRow@@AEBV1@@?$allocator@VTileRow@@@std@@QEAAXPEAVTileRow@@AEBV2@@Z+57
	DD	0ffffffffH
xdata	ENDS
;	COMDAT xdata
xdata	SEGMENT
$stateUnwindMap$??$construct@VTileRow@@AEBV1@@?$allocator@VTileRow@@@std@@QEAAXPEAVTileRow@@AEBV2@@Z DD 0ffffffffH
	DD	imagerel ?dtor$0@?0???$construct@VTileRow@@AEBV1@@?$allocator@VTileRow@@@std@@QEAAXPEAVTileRow@@AEBV2@@Z@4HA
	DD	00H
	DD	imagerel ?dtor$1@?0???$construct@VTileRow@@AEBV1@@?$allocator@VTileRow@@@std@@QEAAXPEAVTileRow@@AEBV2@@Z@4HA
xdata	ENDS
;	COMDAT CONST
CONST	SEGMENT
$cppxdata$??$construct@VTileRow@@AEBV1@@?$allocator@VTileRow@@@std@@QEAAXPEAVTileRow@@AEBV2@@Z DD 019930522H
	DD	02H
	DD	imagerel $stateUnwindMap$??$construct@VTileRow@@AEBV1@@?$allocator@VTileRow@@@std@@QEAAXPEAVTileRow@@AEBV2@@Z
	DD	00H
	DD	00H
	DD	03H
	DD	imagerel $ip2state$??$construct@VTileRow@@AEBV1@@?$allocator@VTileRow@@@std@@QEAAXPEAVTileRow@@AEBV2@@Z
	DD	020H
	DD	00H
	DD	00H
CONST	ENDS
;	COMDAT xdata
xdata	SEGMENT
$unwind$??$construct@VTileRow@@AEBV1@@?$allocator@VTileRow@@@std@@QEAAXPEAVTileRow@@AEBV2@@Z DD 011211H
	DD	06209H
	DD	imagerel __CxxFrameHandler3
	DD	imagerel $cppxdata$??$construct@VTileRow@@AEBV1@@?$allocator@VTileRow@@@std@@QEAAXPEAVTileRow@@AEBV2@@Z
xdata	ENDS
;	COMDAT xdata
xdata	SEGMENT
$unwind$?dtor$0@?0???$construct@VTileRow@@AEAV1@@?$allocator@VTileRow@@@std@@QEAAXPEAVTileRow@@AEAV2@@Z@4HA DD 020601H
	DD	050023206H
xdata	ENDS
;	COMDAT xdata
xdata	SEGMENT
$ip2state$??$construct@VTileRow@@AEAV1@@?$allocator@VTileRow@@@std@@QEAAXPEAVTileRow@@AEAV2@@Z DD imagerel ??$construct@VTileRow@@AEAV1@@?$allocator@VTileRow@@@std@@QEAAXPEAVTileRow@@AEAV2@@Z
	DD	0ffffffffH
	DD	imagerel ??$construct@VTileRow@@AEAV1@@?$allocator@VTileRow@@@std@@QEAAXPEAVTileRow@@AEAV2@@Z+26
	DD	00H
	DD	imagerel ??$construct@VTileRow@@AEAV1@@?$allocator@VTileRow@@@std@@QEAAXPEAVTileRow@@AEAV2@@Z+57
	DD	0ffffffffH
xdata	ENDS
;	COMDAT xdata
xdata	SEGMENT
$stateUnwindMap$??$construct@VTileRow@@AEAV1@@?$allocator@VTileRow@@@std@@QEAAXPEAVTileRow@@AEAV2@@Z DD 0ffffffffH
	DD	imagerel ?dtor$0@?0???$construct@VTileRow@@AEAV1@@?$allocator@VTileRow@@@std@@QEAAXPEAVTileRow@@AEAV2@@Z@4HA
	DD	00H
	DD	imagerel ?dtor$1@?0???$construct@VTileRow@@AEAV1@@?$allocator@VTileRow@@@std@@QEAAXPEAVTileRow@@AEAV2@@Z@4HA
xdata	ENDS
;	COMDAT CONST
CONST	SEGMENT
$cppxdata$??$construct@VTileRow@@AEAV1@@?$allocator@VTileRow@@@std@@QEAAXPEAVTileRow@@AEAV2@@Z DD 019930522H
	DD	02H
	DD	imagerel $stateUnwindMap$??$construct@VTileRow@@AEAV1@@?$allocator@VTileRow@@@std@@QEAAXPEAVTileRow@@AEAV2@@Z
	DD	00H
	DD	00H
	DD	03H
	DD	imagerel $ip2state$??$construct@VTileRow@@AEAV1@@?$allocator@VTileRow@@@std@@QEAAXPEAVTileRow@@AEAV2@@Z
	DD	020H
	DD	00H
	DD	00H
CONST	ENDS
;	COMDAT xdata
xdata	SEGMENT
$unwind$??$construct@VTileRow@@AEAV1@@?$allocator@VTileRow@@@std@@QEAAXPEAVTileRow@@AEAV2@@Z DD 011211H
	DD	06209H
	DD	imagerel __CxxFrameHandler3
	DD	imagerel $cppxdata$??$construct@VTileRow@@AEAV1@@?$allocator@VTileRow@@@std@@QEAAXPEAVTileRow@@AEAV2@@Z
xdata	ENDS
;	COMDAT xdata
xdata	SEGMENT
$unwind$??$_Uninitialized_move@PEAMPEAMV?$allocator@M@std@@@std@@YAPEAMPEAM00AEAU?$_Wrap_alloc@V?$allocator@M@std@@@0@@Z DD 040a01H
	DD	06340aH
	DD	07006320aH
xdata	ENDS
;	COMDAT xdata
xdata	SEGMENT
$unwind$??$_Uninitialized_move@PEAVTileRow@@PEAV1@V?$allocator@VTileRow@@@std@@@std@@YAPEAVTileRow@@PEAV1@00AEAU?$_Wrap_alloc@V?$allocator@VTileRow@@@std@@@0@@Z DD 010401H
	DD	06204H
xdata	ENDS
;	COMDAT xdata
xdata	SEGMENT
$chain$4$??$_Destroy_range1@V?$allocator@V?$basic_string@_WU?$char_traits@_W@std@@V?$allocator@_W@2@@std@@@std@@PEAV?$basic_string@_WU?$char_traits@_W@std@@V?$allocator@_W@2@@2@@std@@YAXPEAV?$basic_string@_WU?$char_traits@_W@std@@V?$allocator@_W@2@@0@0AEAU?$_Wrap_alloc@V?$allocator@V?$basic_string@_WU?$char_traits@_W@std@@V?$allocator@_W@2@@std@@@std@@@0@U?$integral_constant@_N$0A@@0@@Z DD 060021H
	DD	086400H
	DD	075400H
	DD	063400H
	DD	imagerel $LN130
	DD	imagerel $LN130+14
	DD	imagerel $unwind$??$_Destroy_range1@V?$allocator@V?$basic_string@_WU?$char_traits@_W@std@@V?$allocator@_W@2@@std@@@std@@PEAV?$basic_string@_WU?$char_traits@_W@std@@V?$allocator@_W@2@@2@@std@@YAXPEAV?$basic_string@_WU?$char_traits@_W@std@@V?$allocator@_W@2@@0@0AEAU?$_Wrap_alloc@V?$allocator@V?$basic_string@_WU?$char_traits@_W@std@@V?$allocator@_W@2@@std@@@std@@@0@U?$integral_constant@_N$0A@@0@@Z
xdata	ENDS
;	COMDAT xdata
xdata	SEGMENT
$chain$3$??$_Destroy_range1@V?$allocator@V?$basic_string@_WU?$char_traits@_W@std@@V?$allocator@_W@2@@std@@@std@@PEAV?$basic_string@_WU?$char_traits@_W@std@@V?$allocator@_W@2@@2@@std@@YAXPEAV?$basic_string@_WU?$char_traits@_W@std@@V?$allocator@_W@2@@0@0AEAU?$_Wrap_alloc@V?$allocator@V?$basic_string@_WU?$char_traits@_W@std@@V?$allocator@_W@2@@std@@@std@@@0@U?$integral_constant@_N$0A@@0@@Z DD 021H
	DD	imagerel $LN130
	DD	imagerel $LN130+14
	DD	imagerel $unwind$??$_Destroy_range1@V?$allocator@V?$basic_string@_WU?$char_traits@_W@std@@V?$allocator@_W@2@@std@@@std@@PEAV?$basic_string@_WU?$char_traits@_W@std@@V?$allocator@_W@2@@2@@std@@YAXPEAV?$basic_string@_WU?$char_traits@_W@std@@V?$allocator@_W@2@@0@0AEAU?$_Wrap_alloc@V?$allocator@V?$basic_string@_WU?$char_traits@_W@std@@V?$allocator@_W@2@@std@@@std@@@0@U?$integral_constant@_N$0A@@0@@Z
xdata	ENDS
;	COMDAT xdata
xdata	SEGMENT
$chain$2$??$_Destroy_range1@V?$allocator@V?$basic_string@_WU?$char_traits@_W@std@@V?$allocator@_W@2@@std@@@std@@PEAV?$basic_string@_WU?$char_traits@_W@std@@V?$allocator@_W@2@@2@@std@@YAXPEAV?$basic_string@_WU?$char_traits@_W@std@@V?$allocator@_W@2@@0@0AEAU?$_Wrap_alloc@V?$allocator@V?$basic_string@_WU?$char_traits@_W@std@@V?$allocator@_W@2@@std@@@std@@@0@U?$integral_constant@_N$0A@@0@@Z DD 061621H
	DD	086416H
	DD	07540dH
	DD	063405H
	DD	imagerel $LN130
	DD	imagerel $LN130+14
	DD	imagerel $unwind$??$_Destroy_range1@V?$allocator@V?$basic_string@_WU?$char_traits@_W@std@@V?$allocator@_W@2@@std@@@std@@PEAV?$basic_string@_WU?$char_traits@_W@std@@V?$allocator@_W@2@@2@@std@@YAXPEAV?$basic_string@_WU?$char_traits@_W@std@@V?$allocator@_W@2@@0@0AEAU?$_Wrap_alloc@V?$allocator@V?$basic_string@_WU?$char_traits@_W@std@@V?$allocator@_W@2@@std@@@std@@@0@U?$integral_constant@_N$0A@@0@@Z
xdata	ENDS
;	COMDAT xdata
xdata	SEGMENT
$unwind$??$_Destroy_range1@V?$allocator@V?$basic_string@_WU?$char_traits@_W@std@@V?$allocator@_W@2@@std@@@std@@PEAV?$basic_string@_WU?$char_traits@_W@std@@V?$allocator@_W@2@@2@@std@@YAXPEAV?$basic_string@_WU?$char_traits@_W@std@@V?$allocator@_W@2@@0@0AEAU?$_Wrap_alloc@V?$allocator@V?$basic_string@_WU?$char_traits@_W@std@@V?$allocator@_W@2@@std@@@std@@@0@U?$integral_constant@_N$0A@@0@@Z DD 020e01H
	DD	0700a320eH
xdata	ENDS
;	COMDAT xdata
xdata	SEGMENT
$unwind$??$_Uninitialized_move@PEAV?$basic_string@_WU?$char_traits@_W@std@@V?$allocator@_W@2@@std@@PEAV12@V?$allocator@V?$basic_string@_WU?$char_traits@_W@std@@V?$allocator@_W@2@@std@@@2@@std@@YAPEAV?$basic_string@_WU?$char_traits@_W@std@@V?$allocator@_W@2@@0@PEAV10@00AEAU?$_Wrap_alloc@V?$allocator@V?$basic_string@_WU?$char_traits@_W@std@@V?$allocator@_W@2@@std@@@std@@@0@@Z DD 010401H
	DD	06204H
xdata	ENDS
;	COMDAT xdata
xdata	SEGMENT
$ip2state$??$_Destroy_range1@V?$allocator@VTileRow@@@std@@PEAVTileRow@@@std@@YAXPEAVTileRow@@0AEAU?$_Wrap_alloc@V?$allocator@VTileRow@@@std@@@0@U?$integral_constant@_N$0A@@0@@Z DD imagerel ??$_Destroy_range1@V?$allocator@VTileRow@@@std@@PEAVTileRow@@@std@@YAXPEAVTileRow@@0AEAU?$_Wrap_alloc@V?$allocator@VTileRow@@@std@@@0@U?$integral_constant@_N$0A@@0@@Z
	DD	0ffffffffH
xdata	ENDS
;	COMDAT xdata
xdata	SEGMENT
$stateUnwindMap$??$_Destroy_range1@V?$allocator@VTileRow@@@std@@PEAVTileRow@@@std@@YAXPEAVTileRow@@0AEAU?$_Wrap_alloc@V?$allocator@VTileRow@@@std@@@0@U?$integral_constant@_N$0A@@0@@Z DD 0ffffffffH
	DD	imagerel ?dtor$0@?0???$_Destroy_range1@V?$allocator@VTileRow@@@std@@PEAVTileRow@@@std@@YAXPEAVTileRow@@0AEAU?$_Wrap_alloc@V?$allocator@VTileRow@@@std@@@0@U?$integral_constant@_N$0A@@0@@Z@4HA
xdata	ENDS
;	COMDAT CONST
CONST	SEGMENT
$cppxdata$??$_Destroy_range1@V?$allocator@VTileRow@@@std@@PEAVTileRow@@@std@@YAXPEAVTileRow@@0AEAU?$_Wrap_alloc@V?$allocator@VTileRow@@@std@@@0@U?$integral_constant@_N$0A@@0@@Z DD 019930522H
	DD	01H
	DD	imagerel $stateUnwindMap$??$_Destroy_range1@V?$allocator@VTileRow@@@std@@PEAVTileRow@@@std@@YAXPEAVTileRow@@0AEAU?$_Wrap_alloc@V?$allocator@VTileRow@@@std@@@0@U?$integral_constant@_N$0A@@0@@Z
	DD	00H
	DD	00H
	DD	01H
	DD	imagerel $ip2state$??$_Destroy_range1@V?$allocator@VTileRow@@@std@@PEAVTileRow@@@std@@YAXPEAVTileRow@@0AEAU?$_Wrap_alloc@V?$allocator@VTileRow@@@std@@@0@U?$integral_constant@_N$0A@@0@@Z
	DD	020H
	DD	00H
	DD	00H
CONST	ENDS
;	COMDAT xdata
xdata	SEGMENT
$unwind$??$_Destroy_range1@V?$allocator@VTileRow@@@std@@PEAVTileRow@@@std@@YAXPEAVTileRow@@0AEAU?$_Wrap_alloc@V?$allocator@VTileRow@@@std@@@0@U?$integral_constant@_N$0A@@0@@Z DD 082b11H
	DD	0b642bH
	DD	0a5426H
	DD	093421H
	DD	0700f5213H
	DD	imagerel __CxxFrameHandler3
	DD	imagerel $cppxdata$??$_Destroy_range1@V?$allocator@VTileRow@@@std@@PEAVTileRow@@@std@@YAXPEAVTileRow@@0AEAU?$_Wrap_alloc@V?$allocator@VTileRow@@@std@@@0@U?$integral_constant@_N$0A@@0@@Z
xdata	ENDS
;	COMDAT xdata
xdata	SEGMENT
$unwind$?dtor$0@?0???$construct@VTileRow@@AEBV1@@?$allocator_traits@V?$allocator@VTileRow@@@std@@@std@@SAXAEAV?$allocator@VTileRow@@@1@PEAVTileRow@@AEBV3@@Z@4HA DD 020601H
	DD	050023206H
xdata	ENDS
;	COMDAT xdata
xdata	SEGMENT
$ip2state$??$construct@VTileRow@@AEBV1@@?$allocator_traits@V?$allocator@VTileRow@@@std@@@std@@SAXAEAV?$allocator@VTileRow@@@1@PEAVTileRow@@AEBV3@@Z DD imagerel ??$construct@VTileRow@@AEBV1@@?$allocator_traits@V?$allocator@VTileRow@@@std@@@std@@SAXAEAV?$allocator@VTileRow@@@1@PEAVTileRow@@AEBV3@@Z
	DD	0ffffffffH
	DD	imagerel ??$construct@VTileRow@@AEBV1@@?$allocator_traits@V?$allocator@VTileRow@@@std@@@std@@SAXAEAV?$allocator@VTileRow@@@1@PEAVTileRow@@AEBV3@@Z+26
	DD	00H
	DD	imagerel ??$construct@VTileRow@@AEBV1@@?$allocator_traits@V?$allocator@VTileRow@@@std@@@std@@SAXAEAV?$allocator@VTileRow@@@1@PEAVTileRow@@AEBV3@@Z+57
	DD	0ffffffffH
xdata	ENDS
;	COMDAT xdata
xdata	SEGMENT
$stateUnwindMap$??$construct@VTileRow@@AEBV1@@?$allocator_traits@V?$allocator@VTileRow@@@std@@@std@@SAXAEAV?$allocator@VTileRow@@@1@PEAVTileRow@@AEBV3@@Z DD 0ffffffffH
	DD	imagerel ?dtor$0@?0???$construct@VTileRow@@AEBV1@@?$allocator_traits@V?$allocator@VTileRow@@@std@@@std@@SAXAEAV?$allocator@VTileRow@@@1@PEAVTileRow@@AEBV3@@Z@4HA
	DD	00H
	DD	imagerel ?dtor$1@?0???$construct@VTileRow@@AEBV1@@?$allocator_traits@V?$allocator@VTileRow@@@std@@@std@@SAXAEAV?$allocator@VTileRow@@@1@PEAVTileRow@@AEBV3@@Z@4HA
xdata	ENDS
;	COMDAT CONST
CONST	SEGMENT
$cppxdata$??$construct@VTileRow@@AEBV1@@?$allocator_traits@V?$allocator@VTileRow@@@std@@@std@@SAXAEAV?$allocator@VTileRow@@@1@PEAVTileRow@@AEBV3@@Z DD 019930522H
	DD	02H
	DD	imagerel $stateUnwindMap$??$construct@VTileRow@@AEBV1@@?$allocator_traits@V?$allocator@VTileRow@@@std@@@std@@SAXAEAV?$allocator@VTileRow@@@1@PEAVTileRow@@AEBV3@@Z
	DD	00H
	DD	00H
	DD	03H
	DD	imagerel $ip2state$??$construct@VTileRow@@AEBV1@@?$allocator_traits@V?$allocator@VTileRow@@@std@@@std@@SAXAEAV?$allocator@VTileRow@@@1@PEAVTileRow@@AEBV3@@Z
	DD	020H
	DD	00H
	DD	00H
CONST	ENDS
;	COMDAT xdata
xdata	SEGMENT
$unwind$??$construct@VTileRow@@AEBV1@@?$allocator_traits@V?$allocator@VTileRow@@@std@@@std@@SAXAEAV?$allocator@VTileRow@@@1@PEAVTileRow@@AEBV3@@Z DD 011211H
	DD	06209H
	DD	imagerel __CxxFrameHandler3
	DD	imagerel $cppxdata$??$construct@VTileRow@@AEBV1@@?$allocator_traits@V?$allocator@VTileRow@@@std@@@std@@SAXAEAV?$allocator@VTileRow@@@1@PEAVTileRow@@AEBV3@@Z
xdata	ENDS
;	COMDAT xdata
xdata	SEGMENT
$unwind$?dtor$0@?0???$construct@VTileRow@@AEAV1@@?$allocator_traits@V?$allocator@VTileRow@@@std@@@std@@SAXAEAV?$allocator@VTileRow@@@1@PEAVTileRow@@AEAV3@@Z@4HA DD 020601H
	DD	050023206H
xdata	ENDS
;	COMDAT xdata
xdata	SEGMENT
$ip2state$??$construct@VTileRow@@AEAV1@@?$allocator_traits@V?$allocator@VTileRow@@@std@@@std@@SAXAEAV?$allocator@VTileRow@@@1@PEAVTileRow@@AEAV3@@Z DD imagerel ??$construct@VTileRow@@AEAV1@@?$allocator_traits@V?$allocator@VTileRow@@@std@@@std@@SAXAEAV?$allocator@VTileRow@@@1@PEAVTileRow@@AEAV3@@Z
	DD	0ffffffffH
	DD	imagerel ??$construct@VTileRow@@AEAV1@@?$allocator_traits@V?$allocator@VTileRow@@@std@@@std@@SAXAEAV?$allocator@VTileRow@@@1@PEAVTileRow@@AEAV3@@Z+26
	DD	00H
	DD	imagerel ??$construct@VTileRow@@AEAV1@@?$allocator_traits@V?$allocator@VTileRow@@@std@@@std@@SAXAEAV?$allocator@VTileRow@@@1@PEAVTileRow@@AEAV3@@Z+57
	DD	0ffffffffH
xdata	ENDS
;	COMDAT xdata
xdata	SEGMENT
$stateUnwindMap$??$construct@VTileRow@@AEAV1@@?$allocator_traits@V?$allocator@VTileRow@@@std@@@std@@SAXAEAV?$allocator@VTileRow@@@1@PEAVTileRow@@AEAV3@@Z DD 0ffffffffH
	DD	imagerel ?dtor$0@?0???$construct@VTileRow@@AEAV1@@?$allocator_traits@V?$allocator@VTileRow@@@std@@@std@@SAXAEAV?$allocator@VTileRow@@@1@PEAVTileRow@@AEAV3@@Z@4HA
	DD	00H
	DD	imagerel ?dtor$1@?0???$construct@VTileRow@@AEAV1@@?$allocator_traits@V?$allocator@VTileRow@@@std@@@std@@SAXAEAV?$allocator@VTileRow@@@1@PEAVTileRow@@AEAV3@@Z@4HA
xdata	ENDS
;	COMDAT CONST
CONST	SEGMENT
$cppxdata$??$construct@VTileRow@@AEAV1@@?$allocator_traits@V?$allocator@VTileRow@@@std@@@std@@SAXAEAV?$allocator@VTileRow@@@1@PEAVTileRow@@AEAV3@@Z DD 019930522H
	DD	02H
	DD	imagerel $stateUnwindMap$??$construct@VTileRow@@AEAV1@@?$allocator_traits@V?$allocator@VTileRow@@@std@@@std@@SAXAEAV?$allocator@VTileRow@@@1@PEAVTileRow@@AEAV3@@Z
	DD	00H
	DD	00H
	DD	03H
	DD	imagerel $ip2state$??$construct@VTileRow@@AEAV1@@?$allocator_traits@V?$allocator@VTileRow@@@std@@@std@@SAXAEAV?$allocator@VTileRow@@@1@PEAVTileRow@@AEAV3@@Z
	DD	020H
	DD	00H
	DD	00H
CONST	ENDS
;	COMDAT xdata
xdata	SEGMENT
$unwind$??$construct@VTileRow@@AEAV1@@?$allocator_traits@V?$allocator@VTileRow@@@std@@@std@@SAXAEAV?$allocator@VTileRow@@@1@PEAVTileRow@@AEAV3@@Z DD 011211H
	DD	06209H
	DD	imagerel __CxxFrameHandler3
	DD	imagerel $cppxdata$??$construct@VTileRow@@AEAV1@@?$allocator_traits@V?$allocator@VTileRow@@@std@@@std@@SAXAEAV?$allocator@VTileRow@@@1@PEAVTileRow@@AEAV3@@Z
xdata	ENDS
;	COMDAT xdata
xdata	SEGMENT
$unwind$??$_Umove@PEAM@?$vector@MV?$allocator@M@std@@@std@@IEAAPEAMPEAM00@Z DD 040a01H
	DD	06340aH
	DD	07006320aH
xdata	ENDS
;	COMDAT xdata
xdata	SEGMENT
$unwind$??$_Umove@PEAVTileRow@@@?$vector@VTileRow@@V?$allocator@VTileRow@@@std@@@std@@IEAAPEAVTileRow@@PEAV2@00@Z DD 020601H
	DD	030025206H
xdata	ENDS
;	COMDAT xdata
xdata	SEGMENT
$unwind$??$_Umove@PEAV?$basic_string@_WU?$char_traits@_W@std@@V?$allocator@_W@2@@std@@@?$vector@V?$basic_string@_WU?$char_traits@_W@std@@V?$allocator@_W@2@@std@@V?$allocator@V?$basic_string@_WU?$char_traits@_W@std@@V?$allocator@_W@2@@std@@@2@@std@@IEAAPEAV?$basic_string@_WU?$char_traits@_W@std@@V?$allocator@_W@2@@1@PEAV21@00@Z DD 020601H
	DD	030025206H
xdata	ENDS
;	COMDAT xdata
xdata	SEGMENT
$unwind$?dtor$0@?0???$construct@VTileRow@@AEBV1@@?$_Wrap_alloc@V?$allocator@VTileRow@@@std@@@std@@QEAAXPEAVTileRow@@AEBV2@@Z@4HA DD 020601H
	DD	050023206H
xdata	ENDS
;	COMDAT xdata
xdata	SEGMENT
$ip2state$??$construct@VTileRow@@AEBV1@@?$_Wrap_alloc@V?$allocator@VTileRow@@@std@@@std@@QEAAXPEAVTileRow@@AEBV2@@Z DD imagerel ??$construct@VTileRow@@AEBV1@@?$_Wrap_alloc@V?$allocator@VTileRow@@@std@@@std@@QEAAXPEAVTileRow@@AEBV2@@Z
	DD	0ffffffffH
	DD	imagerel ??$construct@VTileRow@@AEBV1@@?$_Wrap_alloc@V?$allocator@VTileRow@@@std@@@std@@QEAAXPEAVTileRow@@AEBV2@@Z+26
	DD	00H
	DD	imagerel ??$construct@VTileRow@@AEBV1@@?$_Wrap_alloc@V?$allocator@VTileRow@@@std@@@std@@QEAAXPEAVTileRow@@AEBV2@@Z+57
	DD	0ffffffffH
xdata	ENDS
;	COMDAT xdata
xdata	SEGMENT
$stateUnwindMap$??$construct@VTileRow@@AEBV1@@?$_Wrap_alloc@V?$allocator@VTileRow@@@std@@@std@@QEAAXPEAVTileRow@@AEBV2@@Z DD 0ffffffffH
	DD	imagerel ?dtor$0@?0???$construct@VTileRow@@AEBV1@@?$_Wrap_alloc@V?$allocator@VTileRow@@@std@@@std@@QEAAXPEAVTileRow@@AEBV2@@Z@4HA
	DD	00H
	DD	imagerel ?dtor$1@?0???$construct@VTileRow@@AEBV1@@?$_Wrap_alloc@V?$allocator@VTileRow@@@std@@@std@@QEAAXPEAVTileRow@@AEBV2@@Z@4HA
xdata	ENDS
;	COMDAT CONST
CONST	SEGMENT
$cppxdata$??$construct@VTileRow@@AEBV1@@?$_Wrap_alloc@V?$allocator@VTileRow@@@std@@@std@@QEAAXPEAVTileRow@@AEBV2@@Z DD 019930522H
	DD	02H
	DD	imagerel $stateUnwindMap$??$construct@VTileRow@@AEBV1@@?$_Wrap_alloc@V?$allocator@VTileRow@@@std@@@std@@QEAAXPEAVTileRow@@AEBV2@@Z
	DD	00H
	DD	00H
	DD	03H
	DD	imagerel $ip2state$??$construct@VTileRow@@AEBV1@@?$_Wrap_alloc@V?$allocator@VTileRow@@@std@@@std@@QEAAXPEAVTileRow@@AEBV2@@Z
	DD	020H
	DD	00H
	DD	00H
CONST	ENDS
;	COMDAT xdata
xdata	SEGMENT
$unwind$??$construct@VTileRow@@AEBV1@@?$_Wrap_alloc@V?$allocator@VTileRow@@@std@@@std@@QEAAXPEAVTileRow@@AEBV2@@Z DD 011211H
	DD	06209H
	DD	imagerel __CxxFrameHandler3
	DD	imagerel $cppxdata$??$construct@VTileRow@@AEBV1@@?$_Wrap_alloc@V?$allocator@VTileRow@@@std@@@std@@QEAAXPEAVTileRow@@AEBV2@@Z
xdata	ENDS
;	COMDAT xdata
xdata	SEGMENT
$unwind$?dtor$0@?0???$construct@VTileRow@@AEAV1@@?$_Wrap_alloc@V?$allocator@VTileRow@@@std@@@std@@QEAAXPEAVTileRow@@AEAV2@@Z@4HA DD 020601H
	DD	050023206H
xdata	ENDS
;	COMDAT xdata
xdata	SEGMENT
$ip2state$??$construct@VTileRow@@AEAV1@@?$_Wrap_alloc@V?$allocator@VTileRow@@@std@@@std@@QEAAXPEAVTileRow@@AEAV2@@Z DD imagerel ??$construct@VTileRow@@AEAV1@@?$_Wrap_alloc@V?$allocator@VTileRow@@@std@@@std@@QEAAXPEAVTileRow@@AEAV2@@Z
	DD	0ffffffffH
	DD	imagerel ??$construct@VTileRow@@AEAV1@@?$_Wrap_alloc@V?$allocator@VTileRow@@@std@@@std@@QEAAXPEAVTileRow@@AEAV2@@Z+26
	DD	00H
	DD	imagerel ??$construct@VTileRow@@AEAV1@@?$_Wrap_alloc@V?$allocator@VTileRow@@@std@@@std@@QEAAXPEAVTileRow@@AEAV2@@Z+57
	DD	0ffffffffH
xdata	ENDS
;	COMDAT xdata
xdata	SEGMENT
$stateUnwindMap$??$construct@VTileRow@@AEAV1@@?$_Wrap_alloc@V?$allocator@VTileRow@@@std@@@std@@QEAAXPEAVTileRow@@AEAV2@@Z DD 0ffffffffH
	DD	imagerel ?dtor$0@?0???$construct@VTileRow@@AEAV1@@?$_Wrap_alloc@V?$allocator@VTileRow@@@std@@@std@@QEAAXPEAVTileRow@@AEAV2@@Z@4HA
	DD	00H
	DD	imagerel ?dtor$1@?0???$construct@VTileRow@@AEAV1@@?$_Wrap_alloc@V?$allocator@VTileRow@@@std@@@std@@QEAAXPEAVTileRow@@AEAV2@@Z@4HA
xdata	ENDS
;	COMDAT CONST
CONST	SEGMENT
$cppxdata$??$construct@VTileRow@@AEAV1@@?$_Wrap_alloc@V?$allocator@VTileRow@@@std@@@std@@QEAAXPEAVTileRow@@AEAV2@@Z DD 019930522H
	DD	02H
	DD	imagerel $stateUnwindMap$??$construct@VTileRow@@AEAV1@@?$_Wrap_alloc@V?$allocator@VTileRow@@@std@@@std@@QEAAXPEAVTileRow@@AEAV2@@Z
	DD	00H
	DD	00H
	DD	03H
	DD	imagerel $ip2state$??$construct@VTileRow@@AEAV1@@?$_Wrap_alloc@V?$allocator@VTileRow@@@std@@@std@@QEAAXPEAVTileRow@@AEAV2@@Z
	DD	020H
	DD	00H
	DD	00H
CONST	ENDS
;	COMDAT xdata
xdata	SEGMENT
$unwind$??$construct@VTileRow@@AEAV1@@?$_Wrap_alloc@V?$allocator@VTileRow@@@std@@@std@@QEAAXPEAVTileRow@@AEAV2@@Z DD 011211H
	DD	06209H
	DD	imagerel __CxxFrameHandler3
	DD	imagerel $cppxdata$??$construct@VTileRow@@AEAV1@@?$_Wrap_alloc@V?$allocator@VTileRow@@@std@@@std@@QEAAXPEAVTileRow@@AEAV2@@Z
xdata	ENDS
;	COMDAT xdata
xdata	SEGMENT
$ip2state$??_D?$basic_stringstream@_WU?$char_traits@_W@std@@V?$allocator@_W@2@@std@@QEAAXXZ DD imagerel ??_D?$basic_stringstream@_WU?$char_traits@_W@std@@V?$allocator@_W@2@@std@@QEAAXXZ
	DD	0ffffffffH
xdata	ENDS
;	COMDAT xdata
xdata	SEGMENT
$stateUnwindMap$??_D?$basic_stringstream@_WU?$char_traits@_W@std@@V?$allocator@_W@2@@std@@QEAAXXZ DD 0ffffffffH
	DD	imagerel ?dtor$0@?0???_D?$basic_stringstream@_WU?$char_traits@_W@std@@V?$allocator@_W@2@@std@@QEAAXXZ@4HA
xdata	ENDS
;	COMDAT CONST
CONST	SEGMENT
$cppxdata$??_D?$basic_stringstream@_WU?$char_traits@_W@std@@V?$allocator@_W@2@@std@@QEAAXXZ DD 019930522H
	DD	01H
	DD	imagerel $stateUnwindMap$??_D?$basic_stringstream@_WU?$char_traits@_W@std@@V?$allocator@_W@2@@std@@QEAAXXZ
	DD	00H
	DD	00H
	DD	01H
	DD	imagerel $ip2state$??_D?$basic_stringstream@_WU?$char_traits@_W@std@@V?$allocator@_W@2@@std@@QEAAXXZ
	DD	020H
	DD	00H
	DD	04H
CONST	ENDS
;	COMDAT xdata
xdata	SEGMENT
$unwind$??_D?$basic_stringstream@_WU?$char_traits@_W@std@@V?$allocator@_W@2@@std@@QEAAXXZ DD 020f19H
	DD	030025206H
	DD	imagerel __CxxFrameHandler3
	DD	imagerel $cppxdata$??_D?$basic_stringstream@_WU?$char_traits@_W@std@@V?$allocator@_W@2@@std@@QEAAXXZ
xdata	ENDS
;	COMDAT xdata
xdata	SEGMENT
$ip2state$??_G?$basic_stringstream@_WU?$char_traits@_W@std@@V?$allocator@_W@2@@std@@UEAAPEAXI@Z DD imagerel ??_G?$basic_stringstream@_WU?$char_traits@_W@std@@V?$allocator@_W@2@@std@@UEAAPEAXI@Z
	DD	0ffffffffH
xdata	ENDS
;	COMDAT xdata
xdata	SEGMENT
$stateUnwindMap$??_G?$basic_stringstream@_WU?$char_traits@_W@std@@V?$allocator@_W@2@@std@@UEAAPEAXI@Z DD 0ffffffffH
	DD	imagerel ?dtor$0@?0???_G?$basic_stringstream@_WU?$char_traits@_W@std@@V?$allocator@_W@2@@std@@UEAAPEAXI@Z@4HA
xdata	ENDS
;	COMDAT CONST
CONST	SEGMENT
$cppxdata$??_G?$basic_stringstream@_WU?$char_traits@_W@std@@V?$allocator@_W@2@@std@@UEAAPEAXI@Z DD 019930522H
	DD	01H
	DD	imagerel $stateUnwindMap$??_G?$basic_stringstream@_WU?$char_traits@_W@std@@V?$allocator@_W@2@@std@@UEAAPEAXI@Z
	DD	00H
	DD	00H
	DD	01H
	DD	imagerel $ip2state$??_G?$basic_stringstream@_WU?$char_traits@_W@std@@V?$allocator@_W@2@@std@@UEAAPEAXI@Z
	DD	020H
	DD	00H
	DD	04H
CONST	ENDS
;	COMDAT xdata
xdata	SEGMENT
$unwind$??_G?$basic_stringstream@_WU?$char_traits@_W@std@@V?$allocator@_W@2@@std@@UEAAPEAXI@Z DD 041419H
	DD	093414H
	DD	070025206H
	DD	imagerel __CxxFrameHandler3
	DD	imagerel $cppxdata$??_G?$basic_stringstream@_WU?$char_traits@_W@std@@V?$allocator@_W@2@@std@@UEAAPEAXI@Z
xdata	ENDS
;	COMDAT xdata
xdata	SEGMENT
$ip2state$??_G?$basic_stringbuf@_WU?$char_traits@_W@std@@V?$allocator@_W@2@@std@@UEAAPEAXI@Z DD imagerel ??_G?$basic_stringbuf@_WU?$char_traits@_W@std@@V?$allocator@_W@2@@std@@UEAAPEAXI@Z
	DD	0ffffffffH
	DD	imagerel ??_G?$basic_stringbuf@_WU?$char_traits@_W@std@@V?$allocator@_W@2@@std@@UEAAPEAXI@Z+39
	DD	00H
	DD	imagerel ??_G?$basic_stringbuf@_WU?$char_traits@_W@std@@V?$allocator@_W@2@@std@@UEAAPEAXI@Z+45
	DD	0ffffffffH
xdata	ENDS
;	COMDAT xdata
xdata	SEGMENT
$stateUnwindMap$??_G?$basic_stringbuf@_WU?$char_traits@_W@std@@V?$allocator@_W@2@@std@@UEAAPEAXI@Z DD 0ffffffffH
	DD	imagerel ?dtor$0@?0???_G?$basic_stringbuf@_WU?$char_traits@_W@std@@V?$allocator@_W@2@@std@@UEAAPEAXI@Z@4HA
xdata	ENDS
;	COMDAT CONST
CONST	SEGMENT
$cppxdata$??_G?$basic_stringbuf@_WU?$char_traits@_W@std@@V?$allocator@_W@2@@std@@UEAAPEAXI@Z DD 019930522H
	DD	01H
	DD	imagerel $stateUnwindMap$??_G?$basic_stringbuf@_WU?$char_traits@_W@std@@V?$allocator@_W@2@@std@@UEAAPEAXI@Z
	DD	00H
	DD	00H
	DD	03H
	DD	imagerel $ip2state$??_G?$basic_stringbuf@_WU?$char_traits@_W@std@@V?$allocator@_W@2@@std@@UEAAPEAXI@Z
	DD	020H
	DD	00H
	DD	04H
CONST	ENDS
;	COMDAT xdata
xdata	SEGMENT
$unwind$??_G?$basic_stringbuf@_WU?$char_traits@_W@std@@V?$allocator@_W@2@@std@@UEAAPEAXI@Z DD 041819H
	DD	093418H
	DD	07006520aH
	DD	imagerel __CxxFrameHandler3
	DD	imagerel $cppxdata$??_G?$basic_stringbuf@_WU?$char_traits@_W@std@@V?$allocator@_W@2@@std@@UEAAPEAXI@Z
xdata	ENDS
;	COMDAT xdata
xdata	SEGMENT
$unwind$?_Tidy@?$basic_stringbuf@_WU?$char_traits@_W@std@@V?$allocator@_W@2@@std@@IEAAXXZ DD 020601H
	DD	030023206H
xdata	ENDS
;	COMDAT xdata
xdata	SEGMENT
$chain$2$?_Init@?$basic_stringbuf@_WU?$char_traits@_W@std@@V?$allocator@_W@2@@std@@IEAAXPEB_W_KH@Z DD 021H
	DD	imagerel $LN24
	DD	imagerel $LN24+60
	DD	imagerel $unwind$?_Init@?$basic_stringbuf@_WU?$char_traits@_W@std@@V?$allocator@_W@2@@std@@IEAAXPEB_W_KH@Z
xdata	ENDS
;	COMDAT xdata
xdata	SEGMENT
$chain$1$?_Init@?$basic_stringbuf@_WU?$char_traits@_W@std@@V?$allocator@_W@2@@std@@IEAAXPEB_W_KH@Z DD 041121H
	DD	077411H
	DD	066405H
	DD	imagerel $LN24
	DD	imagerel $LN24+60
	DD	imagerel $unwind$?_Init@?$basic_stringbuf@_WU?$char_traits@_W@std@@V?$allocator@_W@2@@std@@IEAAXPEB_W_KH@Z
xdata	ENDS
;	COMDAT xdata
xdata	SEGMENT
$unwind$?_Init@?$basic_stringbuf@_WU?$char_traits@_W@std@@V?$allocator@_W@2@@std@@IEAAXPEB_W_KH@Z DD 061001H
	DD	095410H
	DD	083410H
	DD	0e00c3210H
xdata	ENDS
;	COMDAT xdata
xdata	SEGMENT
$unwind$?seekpos@?$basic_stringbuf@_WU?$char_traits@_W@std@@V?$allocator@_W@2@@std@@MEAA?AV?$fpos@U_Mbstatet@@@2@V32@H@Z DD 020501H
	DD	013405H
xdata	ENDS
;	COMDAT xdata
xdata	SEGMENT
$unwind$?seekoff@?$basic_stringbuf@_WU?$char_traits@_W@std@@V?$allocator@_W@2@@std@@MEAA?AV?$fpos@U_Mbstatet@@@2@_JHH@Z DD 052b01H
	DD	02642bH
	DD	033406H
	DD	07006H
xdata	ENDS
;	COMDAT xdata
xdata	SEGMENT
$chain$12$?overflow@?$basic_stringbuf@_WU?$char_traits@_W@std@@V?$allocator@_W@2@@std@@MEAAGG@Z DD 080021H
	DD	04f400H
	DD	05d400H
	DD	0c7400H
	DD	0a5400H
	DD	imagerel $LN116
	DD	imagerel $LN116+41
	DD	imagerel $unwind$?overflow@?$basic_stringbuf@_WU?$char_traits@_W@std@@V?$allocator@_W@2@@std@@MEAAGG@Z
xdata	ENDS
;	COMDAT xdata
xdata	SEGMENT
$chain$11$?overflow@?$basic_stringbuf@_WU?$char_traits@_W@std@@V?$allocator@_W@2@@std@@MEAAGG@Z DD 0c1f21H
	DD	04f41fH
	DD	05d41aH
	DD	06c40eH
	DD	0b6405H
	DD	0c7400H
	DD	0a5400H
	DD	imagerel $LN116
	DD	imagerel $LN116+41
	DD	imagerel $unwind$?overflow@?$basic_stringbuf@_WU?$char_traits@_W@std@@V?$allocator@_W@2@@std@@MEAAGG@Z
xdata	ENDS
;	COMDAT xdata
xdata	SEGMENT
$chain$5$?overflow@?$basic_stringbuf@_WU?$char_traits@_W@std@@V?$allocator@_W@2@@std@@MEAAGG@Z DD 040721H
	DD	0c7407H
	DD	0a5400H
	DD	imagerel $LN116
	DD	imagerel $LN116+41
	DD	imagerel $unwind$?overflow@?$basic_stringbuf@_WU?$char_traits@_W@std@@V?$allocator@_W@2@@std@@MEAAGG@Z
xdata	ENDS
;	COMDAT xdata
xdata	SEGMENT
$chain$2$?overflow@?$basic_stringbuf@_WU?$char_traits@_W@std@@V?$allocator@_W@2@@std@@MEAAGG@Z DD 020021H
	DD	0a5400H
	DD	imagerel $LN116
	DD	imagerel $LN116+41
	DD	imagerel $unwind$?overflow@?$basic_stringbuf@_WU?$char_traits@_W@std@@V?$allocator@_W@2@@std@@MEAAGG@Z
xdata	ENDS
;	COMDAT xdata
xdata	SEGMENT
$chain$0$?overflow@?$basic_stringbuf@_WU?$char_traits@_W@std@@V?$allocator@_W@2@@std@@MEAAGG@Z DD 020521H
	DD	0a5405H
	DD	imagerel $LN116
	DD	imagerel $LN116+41
	DD	imagerel $unwind$?overflow@?$basic_stringbuf@_WU?$char_traits@_W@std@@V?$allocator@_W@2@@std@@MEAAGG@Z
xdata	ENDS
;	COMDAT xdata
xdata	SEGMENT
$unwind$?overflow@?$basic_stringbuf@_WU?$char_traits@_W@std@@V?$allocator@_W@2@@std@@MEAAGG@Z DD 030801H
	DD	0e0046208H
	DD	03002H
xdata	ENDS
;	COMDAT xdata
xdata	SEGMENT
$ip2state$??1?$basic_stringbuf@_WU?$char_traits@_W@std@@V?$allocator@_W@2@@std@@UEAA@XZ DD imagerel ??1?$basic_stringbuf@_WU?$char_traits@_W@std@@V?$allocator@_W@2@@std@@UEAA@XZ
	DD	0ffffffffH
	DD	imagerel ??1?$basic_stringbuf@_WU?$char_traits@_W@std@@V?$allocator@_W@2@@std@@UEAA@XZ+32
	DD	00H
	DD	imagerel ??1?$basic_stringbuf@_WU?$char_traits@_W@std@@V?$allocator@_W@2@@std@@UEAA@XZ+38
	DD	0ffffffffH
xdata	ENDS
;	COMDAT xdata
xdata	SEGMENT
$stateUnwindMap$??1?$basic_stringbuf@_WU?$char_traits@_W@std@@V?$allocator@_W@2@@std@@UEAA@XZ DD 0ffffffffH
	DD	imagerel ?dtor$0@?0???1?$basic_stringbuf@_WU?$char_traits@_W@std@@V?$allocator@_W@2@@std@@UEAA@XZ@4HA
xdata	ENDS
;	COMDAT CONST
CONST	SEGMENT
$cppxdata$??1?$basic_stringbuf@_WU?$char_traits@_W@std@@V?$allocator@_W@2@@std@@UEAA@XZ DD 019930522H
	DD	01H
	DD	imagerel $stateUnwindMap$??1?$basic_stringbuf@_WU?$char_traits@_W@std@@V?$allocator@_W@2@@std@@UEAA@XZ
	DD	00H
	DD	00H
	DD	03H
	DD	imagerel $ip2state$??1?$basic_stringbuf@_WU?$char_traits@_W@std@@V?$allocator@_W@2@@std@@UEAA@XZ
	DD	020H
	DD	00H
	DD	04H
CONST	ENDS
;	COMDAT xdata
xdata	SEGMENT
$unwind$??1?$basic_stringbuf@_WU?$char_traits@_W@std@@V?$allocator@_W@2@@std@@UEAA@XZ DD 021319H
	DD	03006520aH
	DD	imagerel __CxxFrameHandler3
	DD	imagerel $cppxdata$??1?$basic_stringbuf@_WU?$char_traits@_W@std@@V?$allocator@_W@2@@std@@UEAA@XZ
xdata	ENDS
;	COMDAT xdata
xdata	SEGMENT
$ip2state$??0?$basic_stringbuf@_WU?$char_traits@_W@std@@V?$allocator@_W@2@@std@@QEAA@AEBV?$basic_string@_WU?$char_traits@_W@std@@V?$allocator@_W@2@@1@H@Z DD imagerel ??0?$basic_stringbuf@_WU?$char_traits@_W@std@@V?$allocator@_W@2@@std@@QEAA@AEBV?$basic_string@_WU?$char_traits@_W@std@@V?$allocator@_W@2@@1@H@Z
	DD	0ffffffffH
	DD	imagerel ??0?$basic_stringbuf@_WU?$char_traits@_W@std@@V?$allocator@_W@2@@std@@QEAA@AEBV?$basic_string@_WU?$char_traits@_W@std@@V?$allocator@_W@2@@1@H@Z+45
	DD	00H
	DD	imagerel ??0?$basic_stringbuf@_WU?$char_traits@_W@std@@V?$allocator@_W@2@@std@@QEAA@AEBV?$basic_string@_WU?$char_traits@_W@std@@V?$allocator@_W@2@@1@H@Z+136
	DD	0ffffffffH
xdata	ENDS
;	COMDAT xdata
xdata	SEGMENT
$stateUnwindMap$??0?$basic_stringbuf@_WU?$char_traits@_W@std@@V?$allocator@_W@2@@std@@QEAA@AEBV?$basic_string@_WU?$char_traits@_W@std@@V?$allocator@_W@2@@1@H@Z DD 0ffffffffH
	DD	imagerel ?dtor$0@?0???0?$basic_stringbuf@_WU?$char_traits@_W@std@@V?$allocator@_W@2@@std@@QEAA@AEBV?$basic_string@_WU?$char_traits@_W@std@@V?$allocator@_W@2@@1@H@Z@4HA
xdata	ENDS
;	COMDAT CONST
CONST	SEGMENT
$cppxdata$??0?$basic_stringbuf@_WU?$char_traits@_W@std@@V?$allocator@_W@2@@std@@QEAA@AEBV?$basic_string@_WU?$char_traits@_W@std@@V?$allocator@_W@2@@1@H@Z DD 019930522H
	DD	01H
	DD	imagerel $stateUnwindMap$??0?$basic_stringbuf@_WU?$char_traits@_W@std@@V?$allocator@_W@2@@std@@QEAA@AEBV?$basic_string@_WU?$char_traits@_W@std@@V?$allocator@_W@2@@1@H@Z
	DD	00H
	DD	00H
	DD	03H
	DD	imagerel $ip2state$??0?$basic_stringbuf@_WU?$char_traits@_W@std@@V?$allocator@_W@2@@std@@QEAA@AEBV?$basic_string@_WU?$char_traits@_W@std@@V?$allocator@_W@2@@1@H@Z
	DD	020H
	DD	00H
	DD	00H
CONST	ENDS
;	COMDAT xdata
xdata	SEGMENT
$unwind$??0?$basic_stringbuf@_WU?$char_traits@_W@std@@V?$allocator@_W@2@@std@@QEAA@AEBV?$basic_string@_WU?$char_traits@_W@std@@V?$allocator@_W@2@@1@H@Z DD 061d11H
	DD	0a641dH
	DD	093418H
	DD	07006520aH
	DD	imagerel __CxxFrameHandler3
	DD	imagerel $cppxdata$??0?$basic_stringbuf@_WU?$char_traits@_W@std@@V?$allocator@_W@2@@std@@QEAA@AEBV?$basic_string@_WU?$char_traits@_W@std@@V?$allocator@_W@2@@1@H@Z
xdata	ENDS
;	COMDAT xdata
xdata	SEGMENT
$ip2state$??1?$basic_stringstream@_WU?$char_traits@_W@std@@V?$allocator@_W@2@@std@@UEAA@XZ DD imagerel ??1?$basic_stringstream@_WU?$char_traits@_W@std@@V?$allocator@_W@2@@std@@UEAA@XZ
	DD	0ffffffffH
	DD	imagerel ??1?$basic_stringstream@_WU?$char_traits@_W@std@@V?$allocator@_W@2@@std@@UEAA@XZ+79
	DD	00H
	DD	imagerel ??1?$basic_stringstream@_WU?$char_traits@_W@std@@V?$allocator@_W@2@@std@@UEAA@XZ+98
	DD	02H
	DD	imagerel ??1?$basic_stringstream@_WU?$char_traits@_W@std@@V?$allocator@_W@2@@std@@UEAA@XZ+107
	DD	00H
	DD	imagerel ??1?$basic_stringstream@_WU?$char_traits@_W@std@@V?$allocator@_W@2@@std@@UEAA@XZ+117
	DD	0ffffffffH
xdata	ENDS
;	COMDAT xdata
xdata	SEGMENT
$stateUnwindMap$??1?$basic_stringstream@_WU?$char_traits@_W@std@@V?$allocator@_W@2@@std@@UEAA@XZ DD 0ffffffffH
	DD	imagerel ?dtor$0@?0???1?$basic_stringstream@_WU?$char_traits@_W@std@@V?$allocator@_W@2@@std@@UEAA@XZ@4HA
	DD	00H
	DD	imagerel ?dtor$1@?0???1?$basic_stringstream@_WU?$char_traits@_W@std@@V?$allocator@_W@2@@std@@UEAA@XZ@4HA
	DD	00H
	DD	imagerel ?dtor$2@?0???1?$basic_stringstream@_WU?$char_traits@_W@std@@V?$allocator@_W@2@@std@@UEAA@XZ@4HA
xdata	ENDS
;	COMDAT CONST
CONST	SEGMENT
$cppxdata$??1?$basic_stringstream@_WU?$char_traits@_W@std@@V?$allocator@_W@2@@std@@UEAA@XZ DD 019930522H
	DD	03H
	DD	imagerel $stateUnwindMap$??1?$basic_stringstream@_WU?$char_traits@_W@std@@V?$allocator@_W@2@@std@@UEAA@XZ
	DD	00H
	DD	00H
	DD	05H
	DD	imagerel $ip2state$??1?$basic_stringstream@_WU?$char_traits@_W@std@@V?$allocator@_W@2@@std@@UEAA@XZ
	DD	020H
	DD	00H
	DD	04H
CONST	ENDS
;	COMDAT xdata
xdata	SEGMENT
$unwind$??1?$basic_stringstream@_WU?$char_traits@_W@std@@V?$allocator@_W@2@@std@@UEAA@XZ DD 041819H
	DD	0a3418H
	DD	07006520aH
	DD	imagerel __CxxFrameHandler3
	DD	imagerel $cppxdata$??1?$basic_stringstream@_WU?$char_traits@_W@std@@V?$allocator@_W@2@@std@@UEAA@XZ
xdata	ENDS
;	COMDAT xdata
xdata	SEGMENT
$unwind$?dtor$0@?0???0?$basic_stringstream@_WU?$char_traits@_W@std@@V?$allocator@_W@2@@std@@QEAA@AEBV?$basic_string@_WU?$char_traits@_W@std@@V?$allocator@_W@2@@1@H@Z@4HA DD 020601H
	DD	050023206H
xdata	ENDS
;	COMDAT xdata
xdata	SEGMENT
$ip2state$??0?$basic_stringstream@_WU?$char_traits@_W@std@@V?$allocator@_W@2@@std@@QEAA@AEBV?$basic_string@_WU?$char_traits@_W@std@@V?$allocator@_W@2@@1@H@Z DD imagerel ??0?$basic_stringstream@_WU?$char_traits@_W@std@@V?$allocator@_W@2@@std@@QEAA@AEBV?$basic_string@_WU?$char_traits@_W@std@@V?$allocator@_W@2@@1@H@Z
	DD	0ffffffffH
	DD	imagerel ??0?$basic_stringstream@_WU?$char_traits@_W@std@@V?$allocator@_W@2@@std@@QEAA@AEBV?$basic_string@_WU?$char_traits@_W@std@@V?$allocator@_W@2@@1@H@Z+99
	DD	00H
	DD	imagerel ??0?$basic_stringstream@_WU?$char_traits@_W@std@@V?$allocator@_W@2@@std@@QEAA@AEBV?$basic_string@_WU?$char_traits@_W@std@@V?$allocator@_W@2@@1@H@Z+109
	DD	01H
	DD	imagerel ??0?$basic_stringstream@_WU?$char_traits@_W@std@@V?$allocator@_W@2@@std@@QEAA@AEBV?$basic_string@_WU?$char_traits@_W@std@@V?$allocator@_W@2@@1@H@Z+131
	DD	02H
	DD	imagerel ??0?$basic_stringstream@_WU?$char_traits@_W@std@@V?$allocator@_W@2@@std@@QEAA@AEBV?$basic_string@_WU?$char_traits@_W@std@@V?$allocator@_W@2@@1@H@Z+184
	DD	0ffffffffH
xdata	ENDS
;	COMDAT xdata
xdata	SEGMENT
$stateUnwindMap$??0?$basic_stringstream@_WU?$char_traits@_W@std@@V?$allocator@_W@2@@std@@QEAA@AEBV?$basic_string@_WU?$char_traits@_W@std@@V?$allocator@_W@2@@1@H@Z DD 0ffffffffH
	DD	imagerel ?dtor$3@?0???0?$basic_stringstream@_WU?$char_traits@_W@std@@V?$allocator@_W@2@@std@@QEAA@AEBV?$basic_string@_WU?$char_traits@_W@std@@V?$allocator@_W@2@@1@H@Z@4HA
	DD	0ffffffffH
	DD	imagerel ?dtor$0@?0???0?$basic_stringstream@_WU?$char_traits@_W@std@@V?$allocator@_W@2@@std@@QEAA@AEBV?$basic_string@_WU?$char_traits@_W@std@@V?$allocator@_W@2@@1@H@Z@4HA
	DD	01H
	DD	imagerel ?dtor$1@?0???0?$basic_stringstream@_WU?$char_traits@_W@std@@V?$allocator@_W@2@@std@@QEAA@AEBV?$basic_string@_WU?$char_traits@_W@std@@V?$allocator@_W@2@@1@H@Z@4HA
	DD	02H
	DD	imagerel ?dtor$2@?0???0?$basic_stringstream@_WU?$char_traits@_W@std@@V?$allocator@_W@2@@std@@QEAA@AEBV?$basic_string@_WU?$char_traits@_W@std@@V?$allocator@_W@2@@1@H@Z@4HA
xdata	ENDS
;	COMDAT CONST
CONST	SEGMENT
$cppxdata$??0?$basic_stringstream@_WU?$char_traits@_W@std@@V?$allocator@_W@2@@std@@QEAA@AEBV?$basic_string@_WU?$char_traits@_W@std@@V?$allocator@_W@2@@1@H@Z DD 019930522H
	DD	04H
	DD	imagerel $stateUnwindMap$??0?$basic_stringstream@_WU?$char_traits@_W@std@@V?$allocator@_W@2@@std@@QEAA@AEBV?$basic_string@_WU?$char_traits@_W@std@@V?$allocator@_W@2@@1@H@Z
	DD	00H
	DD	00H
	DD	05H
	DD	imagerel $ip2state$??0?$basic_stringstream@_WU?$char_traits@_W@std@@V?$allocator@_W@2@@std@@QEAA@AEBV?$basic_string@_WU?$char_traits@_W@std@@V?$allocator@_W@2@@1@H@Z
	DD	028H
	DD	00H
	DD	00H
CONST	ENDS
;	COMDAT xdata
xdata	SEGMENT
$unwind$??0?$basic_stringstream@_WU?$char_traits@_W@std@@V?$allocator@_W@2@@std@@QEAA@AEBV?$basic_string@_WU?$char_traits@_W@std@@V?$allocator@_W@2@@1@H@Z DD 082211H
	DD	0d6422H
	DD	0c541dH
	DD	0b3418H
	DD	07006720aH
	DD	imagerel __CxxFrameHandler3
	DD	imagerel $cppxdata$??0?$basic_stringstream@_WU?$char_traits@_W@std@@V?$allocator@_W@2@@std@@QEAA@AEBV?$basic_string@_WU?$char_traits@_W@std@@V?$allocator@_W@2@@1@H@Z
xdata	ENDS
;	COMDAT xdata
xdata	SEGMENT
$unwind$?dtor$28@?0??parsePattern@@YAHV?$basic_string@_WU?$char_traits@_W@std@@V?$allocator@_W@2@@std@@PEAVTilePattern@@@Z@4HA DD 020601H
	DD	050023206H
xdata	ENDS
;	COMDAT xdata
xdata	SEGMENT
$unwind$?dtor$26@?0??parsePattern@@YAHV?$basic_string@_WU?$char_traits@_W@std@@V?$allocator@_W@2@@std@@PEAVTilePattern@@@Z@4HA DD 020601H
	DD	050023206H
xdata	ENDS
;	COMDAT xdata
xdata	SEGMENT
$unwind$?dtor$18@?0??parsePattern@@YAHV?$basic_string@_WU?$char_traits@_W@std@@V?$allocator@_W@2@@std@@PEAVTilePattern@@@Z@4HA DD 020601H
	DD	050023206H
xdata	ENDS
;	COMDAT xdata
xdata	SEGMENT
$unwind$?dtor$13@?0??parsePattern@@YAHV?$basic_string@_WU?$char_traits@_W@std@@V?$allocator@_W@2@@std@@PEAVTilePattern@@@Z@4HA DD 020601H
	DD	050023206H
xdata	ENDS
;	COMDAT xdata
xdata	SEGMENT
$unwind$?dtor$9@?0??parsePattern@@YAHV?$basic_string@_WU?$char_traits@_W@std@@V?$allocator@_W@2@@std@@PEAVTilePattern@@@Z@4HA DD 020601H
	DD	050023206H
xdata	ENDS
;	COMDAT xdata
xdata	SEGMENT
$ip2state$?parsePattern@@YAHV?$basic_string@_WU?$char_traits@_W@std@@V?$allocator@_W@2@@std@@PEAVTilePattern@@@Z DD imagerel ?parsePattern@@YAHV?$basic_string@_WU?$char_traits@_W@std@@V?$allocator@_W@2@@std@@PEAVTilePattern@@@Z
	DD	0ffffffffH
	DD	imagerel ?parsePattern@@YAHV?$basic_string@_WU?$char_traits@_W@std@@V?$allocator@_W@2@@std@@PEAVTilePattern@@@Z+73
	DD	00H
	DD	imagerel ?parsePattern@@YAHV?$basic_string@_WU?$char_traits@_W@std@@V?$allocator@_W@2@@std@@PEAVTilePattern@@@Z+142
	DD	01H
	DD	imagerel ?parsePattern@@YAHV?$basic_string@_WU?$char_traits@_W@std@@V?$allocator@_W@2@@std@@PEAVTilePattern@@@Z+195
	DD	02H
	DD	imagerel ?parsePattern@@YAHV?$basic_string@_WU?$char_traits@_W@std@@V?$allocator@_W@2@@std@@PEAVTilePattern@@@Z+214
	DD	01H
	DD	imagerel ?parsePattern@@YAHV?$basic_string@_WU?$char_traits@_W@std@@V?$allocator@_W@2@@std@@PEAVTilePattern@@@Z+345
	DD	03H
	DD	imagerel ?parsePattern@@YAHV?$basic_string@_WU?$char_traits@_W@std@@V?$allocator@_W@2@@std@@PEAVTilePattern@@@Z+395
	DD	04H
	DD	imagerel ?parsePattern@@YAHV?$basic_string@_WU?$char_traits@_W@std@@V?$allocator@_W@2@@std@@PEAVTilePattern@@@Z+419
	DD	03H
	DD	imagerel ?parsePattern@@YAHV?$basic_string@_WU?$char_traits@_W@std@@V?$allocator@_W@2@@std@@PEAVTilePattern@@@Z+600
	DD	05H
	DD	imagerel ?parsePattern@@YAHV?$basic_string@_WU?$char_traits@_W@std@@V?$allocator@_W@2@@std@@PEAVTilePattern@@@Z+633
	DD	06H
	DD	imagerel ?parsePattern@@YAHV?$basic_string@_WU?$char_traits@_W@std@@V?$allocator@_W@2@@std@@PEAVTilePattern@@@Z+711
	DD	07H
	DD	imagerel ?parsePattern@@YAHV?$basic_string@_WU?$char_traits@_W@std@@V?$allocator@_W@2@@std@@PEAVTilePattern@@@Z+756
	DD	09H
	DD	imagerel ?parsePattern@@YAHV?$basic_string@_WU?$char_traits@_W@std@@V?$allocator@_W@2@@std@@PEAVTilePattern@@@Z+820
	DD	0aH
	DD	imagerel ?parsePattern@@YAHV?$basic_string@_WU?$char_traits@_W@std@@V?$allocator@_W@2@@std@@PEAVTilePattern@@@Z+853
	DD	0bH
	DD	imagerel ?parsePattern@@YAHV?$basic_string@_WU?$char_traits@_W@std@@V?$allocator@_W@2@@std@@PEAVTilePattern@@@Z+924
	DD	0cH
	DD	imagerel ?parsePattern@@YAHV?$basic_string@_WU?$char_traits@_W@std@@V?$allocator@_W@2@@std@@PEAVTilePattern@@@Z+964
	DD	0eH
	DD	imagerel ?parsePattern@@YAHV?$basic_string@_WU?$char_traits@_W@std@@V?$allocator@_W@2@@std@@PEAVTilePattern@@@Z+1011
	DD	0fH
	DD	imagerel ?parsePattern@@YAHV?$basic_string@_WU?$char_traits@_W@std@@V?$allocator@_W@2@@std@@PEAVTilePattern@@@Z+1017
	DD	010H
	DD	imagerel ?parsePattern@@YAHV?$basic_string@_WU?$char_traits@_W@std@@V?$allocator@_W@2@@std@@PEAVTilePattern@@@Z+1089
	DD	011H
	DD	imagerel ?parsePattern@@YAHV?$basic_string@_WU?$char_traits@_W@std@@V?$allocator@_W@2@@std@@PEAVTilePattern@@@Z+1112
	DD	012H
	DD	imagerel ?parsePattern@@YAHV?$basic_string@_WU?$char_traits@_W@std@@V?$allocator@_W@2@@std@@PEAVTilePattern@@@Z+1172
	DD	013H
	DD	imagerel ?parsePattern@@YAHV?$basic_string@_WU?$char_traits@_W@std@@V?$allocator@_W@2@@std@@PEAVTilePattern@@@Z+1218
	DD	015H
	DD	imagerel ?parsePattern@@YAHV?$basic_string@_WU?$char_traits@_W@std@@V?$allocator@_W@2@@std@@PEAVTilePattern@@@Z+1582
	DD	010H
	DD	imagerel ?parsePattern@@YAHV?$basic_string@_WU?$char_traits@_W@std@@V?$allocator@_W@2@@std@@PEAVTilePattern@@@Z+1631
	DD	016H
	DD	imagerel ?parsePattern@@YAHV?$basic_string@_WU?$char_traits@_W@std@@V?$allocator@_W@2@@std@@PEAVTilePattern@@@Z+1653
	DD	018H
	DD	imagerel ?parsePattern@@YAHV?$basic_string@_WU?$char_traits@_W@std@@V?$allocator@_W@2@@std@@PEAVTilePattern@@@Z+1853
	DD	016H
	DD	imagerel ?parsePattern@@YAHV?$basic_string@_WU?$char_traits@_W@std@@V?$allocator@_W@2@@std@@PEAVTilePattern@@@Z+1864
	DD	010H
	DD	imagerel ?parsePattern@@YAHV?$basic_string@_WU?$char_traits@_W@std@@V?$allocator@_W@2@@std@@PEAVTilePattern@@@Z+2132
	DD	01aH
	DD	imagerel ?parsePattern@@YAHV?$basic_string@_WU?$char_traits@_W@std@@V?$allocator@_W@2@@std@@PEAVTilePattern@@@Z+2161
	DD	010H
	DD	imagerel ?parsePattern@@YAHV?$basic_string@_WU?$char_traits@_W@std@@V?$allocator@_W@2@@std@@PEAVTilePattern@@@Z+2292
	DD	01cH
	DD	imagerel ?parsePattern@@YAHV?$basic_string@_WU?$char_traits@_W@std@@V?$allocator@_W@2@@std@@PEAVTilePattern@@@Z+2327
	DD	010H
	DD	imagerel ?parsePattern@@YAHV?$basic_string@_WU?$char_traits@_W@std@@V?$allocator@_W@2@@std@@PEAVTilePattern@@@Z+2666
	DD	0eH
	DD	imagerel ?parsePattern@@YAHV?$basic_string@_WU?$char_traits@_W@std@@V?$allocator@_W@2@@std@@PEAVTilePattern@@@Z+2713
	DD	09H
	DD	imagerel ?parsePattern@@YAHV?$basic_string@_WU?$char_traits@_W@std@@V?$allocator@_W@2@@std@@PEAVTilePattern@@@Z+2781
	DD	03H
	DD	imagerel ?parsePattern@@YAHV?$basic_string@_WU?$char_traits@_W@std@@V?$allocator@_W@2@@std@@PEAVTilePattern@@@Z+2849
	DD	01H
	DD	imagerel ?parsePattern@@YAHV?$basic_string@_WU?$char_traits@_W@std@@V?$allocator@_W@2@@std@@PEAVTilePattern@@@Z+2963
	DD	03H
	DD	imagerel ?parsePattern@@YAHV?$basic_string@_WU?$char_traits@_W@std@@V?$allocator@_W@2@@std@@PEAVTilePattern@@@Z+2998
	DD	015H
	DD	imagerel ?parsePattern@@YAHV?$basic_string@_WU?$char_traits@_W@std@@V?$allocator@_W@2@@std@@PEAVTilePattern@@@Z+3026
	DD	018H
	DD	imagerel ?parsePattern@@YAHV?$basic_string@_WU?$char_traits@_W@std@@V?$allocator@_W@2@@std@@PEAVTilePattern@@@Z+3061
	DD	010H
	DD	imagerel ?parsePattern@@YAHV?$basic_string@_WU?$char_traits@_W@std@@V?$allocator@_W@2@@std@@PEAVTilePattern@@@Z+3117
	DD	01H
	DD	imagerel ?parsePattern@@YAHV?$basic_string@_WU?$char_traits@_W@std@@V?$allocator@_W@2@@std@@PEAVTilePattern@@@Z+3311
	DD	00H
	DD	imagerel ?parsePattern@@YAHV?$basic_string@_WU?$char_traits@_W@std@@V?$allocator@_W@2@@std@@PEAVTilePattern@@@Z+3466
	DD	0ffffffffH
	DD	imagerel ?parsePattern@@YAHV?$basic_string@_WU?$char_traits@_W@std@@V?$allocator@_W@2@@std@@PEAVTilePattern@@@Z+3524
	DD	00H
	DD	imagerel ?parsePattern@@YAHV?$basic_string@_WU?$char_traits@_W@std@@V?$allocator@_W@2@@std@@PEAVTilePattern@@@Z+3593
	DD	0ffffffffH
xdata	ENDS
;	COMDAT xdata
xdata	SEGMENT
$stateUnwindMap$?parsePattern@@YAHV?$basic_string@_WU?$char_traits@_W@std@@V?$allocator@_W@2@@std@@PEAVTilePattern@@@Z DD 0ffffffffH
	DD	imagerel ?dtor$0@?0??parsePattern@@YAHV?$basic_string@_WU?$char_traits@_W@std@@V?$allocator@_W@2@@std@@PEAVTilePattern@@@Z@4HA
	DD	00H
	DD	imagerel ?dtor$1@?0??parsePattern@@YAHV?$basic_string@_WU?$char_traits@_W@std@@V?$allocator@_W@2@@std@@PEAVTilePattern@@@Z@4HA
	DD	01H
	DD	imagerel ?dtor$2@?0??parsePattern@@YAHV?$basic_string@_WU?$char_traits@_W@std@@V?$allocator@_W@2@@std@@PEAVTilePattern@@@Z@4HA
	DD	01H
	DD	imagerel ?dtor$3@?0??parsePattern@@YAHV?$basic_string@_WU?$char_traits@_W@std@@V?$allocator@_W@2@@std@@PEAVTilePattern@@@Z@4HA
	DD	03H
	DD	imagerel ?dtor$4@?0??parsePattern@@YAHV?$basic_string@_WU?$char_traits@_W@std@@V?$allocator@_W@2@@std@@PEAVTilePattern@@@Z@4HA
	DD	03H
	DD	imagerel ?dtor$9@?0??parsePattern@@YAHV?$basic_string@_WU?$char_traits@_W@std@@V?$allocator@_W@2@@std@@PEAVTilePattern@@@Z@4HA
	DD	05H
	DD	imagerel ?dtor$10@?0??parsePattern@@YAHV?$basic_string@_WU?$char_traits@_W@std@@V?$allocator@_W@2@@std@@PEAVTilePattern@@@Z@4HA
	DD	06H
	DD	imagerel ?dtor$12@?0??parsePattern@@YAHV?$basic_string@_WU?$char_traits@_W@std@@V?$allocator@_W@2@@std@@PEAVTilePattern@@@Z@4HA
	DD	06H
	DD	imagerel ?dtor$11@?0??parsePattern@@YAHV?$basic_string@_WU?$char_traits@_W@std@@V?$allocator@_W@2@@std@@PEAVTilePattern@@@Z@4HA
	DD	03H
	DD	imagerel ?dtor$5@?0??parsePattern@@YAHV?$basic_string@_WU?$char_traits@_W@std@@V?$allocator@_W@2@@std@@PEAVTilePattern@@@Z@4HA
	DD	09H
	DD	imagerel ?dtor$13@?0??parsePattern@@YAHV?$basic_string@_WU?$char_traits@_W@std@@V?$allocator@_W@2@@std@@PEAVTilePattern@@@Z@4HA
	DD	0aH
	DD	imagerel ?dtor$14@?0??parsePattern@@YAHV?$basic_string@_WU?$char_traits@_W@std@@V?$allocator@_W@2@@std@@PEAVTilePattern@@@Z@4HA
	DD	0bH
	DD	imagerel ?dtor$16@?0??parsePattern@@YAHV?$basic_string@_WU?$char_traits@_W@std@@V?$allocator@_W@2@@std@@PEAVTilePattern@@@Z@4HA
	DD	0bH
	DD	imagerel ?dtor$15@?0??parsePattern@@YAHV?$basic_string@_WU?$char_traits@_W@std@@V?$allocator@_W@2@@std@@PEAVTilePattern@@@Z@4HA
	DD	09H
	DD	imagerel ?dtor$6@?0??parsePattern@@YAHV?$basic_string@_WU?$char_traits@_W@std@@V?$allocator@_W@2@@std@@PEAVTilePattern@@@Z@4HA
	DD	0eH
	DD	imagerel ?dtor$17@?0??parsePattern@@YAHV?$basic_string@_WU?$char_traits@_W@std@@V?$allocator@_W@2@@std@@PEAVTilePattern@@@Z@4HA
	DD	0eH
	DD	imagerel ?dtor$7@?0??parsePattern@@YAHV?$basic_string@_WU?$char_traits@_W@std@@V?$allocator@_W@2@@std@@PEAVTilePattern@@@Z@4HA
	DD	010H
	DD	imagerel ?dtor$18@?0??parsePattern@@YAHV?$basic_string@_WU?$char_traits@_W@std@@V?$allocator@_W@2@@std@@PEAVTilePattern@@@Z@4HA
	DD	011H
	DD	imagerel ?dtor$19@?0??parsePattern@@YAHV?$basic_string@_WU?$char_traits@_W@std@@V?$allocator@_W@2@@std@@PEAVTilePattern@@@Z@4HA
	DD	012H
	DD	imagerel ?dtor$21@?0??parsePattern@@YAHV?$basic_string@_WU?$char_traits@_W@std@@V?$allocator@_W@2@@std@@PEAVTilePattern@@@Z@4HA
	DD	012H
	DD	imagerel ?dtor$20@?0??parsePattern@@YAHV?$basic_string@_WU?$char_traits@_W@std@@V?$allocator@_W@2@@std@@PEAVTilePattern@@@Z@4HA
	DD	010H
	DD	imagerel ?dtor$8@?0??parsePattern@@YAHV?$basic_string@_WU?$char_traits@_W@std@@V?$allocator@_W@2@@std@@PEAVTilePattern@@@Z@4HA
	DD	010H
	DD	imagerel ?dtor$22@?0??parsePattern@@YAHV?$basic_string@_WU?$char_traits@_W@std@@V?$allocator@_W@2@@std@@PEAVTilePattern@@@Z@4HA
	DD	016H
	DD	imagerel ?dtor$23@?0??parsePattern@@YAHV?$basic_string@_WU?$char_traits@_W@std@@V?$allocator@_W@2@@std@@PEAVTilePattern@@@Z@4HA
	DD	016H
	DD	imagerel ?dtor$24@?0??parsePattern@@YAHV?$basic_string@_WU?$char_traits@_W@std@@V?$allocator@_W@2@@std@@PEAVTilePattern@@@Z@4HA
	DD	010H
	DD	imagerel ?dtor$25@?0??parsePattern@@YAHV?$basic_string@_WU?$char_traits@_W@std@@V?$allocator@_W@2@@std@@PEAVTilePattern@@@Z@4HA
	DD	010H
	DD	imagerel ?dtor$26@?0??parsePattern@@YAHV?$basic_string@_WU?$char_traits@_W@std@@V?$allocator@_W@2@@std@@PEAVTilePattern@@@Z@4HA
	DD	01aH
	DD	imagerel ?dtor$27@?0??parsePattern@@YAHV?$basic_string@_WU?$char_traits@_W@std@@V?$allocator@_W@2@@std@@PEAVTilePattern@@@Z@4HA
	DD	010H
	DD	imagerel ?dtor$28@?0??parsePattern@@YAHV?$basic_string@_WU?$char_traits@_W@std@@V?$allocator@_W@2@@std@@PEAVTilePattern@@@Z@4HA
	DD	01cH
	DD	imagerel ?dtor$29@?0??parsePattern@@YAHV?$basic_string@_WU?$char_traits@_W@std@@V?$allocator@_W@2@@std@@PEAVTilePattern@@@Z@4HA
	DD	0eH
	DD	imagerel ?dtor$30@?0??parsePattern@@YAHV?$basic_string@_WU?$char_traits@_W@std@@V?$allocator@_W@2@@std@@PEAVTilePattern@@@Z@4HA
	DD	09H
	DD	imagerel ?dtor$31@?0??parsePattern@@YAHV?$basic_string@_WU?$char_traits@_W@std@@V?$allocator@_W@2@@std@@PEAVTilePattern@@@Z@4HA
	DD	03H
	DD	imagerel ?dtor$32@?0??parsePattern@@YAHV?$basic_string@_WU?$char_traits@_W@std@@V?$allocator@_W@2@@std@@PEAVTilePattern@@@Z@4HA
xdata	ENDS
;	COMDAT CONST
CONST	SEGMENT
$cppxdata$?parsePattern@@YAHV?$basic_string@_WU?$char_traits@_W@std@@V?$allocator@_W@2@@std@@PEAVTilePattern@@@Z DD 019930522H
	DD	021H
	DD	imagerel $stateUnwindMap$?parsePattern@@YAHV?$basic_string@_WU?$char_traits@_W@std@@V?$allocator@_W@2@@std@@PEAVTilePattern@@@Z
	DD	00H
	DD	00H
	DD	02cH
	DD	imagerel $ip2state$?parsePattern@@YAHV?$basic_string@_WU?$char_traits@_W@std@@V?$allocator@_W@2@@std@@PEAVTilePattern@@@Z
	DD	01d0H
	DD	00H
	DD	00H
CONST	ENDS
;	COMDAT xdata
xdata	SEGMENT
$unwind$?parsePattern@@YAHV?$basic_string@_WU?$char_traits@_W@std@@V?$allocator@_W@2@@std@@PEAVTilePattern@@@Z DD 0c3411H
	DD	03e6834H
	DD	07f0120H
	DD	0e00ff011H
	DD	0c00bd00dH
	DD	060087009H
	DD	050063007H
	DD	imagerel __CxxFrameHandler3
	DD	imagerel $cppxdata$?parsePattern@@YAHV?$basic_string@_WU?$char_traits@_W@std@@V?$allocator@_W@2@@std@@PEAVTilePattern@@@Z
xdata	ENDS
;	COMDAT xdata
xdata	SEGMENT
$unwind$?_Xlen@?$vector@V?$basic_string@_WU?$char_traits@_W@std@@V?$allocator@_W@2@@std@@V?$allocator@V?$basic_string@_WU?$char_traits@_W@std@@V?$allocator@_W@2@@std@@@2@@std@@IEBAXXZ DD 010401H
	DD	04204H
xdata	ENDS
;	COMDAT xdata
xdata	SEGMENT
$unwind$?_Tidy@?$vector@V?$basic_string@_WU?$char_traits@_W@std@@V?$allocator@_W@2@@std@@V?$allocator@V?$basic_string@_WU?$char_traits@_W@std@@V?$allocator@_W@2@@std@@@2@@std@@IEAAXXZ DD 020601H
	DD	030023206H
xdata	ENDS
;	COMDAT xdata
xdata	SEGMENT
$unwind$?_Reserve@?$vector@V?$basic_string@_WU?$char_traits@_W@std@@V?$allocator@_W@2@@std@@V?$allocator@V?$basic_string@_WU?$char_traits@_W@std@@V?$allocator@_W@2@@std@@@2@@std@@IEAAX_K@Z DD 010401H
	DD	04204H
xdata	ENDS
;	COMDAT xdata
xdata	SEGMENT
$unwind$?catch$0@?0??_Reallocate@?$vector@V?$basic_string@_WU?$char_traits@_W@std@@V?$allocator@_W@2@@std@@V?$allocator@V?$basic_string@_WU?$char_traits@_W@std@@V?$allocator@_W@2@@std@@@2@@std@@IEAAX_K@Z@4HA DD 020a19H
	DD	05006520aH
	DD	imagerel __CxxFrameHandler3
	DD	imagerel $cppxdata$?_Reallocate@?$vector@V?$basic_string@_WU?$char_traits@_W@std@@V?$allocator@_W@2@@std@@V?$allocator@V?$basic_string@_WU?$char_traits@_W@std@@V?$allocator@_W@2@@std@@@2@@std@@IEAAX_K@Z
xdata	ENDS
;	COMDAT xdata
xdata	SEGMENT
$ip2state$?_Reallocate@?$vector@V?$basic_string@_WU?$char_traits@_W@std@@V?$allocator@_W@2@@std@@V?$allocator@V?$basic_string@_WU?$char_traits@_W@std@@V?$allocator@_W@2@@std@@@2@@std@@IEAAX_K@Z DD imagerel ?_Reallocate@?$vector@V?$basic_string@_WU?$char_traits@_W@std@@V?$allocator@_W@2@@std@@V?$allocator@V?$basic_string@_WU?$char_traits@_W@std@@V?$allocator@_W@2@@std@@@2@@std@@IEAAX_K@Z
	DD	0ffffffffH
	DD	imagerel ?_Reallocate@?$vector@V?$basic_string@_WU?$char_traits@_W@std@@V?$allocator@_W@2@@std@@V?$allocator@V?$basic_string@_WU?$char_traits@_W@std@@V?$allocator@_W@2@@std@@@2@@std@@IEAAX_K@Z+50
	DD	00H
	DD	imagerel ?_Reallocate@?$vector@V?$basic_string@_WU?$char_traits@_W@std@@V?$allocator@_W@2@@std@@V?$allocator@V?$basic_string@_WU?$char_traits@_W@std@@V?$allocator@_W@2@@std@@@2@@std@@IEAAX_K@Z+89
	DD	0ffffffffH
	DD	imagerel ?catch$0@?0??_Reallocate@?$vector@V?$basic_string@_WU?$char_traits@_W@std@@V?$allocator@_W@2@@std@@V?$allocator@V?$basic_string@_WU?$char_traits@_W@std@@V?$allocator@_W@2@@std@@@2@@std@@IEAAX_K@Z@4HA
	DD	00H
	DD	imagerel ?catch$0@?0??_Reallocate@?$vector@V?$basic_string@_WU?$char_traits@_W@std@@V?$allocator@_W@2@@std@@V?$allocator@V?$basic_string@_WU?$char_traits@_W@std@@V?$allocator@_W@2@@std@@@2@@std@@IEAAX_K@Z@4HA+13
	DD	01H
xdata	ENDS
;	COMDAT xdata
xdata	SEGMENT
$handlerMap$0$?_Reallocate@?$vector@V?$basic_string@_WU?$char_traits@_W@std@@V?$allocator@_W@2@@std@@V?$allocator@V?$basic_string@_WU?$char_traits@_W@std@@V?$allocator@_W@2@@std@@@2@@std@@IEAAX_K@Z DD 00H
	DD	00H
	DD	00H
	DD	imagerel ?catch$0@?0??_Reallocate@?$vector@V?$basic_string@_WU?$char_traits@_W@std@@V?$allocator@_W@2@@std@@V?$allocator@V?$basic_string@_WU?$char_traits@_W@std@@V?$allocator@_W@2@@std@@@2@@std@@IEAAX_K@Z@4HA
	DD	048H
xdata	ENDS
;	COMDAT xdata
xdata	SEGMENT
$tryMap$?_Reallocate@?$vector@V?$basic_string@_WU?$char_traits@_W@std@@V?$allocator@_W@2@@std@@V?$allocator@V?$basic_string@_WU?$char_traits@_W@std@@V?$allocator@_W@2@@std@@@2@@std@@IEAAX_K@Z DD 00H
	DD	00H
	DD	01H
	DD	01H
	DD	imagerel $handlerMap$0$?_Reallocate@?$vector@V?$basic_string@_WU?$char_traits@_W@std@@V?$allocator@_W@2@@std@@V?$allocator@V?$basic_string@_WU?$char_traits@_W@std@@V?$allocator@_W@2@@std@@@2@@std@@IEAAX_K@Z
xdata	ENDS
;	COMDAT xdata
xdata	SEGMENT
$stateUnwindMap$?_Reallocate@?$vector@V?$basic_string@_WU?$char_traits@_W@std@@V?$allocator@_W@2@@std@@V?$allocator@V?$basic_string@_WU?$char_traits@_W@std@@V?$allocator@_W@2@@std@@@2@@std@@IEAAX_K@Z DD 0ffffffffH
	DD	00H
	DD	0ffffffffH
	DD	00H
xdata	ENDS
;	COMDAT CONST
CONST	SEGMENT
$cppxdata$?_Reallocate@?$vector@V?$basic_string@_WU?$char_traits@_W@std@@V?$allocator@_W@2@@std@@V?$allocator@V?$basic_string@_WU?$char_traits@_W@std@@V?$allocator@_W@2@@std@@@2@@std@@IEAAX_K@Z DD 019930522H
	DD	02H
	DD	imagerel $stateUnwindMap$?_Reallocate@?$vector@V?$basic_string@_WU?$char_traits@_W@std@@V?$allocator@_W@2@@std@@V?$allocator@V?$basic_string@_WU?$char_traits@_W@std@@V?$allocator@_W@2@@std@@@2@@std@@IEAAX_K@Z
	DD	01H
	DD	imagerel $tryMap$?_Reallocate@?$vector@V?$basic_string@_WU?$char_traits@_W@std@@V?$allocator@_W@2@@std@@V?$allocator@V?$basic_string@_WU?$char_traits@_W@std@@V?$allocator@_W@2@@std@@@2@@std@@IEAAX_K@Z
	DD	05H
	DD	imagerel $ip2state$?_Reallocate@?$vector@V?$basic_string@_WU?$char_traits@_W@std@@V?$allocator@_W@2@@std@@V?$allocator@V?$basic_string@_WU?$char_traits@_W@std@@V?$allocator@_W@2@@std@@@2@@std@@IEAAX_K@Z
	DD	030H
	DD	00H
	DD	00H
CONST	ENDS
;	COMDAT xdata
xdata	SEGMENT
$unwind$?_Reallocate@?$vector@V?$basic_string@_WU?$char_traits@_W@std@@V?$allocator@_W@2@@std@@V?$allocator@V?$basic_string@_WU?$char_traits@_W@std@@V?$allocator@_W@2@@std@@@2@@std@@IEAAX_K@Z DD 051c19H
	DD	0e00f8213H
	DD	0600c700dH
	DD	0300bH
	DD	imagerel __CxxFrameHandler3
	DD	imagerel $cppxdata$?_Reallocate@?$vector@V?$basic_string@_WU?$char_traits@_W@std@@V?$allocator@_W@2@@std@@V?$allocator@V?$basic_string@_WU?$char_traits@_W@std@@V?$allocator@_W@2@@std@@@2@@std@@IEAAX_K@Z
xdata	ENDS
;	COMDAT xdata
xdata	SEGMENT
$ip2state$??1?$vector@V?$basic_string@_WU?$char_traits@_W@std@@V?$allocator@_W@2@@std@@V?$allocator@V?$basic_string@_WU?$char_traits@_W@std@@V?$allocator@_W@2@@std@@@2@@std@@QEAA@XZ DD imagerel ??1?$vector@V?$basic_string@_WU?$char_traits@_W@std@@V?$allocator@_W@2@@std@@V?$allocator@V?$basic_string@_WU?$char_traits@_W@std@@V?$allocator@_W@2@@std@@@2@@std@@QEAA@XZ
	DD	0ffffffffH
xdata	ENDS
;	COMDAT CONST
CONST	SEGMENT
$cppxdata$??1?$vector@V?$basic_string@_WU?$char_traits@_W@std@@V?$allocator@_W@2@@std@@V?$allocator@V?$basic_string@_WU?$char_traits@_W@std@@V?$allocator@_W@2@@std@@@2@@std@@QEAA@XZ DD 019930522H
	DD	00H
	DD	00H
	DD	00H
	DD	00H
	DD	01H
	DD	imagerel $ip2state$??1?$vector@V?$basic_string@_WU?$char_traits@_W@std@@V?$allocator@_W@2@@std@@V?$allocator@V?$basic_string@_WU?$char_traits@_W@std@@V?$allocator@_W@2@@std@@@2@@std@@QEAA@XZ
	DD	020H
	DD	00H
	DD	04H
CONST	ENDS
;	COMDAT xdata
xdata	SEGMENT
$unwind$??1?$vector@V?$basic_string@_WU?$char_traits@_W@std@@V?$allocator@_W@2@@std@@V?$allocator@V?$basic_string@_WU?$char_traits@_W@std@@V?$allocator@_W@2@@std@@@2@@std@@QEAA@XZ DD 020f19H
	DD	030025206H
	DD	imagerel __CxxFrameHandler3
	DD	imagerel $cppxdata$??1?$vector@V?$basic_string@_WU?$char_traits@_W@std@@V?$allocator@_W@2@@std@@V?$allocator@V?$basic_string@_WU?$char_traits@_W@std@@V?$allocator@_W@2@@std@@@2@@std@@QEAA@XZ
xdata	ENDS
;	COMDAT xdata
xdata	SEGMENT
$unwind$?push_back@?$vector@V?$basic_string@_WU?$char_traits@_W@std@@V?$allocator@_W@2@@std@@V?$allocator@V?$basic_string@_WU?$char_traits@_W@std@@V?$allocator@_W@2@@std@@@2@@std@@QEAAX$$QEAV?$basic_string@_WU?$char_traits@_W@std@@V?$allocator@_W@2@@2@@Z DD 040a01H
	DD	06340aH
	DD	07006320aH
xdata	ENDS
;	COMDAT xdata
xdata	SEGMENT
$unwind$?allocate@?$allocator@V?$basic_string@_WU?$char_traits@_W@std@@V?$allocator@_W@2@@std@@@std@@QEAAPEAV?$basic_string@_WU?$char_traits@_W@std@@V?$allocator@_W@2@@2@_K@Z DD 010401H
	DD	04204H
xdata	ENDS
;	COMDAT xdata
xdata	SEGMENT
$unwind$?deallocate@?$allocator@V?$basic_string@_WU?$char_traits@_W@std@@V?$allocator@_W@2@@std@@@std@@QEAAXPEAV?$basic_string@_WU?$char_traits@_W@std@@V?$allocator@_W@2@@2@_K@Z DD 010401H
	DD	04204H
xdata	ENDS
;	COMDAT xdata
xdata	SEGMENT
$ip2state$?tokenize@@YAXAEBV?$basic_string@_WU?$char_traits@_W@std@@V?$allocator@_W@2@@std@@AEAV?$vector@V?$basic_string@_WU?$char_traits@_W@std@@V?$allocator@_W@2@@std@@V?$allocator@V?$basic_string@_WU?$char_traits@_W@std@@V?$allocator@_W@2@@std@@@2@@2@0@Z DD imagerel ?tokenize@@YAXAEBV?$basic_string@_WU?$char_traits@_W@std@@V?$allocator@_W@2@@std@@AEAV?$vector@V?$basic_string@_WU?$char_traits@_W@std@@V?$allocator@_W@2@@std@@V?$allocator@V?$basic_string@_WU?$char_traits@_W@std@@V?$allocator@_W@2@@std@@@2@@2@0@Z
	DD	0ffffffffH
	DD	imagerel ?tokenize@@YAXAEBV?$basic_string@_WU?$char_traits@_W@std@@V?$allocator@_W@2@@std@@AEAV?$vector@V?$basic_string@_WU?$char_traits@_W@std@@V?$allocator@_W@2@@std@@V?$allocator@V?$basic_string@_WU?$char_traits@_W@std@@V?$allocator@_W@2@@std@@@2@@2@0@Z+139
	DD	00H
	DD	imagerel ?tokenize@@YAXAEBV?$basic_string@_WU?$char_traits@_W@std@@V?$allocator@_W@2@@std@@AEAV?$vector@V?$basic_string@_WU?$char_traits@_W@std@@V?$allocator@_W@2@@std@@V?$allocator@V?$basic_string@_WU?$char_traits@_W@std@@V?$allocator@_W@2@@std@@@2@@2@0@Z+407
	DD	0ffffffffH
	DD	imagerel ?tokenize@@YAXAEBV?$basic_string@_WU?$char_traits@_W@std@@V?$allocator@_W@2@@std@@AEAV?$vector@V?$basic_string@_WU?$char_traits@_W@std@@V?$allocator@_W@2@@std@@V?$allocator@V?$basic_string@_WU?$char_traits@_W@std@@V?$allocator@_W@2@@std@@@2@@2@0@Z+543
	DD	00H
	DD	imagerel ?tokenize@@YAXAEBV?$basic_string@_WU?$char_traits@_W@std@@V?$allocator@_W@2@@std@@AEAV?$vector@V?$basic_string@_WU?$char_traits@_W@std@@V?$allocator@_W@2@@std@@V?$allocator@V?$basic_string@_WU?$char_traits@_W@std@@V?$allocator@_W@2@@std@@@2@@2@0@Z+571
	DD	0ffffffffH
xdata	ENDS
;	COMDAT xdata
xdata	SEGMENT
$stateUnwindMap$?tokenize@@YAXAEBV?$basic_string@_WU?$char_traits@_W@std@@V?$allocator@_W@2@@std@@AEAV?$vector@V?$basic_string@_WU?$char_traits@_W@std@@V?$allocator@_W@2@@std@@V?$allocator@V?$basic_string@_WU?$char_traits@_W@std@@V?$allocator@_W@2@@std@@@2@@2@0@Z DD 0ffffffffH
	DD	imagerel ?dtor$0@?0??tokenize@@YAXAEBV?$basic_string@_WU?$char_traits@_W@std@@V?$allocator@_W@2@@std@@AEAV?$vector@V?$basic_string@_WU?$char_traits@_W@std@@V?$allocator@_W@2@@std@@V?$allocator@V?$basic_string@_WU?$char_traits@_W@std@@V?$allocator@_W@2@@std@@@2@@2@0@Z@4HA
xdata	ENDS
;	COMDAT CONST
CONST	SEGMENT
$cppxdata$?tokenize@@YAXAEBV?$basic_string@_WU?$char_traits@_W@std@@V?$allocator@_W@2@@std@@AEAV?$vector@V?$basic_string@_WU?$char_traits@_W@std@@V?$allocator@_W@2@@std@@V?$allocator@V?$basic_string@_WU?$char_traits@_W@std@@V?$allocator@_W@2@@std@@@2@@2@0@Z DD 019930522H
	DD	01H
	DD	imagerel $stateUnwindMap$?tokenize@@YAXAEBV?$basic_string@_WU?$char_traits@_W@std@@V?$allocator@_W@2@@std@@AEAV?$vector@V?$basic_string@_WU?$char_traits@_W@std@@V?$allocator@_W@2@@std@@V?$allocator@V?$basic_string@_WU?$char_traits@_W@std@@V?$allocator@_W@2@@std@@@2@@2@0@Z
	DD	00H
	DD	00H
	DD	05H
	DD	imagerel $ip2state$?tokenize@@YAXAEBV?$basic_string@_WU?$char_traits@_W@std@@V?$allocator@_W@2@@std@@AEAV?$vector@V?$basic_string@_WU?$char_traits@_W@std@@V?$allocator@_W@2@@std@@V?$allocator@V?$basic_string@_WU?$char_traits@_W@std@@V?$allocator@_W@2@@std@@@2@@2@0@Z
	DD	020H
	DD	00H
	DD	00H
CONST	ENDS
;	COMDAT xdata
xdata	SEGMENT
$unwind$?tokenize@@YAXAEBV?$basic_string@_WU?$char_traits@_W@std@@V?$allocator@_W@2@@std@@AEAV?$vector@V?$basic_string@_WU?$char_traits@_W@std@@V?$allocator@_W@2@@std@@V?$allocator@V?$basic_string@_WU?$char_traits@_W@std@@V?$allocator@_W@2@@std@@@2@@2@0@Z DD 0c2411H
	DD	0126424H
	DD	0115420H
	DD	010341cH
	DD	0f00c9210H
	DD	0d008e00aH
	DD	07004c006H
	DD	imagerel __CxxFrameHandler3
	DD	imagerel $cppxdata$?tokenize@@YAXAEBV?$basic_string@_WU?$char_traits@_W@std@@V?$allocator@_W@2@@std@@AEAV?$vector@V?$basic_string@_WU?$char_traits@_W@std@@V?$allocator@_W@2@@std@@V?$allocator@V?$basic_string@_WU?$char_traits@_W@std@@V?$allocator@_W@2@@std@@@2@@2@0@Z
xdata	ENDS
;	COMDAT xdata
xdata	SEGMENT
$chain$9$?rowcol@@YAHAEAM0AEAHMMAEAV?$vector@MV?$allocator@M@std@@@std@@MMM@Z DD 021H
	DD	imagerel ?rowcol@@YAHAEAM0AEAHMMAEAV?$vector@MV?$allocator@M@std@@@std@@MMM@Z
	DD	imagerel ?rowcol@@YAHAEAM0AEAHMMAEAV?$vector@MV?$allocator@M@std@@@std@@MMM@Z+208
	DD	imagerel $unwind$?rowcol@@YAHAEAM0AEAHMMAEAV?$vector@MV?$allocator@M@std@@@std@@MMM@Z
xdata	ENDS
;	COMDAT xdata
xdata	SEGMENT
$chain$8$?rowcol@@YAHAEAM0AEAHMMAEAV?$vector@MV?$allocator@M@std@@@std@@MMM@Z DD 0106e21H
	DD	04d86eH
	DD	05c865H
	DD	06b83fH
	DD	07a839H
	DD	089833H
	DD	098819H
	DD	01ff410H
	DD	01ed408H
	DD	imagerel ?rowcol@@YAHAEAM0AEAHMMAEAV?$vector@MV?$allocator@M@std@@@std@@MMM@Z
	DD	imagerel ?rowcol@@YAHAEAM0AEAHMMAEAV?$vector@MV?$allocator@M@std@@@std@@MMM@Z+208
	DD	imagerel $unwind$?rowcol@@YAHAEAM0AEAHMMAEAV?$vector@MV?$allocator@M@std@@@std@@MMM@Z
xdata	ENDS
;	COMDAT xdata
xdata	SEGMENT
$unwind$?rowcol@@YAHAEAM0AEAHMMAEAV?$vector@MV?$allocator@M@std@@@std@@MMM@Z DD 0118501H
	DD	0b6885H
	DD	02f866H
	DD	03e84fH
	DD	0a7827H
	DD	0203413H
	DD	0180113H
	DD	0c00ae00cH
	DD	060077008H
	DD	05006H
xdata	ENDS
;	COMDAT xdata
xdata	SEGMENT
$unwind$?getAngle@@YAMHM@Z DD 030a01H
	DD	02680aH
	DD	06204H
xdata	ENDS
;	COMDAT xdata
xdata	SEGMENT
$unwind$?draw@Tile@@SA?AVTilePoint@@VPoint3@@AEAVTileParam@@@Z DD 020601H
	DD	030025206H
xdata	ENDS
;	COMDAT xdata
xdata	SEGMENT
$unwind$?pat_herring@Tile@@CA?AVTilePoint@@VPoint3@@AEAVTileParam@@@Z DD 0c5101H
	DD	058851H
	DD	06783bH
	DD	076826H
	DD	0136412H
	DD	0123412H
	DD	0700bf212H
xdata	ENDS
;	COMDAT xdata
xdata	SEGMENT
$chain$1$?pat_xBond@Tile@@CA?AVTilePoint@@VPoint3@@AEAVTileParam@@@Z DD 021H
	DD	imagerel $LN57
	DD	imagerel $LN57+237
	DD	imagerel $unwind$?pat_xBond@Tile@@CA?AVTilePoint@@VPoint3@@AEAVTileParam@@@Z
xdata	ENDS
;	COMDAT xdata
xdata	SEGMENT
$chain$0$?pat_xBond@Tile@@CA?AVTilePoint@@VPoint3@@AEAVTileParam@@@Z DD 020621H
	DD	076806H
	DD	imagerel $LN57
	DD	imagerel $LN57+237
	DD	imagerel $unwind$?pat_xBond@Tile@@CA?AVTilePoint@@VPoint3@@AEAVTileParam@@@Z
xdata	ENDS
;	COMDAT xdata
xdata	SEGMENT
$unwind$?pat_xBond@Tile@@CA?AVTilePoint@@VPoint3@@AEAVTileParam@@@Z DD 081501H
	DD	0155415H
	DD	0143415H
	DD	0e00ef215H
	DD	0600b700cH
xdata	ENDS
;	COMDAT xdata
xdata	SEGMENT
$chain$2$?drawTile@Tile@@CA?AVTilePoint@@VPoint3@@QEAMAEAVTileParam@@HH@Z DD 021H
	DD	imagerel $LN127
	DD	imagerel $LN127+75
	DD	imagerel $unwind$?drawTile@Tile@@CA?AVTilePoint@@VPoint3@@QEAMAEAVTileParam@@HH@Z
xdata	ENDS
;	COMDAT xdata
xdata	SEGMENT
$chain$1$?drawTile@Tile@@CA?AVTilePoint@@VPoint3@@QEAMAEAVTileParam@@HH@Z DD 040a21H
	DD	07a80aH
	DD	089805H
	DD	imagerel $LN127
	DD	imagerel $LN127+75
	DD	imagerel $unwind$?drawTile@Tile@@CA?AVTilePoint@@VPoint3@@QEAMAEAVTileParam@@HH@Z
xdata	ENDS
;	COMDAT xdata
xdata	SEGMENT
$unwind$?drawTile@Tile@@CA?AVTilePoint@@VPoint3@@QEAMAEAVTileParam@@HH@Z DD 0154b01H
	DD	06b84bH
	DD	098846H
	DD	0a783eH
	DD	0b6836H
	DD	01fc423H
	DD	01e7423H
	DD	01d6423H
	DD	01c3423H
	DD	0180123H
	DD	0e016f018H
	DD	05014H
xdata	ENDS
;	COMDAT xdata
xdata	SEGMENT
$unwind$?uvMapping@Tile@@CAXAEAVTilePoint@@VPoint3@@QEAMAEAVTileParam@@H@Z DD 0198e01H
	DD	03e88eH
	DD	04d888H
	DD	05c861H
	DD	06b856H
	DD	07a83eH
	DD	089839H
	DD	098834H
	DD	0a782cH
	DD	0b6824H
	DD	01b6413H
	DD	01a3413H
	DD	0180113H
	DD	0700cH
xdata	ENDS
;	COMDAT xdata
xdata	SEGMENT
$unwind$?rotatePoint2@Tile@@CAXAEAVPoint3@@M@Z DD 081f01H
	DD	02881fH
	DD	037815H
	DD	04680cH
	DD	030029206H
xdata	ENDS
;	COMDAT xdata
xdata	SEGMENT
$unwind$?corner@Tile@@CA?AVTilePoint@@MMMMAEAVTileParam@@@Z DD 0134501H
	DD	05b845H
	DD	06a840H
	DD	079836H
	DD	08882dH
	DD	097828H
	DD	0a6823H
	DD	0197417H
	DD	0183417H
	DD	0160117H
	DD	0500cH
xdata	ENDS
;	COMDAT xdata
xdata	SEGMENT
$ip2state$?setPreset@TilePattern@@QEAAXH@Z DD imagerel ?setPreset@TilePattern@@QEAAXH@Z
	DD	0ffffffffH
	DD	imagerel ?setPreset@TilePattern@@QEAAXH@Z+53
	DD	00H
	DD	imagerel ?setPreset@TilePattern@@QEAAXH@Z+55
	DD	0ffffffffH
	DD	imagerel ?setPreset@TilePattern@@QEAAXH@Z+102
	DD	00H
	DD	imagerel ?setPreset@TilePattern@@QEAAXH@Z+107
	DD	0ffffffffH
	DD	imagerel ?setPreset@TilePattern@@QEAAXH@Z+154
	DD	01H
	DD	imagerel ?setPreset@TilePattern@@QEAAXH@Z+159
	DD	0ffffffffH
	DD	imagerel ?setPreset@TilePattern@@QEAAXH@Z+206
	DD	02H
	DD	imagerel ?setPreset@TilePattern@@QEAAXH@Z+211
	DD	0ffffffffH
	DD	imagerel ?setPreset@TilePattern@@QEAAXH@Z+258
	DD	03H
	DD	imagerel ?setPreset@TilePattern@@QEAAXH@Z+263
	DD	0ffffffffH
	DD	imagerel ?setPreset@TilePattern@@QEAAXH@Z+310
	DD	04H
	DD	imagerel ?setPreset@TilePattern@@QEAAXH@Z+315
	DD	0ffffffffH
	DD	imagerel ?setPreset@TilePattern@@QEAAXH@Z+362
	DD	05H
	DD	imagerel ?setPreset@TilePattern@@QEAAXH@Z+367
	DD	0ffffffffH
	DD	imagerel ?setPreset@TilePattern@@QEAAXH@Z+414
	DD	06H
	DD	imagerel ?setPreset@TilePattern@@QEAAXH@Z+419
	DD	0ffffffffH
	DD	imagerel ?setPreset@TilePattern@@QEAAXH@Z+466
	DD	07H
	DD	imagerel ?setPreset@TilePattern@@QEAAXH@Z+468
	DD	0ffffffffH
	DD	imagerel ?setPreset@TilePattern@@QEAAXH@Z+515
	DD	08H
	DD	imagerel ?setPreset@TilePattern@@QEAAXH@Z+517
	DD	0ffffffffH
	DD	imagerel ?setPreset@TilePattern@@QEAAXH@Z+588
	DD	00H
xdata	ENDS
;	COMDAT xdata
xdata	SEGMENT
$stateUnwindMap$?setPreset@TilePattern@@QEAAXH@Z DD 0ffffffffH
	DD	imagerel ?dtor$0@?0??setPreset@TilePattern@@QEAAXH@Z@4HA
	DD	0ffffffffH
	DD	imagerel ?dtor$1@?0??setPreset@TilePattern@@QEAAXH@Z@4HA
	DD	0ffffffffH
	DD	imagerel ?dtor$2@?0??setPreset@TilePattern@@QEAAXH@Z@4HA
	DD	0ffffffffH
	DD	imagerel ?dtor$3@?0??setPreset@TilePattern@@QEAAXH@Z@4HA
	DD	0ffffffffH
	DD	imagerel ?dtor$4@?0??setPreset@TilePattern@@QEAAXH@Z@4HA
	DD	0ffffffffH
	DD	imagerel ?dtor$5@?0??setPreset@TilePattern@@QEAAXH@Z@4HA
	DD	0ffffffffH
	DD	imagerel ?dtor$6@?0??setPreset@TilePattern@@QEAAXH@Z@4HA
	DD	0ffffffffH
	DD	imagerel ?dtor$7@?0??setPreset@TilePattern@@QEAAXH@Z@4HA
	DD	0ffffffffH
	DD	imagerel ?dtor$8@?0??setPreset@TilePattern@@QEAAXH@Z@4HA
	DD	0ffffffffH
	DD	imagerel ?dtor$9@?0??setPreset@TilePattern@@QEAAXH@Z@4HA
xdata	ENDS
;	COMDAT CONST
CONST	SEGMENT
$cppxdata$?setPreset@TilePattern@@QEAAXH@Z DD 019930522H
	DD	0aH
	DD	imagerel $stateUnwindMap$?setPreset@TilePattern@@QEAAXH@Z
	DD	00H
	DD	00H
	DD	016H
	DD	imagerel $ip2state$?setPreset@TilePattern@@QEAAXH@Z
	DD	020H
	DD	00H
	DD	00H
CONST	ENDS
;	COMDAT xdata
xdata	SEGMENT
$unwind$?setPreset@TilePattern@@QEAAXH@Z DD 041e11H
	DD	0c341eH
	DD	0500a9211H
	DD	imagerel __CxxFrameHandler3
	DD	imagerel $cppxdata$?setPreset@TilePattern@@QEAAXH@Z
xdata	ENDS
;	COMDAT xdata
xdata	SEGMENT
$chain$1$?update@TilePattern@@QEAAXXZ DD 021H
	DD	imagerel $LN72
	DD	imagerel $LN72+36
	DD	imagerel $unwind$?update@TilePattern@@QEAAXXZ
xdata	ENDS
;	COMDAT xdata
xdata	SEGMENT
$chain$0$?update@TilePattern@@QEAAXXZ DD 020521H
	DD	023405H
	DD	imagerel $LN72
	DD	imagerel $LN72+36
	DD	imagerel $unwind$?update@TilePattern@@QEAAXXZ
xdata	ENDS
;	COMDAT xdata
xdata	SEGMENT
$unwind$?update@TilePattern@@QEAAXXZ DD 030601H
	DD	036406H
	DD	07006H
xdata	ENDS
;	COMDAT xdata
xdata	SEGMENT
$ip2state$?setPattern@TilePattern@@QEAAXV?$basic_string@_WU?$char_traits@_W@std@@V?$allocator@_W@2@@std@@@Z DD imagerel ?setPattern@TilePattern@@QEAAXV?$basic_string@_WU?$char_traits@_W@std@@V?$allocator@_W@2@@std@@@Z
	DD	0ffffffffH
	DD	imagerel ?setPattern@TilePattern@@QEAAXV?$basic_string@_WU?$char_traits@_W@std@@V?$allocator@_W@2@@std@@@Z+34
	DD	00H
	DD	imagerel ?setPattern@TilePattern@@QEAAXV?$basic_string@_WU?$char_traits@_W@std@@V?$allocator@_W@2@@std@@@Z+100
	DD	0ffffffffH
xdata	ENDS
;	COMDAT xdata
xdata	SEGMENT
$stateUnwindMap$?setPattern@TilePattern@@QEAAXV?$basic_string@_WU?$char_traits@_W@std@@V?$allocator@_W@2@@std@@@Z DD 0ffffffffH
	DD	imagerel ?dtor$0@?0??setPattern@TilePattern@@QEAAXV?$basic_string@_WU?$char_traits@_W@std@@V?$allocator@_W@2@@std@@@Z@4HA
	DD	00H
	DD	imagerel ?dtor$1@?0??setPattern@TilePattern@@QEAAXV?$basic_string@_WU?$char_traits@_W@std@@V?$allocator@_W@2@@std@@@Z@4HA
xdata	ENDS
;	COMDAT CONST
CONST	SEGMENT
$cppxdata$?setPattern@TilePattern@@QEAAXV?$basic_string@_WU?$char_traits@_W@std@@V?$allocator@_W@2@@std@@@Z DD 019930522H
	DD	02H
	DD	imagerel $stateUnwindMap$?setPattern@TilePattern@@QEAAXV?$basic_string@_WU?$char_traits@_W@std@@V?$allocator@_W@2@@std@@@Z
	DD	00H
	DD	00H
	DD	03H
	DD	imagerel $ip2state$?setPattern@TilePattern@@QEAAXV?$basic_string@_WU?$char_traits@_W@std@@V?$allocator@_W@2@@std@@@Z
	DD	020H
	DD	00H
	DD	00H
CONST	ENDS
;	COMDAT xdata
xdata	SEGMENT
$unwind$?setPattern@TilePattern@@QEAAXV?$basic_string@_WU?$char_traits@_W@std@@V?$allocator@_W@2@@std@@@Z DD 061c11H
	DD	0f641cH
	DD	0c3418H
	DD	07008920cH
	DD	imagerel __CxxFrameHandler3
	DD	imagerel $cppxdata$?setPattern@TilePattern@@QEAAXV?$basic_string@_WU?$char_traits@_W@std@@V?$allocator@_W@2@@std@@@Z
xdata	ENDS
;	COMDAT xdata
xdata	SEGMENT
$unwind$?_Xlen@?$vector@VTileRow@@V?$allocator@VTileRow@@@std@@@std@@IEBAXXZ DD 010401H
	DD	04204H
xdata	ENDS
;	COMDAT xdata
xdata	SEGMENT
$unwind$?_Reserve@?$vector@VTileRow@@V?$allocator@VTileRow@@@std@@@std@@IEAAX_K@Z DD 010401H
	DD	04204H
xdata	ENDS
;	COMDAT xdata
xdata	SEGMENT
$unwind$?catch$0@?0??_Reallocate@?$vector@VTileRow@@V?$allocator@VTileRow@@@std@@@std@@IEAAX_K@Z@4HA DD 020a19H
	DD	05006520aH
	DD	imagerel __CxxFrameHandler3
	DD	imagerel $cppxdata$?_Reallocate@?$vector@VTileRow@@V?$allocator@VTileRow@@@std@@@std@@IEAAX_K@Z
xdata	ENDS
;	COMDAT xdata
xdata	SEGMENT
$ip2state$?_Reallocate@?$vector@VTileRow@@V?$allocator@VTileRow@@@std@@@std@@IEAAX_K@Z DD imagerel ?_Reallocate@?$vector@VTileRow@@V?$allocator@VTileRow@@@std@@@std@@IEAAX_K@Z
	DD	0ffffffffH
	DD	imagerel ?_Reallocate@?$vector@VTileRow@@V?$allocator@VTileRow@@@std@@@std@@IEAAX_K@Z+50
	DD	00H
	DD	imagerel ?_Reallocate@?$vector@VTileRow@@V?$allocator@VTileRow@@@std@@@std@@IEAAX_K@Z+89
	DD	0ffffffffH
	DD	imagerel ?catch$0@?0??_Reallocate@?$vector@VTileRow@@V?$allocator@VTileRow@@@std@@@std@@IEAAX_K@Z@4HA
	DD	00H
	DD	imagerel ?catch$0@?0??_Reallocate@?$vector@VTileRow@@V?$allocator@VTileRow@@@std@@@std@@IEAAX_K@Z@4HA+13
	DD	01H
xdata	ENDS
;	COMDAT xdata
xdata	SEGMENT
$handlerMap$0$?_Reallocate@?$vector@VTileRow@@V?$allocator@VTileRow@@@std@@@std@@IEAAX_K@Z DD 00H
	DD	00H
	DD	00H
	DD	imagerel ?catch$0@?0??_Reallocate@?$vector@VTileRow@@V?$allocator@VTileRow@@@std@@@std@@IEAAX_K@Z@4HA
	DD	048H
xdata	ENDS
;	COMDAT xdata
xdata	SEGMENT
$tryMap$?_Reallocate@?$vector@VTileRow@@V?$allocator@VTileRow@@@std@@@std@@IEAAX_K@Z DD 00H
	DD	00H
	DD	01H
	DD	01H
	DD	imagerel $handlerMap$0$?_Reallocate@?$vector@VTileRow@@V?$allocator@VTileRow@@@std@@@std@@IEAAX_K@Z
xdata	ENDS
;	COMDAT xdata
xdata	SEGMENT
$stateUnwindMap$?_Reallocate@?$vector@VTileRow@@V?$allocator@VTileRow@@@std@@@std@@IEAAX_K@Z DD 0ffffffffH
	DD	00H
	DD	0ffffffffH
	DD	00H
xdata	ENDS
;	COMDAT CONST
CONST	SEGMENT
$cppxdata$?_Reallocate@?$vector@VTileRow@@V?$allocator@VTileRow@@@std@@@std@@IEAAX_K@Z DD 019930522H
	DD	02H
	DD	imagerel $stateUnwindMap$?_Reallocate@?$vector@VTileRow@@V?$allocator@VTileRow@@@std@@@std@@IEAAX_K@Z
	DD	01H
	DD	imagerel $tryMap$?_Reallocate@?$vector@VTileRow@@V?$allocator@VTileRow@@@std@@@std@@IEAAX_K@Z
	DD	05H
	DD	imagerel $ip2state$?_Reallocate@?$vector@VTileRow@@V?$allocator@VTileRow@@@std@@@std@@IEAAX_K@Z
	DD	030H
	DD	00H
	DD	00H
CONST	ENDS
;	COMDAT xdata
xdata	SEGMENT
$unwind$?_Reallocate@?$vector@VTileRow@@V?$allocator@VTileRow@@@std@@@std@@IEAAX_K@Z DD 051c19H
	DD	0e00f8213H
	DD	0600c700dH
	DD	0300bH
	DD	imagerel __CxxFrameHandler3
	DD	imagerel $cppxdata$?_Reallocate@?$vector@VTileRow@@V?$allocator@VTileRow@@@std@@@std@@IEAAX_K@Z
xdata	ENDS
;	COMDAT xdata
xdata	SEGMENT
$ip2state$?clear@?$vector@VTileRow@@V?$allocator@VTileRow@@@std@@@std@@QEAAXXZ DD imagerel ?clear@?$vector@VTileRow@@V?$allocator@VTileRow@@@std@@@std@@QEAAXXZ
	DD	0ffffffffH
xdata	ENDS
;	COMDAT CONST
CONST	SEGMENT
$cppxdata$?clear@?$vector@VTileRow@@V?$allocator@VTileRow@@@std@@@std@@QEAAXXZ DD 019930522H
	DD	00H
	DD	00H
	DD	00H
	DD	00H
	DD	01H
	DD	imagerel $ip2state$?clear@?$vector@VTileRow@@V?$allocator@VTileRow@@@std@@@std@@QEAAXXZ
	DD	020H
	DD	00H
	DD	04H
CONST	ENDS
;	COMDAT xdata
xdata	SEGMENT
$unwind$?clear@?$vector@VTileRow@@V?$allocator@VTileRow@@@std@@@std@@QEAAXXZ DD 020f19H
	DD	030025206H
	DD	imagerel __CxxFrameHandler3
	DD	imagerel $cppxdata$?clear@?$vector@VTileRow@@V?$allocator@VTileRow@@@std@@@std@@QEAAXXZ
xdata	ENDS
;	COMDAT xdata
xdata	SEGMENT
$unwind$?dtor$2@?0??push_back@?$vector@VTileRow@@V?$allocator@VTileRow@@@std@@@std@@QEAAXAEBVTileRow@@@Z@4HA DD 020601H
	DD	050023206H
xdata	ENDS
;	COMDAT xdata
xdata	SEGMENT
$unwind$?dtor$0@?0??push_back@?$vector@VTileRow@@V?$allocator@VTileRow@@@std@@@std@@QEAAXAEBVTileRow@@@Z@4HA DD 020601H
	DD	050023206H
xdata	ENDS
;	COMDAT xdata
xdata	SEGMENT
$ip2state$?push_back@?$vector@VTileRow@@V?$allocator@VTileRow@@@std@@@std@@QEAAXAEBVTileRow@@@Z DD imagerel ?push_back@?$vector@VTileRow@@V?$allocator@VTileRow@@@std@@@std@@QEAAXAEBVTileRow@@@Z
	DD	0ffffffffH
	DD	imagerel ?push_back@?$vector@VTileRow@@V?$allocator@VTileRow@@@std@@@std@@QEAAXAEBVTileRow@@@Z+86
	DD	00H
	DD	imagerel ?push_back@?$vector@VTileRow@@V?$allocator@VTileRow@@@std@@@std@@QEAAXAEBVTileRow@@@Z+115
	DD	0ffffffffH
	DD	imagerel ?push_back@?$vector@VTileRow@@V?$allocator@VTileRow@@@std@@@std@@QEAAXAEBVTileRow@@@Z+150
	DD	02H
	DD	imagerel ?push_back@?$vector@VTileRow@@V?$allocator@VTileRow@@@std@@@std@@QEAAXAEBVTileRow@@@Z+179
	DD	0ffffffffH
xdata	ENDS
;	COMDAT xdata
xdata	SEGMENT
$stateUnwindMap$?push_back@?$vector@VTileRow@@V?$allocator@VTileRow@@@std@@@std@@QEAAXAEBVTileRow@@@Z DD 0ffffffffH
	DD	imagerel ?dtor$0@?0??push_back@?$vector@VTileRow@@V?$allocator@VTileRow@@@std@@@std@@QEAAXAEBVTileRow@@@Z@4HA
	DD	00H
	DD	imagerel ?dtor$1@?0??push_back@?$vector@VTileRow@@V?$allocator@VTileRow@@@std@@@std@@QEAAXAEBVTileRow@@@Z@4HA
	DD	0ffffffffH
	DD	imagerel ?dtor$2@?0??push_back@?$vector@VTileRow@@V?$allocator@VTileRow@@@std@@@std@@QEAAXAEBVTileRow@@@Z@4HA
	DD	02H
	DD	imagerel ?dtor$3@?0??push_back@?$vector@VTileRow@@V?$allocator@VTileRow@@@std@@@std@@QEAAXAEBVTileRow@@@Z@4HA
xdata	ENDS
;	COMDAT CONST
CONST	SEGMENT
$cppxdata$?push_back@?$vector@VTileRow@@V?$allocator@VTileRow@@@std@@@std@@QEAAXAEBVTileRow@@@Z DD 019930522H
	DD	04H
	DD	imagerel $stateUnwindMap$?push_back@?$vector@VTileRow@@V?$allocator@VTileRow@@@std@@@std@@QEAAXAEBVTileRow@@@Z
	DD	00H
	DD	00H
	DD	05H
	DD	imagerel $ip2state$?push_back@?$vector@VTileRow@@V?$allocator@VTileRow@@@std@@@std@@QEAAXAEBVTileRow@@@Z
	DD	020H
	DD	00H
	DD	00H
CONST	ENDS
;	COMDAT xdata
xdata	SEGMENT
$unwind$?push_back@?$vector@VTileRow@@V?$allocator@VTileRow@@@std@@@std@@QEAAXAEBVTileRow@@@Z DD 041411H
	DD	0a3414H
	DD	070025206H
	DD	imagerel __CxxFrameHandler3
	DD	imagerel $cppxdata$?push_back@?$vector@VTileRow@@V?$allocator@VTileRow@@@std@@@std@@QEAAXAEBVTileRow@@@Z
xdata	ENDS
;	COMDAT xdata
xdata	SEGMENT
$unwind$?allocate@?$allocator@VTileRow@@@std@@QEAAPEAVTileRow@@_K@Z DD 010401H
	DD	04204H
xdata	ENDS
;	COMDAT xdata
xdata	SEGMENT
$unwind$?deallocate@?$allocator@VTileRow@@@std@@QEAAXPEAVTileRow@@_K@Z DD 010401H
	DD	04204H
xdata	ENDS
;	COMDAT xdata
xdata	SEGMENT
$ip2state$??_GTileRow@@QEAAPEAXI@Z DD imagerel ??_GTileRow@@QEAAPEAXI@Z
	DD	0ffffffffH
xdata	ENDS
;	COMDAT xdata
xdata	SEGMENT
$stateUnwindMap$??_GTileRow@@QEAAPEAXI@Z DD 0ffffffffH
	DD	imagerel ?dtor$0@?0???_GTileRow@@QEAAPEAXI@Z@4HA
xdata	ENDS
;	COMDAT CONST
CONST	SEGMENT
$cppxdata$??_GTileRow@@QEAAPEAXI@Z DD 019930522H
	DD	01H
	DD	imagerel $stateUnwindMap$??_GTileRow@@QEAAPEAXI@Z
	DD	00H
	DD	00H
	DD	01H
	DD	imagerel $ip2state$??_GTileRow@@QEAAPEAXI@Z
	DD	020H
	DD	00H
	DD	04H
CONST	ENDS
;	COMDAT xdata
xdata	SEGMENT
$unwind$??_GTileRow@@QEAAPEAXI@Z DD 061d19H
	DD	0a641dH
	DD	093418H
	DD	07006520aH
	DD	imagerel __CxxFrameHandler3
	DD	imagerel $cppxdata$??_GTileRow@@QEAAPEAXI@Z
xdata	ENDS
;	COMDAT xdata
xdata	SEGMENT
$ip2state$??0TileRow@@QEAA@$$QEAV0@@Z DD imagerel ??0TileRow@@QEAA@$$QEAV0@@Z
	DD	0ffffffffH
xdata	ENDS
;	COMDAT xdata
xdata	SEGMENT
$stateUnwindMap$??0TileRow@@QEAA@$$QEAV0@@Z DD 0ffffffffH
	DD	imagerel ?dtor$0@?0???0TileRow@@QEAA@$$QEAV0@@Z@4HA
xdata	ENDS
;	COMDAT CONST
CONST	SEGMENT
$cppxdata$??0TileRow@@QEAA@$$QEAV0@@Z DD 019930522H
	DD	01H
	DD	imagerel $stateUnwindMap$??0TileRow@@QEAA@$$QEAV0@@Z
	DD	00H
	DD	00H
	DD	01H
	DD	imagerel $ip2state$??0TileRow@@QEAA@$$QEAV0@@Z
	DD	00H
	DD	00H
	DD	04H
CONST	ENDS
;	COMDAT xdata
xdata	SEGMENT
$unwind$??0TileRow@@QEAA@$$QEAV0@@Z DD 011111H
	DD	02209H
	DD	imagerel __CxxFrameHandler3
	DD	imagerel $cppxdata$??0TileRow@@QEAA@$$QEAV0@@Z
xdata	ENDS
;	COMDAT xdata
xdata	SEGMENT
$ip2state$??0TileRow@@QEAA@AEBV0@@Z DD imagerel ??0TileRow@@QEAA@AEBV0@@Z
	DD	0ffffffffH
xdata	ENDS
;	COMDAT xdata
xdata	SEGMENT
$stateUnwindMap$??0TileRow@@QEAA@AEBV0@@Z DD 0ffffffffH
	DD	imagerel ?dtor$0@?0???0TileRow@@QEAA@AEBV0@@Z@4HA
xdata	ENDS
;	COMDAT CONST
CONST	SEGMENT
$cppxdata$??0TileRow@@QEAA@AEBV0@@Z DD 019930522H
	DD	01H
	DD	imagerel $stateUnwindMap$??0TileRow@@QEAA@AEBV0@@Z
	DD	00H
	DD	00H
	DD	01H
	DD	imagerel $ip2state$??0TileRow@@QEAA@AEBV0@@Z
	DD	020H
	DD	00H
	DD	00H
CONST	ENDS
;	COMDAT xdata
xdata	SEGMENT
$unwind$??0TileRow@@QEAA@AEBV0@@Z DD 021311H
	DD	03006520aH
	DD	imagerel __CxxFrameHandler3
	DD	imagerel $cppxdata$??0TileRow@@QEAA@AEBV0@@Z
xdata	ENDS
;	COMDAT xdata
xdata	SEGMENT
$ip2state$??1TileRow@@QEAA@XZ DD imagerel ??1TileRow@@QEAA@XZ
	DD	0ffffffffH
xdata	ENDS
;	COMDAT xdata
xdata	SEGMENT
$stateUnwindMap$??1TileRow@@QEAA@XZ DD 0ffffffffH
	DD	imagerel ?dtor$0@?0???1TileRow@@QEAA@XZ@4HA
xdata	ENDS
;	COMDAT CONST
CONST	SEGMENT
$cppxdata$??1TileRow@@QEAA@XZ DD 019930522H
	DD	01H
	DD	imagerel $stateUnwindMap$??1TileRow@@QEAA@XZ
	DD	00H
	DD	00H
	DD	01H
	DD	imagerel $ip2state$??1TileRow@@QEAA@XZ
	DD	020H
	DD	00H
	DD	04H
CONST	ENDS
;	COMDAT xdata
xdata	SEGMENT
$unwind$??1TileRow@@QEAA@XZ DD 021319H
	DD	03006520aH
	DD	imagerel __CxxFrameHandler3
	DD	imagerel $cppxdata$??1TileRow@@QEAA@XZ
xdata	ENDS
;	COMDAT xdata
xdata	SEGMENT
$unwind$?_Xlen@?$vector@MV?$allocator@M@std@@@std@@IEBAXXZ DD 010401H
	DD	04204H
xdata	ENDS
;	COMDAT xdata
xdata	SEGMENT
$unwind$?_Tidy@?$vector@MV?$allocator@M@std@@@std@@IEAAXXZ DD 020601H
	DD	030023206H
xdata	ENDS
;	COMDAT xdata
xdata	SEGMENT
$unwind$?_Reserve@?$vector@MV?$allocator@M@std@@@std@@IEAAX_K@Z DD 010401H
	DD	04204H
xdata	ENDS
;	COMDAT xdata
xdata	SEGMENT
$unwind$?catch$0@?0??_Reallocate@?$vector@MV?$allocator@M@std@@@std@@IEAAX_K@Z@4HA DD 020a19H
	DD	05006320aH
	DD	imagerel __CxxFrameHandler3
	DD	imagerel $cppxdata$?_Reallocate@?$vector@MV?$allocator@M@std@@@std@@IEAAX_K@Z
xdata	ENDS
;	COMDAT xdata
xdata	SEGMENT
$ip2state$?_Reallocate@?$vector@MV?$allocator@M@std@@@std@@IEAAX_K@Z DD imagerel ?_Reallocate@?$vector@MV?$allocator@M@std@@@std@@IEAAX_K@Z
	DD	0ffffffffH
	DD	imagerel ?_Reallocate@?$vector@MV?$allocator@M@std@@@std@@IEAAX_K@Z+51
	DD	00H
	DD	imagerel ?_Reallocate@?$vector@MV?$allocator@M@std@@@std@@IEAAX_K@Z+71
	DD	0ffffffffH
	DD	imagerel ?catch$0@?0??_Reallocate@?$vector@MV?$allocator@M@std@@@std@@IEAAX_K@Z@4HA
	DD	00H
	DD	imagerel ?catch$0@?0??_Reallocate@?$vector@MV?$allocator@M@std@@@std@@IEAAX_K@Z@4HA+13
	DD	01H
xdata	ENDS
;	COMDAT xdata
xdata	SEGMENT
$handlerMap$0$?_Reallocate@?$vector@MV?$allocator@M@std@@@std@@IEAAX_K@Z DD 00H
	DD	00H
	DD	00H
	DD	imagerel ?catch$0@?0??_Reallocate@?$vector@MV?$allocator@M@std@@@std@@IEAAX_K@Z@4HA
	DD	038H
xdata	ENDS
;	COMDAT xdata
xdata	SEGMENT
$tryMap$?_Reallocate@?$vector@MV?$allocator@M@std@@@std@@IEAAX_K@Z DD 00H
	DD	00H
	DD	01H
	DD	01H
	DD	imagerel $handlerMap$0$?_Reallocate@?$vector@MV?$allocator@M@std@@@std@@IEAAX_K@Z
xdata	ENDS
;	COMDAT xdata
xdata	SEGMENT
$stateUnwindMap$?_Reallocate@?$vector@MV?$allocator@M@std@@@std@@IEAAX_K@Z DD 0ffffffffH
	DD	00H
	DD	0ffffffffH
	DD	00H
xdata	ENDS
;	COMDAT CONST
CONST	SEGMENT
$cppxdata$?_Reallocate@?$vector@MV?$allocator@M@std@@@std@@IEAAX_K@Z DD 019930522H
	DD	02H
	DD	imagerel $stateUnwindMap$?_Reallocate@?$vector@MV?$allocator@M@std@@@std@@IEAAX_K@Z
	DD	01H
	DD	imagerel $tryMap$?_Reallocate@?$vector@MV?$allocator@M@std@@@std@@IEAAX_K@Z
	DD	05H
	DD	imagerel $ip2state$?_Reallocate@?$vector@MV?$allocator@M@std@@@std@@IEAAX_K@Z
	DD	020H
	DD	00H
	DD	00H
CONST	ENDS
;	COMDAT xdata
xdata	SEGMENT
$unwind$?_Reallocate@?$vector@MV?$allocator@M@std@@@std@@IEAAX_K@Z DD 062019H
	DD	0d3420H
	DD	0e00e5212H
	DD	0600b700cH
	DD	imagerel __CxxFrameHandler3
	DD	imagerel $cppxdata$?_Reallocate@?$vector@MV?$allocator@M@std@@@std@@IEAAX_K@Z
xdata	ENDS
;	COMDAT xdata
xdata	SEGMENT
$unwind$?_Buy@?$vector@MV?$allocator@M@std@@@std@@IEAA_N_K@Z DD 040a01H
	DD	06340aH
	DD	07006320aH
xdata	ENDS
;	COMDAT xdata
xdata	SEGMENT
$unwind$?push_back@?$vector@MV?$allocator@M@std@@@std@@QEAAXAEBM@Z DD 040a01H
	DD	06340aH
	DD	07006320aH
xdata	ENDS
;	COMDAT xdata
xdata	SEGMENT
$ip2state$??1?$vector@MV?$allocator@M@std@@@std@@QEAA@XZ DD imagerel ??1?$vector@MV?$allocator@M@std@@@std@@QEAA@XZ
	DD	0ffffffffH
xdata	ENDS
;	COMDAT CONST
CONST	SEGMENT
$cppxdata$??1?$vector@MV?$allocator@M@std@@@std@@QEAA@XZ DD 019930522H
	DD	00H
	DD	00H
	DD	00H
	DD	00H
	DD	01H
	DD	imagerel $ip2state$??1?$vector@MV?$allocator@M@std@@@std@@QEAA@XZ
	DD	020H
	DD	00H
	DD	04H
CONST	ENDS
;	COMDAT xdata
xdata	SEGMENT
$unwind$??1?$vector@MV?$allocator@M@std@@@std@@QEAA@XZ DD 020f19H
	DD	030025206H
	DD	imagerel __CxxFrameHandler3
	DD	imagerel $cppxdata$??1?$vector@MV?$allocator@M@std@@@std@@QEAA@XZ
xdata	ENDS
;	COMDAT xdata
xdata	SEGMENT
$unwind$?push_back@?$vector@MV?$allocator@M@std@@@std@@QEAAX$$QEAM@Z DD 040a01H
	DD	06340aH
	DD	07006320aH
xdata	ENDS
;	COMDAT xdata
xdata	SEGMENT
$unwind$?catch$0@?0???0?$vector@MV?$allocator@M@std@@@std@@QEAA@AEBV01@@Z@4HA DD 030b19H
	DD	05007420bH
	DD	03006H
	DD	imagerel __CxxFrameHandler3
	DD	imagerel $cppxdata$??0?$vector@MV?$allocator@M@std@@@std@@QEAA@AEBV01@@Z
xdata	ENDS
;	COMDAT xdata
xdata	SEGMENT
$ip2state$??0?$vector@MV?$allocator@M@std@@@std@@QEAA@AEBV01@@Z DD imagerel ??0?$vector@MV?$allocator@M@std@@@std@@QEAA@AEBV01@@Z
	DD	0ffffffffH
	DD	imagerel ??0?$vector@MV?$allocator@M@std@@@std@@QEAA@AEBV01@@Z+133
	DD	00H
	DD	imagerel ??0?$vector@MV?$allocator@M@std@@@std@@QEAA@AEBV01@@Z+166
	DD	0ffffffffH
	DD	imagerel ?catch$0@?0???0?$vector@MV?$allocator@M@std@@@std@@QEAA@AEBV01@@Z@4HA
	DD	00H
	DD	imagerel ?catch$0@?0???0?$vector@MV?$allocator@M@std@@@std@@QEAA@AEBV01@@Z@4HA+14
	DD	01H
xdata	ENDS
;	COMDAT xdata
xdata	SEGMENT
$handlerMap$0$??0?$vector@MV?$allocator@M@std@@@std@@QEAA@AEBV01@@Z DD 00H
	DD	00H
	DD	00H
	DD	imagerel ?catch$0@?0???0?$vector@MV?$allocator@M@std@@@std@@QEAA@AEBV01@@Z@4HA
	DD	048H
xdata	ENDS
;	COMDAT xdata
xdata	SEGMENT
$tryMap$??0?$vector@MV?$allocator@M@std@@@std@@QEAA@AEBV01@@Z DD 00H
	DD	00H
	DD	01H
	DD	01H
	DD	imagerel $handlerMap$0$??0?$vector@MV?$allocator@M@std@@@std@@QEAA@AEBV01@@Z
xdata	ENDS
;	COMDAT xdata
xdata	SEGMENT
$stateUnwindMap$??0?$vector@MV?$allocator@M@std@@@std@@QEAA@AEBV01@@Z DD 0ffffffffH
	DD	00H
	DD	0ffffffffH
	DD	00H
xdata	ENDS
;	COMDAT CONST
CONST	SEGMENT
$cppxdata$??0?$vector@MV?$allocator@M@std@@@std@@QEAA@AEBV01@@Z DD 019930522H
	DD	02H
	DD	imagerel $stateUnwindMap$??0?$vector@MV?$allocator@M@std@@@std@@QEAA@AEBV01@@Z
	DD	01H
	DD	imagerel $tryMap$??0?$vector@MV?$allocator@M@std@@@std@@QEAA@AEBV01@@Z
	DD	05H
	DD	imagerel $ip2state$??0?$vector@MV?$allocator@M@std@@@std@@QEAA@AEBV01@@Z
	DD	020H
	DD	00H
	DD	00H
CONST	ENDS
;	COMDAT xdata
xdata	SEGMENT
$unwind$??0?$vector@MV?$allocator@M@std@@@std@@QEAA@AEBV01@@Z DD 082319H
	DD	0b7423H
	DD	0a641eH
	DD	093419H
	DD	0e007520bH
	DD	imagerel __CxxFrameHandler3
	DD	imagerel $cppxdata$??0?$vector@MV?$allocator@M@std@@@std@@QEAA@AEBV01@@Z
xdata	ENDS
;	COMDAT xdata
xdata	SEGMENT
$unwind$?allocate@?$allocator@M@std@@QEAAPEAM_K@Z DD 010401H
	DD	04204H
xdata	ENDS
;	COMDAT xdata
xdata	SEGMENT
$unwind$?deallocate@?$allocator@M@std@@QEAAXPEAM_K@Z DD 010401H
	DD	04204H
xdata	ENDS
;	COMDAT xdata
xdata	SEGMENT
$ip2state$??0TileRow@@QEAA@M@Z DD imagerel ??0TileRow@@QEAA@M@Z
	DD	0ffffffffH
	DD	imagerel ??0TileRow@@QEAA@M@Z+31
	DD	00H
	DD	imagerel ??0TileRow@@QEAA@M@Z+35
	DD	0ffffffffH
xdata	ENDS
;	COMDAT xdata
xdata	SEGMENT
$stateUnwindMap$??0TileRow@@QEAA@M@Z DD 0ffffffffH
	DD	imagerel ?dtor$0@?0???0TileRow@@QEAA@M@Z@4HA
xdata	ENDS
;	COMDAT CONST
CONST	SEGMENT
$cppxdata$??0TileRow@@QEAA@M@Z DD 019930522H
	DD	01H
	DD	imagerel $stateUnwindMap$??0TileRow@@QEAA@M@Z
	DD	00H
	DD	00H
	DD	03H
	DD	imagerel $ip2state$??0TileRow@@QEAA@M@Z
	DD	00H
	DD	00H
	DD	00H
CONST	ENDS
;	COMDAT xdata
xdata	SEGMENT
$unwind$??0TileRow@@QEAA@M@Z DD 011111H
	DD	02209H
	DD	imagerel __CxxFrameHandler3
	DD	imagerel $cppxdata$??0TileRow@@QEAA@M@Z
xdata	ENDS
;	COMDAT xdata
xdata	SEGMENT
$ip2state$??_G?$basic_string@_WU?$char_traits@_W@std@@V?$allocator@_W@2@@std@@QEAAPEAXI@Z DD imagerel ??_G?$basic_string@_WU?$char_traits@_W@std@@V?$allocator@_W@2@@std@@QEAAPEAXI@Z
	DD	0ffffffffH
xdata	ENDS
;	COMDAT CONST
CONST	SEGMENT
$cppxdata$??_G?$basic_string@_WU?$char_traits@_W@std@@V?$allocator@_W@2@@std@@QEAAPEAXI@Z DD 019930522H
	DD	00H
	DD	00H
	DD	00H
	DD	00H
	DD	01H
	DD	imagerel $ip2state$??_G?$basic_string@_WU?$char_traits@_W@std@@V?$allocator@_W@2@@std@@QEAAPEAXI@Z
	DD	020H
	DD	00H
	DD	04H
CONST	ENDS
;	COMDAT xdata
xdata	SEGMENT
$unwind$??_G?$basic_string@_WU?$char_traits@_W@std@@V?$allocator@_W@2@@std@@QEAAPEAXI@Z DD 041419H
	DD	083414H
	DD	070025206H
	DD	imagerel __CxxFrameHandler3
	DD	imagerel $cppxdata$??_G?$basic_string@_WU?$char_traits@_W@std@@V?$allocator@_W@2@@std@@QEAAPEAXI@Z
xdata	ENDS
;	COMDAT xdata
xdata	SEGMENT
$unwind$?_Xran@?$basic_string@_WU?$char_traits@_W@std@@V?$allocator@_W@2@@std@@QEBAXXZ DD 010401H
	DD	04204H
xdata	ENDS
;	COMDAT xdata
xdata	SEGMENT
$unwind$?_Check_offset@?$basic_string@_WU?$char_traits@_W@std@@V?$allocator@_W@2@@std@@QEBAX_K@Z DD 010401H
	DD	04204H
xdata	ENDS
;	COMDAT xdata
xdata	SEGMENT
$unwind$?_Xlen@?$basic_string@_WU?$char_traits@_W@std@@V?$allocator@_W@2@@std@@QEBAXXZ DD 010401H
	DD	04204H
xdata	ENDS
;	COMDAT xdata
xdata	SEGMENT
$chain$1$?_Tidy@?$basic_string@_WU?$char_traits@_W@std@@V?$allocator@_W@2@@std@@QEAAX_N_K@Z DD 021H
	DD	imagerel $LN78
	DD	imagerel $LN78+27
	DD	imagerel $unwind$?_Tidy@?$basic_string@_WU?$char_traits@_W@std@@V?$allocator@_W@2@@std@@QEAAX_N_K@Z
xdata	ENDS
;	COMDAT xdata
xdata	SEGMENT
$chain$0$?_Tidy@?$basic_string@_WU?$char_traits@_W@std@@V?$allocator@_W@2@@std@@QEAAX_N_K@Z DD 020521H
	DD	066405H
	DD	imagerel $LN78
	DD	imagerel $LN78+27
	DD	imagerel $unwind$?_Tidy@?$basic_string@_WU?$char_traits@_W@std@@V?$allocator@_W@2@@std@@QEAAX_N_K@Z
xdata	ENDS
;	COMDAT xdata
xdata	SEGMENT
$unwind$?_Tidy@?$basic_string@_WU?$char_traits@_W@std@@V?$allocator@_W@2@@std@@QEAAX_N_K@Z DD 040a01H
	DD	07340aH
	DD	07006320aH
xdata	ENDS
;	COMDAT xdata
xdata	SEGMENT
$unwind$?_Grow@?$basic_string@_WU?$char_traits@_W@std@@V?$allocator@_W@2@@std@@QEAA_N_K_N@Z DD 020601H
	DD	030023206H
xdata	ENDS
;	COMDAT xdata
xdata	SEGMENT
$unwind$?catch$0@?0??_Copy@?$basic_string@_WU?$char_traits@_W@std@@V?$allocator@_W@2@@std@@QEAAX_K0@Z@4HA DD 030b19H
	DD	05007420bH
	DD	03006H
	DD	imagerel __CxxFrameHandler3
	DD	imagerel $cppxdata$?_Copy@?$basic_string@_WU?$char_traits@_W@std@@V?$allocator@_W@2@@std@@QEAAX_K0@Z
xdata	ENDS
;	COMDAT xdata
xdata	SEGMENT
$unwind$?catch$1@?0??_Copy@?$basic_string@_WU?$char_traits@_W@std@@V?$allocator@_W@2@@std@@QEAAX_K0@Z@4HA DD 020a19H
	DD	05006320aH
	DD	imagerel __CxxFrameHandler3
	DD	imagerel $cppxdata$?_Copy@?$basic_string@_WU?$char_traits@_W@std@@V?$allocator@_W@2@@std@@QEAAX_K0@Z
xdata	ENDS
;	COMDAT xdata
xdata	SEGMENT
$ip2state$?_Copy@?$basic_string@_WU?$char_traits@_W@std@@V?$allocator@_W@2@@std@@QEAAX_K0@Z DD imagerel ?_Copy@?$basic_string@_WU?$char_traits@_W@std@@V?$allocator@_W@2@@std@@QEAAX_K0@Z
	DD	0ffffffffH
	DD	imagerel ?_Copy@?$basic_string@_WU?$char_traits@_W@std@@V?$allocator@_W@2@@std@@QEAAX_K0@Z+119
	DD	00H
	DD	imagerel ?_Copy@?$basic_string@_WU?$char_traits@_W@std@@V?$allocator@_W@2@@std@@QEAAX_K0@Z+139
	DD	0ffffffffH
	DD	imagerel ?catch$1@?0??_Copy@?$basic_string@_WU?$char_traits@_W@std@@V?$allocator@_W@2@@std@@QEAAX_K0@Z@4HA
	DD	00H
	DD	imagerel ?catch$1@?0??_Copy@?$basic_string@_WU?$char_traits@_W@std@@V?$allocator@_W@2@@std@@QEAAX_K0@Z@4HA+13
	DD	01H
	DD	imagerel ?catch$1@?0??_Copy@?$basic_string@_WU?$char_traits@_W@std@@V?$allocator@_W@2@@std@@QEAAX_K0@Z@4HA+21
	DD	02H
	DD	imagerel ?catch$1@?0??_Copy@?$basic_string@_WU?$char_traits@_W@std@@V?$allocator@_W@2@@std@@QEAAX_K0@Z@4HA+37
	DD	00H
	DD	imagerel ?catch$0@?0??_Copy@?$basic_string@_WU?$char_traits@_W@std@@V?$allocator@_W@2@@std@@QEAAX_K0@Z@4HA+14
	DD	03H
xdata	ENDS
;	COMDAT xdata
xdata	SEGMENT
$handlerMap$1$?_Copy@?$basic_string@_WU?$char_traits@_W@std@@V?$allocator@_W@2@@std@@QEAAX_K0@Z DD 00H
	DD	00H
	DD	00H
	DD	imagerel ?catch$0@?0??_Copy@?$basic_string@_WU?$char_traits@_W@std@@V?$allocator@_W@2@@std@@QEAAX_K0@Z@4HA
	DD	048H
xdata	ENDS
;	COMDAT xdata
xdata	SEGMENT
$handlerMap$0$?_Copy@?$basic_string@_WU?$char_traits@_W@std@@V?$allocator@_W@2@@std@@QEAAX_K0@Z DD 00H
	DD	00H
	DD	00H
	DD	imagerel ?catch$1@?0??_Copy@?$basic_string@_WU?$char_traits@_W@std@@V?$allocator@_W@2@@std@@QEAAX_K0@Z@4HA
	DD	038H
xdata	ENDS
;	COMDAT xdata
xdata	SEGMENT
$tryMap$?_Copy@?$basic_string@_WU?$char_traits@_W@std@@V?$allocator@_W@2@@std@@QEAAX_K0@Z DD 00H
	DD	00H
	DD	03H
	DD	01H
	DD	imagerel $handlerMap$0$?_Copy@?$basic_string@_WU?$char_traits@_W@std@@V?$allocator@_W@2@@std@@QEAAX_K0@Z
	DD	02H
	DD	02H
	DD	03H
	DD	01H
	DD	imagerel $handlerMap$1$?_Copy@?$basic_string@_WU?$char_traits@_W@std@@V?$allocator@_W@2@@std@@QEAAX_K0@Z
xdata	ENDS
;	COMDAT xdata
xdata	SEGMENT
$stateUnwindMap$?_Copy@?$basic_string@_WU?$char_traits@_W@std@@V?$allocator@_W@2@@std@@QEAAX_K0@Z DD 0ffffffffH
	DD	00H
	DD	0ffffffffH
	DD	00H
	DD	01H
	DD	00H
	DD	01H
	DD	00H
xdata	ENDS
;	COMDAT CONST
CONST	SEGMENT
$cppxdata$?_Copy@?$basic_string@_WU?$char_traits@_W@std@@V?$allocator@_W@2@@std@@QEAAX_K0@Z DD 019930522H
	DD	04H
	DD	imagerel $stateUnwindMap$?_Copy@?$basic_string@_WU?$char_traits@_W@std@@V?$allocator@_W@2@@std@@QEAAX_K0@Z
	DD	02H
	DD	imagerel $tryMap$?_Copy@?$basic_string@_WU?$char_traits@_W@std@@V?$allocator@_W@2@@std@@QEAAX_K0@Z
	DD	08H
	DD	imagerel $ip2state$?_Copy@?$basic_string@_WU?$char_traits@_W@std@@V?$allocator@_W@2@@std@@QEAAX_K0@Z
	DD	028H
	DD	00H
	DD	00H
CONST	ENDS
;	COMDAT xdata
xdata	SEGMENT
$unwind$?_Copy@?$basic_string@_WU?$char_traits@_W@std@@V?$allocator@_W@2@@std@@QEAAX_K0@Z DD 062519H
	DD	0d3425H
	DD	0e0135217H
	DD	060107011H
	DD	imagerel __CxxFrameHandler3
	DD	imagerel $cppxdata$?_Copy@?$basic_string@_WU?$char_traits@_W@std@@V?$allocator@_W@2@@std@@QEAAX_K0@Z
xdata	ENDS
;	COMDAT xdata
xdata	SEGMENT
$unwind$?dtor$0@?0??substr@?$basic_string@_WU?$char_traits@_W@std@@V?$allocator@_W@2@@std@@QEBA?AV12@_K0@Z@4HA DD 020601H
	DD	050023206H
xdata	ENDS
;	COMDAT xdata
xdata	SEGMENT
$ip2state$?substr@?$basic_string@_WU?$char_traits@_W@std@@V?$allocator@_W@2@@std@@QEBA?AV12@_K0@Z DD imagerel ?substr@?$basic_string@_WU?$char_traits@_W@std@@V?$allocator@_W@2@@std@@QEBA?AV12@_K0@Z
	DD	0ffffffffH
	DD	imagerel ?substr@?$basic_string@_WU?$char_traits@_W@std@@V?$allocator@_W@2@@std@@QEBA?AV12@_K0@Z+55
	DD	00H
xdata	ENDS
;	COMDAT xdata
xdata	SEGMENT
$stateUnwindMap$?substr@?$basic_string@_WU?$char_traits@_W@std@@V?$allocator@_W@2@@std@@QEBA?AV12@_K0@Z DD 0ffffffffH
	DD	imagerel ?dtor$0@?0??substr@?$basic_string@_WU?$char_traits@_W@std@@V?$allocator@_W@2@@std@@QEBA?AV12@_K0@Z@4HA
xdata	ENDS
;	COMDAT CONST
CONST	SEGMENT
$cppxdata$?substr@?$basic_string@_WU?$char_traits@_W@std@@V?$allocator@_W@2@@std@@QEBA?AV12@_K0@Z DD 019930522H
	DD	01H
	DD	imagerel $stateUnwindMap$?substr@?$basic_string@_WU?$char_traits@_W@std@@V?$allocator@_W@2@@std@@QEBA?AV12@_K0@Z
	DD	00H
	DD	00H
	DD	02H
	DD	imagerel $ip2state$?substr@?$basic_string@_WU?$char_traits@_W@std@@V?$allocator@_W@2@@std@@QEBA?AV12@_K0@Z
	DD	028H
	DD	00H
	DD	00H
CONST	ENDS
;	COMDAT xdata
xdata	SEGMENT
$unwind$?substr@?$basic_string@_WU?$char_traits@_W@std@@V?$allocator@_W@2@@std@@QEBA?AV12@_K0@Z DD 021311H
	DD	03006520aH
	DD	imagerel __CxxFrameHandler3
	DD	imagerel $cppxdata$?substr@?$basic_string@_WU?$char_traits@_W@std@@V?$allocator@_W@2@@std@@QEBA?AV12@_K0@Z
xdata	ENDS
;	COMDAT xdata
xdata	SEGMENT
$unwind$?find_first_not_of@?$basic_string@_WU?$char_traits@_W@std@@V?$allocator@_W@2@@std@@QEBA_KPEB_W_K1@Z DD 020501H
	DD	017405H
xdata	ENDS
;	COMDAT xdata
xdata	SEGMENT
$unwind$?find_first_not_of@?$basic_string@_WU?$char_traits@_W@std@@V?$allocator@_W@2@@std@@QEBA_KAEBV12@_K@Z DD 032001H
	DD	03420H
	DD	0204H
xdata	ENDS
;	COMDAT xdata
xdata	SEGMENT
$unwind$?find_first_of@?$basic_string@_WU?$char_traits@_W@std@@V?$allocator@_W@2@@std@@QEBA_KPEB_W_K1@Z DD 040a01H
	DD	02640aH
	DD	013405H
xdata	ENDS
;	COMDAT xdata
xdata	SEGMENT
$unwind$?find_first_of@?$basic_string@_WU?$char_traits@_W@std@@V?$allocator@_W@2@@std@@QEBA_KAEBV12@_K@Z DD 031c01H
	DD	0341cH
	DD	0204H
xdata	ENDS
;	COMDAT xdata
xdata	SEGMENT
$unwind$?erase@?$basic_string@_WU?$char_traits@_W@std@@V?$allocator@_W@2@@std@@QEAAAEAV12@_K0@Z DD 040a01H
	DD	06340aH
	DD	07006320aH
xdata	ENDS
;	COMDAT xdata
xdata	SEGMENT
$unwind$?erase@?$basic_string@_WU?$char_traits@_W@std@@V?$allocator@_W@2@@std@@QEAAAEAV12@_K@Z DD 010401H
	DD	04204H
xdata	ENDS
;	COMDAT xdata
xdata	SEGMENT
$unwind$?assign@?$basic_string@_WU?$char_traits@_W@std@@V?$allocator@_W@2@@std@@QEAAAEAV12@PEB_W_K@Z DD 060f01H
	DD	07640fH
	DD	06340fH
	DD	0700b320fH
xdata	ENDS
;	COMDAT xdata
xdata	SEGMENT
$unwind$?assign@?$basic_string@_WU?$char_traits@_W@std@@V?$allocator@_W@2@@std@@QEAAAEAV12@AEBV12@_K1@Z DD 081501H
	DD	087415H
	DD	076415H
	DD	063415H
	DD	0e0113215H
xdata	ENDS
;	COMDAT xdata
xdata	SEGMENT
$ip2state$??1?$basic_string@_WU?$char_traits@_W@std@@V?$allocator@_W@2@@std@@QEAA@XZ DD imagerel ??1?$basic_string@_WU?$char_traits@_W@std@@V?$allocator@_W@2@@std@@QEAA@XZ
	DD	0ffffffffH
xdata	ENDS
;	COMDAT CONST
CONST	SEGMENT
$cppxdata$??1?$basic_string@_WU?$char_traits@_W@std@@V?$allocator@_W@2@@std@@QEAA@XZ DD 019930522H
	DD	00H
	DD	00H
	DD	00H
	DD	00H
	DD	01H
	DD	imagerel $ip2state$??1?$basic_string@_WU?$char_traits@_W@std@@V?$allocator@_W@2@@std@@QEAA@XZ
	DD	020H
	DD	00H
	DD	04H
CONST	ENDS
;	COMDAT xdata
xdata	SEGMENT
$unwind$??1?$basic_string@_WU?$char_traits@_W@std@@V?$allocator@_W@2@@std@@QEAA@XZ DD 020f19H
	DD	030025206H
	DD	imagerel __CxxFrameHandler3
	DD	imagerel $cppxdata$??1?$basic_string@_WU?$char_traits@_W@std@@V?$allocator@_W@2@@std@@QEAA@XZ
xdata	ENDS
;	COMDAT xdata
xdata	SEGMENT
$unwind$?_Assign_rv@?$basic_string@_WU?$char_traits@_W@std@@V?$allocator@_W@2@@std@@QEAAX$$QEAV12@@Z DD 060f01H
	DD	07640fH
	DD	06340fH
	DD	0700b320fH
xdata	ENDS
;	COMDAT xdata
xdata	SEGMENT
$ip2state$??0?$basic_string@_WU?$char_traits@_W@std@@V?$allocator@_W@2@@std@@QEAA@$$QEAV01@@Z DD imagerel ??0?$basic_string@_WU?$char_traits@_W@std@@V?$allocator@_W@2@@std@@QEAA@$$QEAV01@@Z
	DD	0ffffffffH
xdata	ENDS
;	COMDAT CONST
CONST	SEGMENT
$cppxdata$??0?$basic_string@_WU?$char_traits@_W@std@@V?$allocator@_W@2@@std@@QEAA@$$QEAV01@@Z DD 019930522H
	DD	00H
	DD	00H
	DD	00H
	DD	00H
	DD	01H
	DD	imagerel $ip2state$??0?$basic_string@_WU?$char_traits@_W@std@@V?$allocator@_W@2@@std@@QEAA@$$QEAV01@@Z
	DD	020H
	DD	00H
	DD	04H
CONST	ENDS
;	COMDAT xdata
xdata	SEGMENT
$unwind$??0?$basic_string@_WU?$char_traits@_W@std@@V?$allocator@_W@2@@std@@QEAA@$$QEAV01@@Z DD 020f19H
	DD	030025206H
	DD	imagerel __CxxFrameHandler3
	DD	imagerel $cppxdata$??0?$basic_string@_WU?$char_traits@_W@std@@V?$allocator@_W@2@@std@@QEAA@$$QEAV01@@Z
xdata	ENDS
;	COMDAT xdata
xdata	SEGMENT
$unwind$??0?$basic_string@_WU?$char_traits@_W@std@@V?$allocator@_W@2@@std@@QEAA@PEB_W@Z DD 020601H
	DD	030023206H
xdata	ENDS
;	COMDAT xdata
xdata	SEGMENT
$unwind$??0?$basic_string@_WU?$char_traits@_W@std@@V?$allocator@_W@2@@std@@QEAA@AEBV01@_K1AEBV?$allocator@_W@1@@Z DD 020601H
	DD	030023206H
xdata	ENDS
;	COMDAT xdata
xdata	SEGMENT
$unwind$??0?$basic_string@_WU?$char_traits@_W@std@@V?$allocator@_W@2@@std@@QEAA@AEBV01@@Z DD 020601H
	DD	030023206H
xdata	ENDS
;	COMDAT xdata
xdata	SEGMENT
$unwind$?allocate@?$allocator@_W@std@@QEAAPEA_W_K@Z DD 010401H
	DD	04204H
xdata	ENDS
;	COMDAT xdata
xdata	SEGMENT
$unwind$?deallocate@?$allocator@_W@std@@QEAAXPEA_W_K@Z DD 010401H
	DD	04204H
xdata	ENDS
;	COMDAT xdata
xdata	SEGMENT
$unwind$?_Deallocate@std@@YAXPEAX_K1@Z DD 010401H
	DD	04204H
xdata	ENDS
;	COMDAT xdata
xdata	SEGMENT
$unwind$?_Allocate@std@@YAPEAX_K0_N@Z DD 010401H
	DD	04204H
xdata	ENDS
;	COMDAT xdata
xdata	SEGMENT
$unwind$?copy@?$char_traits@_W@std@@SAPEA_WPEA_WPEB_W_K@Z DD 020601H
	DD	030023206H
xdata	ENDS
;	COMDAT xdata
xdata	SEGMENT
$unwind$?sqrt@@YAMM@Z DD 010401H
	DD	04204H
xdata	ENDS
;	COMDAT xdata
xdata	SEGMENT
$unwind$?sin@@YAMM@Z DD 010401H
	DD	04204H
xdata	ENDS
;	COMDAT xdata
xdata	SEGMENT
$unwind$?fmod@@YAMMM@Z DD 010401H
	DD	04204H
xdata	ENDS
;	COMDAT xdata
xdata	SEGMENT
$unwind$?cos@@YAMM@Z DD 010401H
	DD	04204H
xdata	ENDS
;	COMDAT xdata
xdata	SEGMENT
$unwind$wmemcpy DD 020601H
	DD	030023206H
xdata	ENDS
;	COMDAT xdata
xdata	SEGMENT
$unwind$??_H@YAXPEAX_K1P6APEAX0@Z@Z DD 081901H
	DD	086419H
	DD	075419H
	DD	063419H
	DD	070153219H
xdata	ENDS
; Function compile flags: /Odsp
;	COMDAT ??_E?$basic_stringstream@_WU?$char_traits@_W@std@@V?$allocator@_W@2@@std@@$4PPPPPPPM@A@EAAPEAXI@Z
_TEXT	SEGMENT
??_E?$basic_stringstream@_WU?$char_traits@_W@std@@V?$allocator@_W@2@@std@@$4PPPPPPPM@A@EAAPEAXI@Z PROC ; std::basic_stringstream<wchar_t,std::char_traits<wchar_t>,std::allocator<wchar_t> >::`vector deleting destructor', COMDAT
	movsxd	rax, DWORD PTR [rcx-4]
	sub	rcx, rax
	jmp	??_E?$basic_stringstream@_WU?$char_traits@_W@std@@V?$allocator@_W@2@@std@@UEAAPEAXI@Z
??_E?$basic_stringstream@_WU?$char_traits@_W@std@@V?$allocator@_W@2@@std@@$4PPPPPPPM@A@EAAPEAXI@Z ENDP ; std::basic_stringstream<wchar_t,std::char_traits<wchar_t>,std::allocator<wchar_t> >::`vector deleting destructor'
_TEXT	ENDS
; Function compile flags: /Ogtp
; File c:\program files (x86)\microsoft visual studio 14.0\vc\include\type_traits
;	COMDAT ??$forward@V?$vector@MV?$allocator@M@std@@@std@@@std@@YA$$QEAV?$vector@MV?$allocator@M@std@@@0@AEAV10@@Z
_TEXT	SEGMENT
_Arg$ = 8
??$forward@V?$vector@MV?$allocator@M@std@@@std@@@std@@YA$$QEAV?$vector@MV?$allocator@M@std@@@0@AEAV10@@Z PROC ; std::forward<std::vector<float,std::allocator<float> > >, COMDAT

; 1276 : 	return (static_cast<_Ty&&>(_Arg));

	mov	rax, rcx

; 1277 : 	}

	ret	0
??$forward@V?$vector@MV?$allocator@M@std@@@std@@@std@@YA$$QEAV?$vector@MV?$allocator@M@std@@@0@AEAV10@@Z ENDP ; std::forward<std::vector<float,std::allocator<float> > >
_TEXT	ENDS
; Function compile flags: /Ogtp
; File c:\program files (x86)\microsoft visual studio 14.0\vc\include\xutility
;	COMDAT ??$_Copy_memmove@PEBMPEAM@std@@YAPEAMPEBM0PEAM@Z
_TEXT	SEGMENT
_First$ = 48
_Last$ = 56
_Dest$ = 64
??$_Copy_memmove@PEBMPEAM@std@@YAPEAMPEBM0PEAM@Z PROC	; std::_Copy_memmove<float const * __ptr64,float * __ptr64>, COMDAT

; 2301 : 	{	// implement copy-like function as memmove

$LN4:
	mov	QWORD PTR [rsp+8], rbx
	push	rdi
	sub	rsp, 32					; 00000020H
	mov	rbx, rdx
	mov	rdi, r8

; 2302 : 	const char * const _First_ch = reinterpret_cast<const char *>(_First);
; 2303 : 	const char * const _Last_ch = reinterpret_cast<const char *>(_Last);
; 2304 : 	char * const _Dest_ch = reinterpret_cast<char *>(_Dest);
; 2305 : 	const size_t _Count = _Last_ch - _First_ch;

	sub	rbx, rcx

; 2306 : 	_CSTD memmove(_Dest_ch, _First_ch, _Count);

	mov	rdx, rcx
	mov	r8, rbx
	mov	rcx, rdi
	call	QWORD PTR __imp_memmove

; 2307 : 	return (reinterpret_cast<_OutIt>(_Dest_ch + _Count));

	lea	rax, QWORD PTR [rbx+rdi]

; 2308 : 	}

	mov	rbx, QWORD PTR [rsp+48]
	add	rsp, 32					; 00000020H
	pop	rdi
	ret	0
??$_Copy_memmove@PEBMPEAM@std@@YAPEAMPEBM0PEAM@Z ENDP	; std::_Copy_memmove<float const * __ptr64,float * __ptr64>
_TEXT	ENDS
; Function compile flags: /Ogtp
; File c:\program files (x86)\microsoft visual studio 14.0\vc\include\xmemory
; File c:\program files (x86)\microsoft visual studio 14.0\vc\include\xutility
; File c:\program files (x86)\microsoft visual studio 14.0\vc\include\xmemory
;	COMDAT ??$_Uninitialized_copy_al_unchecked1@$$CBMMV?$allocator@M@std@@@std@@YAPEAMPEBM0PEAMAEAU?$_Wrap_alloc@V?$allocator@M@std@@@0@U_Really_trivial_ptr_iterator_tag@0@U?$integral_constant@_N$00@0@@Z
_TEXT	SEGMENT
_First$ = 48
_Last$ = 56
_Dest$ = 64
__formal$ = 72
__formal$ = 80
__formal$ = 88
??$_Uninitialized_copy_al_unchecked1@$$CBMMV?$allocator@M@std@@@std@@YAPEAMPEBM0PEAMAEAU?$_Wrap_alloc@V?$allocator@M@std@@@0@U_Really_trivial_ptr_iterator_tag@0@U?$integral_constant@_N$00@0@@Z PROC ; std::_Uninitialized_copy_al_unchecked1<float const ,float,std::allocator<float> >, COMDAT

; 239  : 	{	// copy [_First, _Last) to raw _Dest, using default _Alloc construct, memmove optimization

$LN6:
	mov	QWORD PTR [rsp+8], rbx
	push	rdi
	sub	rsp, 32					; 00000020H
	mov	rbx, rdx
	mov	rdi, r8
; File c:\program files (x86)\microsoft visual studio 14.0\vc\include\xutility

; 2305 : 	const size_t _Count = _Last_ch - _First_ch;

	sub	rbx, rcx

; 2306 : 	_CSTD memmove(_Dest_ch, _First_ch, _Count);

	mov	rdx, rcx
	mov	r8, rbx
	mov	rcx, rdi
	call	QWORD PTR __imp_memmove

; 2307 : 	return (reinterpret_cast<_OutIt>(_Dest_ch + _Count));

	lea	rax, QWORD PTR [rbx+rdi]
; File c:\program files (x86)\microsoft visual studio 14.0\vc\include\xmemory

; 241  : 	}

	mov	rbx, QWORD PTR [rsp+48]
	add	rsp, 32					; 00000020H
	pop	rdi
	ret	0
??$_Uninitialized_copy_al_unchecked1@$$CBMMV?$allocator@M@std@@@std@@YAPEAMPEBM0PEAMAEAU?$_Wrap_alloc@V?$allocator@M@std@@@0@U_Really_trivial_ptr_iterator_tag@0@U?$integral_constant@_N$00@0@@Z ENDP ; std::_Uninitialized_copy_al_unchecked1<float const ,float,std::allocator<float> >
_TEXT	ENDS
; Function compile flags: /Ogtp
; File c:\program files (x86)\microsoft visual studio 14.0\vc\include\xutility
;	COMDAT ??$_Ptr_copy_cat@$$CBMM@std@@YA?AU_Really_trivial_ptr_iterator_tag@0@AEBQEBMAEBQEAM@Z
_TEXT	SEGMENT
__$ReturnUdt$ = 8
__formal$ = 16
__formal$ = 24
??$_Ptr_copy_cat@$$CBMM@std@@YA?AU_Really_trivial_ptr_iterator_tag@0@AEBQEBMAEBQEAM@Z PROC ; std::_Ptr_copy_cat<float const ,float>, COMDAT

; 793  : 	return {};

	mov	rax, rcx

; 794  : 	}

	ret	0
??$_Ptr_copy_cat@$$CBMM@std@@YA?AU_Really_trivial_ptr_iterator_tag@0@AEBQEBMAEBQEAM@Z ENDP ; std::_Ptr_copy_cat<float const ,float>
_TEXT	ENDS
; Function compile flags: /Ogtp
; File c:\program files (x86)\microsoft visual studio 14.0\vc\include\xmemory0
; File c:\program files (x86)\microsoft visual studio 14.0\vc\include\vector
; File c:\program files (x86)\microsoft visual studio 14.0\vc\include\xmemory0
;	COMDAT ??$construct@VTileRow@@V1@@?$allocator@VTileRow@@@std@@QEAAXPEAVTileRow@@$$QEAV2@@Z
_TEXT	SEGMENT
$T1 = 0
this$ = 32
$T2 = 40
_Ptr$ = 40
<_Args_0>$ = 48
??$construct@VTileRow@@V1@@?$allocator@VTileRow@@@std@@QEAAXPEAVTileRow@@$$QEAV2@@Z PROC ; std::allocator<TileRow>::construct<TileRow,TileRow>, COMDAT

; 736  : 		{	// construct _Objty(_Types...) at _Ptr

$LN89:

; 737  : 		::new ((void *)_Ptr) _Objty(_STD forward<_Types>(_Args)...);

	test	rdx, rdx
	je	SHORT $LN88@construct
	sub	rsp, 24
	mov	QWORD PTR $T1[rsp], -2
	mov	QWORD PTR $T2[rsp], rdx
	mov	eax, DWORD PTR [r8]
	mov	DWORD PTR [rdx], eax
	mov	eax, DWORD PTR [r8+4]
	mov	DWORD PTR [rdx+4], eax
; File c:\program files (x86)\microsoft visual studio 14.0\vc\include\vector

; 485  : 		: _Myfirst(),

	xor	ecx, ecx
	mov	QWORD PTR [rdx+8], rcx

; 486  : 		_Mylast(),

	mov	QWORD PTR [rdx+16], rcx

; 487  : 		_Myend()

	mov	QWORD PTR [rdx+24], rcx

; 870  : 		this->_Myfirst() = _Right._Myfirst();

	mov	rax, QWORD PTR [r8+8]
	mov	QWORD PTR [rdx+8], rax

; 871  : 		this->_Mylast() = _Right._Mylast();

	mov	rax, QWORD PTR [r8+16]
	mov	QWORD PTR [rdx+16], rax

; 872  : 		this->_Myend() = _Right._Myend();

	mov	rax, QWORD PTR [r8+24]
	mov	QWORD PTR [rdx+24], rax

; 873  : 
; 874  : 		_Right._Myfirst() = pointer();

	mov	QWORD PTR [r8+8], rcx

; 875  : 		_Right._Mylast() = pointer();

	mov	QWORD PTR [r8+16], rcx

; 876  : 		_Right._Myend() = pointer();

	mov	QWORD PTR [r8+24], rcx
; File c:\program files (x86)\microsoft visual studio 14.0\vc\include\xmemory0

; 738  : 		}

	add	rsp, 24
$LN88@construct:
	ret	0
??$construct@VTileRow@@V1@@?$allocator@VTileRow@@@std@@QEAAXPEAVTileRow@@$$QEAV2@@Z ENDP ; std::allocator<TileRow>::construct<TileRow,TileRow>
_TEXT	ENDS
;	COMDAT text$x
text$x	SEGMENT
$T1 = 0
this$ = 32
$T2 = 40
_Ptr$ = 40
<_Args_0>$ = 48
?dtor$0@?0???$construct@VTileRow@@V1@@?$allocator@VTileRow@@@std@@QEAAXPEAVTileRow@@$$QEAV2@@Z@4HA PROC ; `std::allocator<TileRow>::construct<TileRow,TileRow>'::`1'::dtor$0
	mov	rcx, QWORD PTR $T2[rdx]
	add	rcx, 8
	jmp	??1?$vector@MV?$allocator@M@std@@@std@@QEAA@XZ ; std::vector<float,std::allocator<float> >::~vector<float,std::allocator<float> >
?dtor$0@?0???$construct@VTileRow@@V1@@?$allocator@VTileRow@@@std@@QEAAXPEAVTileRow@@$$QEAV2@@Z@4HA ENDP ; `std::allocator<TileRow>::construct<TileRow,TileRow>'::`1'::dtor$0
text$x	ENDS
; Function compile flags: /Ogtp
;	COMDAT text$x
text$x	SEGMENT
$T1 = 0
this$ = 32
$T2 = 40
_Ptr$ = 40
<_Args_0>$ = 48
?dtor$0@?0???$construct@VTileRow@@V1@@?$allocator@VTileRow@@@std@@QEAAXPEAVTileRow@@$$QEAV2@@Z@4HA PROC ; `std::allocator<TileRow>::construct<TileRow,TileRow>'::`1'::dtor$0
	mov	rcx, QWORD PTR $T2[rdx]
	add	rcx, 8
	jmp	??1?$vector@MV?$allocator@M@std@@@std@@QEAA@XZ ; std::vector<float,std::allocator<float> >::~vector<float,std::allocator<float> >
?dtor$0@?0???$construct@VTileRow@@V1@@?$allocator@VTileRow@@@std@@QEAAXPEAVTileRow@@$$QEAV2@@Z@4HA ENDP ; `std::allocator<TileRow>::construct<TileRow,TileRow>'::`1'::dtor$0
text$x	ENDS
; Function compile flags: /Ogtp
; File c:\program files (x86)\microsoft visual studio 14.0\vc\include\type_traits
;	COMDAT ??$move@AEAU?$_Wrap_alloc@V?$allocator@M@std@@@std@@@std@@YA$$QEAU?$_Wrap_alloc@V?$allocator@M@std@@@0@AEAU10@@Z
_TEXT	SEGMENT
_Arg$ = 8
