 BerconMaps_2018_64

 Timestamp is 5ced5e4f (Tue May 28 12:14:07 2019)

 Preferred load address is 0000000180000000

 Start         Length     Name                   Class
 0001:00000000 000079b0H .text$di                CODE
 0001:000079b0 00022590H .text$mn                CODE
 0001:00029f40 00000020H .text$mn$00             CODE
 0001:00029f60 00000e20H .text$x                 CODE
 0001:0002ad80 000001dfH .text$yd                CODE
 0002:00000000 000008b8H .idata$5                DATA
 0002:000008b8 00000010H .00cfg                  DATA
 0002:000008c8 00000008H .CRT$XCA                DATA
 0002:000008d0 000000f8H .CRT$XCU                DATA
 0002:000009c8 00000008H .CRT$XCZ                DATA
 0002:000009d0 00000008H .CRT$XIA                DATA
 0002:000009d8 00000008H .CRT$XIZ                DATA
 0002:000009e0 00000008H .CRT$XPA                DATA
 0002:000009e8 00000008H .CRT$XPZ                DATA
 0002:000009f0 00000008H .CRT$XTA                DATA
 0002:000009f8 00000008H .CRT$XTZ                DATA
 0002:00000a00 000063a0H .rdata                  DATA
 0002:00006da0 000020d4H .rdata$r                DATA
 0002:00008e74 000002ccH .rdata$zzzdbg           DATA
 0002:00009140 00000008H .rtc$IAA                DATA
 0002:00009148 00000008H .rtc$IZZ                DATA
 0002:00009150 00000008H .rtc$TAA                DATA
 0002:00009158 00000008H .rtc$TZZ                DATA
 0002:00009160 00003b60H .xdata                  DATA
 0002:0000ccc0 000001e0H .xdata$x                DATA
 0002:0000cea0 00000104H .edata                  DATA
 0002:0000cfa4 00000118H .idata$2                DATA
 0002:0000d0bc 00000014H .idata$3                DATA
 0002:0000d0d0 000008b8H .idata$4                DATA
 0002:0000d988 00002c7aH .idata$6                DATA
 0003:00000000 00000730H .data                   DATA
 0003:00000730 000009f0H .data$r                 DATA
 0003:00001120 00000b58H .bss                    DATA
 0004:00000000 00001f2cH .pdata                  DATA
 0005:00000000 0000002cH .gfids$y                DATA
 0006:00000000 00000a10H .rsrc$01                DATA
 0006:00000a10 00019b20H .rsrc$02                DATA

  Address         Publics by Value              Rva+Base               Lib:Object

 0000:00000000       __guard_iat_count          0000000000000000     <absolute>
 0000:00000000       __guard_fids_count         0000000000000000     <absolute>
 0000:00000000       __dynamic_value_reloc_table 0000000000000000     <absolute>
 0000:00000000       ___safe_se_handler_table   0000000000000000     <absolute>
 0000:00000000       __guard_iat_table          0000000000000000     <absolute>
 0000:00000000       ___safe_se_handler_count   0000000000000000     <absolute>
 0000:00000000       __guard_longjmp_table      0000000000000000     <absolute>
 0000:00000000       __guard_longjmp_count      0000000000000000     <absolute>
 0000:00000000       __guard_fids_table         0000000000000000     <absolute>
 0000:00000100       __guard_flags              0000000000000100     <absolute>
 0000:00000000       __ImageBase                0000000180000000     <linker-defined>
 0001:000079b0       ?Create@BerconDistortionClassDesc@@UEAAPEAXH@Z 00000001800089b0 f i BerconDistortion.obj
 0001:000079f0       ?ClassName@BerconDistortionClassDesc@@UEAAPEB_WXZ 00000001800089f0 f i BerconDistortion.obj
 0001:00007a00       ?InternalName@BerconDistortionClassDesc@@UEAAPEB_WXZ 0000000180008a00 f i BerconDistortion.obj
 0001:00007a10       ??_EBerconDistortionClassDesc@@UEAAPEAXI@Z 0000000180008a10 f i BerconDistortion.obj
 0001:00007a10       ??_GBerconDistortionClassDesc@@UEAAPEAXI@Z 0000000180008a10 f i BerconDistortion.obj
 0001:00007a70       ??_GXYZ_Desc@@UEAAPEAXI@Z  0000000180008a70 f i BerconDistortion.obj
 0001:00007a70       ??_EXYZ_Desc@@UEAAPEAXI@Z  0000000180008a70 f i BerconDistortion.obj
 0001:00007ad0       ?What@TabOutOfRangeException@Util@MaxSDK@@UEBAPEB_WXZ 0000000180008ad0 f i BerconDistortion.obj
 0001:00007af0       ??1TabOutOfRangeException@Util@MaxSDK@@UEAA@XZ 0000000180008af0 f i BerconDistortion.obj
 0001:00007b10       ??0TabOutOfRangeException@Util@MaxSDK@@QEAA@AEBV012@@Z 0000000180008b10 f i BerconDistortion.obj
 0001:00007b50       ??_ETabOutOfRangeException@Util@MaxSDK@@UEAAPEAXI@Z 0000000180008b50 f i BerconDistortion.obj
 0001:00007b50       ??_GTabOutOfRangeException@Util@MaxSDK@@UEAAPEAXI@Z 0000000180008b50 f i BerconDistortion.obj
 0001:00007bb0       ?SetUserDlgProc@ClassDesc2@@UEAA_NPEAVParamBlockDesc2@@PEAVParamMap2UserDlgProc@@@Z 0000000180008bb0 f i BerconDistortion.obj
 0001:00007bc0       ?InitialRollupPageState@ClassDesc@@UEAAKXZ 0000000180008bc0 f i BerconDistortion.obj
 0001:00007bd0       ?GetMacroRecorderName@Animatable@@UEAA_N_NAEAVWStr@@@Z 0000000180008bd0 f i BerconDistortion.obj
 0001:00007bd0       ?IsLocalOutputMeaningful@Texmap@@UEAA_NAEAVShadeContext@@@Z 0000000180008bd0 f i BerconDistortion.obj
 0001:00007bd0       ?UseOnlyInternalNameForMAXScriptExposure@ClassDesc@@UEAA_NXZ 0000000180008bd0 f i BerconDistortion.obj
 0001:00007bd0       ?DrawRepresentation@ClassDesc@@UEAA_NKPEAUHDC__@@AEAVBox2@@@Z 0000000180008bd0 f i BerconDistortion.obj
 0001:00007be0       ?NumInterfaces@ClassDesc@@UEAAHXZ 0000000180008be0 f i BerconDistortion.obj
 0001:00007bf0       ?GetInterfaceAt@ClassDesc@@UEAAPEAVFPInterface@@H@Z 0000000180008bf0 f i BerconDistortion.obj
 0001:00007c10       ?ClearInterfaces@ClassDesc@@UEAAXXZ 0000000180008c10 f i BerconDistortion.obj
 0001:00007c20       ?SubClassID@ClassDesc@@UEAA?AVClass_ID@@XZ 0000000180008c20 f i BerconDistortion.obj
 0001:00007c30       ??0BerconDistortion@@QEAA@XZ 0000000180008c30 f   BerconDistortion.obj
 0001:00007d80       ??0BerconSC@@QEAA@QEAVShadeContext@@@Z 0000000180008d80 f i BerconDistortion.obj
 0001:00007f50       ??0BerconXYZ@@QEAA@XZ      0000000180008f50 f i BerconDistortion.obj
 0001:00007ff0       ??0VertexNormalsControl@@QEAA@XZ 0000000180008ff0 f i BerconDistortion.obj
 0001:00008020       ??0XYZ_Desc@@QEAA@PEAVClassDesc2@@HHHHHHH@Z 0000000180009020 f i BerconDistortion.obj
 0001:000092f0       ??1?$Tab@PEAVBaseInterface@@@@QEAA@XZ 000000018000a2f0 f i BerconDistortion.obj
 0001:00009310       ??1?$Tab@PEAVVertexNormalsCallback@@@@QEAA@XZ 000000018000a310 f i BerconDistortion.obj
 0001:00009330       ??1BerconSC@@UEAA@XZ       000000018000a330 f i BerconDistortion.obj
 0001:00009380       ??1ParamMap2UserDlgProc@@UEAA@XZ 000000018000a380 f i BerconDistortion.obj
 0001:00009390       ??1RenderGlobalContext@@UEAA@XZ 000000018000a390 f i BerconDistortion.obj
 0001:000093b0       ??1ShadeContext@@UEAA@XZ   000000018000a3b0 f i BerconDistortion.obj
 0001:000093f0       ??1ShadeOutput@@UEAA@XZ    000000018000a3f0 f i BerconDistortion.obj
 0001:00009410       ??1Texmap@@UEAA@XZ         000000018000a410 f i BerconDistortion.obj
 0001:00009430       ??A?$Tab@PEAVFPInterface@@@@QEBAAEAPEAVFPInterface@@_J@Z 000000018000a430 f i BerconDistortion.obj
 0001:00009520       ??_EBerconDistortion@@WEA@EAAPEAXI@Z 000000018000a520 f i BerconDistortion.obj
 0001:0000952c       ??_EBerconSC@@WCII@EAAPEAXI@Z 000000018000a52c f i BerconDistortion.obj
 0001:00009540       ??_GBaseInterfaceServer@@UEAAPEAXI@Z 000000018000a540 f i BerconDistortion.obj
 0001:00009540       ??_EBaseInterfaceServer@@UEAAPEAXI@Z 000000018000a540 f i BerconDistortion.obj
 0001:00009590       ??_GBerconDistortion@@UEAAPEAXI@Z 000000018000a590 f i BerconDistortion.obj
 0001:00009590       ??_EBerconDistortion@@UEAAPEAXI@Z 000000018000a590 f i BerconDistortion.obj
 0001:00009620       ??_GBerconSC@@UEAAPEAXI@Z  000000018000a620 f i BerconDistortion.obj
 0001:00009620       ??_EBerconSC@@UEAAPEAXI@Z  000000018000a620 f i BerconDistortion.obj
 0001:000096a0       ??_EBerconXYZDlgProc@@UEAAPEAXI@Z 000000018000a6a0 f i BerconDistortion.obj
 0001:000096a0       ??_GBerconXYZDlgProc@@UEAAPEAXI@Z 000000018000a6a0 f i BerconDistortion.obj
 0001:000096f0       ??_GInterfaceServer@@UEAAPEAXI@Z 000000018000a6f0 f i BerconDistortion.obj
 0001:000096f0       ??_EInterfaceServer@@UEAAPEAXI@Z 000000018000a6f0 f i BerconDistortion.obj
 0001:00009740       ??_GParamMap2UserDlgProc@@UEAAPEAXI@Z 000000018000a740 f i BerconDistortion.obj
 0001:00009740       ??_EParamMap2UserDlgProc@@UEAAPEAXI@Z 000000018000a740 f i BerconDistortion.obj
 0001:00009780       ??_GRenderGlobalContext@@UEAAPEAXI@Z 000000018000a780 f i BerconDistortion.obj
 0001:00009780       ??_ERenderGlobalContext@@UEAAPEAXI@Z 000000018000a780 f i BerconDistortion.obj
 0001:000097e0       ??_GShadeContext@@UEAAPEAXI@Z 000000018000a7e0 f i BerconDistortion.obj
 0001:000097e0       ??_EShadeContext@@UEAAPEAXI@Z 000000018000a7e0 f i BerconDistortion.obj
 0001:00009850       ??_GShadeOutput@@UEAAPEAXI@Z 000000018000a850 f i BerconDistortion.obj
 0001:00009850       ??_EShadeOutput@@UEAAPEAXI@Z 000000018000a850 f i BerconDistortion.obj
 0001:000098b0       ?ActivateTexDisplay@BerconDistortion@@UEAAXH@Z 000000018000a8b0 f i BerconDistortion.obj
 0001:000098e0       ?Antialias@BerconSC@@UEAAHXZ 000000018000a8e0 f i BerconDistortion.obj
 0001:000098f0       ?BarycentricCoords@BerconSC@@UEAA?AVPoint3@@XZ 000000018000a8f0 f i BerconDistortion.obj
 0001:00009910       ?BarycentricCoords@ShadeContext@@UEAA?AVPoint3@@XZ 000000018000a910 f i BerconDistortion.obj
 0001:00009920       ?BumpBasisVectors@BerconSC@@UEAAHQEAVPoint3@@HH@Z 000000018000a920 f i BerconDistortion.obj
 0001:00009940       ?BypassTrackBar@Animatable@@UEAAHXZ 000000018000a940 f i BerconDistortion.obj
 0001:00009950       ?CamFarRange@BerconSC@@UEAAMXZ 000000018000a950 f i BerconDistortion.obj
 0001:00009970       ?CamNearRange@BerconSC@@UEAAMXZ 000000018000a970 f i BerconDistortion.obj
 0001:00009990       ?CamFarRange@ShadeContext@@UEAAMXZ 000000018000a990 f i BerconDistortion.obj
 0001:00009990       ?GetAAFilterSize@RenderGlobalContext@@UEAAMXZ 000000018000a990 f i BerconDistortion.obj
 0001:00009990       ?RayConeAngle@ShadeContext@@UEAAMXZ 000000018000a990 f i BerconDistortion.obj
 0001:00009990       ?CamNearRange@ShadeContext@@UEAAMXZ 000000018000a990 f i BerconDistortion.obj
 0001:00009990       ?Curve@ShadeContext@@UEAAMXZ 000000018000a990 f i BerconDistortion.obj
 0001:000099a0       ?CamPos@BerconSC@@UEAA?AVPoint3@@XZ 000000018000a9a0 f i BerconDistortion.obj
 0001:000099d0       ?ClassID@BerconDistortion@@UEAA?AVClass_ID@@XZ 000000018000a9d0 f i BerconDistortion.obj
 0001:000099d0       ?ClassID@BerconDistortionClassDesc@@UEAA?AVClass_ID@@XZ 000000018000a9d0 f i BerconDistortion.obj
 0001:000099f0       ?ClassID@BerconSC@@UEAA?AVClass_ID@@XZ 000000018000a9f0 f i BerconDistortion.obj
 0001:00009a10       ?Clone@BerconDistortion@@UEAAPEAVReferenceTarget@@AEAVRemapDir@@@Z 000000018000aa10 f   BerconDistortion.obj
 0001:00009b40       ?CreateParamDlg@BerconDistortion@@UEAAPEAVParamDlg@@PEAUHWND__@@PEAVIMtlParams@@@Z 000000018000ab40 f   BerconDistortion.obj
 0001:00009bc0       ?CurTime@BerconSC@@UEAAHXZ 000000018000abc0 f i BerconDistortion.obj
 0001:00009bd0       ?Curve@BerconSC@@UEAAMXZ   000000018000abd0 f i BerconDistortion.obj
 0001:00009bf0       ?DP@BerconSC@@UEAA?AVPoint3@@XZ 000000018000abf0 f i BerconDistortion.obj
 0001:00009c20       ?DP@BerconSC@@UEAAXAEAVPoint3@@0@Z 000000018000ac20 f i BerconDistortion.obj
 0001:00009c40       ?DPObj@BerconSC@@UEAA?AVPoint3@@XZ 000000018000ac40 f i BerconDistortion.obj
 0001:00009c70       ?DPObjRelBox@BerconSC@@UEAA?AVPoint3@@XZ 000000018000ac70 f i BerconDistortion.obj
 0001:00009ca0       ?DPdUVW@BerconSC@@UEAAXQEAVPoint3@@H@Z 000000018000aca0 f i BerconDistortion.obj
 0001:00009cc0       ?DUVW@BerconSC@@UEAA?AVPoint3@@H@Z 000000018000acc0 f i BerconDistortion.obj
 0001:00009ce4       ?DebugFile@BerconSC@@WCII@EAAPEAU_iobuf@@XZ 000000018000ace4 f i BerconDistortion.obj
 0001:00009cf0       ?DeleteThis@BerconXYZDlgProc@@UEAAXXZ 000000018000acf0 f i BerconDistortion.obj
 0001:00009d20       ?DiffuseIllum@BerconSC@@UEAA?AVColor@@XZ 000000018000ad20 f i BerconDistortion.obj
 0001:00009d50       ?DlgProc@BerconXYZDlgProc@@UEAA_JHPEAVIParamMap2@@PEAUHWND__@@I_K_J@Z 000000018000ad50 f i BerconDistortion.obj
 0001:0000a260       ?EditTrack@Animatable@@UEAAXXZ 000000018000b260 f i BerconDistortion.obj
 0001:0000a290       ?EvalColor@BerconDistortion@@UEAA?AVAColor@@AEAVShadeContext@@@Z 000000018000b290 f   BerconDistortion.obj
 0001:0000a450       ?EvalEnvironMap@BerconSC@@UEAA?AVAColor@@PEAVTexmap@@VPoint3@@@Z 000000018000b450 f i BerconDistortion.obj
 0001:0000a4a0       ?EvalGlobalEnvironMap@BerconSC@@UEAA?AVAColor@@VPoint3@@@Z 000000018000b4a0 f i BerconDistortion.obj
 0001:0000a4f0       ?EvalGlobalEnvironMap@RenderGlobalContext@@UEAA?AVAColor@@AEAVShadeContext@@AEAVRay@@H@Z 000000018000b4f0 f i BerconDistortion.obj
 0001:0000a510       ?EvalGlobalEnvironMap@ShadeContext@@UEAA?AVAColor@@VPoint3@@@Z 000000018000b510 f i BerconDistortion.obj
 0001:0000a520       ?EvalMono@BerconDistortion@@UEAAMAEAVShadeContext@@@Z 000000018000b520 f   BerconDistortion.obj
 0001:0000a6b0       ?EvalNormalPerturb@BerconDistortion@@UEAA?AVPoint3@@AEAVShadeContext@@@Z 000000018000b6b0 f   BerconDistortion.obj
 0001:0000a840       ?Execute@BerconSC@@UEAA_JH_K00@Z 000000018000b840 f i BerconDistortion.obj
 0001:0000a854       ?Execute@BerconSC@@WCII@EAA_JH_K00@Z 000000018000b854 f i BerconDistortion.obj
 0001:0000a860       ?FaceNumber@BerconSC@@UEAAHXZ 000000018000b860 f i BerconDistortion.obj
 0001:0000a870       ?GNormal@BerconSC@@UEAA?AVPoint3@@XZ 000000018000b870 f i BerconDistortion.obj
 0001:0000a8a0       ?SetSelKeyCoordsExpr@Animatable@@UEAAHPEAVParamDimension@@PEB_W1K@Z 000000018000b8a0 f i BerconDistortion.obj
 0001:0000a8a0       ?TrackParamsType@Animatable@@UEAAHXZ 000000018000b8a0 f i BerconDistortion.obj
 0001:0000a8a0       ?IsKeySelected@Animatable@@UEAAHH@Z 000000018000b8a0 f i BerconDistortion.obj
 0001:0000a8a0       ?Load@ClassDesc@@UEAA?AW4IOResult@@PEAVILoad@@@Z 000000018000b8a0 f i BerconDistortion.obj
 0001:0000a8a0       ?NumRenderInstances@RenderGlobalContext@@UEAAHXZ 000000018000b8a0 f i BerconDistortion.obj
 0001:0000a8a0       ?Execute@ClassDesc@@UEAA_JH_K00@Z 000000018000b8a0 f i BerconDistortion.obj
 0001:0000a8a0       ?RenderEnd@Animatable@@UEAAHH@Z 000000018000b8a0 f i BerconDistortion.obj
 0001:0000a8a0       ?GetCache@ShadeContext@@UEAAHPEAVTexmap@@AEAVAColor@@@Z 000000018000b8a0 f i BerconDistortion.obj
 0001:0000a8a0       ?CreateManipulator@ClassDesc@@UEAAPEAVManipulator@@PEAVReferenceTarget@@PEAVINode@@@Z 000000018000b8a0 f i BerconDistortion.obj
 0001:0000a8a0       ?NumActionTables@ClassDesc@@UEAAHXZ 000000018000b8a0 f i BerconDistortion.obj
 0001:0000a8a0       ?HandleOwnViewPerturb@Texmap@@UEAAHXZ 000000018000b8a0 f i BerconDistortion.obj
 0001:0000a8a0       ?CreateQtWidget@ClassDesc2@@UEAAPEAVQMaxParamBlockWidget@MaxSDK@@AEAVReferenceMaker@@AEAVIParamBlock2@@FAEAVWStr@@AEAH3@Z 000000018000b8a0 f i BerconDistortion.obj
 0001:0000a8a0       ?CanPasteSubTrack@Animatable@@UEAAHHPEAVTrackClipObject@@VInterval@@K@Z 000000018000b8a0 f i BerconDistortion.obj
 0001:0000a8a0       ?GetAAFilterKernel@RenderGlobalContext@@UEAAPEAVFilterKernel@@XZ 000000018000b8a0 f i BerconDistortion.obj
 0001:0000a8a0       ?SelectSubAnim@Animatable@@UEAAHH@Z 000000018000b8a0 f i BerconDistortion.obj
 0001:0000a8a0       ?Execute@IGradient@@UEAA_JH_K00@Z 000000018000b8a0 f i BerconGradient.obj
 0001:0000a8a0       ?PaintFCurves@Animatable@@UEAAHPEAVParamDimensionBase@@PEAUHDC__@@AEAVBox2@@2MHMHK@Z 000000018000b8a0 f i BerconDistortion.obj
 0001:0000a8a0       __scrt_stub_for_is_c_termination_complete 000000018000b8a0 f i MSVCRT:ucrt_stubs.obj
 0001:0000a8a0       ?Execute@RenderGlobalContext@@UEAA_JH_K00@Z 000000018000b8a0 f i BerconDistortion.obj
 0001:0000a8a0       ?SupportsMultiMapsInViewport@MtlBase@@UEAAHXZ 000000018000b8a0 f i BerconDistortion.obj
 0001:0000a8a0       ?GetCache@ShadeContext@@UEAAHPEAVTexmap@@AEAVPoint3@@@Z 000000018000b8a0 f i BerconDistortion.obj
 0001:0000a8a0       ?IsCurveSelected@Animatable@@UEAAHXZ 000000018000b8a0 f i BerconDistortion.obj
 0001:0000a8a0       ?BypassTreeView@Animatable@@UEAAHXZ 000000018000b8a0 f i BerconDistortion.obj
 0001:0000a8a0       ?GetToolTip@ResourceMakerCallback@@UEAAHHAEAVWStr@@PEAVICurveCtl@@@Z 000000018000b8a0 f i BerconGradient.obj
 0001:0000a8a0       ?GetKeySelState@Animatable@@UEAAHAEAVBitArray@@VInterval@@K@Z 000000018000b8a0 f i BerconDistortion.obj
 0001:0000a8a0       ?IntersectWorld@RenderGlobalContext@@UEAAHAEAVRay@@HAEAUISect@@AEAVISectList@@H@Z 000000018000b8a0 f i BerconDistortion.obj
 0001:0000a8a0       ?GetNextKeyTime@Animatable@@UEAAHHKAEAH@Z 000000018000b8a0 f i BerconDistortion.obj
 0001:0000a8a0       ?Antialias@ShadeContext@@UEAAHXZ 000000018000b8a0 f i BerconDistortion.obj
 0001:0000a8a0       ?SupportTimeOperations@Animatable@@UEAAHXZ 000000018000b8a0 f i BerconDistortion.obj
 0001:0000a8a0       ?CanCopyTrack@Animatable@@UEAAHVInterval@@K@Z 000000018000b8a0 f i BerconDistortion.obj
 0001:0000a8a0       ?GetTheUVGen@Texmap@@UEAAPEAVUVGen@@XZ 000000018000b8a0 f i BerconDistortion.obj
 0001:0000a8a0       ?BumpBasisVectors@ShadeContext@@UEAAHQEAVPoint3@@HH@Z 000000018000b8a0 f i BerconDistortion.obj
 0001:0000a8a0       ?SetKeyBufferPresent@Animatable@@UEAAHXZ 000000018000b8a0 f i BerconDistortion.obj
 0001:0000a8a0       ?AssignController@Animatable@@UEAAHPEAV1@H@Z 000000018000b8a0 f i BerconDistortion.obj
 0001:0000a8a0       ?Execute@ICustomControl@@UEAA_JH_K00@Z 000000018000b8a0 f i BerconGradient.obj
 0001:0000a8a0       ?IsSubCurveSelected@Animatable@@UEAAHH@Z 000000018000b8a0 f i BerconDistortion.obj
 0001:0000a8a0       ?CanManipulate@ClassDesc@@UEAAHPEAVReferenceTarget@@@Z 000000018000b8a0 f i BerconDistortion.obj
 0001:0000a8a0       ?ProjType@ShadeContext@@UEAAHXZ 000000018000b8a0 f i BerconDistortion.obj
 0001:0000a8a0       ?GetTheXYZGen@Texmap@@UEAAPEAVXYZGen@@XZ 000000018000b8a0 f i BerconDistortion.obj
 0001:0000a8a0       ?IsSuperSampleOn@ShadeContext@@UEAAHXZ 000000018000b8a0 f i BerconDistortion.obj
 0001:0000a8a0       ?IsMultiMtl@MtlBase@@UEAAHXZ 000000018000b8a0 f i BerconDistortion.obj
 0001:0000a8a0       ?CanManipulateNode@ClassDesc@@UEAAHPEAVINode@@@Z 000000018000b8a0 f i BerconDistortion.obj
 0001:0000a8a0       ?Execute@ShadeContext@@UEAA_JH_K00@Z 000000018000b8a0 f i BerconDistortion.obj
 0001:0000a8a0       ?IsKeyAtTime@Animatable@@UEAAHHK@Z 000000018000b8a0 f i BerconDistortion.obj
 0001:0000a8a0       ?NumChildren@Animatable@@UEAAHXZ 000000018000b8a0 f i BerconDistortion.obj
 0001:0000a8a0       ?ChildAnim@Animatable@@UEAAPEAV1@H@Z 000000018000b8a0 f i BerconDistortion.obj
 0001:0000a8a0       ?GetActionTable@ClassDesc@@UEAAPEAVActionTable@@H@Z 000000018000b8a0 f i BerconDistortion.obj
 0001:0000a8a0       ?CanDeleteSubAnim@Animatable@@UEAAHH@Z 000000018000b8a0 f i BerconDistortion.obj
 0001:0000a8a0       ?CopyTrack@Animatable@@UEAAPEAVTrackClipObject@@VInterval@@K@Z 000000018000b8a0 f i BerconDistortion.obj
 0001:0000a8a0       ?GetEvalObject@ShadeContext@@UEAAPEAVObject@@XZ 000000018000b8a0 f i BerconDistortion.obj
 0001:0000a8a0       ?EndCreate@ClassDesc@@UEAAHPEAVInterface@@@Z 000000018000b8a0 f i BerconDistortion.obj
 0001:0000a8a0       ?CreateManipulator@ClassDesc@@UEAAPEAVManipulator@@PEAVINode@@@Z 000000018000b8a0 f i BerconDistortion.obj
 0001:0000a8a0       ?GetTheXYZGen@BerconNoise@@UEAAPEAVXYZGen@@XZ 000000018000b8a0 f i BerconNoise.obj
 0001:0000a8a0       ?DebugFile@BerconSC@@UEAAPEAU_iobuf@@XZ 000000018000b8a0 f i BerconDistortion.obj
 0001:0000a8a0       ?ShouldPersistWeakRef@ReferenceMaker@@UEAAHPEAVReferenceTarget@@@Z 000000018000b8a0 f i BerconDistortion.obj
 0001:0000a8a0       ?PaintSubFCurves@Animatable@@UEAAHHPEAVParamDimensionBase@@PEAUHDC__@@AEAVBox2@@2MHMHK@Z 000000018000b8a0 f i BerconDistortion.obj
 0001:0000a8a0       ?GetViewParams@RenderGlobalContext@@UEAAPEAVViewParams@@XZ 000000018000b8a0 f i BerconDistortion.obj
 0001:0000a8a0       ?Save@ClassDesc@@UEAA?AW4IOResult@@PEAVISave@@@Z 000000018000b8a0 f i BerconDistortion.obj
 0001:0000a8a0       ?Node@ShadeContext@@UEAAPEAVINode@@XZ 000000018000b8a0 f i BerconDistortion.obj
 0001:0000a8a0       ?RenderBegin@Animatable@@UEAAHHK@Z 000000018000b8a0 f i BerconDistortion.obj
 0001:0000a8a0       ?NumSelKeys@Animatable@@UEAAHXZ 000000018000b8a0 f i BerconDistortion.obj
 0001:0000a8a0       ?GetCache@ShadeContext@@UEAAHPEAVTexmap@@AEAM@Z 000000018000b8a0 f i BerconDistortion.obj
 0001:0000a8a0       ?InvisibleProperty@Animatable@@UEAAHXZ 000000018000b8a0 f i BerconDistortion.obj
 0001:0000a8a0       ?NeedsToSave@ClassDesc@@UEAAHXZ 000000018000b8a0 f i BerconDistortion.obj
 0001:0000a8a0       ?CanPasteTrack@Animatable@@UEAAHPEAVTrackClipObject@@VInterval@@K@Z 000000018000b8a0 f i BerconDistortion.obj
 0001:0000a8a0       ?GetKeyTime@Animatable@@UEAAHH@Z 000000018000b8a0 f i BerconDistortion.obj
 0001:0000a8a0       ?GetRenderInstance@RenderGlobalContext@@UEAAPEAVRenderInstance@@H@Z 000000018000b8a0 f i BerconDistortion.obj
 0001:0000a8a0       ?GetUVWSource@Texmap@@UEAAHXZ 000000018000b8a0 f i BerconDistortion.obj
 0001:0000a8a0       ?GetFCurveExtents@Animatable@@UEAAHPEAVParamDimensionBase@@AEAM1K@Z 000000018000b8a0 f i BerconDistortion.obj
 0001:0000a8a0       ?GetSubFCurveExtents@Animatable@@UEAAHHPEAVParamDimensionBase@@AEAM1K@Z 000000018000b8a0 f i BerconDistortion.obj
 0001:0000a8a0       ?HasClassParams@ClassDesc@@UEAAHXZ 000000018000b8a0 f i BerconDistortion.obj
 0001:0000a8a0       ?IsTextureSuperSampleOn@ShadeContext@@UEAAHXZ 000000018000b8a0 f i BerconDistortion.obj
 0001:0000a8a0       ?DebugFile@ShadeContext@@UEAAPEAU_iobuf@@XZ 000000018000b8a0 f i BerconDistortion.obj
 0001:0000a8a0       ?GetParamMap@ClassDesc@@UEAAPEAVIParamMap2@@PEAVParamBlockDesc2@@@Z 000000018000b8a0 f i BerconDistortion.obj
 0001:0000a8a0       _is_c_termination_complete 000000018000b8a0 f i MSVCRT:ucrt_stubs.obj
 0001:0000a8a0       ?IsHighDynamicRange@Texmap@@UEBAHXZ 000000018000b8a0 f i BerconDistortion.obj
 0001:0000a8a0       ?IsManipulator@ClassDesc@@UEAAHXZ 000000018000b8a0 f i BerconDistortion.obj
 0001:0000a8a0       ?GetUserDlgProc@ClassDesc@@UEAAPEAVParamMap2UserDlgProc@@PEAVParamBlockDesc2@@@Z 000000018000b8a0 f i BerconDistortion.obj
 0001:0000a8a0       ?CanCopySubTrack@Animatable@@UEAAHHVInterval@@K@Z 000000018000b8a0 f i BerconDistortion.obj
 0001:0000a8a0       ?BypassPropertyLevel@Animatable@@UEAAHXZ 000000018000b8a0 f i BerconDistortion.obj
 0001:0000a8a0       ?DebugFile@RenderGlobalContext@@UEAAPEAU_iobuf@@XZ 000000018000b8a0 f i BerconDistortion.obj
 0001:0000a8a0       ?SetCustomImageList@ResourceMakerCallback@@UEAAHAEAPEAU_IMAGELIST@@PEAVICurveCtl@@@Z 000000018000b8a0 f i BerconGradient.obj
 0001:0000a8a0       ?SetDlgThing@BerconDistortion@@UEAAHPEAVParamDlg@@@Z 000000018000b8a0 f i BerconDistortion.obj
 0001:0000a8a0       ?GetNSuperSample@ShadeContext@@UEAAHXZ 000000018000b8a0 f i BerconDistortion.obj
 0001:0000a8a0       ?CopySubTrack@Animatable@@UEAAPEAVTrackClipObject@@HVInterval@@K@Z 000000018000b8a0 f i BerconDistortion.obj
 0001:0000a8a0       ?GetKeyTimes@Animatable@@UEAAHAEAV?$Tab@H@@VInterval@@K@Z 000000018000b8a0 f i BerconDistortion.obj
 0001:0000a8a0       ?TrackViewWinProc@Animatable@@UEAA_JPEAUHWND__@@I_K_J@Z 000000018000b8a0 f i BerconDistortion.obj
 0001:0000a8a0       ?BeginCreate@ClassDesc@@UEAAHPEAVInterface@@@Z 000000018000b8a0 f i BerconDistortion.obj
 0001:0000a8b0       ?GetActiveTexHandle@BerconDistortion@@UEAA_KHAEAVTexHandleMaker@@@Z 000000018000b8b0 f   BerconDistortion.obj
 0001:0000a970       ?GetBGColor@BerconSC@@UEAAXAEAVColor@@0H@Z 000000018000b970 f i BerconDistortion.obj
 0001:0000a990       ?GetBerconDistortionDesc@@YAPEAVClassDesc2@@XZ 000000018000b990 f   BerconDistortion.obj
 0001:0000a9a0       ?GetCache@BerconSC@@UEAAHPEAVTexmap@@AEAM@Z 000000018000b9a0 f i BerconDistortion.obj
 0001:0000a9c0       ?GetCache@BerconSC@@UEAAHPEAVTexmap@@AEAVAColor@@@Z 000000018000b9c0 f i BerconDistortion.obj
 0001:0000a9e0       ?GetCache@BerconSC@@UEAAHPEAVTexmap@@AEAVPoint3@@@Z 000000018000b9e0 f i BerconDistortion.obj
 0001:0000aa00       ?GetClassName@BerconDistortion@@UEAAXAEAVWStr@@@Z 000000018000ba00 f i BerconDistortion.obj
 0001:0000aa30       ?GetEvalObject@BerconSC@@UEAAPEAVObject@@XZ 000000018000ba30 f i BerconDistortion.obj
 0001:0000aa40       ?GetIOR@BerconSC@@UEAAMXZ  000000018000ba40 f i BerconDistortion.obj
 0001:0000aa60       ?GetInterface@MtlBase@@UEAAPEAVBaseInterface@@VInterface_ID@@@Z 000000018000ba60 f i BerconDistortion.obj
 0001:0000aa90       ?GetNSuperSample@BerconSC@@UEAAHXZ 000000018000ba90 f i BerconDistortion.obj
 0001:0000aab0       ?GetParamBlock@BerconDistortion@@UEAAPEAVIParamBlock2@@H@Z 000000018000bab0 f i BerconDistortion.obj
 0001:0000aad0       ?GetParamBlockByID@BerconDistortion@@UEAAPEAVIParamBlock2@@F@Z 000000018000bad0 f i BerconDistortion.obj
 0001:0000ab20       ?GetParamDimension@Animatable@@UEAAPEAVParamDimension@@H@Z 000000018000bb20 f i BerconDistortion.obj
 0001:0000ab30       ?GetRefTarget@MtlBase@@UEAAPEAVReferenceTarget@@XZ 000000018000bb30 f i BerconDistortion.obj
 0001:0000ab40       ?GetRenderElement@BerconSC@@UEAAPEAVIRenderElement@@H@Z 000000018000bb40 f i BerconDistortion.obj
 0001:0000ab60       ?GetRenderElement@ShadeContext@@UEAAPEAVIRenderElement@@H@Z 000000018000bb60 f i BerconDistortion.obj
 0001:0000ab80       ?GetSampleSizeScale@BerconSC@@UEAAMXZ 000000018000bb80 f i BerconDistortion.obj
 0001:0000aba0       ?GetSampleSizeScale@ShadeContext@@UEAAMXZ 000000018000bba0 f i BerconDistortion.obj
 0001:0000aba0       ?GetIOR@ShadeContext@@UEAAMXZ 000000018000bba0 f i BerconDistortion.obj
 0001:0000abb0       ?GetSubAnimCurveColor@Animatable@@UEAAKH@Z 000000018000bbb0 f i BerconDistortion.obj
 0001:0000abc0       ?GetSubTexmap@BerconDistortion@@UEAAPEAVTexmap@@H@Z 000000018000bbc0 f i BerconDistortion.obj
 0001:0000abd0       ?GetSubTexmapSlotName@BerconDistortion@@UEAA?AVWStr@@H@Z 000000018000bbd0 f   BerconDistortion.obj
 0001:0000ac60       ?NumParamBlocks@BerconTile@@UEAAHXZ 000000018000bc60 f i BerconTile.obj
 0001:0000ac60       ?GetTextureTiling@Texmap@@UEAAHXZ 000000018000bc60 f i BerconDistortion.obj
 0001:0000ac60       ?NumParamBlocks@BerconWood@@UEAAHXZ 000000018000bc60 f i BerconWood.obj
 0001:0000ac60       ?NumParamBlocks@BerconNoise@@UEAAHXZ 000000018000bc60 f i BerconNoise.obj
 0001:0000ac60       ?NumSubTexmaps@BerconDistortion@@UEAAHXZ 000000018000bc60 f i BerconDistortion.obj
 0001:0000ac70       ?GetUVTransform@Texmap@@UEAAXAEAVMatrix3@@@Z 000000018000bc70 f i BerconDistortion.obj
 0001:0000ac80       ?HitTestFCurves@Animatable@@UEAAHPEAVParamDimensionBase@@AEAV?$Tab@VTrackHitRecord@@@@AEAVBox2@@2MHMHK@Z 000000018000bc80 f i BerconDistortion.obj
 0001:0000ac80       ?HitTestSubFCurves@Animatable@@UEAAHHPEAVParamDimensionBase@@AEAV?$Tab@VTrackHitRecord@@@@AEAVBox2@@2MHMHK@Z 000000018000bc80 f i BerconDistortion.obj
 0001:0000ac90       ?InMtlEditor@BerconSC@@UEAAHXZ 000000018000bc90 f i BerconDistortion.obj
 0001:0000aca0       ?InitSlotType@Texmap@@UEAAXH@Z 000000018000bca0 f i BerconDistortion.obj
 0001:0000acb0       ?IsSubClassOf@Animatable@@UEAAHVClass_ID@@@Z 000000018000bcb0 f i BerconDistortion.obj
 0001:0000acf0       ?IsSuperSampleOn@BerconSC@@UEAAHXZ 000000018000bcf0 f i BerconDistortion.obj
 0001:0000ad10       ?IsTextureSuperSampleOn@BerconSC@@UEAAHXZ 000000018000bd10 f i BerconDistortion.obj
 0001:0000ad30       ?Light@BerconSC@@UEAAPEAVLightDesc@@H@Z 000000018000bd30 f i BerconDistortion.obj
 0001:0000ad40       ?LocalRequirements@BerconDistortion@@UEAAKH@Z 000000018000bd40 f i BerconDistortion.obj
 0001:0000ad60       ?MapSlotType@Texmap@@UEAAHH@Z 000000018000bd60 f i BerconDistortion.obj
 0001:0000ad70       ?MappingsRequired@BerconDistortion@@UEAAXHAEAVBitArray@@0@Z 000000018000bd70 f i BerconDistortion.obj
 0001:0000ad90       ?NRenderElements@BerconSC@@UEAAHXZ 000000018000bd90 f i BerconDistortion.obj
 0001:0000adb0       ?NRenderElements@ShadeContext@@UEAAHXZ 000000018000bdb0 f i BerconDistortion.obj
 0001:0000add0       ?Node@BerconSC@@UEAAPEAVINode@@XZ 000000018000bdd0 f i BerconDistortion.obj
 0001:0000ade0       ?NodeID@BerconSC@@UEAAHXZ  000000018000bde0 f i BerconDistortion.obj
 0001:0000adf0       ?GetFlagKeyIndex@Animatable@@UEAAHXZ 000000018000bdf0 f i BerconDistortion.obj
 0001:0000adf0       ?NumKeys@Animatable@@UEAAHXZ 000000018000bdf0 f i BerconDistortion.obj
 0001:0000adf0       ?GetKeyIndex@Animatable@@UEAAHH@Z 000000018000bdf0 f i BerconDistortion.obj
 0001:0000adf0       ?NodeID@ShadeContext@@UEAAHXZ 000000018000bdf0 f i BerconDistortion.obj
 0001:0000ae00       ?Normal@BerconSC@@UEAA?AVPoint3@@XZ 000000018000be00 f i BerconDistortion.obj
 0001:0000ae20       ?NotifyDependents@ReferenceMaker@@EEAA?AW4RefResult@@AEBVInterval@@_KIKHPEAVReferenceTarget@@@Z 000000018000be20 f i BerconDistortion.obj
 0001:0000ae50       ?NotifyForeground@ReferenceTarget@@UEAAXH@Z 000000018000be50 f i BerconDistortion.obj
 0001:0000aeb0       ?NotifyRefChanged@BerconDistortion@@UEAA?AW4RefResult@@AEBVInterval@@PEAVReferenceTarget@@AEA_KIH@Z 000000018000beb0 f   BerconDistortion.obj
 0001:0000af40       ?LibNumberClasses@@YAHXZ   000000018000bf40 f i DllEntry.obj
 0001:0000af40       ?NumSubs@BerconDistortion@@UEAAHXZ 000000018000bf40 f i BerconDistortion.obj
 0001:0000af40       ?NumRefs@BerconDistortion@@UEAAHXZ 000000018000bf40 f i BerconDistortion.obj
 0001:0000af50       ?ObjectBox@BerconSC@@UEAA?AVBox3@@XZ 000000018000bf50 f i BerconDistortion.obj
 0001:0000af80       ?OrigNormal@BerconSC@@UEAA?AVPoint3@@XZ 000000018000bf80 f i BerconDistortion.obj
 0001:0000afa0       ?OrigNormal@ShadeContext@@UEAA?AVPoint3@@XZ 000000018000bfa0 f i BerconDistortion.obj
 0001:0000afc0       ?OrigView@BerconSC@@UEAA?AVPoint3@@XZ 000000018000bfc0 f i BerconDistortion.obj
 0001:0000aff0       ?OrigView@ShadeContext@@UEAA?AVPoint3@@XZ 000000018000bff0 f i BerconDistortion.obj
 0001:0000b010       ?P@BerconSC@@UEAA?AVPoint3@@XZ 000000018000c010 f i BerconDistortion.obj
 0001:0000b090       ?PObj@BerconSC@@UEAA?AVPoint3@@XZ 000000018000c090 f i BerconDistortion.obj
 0001:0000b110       ?PObjRelBox@BerconSC@@UEAA?AVPoint3@@XZ 000000018000c110 f i BerconDistortion.obj
 0001:0000b140       ?PointFrom@BerconSC@@UEAA?AVPoint3@@AEBV2@W4RefFrame@@@Z 000000018000c140 f i BerconDistortion.obj
 0001:0000b170       ?PointTo@BerconSC@@UEAA?AVPoint3@@AEBV2@W4RefFrame@@@Z 000000018000c170 f i BerconDistortion.obj
 0001:0000b1a0       ?ProjType@BerconSC@@UEAAHXZ 000000018000c1a0 f i BerconDistortion.obj
 0001:0000b1b0       ?PutCache@BerconSC@@UEAAXPEAVTexmap@@AEBVAColor@@@Z 000000018000c1b0 f i BerconDistortion.obj
 0001:0000b1d0       ?PutCache@BerconSC@@UEAAXPEAVTexmap@@AEBVPoint3@@@Z 000000018000c1d0 f i BerconDistortion.obj
 0001:0000b1f0       ?PutCache@BerconSC@@UEAAXPEAVTexmap@@M@Z 000000018000c1f0 f i BerconDistortion.obj
 0001:0000b210       ?RayConeAngle@BerconSC@@UEAAMXZ 000000018000c210 f i BerconDistortion.obj
 0001:0000b230       ?RayDiam@BerconSC@@UEAAMXZ 000000018000c230 f i BerconDistortion.obj
 0001:0000b250       ?RayDiam@ShadeContext@@UEAAMXZ 000000018000c250 f i BerconDistortion.obj
 0001:0000b270       ?ReflectVector@BerconSC@@UEAA?AVPoint3@@XZ 000000018000c270 f i BerconDistortion.obj
 0001:0000b2a0       ?RefractVector@BerconSC@@UEAA?AVPoint3@@M@Z 000000018000c2a0 f i BerconDistortion.obj
 0001:0000b2d0       ?Reset@BerconDistortion@@UEAAXXZ 000000018000c2d0 f   BerconDistortion.obj
 0001:0000b350       ?ScreenCoord@BerconSC@@UEAA?AVIPoint2@@XZ 000000018000c350 f i BerconDistortion.obj
 0001:0000b380       ?ScreenUV@BerconSC@@UEAAXAEAVPoint2@@0@Z 000000018000c380 f i BerconDistortion.obj
 0001:0000b3d0       ?Set@BitArray@@QEAAXH@Z    000000018000c3d0 f i BerconDistortion.obj
 0001:0000b470       ?SetGBufferID@BerconSC@@UEAAXH@Z 000000018000c470 f i BerconDistortion.obj
 0001:0000b490       ?SetGBufferID@ShadeContext@@UEAAXH@Z 000000018000c490 f i BerconDistortion.obj
 0001:0000b4a0       ?SetIOR@BerconSC@@UEAAXM@Z 000000018000c4a0 f i BerconDistortion.obj
 0001:0000b4c0       ?SetNormal@BerconSC@@UEAAXVPoint3@@@Z 000000018000c4c0 f i BerconDistortion.obj
 0001:0000b500       ?SetReference@BerconDistortion@@EEAAXHPEAVReferenceTarget@@@Z 000000018000c500 f   BerconDistortion.obj
 0001:0000b530       ?SetSubTexmap@BerconDistortion@@UEAAXHPEAVTexmap@@@Z 000000018000c530 f   BerconDistortion.obj
 0001:0000b5a0       ?SetThing@BerconXYZDlgProc@@UEAAXPEAVReferenceTarget@@@Z 000000018000c5a0 f i BerconDistortion.obj
 0001:0000b5b0       ?SetView@BerconSC@@UEAAXVPoint3@@@Z 000000018000c5b0 f i BerconDistortion.obj
 0001:0000b5f0       ?SubAnim@BerconDistortion@@UEAAPEAVAnimatable@@H@Z 000000018000c5f0 f   BerconDistortion.obj
 0001:0000b5f0       ?GetReference@BerconDistortion@@UEAAPEAVReferenceTarget@@H@Z 000000018000c5f0 f   BerconDistortion.obj
 0001:0000b620       ?SubAnimName@BerconDistortion@@UEAA?AVWStr@@H@Z 000000018000c620 f   BerconDistortion.obj
 0001:0000b6a0       ?SubNumToRefNum@BerconDistortion@@UEAAHH@Z 000000018000c6a0 f i BerconDistortion.obj
 0001:0000b6a0       ?SubNumToRefNum@BerconGradient@@UEAAHH@Z 000000018000c6a0 f i BerconGradient.obj
 0001:0000b6a0       ?SubNumToRefNum@BerconTile@@UEAAHH@Z 000000018000c6a0 f i BerconTile.obj
 0001:0000b6a0       ?RemapRefOnLoad@ReferenceMaker@@UEAAHH@Z 000000018000c6a0 f i BerconDistortion.obj
 0001:0000b6a0       ?SubNumToRefNum@BerconNoise@@UEAAHH@Z 000000018000c6a0 f i BerconNoise.obj
 0001:0000b6a0       ?SubNumToRefNum@BerconWood@@UEAAHH@Z 000000018000c6a0 f i BerconWood.obj
 0001:0000b6b0       ?SurfacePtScreen@BerconSC@@UEAA?AVPoint2@@XZ 000000018000c6b0 f i BerconDistortion.obj
 0001:0000b6e0       ?ClassID@ShadeContext@@UEAA?AVClass_ID@@XZ 000000018000c6e0 f i BerconDistortion.obj
 0001:0000b6e0       ?SurfacePtScreen@ShadeContext@@UEAA?AVPoint2@@XZ 000000018000c6e0 f i BerconDistortion.obj
 0001:0000b6f0       ?TossCache@BerconSC@@UEAAXPEAVTexmap@@@Z 000000018000c6f0 f i BerconDistortion.obj
 0001:0000b710       ?UVW@BerconSC@@UEAA?AVPoint3@@H@Z 000000018000c710 f i BerconDistortion.obj
 0001:0000b7e0       ?UVWNormal@BerconSC@@UEAA?AVPoint3@@H@Z 000000018000c7e0 f i BerconDistortion.obj
 0001:0000b810       ?UVWNormal@ShadeContext@@UEAA?AVPoint3@@H@Z 000000018000c810 f i BerconDistortion.obj
 0001:0000b820       ?Update@BerconDistortion@@UEAAXHAEAVInterval@@@Z 000000018000c820 f   BerconDistortion.obj
 0001:0000b940       ?Update@ParamMap2UserDlgProc@@UEAAXHAEAVInterval@@PEAVIParamMap2@@@Z 000000018000c940 f i BerconDistortion.obj
 0001:0000b950       ?V@BerconSC@@UEAA?AVPoint3@@XZ 000000018000c950 f i BerconDistortion.obj
 0001:0000b980       ?Validity@BerconDistortion@@UEAA?AVInterval@@H@Z 000000018000c980 f   BerconDistortion.obj
 0001:0000b9d0       ?VectorFrom@BerconSC@@UEAA?AVPoint3@@AEBV2@W4RefFrame@@@Z 000000018000c9d0 f i BerconDistortion.obj
 0001:0000ba00       ?VectorFromNoScale@BerconSC@@UEAA?AVPoint3@@AEBV2@W4RefFrame@@@Z 000000018000ca00 f i BerconDistortion.obj
 0001:0000ba30       ?VectorTo@BerconSC@@UEAA?AVPoint3@@AEBV2@W4RefFrame@@@Z 000000018000ca30 f i BerconDistortion.obj
 0001:0000ba60       ?VectorToNoScale@BerconSC@@UEAA?AVPoint3@@AEBV2@W4RefFrame@@@Z 000000018000ca60 f i BerconDistortion.obj
 0001:0000ba90       ?getDistVector@BerconDistortion@@QEAA?AVPoint3@@AEAVShadeContext@@@Z 000000018000ca90 f   BerconDistortion.obj
 0001:0000bb90       ?Create@BerconGradientClassDesc@@UEAAPEAXH@Z 000000018000cb90 f i BerconGradient.obj
 0001:0000bbd0       ?ClassName@BerconGradientClassDesc@@UEAAPEB_WXZ 000000018000cbd0 f i BerconGradient.obj
 0001:0000bbe0       ?SuperClassID@BerconNoise@@UEAAKXZ 000000018000cbe0 f i BerconNoise.obj
 0001:0000bbe0       ?SuperClassID@BerconWoodClassDesc@@UEAAKXZ 000000018000cbe0 f i BerconWood.obj
 0001:0000bbe0       ?SuperClassID@BerconTile@@UEAAKXZ 000000018000cbe0 f i BerconTile.obj
 0001:0000bbe0       ?SuperClassID@BerconWood@@UEAAKXZ 000000018000cbe0 f i BerconWood.obj
 0001:0000bbe0       ?SuperClassID@BerconGradientClassDesc@@UEAAKXZ 000000018000cbe0 f i BerconGradient.obj
 0001:0000bbe0       ?SuperClassID@BerconDistortionClassDesc@@UEAAKXZ 000000018000cbe0 f i BerconDistortion.obj
 0001:0000bbe0       ?SuperClassID@BerconNoiseClassDesc@@UEAAKXZ 000000018000cbe0 f i BerconNoise.obj
 0001:0000bbe0       ?SuperClassID@BerconDistortion@@UEAAKXZ 000000018000cbe0 f i BerconDistortion.obj
 0001:0000bbe0       ?SuperClassID@BerconGradient@@UEAAKXZ 000000018000cbe0 f i BerconGradient.obj
 0001:0000bbe0       ?SuperClassID@BerconTileClassDesc@@UEAAKXZ 000000018000cbe0 f i BerconTile.obj
 0001:0000bbf0       ?InternalName@BerconGradientClassDesc@@UEAAPEB_WXZ 000000018000cbf0 f i BerconGradient.obj
 0001:0000bc00       ??_GBerconGradientClassDesc@@UEAAPEAXI@Z 000000018000cc00 f i BerconGradient.obj
 0001:0000bc00       ??_EBerconGradientClassDesc@@UEAAPEAXI@Z 000000018000cc00 f i BerconGradient.obj
 0001:0000bc60       ??0BerconGradient@@QEAA@XZ 000000018000cc60 f   BerconGradient.obj
 0001:0000bdc0       ??0IGradient@@QEAA@PEAUHWND__@@PEAVGradientRamp@@@Z 000000018000cdc0 f i BerconGradient.obj
 0001:0000be20       ??1BerconGradient@@UEAA@XZ 000000018000ce20 f   BerconGradient.obj
 0001:0000bef0       ??1ICustomControl@@UEAA@XZ 000000018000cef0 f i BerconGradient.obj
 0001:0000bf10       ??_EBerconGradient@@WEA@EAAPEAXI@Z 000000018000cf10 f i BerconGradient.obj
 0001:0000bf20       ??_GBerconGradient@@UEAAPEAXI@Z 000000018000cf20 f i BerconGradient.obj
 0001:0000bf20       ??_EBerconGradient@@UEAAPEAXI@Z 000000018000cf20 f i BerconGradient.obj
 0001:0000bf70       ??_EBerconGradientDlgProc@@UEAAPEAXI@Z 000000018000cf70 f i BerconGradient.obj
 0001:0000bf70       ??_GBerconGradientDlgProc@@UEAAPEAXI@Z 000000018000cf70 f i BerconGradient.obj
 0001:0000bfc0       ??_EICustomControl@@UEAAPEAXI@Z 000000018000cfc0 f i BerconGradient.obj
 0001:0000bfc0       ??_GICustomControl@@UEAAPEAXI@Z 000000018000cfc0 f i BerconGradient.obj
 0001:0000c020       ??_EIGradient@@UEAAPEAXI@Z 000000018000d020 f i BerconGradient.obj
 0001:0000c020       ??_GIGradient@@UEAAPEAXI@Z 000000018000d020 f i BerconGradient.obj
 0001:0000c0b0       ?ActivateTexDisplay@BerconGradient@@UEAAXH@Z 000000018000d0b0 f i BerconGradient.obj
 0001:0000c0e0       ?ClassID@BerconGradientClassDesc@@UEAA?AVClass_ID@@XZ 000000018000d0e0 f i BerconGradient.obj
 0001:0000c0e0       ?ClassID@BerconGradient@@UEAA?AVClass_ID@@XZ 000000018000d0e0 f i BerconGradient.obj
 0001:0000c100       ?Clone@BerconGradient@@UEAAPEAVReferenceTarget@@AEAVRemapDir@@@Z 000000018000d100 f   BerconGradient.obj
 0001:0000c2b0       ?CreateParamDlg@BerconGradient@@UEAAPEAVParamDlg@@PEAUHWND__@@PEAVIMtlParams@@@Z 000000018000d2b0 f   BerconGradient.obj
 0001:0000c3c0       ?DeleteThis@BerconGradient@@UEAAXXZ 000000018000d3c0 f i BerconGradient.obj
 0001:0000c3f0       ?DiscardTexHandle@BerconGradient@@QEAAXXZ 000000018000d3f0 f i BerconGradient.obj
 0001:0000c420       ?DlgProc@BerconGradientDlgProc@@UEAA_JHPEAVIParamMap2@@PEAUHWND__@@I_K_J@Z 000000018000d420 f   BerconGradient.obj
 0001:0000d0b0       ?EnableStuff@BerconGradient@@QEAAXXZ 000000018000e0b0 f   BerconGradient.obj
 0001:0000d410       ?EvalColor@BerconGradient@@UEAA?AVAColor@@AEAVShadeContext@@@Z 000000018000e410 f   BerconGradient.obj
 0001:0000d5d0       ?EvalMono@BerconGradient@@UEAAMAEAVShadeContext@@@Z 000000018000e5d0 f   BerconGradient.obj
 0001:0000d600       ?EvalNormalPerturb@BerconGradient@@UEAA?AVPoint3@@AEAVShadeContext@@@Z 000000018000e600 f   BerconGradient.obj
 0001:0000db50       ?GetActiveTexHandle@BerconGradient@@UEAA_KHAEAVTexHandleMaker@@@Z 000000018000eb50 f   BerconGradient.obj
 0001:0000dc10       ?GetBerconGradientDesc@@YAPEAVClassDesc2@@XZ 000000018000ec10 f   BerconGradient.obj
 0001:0000dc20       ?GetClassName@BerconGradient@@UEAAXAEAVWStr@@@Z 000000018000ec20 f i BerconGradient.obj
 0001:0000dc50       ?GetHwnd@IGradient@@UEAAPEAUHWND__@@XZ 000000018000ec50 f i BerconGradient.obj
 0001:0000dc60       ?GetParamBlock@BerconGradient@@UEAAPEAVIParamBlock2@@H@Z 000000018000ec60 f i BerconGradient.obj
 0001:0000dc80       ?GetParamBlockByID@BerconGradient@@UEAAPEAVIParamBlock2@@F@Z 000000018000ec80 f i BerconGradient.obj
 0001:0000dcf0       ?GetReference@BerconGradient@@UEAAPEAVReferenceTarget@@H@Z 000000018000ecf0 f   BerconGradient.obj
 0001:0000dd80       ?GetSubTexmap@BerconGradient@@UEAAPEAVTexmap@@H@Z 000000018000ed80 f   BerconGradient.obj
 0001:0000ddc0       ?GetSubTexmapSlotName@BerconGradient@@UEAA?AVWStr@@H@Z 000000018000edc0 f   BerconGradient.obj
 0001:0000de70       ?LocalRequirements@BerconGradient@@UEAAKH@Z 000000018000ee70 f i BerconGradient.obj
 0001:0000de90       ?MappingsRequired@BerconGradient@@UEAAXHAEAVBitArray@@0@Z 000000018000ee90 f i BerconGradient.obj
 0001:0000deb0       ?NotifyRefChanged@BerconGradient@@UEAA?AW4RefResult@@AEBVInterval@@PEAVReferenceTarget@@AEA_KIH@Z 000000018000eeb0 f   BerconGradient.obj
 0001:0000dfc0       ?HitTestTrack@Animatable@@UEAAHAEAV?$Tab@VTrackHitRecord@@@@AEAVBox2@@1MHK@Z 000000018000efc0 f i BerconDistortion.obj
 0001:0000dfc0       ?NumParamBlocks@BerconDistortion@@UEAAHXZ 000000018000efc0 f i BerconDistortion.obj
 0001:0000dfc0       ?PaintSubTrack@Animatable@@UEAAHHPEAVParamDimensionBase@@PEAUHDC__@@AEAVBox2@@2MHK@Z 000000018000efc0 f i BerconDistortion.obj
 0001:0000dfc0       ?NumParamBlocks@BerconGradient@@UEAAHXZ 000000018000efc0 f i BerconGradient.obj
 0001:0000dfc0       ?PaintTrack@Animatable@@UEAAHPEAVParamDimensionBase@@PEAUHDC__@@AEAVBox2@@2MHK@Z 000000018000efc0 f i BerconDistortion.obj
 0001:0000dfd0       ?NumSubs@BerconGradient@@UEAAHXZ 000000018000efd0 f   BerconGradient.obj
 0001:0000dfd0       ?NumRefs@BerconGradient@@UEAAHXZ 000000018000efd0 f   BerconGradient.obj
 0001:0000dfe0       ?NumSubTexmaps@BerconGradient@@UEAAHXZ 000000018000efe0 f i BerconGradient.obj
 0001:0000dff0       ?RenderBegin@BerconGradient@@UEAAHHK@Z 000000018000eff0 f i BerconGradient.obj
 0001:0000e010       ?RenderEnd@BerconGradient@@UEAAHH@Z 000000018000f010 f i BerconGradient.obj
 0001:0000e020       ?Reset@BerconGradient@@UEAAXXZ 000000018000f020 f   BerconGradient.obj
 0001:0000e310       ?SetDlgThing@BerconGradient@@UEAAHPEAVParamDlg@@@Z 000000018000f310 f   BerconGradient.obj
 0001:0000e350       ?SetReference@BerconGradient@@EEAAXHPEAVReferenceTarget@@@Z 000000018000f350 f   BerconGradient.obj
 0001:0000e460       ?SetSubTexmap@BerconGradient@@UEAAXHPEAVTexmap@@@Z 000000018000f460 f   BerconGradient.obj
 0001:0000e4f0       ?SetThing@BerconGradientDlgProc@@UEAAXPEAVReferenceTarget@@@Z 000000018000f4f0 f i BerconGradient.obj
 0001:0000e5a0       ?SubAnim@BerconGradient@@UEAAPEAVAnimatable@@H@Z 000000018000f5a0 f   BerconGradient.obj
 0001:0000e630       ?SubAnimName@BerconGradient@@UEAA?AVWStr@@H@Z 000000018000f630 f   BerconGradient.obj
 0001:0000e6c0       ?Update@BerconGradient@@UEAAXHAEAVInterval@@@Z 000000018000f6c0 f   BerconGradient.obj
 0001:0000edb0       ?Validity@BerconGradient@@UEAA?AVInterval@@H@Z 000000018000fdb0 f   BerconGradient.obj
 0001:0000ee00       ?countKeys@BerconGradient@@QEAAHXZ 000000018000fe00 f   BerconGradient.obj
 0001:0000eea0       ?getGradientValue@BerconGradient@@QEAAMAEAVShadeContext@@@Z 000000018000fea0 f   BerconGradient.obj
 0001:0000f200       ?getGradientValueDist@BerconGradient@@QEAAMAEAVShadeContext@@@Z 0000000180010200 f   BerconGradient.obj
 0001:0000f5b0       ?getGradientValueNormal@BerconGradient@@QEAAMAEAVShadeContext@@@Z 00000001800105b0 f   BerconGradient.obj
 0001:0000f960       ?getGradientValueUVW@BerconGradient@@QEAAMVPoint3@@@Z 0000000180010960 f   BerconGradient.obj
 0001:0000fcf0       ?gradAddKey@BerconGradient@@UEAAXM@Z 0000000180010cf0 f   BerconGradient.obj
 0001:0000fe00       ?gradDelKey@BerconGradient@@UEAAXH@Z 0000000180010e00 f   BerconGradient.obj
 0001:0000fee0       ?gradMoveKey@BerconGradient@@UEAAXHM@Z 0000000180010ee0 f   BerconGradient.obj
 0001:0000ffb0       ?gradReset@BerconGradient@@UEAAXXZ 0000000180010fb0 f i BerconGradient.obj
 0001:0000ffc0       ?gradSelKey@BerconGradient@@UEAAXXZ 0000000180010fc0 f   BerconGradient.obj
 0001:00010050       ?keyColorChanged@BerconGradient@@QEAAXVAColor@@@Z 0000000180011050 f   BerconGradient.obj
 0001:00010100       ?keyNumChanged@BerconGradient@@QEAAXH@Z 0000000180011100 f   BerconGradient.obj
 0001:00010190       ?keyPosChanged@BerconGradient@@QEAAXM@Z 0000000180011190 f   BerconGradient.obj
 0001:00010240       ?limitRange@BerconGradient@@QEAAHAEAM@Z 0000000180011240 f   BerconGradient.obj
 0001:00010310       ?resetKeys@BerconGradient@@QEAAXXZ 0000000180011310 f   BerconGradient.obj
 0001:00010400       ?seedRandomGen@BerconGradient@@QEAAXAEAVShadeContext@@@Z 0000000180011400 f   BerconGradient.obj
 0001:00010570       ?setKeyTex@BerconGradient@@QEAAXPEAVTexmap@@@Z 0000000180011570 f   BerconGradient.obj
 0001:00010600       ?Create@BerconTileClassDesc@@UEAAPEAXH@Z 0000000180011600 f i BerconTile.obj
 0001:00010640       ?ClassName@BerconTileClassDesc@@UEAAPEB_WXZ 0000000180011640 f i BerconTile.obj
 0001:00010650       ?InternalName@BerconTileClassDesc@@UEAAPEB_WXZ 0000000180011650 f i BerconTile.obj
 0001:00010660       ??_GBerconTileClassDesc@@UEAAPEAXI@Z 0000000180011660 f i BerconTile.obj
 0001:00010660       ??_EBerconTileClassDesc@@UEAAPEAXI@Z 0000000180011660 f i BerconTile.obj
 0001:000106c0       ??$_Destroy_range1@V?$allocator@VTileRow@@@std@@PEAVTileRow@@@std@@YAXPEAVTileRow@@0AEAU?$_Wrap_alloc@V?$allocator@VTileRow@@@std@@@0@U?$integral_constant@_N$0A@@0@@Z 00000001800116c0 f i BerconTile.obj
 0001:000107b0       ??0BerconTile@@QEAA@XZ     00000001800117b0 f   BerconTile.obj
 0001:000109c0       ??1?$basic_string@_WU?$char_traits@_W@std@@V?$allocator@_W@2@@std@@QEAA@XZ 00000001800119c0 f i BerconTile.obj
 0001:00010a10       ??1?$vector@MV?$allocator@M@std@@@std@@QEAA@XZ 0000000180011a10 f i BerconTile.obj
 0001:00010a50       ??1?$vector@VTileRow@@V?$allocator@VTileRow@@@std@@@std@@QEAA@XZ 0000000180011a50 f i BerconTile.obj
 0001:00010ab0       ??1BerconTile@@UEAA@XZ     0000000180011ab0 f   BerconTile.obj
 0001:00010b30       ??1TilePattern@@QEAA@XZ    0000000180011b30 f i BerconTile.obj
 0001:00010bd0       ??_EBerconTile@@WEA@EAAPEAXI@Z 0000000180011bd0 f i BerconTile.obj
 0001:00010be0       ??_GBerconTile@@UEAAPEAXI@Z 0000000180011be0 f i BerconTile.obj
 0001:00010be0       ??_EBerconTile@@UEAAPEAXI@Z 0000000180011be0 f i BerconTile.obj
 0001:00010c30       ??_GBerconTileDlgProc@@UEAAPEAXI@Z 0000000180011c30 f i BerconTile.obj
 0001:00010c30       ??_EBerconTileDlgProc@@UEAAPEAXI@Z 0000000180011c30 f i BerconTile.obj
 0001:00010c80       ?ActivateTexDisplay@BerconTile@@UEAAXH@Z 0000000180011c80 f i BerconTile.obj
 0001:00010cb0       ?ClassID@BerconTileClassDesc@@UEAA?AVClass_ID@@XZ 0000000180011cb0 f i BerconTile.obj
 0001:00010cb0       ?ClassID@BerconTile@@UEAA?AVClass_ID@@XZ 0000000180011cb0 f i BerconTile.obj
 0001:00010cd0       ?Clone@BerconTile@@UEAAPEAVReferenceTarget@@AEAVRemapDir@@@Z 0000000180011cd0 f   BerconTile.obj
 0001:00010e50       ?CreateParamDlg@BerconTile@@UEAAPEAVParamDlg@@PEAUHWND__@@PEAVIMtlParams@@@Z 0000000180011e50 f   BerconTile.obj
 0001:00010f70       ?DeleteThis@BerconTile@@UEAAXXZ 0000000180011f70 f i BerconTile.obj
 0001:00010fa0       ?DiscardTexHandle@BerconTile@@QEAAXXZ 0000000180011fa0 f i BerconTile.obj
 0001:00010fd0       ?DlgProc@BerconTileDlgProc@@UEAA_JHPEAVIParamMap2@@PEAUHWND__@@I_K_J@Z 0000000180011fd0 f   BerconTile.obj
 0001:000115b0       ?EnableStuff@BerconTile@@QEAAXH@Z 00000001800125b0 f   BerconTile.obj
 0001:00011a20       ?EvalColor@BerconTile@@UEAA?AVAColor@@AEAVShadeContext@@@Z 0000000180012a20 f   BerconTile.obj
 0001:00011fe0       ?EvalMono@BerconTile@@UEAAMAEAVShadeContext@@@Z 0000000180012fe0 f   BerconTile.obj
 0001:00012010       ?EvalNormalPerturb@BerconTile@@UEAA?AVPoint3@@AEAVShadeContext@@@Z 0000000180013010 f   BerconTile.obj
 0001:000129e0       ?EvalParameters@BerconTile@@QEAA?AVTileParam@@AEAVShadeContext@@@Z 00000001800139e0 f   BerconTile.obj
 0001:00012b00       ?GetActiveTexHandle@BerconTile@@UEAA_KHAEAVTexHandleMaker@@@Z 0000000180013b00 f   BerconTile.obj
 0001:00012bc0       ?GetBerconTileDesc@@YAPEAVClassDesc2@@XZ 0000000180013bc0 f   BerconTile.obj
 0001:00012bd0       ?GetClassName@BerconTile@@UEAAXAEAVWStr@@@Z 0000000180013bd0 f i BerconTile.obj
 0001:00012c00       ?GetParamBlock@BerconTile@@UEAAPEAVIParamBlock2@@H@Z 0000000180013c00 f i BerconTile.obj
 0001:00012c30       ?GetParamBlockByID@BerconTile@@UEAAPEAVIParamBlock2@@F@Z 0000000180013c30 f i BerconTile.obj
 0001:00012cd0       ?GetSubTexmap@BerconTile@@UEAAPEAVTexmap@@H@Z 0000000180013cd0 f i BerconTile.obj
 0001:00012ce0       ?GetSubTexmapSlotName@BerconTile@@UEAA?AVWStr@@H@Z 0000000180013ce0 f   BerconTile.obj
 0001:00012dd0       ?LocalRequirements@BerconTile@@UEAAKH@Z 0000000180013dd0 f i BerconTile.obj
 0001:00012df0       ?MappingsRequired@BerconTile@@UEAAXHAEAVBitArray@@0@Z 0000000180013df0 f i BerconTile.obj
 0001:00012e10       ?NotifyRefChanged@BerconTile@@UEAA?AW4RefResult@@AEBVInterval@@PEAVReferenceTarget@@AEA_KIH@Z 0000000180013e10 f   BerconTile.obj
 0001:00012f00       ?NumRefs@BerconTile@@UEAAHXZ 0000000180013f00 f i BerconTile.obj
 0001:00012f10       ?NumSubTexmaps@BerconTile@@UEAAHXZ 0000000180013f10 f i BerconTile.obj
 0001:00012f20       ?Reset@BerconTile@@UEAAXXZ 0000000180013f20 f   BerconTile.obj
 0001:00013520       ?SetDlgThing@BerconTile@@UEAAHPEAVParamDlg@@@Z 0000000180014520 f   BerconTile.obj
 0001:00013560       ?SetReference@BerconTile@@EEAAXHPEAVReferenceTarget@@@Z 0000000180014560 f   BerconTile.obj
 0001:000135b0       ?SetSubTexmap@BerconTile@@UEAAXHPEAVTexmap@@@Z 00000001800145b0 f   BerconTile.obj
 0001:000136a0       ?SetThing@BerconTileDlgProc@@UEAAXPEAVReferenceTarget@@@Z 00000001800146a0 f i BerconTile.obj
 0001:000136d0       ?SubAnim@BerconTile@@UEAAPEAVAnimatable@@H@Z 00000001800146d0 f   BerconTile.obj
 0001:000136d0       ?GetReference@BerconTile@@UEAAPEAVReferenceTarget@@H@Z 00000001800146d0 f   BerconTile.obj
 0001:00013720       ?SubAnimName@BerconTile@@UEAA?AVWStr@@H@Z 0000000180014720 f   BerconTile.obj
 0001:000137c0       ?SubTexmapOn@ISubMap@@UEAAHH@Z 00000001800147c0 f i BerconDistortion.obj
 0001:000137c0       ?NumSubs@BerconWood@@UEAAHXZ 00000001800147c0 f i BerconWood.obj
 0001:000137c0       ?NumSubs@BerconTile@@UEAAHXZ 00000001800147c0 f i BerconTile.obj
 0001:000137c0       ?CanTransferReference@ReferenceMaker@@UEAAHH@Z 00000001800147c0 f i BerconDistortion.obj
 0001:000137c0       ?CanMakeUnique@Animatable@@UEAAHXZ 00000001800147c0 f i BerconDistortion.obj
 0001:000137c0       ?GetMapChannel@Texmap@@UEAAHXZ 00000001800147c0 f i BerconDistortion.obj
 0001:000137c0       ?SupportTexDisplay@BerconNoise@@UEAAHXZ 00000001800147c0 f i BerconNoise.obj
 0001:000137c0       ?LibShutdown@@YAHXZ        00000001800147c0 f i DllEntry.obj
 0001:000137c0       ?OkToCreate@ClassDesc@@UEAAHPEAVInterface@@@Z 00000001800147c0 f i BerconDistortion.obj
 0001:000137c0       ?LoadMapFiles@Texmap@@UEAAHH@Z 00000001800147c0 f i BerconDistortion.obj
 0001:000137c0       ?IsPublic@BerconDistortionClassDesc@@UEAAHXZ 00000001800147c0 f i BerconDistortion.obj
 0001:000137c0       ?GetTransparencyHint@MtlBase@@UEAAHHAEAVInterval@@@Z 00000001800147c0 f i BerconDistortion.obj
 0001:000137c0       ?IsRefMaker@ReferenceMaker@@UEAAHXZ 00000001800147c0 f i BerconDistortion.obj
 0001:000137c0       ?SupportTexDisplay@BerconWood@@UEAAHXZ 00000001800147c0 f i BerconWood.obj
 0001:000137c0       ?IsPublic@BerconWoodClassDesc@@UEAAHXZ 00000001800147c0 f i BerconWood.obj
 0001:000137c0       ?GetSelKeyCoords@Animatable@@UEAAHAEAHAEAMK@Z 00000001800147c0 f i BerconDistortion.obj
 0001:000137c0       ?IsRefTarget@ReferenceTarget@@UEAAHXZ 00000001800147c0 f i BerconDistortion.obj
 0001:000137c0       ?BuildMaps@MtlBase@@UEAAHHAEAVRenderMapsContext@@@Z 00000001800147c0 f i BerconDistortion.obj
 0001:000137c0       ?SupportTexDisplay@BerconGradient@@UEAAHXZ 00000001800147c0 f i BerconGradient.obj
 0001:000137c0       ?CanAssignController@Animatable@@UEAAHH@Z 00000001800147c0 f i BerconDistortion.obj
 0001:000137c0       ?LibInitialize@@YAHXZ      00000001800147c0 f i DllEntry.obj
 0001:000137c0       _get_startup_argv_mode     00000001800147c0 f i MSVCRT:argv_mode.obj
 0001:000137c0       ?SupportTexDisplay@BerconTile@@UEAAHXZ 00000001800147c0 f i BerconTile.obj
 0001:000137c0       ?IsRealDependency@ReferenceMaker@@UEAAHPEAVReferenceTarget@@@Z 00000001800147c0 f i BerconDistortion.obj
 0001:000137c0       ?SupportTexDisplay@BerconDistortion@@UEAAHXZ 00000001800147c0 f i BerconDistortion.obj
 0001:000137c0       ?IsPublic@BerconTileClassDesc@@UEAAHXZ 00000001800147c0 f i BerconTile.obj
 0001:000137c0       ?NumSubs@BerconNoise@@UEAAHXZ 00000001800147c0 f i BerconNoise.obj
 0001:000137c0       ?CanCopyAnim@Animatable@@UEAAHXZ 00000001800147c0 f i BerconDistortion.obj
 0001:000137c0       ?IsPublic@BerconNoiseClassDesc@@UEAAHXZ 00000001800147c0 f i BerconNoise.obj
 0001:000137c0       ?IsEnabled@IGradient@@UEAAHXZ 00000001800147c0 f i BerconGradient.obj
 0001:000137c0       ?IsPublic@BerconGradientClassDesc@@UEAAHXZ 00000001800147c0 f i BerconGradient.obj
 0001:000137c0       ?GetTrackVSpace@Animatable@@UEAAHH@Z 00000001800147c0 f i BerconDistortion.obj
 0001:000137d0       ?Update@BerconTile@@UEAAXHAEAVInterval@@@Z 00000001800147d0 f   BerconTile.obj
 0001:00014030       ?Validity@BerconTile@@UEAA?AVInterval@@H@Z 0000000180015030 f   BerconTile.obj
 0001:00014080       ?_Copy@?$basic_string@_WU?$char_traits@_W@std@@V?$allocator@_W@2@@std@@QEAAX_K0@Z 0000000180015080 f i BerconTile.obj
 0001:000141b0       ?allocate@?$allocator@_W@std@@QEAAPEA_W_K@Z 00000001800151b0 f i BerconTile.obj
 0001:00014230       ?assign@?$basic_string@_WU?$char_traits@_W@std@@V?$allocator@_W@2@@std@@QEAAAEAV12@AEBV12@_K1@Z 0000000180015230 f i BerconTile.obj
 0001:00014370       ?assign@?$basic_string@_WU?$char_traits@_W@std@@V?$allocator@_W@2@@std@@QEAAAEAV12@PEB_W_K@Z 0000000180015370 f i BerconTile.obj
 0001:000144c0       ?checkValues@TileParam@@QEAAXXZ 00000001800154c0 f i BerconTile.obj
 0001:000145c0       ?deallocate@?$allocator@M@std@@QEAAXPEAM_K@Z 00000001800155c0 f i BerconTile.obj
 0001:00014640       ?deallocate@?$allocator@VTileRow@@@std@@QEAAXPEAVTileRow@@_K@Z 0000000180015640 f i BerconTile.obj
 0001:00014640       ?deallocate@?$allocator@V?$basic_string@_WU?$char_traits@_W@std@@V?$allocator@_W@2@@std@@@std@@QEAAXPEAV?$basic_string@_WU?$char_traits@_W@std@@V?$allocator@_W@2@@2@_K@Z 0000000180015640 f i tile.obj
 0001:000146b0       ?deallocate@?$allocator@_W@std@@QEAAXPEA_W_K@Z 00000001800156b0 f i BerconTile.obj
 0001:00014720       ?erase@?$basic_string@_WU?$char_traits@_W@std@@V?$allocator@_W@2@@std@@QEAAAEAV12@_K0@Z 0000000180015720 f i BerconTile.obj
 0001:000147d0       ?getColor@BerconTile@@QEAA?AVAColor@@AEAVShadeContext@@H@Z 00000001800157d0 f i BerconTile.obj
 0001:00014870       ?getDistVector@BerconTile@@QEAA?AVPoint3@@AEAVShadeContext@@@Z 0000000180015870 f   BerconTile.obj
 0001:00014990       ?getFloat@BerconTile@@QEAAMAEAVShadeContext@@H@Z 0000000180015990 f i BerconTile.obj
 0001:000149e0       ?getNormal@BerconTile@@QEAA?AVPoint3@@AEAVShadeContext@@H@Z 00000001800159e0 f i BerconTile.obj
 0001:00014a50       ?update@TilePattern@@QEAAXXZ 0000000180015a50 f i BerconTile.obj
 0001:00014b10       ?Create@BerconWoodClassDesc@@UEAAPEAXH@Z 0000000180015b10 f i BerconWood.obj
 0001:00014b50       ?ClassName@BerconWoodClassDesc@@UEAAPEB_WXZ 0000000180015b50 f i BerconWood.obj
 0001:00014b60       ?Category@BerconTileClassDesc@@UEAAPEB_WXZ 0000000180015b60 f i BerconTile.obj
 0001:00014b60       ?Category@BerconNoiseClassDesc@@UEAAPEB_WXZ 0000000180015b60 f i BerconNoise.obj
 0001:00014b60       ?Category@BerconWoodClassDesc@@UEAAPEB_WXZ 0000000180015b60 f i BerconWood.obj
 0001:00014b60       ?Category@BerconGradientClassDesc@@UEAAPEB_WXZ 0000000180015b60 f i BerconGradient.obj
 0001:00014b60       ?Category@BerconDistortionClassDesc@@UEAAPEB_WXZ 0000000180015b60 f i BerconDistortion.obj
 0001:00014b70       ?InternalName@BerconWoodClassDesc@@UEAAPEB_WXZ 0000000180015b70 f i BerconWood.obj
 0001:00014b80       ?HInstance@BerconNoiseClassDesc@@UEAAPEAUHINSTANCE__@@XZ 0000000180015b80 f i BerconNoise.obj
 0001:00014b80       ?HInstance@BerconTileClassDesc@@UEAAPEAUHINSTANCE__@@XZ 0000000180015b80 f i BerconTile.obj
 0001:00014b80       ?HInstance@BerconWoodClassDesc@@UEAAPEAUHINSTANCE__@@XZ 0000000180015b80 f i BerconWood.obj
 0001:00014b80       ?HInstance@BerconGradientClassDesc@@UEAAPEAUHINSTANCE__@@XZ 0000000180015b80 f i BerconGradient.obj
 0001:00014b80       ?HInstance@BerconDistortionClassDesc@@UEAAPEAUHINSTANCE__@@XZ 0000000180015b80 f i BerconDistortion.obj
 0001:00014b90       ??_EBerconWoodClassDesc@@UEAAPEAXI@Z 0000000180015b90 f i BerconWood.obj
 0001:00014b90       ??_GBerconWoodClassDesc@@UEAAPEAXI@Z 0000000180015b90 f i BerconWood.obj
 0001:00014bf0       ??0BerconWood@@QEAA@XZ     0000000180015bf0 f   BerconWood.obj
 0001:00014d10       ??1BerconWood@@UEAA@XZ     0000000180015d10 f   BerconWood.obj
 0001:00014d78       ??_EBerconWood@@WEA@EAAPEAXI@Z 0000000180015d78 f i BerconWood.obj
 0001:00014d90       ??_GBerconWood@@UEAAPEAXI@Z 0000000180015d90 f i BerconWood.obj
 0001:00014d90       ??_EBerconWood@@UEAAPEAXI@Z 0000000180015d90 f i BerconWood.obj
 0001:00014de0       ??_EBerconWoodDlgProc@@UEAAPEAXI@Z 0000000180015de0 f i BerconWood.obj
 0001:00014de0       ??_GBerconWoodDlgProc@@UEAAPEAXI@Z 0000000180015de0 f i BerconWood.obj
 0001:00014e30       ?ActivateTexDisplay@BerconWood@@UEAAXH@Z 0000000180015e30 f i BerconWood.obj
 0001:00014e60       ?ClassID@BerconWood@@UEAA?AVClass_ID@@XZ 0000000180015e60 f i BerconWood.obj
 0001:00014e60       ?ClassID@BerconWoodClassDesc@@UEAA?AVClass_ID@@XZ 0000000180015e60 f i BerconWood.obj
 0001:00014e80       ?Clone@BerconWood@@UEAAPEAVReferenceTarget@@AEAVRemapDir@@@Z 0000000180015e80 f   BerconWood.obj
 0001:00015000       ?CreateParamDlg@BerconWood@@UEAAPEAVParamDlg@@PEAUHWND__@@PEAVIMtlParams@@@Z 0000000180016000 f   BerconWood.obj
 0001:00015100       ?DeleteThis@BerconWood@@UEAAXXZ 0000000180016100 f i BerconWood.obj
 0001:00015130       ?DeleteThis@BerconWoodDlgProc@@UEAAXXZ 0000000180016130 f i BerconWood.obj
 0001:00015130       ?DeleteThis@BerconTileDlgProc@@UEAAXXZ 0000000180016130 f i BerconTile.obj
 0001:00015130       ?DeleteThis@BerconDistortion@@UEAAXXZ 0000000180016130 f i BerconDistortion.obj
 0001:00015130       ?DeleteThis@BerconGradientDlgProc@@UEAAXXZ 0000000180016130 f i BerconGradient.obj
 0001:00015130       ?DeleteThis@BerconNoiseDlgProc@@UEAAXXZ 0000000180016130 f i BerconNoise.obj
 0001:00015150       ?DiscardTexHandle@BerconWood@@QEAAXXZ 0000000180016150 f i BerconWood.obj
 0001:00015180       ?DlgProc@BerconWoodDlgProc@@UEAA_JHPEAVIParamMap2@@PEAUHWND__@@I_K_J@Z 0000000180016180 f   BerconWood.obj
 0001:00015300       ?EnableStuff@BerconWood@@QEAAXXZ 0000000180016300 f   BerconWood.obj
 0001:000154b0       ?EvalColor@BerconWood@@UEAA?AVAColor@@AEAVShadeContext@@@Z 00000001800164b0 f   BerconWood.obj
 0001:00015b40       ?EvalMono@BerconWood@@UEAAMAEAVShadeContext@@@Z 0000000180016b40 f   BerconWood.obj
 0001:00015b70       ?EvalNormalPerturb@BerconWood@@UEAA?AVPoint3@@AEAVShadeContext@@@Z 0000000180016b70 f   BerconWood.obj
 0001:000165c0       ?EvalParameters@BerconWood@@QEAA?AVWoodParam@@AEAVShadeContext@@@Z 00000001800175c0 f   BerconWood.obj
 0001:000169b0       ?GetActiveTexHandle@BerconWood@@UEAA_KHAEAVTexHandleMaker@@@Z 00000001800179b0 f   BerconWood.obj
 0001:00016a70       ?GetBerconWoodDesc@@YAPEAVClassDesc2@@XZ 0000000180017a70 f   BerconWood.obj
 0001:00016a80       ?GetClassName@BerconWood@@UEAAXAEAVWStr@@@Z 0000000180017a80 f i BerconWood.obj
 0001:00016ab0       ?GetInterface@BerconGradient@@UEAAPEAXK@Z 0000000180017ab0 f i BerconGradient.obj
 0001:00016ab0       ?GetInterface@BerconNoise@@UEAAPEAXK@Z 0000000180017ab0 f i BerconNoise.obj
 0001:00016ab0       ?GetInterface@BerconTile@@UEAAPEAXK@Z 0000000180017ab0 f i BerconTile.obj
 0001:00016ab0       ?GetInterface@BerconWood@@UEAAPEAXK@Z 0000000180017ab0 f i BerconWood.obj
 0001:00016ab8       ?GetInterface@BerconGradient@@WJA@EAAPEAXK@Z 0000000180017ab8 f i BerconGradient.obj
 0001:00016ab8       ?GetInterface@BerconTile@@WJA@EAAPEAXK@Z 0000000180017ab8 f i BerconTile.obj
 0001:00016ab8       ?GetInterface@BerconNoise@@WJA@EAAPEAXK@Z 0000000180017ab8 f i BerconNoise.obj
 0001:00016ab8       ?GetInterface@BerconWood@@WJA@EAAPEAXK@Z 0000000180017ab8 f i BerconWood.obj
 0001:00016ad0       ?GetParamBlock@BerconWood@@UEAAPEAVIParamBlock2@@H@Z 0000000180017ad0 f i BerconWood.obj
 0001:00016b00       ?GetParamBlockByID@BerconWood@@UEAAPEAVIParamBlock2@@F@Z 0000000180017b00 f i BerconWood.obj
 0001:00016ba0       ?GetSubTexmap@BerconWood@@UEAAPEAVTexmap@@H@Z 0000000180017ba0 f i BerconWood.obj
 0001:00016bb0       ?GetSubTexmapSlotName@BerconWood@@UEAA?AVWStr@@H@Z 0000000180017bb0 f   BerconWood.obj
 0001:00016de0       ?LocalRequirements@BerconWood@@UEAAKH@Z 0000000180017de0 f i BerconWood.obj
 0001:00016e00       ?MappingsRequired@BerconWood@@UEAAXHAEAVBitArray@@0@Z 0000000180017e00 f i BerconWood.obj
 0001:00016e20       ?NotifyRefChanged@BerconWood@@UEAA?AW4RefResult@@AEBVInterval@@PEAVReferenceTarget@@AEA_KIH@Z 0000000180017e20 f   BerconWood.obj
 0001:00016f10       ?NumRefs@BerconWood@@UEAAHXZ 0000000180017f10 f i BerconWood.obj
 0001:00016f20       ?NumSubTexmaps@BerconWood@@UEAAHXZ 0000000180017f20 f i BerconWood.obj
 0001:00016f30       ?Reset@BerconWood@@UEAAXXZ 0000000180017f30 f   BerconWood.obj
 0001:00017460       ?SetDlgThing@BerconWood@@UEAAHPEAVParamDlg@@@Z 0000000180018460 f   BerconWood.obj
 0001:000174a0       ?SetReference@BerconWood@@EEAAXHPEAVReferenceTarget@@@Z 00000001800184a0 f   BerconWood.obj
 0001:000174f0       ?SetSubTexmap@BerconWood@@UEAAXHPEAVTexmap@@@Z 00000001800184f0 f   BerconWood.obj
 0001:000175e0       ?SetThing@BerconWoodDlgProc@@UEAAXPEAVReferenceTarget@@@Z 00000001800185e0 f i BerconWood.obj
 0001:000175f0       ?SubAnim@BerconWood@@UEAAPEAVAnimatable@@H@Z 00000001800185f0 f   BerconWood.obj
 0001:000175f0       ?GetReference@BerconWood@@UEAAPEAVReferenceTarget@@H@Z 00000001800185f0 f   BerconWood.obj
 0001:00017640       ?SubAnimName@BerconWood@@UEAA?AVWStr@@H@Z 0000000180018640 f   BerconWood.obj
 0001:00017730       ?Update@BerconWood@@UEAAXHAEAVInterval@@@Z 0000000180018730 f   BerconWood.obj
 0001:00017d30       ?Validity@BerconWood@@UEAA?AVInterval@@H@Z 0000000180018d30 f   BerconWood.obj
 0001:00017d80       ?applyDistortion@BerconWood@@QEAAXAEAVShadeContext@@AEAVPoint3@@@Z 0000000180018d80 f   BerconWood.obj
 0001:00017ea0       ?GetString@@YAPEA_WH@Z     0000000180018ea0 f   DllEntry.obj
 0001:00017ef0       ?LibClassDesc@@YAPEAVClassDesc@@H@Z 0000000180018ef0 f   DllEntry.obj
 0001:00017f60       ?LibDescription@@YAPEB_WXZ 0000000180018f60 f   DllEntry.obj
 0001:00017fb0       ?LibVersion@@YAKXZ         0000000180018fb0 f   DllEntry.obj
 0001:00017fc0       CommctrlIsolationAwarePrivatetRgCebPnQQeRff_pbZPgYQP_QYY 0000000180018fc0 f i DllEntry.obj
 0001:00018090       DllMain                    0000000180019090 f   DllEntry.obj
 0001:000180f0       IsolationAwareInitCommonControls 00000001800190f0 f i DllEntry.obj
 0001:000181e0       IsolationAwarePrivatenPgViNgRzlnPgpgk 00000001800191e0 f i DllEntry.obj
 0001:00018270       IsolationAwarePrivatezlybNQyVOeNelJ 0000000180019270 f i DllEntry.obj
 0001:00018280       WinbaseIsolationAwarePrivatetRgzlnPgpgk 0000000180019280 f i DllEntry.obj
 0001:00018440       ?EnableStuff@BerconXYZ@@AEAAXPEAVIParamBlock2@@H@Z 0000000180019440 f   BerconCommon.obj
 0001:00018710       ?get@BerconXYZ@@AEAAHAEAVShadeContext@@AEAVPoint3@@11VMatrix3@@PEAH@Z 0000000180019710 f   BerconCommon.obj
 0001:00018bb0       ?get@BerconXYZ@@AEAAHAEAVShadeContext@@AEAVPoint3@@VMatrix3@@PEAH@Z 0000000180019bb0 f   BerconCommon.obj
 0001:00018e00       ?get@BerconXYZ@@QEAAHAEAVShadeContext@@AEAVPoint3@@11@Z 0000000180019e00 f   BerconCommon.obj
 0001:00018ef0       ?get@BerconXYZ@@QEAAHAEAVShadeContext@@AEAVPoint3@@11PEAV3@@Z 0000000180019ef0 f   BerconCommon.obj
 0001:000192a0       ?get@BerconXYZ@@QEAAHAEAVShadeContext@@AEAVPoint3@@@Z 000000018001a2a0 f   BerconCommon.obj
 0001:00019370       ?get@BerconXYZ@@QEAAHAEAVShadeContext@@AEAVPoint3@@PEAV3@@Z 000000018001a370 f   BerconCommon.obj
 0001:000196f0       ?getBasis@BerconXYZ@@AEAAXVMatrix3@@PEAVPoint3@@@Z 000000018001a6f0 f   BerconCommon.obj
 0001:000198a0       ?random@BerconXYZ@@AEAA?AVMatrix3@@AEAVShadeContext@@PEAV2@@Z 000000018001a8a0 f   BerconCommon.obj
 0001:00019bb0       ?reset@BerconXYZ@@QEAAXPEAVIParamBlock2@@AEAVInterval@@HHHH@Z 000000018001abb0 f   BerconCommon.obj
 0001:00019f50       ?seedRandomGen@BerconXYZ@@AEAAXAEAVShadeContext@@@Z 000000018001af50 f   BerconCommon.obj
 0001:0001a380       ?update@BerconXYZ@@QEAAXPEAVIParamBlock2@@HAEAVInterval@@@Z 000000018001b380 f   BerconCommon.obj
 0001:0001a8a0       ?update@BerconXYZ@@QEAAXXZ 000000018001b8a0 f   BerconCommon.obj
 0001:0001aa40       ?Create@BerconNoiseClassDesc@@UEAAPEAXH@Z 000000018001ba40 f i BerconNoise.obj
 0001:0001aa80       ?ClassName@BerconNoiseClassDesc@@UEAAPEB_WXZ 000000018001ba80 f i BerconNoise.obj
 0001:0001aa90       ?ClassID@BerconNoiseClassDesc@@UEAA?AVClass_ID@@XZ 000000018001ba90 f i BerconNoise.obj
 0001:0001aa90       ?ClassID@BerconNoise@@UEAA?AVClass_ID@@XZ 000000018001ba90 f i BerconNoise.obj
 0001:0001aab0       ?InternalName@BerconNoiseClassDesc@@UEAAPEB_WXZ 000000018001bab0 f i BerconNoise.obj
 0001:0001aac0       ??_EBerconNoiseClassDesc@@UEAAPEAXI@Z 000000018001bac0 f i BerconNoise.obj
 0001:0001aac0       ??_GBerconNoiseClassDesc@@UEAAPEAXI@Z 000000018001bac0 f i BerconNoise.obj
 0001:0001ab20       ??0BerconNoise@@QEAA@XZ    000000018001bb20 f   BerconNoise.obj
 0001:0001acd0       ??1BerconNoise@@UEAA@XZ    000000018001bcd0 f   BerconNoise.obj
 0001:0001ad38       ??_EBerconNoise@@WEA@EAAPEAXI@Z 000000018001bd38 f i BerconNoise.obj
 0001:0001ad50       ??_EBerconNoise@@UEAAPEAXI@Z 000000018001bd50 f i BerconNoise.obj
 0001:0001ad50       ??_GBerconNoise@@UEAAPEAXI@Z 000000018001bd50 f i BerconNoise.obj
 0001:0001ada0       ??_GBerconNoiseDlgProc@@UEAAPEAXI@Z 000000018001bda0 f i BerconNoise.obj
 0001:0001ada0       ??_EBerconNoiseDlgProc@@UEAAPEAXI@Z 000000018001bda0 f i BerconNoise.obj
 0001:0001adf0       ?ActivateTexDisplay@BerconNoise@@UEAAXH@Z 000000018001bdf0 f i BerconNoise.obj
 0001:0001ae20       ?Clone@BerconNoise@@UEAAPEAVReferenceTarget@@AEAVRemapDir@@@Z 000000018001be20 f   BerconNoise.obj
 0001:0001afc0       ?CreateParamDlg@BerconNoise@@UEAAPEAVParamDlg@@PEAUHWND__@@PEAVIMtlParams@@@Z 000000018001bfc0 f   BerconNoise.obj
 0001:0001b0c0       ?DeleteThis@BerconNoise@@UEAAXXZ 000000018001c0c0 f i BerconNoise.obj
 0001:0001b0f0       ?DiscardTexHandle@BerconNoise@@QEAAXXZ 000000018001c0f0 f i BerconNoise.obj
 0001:0001b120       ?DlgProc@BerconNoiseDlgProc@@UEAA_JHPEAVIParamMap2@@PEAUHWND__@@I_K_J@Z 000000018001c120 f   BerconNoise.obj
 0001:0001b670       ?EnableStuff@BerconNoise@@QEAAXXZ 000000018001c670 f   BerconNoise.obj
 0001:0001b990       ?EvalColor@BerconNoise@@UEAA?AVAColor@@AEAVShadeContext@@@Z 000000018001c990 f   BerconNoise.obj
 0001:0001be20       ?EvalMono@BerconNoise@@UEAAMAEAVShadeContext@@@Z 000000018001ce20 f   BerconNoise.obj
 0001:0001be50       ?EvalNormalPerturb@BerconNoise@@UEAA?AVPoint3@@AEAVShadeContext@@@Z 000000018001ce50 f   BerconNoise.obj
 0001:0001c400       ?EvalParameters@BerconNoise@@QEAA?AVNoiseParams@@PEAVShadeContext@@@Z 000000018001d400 f   BerconNoise.obj
 0001:0001c7f0       ?GetActiveTexHandle@BerconNoise@@UEAA_KHAEAVTexHandleMaker@@@Z 000000018001d7f0 f   BerconNoise.obj
 0001:0001c8b0       ?GetBerconNoiseDesc@@YAPEAVClassDesc2@@XZ 000000018001d8b0 f   BerconNoise.obj
 0001:0001c8c0       ?GetClassName@BerconNoise@@UEAAXAEAVWStr@@@Z 000000018001d8c0 f i BerconNoise.obj
 0001:0001c8f0       ?GetParamBlock@BerconNoise@@UEAAPEAVIParamBlock2@@H@Z 000000018001d8f0 f i BerconNoise.obj
 0001:0001c920       ?GetParamBlockByID@BerconNoise@@UEAAPEAVIParamBlock2@@F@Z 000000018001d920 f i BerconNoise.obj
 0001:0001c9c0       ?GetSubTexmap@BerconNoise@@UEAAPEAVTexmap@@H@Z 000000018001d9c0 f i BerconNoise.obj
 0001:0001c9d0       ?GetSubTexmapSlotName@BerconNoise@@UEAA?AVWStr@@H@Z 000000018001d9d0 f   BerconNoise.obj
 0001:0001cbb0       ?LocalRequirements@BerconNoise@@UEAAKH@Z 000000018001dbb0 f i BerconNoise.obj
 0001:0001cbd0       ?MappingsRequired@BerconNoise@@UEAAXHAEAVBitArray@@0@Z 000000018001dbd0 f i BerconNoise.obj
 0001:0001cbf0       ?NotifyRefChanged@BerconNoise@@UEAA?AW4RefResult@@AEBVInterval@@PEAVReferenceTarget@@AEA_KIH@Z 000000018001dbf0 f   BerconNoise.obj
 0001:0001cd00       ?NumRefs@BerconNoise@@UEAAHXZ 000000018001dd00 f i BerconNoise.obj
 0001:0001cd10       ?NumSubTexmaps@BerconNoise@@UEAAHXZ 000000018001dd10 f i BerconNoise.obj
 0001:0001cd20       ?Reset@BerconNoise@@UEAAXXZ 000000018001dd20 f   BerconNoise.obj
 0001:0001d1c0       ?SetDlgThing@BerconNoise@@UEAAHPEAVParamDlg@@@Z 000000018001e1c0 f   BerconNoise.obj
 0001:0001d200       ?SetReference@BerconNoise@@EEAAXHPEAVReferenceTarget@@@Z 000000018001e200 f   BerconNoise.obj
 0001:0001d250       ?SetSubTexmap@BerconNoise@@UEAAXHPEAVTexmap@@@Z 000000018001e250 f   BerconNoise.obj
 0001:0001d320       ?SetThing@BerconNoiseDlgProc@@UEAAXPEAVReferenceTarget@@@Z 000000018001e320 f i BerconNoise.obj
 0001:0001d330       ?SubAnim@BerconNoise@@UEAAPEAVAnimatable@@H@Z 000000018001e330 f   BerconNoise.obj
 0001:0001d330       ?GetReference@BerconNoise@@UEAAPEAVReferenceTarget@@H@Z 000000018001e330 f   BerconNoise.obj
 0001:0001d380       ?SubAnimName@BerconNoise@@UEAA?AVWStr@@H@Z 000000018001e380 f   BerconNoise.obj
 0001:0001d470       ?SwapInputs@BerconNoise@@QEAAXXZ 000000018001e470 f   BerconNoise.obj
 0001:0001d650       ?Update@BerconNoise@@UEAAXHAEAVInterval@@@Z 000000018001e650 f   BerconNoise.obj
 0001:0001dbe0       ?Validity@BerconNoise@@UEAA?AVInterval@@H@Z 000000018001ebe0 f   BerconNoise.obj
 0001:0001dc30       ?applyDistortion@BerconNoise@@QEAAXAEAVShadeContext@@AEAVPoint3@@@Z 000000018001ec30 f   BerconNoise.obj
 0001:0001dd50       ?fBm@Fractal@@SAMVPoint3@@AEAVNoiseParams@@@Z 000000018001ed50 f   fractal.obj
 0001:0001deb0       ?fBm@Fractal@@SAMVPoint3@@MAEAVNoiseParams@@@Z 000000018001eeb0 f   fractal.obj
 0001:0001e030       ?fBm@Fractal@@SAMVPoint3@@MMM@Z 000000018001f030 f   fractal.obj
 0001:0001e170       ?fBmTurb@Fractal@@SAMVPoint3@@AEAVNoiseParams@@@Z 000000018001f170 f   fractal.obj
 0001:0001e2f0       ?fBmTurb@Fractal@@SAMVPoint3@@MAEAVNoiseParams@@@Z 000000018001f2f0 f   fractal.obj
 0001:0001e4a0       ?fractal@Fractal@@SAMVPoint3@@AEAVNoiseParams@@@Z 000000018001f4a0 f   fractal.obj
 0001:0001e5e0       ?fractal@Fractal@@SAMVPoint3@@MAEAVNoiseParams@@@Z 000000018001f5e0 f   fractal.obj
 0001:0001e740       ?grain@Fractal@@SAMVPoint3@@MM@Z 000000018001f740 f   fractal.obj
 0001:0001e7e0       ?heteroTerrain@Fractal@@SAMVPoint3@@AEAVNoiseParams@@@Z 000000018001f7e0 f   fractal.obj
 0001:0001e9a0       ?hybridMultiFractal@Fractal@@SAMVPoint3@@AEAVNoiseParams@@@Z 000000018001f9a0 f   fractal.obj
 0001:0001ebc0       ?hybridMultiFractal@Fractal@@SAMVPoint3@@MAEAVNoiseParams@@@Z 000000018001fbc0 f   fractal.obj
 0001:0001ee20       ?ridgedMultiFractal@Fractal@@SAMVPoint3@@AEAVNoiseParams@@@Z 000000018001fe20 f   fractal.obj
 0001:0001efd0       ?ridgedMultiFractal@Fractal@@SAMVPoint3@@MAEAVNoiseParams@@@Z 000000018001ffd0 f   fractal.obj
 0001:0001f1a0       ?turbulence@Fractal@@SAMVPoint3@@AEAVNoiseParams@@@Z 00000001800201a0 f   fractal.obj
 0001:0001f300       ?turbulence@Fractal@@SAMVPoint3@@MAEAVNoiseParams@@@Z 0000000180020300 f   fractal.obj
 0001:0001f490       ?addKey@GradientRamp@@QEAAXHMVAColor@@PEAVTexmap@@@Z 0000000180020490 f   GradientRamp.obj
 0001:0001f6b0       ?dragging@GradientRamp@@QEAAXHH_N00@Z 00000001800206b0 f   GradientRamp.obj
 0001:0001f720       ?getBump@GradientRamp@@QEAA?AVPoint3@@MV2@AEAVShadeContext@@@Z 0000000180020720 f   GradientRamp.obj
 0001:0001fad0       ?getColor@GradientRamp@@QEAA?AVAColor@@M@Z 0000000180020ad0 f   GradientRamp.obj
 0001:0001fcf0       ?getColor@GradientRamp@@QEAA?AVAColor@@MAEAVShadeContext@@@Z 0000000180020cf0 f   GradientRamp.obj
 0001:0001ffe0       ?getSubtex@GradientRamp@@QEAAPEAVTexmap@@H@Z 0000000180020fe0 f   GradientRamp.obj
 0001:00020070       ?interpolate@GradientRamp@@QEAAMMMM@Z 0000000180021070 f   GradientRamp.obj
 0001:000200d0       ?invalidate@GradientRamp@@QEAAXXZ 00000001800210d0 f   GradientRamp.obj
 0001:000200f0       ?leftDown@GradientRamp@@QEAAXHH_N00@Z 00000001800210f0 f   GradientRamp.obj
 0001:00020180       ?leftUp@GradientRamp@@QEAAXHH_N00@Z 0000000180021180 f   GradientRamp.obj
 0001:000202b0       ?paint@GradientRamp@@QEAAXPEAUHDC__@@@Z 00000001800212b0 f   GradientRamp.obj
 0001:00020750       ?popup@GradientRamp@@QEAAXHHH@Z 0000000180021750 f   GradientRamp.obj
 0001:00020880       ?reset@GradientRamp@@QEAAXXZ 0000000180021880 f   GradientRamp.obj
 0001:00020940       ?setHWND@GradientRamp@@QEAAXPEAUHWND__@@@Z 0000000180021940 f   GradientRamp.obj
 0001:00020980       ?setSubtex@GradientRamp@@QEAAXHPEAVTexmap@@@Z 0000000180021980 f   GradientRamp.obj
 0001:000209d0       ?setSubtex@GradientRamp@@QEAAXPEAVTexmap@@@Z 00000001800219d0 f   GradientRamp.obj
 0001:00020a30       ?sort@GradientRamp@@QEAAXXZ 0000000180021a30 f   GradientRamp.obj
 0001:00020b40       ?GradientProc@IGradient@@SA_JPEAUHWND__@@I_K_J@Z 0000000180021b40 f   IGradient.obj
 0001:00020dc0       ?InitGradientControls@@YAXXZ 0000000180021dc0 f   IGradient.obj
 0001:00020e40       IsolationAwareRegisterClassExW 0000000180021e40 f i IGradient.obj
 0001:00020f50       ?alterUVW@Noise@@SAXAEAVPoint3@@H@Z 0000000180021f50 f   noise.obj
 0001:00020fd0       ?f@Fractal@@SAMVPoint3@@AEAVNoiseParams@@@Z 0000000180021fd0 f i noise.obj
 0001:000211a0       ?f@Fractal@@SAMVPoint3@@MAEAVNoiseParams@@@Z 00000001800221a0 f i noise.obj
 0001:00021380       ?limitedNoise@Noise@@SAMVPoint3@@00AEAVNoiseParams@@@Z 0000000180022380 f   noise.obj
 0001:00021430       ?limitedNoise@Noise@@SAMVPoint3@@AEAVNoiseParams@@@Z 0000000180022430 f   noise.obj
 0001:000214a0       ?noise@Noise@@SAMVPoint3@@AEAVNoiseParams@@@Z 00000001800224a0 f   noise.obj
 0001:000215b0       ?noise@Noise@@SAMVPoint3@@MAEAVNoiseParams@@@Z 00000001800225b0 f   noise.obj
 0001:000216d0       ?wood@Noise@@SAMVPoint3@@00AEAV2@VWoodParam@@@Z 00000001800226d0 f   noise.obj
 0001:00021d20       ?wood@Noise@@SAMVPoint3@@AEAV2@AEAVWoodParam@@@Z 0000000180022d20 f   noise.obj
 0001:00022140       ?worleyWrapper@Noise@@SAMVPoint3@@AEAVNoiseParams@@@Z 0000000180023140 f   noise.obj
 0001:000222e0       ?fnoise2D@Perlin@@SAMMMM@Z 00000001800232e0 f   perlin.obj
 0001:00022360       ?fnoise3D@Perlin@@SAMMMMM@Z 0000000180023360 f   perlin.obj
 0001:000223f0       ?fnoise4D@Perlin@@SAMMMMMM@Z 00000001800233f0 f   perlin.obj
 0001:000224a0       ?fsnoise2D@Perlin@@SAMMMM@Z 00000001800234a0 f   perlin.obj
 0001:00022520       ?fsnoise3D@Perlin@@SAMMMMM@Z 0000000180023520 f   perlin.obj
 0001:000225b0       ?fsnoise4D@Perlin@@SAMMMMMM@Z 00000001800235b0 f   perlin.obj
 0001:00022660       ?noise@Perlin@@SAMMM@Z     0000000180023660 f   perlin.obj
 0001:000228e0       ?noise@Perlin@@SAMMMM@Z    00000001800238e0 f   perlin.obj
 0001:00022d90       ?noise@Perlin@@SAMMMMM@Z   0000000180023d90 f   perlin.obj
 0001:000236c0       ?point@Perlin@@CAMMMHH@Z   00000001800246c0 f i perlin.obj
 0001:00023760       ?point@Perlin@@CAMMMMHHH@Z 0000000180024760 f i perlin.obj
 0001:00023820       ?point@Perlin@@CAMMMMMHHHH@Z 0000000180024820 f i perlin.obj
 0001:00023900       ?snoise@Perlin@@SAMM@Z     0000000180024900 f   perlin.obj
 0001:000239e0       ?snoise@Perlin@@SAMMM@Z    00000001800249e0 f   perlin.obj
 0001:00023b50       ?snoise@Perlin@@SAMMMM@Z   0000000180024b50 f   perlin.obj
 0001:00023e40       ?snoise@Perlin@@SAMMMMM@Z  0000000180024e40 f   perlin.obj
 0001:000242e0       ??$_Destroy_range1@V?$allocator@V?$basic_string@_WU?$char_traits@_W@std@@V?$allocator@_W@2@@std@@@std@@PEAV?$basic_string@_WU?$char_traits@_W@std@@V?$allocator@_W@2@@2@@std@@YAXPEAV?$basic_string@_WU?$char_traits@_W@std@@V?$allocator@_W@2@@0@0AEAU?$_Wrap_alloc@V?$allocator@V?$basic_string@_WU?$char_traits@_W@std@@V?$allocator@_W@2@@std@@@std@@@0@U?$integral_constant@_N$0A@@0@@Z 00000001800252e0 f i tile.obj
 0001:000243c0       ??$_Uninitialized_move_al_unchecked1@PEAV?$basic_string@_WU?$char_traits@_W@std@@V?$allocator@_W@2@@std@@PEAV12@V?$allocator@V?$basic_string@_WU?$char_traits@_W@std@@V?$allocator@_W@2@@std@@@2@@std@@YAPEAV?$basic_string@_WU?$char_traits@_W@std@@V?$allocator@_W@2@@0@PEAV10@00AEAU?$_Wrap_alloc@V?$allocator@V?$basic_string@_WU?$char_traits@_W@std@@V?$allocator@_W@2@@std@@@std@@@0@U_General_ptr_iterator_tag@0@U_Any_tag@0@@Z 00000001800253c0 f i tile.obj
 0001:00024460       ??$_Uninitialized_move_al_unchecked1@PEAVTileRow@@PEAV1@V?$allocator@VTileRow@@@std@@@std@@YAPEAVTileRow@@PEAV1@00AEAU?$_Wrap_alloc@V?$allocator@VTileRow@@@std@@@0@U_General_ptr_iterator_tag@0@U_Any_tag@0@@Z 0000000180025460 f i tile.obj
 0001:000244f0       ??0?$vector@MV?$allocator@M@std@@@std@@QEAA@AEBV01@@Z 00000001800254f0 f i tile.obj
 0001:000245b0       ??1?$basic_stringbuf@_WU?$char_traits@_W@std@@V?$allocator@_W@2@@std@@UEAA@XZ 00000001800255b0 f i tile.obj
 0001:000245f0       ??1?$basic_stringstream@_WU?$char_traits@_W@std@@V?$allocator@_W@2@@std@@UEAA@XZ 00000001800255f0 f i tile.obj
 0001:00024680       ??1?$vector@V?$basic_string@_WU?$char_traits@_W@std@@V?$allocator@_W@2@@std@@V?$allocator@V?$basic_string@_WU?$char_traits@_W@std@@V?$allocator@_W@2@@std@@@2@@std@@QEAA@XZ 0000000180025680 f i tile.obj
 0001:000246e0       ??1TileRow@@QEAA@XZ        00000001800256e0 f i tile.obj
 0001:00024730       ??_D?$basic_stringstream@_WU?$char_traits@_W@std@@V?$allocator@_W@2@@std@@QEAAXXZ 0000000180025730 f i tile.obj
 0001:00024778       ??_E?$basic_stringstream@_WU?$char_traits@_W@std@@V?$allocator@_W@2@@std@@$4PPPPPPPM@A@EAAPEAXI@Z 0000000180025778 f i tile.obj
 0001:00024790       ??_E?$basic_stringbuf@_WU?$char_traits@_W@std@@V?$allocator@_W@2@@std@@UEAAPEAXI@Z 0000000180025790 f i tile.obj
 0001:00024790       ??_G?$basic_stringbuf@_WU?$char_traits@_W@std@@V?$allocator@_W@2@@std@@UEAAPEAXI@Z 0000000180025790 f i tile.obj
 0001:000247f0       ??_E?$basic_stringstream@_WU?$char_traits@_W@std@@V?$allocator@_W@2@@std@@UEAAPEAXI@Z 00000001800257f0 f i tile.obj
 0001:000247f0       ??_G?$basic_stringstream@_WU?$char_traits@_W@std@@V?$allocator@_W@2@@std@@UEAAPEAXI@Z 00000001800257f0 f i tile.obj
 0001:00024860       ?_Assign_rv@?$basic_string@_WU?$char_traits@_W@std@@V?$allocator@_W@2@@std@@QEAAX$$QEAV12@@Z 0000000180025860 f i tile.obj
 0001:000248f0       ?_Init@?$basic_stringbuf@_WU?$char_traits@_W@std@@V?$allocator@_W@2@@std@@IEAAXPEB_W_KH@Z 00000001800258f0 f i tile.obj
 0001:000249f0       ?_Reallocate@?$vector@MV?$allocator@M@std@@@std@@IEAAX_K@Z 00000001800259f0 f i tile.obj
 0001:00024a80       ?_Reallocate@?$vector@V?$basic_string@_WU?$char_traits@_W@std@@V?$allocator@_W@2@@std@@V?$allocator@V?$basic_string@_WU?$char_traits@_W@std@@V?$allocator@_W@2@@std@@@2@@std@@IEAAX_K@Z 0000000180025a80 f i tile.obj
 0001:00024b40       ?_Reallocate@?$vector@VTileRow@@V?$allocator@VTileRow@@@std@@@std@@IEAAX_K@Z 0000000180025b40 f i tile.obj
 0001:00024c00       ?_Tidy@?$basic_stringbuf@_WU?$char_traits@_W@std@@V?$allocator@_W@2@@std@@IEAAXXZ 0000000180025c00 f i tile.obj
 0001:00024c90       ?allocate@?$allocator@M@std@@QEAAPEAM_K@Z 0000000180025c90 f i tile.obj
 0001:00024d10       ?allocate@?$allocator@VTileRow@@@std@@QEAAPEAVTileRow@@_K@Z 0000000180025d10 f i tile.obj
 0001:00024d10       ?allocate@?$allocator@V?$basic_string@_WU?$char_traits@_W@std@@V?$allocator@_W@2@@std@@@std@@QEAAPEAV?$basic_string@_WU?$char_traits@_W@std@@V?$allocator@_W@2@@2@_K@Z 0000000180025d10 f i tile.obj
 0001:00024d90       ?corner@Tile@@CA?AVTilePoint@@MMMMAEAVTileParam@@@Z 0000000180025d90 f   tile.obj
 0001:00025090       ?draw@Tile@@SA?AVTilePoint@@VPoint3@@AEAVTileParam@@@Z 0000000180026090 f   tile.obj
 0001:000250e0       ?drawTile@Tile@@CA?AVTilePoint@@VPoint3@@QEAMAEAVTileParam@@HH@Z 00000001800260e0 f   tile.obj
 0001:000257a0       ?edgeBlur@Tile@@CAMMMH@Z   00000001800267a0 f   tile.obj
 0001:00025800       ?find_first_not_of@?$basic_string@_WU?$char_traits@_W@std@@V?$allocator@_W@2@@std@@QEBA_KAEBV12@_K@Z 0000000180026800 f i tile.obj
 0001:000258b0       ?find_first_of@?$basic_string@_WU?$char_traits@_W@std@@V?$allocator@_W@2@@std@@QEBA_KAEBV12@_K@Z 00000001800268b0 f i tile.obj
 0001:00025a50       ?overflow@?$basic_stringbuf@_WU?$char_traits@_W@std@@V?$allocator@_W@2@@std@@MEAAGG@Z 0000000180026a50 f i tile.obj
 0001:00026b40       ?pat_herring@Tile@@CA?AVTilePoint@@VPoint3@@AEAVTileParam@@@Z 0000000180027b40 f   tile.obj
 0001:00026d50       ?pat_xBond@Tile@@CA?AVTilePoint@@VPoint3@@AEAVTileParam@@@Z 0000000180027d50 f   tile.obj
 0001:00026f60       ?pbackfail@?$basic_stringbuf@_WU?$char_traits@_W@std@@V?$allocator@_W@2@@std@@MEAAGG@Z 0000000180027f60 f i tile.obj
 0001:00027350       ?seekoff@?$basic_stringbuf@_WU?$char_traits@_W@std@@V?$allocator@_W@2@@std@@MEAA?AV?$fpos@U_Mbstatet@@@2@_JHH@Z 0000000180028350 f i tile.obj
 0001:00027520       ?seekpos@?$basic_stringbuf@_WU?$char_traits@_W@std@@V?$allocator@_W@2@@std@@MEAA?AV?$fpos@U_Mbstatet@@@2@V32@H@Z 0000000180028520 f i tile.obj
 0001:00027650       ?setPattern@TilePattern@@QEAAXV?$basic_string@_WU?$char_traits@_W@std@@V?$allocator@_W@2@@std@@@Z 0000000180028650 f   tile.obj
 0001:00027700       ?setPreset@TilePattern@@QEAAXH@Z 0000000180028700 f   tile.obj
 0001:00027980       ?substr@?$basic_string@_WU?$char_traits@_W@std@@V?$allocator@_W@2@@std@@QEBA?AV12@_K0@Z 0000000180028980 f i tile.obj
 0001:00027c50       ?underflow@?$basic_stringbuf@_WU?$char_traits@_W@std@@V?$allocator@_W@2@@std@@MEAAGXZ 0000000180028c50 f i tile.obj
 0001:00027cc0       ?uvMapping@Tile@@CAXAEAVTilePoint@@VPoint3@@QEAMAEAVTileParam@@H@Z 0000000180028cc0 f   tile.obj
 0001:000280e0       ?add@Worley@@CAXJJJQEBNHPEANH@Z 00000001800290e0 f   worley.obj
 0001:00028500       ?noise@Worley@@SAXQEBNHPEANH@Z 0000000180029500 f   worley.obj
 0001:00028d10       ?smooth@@YAMM@Z            0000000180029d10 f   commonMath.obj
 0001:00028d30       ?smooth@@YAMMMM@Z          0000000180029d30 f   commonMath.obj
 0001:00028d70       ?GetRsrcString@ClassDesc@@UEAAPEB_W_J@Z 0000000180029d70 f   core:core.dll
 0001:00028d76       ?GetInterface@ClassDesc@@UEAAPEAVFPInterface@@PEB_W@Z 0000000180029d76 f   core:core.dll
 0001:00028d7c       ?GetInterface@ClassDesc@@UEAAPEAVFPInterface@@VInterface_ID@@@Z 0000000180029d7c f   core:core.dll
 0001:00028d82       ?AddInterface@ClassDesc@@UEAAXPEAVFPInterface@@@Z 0000000180029d82 f   core:core.dll
 0001:00028d88       ?AutoDelete@ReferenceTarget@@UEAA?AW4RefResult@@XZ 0000000180029d88 f   core:core.dll
 0001:00028d8e       ?BaseClone@MtlBase@@UEAAXPEAVReferenceTarget@@0AEAVRemapDir@@@Z 0000000180029d8e f   core:core.dll
 0001:00028d94       ?CreatePStamp@MtlBase@@UEAAPEAVPStamp@@HH@Z 0000000180029d94 f   core:core.dll
 0001:00028d9a       ?DeleteAllRefsToMe@ReferenceTarget@@UEAA?AW4RefResult@@XZ 0000000180029d9a f   core:core.dll
 0001:00028da0       ?DiffuseIllum@ShadeContext@@UEAA?AVColor@@XZ 0000000180029da0 f   core:core.dll
 0001:00028da6       ?DiscardPStamp@MtlBase@@UEAAXH@Z 0000000180029da6 f   core:core.dll
 0001:00028dac       ?DoEnumDependentsImpl@ReferenceTarget@@MEAAHPEAVDependentEnumProc@@@Z 0000000180029dac f   core:core.dll
 0001:00028db2       ?EnumAuxFiles@MtlBase@@UEAAXAEAVAssetEnumCallback@@K@Z 0000000180029db2 f   core:core.dll
 0001:00028db8       ?EvalEnvironMap@ShadeContext@@UEAA?AVAColor@@PEAVTexmap@@VPoint3@@@Z 0000000180029db8 f   core:core.dll
 0001:00028dbe       ?GetFullName@MtlBase@@UEAA?AVWStr@@XZ 0000000180029dbe f   core:core.dll
 0001:00028dc4       ?GetInterface@MtlBase@@UEAAPEAXK@Z 0000000180029dc4 f   core:core.dll
 0001:00028dca       ?GetPStamp@MtlBase@@UEAAPEAVPStamp@@H@Z 0000000180029dca f   core:core.dll
 0001:00028dd0       ?GetProperty@MtlBase@@UEAAPEAXK@Z 0000000180029dd0 f   core:core.dll
 0001:00028dd6       ?GetTimeRange@Animatable@@UEAA?AVInterval@@K@Z 0000000180029dd6 f   core:core.dll
 0001:00028ddc       ?GetVPDisplayDIB@Texmap@@UEAAPEAUtagBITMAPINFO@@HAEAVTexHandleMaker@@AEAVInterval@@HHH@Z 0000000180029ddc f   core:core.dll
 0001:00028de2       ?IsAnimated@Animatable@@UEAAHXZ 0000000180029de2 f   core:core.dll
 0001:00028de8       ?IsOutputMeaningful@Texmap@@UEAA_NAEAVShadeContext@@@Z 0000000180029de8 f   core:core.dll
 0001:00028dee       ?Load@MtlBase@@UEAA?AW4IOResult@@PEAVILoad@@@Z 0000000180029dee f   core:core.dll
 0001:00028df4       ?MapKeys@Animatable@@UEAAXPEAVTimeMap@@K@Z 0000000180029df4 f   core:core.dll
 0001:00028dfa       ?MouseCycleCompleted@Animatable@@UEAAXH@Z 0000000180029dfa f   core:core.dll
 0001:00028e00       ?MouseCycleStarted@Animatable@@UEAAXH@Z 0000000180029e00 f   core:core.dll
 0001:00028e06       ?NodeName@Animatable@@UEAA?AVWStr@@XZ 0000000180029e06 f   core:core.dll
 0001:00028e0c       ?NotifyDependents@ReferenceTarget@@UEAA?AW4RefResult@@AEBVInterval@@_KIKHPEAV1@W4NotifyDependentsOption@@@Z 0000000180029e0c f   core:core.dll
 0001:00028e12       ?RefAdded@Texmap@@UEAAXPEAVReferenceMaker@@@Z 0000000180029e12 f   core:core.dll
 0001:00028e18       ?ReleaseInterface@Animatable@@UEAAXKPEAX@Z 0000000180029e18 f   core:core.dll
 0001:00028e1e       ?RenderBitmap@Texmap@@UEAAXHPEAVBitmap@@MH@Z 0000000180029e1e f   core:core.dll
 0001:00028e24       ?Requirements@MtlBase@@UEAAKH@Z 0000000180029e24 f   core:core.dll
 0001:00028e2a       ?RescaleWorldUnits@ReferenceMaker@@UEAAXM@Z 0000000180029e2a f   core:core.dll
 0001:00028e30       ?Save@MtlBase@@UEAA?AW4IOResult@@PEAVISave@@@Z 0000000180029e30 f   core:core.dll
 0001:00028e36       ?SaveEnum@ReferenceMaker@@UEAAXAEAVSaveEnumProc@@H@Z 0000000180029e36 f   core:core.dll
 0001:00028e3c       ?SetProperty@MtlBase@@UEAAHKPEAX@Z 0000000180029e3c f   core:core.dll
 0001:00028e42       ?SpecifySaveReferences@ReferenceMaker@@UEAA_NAEAVReferenceSaveManager@@@Z 0000000180029e42 f   core:core.dll
 0001:00028e48       ?SubAnimCommitSetKeyBuffer@Animatable@@UEAAXHH@Z 0000000180029e48 f   core:core.dll
 0001:00028e4e       ?SubAnimRevertSetKeyBuffer@Animatable@@UEAAXH@Z 0000000180029e4e f   core:core.dll
 0001:00028e54       ?SubAnimSetKeyBufferPresent@Animatable@@UEAAHH@Z 0000000180029e54 f   core:core.dll
 0001:00028e5a       ?SvCanConcludeLink@Animatable@@UEAA_NPEAVIGraphObjectManager@@PEAVIGraphNode@@1@Z 0000000180029e5a f   core:core.dll
 0001:00028e60       ?SvCanDetach@Animatable@@UEAA_NPEAVIGraphObjectManager@@PEAVIGraphNode@@@Z 0000000180029e60 f   core:core.dll
 0001:00028e66       ?SvCanDetachRel@Animatable@@UEAA_NPEAVIGraphObjectManager@@PEAVIGraphNode@@H1@Z 0000000180029e66 f   core:core.dll
 0001:00028e6c       ?SvCanInitiateLink@Animatable@@UEAA_NPEAVIGraphObjectManager@@PEAVIGraphNode@@@Z 0000000180029e6c f   core:core.dll
 0001:00028e72       ?SvCanRemoveThis@Animatable@@UEAA_NPEAVIGraphObjectManager@@PEAVIGraphNode@@@Z 0000000180029e72 f   core:core.dll
 0001:00028e78       ?SvCanSelect@MtlBase@@UEAA_NPEAVIGraphObjectManager@@PEAVIGraphNode@@@Z 0000000180029e78 f   core:core.dll
 0001:00028e7e       ?SvCanSetName@MtlBase@@UEAA_NPEAVIGraphObjectManager@@PEAVIGraphNode@@@Z 0000000180029e7e f   core:core.dll
 0001:00028e84       ?SvDetach@Animatable@@UEAA_NPEAVIGraphObjectManager@@PEAVIGraphNode@@@Z 0000000180029e84 f   core:core.dll
 0001:00028e8a       ?SvDetachRel@Animatable@@UEAA_NPEAVIGraphObjectManager@@PEAVIGraphNode@@H1@Z 0000000180029e8a f   core:core.dll
 0001:00028e90       ?SvEditProperties@Animatable@@UEAA_NPEAVIGraphObjectManager@@PEAVIGraphNode@@@Z 0000000180029e90 f   core:core.dll
 0001:00028e96       ?SvGetMultiSelectCallback@MtlBase@@UEAAPEAVMultiSelectCallback@@PEAVIGraphObjectManager@@PEAVIGraphNode@@@Z 0000000180029e96 f   core:core.dll
 0001:00028e9c       ?SvGetName@MtlBase@@UEAA?AVWStr@@PEAVIGraphObjectManager@@PEAVIGraphNode@@_N@Z 0000000180029e9c f   core:core.dll
 0001:00028ea2       ?SvGetRefTip@Animatable@@UEAA?AVWStr@@PEAVIGraphObjectManager@@PEAVIGraphNode@@1@Z 0000000180029ea2 f   core:core.dll
 0001:00028ea8       ?SvGetRelTip@Animatable@@UEAA?AVWStr@@PEAVIGraphObjectManager@@PEAVIGraphNode@@H1@Z 0000000180029ea8 f   core:core.dll
 0001:00028eae       ?SvGetSwatchColor@Animatable@@UEAAKPEAVIGraphObjectManager@@PEAVIGraphNode@@@Z 0000000180029eae f   core:core.dll
 0001:00028eb4       ?SvGetTip@Animatable@@UEAA?AVWStr@@PEAVIGraphObjectManager@@PEAVIGraphNode@@@Z 0000000180029eb4 f   core:core.dll
 0001:00028eba       ?SvHandleDoubleClick@MtlBase@@UEAA_NPEAVIGraphObjectManager@@PEAVIGraphNode@@@Z 0000000180029eba f   core:core.dll
 0001:00028ec0       ?SvHandleRelDoubleClick@Animatable@@UEAA_NPEAVIGraphObjectManager@@PEAVIGraphNode@@H1@Z 0000000180029ec0 f   core:core.dll
 0001:00028ec6       ?SvHighlightColor@MtlBase@@UEAAKPEAVIGraphObjectManager@@PEAVIGraphNode@@@Z 0000000180029ec6 f   core:core.dll
 0001:00028ecc       ?SvIsHighlighted@Animatable@@UEAA_NPEAVIGraphObjectManager@@PEAVIGraphNode@@@Z 0000000180029ecc f   core:core.dll
 0001:00028ed2       ?SvIsInactive@Animatable@@UEAA_NPEAVIGraphObjectManager@@PEAVIGraphNode@@@Z 0000000180029ed2 f   core:core.dll
 0001:00028ed8       ?SvIsSelected@MtlBase@@UEAA_NPEAVIGraphObjectManager@@PEAVIGraphNode@@@Z 0000000180029ed8 f   core:core.dll
 0001:00028ede       ?SvLinkChild@Animatable@@UEAA_NPEAVIGraphObjectManager@@PEAVIGraphNode@@1@Z 0000000180029ede f   core:core.dll
 0001:00028ee4       ?SvRemoveThis@Animatable@@UEAA_NPEAVIGraphObjectManager@@PEAVIGraphNode@@@Z 0000000180029ee4 f   core:core.dll
 0001:00028eea       ?SvSetName@MtlBase@@UEAA_NPEAVIGraphObjectManager@@PEAVIGraphNode@@AEBVWStr@@@Z 0000000180029eea f   core:core.dll
 0001:00028ef0       ?SvTraverseAnimGraph@Texmap@@UEAA?AVSvGraphNodeReference@@PEAVIGraphObjectManager@@PEAVAnimatable@@HK@Z 0000000180029ef0 f   core:core.dll
 0001:00028ef6       ?VectorFromNoScale@ShadeContext@@UEAA?AVPoint3@@AEBV2@W4RefFrame@@@Z 0000000180029ef6 f   core:core.dll
 0001:00028efc       ?VectorToNoScale@ShadeContext@@UEAA?AVPoint3@@AEBV2@W4RefFrame@@@Z 0000000180029efc f   core:core.dll
 0001:00028f02       ??0OutOfRangeException@Util@MaxSDK@@QEAA@AEBV012@@Z 0000000180029f02 f   maxutil:maxutil.dll
 0001:00028f08       ?GetInterface@BaseInterfaceServer@@UEAAPEAVBaseInterface@@VInterface_ID@@@Z 0000000180029f08 f   maxutil:maxutil.dll
 0001:00028f0e       ?NumInterfaces@BaseInterfaceServer@@UEBAHXZ 0000000180029f0e f   maxutil:maxutil.dll
 0001:00028f14       ?GetInterfaceAt@BaseInterfaceServer@@UEBAPEAVBaseInterface@@H@Z 0000000180029f14 f   maxutil:maxutil.dll
 0001:00028f1a       ??0Exception@Util@MaxSDK@@QEAA@AEBV012@@Z 0000000180029f1a f   maxutil:maxutil.dll
 0001:00028f20       ?GetInterface@InterfaceServer@@UEAAPEAVBaseInterface@@VInterface_ID@@@Z 0000000180029f20 f   maxutil:maxutil.dll
 0001:00028f26       ?NumParamBlockDescs@ClassDesc2@@UEAAHXZ 0000000180029f26 f   Paramblk2:ParamBlk2.dll
 0001:00028f2c       ?GetParamBlockDesc@ClassDesc2@@UEAAPEAVParamBlockDesc2@@H@Z 0000000180029f2c f   Paramblk2:ParamBlk2.dll
 0001:00028f32       ?NumParamMaps@ClassDesc2@@UEAAHXZ 0000000180029f32 f   Paramblk2:ParamBlk2.dll
 0001:00028f38       ?GetParamMap@ClassDesc2@@UEAAPEAVIParamMap2@@H@Z 0000000180029f38 f   Paramblk2:ParamBlk2.dll
 0001:00028f3e       ?ResetClassParams@ClassDesc2@@UEAAXH@Z 0000000180029f3e f   Paramblk2:ParamBlk2.dll
 0001:00028f44       ?GetParamBlockDescByID@ClassDesc2@@UEAAPEAVParamBlockDesc2@@F@Z 0000000180029f44 f   Paramblk2:ParamBlk2.dll
 0001:00028f4a       ?AddParamBlockDesc@ClassDesc2@@UEAAXPEAVParamBlockDesc2@@@Z 0000000180029f4a f   Paramblk2:ParamBlk2.dll
 0001:00028f50       ?BeginEditParams@ClassDesc2@@UEAAXPEAVIObjParam@@PEAVReferenceMaker@@KPEAVAnimatable@@@Z 0000000180029f50 f   Paramblk2:ParamBlk2.dll
 0001:00028f56       ?EndEditParams@ClassDesc2@@UEAAXPEAVIObjParam@@PEAVReferenceMaker@@KPEAVAnimatable@@@Z 0000000180029f56 f   Paramblk2:ParamBlk2.dll
 0001:00028f5c       ?InvalidateUI@ClassDesc2@@UEAAXPEAVParamBlockDesc2@@@Z 0000000180029f5c f   Paramblk2:ParamBlk2.dll
 0001:00028f62       ?MakeAutoParamBlocks@ClassDesc2@@UEAAXPEAVReferenceMaker@@@Z 0000000180029f62 f   Paramblk2:ParamBlk2.dll
 0001:00028f68       ?_Lock@?$basic_streambuf@_WU?$char_traits@_W@std@@@std@@UEAAXXZ 0000000180029f68 f   msvcprt:MSVCP140.dll
 0001:00028f6e       ?_Unlock@?$basic_streambuf@_WU?$char_traits@_W@std@@@std@@UEAAXXZ 0000000180029f6e f   msvcprt:MSVCP140.dll
 0001:00028f74       ?imbue@?$basic_streambuf@_WU?$char_traits@_W@std@@@std@@MEAAXAEBVlocale@2@@Z 0000000180029f74 f   msvcprt:MSVCP140.dll
 0001:00028f7a       ?setbuf@?$basic_streambuf@_WU?$char_traits@_W@std@@@std@@MEAAPEAV12@PEA_W_J@Z 0000000180029f7a f   msvcprt:MSVCP140.dll
 0001:00028f80       ?showmanyc@?$basic_streambuf@_WU?$char_traits@_W@std@@@std@@MEAA_JXZ 0000000180029f80 f   msvcprt:MSVCP140.dll
 0001:00028f86       ?sync@?$basic_streambuf@_WU?$char_traits@_W@std@@@std@@MEAAHXZ 0000000180029f86 f   msvcprt:MSVCP140.dll
 0001:00028f8c       ?uflow@?$basic_streambuf@_WU?$char_traits@_W@std@@@std@@MEAAGXZ 0000000180029f8c f   msvcprt:MSVCP140.dll
 0001:00028f92       ?xsgetn@?$basic_streambuf@_WU?$char_traits@_W@std@@@std@@MEAA_JPEA_W_J@Z 0000000180029f92 f   msvcprt:MSVCP140.dll
 0001:00028f98       ?xsputn@?$basic_streambuf@_WU?$char_traits@_W@std@@@std@@MEAA_JPEB_W_J@Z 0000000180029f98 f   msvcprt:MSVCP140.dll
 0001:00028fa0       ??_Gtype_info@@UEAAPEAXI@Z 0000000180029fa0 f i MSVCRT:std_type_info_static.obj
 0001:00028fa0       ??_Etype_info@@UEAAPEAXI@Z 0000000180029fa0 f i MSVCRT:std_type_info_static.obj
 0001:00028fcc       __scrt_acquire_startup_lock 0000000180029fcc f   MSVCRT:utility.obj
 0001:00029008       __scrt_dllmain_after_initialize_c 000000018002a008 f   MSVCRT:utility.obj
 0001:0002903c       __scrt_dllmain_before_initialize_c 000000018002a03c f   MSVCRT:utility.obj
 0001:00029054       __scrt_dllmain_crt_thread_attach 000000018002a054 f   MSVCRT:utility.obj
 0001:0002907c       __scrt_dllmain_crt_thread_detach 000000018002a07c f   MSVCRT:utility.obj
 0001:00029094       __scrt_dllmain_exception_filter 000000018002a094 f   MSVCRT:utility.obj
 0001:000290f8       __scrt_dllmain_uninitialize_c 000000018002a0f8 f   MSVCRT:utility.obj
 0001:00029128       __scrt_dllmain_uninitialize_critical 000000018002a128 f   MSVCRT:utility.obj
 0001:0002913c       __scrt_initialize_crt      000000018002a13c f   MSVCRT:utility.obj
 0001:00029188       __scrt_initialize_onexit_tables 000000018002a188 f   MSVCRT:utility.obj
 0001:00029254       __scrt_is_nonwritable_in_current_image 000000018002a254 f   MSVCRT:utility.obj
 0001:000292f0       __scrt_release_startup_lock 000000018002a2f0 f   MSVCRT:utility.obj
 0001:00029314       __scrt_uninitialize_crt    000000018002a314 f   MSVCRT:utility.obj
 0001:00029340       _onexit                    000000018002a340 f   MSVCRT:utility.obj
 0001:00029390       atexit                     000000018002a390 f   MSVCRT:utility.obj
 0001:000293a8       ??2@YAPEAX_K@Z             000000018002a3a8 f   MSVCRT:new_scalar.obj
 0001:000293e4       ??_V@YAXPEAX@Z             000000018002a3e4 f   MSVCRT:delete_array.obj
 0001:000293e4       ??3@YAXPEAX_K@Z            000000018002a3e4 f   MSVCRT:delete_scalar_size.obj
 0001:000293ec       ??3@YAXPEAX@Z              000000018002a3ec f   MSVCRT:delete_scalar.obj
 0001:00029410       _alloca_probe              000000018002a410 f   MSVCRT:_chkstk_.obj
 0001:00029410       __chkstk                   000000018002a410 f   MSVCRT:_chkstk_.obj
 0001:00029464       ??_U@YAPEAX_K@Z            000000018002a464 f   MSVCRT:new_array.obj
 0001:000297b8       _DllMainCRTStartup         000000018002a7b8 f   MSVCRT:dll_dllmain.obj
 0001:000297f8       __isa_available_init       000000018002a7f8 f   MSVCRT:_cpu_disp_.obj
 0001:000299c0       __scrt_is_ucrt_dll_in_use  000000018002a9c0 f   MSVCRT:ucrt_detection.obj
 0001:000299cc       __scrt_fastfail            000000018002a9cc f   MSVCRT:utility_desktop.obj
 0001:00029b14       _guard_check_icall         000000018002ab14 f i MSVCRT:checkcfg.obj
 0001:00029b1c       ??0bad_alloc@std@@QEAA@AEBV01@@Z 000000018002ab1c f i MSVCRT:throw_bad_alloc.obj
 0001:00029b5c       ??0bad_alloc@std@@QEAA@XZ  000000018002ab5c f i MSVCRT:throw_bad_alloc.obj
 0001:00029b7c       ??0bad_array_new_length@std@@QEAA@AEBV01@@Z 000000018002ab7c f i MSVCRT:throw_bad_alloc.obj
 0001:00029bbc       ??0bad_array_new_length@std@@QEAA@XZ 000000018002abbc f i MSVCRT:throw_bad_alloc.obj
 0001:00029bdc       ??0exception@std@@QEAA@AEBV01@@Z 000000018002abdc f i MSVCRT:throw_bad_alloc.obj
 0001:00029c14       ??1bad_alloc@std@@UEAA@XZ  000000018002ac14 f i MSVCRT:throw_bad_alloc.obj
 0001:00029c14       ??1bad_array_new_length@std@@UEAA@XZ 000000018002ac14 f i MSVCRT:throw_bad_alloc.obj
 0001:00029c28       ??_Ebad_array_new_length@std@@UEAAPEAXI@Z 000000018002ac28 f i MSVCRT:throw_bad_alloc.obj
 0001:00029c28       ??_Gbad_alloc@std@@UEAAPEAXI@Z 000000018002ac28 f i MSVCRT:throw_bad_alloc.obj
 0001:00029c28       ??_Ebad_alloc@std@@UEAAPEAXI@Z 000000018002ac28 f i MSVCRT:throw_bad_alloc.obj
 0001:00029c28       ??_Gbad_array_new_length@std@@UEAAPEAXI@Z 000000018002ac28 f i MSVCRT:throw_bad_alloc.obj
 0001:00029c28       ??_Eexception@std@@UEAAPEAXI@Z 000000018002ac28 f i MSVCRT:throw_bad_alloc.obj
 0001:00029c28       ??_Gexception@std@@UEAAPEAXI@Z 000000018002ac28 f i MSVCRT:throw_bad_alloc.obj
 0001:00029c6c       ?__scrt_throw_std_bad_alloc@@YAXXZ 000000018002ac6c f   MSVCRT:throw_bad_alloc.obj
 0001:00029c8c       ?__scrt_throw_std_bad_array_new_length@@YAXXZ 000000018002ac8c f   MSVCRT:throw_bad_alloc.obj
 0001:00029cac       ?what@exception@std@@UEBAPEBDXZ 000000018002acac f i MSVCRT:throw_bad_alloc.obj
 0001:00029cc0       __security_init_cookie     000000018002acc0 f   MSVCRT:gs_support.obj
 0001:00029d6c       ?__scrt_initialize_type_info@@YAXXZ 000000018002ad6c f   MSVCRT:tncleanup.obj
 0001:00029d7c       ?__scrt_uninitialize_type_info@@YAXXZ 000000018002ad7c f   MSVCRT:tncleanup.obj
 0001:00029d88       __local_stdio_printf_options 000000018002ad88 f i MSVCRT:default_local_stdio_options.obj
 0001:00029d90       __local_stdio_scanf_options 000000018002ad90 f i MSVCRT:default_local_stdio_options.obj
 0001:00029d98       __scrt_initialize_default_local_stdio_options 000000018002ad98 f   MSVCRT:default_local_stdio_options.obj
 0001:00029db4       __scrt_get_dyn_tls_init_callback 000000018002adb4 f   MSVCRT:dyn_tls_init.obj
 0001:00029dbc       _RTC_Initialize            000000018002adbc f   MSVCRT:_initsect_.obj
 0001:00029e08       _RTC_Terminate             000000018002ae08 f   MSVCRT:_initsect_.obj
 0001:00029e60       _guard_check_icall_nop     000000018002ae60 f i MSVCRT:guard_support.obj
 0001:00029e60       ?PutCache@ShadeContext@@UEAAXPEAVTexmap@@AEBVPoint3@@@Z 000000018002ae60 f i BerconDistortion.obj
 0001:00029e60       ?AdjustTangents@Animatable@@UEAAXVTrackHitRecord@@PEAVParamDimensionBase@@AEAVBox2@@MHMHHHK@Z 000000018002ae60 f i BerconDistortion.obj
 0001:00029e60       ?DP@ShadeContext@@UEAAXAEAVPoint3@@0@Z 000000018002ae60 f i BerconDistortion.obj
 0001:00029e60       ?ResetCallback@ResourceMakerCallback@@UEAAXHPEAVICurveCtl@@@Z 000000018002ae60 f i BerconGradient.obj
 0001:00029e60       ?BeginEditParams@Animatable@@UEAAXPEAVIObjParam@@KPEAV1@@Z 000000018002ae60 f i BerconDistortion.obj
 0001:00029e60       ?SetOutputLevel@Texmap@@UEAAXHM@Z 000000018002ae60 f i BerconDistortion.obj
 0001:00029e60       ?Enable@IGradient@@UEAAXH@Z 000000018002ae60 f i BerconGradient.obj
 0001:00029e60       ?RefDeletedUndoRedo@ReferenceTarget@@UEAAXXZ 000000018002ae60 f i BerconDistortion.obj
 0001:00029e60       ?SetThing@ParamMap2UserDlgProc@@UEAAXPEAVReferenceTarget@@@Z 000000018002ae60 f i BerconDistortion.obj
 0001:00029e60       ?FreeCaches@Animatable@@UEAAXXZ 000000018002ae60 f i BerconDistortion.obj
 0001:00029e60       ??3@YAXPEAX0@Z             000000018002ae60 f i tile.obj
 0001:00029e60       ?SelectKeys@Animatable@@UEAAXAEAV?$Tab@VTrackHitRecord@@@@K@Z 000000018002ae60 f i BerconDistortion.obj
 0001:00029e60       ?NewCurveCreatedCallback@ResourceMakerCallback@@UEAAXHPEAVICurveCtl@@@Z 000000018002ae60 f i BerconGradient.obj
 0001:00029e60       ?EditClassParams@ClassDesc@@UEAAXPEAUHWND__@@@Z 000000018002ae60 f i BerconDistortion.obj
 0001:00029e60       ?DeleteSubAnim@Animatable@@UEAAXH@Z 000000018002ae60 f i BerconDistortion.obj
 0001:00029e60       ?SetSelKeyCoords@Animatable@@UEAAXHMK@Z 000000018002ae60 f i BerconDistortion.obj
 0001:00029e60       ?LocalMappingsRequired@MtlBase@@UEAAXHAEAVBitArray@@0@Z 000000018002ae60 f i BerconDistortion.obj
 0001:00029e60       ?SelectCurve@Animatable@@UEAAXH@Z 000000018002ae60 f i BerconDistortion.obj
 0001:00029e60       ?SetupGfxMultiMaps@MtlBase@@UEAAXHPEAVMaterial@@AEAVMtlMakerCallback@@@Z 000000018002ae60 f i BerconDistortion.obj
 0001:00029e60       ?SelectKeyByIndex@Animatable@@UEAAXHH@Z 000000018002ae60 f i BerconDistortion.obj
 0001:00029e60       ?SelectSubKeys@Animatable@@UEAAXHAEAV?$Tab@VTrackHitRecord@@@@K@Z 000000018002ae60 f i BerconDistortion.obj
 0001:00029e60       ?SetTooltip@IGradient@@UEAAX_NPEB_W@Z 000000018002ae60 f i BerconGradient.obj
 0001:00029e60       ?__global_delete@@YAXPEAX_K@Z 000000018002ae60 f i BerconDistortion.obj
 0001:00029e60       ?SelectSubCurve@Animatable@@UEAAXHH@Z 000000018002ae60 f i BerconDistortion.obj
 0001:00029e60       ?EndEditParams@Animatable@@UEAAXPEAVIObjParam@@KPEAV1@@Z 000000018002ae60 f i BerconDistortion.obj
 0001:00029e60       ?CopyKeysFromTime@Animatable@@UEAAXHHK@Z 000000018002ae60 f i BerconDistortion.obj
 0001:00029e60       ?FlagKey@Animatable@@UEAAXVTrackHitRecord@@@Z 000000018002ae60 f i BerconDistortion.obj
 0001:00029e60       ?CommitSetKeyBuffer@Animatable@@UEAAXH@Z 000000018002ae60 f i BerconDistortion.obj
 0001:00029e60       ?DeleteKeys@Animatable@@UEAAXK@Z 000000018002ae60 f i BerconDistortion.obj
 0001:00029e60       ?ScaleTime@Animatable@@UEAAXVInterval@@M@Z 000000018002ae60 f i BerconDistortion.obj
 0001:00029e60       ?DeleteKeyAtTime@Animatable@@UEAAXH@Z 000000018002ae60 f i BerconDistortion.obj
 0001:00029e60       ?SetIOR@ShadeContext@@UEAAXM@Z 000000018002ae60 f i BerconDistortion.obj
 0001:00029e60       ?IntersectRay@RenderGlobalContext@@UEAAXPEAVRenderInstance@@AEAVRay@@AEAUISect@@AEAVISectList@@H@Z 000000018002ae60 f i BerconDistortion.obj
 0001:00029e60       ?MoveKeys@Animatable@@UEAAXPEAVParamDimensionBase@@MK@Z 000000018002ae60 f i BerconDistortion.obj
 0001:00029e60       ?AddNewKey@Animatable@@UEAAXHK@Z 000000018002ae60 f i BerconDistortion.obj
 0001:00029e60       ?ScaleKeyValues@Animatable@@UEAAXPEAVParamDimensionBase@@MMK@Z 000000018002ae60 f i BerconDistortion.obj
 0001:00029e60       ?EditTimeRange@Animatable@@UEAAXVInterval@@K@Z 000000018002ae60 f i BerconDistortion.obj
 0001:00029e60       ?GetSystemNodes@Animatable@@UEAAXAEAVINodeTab@@W4SysNodeContext@@@Z 000000018002ae60 f i BerconDistortion.obj
 0001:00029e60       ?AdjustTangents@Animatable@@UEAAXVTrackHitRecord@@PEAVParamDimensionBase@@MMK@Z 000000018002ae60 f i BerconDistortion.obj
 0001:00029e60       ?__empty_global_delete@@YAXPEAX_K@Z 000000018002ae60 f i BerconDistortion.obj
 0001:00029e60       ?DeleteKeyByIndex@Animatable@@UEAAXH@Z 000000018002ae60 f i BerconDistortion.obj
 0001:00029e60       ?Enable2@IGradient@@UEAAXH@Z 000000018002ae60 f i BerconGradient.obj
 0001:00029e60       ?SetParamBlock@ParamMap2UserDlgProc@@UEAAXPEAVIParamBlock2@@@Z 000000018002ae60 f i BerconDistortion.obj
 0001:00029e60       ?DeleteTime@Animatable@@UEAAXVInterval@@K@Z 000000018002ae60 f i BerconDistortion.obj
 0001:00029e60       ?PasteSubTrack@Animatable@@UEAAXHPEAVTrackClipObject@@VInterval@@K@Z 000000018002ae60 f i BerconDistortion.obj
 0001:00029e60       ?RefAddedUndoRedo@ReferenceTarget@@UEAAXPEAVReferenceMaker@@@Z 000000018002ae60 f i BerconDistortion.obj
 0001:00029e60       ?NotifyTarget@ReferenceTarget@@UEAAXHPEAVReferenceMaker@@@Z 000000018002ae60 f i BerconDistortion.obj
 0001:00029e60       ?InsertTime@Animatable@@UEAAXHH@Z 000000018002ae60 f i BerconDistortion.obj
 0001:00029e60       ?SetNormal@ShadeContext@@UEAAXVPoint3@@@Z 000000018002ae60 f i BerconDistortion.obj
 0001:00029e60       ?PutCache@ShadeContext@@UEAAXPEAVTexmap@@M@Z 000000018002ae60 f i BerconDistortion.obj
 0001:00029e60       ?PasteTrack@Animatable@@UEAAXPEAVTrackClipObject@@VInterval@@K@Z 000000018002ae60 f i BerconDistortion.obj
 0001:00029e60       ?Disable@IGradient@@UEAAXXZ 000000018002ae60 f i BerconGradient.obj
 0001:00029e60       ?ReverseTime@Animatable@@UEAAXVInterval@@K@Z 000000018002ae60 f i BerconDistortion.obj
 0001:00029e60       ?RefDeleted@ReferenceTarget@@UEAAXXZ 000000018002ae60 f i BerconDistortion.obj
 0001:00029e60       ?EditTrackParams@Animatable@@UEAAXHPEAVParamDimensionBase@@PEB_WPEAUHWND__@@PEAVIObjParam@@K@Z 000000018002ae60 f i BerconDistortion.obj
 0001:00029e60       ?RevertSetKeyBuffer@Animatable@@UEAAXXZ 000000018002ae60 f i BerconDistortion.obj
 0001:00029e60       ?PutCache@ShadeContext@@UEAAXPEAVTexmap@@AEBVAColor@@@Z 000000018002ae60 f i BerconDistortion.obj
 0001:00029e60       ?CloneSelectedKeys@Animatable@@UEAAXH@Z 000000018002ae60 f i BerconDistortion.obj
 0001:00029e60       ?FreeAllBitmaps@Animatable@@UEAAXXZ 000000018002ae60 f i BerconDistortion.obj
 0001:00029e60       ?Update@ParamMap2UserDlgProc@@UEAAXH@Z 000000018002ae60 f i BerconDistortion.obj
 0001:00029e60       ?TossCache@ShadeContext@@UEAAXPEAVTexmap@@@Z 000000018002ae60 f i BerconDistortion.obj
 0001:00029e70       _purecall                  000000018002ae70 f   vcruntime:VCRUNTIME140.dll
 0001:00029e76       _CxxThrowException         000000018002ae76 f   vcruntime:VCRUNTIME140.dll
 0001:00029e7c       __CxxFrameHandler3         000000018002ae7c f   vcruntime:VCRUNTIME140.dll
 0001:00029e82       memcpy                     000000018002ae82 f   vcruntime:VCRUNTIME140.dll
 0001:00029e88       __C_specific_handler       000000018002ae88 f   vcruntime:VCRUNTIME140.dll
 0001:00029e8e       memset                     000000018002ae8e f   vcruntime:VCRUNTIME140.dll
 0001:00029e94       __std_exception_copy       000000018002ae94 f   vcruntime:VCRUNTIME140.dll
 0001:00029e9a       __std_exception_destroy    000000018002ae9a f   vcruntime:VCRUNTIME140.dll
 0001:00029ea0       __std_type_info_destroy_list 000000018002aea0 f   vcruntime:VCRUNTIME140.dll
 0001:00029ea6       acosf                      000000018002aea6 f   ucrt:api-ms-win-crt-math-l1-1-0.dll
 0001:00029eac       sqrtf                      000000018002aeac f   ucrt:api-ms-win-crt-math-l1-1-0.dll
 0001:00029eb2       floorf                     000000018002aeb2 f   ucrt:api-ms-win-crt-math-l1-1-0.dll
 0001:00029eb8       powf                       000000018002aeb8 f   ucrt:api-ms-win-crt-math-l1-1-0.dll
 0001:00029ebe       cosf                       000000018002aebe f   ucrt:api-ms-win-crt-math-l1-1-0.dll
 0001:00029ec4       sinf                       000000018002aec4 f   ucrt:api-ms-win-crt-math-l1-1-0.dll
 0001:00029eca       fmodf                      000000018002aeca f   ucrt:api-ms-win-crt-math-l1-1-0.dll
 0001:00029ed0       sqrt                       000000018002aed0 f   ucrt:api-ms-win-crt-math-l1-1-0.dll
 0001:00029ed6       _seh_filter_dll            000000018002aed6 f   ucrt:api-ms-win-crt-runtime-l1-1-0.dll
 0001:00029edc       _configure_narrow_argv     000000018002aedc f   ucrt:api-ms-win-crt-runtime-l1-1-0.dll
 0001:00029ee2       _initialize_narrow_environment 000000018002aee2 f   ucrt:api-ms-win-crt-runtime-l1-1-0.dll
 0001:00029ee8       _initialize_onexit_table   000000018002aee8 f   ucrt:api-ms-win-crt-runtime-l1-1-0.dll
 0001:00029eee       _register_onexit_function  000000018002aeee f   ucrt:api-ms-win-crt-runtime-l1-1-0.dll
 0001:00029ef4       _execute_onexit_table      000000018002aef4 f   ucrt:api-ms-win-crt-runtime-l1-1-0.dll
 0001:00029efa       _crt_atexit                000000018002aefa f   ucrt:api-ms-win-crt-runtime-l1-1-0.dll
 0001:00029f00       _cexit                     000000018002af00 f   ucrt:api-ms-win-crt-runtime-l1-1-0.dll
 0001:00029f06       _callnewh                  000000018002af06 f   ucrt:api-ms-win-crt-heap-l1-1-0.dll
 0001:00029f0c       malloc                     000000018002af0c f   ucrt:api-ms-win-crt-heap-l1-1-0.dll
 0001:00029f12       free                       000000018002af12 f   ucrt:api-ms-win-crt-heap-l1-1-0.dll
 0001:00029f18       _initterm                  000000018002af18 f   ucrt:api-ms-win-crt-runtime-l1-1-0.dll
 0001:00029f1e       _initterm_e                000000018002af1e f   ucrt:api-ms-win-crt-runtime-l1-1-0.dll
 0001:00029f24       IsProcessorFeaturePresent  000000018002af24 f   kernel32:KERNEL32.dll
 0001:00029f30       __vcrt_initialize          000000018002af30 f   MSVCRT:ucrt_stubs.obj
 0001:00029f30       ?IsParamBlockDesc2Used@Animatable@@UEAA_NPEAVParamBlockDesc2@@@Z 000000018002af30 f   BerconDistortion.obj
 0001:00029f30       __acrt_uninitialize_critical 000000018002af30 f   MSVCRT:ucrt_stubs.obj
 0001:00029f30       __vcrt_thread_detach       000000018002af30 f   MSVCRT:ucrt_stubs.obj
 0001:00029f30       __scrt_stub_for_acrt_initialize 000000018002af30 f   MSVCRT:ucrt_stubs.obj
 0001:00029f30       __scrt_stub_for_acrt_uninitialize 000000018002af30 f   MSVCRT:ucrt_stubs.obj
 0001:00029f30       __scrt_stub_for_acrt_thread_attach 000000018002af30 f   MSVCRT:ucrt_stubs.obj
 0001:00029f30       __acrt_initialize          000000018002af30 f   MSVCRT:ucrt_stubs.obj
 0001:00029f30       __acrt_uninitialize        000000018002af30 f   MSVCRT:ucrt_stubs.obj
 0001:00029f30       __acrt_thread_attach       000000018002af30 f   MSVCRT:ucrt_stubs.obj
 0001:00029f30       __scrt_stub_for_acrt_thread_detach 000000018002af30 f   MSVCRT:ucrt_stubs.obj
 0001:00029f30       __vcrt_thread_attach       000000018002af30 f   MSVCRT:ucrt_stubs.obj
 0001:00029f30       __vcrt_uninitialize_critical 000000018002af30 f   MSVCRT:ucrt_stubs.obj
 0001:00029f30       __vcrt_uninitialize        000000018002af30 f   MSVCRT:ucrt_stubs.obj
 0001:00029f30       __scrt_stub_for_acrt_uninitialize_critical 000000018002af30 f   MSVCRT:ucrt_stubs.obj
 0001:00029f30       __acrt_thread_detach       000000018002af30 f   MSVCRT:ucrt_stubs.obj
 0001:00029f50       _guard_dispatch_icall_nop  000000018002af50 f   MSVCRT:_guard_dispatch_.obj
 0002:00000000       __imp_DeleteObject         000000018002c000     gdi32:GDI32.dll
 0002:00000008       __imp_GetStockObject       000000018002c008     gdi32:GDI32.dll
 0002:00000010       __imp_SetPixel             000000018002c010     gdi32:GDI32.dll
 0002:00000018       __imp_SelectObject         000000018002c018     gdi32:GDI32.dll
 0002:00000020       __imp_DeleteDC             000000018002c020     gdi32:GDI32.dll
 0002:00000028       __imp_CreateSolidBrush     000000018002c028     gdi32:GDI32.dll
 0002:00000030       __imp_CreateCompatibleDC   000000018002c030     gdi32:GDI32.dll
 0002:00000038       __imp_CreateCompatibleBitmap 000000018002c038     gdi32:GDI32.dll
 0002:00000040       __imp_BitBlt               000000018002c040     gdi32:GDI32.dll
 0002:00000048       \177GDI32_NULL_THUNK_DATA  000000018002c048     gdi32:GDI32.dll
 0002:00000050       __imp_IsDebuggerPresent    000000018002c050     kernel32:KERNEL32.dll
 0002:00000058       __imp_RtlVirtualUnwind     000000018002c058     kernel32:KERNEL32.dll
 0002:00000060       __imp_RtlLookupFunctionEntry 000000018002c060     kernel32:KERNEL32.dll
 0002:00000068       __imp_RtlCaptureContext    000000018002c068     kernel32:KERNEL32.dll
 0002:00000070       __imp_OutputDebugStringA   000000018002c070     kernel32:KERNEL32.dll
 0002:00000078       __imp_GetLastError         000000018002c078     kernel32:KERNEL32.dll
 0002:00000080       __imp_SetLastError         000000018002c080     kernel32:KERNEL32.dll
 0002:00000088       __imp_DisableThreadLibraryCalls 000000018002c088     kernel32:KERNEL32.dll
 0002:00000090       __imp_GetModuleFileNameW   000000018002c090     kernel32:KERNEL32.dll
 0002:00000098       __imp_UnhandledExceptionFilter 000000018002c098     kernel32:KERNEL32.dll
 0002:000000a0       __imp_GetProcAddress       000000018002c0a0     kernel32:KERNEL32.dll
 0002:000000a8       __imp_LoadLibraryW         000000018002c0a8     kernel32:KERNEL32.dll
 0002:000000b0       __imp_CreateActCtxW        000000018002c0b0     kernel32:KERNEL32.dll
 0002:000000b8       __imp_ActivateActCtx       000000018002c0b8     kernel32:KERNEL32.dll
 0002:000000c0       __imp_DeactivateActCtx     000000018002c0c0     kernel32:KERNEL32.dll
 0002:000000c8       __imp_FindActCtxSectionStringW 000000018002c0c8     kernel32:KERNEL32.dll
 0002:000000d0       __imp_QueryActCtxW         000000018002c0d0     kernel32:KERNEL32.dll
 0002:000000d8       __imp_TlsGetValue          000000018002c0d8     kernel32:KERNEL32.dll
 0002:000000e0       __imp_SetUnhandledExceptionFilter 000000018002c0e0     kernel32:KERNEL32.dll
 0002:000000e8       __imp_IsProcessorFeaturePresent 000000018002c0e8     kernel32:KERNEL32.dll
 0002:000000f0       __imp_QueryPerformanceCounter 000000018002c0f0     kernel32:KERNEL32.dll
 0002:000000f8       __imp_InitializeSListHead  000000018002c0f8     kernel32:KERNEL32.dll
 0002:00000100       __imp_GetCurrentProcessId  000000018002c100     kernel32:KERNEL32.dll
 0002:00000108       __imp_GetCurrentThreadId   000000018002c108     kernel32:KERNEL32.dll
 0002:00000110       __imp_GetSystemTimeAsFileTime 000000018002c110     kernel32:KERNEL32.dll
 0002:00000118       __imp_GetModuleHandleExW   000000018002c118     kernel32:KERNEL32.dll
 0002:00000120       \177KERNEL32_NULL_THUNK_DATA 000000018002c120     kernel32:KERNEL32.dll
 0002:00000128       __imp_?macroRecorder@@3PEAVMacroRecorder@@EA 000000018002c128     Maxscrpt:MAXScrpt.dll
 0002:00000130       __imp_?thread_locals_index@@3HA 000000018002c130     Maxscrpt:MAXScrpt.dll
 0002:00000138       \177MAXScrpt_NULL_THUNK_DATA 000000018002c138     Maxscrpt:MAXScrpt.dll
 0002:00000140       __imp_??1ios_base@std@@UEAA@XZ 000000018002c140     msvcprt:MSVCP140.dll
 0002:00000148       __imp_?_Ios_base_dtor@ios_base@std@@CAXPEAV12@@Z 000000018002c148     msvcprt:MSVCP140.dll
 0002:00000150       __imp_??0?$basic_streambuf@_WU?$char_traits@_W@std@@@std@@IEAA@XZ 000000018002c150     msvcprt:MSVCP140.dll
 0002:00000158       __imp_??1?$basic_streambuf@_WU?$char_traits@_W@std@@@std@@UEAA@XZ 000000018002c158     msvcprt:MSVCP140.dll
 0002:00000160       __imp_?_Pninc@?$basic_streambuf@_WU?$char_traits@_W@std@@@std@@IEAAPEA_WXZ 000000018002c160     msvcprt:MSVCP140.dll
 0002:00000168       __imp_??1?$basic_ios@_WU?$char_traits@_W@std@@@std@@UEAA@XZ 000000018002c168     msvcprt:MSVCP140.dll
 0002:00000170       __imp_??0?$basic_ios@_WU?$char_traits@_W@std@@@std@@IEAA@XZ 000000018002c170     msvcprt:MSVCP140.dll
 0002:00000178       __imp_??5?$basic_istream@_WU?$char_traits@_W@std@@@std@@QEAAAEAV01@AEAN@Z 000000018002c178     msvcprt:MSVCP140.dll
 0002:00000180       __imp_??0?$basic_iostream@_WU?$char_traits@_W@std@@@std@@QEAA@PEAV?$basic_streambuf@_WU?$char_traits@_W@std@@@1@@Z 000000018002c180     msvcprt:MSVCP140.dll
 0002:00000188       __imp_??1?$basic_iostream@_WU?$char_traits@_W@std@@@std@@UEAA@XZ 000000018002c188     msvcprt:MSVCP140.dll
 0002:00000190       __imp_?_Lock@?$basic_streambuf@_WU?$char_traits@_W@std@@@std@@UEAAXXZ 000000018002c190     msvcprt:MSVCP140.dll
 0002:00000198       __imp_?_Xout_of_range@std@@YAXPEBD@Z 000000018002c198     msvcprt:MSVCP140.dll
 0002:000001a0       __imp_?imbue@?$basic_streambuf@_WU?$char_traits@_W@std@@@std@@MEAAXAEBVlocale@2@@Z 000000018002c1a0     msvcprt:MSVCP140.dll
 0002:000001a8       __imp_?setbuf@?$basic_streambuf@_WU?$char_traits@_W@std@@@std@@MEAAPEAV12@PEA_W_J@Z 000000018002c1a8     msvcprt:MSVCP140.dll
 0002:000001b0       __imp_?showmanyc@?$basic_streambuf@_WU?$char_traits@_W@std@@@std@@MEAA_JXZ 000000018002c1b0     msvcprt:MSVCP140.dll
 0002:000001b8       __imp_?sync@?$basic_streambuf@_WU?$char_traits@_W@std@@@std@@MEAAHXZ 000000018002c1b8     msvcprt:MSVCP140.dll
 0002:000001c0       __imp_?uflow@?$basic_streambuf@_WU?$char_traits@_W@std@@@std@@MEAAGXZ 000000018002c1c0     msvcprt:MSVCP140.dll
 0002:000001c8       __imp_?xsgetn@?$basic_streambuf@_WU?$char_traits@_W@std@@@std@@MEAA_JPEA_W_J@Z 000000018002c1c8     msvcprt:MSVCP140.dll
 0002:000001d0       __imp_?xsputn@?$basic_streambuf@_WU?$char_traits@_W@std@@@std@@MEAA_JPEB_W_J@Z 000000018002c1d0     msvcprt:MSVCP140.dll
 0002:000001d8       __imp_?_BADOFF@std@@3_JB   000000018002c1d8     msvcprt:MSVCP140.dll
 0002:000001e0       __imp_??_7ios_base@std@@6B@ 000000018002c1e0     msvcprt:MSVCP140.dll
 0002:000001e8       __imp_??_7?$basic_ios@_WU?$char_traits@_W@std@@@std@@6B@ 000000018002c1e8     msvcprt:MSVCP140.dll
 0002:000001f0       __imp_?_Xlength_error@std@@YAXPEBD@Z 000000018002c1f0     msvcprt:MSVCP140.dll
 0002:000001f8       __imp_?_Unlock@?$basic_streambuf@_WU?$char_traits@_W@std@@@std@@UEAAXXZ 000000018002c1f8     msvcprt:MSVCP140.dll
 0002:00000200       __imp_?_Xbad_alloc@std@@YAXXZ 000000018002c200     msvcprt:MSVCP140.dll
 0002:00000208       \177MSVCP140_NULL_THUNK_DATA 000000018002c208     msvcprt:MSVCP140.dll
 0002:00000210       __imp_??0ParamBlockDesc2@@QEAA@FPEB_W_JPEAVClassDesc2@@GZZ 000000018002c210     Paramblk2:ParamBlk2.dll
 0002:00000218       __imp_?CreateParamDlgs@ClassDesc2@@QEAAPEAVIAutoMParamDlg@@PEAUHWND__@@PEAVIMtlParams@@PEAVReferenceTarget@@@Z 000000018002c218     Paramblk2:ParamBlk2.dll
 0002:00000220       __imp_?SetUserDlgProc@ClassDesc2@@QEAA_NPEAVParamBlockDesc2@@FPEAVParamMap2UserDlgProc@@@Z 000000018002c220     Paramblk2:ParamBlk2.dll
 0002:00000228       __imp_?InvalidateUI@ClassDesc2@@QEAAXPEAVParamBlockDesc2@@FH@Z 000000018002c228     Paramblk2:ParamBlk2.dll
 0002:00000230       __imp_??1ClassDesc2@@UEAA@XZ 000000018002c230     Paramblk2:ParamBlk2.dll
 0002:00000238       __imp_??0ClassDesc2@@QEAA@XZ 000000018002c238     Paramblk2:ParamBlk2.dll
 0002:00000240       __imp_?MakeAutoParamBlocks@ClassDesc2@@UEAAXPEAVReferenceMaker@@@Z 000000018002c240     Paramblk2:ParamBlk2.dll
 0002:00000248       __imp_?InvalidateUI@ClassDesc2@@UEAAXPEAVParamBlockDesc2@@@Z 000000018002c248     Paramblk2:ParamBlk2.dll
 0002:00000250       __imp_?EndEditParams@ClassDesc2@@UEAAXPEAVIObjParam@@PEAVReferenceMaker@@KPEAVAnimatable@@@Z 000000018002c250     Paramblk2:ParamBlk2.dll
 0002:00000258       __imp_?BeginEditParams@ClassDesc2@@UEAAXPEAVIObjParam@@PEAVReferenceMaker@@KPEAVAnimatable@@@Z 000000018002c258     Paramblk2:ParamBlk2.dll
 0002:00000260       __imp_?AddParamBlockDesc@ClassDesc2@@UEAAXPEAVParamBlockDesc2@@@Z 000000018002c260     Paramblk2:ParamBlk2.dll
 0002:00000268       __imp_?GetParamBlockDescByID@ClassDesc2@@UEAAPEAVParamBlockDesc2@@F@Z 000000018002c268     Paramblk2:ParamBlk2.dll
 0002:00000270       __imp_?ResetClassParams@ClassDesc2@@UEAAXH@Z 000000018002c270     Paramblk2:ParamBlk2.dll
 0002:00000278       __imp_?GetParamMap@ClassDesc2@@UEAAPEAVIParamMap2@@H@Z 000000018002c278     Paramblk2:ParamBlk2.dll
 0002:00000280       __imp_?NumParamMaps@ClassDesc2@@UEAAHXZ 000000018002c280     Paramblk2:ParamBlk2.dll
 0002:00000288       __imp_?GetParamBlockDesc@ClassDesc2@@UEAAPEAVParamBlockDesc2@@H@Z 000000018002c288     Paramblk2:ParamBlk2.dll
 0002:00000290       __imp_?NumParamBlockDescs@ClassDesc2@@UEAAHXZ 000000018002c290     Paramblk2:ParamBlk2.dll
 0002:00000298       __imp_?SetUserDlgProc@ParamBlockDesc2@@QEAAXFPEAVParamMap2UserDlgProc@@@Z 000000018002c298     Paramblk2:ParamBlk2.dll
 0002:000002a0       __imp_??1ParamBlockDesc2@@UEAA@XZ 000000018002c2a0     Paramblk2:ParamBlk2.dll
 0002:000002a8       \177ParamBlk2_NULL_THUNK_DATA 000000018002c2a8     Paramblk2:ParamBlk2.dll
 0002:000002b0       __imp_BeginPaint           000000018002c2b0     user32:USER32.dll
 0002:000002b8       __imp_GetDlgItem           000000018002c2b8     user32:USER32.dll
 0002:000002c0       __imp_DestroyWindow        000000018002c2c0     user32:USER32.dll
 0002:000002c8       __imp_SetWindowLongPtrW    000000018002c2c8     user32:USER32.dll
 0002:000002d0       __imp_LoadStringW          000000018002c2d0     user32:USER32.dll
 0002:000002d8       __imp_InvalidateRect       000000018002c2d8     user32:USER32.dll
 0002:000002e0       __imp_GetWindowRect        000000018002c2e0     user32:USER32.dll
 0002:000002e8       __imp_FillRect             000000018002c2e8     user32:USER32.dll
 0002:000002f0       __imp_DefWindowProcW       000000018002c2f0     user32:USER32.dll
 0002:000002f8       __imp_RegisterClassExW     000000018002c2f8     user32:USER32.dll
 0002:00000300       __imp_GetKeyState          000000018002c300     user32:USER32.dll
 0002:00000308       __imp_LoadMenuW            000000018002c308     user32:USER32.dll
 0002:00000310       __imp_LoadCursorW          000000018002c310     user32:USER32.dll
 0002:00000318       __imp_GetWindowLongPtrW    000000018002c318     user32:USER32.dll
 0002:00000320       __imp_GetSubMenu           000000018002c320     user32:USER32.dll
 0002:00000328       __imp_SendMessageW         000000018002c328     user32:USER32.dll
 0002:00000330       __imp_TrackPopupMenuEx     000000018002c330     user32:USER32.dll
 0002:00000338       __imp_EndPaint             000000018002c338     user32:USER32.dll
 0002:00000340       __imp_GetCursorPos         000000018002c340     user32:USER32.dll
 0002:00000348       \177USER32_NULL_THUNK_DATA 000000018002c348     user32:USER32.dll
 0002:00000350       __imp___std_exception_destroy 000000018002c350     vcruntime:VCRUNTIME140.dll
 0002:00000358       __imp__purecall            000000018002c358     vcruntime:VCRUNTIME140.dll
 0002:00000360       __imp___std_exception_copy 000000018002c360     vcruntime:VCRUNTIME140.dll
 0002:00000368       __imp_memset               000000018002c368     vcruntime:VCRUNTIME140.dll
 0002:00000370       __imp__CxxThrowException   000000018002c370     vcruntime:VCRUNTIME140.dll
 0002:00000378       __imp___CxxFrameHandler3   000000018002c378     vcruntime:VCRUNTIME140.dll
 0002:00000380       __imp_memmove              000000018002c380     vcruntime:VCRUNTIME140.dll
 0002:00000388       __imp___C_specific_handler 000000018002c388     vcruntime:VCRUNTIME140.dll
 0002:00000390       __imp_memcpy               000000018002c390     vcruntime:VCRUNTIME140.dll
 0002:00000398       __imp___std_type_info_destroy_list 000000018002c398     vcruntime:VCRUNTIME140.dll
 0002:000003a0       \177VCRUNTIME140_NULL_THUNK_DATA 000000018002c3a0     vcruntime:VCRUNTIME140.dll
 0002:000003a8       __imp_free                 000000018002c3a8     ucrt:api-ms-win-crt-heap-l1-1-0.dll
 0002:000003b0       __imp_malloc               000000018002c3b0     ucrt:api-ms-win-crt-heap-l1-1-0.dll
 0002:000003b8       __imp__callnewh            000000018002c3b8     ucrt:api-ms-win-crt-heap-l1-1-0.dll
 0002:000003c0       \177api-ms-win-crt-heap-l1-1-0_NULL_THUNK_DATA 000000018002c3c0     ucrt:api-ms-win-crt-heap-l1-1-0.dll
 0002:000003c8       __imp_acosf                000000018002c3c8     ucrt:api-ms-win-crt-math-l1-1-0.dll
 0002:000003d0       __imp_sqrt                 000000018002c3d0     ucrt:api-ms-win-crt-math-l1-1-0.dll
 0002:000003d8       __imp_fmodf                000000018002c3d8     ucrt:api-ms-win-crt-math-l1-1-0.dll
 0002:000003e0       __imp_sinf                 000000018002c3e0     ucrt:api-ms-win-crt-math-l1-1-0.dll
 0002:000003e8       __imp_sqrtf                000000018002c3e8     ucrt:api-ms-win-crt-math-l1-1-0.dll
 0002:000003f0       __imp_fmaxf                000000018002c3f0     ucrt:api-ms-win-crt-math-l1-1-0.dll
 0002:000003f8       __imp_powf                 000000018002c3f8     ucrt:api-ms-win-crt-math-l1-1-0.dll
 0002:00000400       __imp_floorf               000000018002c400     ucrt:api-ms-win-crt-math-l1-1-0.dll
 0002:00000408       __imp_cosf                 000000018002c408     ucrt:api-ms-win-crt-math-l1-1-0.dll
 0002:00000410       \177api-ms-win-crt-math-l1-1-0_NULL_THUNK_DATA 000000018002c410     ucrt:api-ms-win-crt-math-l1-1-0.dll
 0002:00000418       __imp__seh_filter_dll      000000018002c418     ucrt:api-ms-win-crt-runtime-l1-1-0.dll
 0002:00000420       __imp__configure_narrow_argv 000000018002c420     ucrt:api-ms-win-crt-runtime-l1-1-0.dll
 0002:00000428       __imp__initialize_narrow_environment 000000018002c428     ucrt:api-ms-win-crt-runtime-l1-1-0.dll
 0002:00000430       __imp__initialize_onexit_table 000000018002c430     ucrt:api-ms-win-crt-runtime-l1-1-0.dll
 0002:00000438       __imp__register_onexit_function 000000018002c438     ucrt:api-ms-win-crt-runtime-l1-1-0.dll
 0002:00000440       __imp__execute_onexit_table 000000018002c440     ucrt:api-ms-win-crt-runtime-l1-1-0.dll
 0002:00000448       __imp__cexit               000000018002c448     ucrt:api-ms-win-crt-runtime-l1-1-0.dll
 0002:00000450       __imp__initterm            000000018002c450     ucrt:api-ms-win-crt-runtime-l1-1-0.dll
 0002:00000458       __imp__initterm_e          000000018002c458     ucrt:api-ms-win-crt-runtime-l1-1-0.dll
 0002:00000460       __imp__invalid_parameter_noinfo_noreturn 000000018002c460     ucrt:api-ms-win-crt-runtime-l1-1-0.dll
 0002:00000468       __imp__crt_atexit          000000018002c468     ucrt:api-ms-win-crt-runtime-l1-1-0.dll
 0002:00000470       \177api-ms-win-crt-runtime-l1-1-0_NULL_THUNK_DATA 000000018002c470     ucrt:api-ms-win-crt-runtime-l1-1-0.dll
 0002:00000478       __imp_rand                 000000018002c478     ucrt:api-ms-win-crt-utility-l1-1-0.dll
 0002:00000480       __imp_srand                000000018002c480     ucrt:api-ms-win-crt-utility-l1-1-0.dll
 0002:00000488       \177api-ms-win-crt-utility-l1-1-0_NULL_THUNK_DATA 000000018002c488     ucrt:api-ms-win-crt-utility-l1-1-0.dll
 0002:00000490       __imp_?SvHighlightColor@MtlBase@@UEAAKPEAVIGraphObjectManager@@PEAVIGraphNode@@@Z 000000018002c490     core:core.dll
 0002:00000498       __imp_?SvHandleRelDoubleClick@Animatable@@UEAA_NPEAVIGraphObjectManager@@PEAVIGraphNode@@H1@Z 000000018002c498     core:core.dll
 0002:000004a0       __imp_?SvHandleDoubleClick@MtlBase@@UEAA_NPEAVIGraphObjectManager@@PEAVIGraphNode@@@Z 000000018002c4a0     core:core.dll
 0002:000004a8       __imp_?SvGetTip@Animatable@@UEAA?AVWStr@@PEAVIGraphObjectManager@@PEAVIGraphNode@@@Z 000000018002c4a8     core:core.dll
 0002:000004b0       __imp_?SvGetSwatchColor@Animatable@@UEAAKPEAVIGraphObjectManager@@PEAVIGraphNode@@@Z 000000018002c4b0     core:core.dll
 0002:000004b8       __imp_?SvGetRelTip@Animatable@@UEAA?AVWStr@@PEAVIGraphObjectManager@@PEAVIGraphNode@@H1@Z 000000018002c4b8     core:core.dll
 0002:000004c0       __imp_?SvGetRefTip@Animatable@@UEAA?AVWStr@@PEAVIGraphObjectManager@@PEAVIGraphNode@@1@Z 000000018002c4c0     core:core.dll
 0002:000004c8       __imp_?SvGetName@MtlBase@@UEAA?AVWStr@@PEAVIGraphObjectManager@@PEAVIGraphNode@@_N@Z 000000018002c4c8     core:core.dll
 0002:000004d0       __imp_?SvGetMultiSelectCallback@MtlBase@@UEAAPEAVMultiSelectCallback@@PEAVIGraphObjectManager@@PEAVIGraphNode@@@Z 000000018002c4d0     core:core.dll
 0002:000004d8       __imp_?SvEditProperties@Animatable@@UEAA_NPEAVIGraphObjectManager@@PEAVIGraphNode@@@Z 000000018002c4d8     core:core.dll
 0002:000004e0       __imp_?SvDetachRel@Animatable@@UEAA_NPEAVIGraphObjectManager@@PEAVIGraphNode@@H1@Z 000000018002c4e0     core:core.dll
 0002:000004e8       __imp_?SvDetach@Animatable@@UEAA_NPEAVIGraphObjectManager@@PEAVIGraphNode@@@Z 000000018002c4e8     core:core.dll
 0002:000004f0       __imp_?SvCanSetName@MtlBase@@UEAA_NPEAVIGraphObjectManager@@PEAVIGraphNode@@@Z 000000018002c4f0     core:core.dll
 0002:000004f8       __imp_?SvIsHighlighted@Animatable@@UEAA_NPEAVIGraphObjectManager@@PEAVIGraphNode@@@Z 000000018002c4f8     core:core.dll
 0002:00000500       __imp_?SvCanRemoveThis@Animatable@@UEAA_NPEAVIGraphObjectManager@@PEAVIGraphNode@@@Z 000000018002c500     core:core.dll
 0002:00000508       __imp_?SvCanInitiateLink@Animatable@@UEAA_NPEAVIGraphObjectManager@@PEAVIGraphNode@@@Z 000000018002c508     core:core.dll
 0002:00000510       __imp_?SvCanDetachRel@Animatable@@UEAA_NPEAVIGraphObjectManager@@PEAVIGraphNode@@H1@Z 000000018002c510     core:core.dll
 0002:00000518       __imp_?SvCanDetach@Animatable@@UEAA_NPEAVIGraphObjectManager@@PEAVIGraphNode@@@Z 000000018002c518     core:core.dll
 0002:00000520       __imp_?SvCanConcludeLink@Animatable@@UEAA_NPEAVIGraphObjectManager@@PEAVIGraphNode@@1@Z 000000018002c520     core:core.dll
 0002:00000528       __imp_?SubAnimSetKeyBufferPresent@Animatable@@UEAAHH@Z 000000018002c528     core:core.dll
 0002:00000530       __imp_?SubAnimRevertSetKeyBuffer@Animatable@@UEAAXH@Z 000000018002c530     core:core.dll
 0002:00000538       __imp_?SvIsInactive@Animatable@@UEAA_NPEAVIGraphObjectManager@@PEAVIGraphNode@@@Z 000000018002c538     core:core.dll
 0002:00000540       __imp_?SvIsSelected@MtlBase@@UEAA_NPEAVIGraphObjectManager@@PEAVIGraphNode@@@Z 000000018002c540     core:core.dll
 0002:00000548       __imp_?SvLinkChild@Animatable@@UEAA_NPEAVIGraphObjectManager@@PEAVIGraphNode@@1@Z 000000018002c548     core:core.dll
 0002:00000550       __imp_?SvRemoveThis@Animatable@@UEAA_NPEAVIGraphObjectManager@@PEAVIGraphNode@@@Z 000000018002c550     core:core.dll
 0002:00000558       __imp_?SvSetName@MtlBase@@UEAA_NPEAVIGraphObjectManager@@PEAVIGraphNode@@AEBVWStr@@@Z 000000018002c558     core:core.dll
 0002:00000560       __imp_?SvTraverseAnimGraph@Texmap@@UEAA?AVSvGraphNodeReference@@PEAVIGraphObjectManager@@PEAVAnimatable@@HK@Z 000000018002c560     core:core.dll
 0002:00000568       __imp_?VectorFromNoScale@ShadeContext@@UEAA?AVPoint3@@AEBV2@W4RefFrame@@@Z 000000018002c568     core:core.dll
 0002:00000570       __imp_?VectorToNoScale@ShadeContext@@UEAA?AVPoint3@@AEBV2@W4RefFrame@@@Z 000000018002c570     core:core.dll
 0002:00000578       __imp_?defaultDim@@3PEAVParamDimension@@EA 000000018002c578     core:core.dll
 0002:00000580       __imp_?GetCOREInterface@@YAPEAVInterface@@XZ 000000018002c580     core:core.dll
 0002:00000588       __imp_?GetICustEdit@@YAPEAVICustEdit@@PEAUHWND__@@@Z 000000018002c588     core:core.dll
 0002:00000590       __imp_?ReleaseICustEdit@@YAXPEAVICustEdit@@@Z 000000018002c590     core:core.dll
 0002:00000598       __imp_?GetNewDefaultTextureOutput@@YAPEAVTextureOutput@@XZ 000000018002c598     core:core.dll
 0002:000005a0       __imp_?ReleaseISpinner@@YAXPEAVISpinnerControl@@@Z 000000018002c5a0     core:core.dll
 0002:000005a8       __imp_?threshold@@YAMMMM@Z 000000018002c5a8     core:core.dll
 0002:000005b0       __imp_?SetupFloatSpinner@@YAPEAVISpinnerControl@@PEAUHWND__@@HHMMMM@Z 000000018002c5b0     core:core.dll
 0002:000005b8       __imp_?SetupUniverseSpinner@@YAPEAVISpinnerControl@@PEAUHWND__@@HHMMMM@Z 000000018002c5b8     core:core.dll
 0002:000005c0       __imp_??4MtlBase@@QEAAAEAV0@AEBV0@@Z 000000018002c5c0     core:core.dll
 0002:000005c8       __imp_??1MtlBase@@UEAA@XZ  000000018002c5c8     core:core.dll
 0002:000005d0       __imp_?GetSubTexmapTVName@ISubMap@@QEAA?AVWStr@@H@Z 000000018002c5d0     core:core.dll
 0002:000005d8       __imp_?SubAnimCommitSetKeyBuffer@Animatable@@UEAAXHH@Z 000000018002c5d8     core:core.dll
 0002:000005e0       __imp_?SpecifySaveReferences@ReferenceMaker@@UEAA_NAEAVReferenceSaveManager@@@Z 000000018002c5e0     core:core.dll
 0002:000005e8       __imp_?SetProperty@MtlBase@@UEAAHKPEAX@Z 000000018002c5e8     core:core.dll
 0002:000005f0       __imp_?SaveEnum@ReferenceMaker@@UEAAXAEAVSaveEnumProc@@H@Z 000000018002c5f0     core:core.dll
 0002:000005f8       __imp_?Save@MtlBase@@UEAA?AW4IOResult@@PEAVISave@@@Z 000000018002c5f8     core:core.dll
 0002:00000600       __imp_?RescaleWorldUnits@ReferenceMaker@@UEAAXM@Z 000000018002c600     core:core.dll
 0002:00000608       __imp_?Requirements@MtlBase@@UEAAKH@Z 000000018002c608     core:core.dll
 0002:00000610       __imp_?RenderBitmap@Texmap@@UEAAXHPEAVBitmap@@MH@Z 000000018002c610     core:core.dll
 0002:00000618       __imp_?ReleaseInterface@Animatable@@UEAAXKPEAX@Z 000000018002c618     core:core.dll
 0002:00000620       __imp_?RefAdded@Texmap@@UEAAXPEAVReferenceMaker@@@Z 000000018002c620     core:core.dll
 0002:00000628       __imp_?NotifyDependents@ReferenceTarget@@UEAA?AW4RefResult@@AEBVInterval@@_KIKHPEAV1@W4NotifyDependentsOption@@@Z 000000018002c628     core:core.dll
 0002:00000630       __imp_?NodeName@Animatable@@UEAA?AVWStr@@XZ 000000018002c630     core:core.dll
 0002:00000638       __imp_?MouseCycleStarted@Animatable@@UEAAXH@Z 000000018002c638     core:core.dll
 0002:00000640       __imp_?MouseCycleCompleted@Animatable@@UEAAXH@Z 000000018002c640     core:core.dll
 0002:00000648       __imp_?MapKeys@Animatable@@UEAAXPEAVTimeMap@@K@Z 000000018002c648     core:core.dll
 0002:00000650       __imp_?Load@MtlBase@@UEAA?AW4IOResult@@PEAVILoad@@@Z 000000018002c650     core:core.dll
 0002:00000658       __imp_?IsOutputMeaningful@Texmap@@UEAA_NAEAVShadeContext@@@Z 000000018002c658     core:core.dll
 0002:00000660       __imp_?IsAnimated@Animatable@@UEAAHXZ 000000018002c660     core:core.dll
 0002:00000668       __imp_?GetVPDisplayDIB@Texmap@@UEAAPEAUtagBITMAPINFO@@HAEAVTexHandleMaker@@AEAVInterval@@HHH@Z 000000018002c668     core:core.dll
 0002:00000670       __imp_?GetTimeRange@Animatable@@UEAA?AVInterval@@K@Z 000000018002c670     core:core.dll
 0002:00000678       __imp_?GetProperty@MtlBase@@UEAAPEAXK@Z 000000018002c678     core:core.dll
 0002:00000680       __imp_?GetPStamp@MtlBase@@UEAAPEAVPStamp@@H@Z 000000018002c680     core:core.dll
 0002:00000688       __imp_?GetInterface@MtlBase@@UEAAPEAXK@Z 000000018002c688     core:core.dll
 0002:00000690       __imp_?GetFullName@MtlBase@@UEAA?AVWStr@@XZ 000000018002c690     core:core.dll
 0002:00000698       __imp_?EvalEnvironMap@ShadeContext@@UEAA?AVAColor@@PEAVTexmap@@VPoint3@@@Z 000000018002c698     core:core.dll
 0002:000006a0       __imp_?EnumAuxFiles@MtlBase@@UEAAXAEAVAssetEnumCallback@@K@Z 000000018002c6a0     core:core.dll
 0002:000006a8       __imp_?DoEnumDependentsImpl@ReferenceTarget@@MEAAHPEAVDependentEnumProc@@@Z 000000018002c6a8     core:core.dll
 0002:000006b0       __imp_?DiscardPStamp@MtlBase@@UEAAXH@Z 000000018002c6b0     core:core.dll
 0002:000006b8       __imp_?DiffuseIllum@ShadeContext@@UEAA?AVColor@@XZ 000000018002c6b8     core:core.dll
 0002:000006c0       __imp_?DeleteAllRefsToMe@ReferenceTarget@@UEAA?AW4RefResult@@XZ 000000018002c6c0     core:core.dll
 0002:000006c8       __imp_?CreatePStamp@MtlBase@@UEAAPEAVPStamp@@HH@Z 000000018002c6c8     core:core.dll
 0002:000006d0       __imp_?BaseClone@MtlBase@@UEAAXPEAVReferenceTarget@@0AEAVRemapDir@@@Z 000000018002c6d0     core:core.dll
 0002:000006d8       __imp_?AutoDelete@ReferenceTarget@@UEAA?AW4RefResult@@XZ 000000018002c6d8     core:core.dll
 0002:000006e0       __imp_??0Texmap@@QEAA@XZ   000000018002c6e0     core:core.dll
 0002:000006e8       __imp_?ReleaseICustButton@@YAXPEAVICustButton@@@Z 000000018002c6e8     core:core.dll
 0002:000006f0       __imp_?GetICustButton@@YAPEAVICustButton@@PEAUHWND__@@@Z 000000018002c6f0     core:core.dll
 0002:000006f8       __imp_?GetInterface@ReferenceTarget@@UEAAPEAVBaseInterface@@VInterface_ID@@@Z 000000018002c6f8     core:core.dll
 0002:00000700       __imp_?DeleteReference@ReferenceMaker@@QEAA?AW4RefResult@@H@Z 000000018002c700     core:core.dll
 0002:00000708       __imp_?ReplaceReference@ReferenceMaker@@QEAA?AW4RefResult@@HPEAVReferenceTarget@@H@Z 000000018002c708     core:core.dll
 0002:00000710       __imp_??IInterval@@QEBA?AV0@V0@@Z 000000018002c710     core:core.dll
 0002:00000718       __imp_?InInterval@Interval@@QEBAHH@Z 000000018002c718     core:core.dll
 0002:00000720       __imp_??0Interval@@QEAA@HH@Z 000000018002c720     core:core.dll
 0002:00000728       __imp_?TEXMAP_CAT_3D@@3PA_WA 000000018002c728     core:core.dll
 0002:00000730       __imp_?AddInterface@ClassDesc@@UEAAXPEAVFPInterface@@@Z 000000018002c730     core:core.dll
 0002:00000738       __imp_?GetInterface@ClassDesc@@UEAAPEAVFPInterface@@VInterface_ID@@@Z 000000018002c738     core:core.dll
 0002:00000740       __imp_?GetInterface@ClassDesc@@UEAAPEAVFPInterface@@PEB_W@Z 000000018002c740     core:core.dll
 0002:00000748       __imp_?SvCanSelect@MtlBase@@UEAA_NPEAVIGraphObjectManager@@PEAVIGraphNode@@@Z 000000018002c748     core:core.dll
 0002:00000750       __imp_?GetRsrcString@ClassDesc@@UEAAPEB_W_J@Z 000000018002c750     core:core.dll
 0002:00000758       \177core_NULL_THUNK_DATA   000000018002c758     core:core.dll
 0002:00000760       __imp_?Length@@YAMAEBVPoint3@@@Z 000000018002c760     geom:geom.dll
 0002:00000768       __imp_?IdentityMatrix@Matrix3@@QEAAXXZ 000000018002c768     geom:geom.dll
 0002:00000770       __imp_??APoint3@@QEAAAEAMH@Z 000000018002c770     geom:geom.dll
 0002:00000778       __imp_?Normalize@@YA?AVPoint3@@AEBV1@@Z 000000018002c778     geom:geom.dll
 0002:00000780       __imp_?FNormalize@@YA?AVPoint3@@AEBV1@@Z 000000018002c780     geom:geom.dll
 0002:00000788       __imp_?ClampMinMax@Color@@QEAAXXZ 000000018002c788     geom:geom.dll
 0002:00000790       __imp_??TPoint3@@QEBA?AV0@AEBV0@@Z 000000018002c790     geom:geom.dll
 0002:00000798       __imp_??D@YA?AVPoint3@@AEBVMatrix3@@AEBV0@@Z 000000018002c798     geom:geom.dll
 0002:000007a0       __imp_?VectorTransform@@YA?AVPoint3@@AEBVMatrix3@@AEBV1@@Z 000000018002c7a0     geom:geom.dll
 0002:000007a8       __imp_?Translate@Matrix3@@QEAAXAEBVPoint3@@@Z 000000018002c7a8     geom:geom.dll
 0002:000007b0       __imp_?RotateX@Matrix3@@QEAAXM@Z 000000018002c7b0     geom:geom.dll
 0002:000007b8       __imp_?RotateY@Matrix3@@QEAAXM@Z 000000018002c7b8     geom:geom.dll
 0002:000007c0       __imp_?RotateZ@Matrix3@@QEAAXM@Z 000000018002c7c0     geom:geom.dll
 0002:000007c8       __imp_?Scale@Matrix3@@QEAAXAEBVPoint3@@H@Z 000000018002c7c8     geom:geom.dll
 0002:000007d0       __imp_?Invert@Matrix3@@QEAAXXZ 000000018002c7d0     geom:geom.dll
 0002:000007d8       __imp_?Length@Point3@@QEBAMXZ 000000018002c7d8     geom:geom.dll
 0002:000007e0       __imp_??0Point3@@QEAA@XZ   000000018002c7e0     geom:geom.dll
 0002:000007e8       \177geom_NULL_THUNK_DATA   000000018002c7e8     geom:geom.dll
 0002:000007f0       __imp_??2MaxHeapOperators@@SAPEAX_K@Z 000000018002c7f0     maxutil:maxutil.dll
 0002:000007f8       __imp_??0Exception@Util@MaxSDK@@QEAA@AEBV012@@Z 000000018002c7f8     maxutil:maxutil.dll
 0002:00000800       __imp_??3MaxHeapOperators@@SAXPEAX@Z 000000018002c800     maxutil:maxutil.dll
 0002:00000808       __imp_?NumInterfaces@BaseInterfaceServer@@UEBAHXZ 000000018002c808     maxutil:maxutil.dll
 0002:00000810       __imp_?GetInterface@BaseInterfaceServer@@UEAAPEAVBaseInterface@@VInterface_ID@@@Z 000000018002c810     maxutil:maxutil.dll
 0002:00000818       __imp_??0OutOfRangeException@Util@MaxSDK@@QEAA@AEBV012@@Z 000000018002c818     maxutil:maxutil.dll
 0002:00000820       __imp_??1Exception@Util@MaxSDK@@UEAA@XZ 000000018002c820     maxutil:maxutil.dll
 0002:00000828       __imp_??0OutOfRangeException@Util@MaxSDK@@QEAA@PEB_W@Z 000000018002c828     maxutil:maxutil.dll
 0002:00000830       __imp_??1OutOfRangeException@Util@MaxSDK@@UEAA@XZ 000000018002c830     maxutil:maxutil.dll
 0002:00000838       __imp_?assert1@@YAHHPEB_W00@Z 000000018002c838     maxutil:maxutil.dll
 0002:00000840       __imp_?zfree@@YAXPEAPEAX@Z 000000018002c840     maxutil:maxutil.dll
 0002:00000848       __imp_??1InterfaceServer@@UEAA@XZ 000000018002c848     maxutil:maxutil.dll
 0002:00000850       __imp_??1BaseInterfaceServer@@UEAA@XZ 000000018002c850     maxutil:maxutil.dll
 0002:00000858       __imp_??0WStr@@QEAA@PEB_W@Z 000000018002c858     maxutil:maxutil.dll
 0002:00000860       __imp_??1WStr@@QEAA@XZ     000000018002c860     maxutil:maxutil.dll
 0002:00000868       __imp_??4WStr@@QEAAAEAV0@PEB_W@Z 000000018002c868     maxutil:maxutil.dll
 0002:00000870       __imp_?GetInterface@InterfaceServer@@UEAAPEAVBaseInterface@@VInterface_ID@@@Z 000000018002c870     maxutil:maxutil.dll
 0002:00000878       __imp_??_7OutOfRangeException@Util@MaxSDK@@6B@ 000000018002c878     maxutil:maxutil.dll
 0002:00000880       __imp_??_VMaxHeapOperators@@SAXPEAX@Z 000000018002c880     maxutil:maxutil.dll
 0002:00000888       __imp_??0WStr@@QEAA@XZ     000000018002c888     maxutil:maxutil.dll
 0002:00000890       __imp_??0WStr@@QEAA@AEBV0@@Z 000000018002c890     maxutil:maxutil.dll
 0002:00000898       __imp_?UseLanguagePackLocale@Util@MaxSDK@@YAXPEAUHINSTANCE__@@@Z 000000018002c898     maxutil:maxutil.dll
 0002:000008a0       __imp_??_UMaxHeapOperators@@SAPEAX_K@Z 000000018002c8a0     maxutil:maxutil.dll
 0002:000008a8       __imp_?GetInterfaceAt@BaseInterfaceServer@@UEBAPEAVBaseInterface@@H@Z 000000018002c8a8     maxutil:maxutil.dll
 0002:000008b0       \177maxutil_NULL_THUNK_DATA 000000018002c8b0     maxutil:maxutil.dll
 0002:000008b8       __guard_check_icall_fptr   000000018002c8b8     MSVCRT:guard_support.obj
 0002:000008c0       __guard_dispatch_icall_fptr 000000018002c8c0     MSVCRT:guard_support.obj
 0002:000008c8       __xc_a                     000000018002c8c8     MSVCRT:initializers.obj
 0002:000009c8       __xc_z                     000000018002c9c8     MSVCRT:initializers.obj
 0002:000009d0       __xi_a                     000000018002c9d0     MSVCRT:initializers.obj
 0002:000009d8       __xi_z                     000000018002c9d8     MSVCRT:initializers.obj
 0002:000009e0       __xp_a                     000000018002c9e0     MSVCRT:initializers.obj
 0002:000009e8       __xp_z                     000000018002c9e8     MSVCRT:initializers.obj
 0002:000009f0       __xt_a                     000000018002c9f0     MSVCRT:initializers.obj
 0002:000009f8       __xt_z                     000000018002c9f8     MSVCRT:initializers.obj
 0002:00000a00       ??_C@_1EM@PJAEPBLB@?$AAT?$AAa?$AAb?$AA?$DM?$AAc?$AAl?$AAa?$AAs?$AAs?$AA?5?$AAF?$AAP?$AAI?$AAn?$AAt?$AAe?$AAr?$AAf?$AAa?$AAc?$AAe?$AA?5?$AA?$CK?$AA?$DO?$AA?3?$AA?3?$AAo?$AAp?$AAe?$AAr?$AAa?$AAt@ 000000018002ca00     BerconDistortion.obj
 0002:00000a50       ??_C@_1O@ILILCEBJ@?$AAi?$AA?5?$AA?$DO?$AA?$DN?$AA?5?$AA0?$AA?$AA@ 000000018002ca50     BerconDistortion.obj
 0002:00000a68       ??_7BerconDistortionClassDesc@@6B@ 000000018002ca68     BerconDistortion.obj
 0002:00000c00       ??_C@_1BM@IANNOHHL@?$AAB?$AAe?$AAr?$AAc?$AAo?$AAn?$AAM?$AAa?$AAp?$AAp?$AAi?$AAn?$AAg?$AA?$AA@ 000000018002cc00     BerconDistortion.obj
 0002:00000c20       ??_C@_1BM@HCNKLGAJ@?$AAu?$AAs?$AAe?$AAD?$AAi?$AAs?$AAt?$AAo?$AAr?$AAt?$AAi?$AAo?$AAn?$AA?$AA@ 000000018002cc20     BerconDistortion.obj
 0002:00000c40       ??_C@_1BM@DKGEJKPL@?$AAd?$AAi?$AAs?$AAt?$AAo?$AAr?$AAt?$AAi?$AAo?$AAn?$AAS?$AAt?$AAr?$AA?$AA@ 000000018002cc40     BerconDistortion.obj
 0002:00000c60       ??_C@_19HFCNIFIH@?$AAm?$AAa?$AAp?$AA2?$AA?$AA@ 000000018002cc60     BerconDistortion.obj
 0002:00000c70       ??_C@_19GHJICKGJ@?$AAm?$AAa?$AAp?$AA1?$AA?$AA@ 000000018002cc70     BerconDistortion.obj
 0002:00000c80       ??_C@_19MNJBOCOC@?$AAm?$AAa?$AAp?$AA3?$AA?$AA@ 000000018002cc80     BerconDistortion.obj
 0002:00000c90       ??_C@_1O@FEMBPDGM@?$AAp?$AAa?$AAr?$AAa?$AAm?$AAs?$AA?$AA@ 000000018002cc90     BerconDistortion.obj
 0002:00000ca8       ??_7XYZ_Desc@@6B@          000000018002cca8     BerconDistortion.obj
 0002:00000cc8       ??_C@_1BM@LCALCDFD@?$AAx?$AAy?$AAz?$AA_?$AAf?$AAi?$AAl?$AAt?$AAe?$AAr?$AAi?$AAn?$AAg?$AA?$AA@ 000000018002ccc8     BerconDistortion.obj
 0002:00000ce8       ??_C@_1BC@JCCAEAIN@?$AAx?$AAy?$AAz?$AA_?$AAl?$AAo?$AAc?$AAk?$AA?$AA@ 000000018002cce8     BerconDistortion.obj
 0002:00000d00       ??_C@_1BK@FLPLJMAJ@?$AAx?$AAy?$AAz?$AA_?$AAa?$AAn?$AAg?$AAl?$AAe?$AA_?$AAz?$AA2?$AA?$AA@ 000000018002cd00     BerconDistortion.obj
 0002:00000d20       ??_C@_1BK@NNGPOOKH@?$AAx?$AAy?$AAz?$AA_?$AAa?$AAn?$AAg?$AAl?$AAe?$AA_?$AAy?$AA2?$AA?$AA@ 000000018002cd20     BerconDistortion.obj
 0002:00000d40       ??_C@_1BK@BGDDDNAC@?$AAx?$AAy?$AAz?$AA_?$AAa?$AAn?$AAg?$AAl?$AAe?$AA_?$AAx?$AA2?$AA?$AA@ 000000018002cd40     BerconDistortion.obj
 0002:00000d60       ??_C@_1BI@MHJCJGME@?$AAx?$AAy?$AAz?$AA_?$AAs?$AAi?$AAz?$AAe?$AA_?$AAz?$AA2?$AA?$AA@ 000000018002cd60     BerconDistortion.obj
 0002:00000d78       ??_C@_1BI@EBAGOEGK@?$AAx?$AAy?$AAz?$AA_?$AAs?$AAi?$AAz?$AAe?$AA_?$AAy?$AA2?$AA?$AA@ 000000018002cd78     BerconDistortion.obj
 0002:00000d90       ??_C@_1BI@IKFKDHMP@?$AAx?$AAy?$AAz?$AA_?$AAs?$AAi?$AAz?$AAe?$AA_?$AAx?$AA2?$AA?$AA@ 000000018002cd90     BerconDistortion.obj
 0002:00000da8       ??_C@_1BM@HJOOPID@?$AAx?$AAy?$AAz?$AA_?$AAo?$AAf?$AAf?$AAs?$AAe?$AAt?$AA_?$AAz?$AA2?$AA?$AA@ 000000018002cda8     BerconDistortion.obj
 0002:00000dc8       ??_C@_1BM@IBAKJNCN@?$AAx?$AAy?$AAz?$AA_?$AAo?$AAf?$AAf?$AAs?$AAe?$AAt?$AA_?$AAy?$AA2?$AA?$AA@ 000000018002cdc8     BerconDistortion.obj
 0002:00000de8       ??_C@_1BM@EKFGEOII@?$AAx?$AAy?$AAz?$AA_?$AAo?$AAf?$AAf?$AAs?$AAe?$AAt?$AA_?$AAx?$AA2?$AA?$AA@ 000000018002cde8     BerconDistortion.obj
 0002:00000e08       ??_C@_1BE@PALBIMHK@?$AAr?$AAa?$AAn?$AAd?$AAB?$AAy?$AAP?$AAa?$AAr?$AA?$AA@ 000000018002ce08     BerconDistortion.obj
 0002:00000e20       ??_C@_1BE@EGBDKCCD@?$AAr?$AAa?$AAn?$AAd?$AAB?$AAy?$AAO?$AAb?$AAj?$AA?$AA@ 000000018002ce20     BerconDistortion.obj
 0002:00000e38       ??_C@_1BE@DCGEPHFM@?$AAr?$AAa?$AAn?$AAd?$AAB?$AAy?$AAM?$AAa?$AAt?$AA?$AA@ 000000018002ce38     BerconDistortion.obj
 0002:00000e50       ??_C@_19HFHNPJHA@?$AAs?$AAe?$AAe?$AAd?$AA?$AA@ 000000018002ce50     BerconDistortion.obj
 0002:00000e60       ??_C@_1BG@EDCBABDD@?$AAx?$AAy?$AAz?$AA_?$AAt?$AAi?$AAl?$AAe?$AA_?$AAz?$AA?$AA@ 000000018002ce60     BerconDistortion.obj
 0002:00000e78       ??_C@_1BG@FBJEKONN@?$AAx?$AAy?$AAz?$AA_?$AAt?$AAi?$AAl?$AAe?$AA_?$AAy?$AA?$AA@ 000000018002ce78     BerconDistortion.obj
 0002:00000e90       ??_C@_1BG@OJCIMJLI@?$AAx?$AAy?$AAz?$AA_?$AAt?$AAi?$AAl?$AAe?$AA_?$AAx?$AA?$AA@ 000000018002ce90     BerconDistortion.obj
 0002:00000ea8       ??_C@_1BI@LALGELMD@?$AAx?$AAy?$AAz?$AA_?$AAa?$AAn?$AAg?$AAl?$AAe?$AA_?$AAz?$AA?$AA@ 000000018002cea8     BerconDistortion.obj
 0002:00000ec0       ??_C@_1BI@KCADOECN@?$AAx?$AAy?$AAz?$AA_?$AAa?$AAn?$AAg?$AAl?$AAe?$AA_?$AAy?$AA?$AA@ 000000018002cec0     BerconDistortion.obj
 0002:00000ed8       ??_C@_1BI@BKLPIDEI@?$AAx?$AAy?$AAz?$AA_?$AAa?$AAn?$AAg?$AAl?$AAe?$AA_?$AAx?$AA?$AA@ 000000018002ced8     BerconDistortion.obj
 0002:00000ef0       ??_C@_1BG@MFMFKFM@?$AAx?$AAy?$AAz?$AA_?$AAs?$AAi?$AAz?$AAe?$AA_?$AAz?$AA?$AA@ 000000018002cef0     BerconDistortion.obj
 0002:00000f08       ??_C@_1BG@BOOJPFLC@?$AAx?$AAy?$AAz?$AA_?$AAs?$AAi?$AAz?$AAe?$AA_?$AAy?$AA?$AA@ 000000018002cf08     BerconDistortion.obj
 0002:00000f20       ??_C@_1BG@KGFFJCNH@?$AAx?$AAy?$AAz?$AA_?$AAs?$AAi?$AAz?$AAe?$AA_?$AAx?$AA?$AA@ 000000018002cf20     BerconDistortion.obj
 0002:00000f38       ??_C@_1BK@HPJLBIGD@?$AAx?$AAy?$AAz?$AA_?$AAo?$AAf?$AAf?$AAs?$AAe?$AAt?$AA_?$AAz?$AA?$AA@ 000000018002cf38     BerconDistortion.obj
 0002:00000f58       ??_C@_1BK@GNCOLHIN@?$AAx?$AAy?$AAz?$AA_?$AAo?$AAf?$AAf?$AAs?$AAe?$AAt?$AA_?$AAy?$AA?$AA@ 000000018002cf58     BerconDistortion.obj
 0002:00000f78       ??_C@_1BK@NFJCNAOI@?$AAx?$AAy?$AAz?$AA_?$AAo?$AAf?$AAf?$AAs?$AAe?$AAt?$AA_?$AAx?$AA?$AA@ 000000018002cf78     BerconDistortion.obj
 0002:00000f98       ??_C@_1BC@BDPIEDCA@?$AAx?$AAy?$AAz?$AA_?$AAc?$AAh?$AAa?$AAn?$AA?$AA@ 000000018002cf98     BerconDistortion.obj
 0002:00000fb0       ??_C@_1BA@JOBDKJKA@?$AAx?$AAy?$AAz?$AA_?$AAm?$AAa?$AAp?$AA?$AA@ 000000018002cfb0     BerconDistortion.obj
 0002:00000fc0       ??_C@_1BA@KMAKHADK@?$AAM?$AAa?$AAp?$AAp?$AAi?$AAn?$AAg?$AA?$AA@ 000000018002cfc0     BerconDistortion.obj
 0002:00000fd8       ??_7TabOutOfRangeException@Util@MaxSDK@@6B@ 000000018002cfd8     BerconDistortion.obj
 0002:00000ff0       ??_C@_1EK@FOLBONAG@?$AAM?$AAa?$AAx?$AAS?$AAD?$AAK?$AA?3?$AA?3?$AAU?$AAt?$AAi?$AAl?$AA?3?$AA?3?$AAT?$AAa?$AAb?$AAO?$AAu?$AAt?$AAO?$AAf?$AAR?$AAa?$AAn?$AAg?$AAe?$AAE?$AAx?$AAc?$AAe?$AAp@ 000000018002cff0     BerconDistortion.obj
 0002:0000103c       ??_C@_15CABMMOGH@?$AAt?$AAh?$AA?$AA@ 000000018002d03c     BerconDistortion.obj
 0002:00001050       ??_C@_1IA@KMGBAOP@?$AAc?$AA?3?$AA?2?$AAp?$AAr?$AAo?$AAg?$AAr?$AAa?$AAm?$AA?5?$AAf?$AAi?$AAl?$AAe?$AAs?$AA?2?$AAa?$AAu?$AAt?$AAo?$AAd?$AAe?$AAs?$AAk?$AA?2?$AA3?$AAd?$AAs?$AA?5?$AAm?$AAa@ 000000018002d050     BerconDistortion.obj
 0002:000010d0       ??_C@_1CI@OKLGNBMM@?$AAt?$AAh?$AA?5?$AA?$CG?$AA?$CG?$AA?5?$AAi?$AA?5?$AA?$DM?$AA?5?$AAt?$AAh?$AA?9?$AA?$DO?$AAc?$AAo?$AAu?$AAn?$AAt?$AA?$AA@ 000000018002d0d0     BerconDistortion.obj
 0002:00001100       ??_C@_1GI@NLEIFPEJ@?$AAI?$AAn?$AAv?$AAa?$AAl?$AAi?$AAd?$AA?5?$AAi?$AAn?$AAd?$AAe?$AAx?$AA?5?$AAp?$AAa?$AAs?$AAs?$AAe?$AAd?$AA?5?$AAi?$AAn?$AAt?$AAo?$AA?5?$AAa?$AA?5?$AAM?$AAa?$AAx?$AA?5@ 000000018002d100     BerconDistortion.obj
 0002:000016e8       ??_7InterfaceServer@@6B@   000000018002d6e8     BerconDistortion.obj
 0002:00001700       ??_7BaseInterfaceServer@@6B@ 000000018002d700     BerconDistortion.obj
 0002:00001720       ??_C@_11LOCGONAA@?$AA?$AA@ 000000018002d720     BerconDistortion.obj
 0002:00001724       ??_C@_13COJANIEC@?$AA0?$AA?$AA@ 000000018002d724     BerconDistortion.obj
 0002:00001728       ??_C@_1CM@HBLCKHLG@?$AAA?$AAn?$AAi?$AAm?$AAa?$AAt?$AAa?$AAb?$AAl?$AAe?$AA?3?$AA?3?$AAE?$AAd?$AAi?$AAt?$AAT?$AAr?$AAa?$AAc?$AAk?$AA?$AA@ 000000018002d728     BerconDistortion.obj
 0002:00001760       ??_C@_1IO@JIKENLMH@?$AAc?$AA?3?$AA?2?$AAp?$AAr?$AAo?$AAg?$AAr?$AAa?$AAm?$AA?5?$AAf?$AAi?$AAl?$AAe?$AAs?$AA?2?$AAa?$AAu?$AAt?$AAo?$AAd?$AAe?$AAs?$AAk?$AA?2?$AA3?$AAd?$AAs?$AA?5?$AAm?$AAa@ 000000018002d760     BerconDistortion.obj
 0002:000017f0       ??_C@_1M@HLGKFCJM@?$AAf?$AAa?$AAl?$AAs?$AAe?$AA?$AA@ 000000018002d7f0     BerconDistortion.obj
 0002:00001800       ??_C@_1EC@POJFJEHG@?$AAR?$AAe?$AAf?$AAe?$AAr?$AAe?$AAn?$AAc?$AAe?$AAM?$AAa?$AAk?$AAe?$AAr?$AA?3?$AA?3?$AAN?$AAo?$AAt?$AAi?$AAf?$AAy?$AAD?$AAe?$AAp?$AAe?$AAn?$AAd?$AAe?$AAn?$AAt?$AAs@ 000000018002d800     BerconDistortion.obj
 0002:00001850       ??_C@_1IA@GIFKBLIP@?$AAc?$AA?3?$AA?2?$AAp?$AAr?$AAo?$AAg?$AAr?$AAa?$AAm?$AA?5?$AAf?$AAi?$AAl?$AAe?$AAs?$AA?2?$AAa?$AAu?$AAt?$AAo?$AAd?$AAe?$AAs?$AAk?$AA?2?$AA3?$AAd?$AAs?$AA?5?$AAm?$AAa@ 000000018002d850     BerconDistortion.obj
 0002:000018d0       ??_C@_1IK@IGPMBFJO@?$AAc?$AA?3?$AA?2?$AAp?$AAr?$AAo?$AAg?$AAr?$AAa?$AAm?$AA?5?$AAf?$AAi?$AAl?$AAe?$AAs?$AA?2?$AAa?$AAu?$AAt?$AAo?$AAd?$AAe?$AAs?$AAk?$AA?2?$AA3?$AAd?$AAs?$AA?5?$AAm?$AAa@ 000000018002d8d0     BerconDistortion.obj
 0002:00001960       ??_C@_1CE@GBNPOKPK@?$AAi?$AA?$DO?$AA?9?$AA1?$AA?5?$AA?$CG?$AA?$CG?$AA?5?$AAi?$AA?$DM?$AAn?$AAu?$AAm?$AAB?$AAi?$AAt?$AAs?$AA?$AA@ 000000018002d960     BerconDistortion.obj
 0002:00001988       ??_C@_1BM@HADNIIA@?$AAB?$AAi?$AAt?$AAA?$AAr?$AAr?$AAa?$AAy?$AA?3?$AA?3?$AAS?$AAe?$AAt?$AA?$AA@ 000000018002d988     BerconDistortion.obj
 0002:000019b0       ??_7RenderGlobalContext@@6B@ 000000018002d9b0     BerconDistortion.obj
 0002:00001a28       ??_7ShadeOutput@@6B@       000000018002da28     BerconDistortion.obj
 0002:00001a50       ??_7ShadeContext@@6B@      000000018002da50     BerconDistortion.obj
 0002:00001c98       ??_7ParamMap2UserDlgProc@@6B@ 000000018002dc98     BerconDistortion.obj
 0002:00001cd8       ??_7BerconXYZDlgProc@@6B@  000000018002dcd8     BerconDistortion.obj
 0002:00001d10       ??_C@_13PHJMHGG@?$AAL?$AA?$AA@ 000000018002dd10     BerconDistortion.obj
 0002:00001d20       ??_7BerconSC@@6BShadeContext@@@ 000000018002dd20     BerconDistortion.obj
 0002:00001f68       ??_7BerconSC@@6BRenderGlobalContext@@@ 000000018002df68     BerconDistortion.obj
 0002:00001fe0       ??_7BerconDistortion@@6BReferenceTarget@@@ 000000018002dfe0     BerconDistortion.obj
 0002:00002658       ??_7BerconDistortion@@6BISubMap@@@ 000000018002e658     BerconDistortion.obj
 0002:000026a0       __real@3f1a36e2e0000000    000000018002e6a0     BerconDistortion.obj
 0002:000026a8       __real@3f50624de0000000    000000018002e6a8     BerconDistortion.obj
 0002:000026b0       __real@3f800000            000000018002e6b0     BerconDistortion.obj
 0002:000026b8       __real@3fb99999a0000000    000000018002e6b8     BerconDistortion.obj
 0002:000026c0       __real@3ff0000000000000    000000018002e6c0     BerconDistortion.obj
 0002:000026c8       __real@408f400000000000    000000018002e6c8     BerconDistortion.obj
 0002:000026d0       __real@412e848000000000    000000018002e6d0     BerconDistortion.obj
 0002:000026d8       __real@bff0000000000000    000000018002e6d8     BerconDistortion.obj
 0002:000026e0       __real@c12e848000000000    000000018002e6e0     BerconDistortion.obj
 0002:000026f0       ??_7BerconGradientClassDesc@@6B@ 000000018002e6f0     BerconGradient.obj
 0002:00002888       ??_C@_1BO@EFFEGJBE@?$AAB?$AAe?$AAr?$AAc?$AAo?$AAn?$AAG?$AAr?$AAa?$AAd?$AAi?$AAe?$AAn?$AAt?$AA?$AA@ 000000018002e888     BerconGradient.obj
 0002:000028a8       ??_C@_1O@KEKEFEMI@?$AAo?$AAu?$AAt?$AAp?$AAu?$AAt?$AA?$AA@ 000000018002e8a8     BerconGradient.obj
 0002:000028b8       ??_C@_1M@IFKEOPKH@?$AAd?$AAi?$AAs?$AAO?$AAn?$AA?$AA@ 000000018002e8b8     BerconGradient.obj
 0002:000028c8       ??_C@_1O@JJJMDNON@?$AAd?$AAi?$AAs?$AAS?$AAt?$AAr?$AA?$AA@ 000000018002e8c8     BerconGradient.obj
 0002:000028d8       ??_C@_1O@DEGOAFKO@?$AAd?$AAi?$AAs?$AAT?$AAe?$AAx?$AA?$AA@ 000000018002e8d8     BerconGradient.obj
 0002:000028e8       ??_C@_17DDAFIGMA@?$AAI?$AAO?$AAR?$AA?$AA@ 000000018002e8e8     BerconGradient.obj
 0002:000028f0       ??_C@_1BO@EBFBJNKF@?$AAn?$AAo?$AAr?$AAm?$AAa?$AAl?$AAF?$AAu?$AAn?$AAc?$AAt?$AAi?$AAo?$AAn?$AA?$AA@ 000000018002e8f0     BerconGradient.obj
 0002:00002910       ??_C@_1BG@EJCJNKBN@?$AAn?$AAo?$AAr?$AAm?$AAa?$AAl?$AAT?$AAy?$AAp?$AAe?$AA?$AA@ 000000018002e910     BerconGradient.obj
 0002:00002928       ??_C@_1BI@JFBEDJBF@?$AAg?$AAr?$AAa?$AAd?$AAi?$AAe?$AAn?$AAt?$AAU?$AAV?$AAW?$AA?$AA@ 000000018002e928     BerconGradient.obj
 0002:00002940       ??_C@_1BE@KCENDKIA@?$AAr?$AAa?$AAn?$AAg?$AAe?$AAL?$AAo?$AAo?$AAp?$AA?$AA@ 000000018002e940     BerconGradient.obj
 0002:00002958       ??_C@_1BC@DAIIMAMF@?$AAr?$AAa?$AAn?$AAg?$AAe?$AAM?$AAa?$AAx?$AA?$AA@ 000000018002e958     BerconGradient.obj
 0002:00002970       ??_C@_1BC@KJKJEKOL@?$AAr?$AAa?$AAn?$AAg?$AAe?$AAM?$AAi?$AAn?$AA?$AA@ 000000018002e970     BerconGradient.obj
 0002:00002988       ??_C@_1BG@NOPEHBND@?$AAr?$AAa?$AAn?$AAd?$AAB?$AAy?$AAT?$AAi?$AAl?$AAe?$AA?$AA@ 000000018002e988     BerconGradient.obj
 0002:000029a0       ??_C@_1BA@NAHOMGAH@?$AAr?$AAe?$AAv?$AAe?$AAr?$AAs?$AAe?$AA?$AA@ 000000018002e9a0     BerconGradient.obj
 0002:000029b0       ??_C@_1BM@LCNPDDBK@?$AAi?$AAn?$AAt?$AAe?$AAr?$AAp?$AAo?$AAl?$AAa?$AAt?$AAi?$AAo?$AAn?$AA?$AA@ 000000018002e9b0     BerconGradient.obj
 0002:000029d0       ??_C@_19FHBCDCCA@?$AAt?$AAy?$AAp?$AAe?$AA?$AA@ 000000018002e9d0     BerconGradient.obj
 0002:000029e0       ??_C@_1O@HIEMLHIM@?$AAk?$AAe?$AAy?$AAC?$AAo?$AAl?$AA?$AA@ 000000018002e9e0     BerconGradient.obj
 0002:000029f0       ??_C@_1O@ICACMGIN@?$AAk?$AAe?$AAy?$AAP?$AAo?$AAs?$AA?$AA@ 000000018002e9f0     BerconGradient.obj
 0002:00002a00       ??_C@_1O@PJLIOEMF@?$AAk?$AAe?$AAy?$AAN?$AAu?$AAm?$AA?$AA@ 000000018002ea00     BerconGradient.obj
 0002:00002a10       ??_C@_1O@HANCGMBA@?$AAk?$AAe?$AAy?$AAT?$AAe?$AAx?$AA?$AA@ 000000018002ea10     BerconGradient.obj
 0002:00002a20       ??_C@_1BE@LCHIGCIO@?$AAp?$AAo?$AAs?$AAi?$AAt?$AAi?$AAo?$AAn?$AAs?$AA?$AA@ 000000018002ea20     BerconGradient.obj
 0002:00002a38       ??_C@_1O@HJEOCKOC@?$AAc?$AAo?$AAl?$AAo?$AAr?$AAs?$AA?$AA@ 000000018002ea38     BerconGradient.obj
 0002:00002a48       ??_C@_1BA@FLPLBKI@?$AAs?$AAu?$AAb?$AAm?$AAa?$AAp?$AAs?$AA?$AA@ 000000018002ea48     BerconGradient.obj
 0002:00002a58       ??_C@_19EFANFLCA@?$AAn?$AAo?$AAd?$AAe?$AA?$AA@ 000000018002ea58     BerconGradient.obj
 0002:00002a68       ??_C@_1O@HHADDHBD@?$AAm?$AAa?$AAp?$AAT?$AAe?$AAx?$AA?$AA@ 000000018002ea68     BerconGradient.obj
 0002:00002d28       ??_7ICustomControl@@6B@    000000018002ed28     BerconGradient.obj
 0002:00002d78       ??_7IGradient@@6B@         000000018002ed78     BerconGradient.obj
 0002:00002dc8       ??_7BerconGradient@@6BReferenceTarget@@@ 000000018002edc8     BerconGradient.obj
 0002:00003440       ??_7BerconGradient@@6BISubMap@@@ 000000018002f440     BerconGradient.obj
 0002:00003490       ??_7BerconGradient@@6BGradientMap@@@ 000000018002f490     BerconGradient.obj
 0002:000034c0       ??_7BerconGradient@@6BResourceMakerCallback@@@ 000000018002f4c0     BerconGradient.obj
 0002:000034f0       ??_7BerconGradientDlgProc@@6B@ 000000018002f4f0     BerconGradient.obj
 0002:00003528       __real@3a83126f            000000018002f528     BerconGradient.obj
 0002:0000352c       __real@3d4ccccd            000000018002f52c     BerconGradient.obj
 0002:00003530       __real@3f000000            000000018002f530     BerconGradient.obj
 0002:00003534       __real@3fc90fdb            000000018002f534     BerconGradient.obj
 0002:00003538       __real@3fcccccd            000000018002f538     BerconGradient.obj
 0002:00003540       __real@3fe921fb54442d18    000000018002f540     BerconGradient.obj
 0002:00003548       __real@3ff99999a0000000    000000018002f548     BerconGradient.obj
 0002:00003550       __real@40000000            000000018002f550     BerconGradient.obj
 0002:00003554       __real@40400000            000000018002f554     BerconGradient.obj
 0002:00003558       __real@40490fdb            000000018002f558     BerconGradient.obj
 0002:0000355c       __real@40800000            000000018002f55c     BerconGradient.obj
 0002:00003560       __real@40dfffc000000000    000000018002f560     BerconGradient.obj
 0002:00003570       __xmm@3f800000000000000000000000000000 000000018002f570     BerconGradient.obj
 0002:00003580       __xmm@3f8000003f8000003f8000003f800000 000000018002f580     BerconGradient.obj
 0002:00003590       __xmm@7fffffffffffffff7fffffffffffffff 000000018002f590     BerconGradient.obj
 0002:000035a0       __xmm@80000000800000008000000080000000 000000018002f5a0     BerconGradient.obj
 0002:000035b0       ??_C@_0O@FNOCONJB@0?01?01?1?45?0?45?01?$AA@ 000000018002f5b0     BerconTile.obj
 0002:000035c0       ??_C@_1BA@GHEKA@?$AAp?$AAa?$AAt?$AAt?$AAe?$AAr?$AAn?$AA?$AA@ 000000018002f5c0     BerconTile.obj
 0002:000035d0       ??_C@_1O@GJMACMBA@?$AAO?$AAu?$AAt?$AAp?$AAu?$AAt?$AA?$AA@ 000000018002f5d0     BerconTile.obj
 0002:000035e0       ??_C@_19OIPKLNDO@?$AAm?$AAa?$AAp?$AA5?$AA?$AA@ 000000018002f5e0     BerconTile.obj
 0002:000035f0       ??_C@_19FAEGNKFL@?$AAm?$AAa?$AAp?$AA4?$AA?$AA@ 000000018002f5f0     BerconTile.obj
 0002:00003600       ??_C@_1CE@KGONNDMM@?$AAp?$AAb?$AA_?$AAc?$AAe?$AAn?$AAt?$AAe?$AAr?$AA_?$AAc?$AAh?$AAa?$AAn?$AAn?$AAe?$AAl?$AA?$AA@ 000000018002f600     BerconTile.obj
 0002:00003628       ??_C@_1BE@KFDCNPHK@?$AAp?$AAb?$AA_?$AAc?$AAe?$AAn?$AAt?$AAe?$AAr?$AA?$AA@ 000000018002f628     BerconTile.obj
 0002:00003640       ??_C@_1BC@JKBCBDFD@?$AAp?$AAb?$AA_?$AAr?$AAa?$AAn?$AAd?$AAZ?$AA?$AA@ 000000018002f640     BerconTile.obj
 0002:00003658       ??_C@_1BC@OAMFKIBK@?$AAp?$AAb?$AA_?$AAf?$AAl?$AAi?$AAp?$AAY?$AA?$AA@ 000000018002f658     BerconTile.obj
 0002:00003670       ??_C@_1BC@FIHJMPHP@?$AAp?$AAb?$AA_?$AAf?$AAl?$AAi?$AAp?$AAX?$AA?$AA@ 000000018002f670     BerconTile.obj
 0002:00003688       ??_C@_1BG@GBOMCGBN@?$AAp?$AAb?$AA_?$AAr?$AAa?$AAn?$AAd?$AAR?$AAo?$AAt?$AA?$AA@ 000000018002f688     BerconTile.obj
 0002:000036a0       ??_C@_1M@PGIICPFG@?$AAr?$AAo?$AAt?$AAU?$AAV?$AA?$AA@ 000000018002f6a0     BerconTile.obj
 0002:000036b0       ??_C@_1BA@EPCJNCFF@?$AAp?$AAb?$AA_?$AAl?$AAo?$AAc?$AAk?$AA?$AA@ 000000018002f6b0     BerconTile.obj
 0002:000036c0       ??_C@_1BE@IECCMELL@?$AAp?$AAb?$AA_?$AAr?$AAa?$AAn?$AAd?$AAS?$AAY?$AA?$AA@ 000000018002f6c0     BerconTile.obj
 0002:000036d8       ??_C@_1BE@DMJOKDNO@?$AAp?$AAb?$AA_?$AAr?$AAa?$AAn?$AAd?$AAS?$AAX?$AA?$AA@ 000000018002f6d8     BerconTile.obj
 0002:000036f0       ??_C@_1BC@IIKHLMLN@?$AAp?$AAb?$AA_?$AAr?$AAa?$AAn?$AAd?$AAY?$AA?$AA@ 000000018002f6f0     BerconTile.obj
 0002:00003708       ??_C@_1BC@DABLNLNI@?$AAp?$AAb?$AA_?$AAr?$AAa?$AAn?$AAd?$AAX?$AA?$AA@ 000000018002f708     BerconTile.obj
 0002:00003720       ??_C@_1BE@PLDFGEPA@?$AAu?$AAv?$AAC?$AAh?$AAa?$AAn?$AAn?$AAe?$AAl?$AA?$AA@ 000000018002f720     BerconTile.obj
 0002:00003738       ??_C@_1M@BCIHGDJC@?$AAm?$AAa?$AAp?$AAU?$AAV?$AA?$AA@ 000000018002f738     BerconTile.obj
 0002:00003748       ??_C@_1BA@MGBNNBHC@?$AAp?$AAb?$AA_?$AAa?$AAu?$AAt?$AAo?$AA?$AA@ 000000018002f748     BerconTile.obj
 0002:00003758       ??_C@_1BC@PELPKLOA@?$AAr?$AAo?$AAu?$AAn?$AAd?$AAR?$AAa?$AAd?$AA?$AA@ 000000018002f758     BerconTile.obj
 0002:00003770       ??_C@_1BC@BEGFKCGJ@?$AAp?$AAb?$AA_?$AAr?$AAo?$AAu?$AAn?$AAd?$AA?$AA@ 000000018002f770     BerconTile.obj
 0002:00003788       ??_C@_1BE@HNGKBEO@?$AAs?$AAo?$AAf?$AAt?$AAe?$AAn?$AAR?$AAa?$AAd?$AA?$AA@ 000000018002f788     BerconTile.obj
 0002:000037a0       ??_C@_1O@JFKPBGFL@?$AAs?$AAo?$AAf?$AAt?$AAe?$AAn?$AA?$AA@ 000000018002f7a0     BerconTile.obj
 0002:000037b0       ??_C@_1BI@LCGFGJLK@?$AAe?$AAd?$AAg?$AAe?$AAh?$AAe?$AAi?$AAg?$AAh?$AAt?$AA2?$AA?$AA@ 000000018002f7b0     BerconTile.obj
 0002:000037c8       ??_C@_1BG@MDDEDAID@?$AAe?$AAd?$AAg?$AAe?$AAW?$AAi?$AAd?$AAt?$AAh?$AA2?$AA?$AA@ 000000018002f7c8     BerconTile.obj
 0002:000037e0       ??_C@_1BI@IMJDDJBI@?$AAt?$AAi?$AAl?$AAe?$AAh?$AAe?$AAi?$AAg?$AAh?$AAt?$AA2?$AA?$AA@ 000000018002f7e0     BerconTile.obj
 0002:000037f8       ??_C@_1BG@DGGNGLMB@?$AAt?$AAi?$AAl?$AAe?$AAW?$AAi?$AAd?$AAt?$AAh?$AA2?$AA?$AA@ 000000018002f7f8     BerconTile.obj
 0002:00003810       ??_C@_1BG@ICMJDHNJ@?$AAe?$AAd?$AAg?$AAe?$AAh?$AAe?$AAi?$AAg?$AAh?$AAt?$AA?$AA@ 000000018002f810     BerconTile.obj
 0002:00003828       ??_C@_1BE@ILJAGNND@?$AAe?$AAd?$AAg?$AAe?$AAW?$AAi?$AAd?$AAt?$AAh?$AA?$AA@ 000000018002f828     BerconTile.obj
 0002:00003840       ??_C@_1BG@HHJAGMJL@?$AAt?$AAi?$AAl?$AAe?$AAh?$AAe?$AAi?$AAg?$AAh?$AAt?$AA?$AA@ 000000018002f840     BerconTile.obj
 0002:00003858       ??_C@_1BE@KHEBBJOG@?$AAt?$AAi?$AAl?$AAe?$AAW?$AAi?$AAd?$AAt?$AAh?$AA?$AA@ 000000018002f858     BerconTile.obj
 0002:00003870       ??_C@_19GIOODLBE@?$AAs?$AAi?$AAz?$AAe?$AA?$AA@ 000000018002f870     BerconTile.obj
 0002:00003880       ??_C@_1M@OIINANNN@?$AAs?$AAt?$AAy?$AAl?$AAe?$AA?$AA@ 000000018002f880     BerconTile.obj
 0002:00003890       ??_C@_1BC@EIDKFDNH@?$AAl?$AAo?$AAc?$AAk?$AAE?$AAd?$AAg?$AAe?$AA?$AA@ 000000018002f890     BerconTile.obj
 0002:000038a8       ??_C@_1BI@KDPPAPEG@?$AAm?$AAa?$AAp?$AA3?$AAE?$AAn?$AAa?$AAb?$AAl?$AAe?$AAd?$AA?$AA@ 000000018002f8a8     BerconTile.obj
 0002:000038c0       ??_C@_1BI@EMKNLJKH@?$AAm?$AAa?$AAp?$AA2?$AAE?$AAn?$AAa?$AAb?$AAl?$AAe?$AAd?$AA?$AA@ 000000018002f8c0     BerconTile.obj
 0002:000038d8       ??_C@_1BI@KGCLGEMF@?$AAm?$AAa?$AAp?$AA1?$AAE?$AAn?$AAa?$AAb?$AAl?$AAe?$AAd?$AA?$AA@ 000000018002f8d8     BerconTile.obj
 0002:000038f0       ??_C@_1O@OCFKHCNP@?$AAc?$AAo?$AAl?$AAo?$AAr?$AA3?$AA?$AA@ 000000018002f8f0     BerconTile.obj
 0002:00003900       ??_C@_1O@FKOGBFLK@?$AAc?$AAo?$AAl?$AAo?$AAr?$AA2?$AA?$AA@ 000000018002f900     BerconTile.obj
 0002:00003910       ??_C@_1O@EIFDLKFE@?$AAc?$AAo?$AAl?$AAo?$AAr?$AA1?$AA?$AA@ 000000018002f910     BerconTile.obj
 0002:00003920       ??_C@_1BK@BOMFFBEI@?$AAb?$AAm?$AAa?$AAp?$AA2?$AAE?$AAn?$AAa?$AAb?$AAl?$AAe?$AAd?$AA?$AA@ 000000018002f920     BerconTile.obj
 0002:00003940       ??_C@_1M@CJBLNJAJ@?$AAb?$AAm?$AAa?$AAp?$AA2?$AA?$AA@ 000000018002f940     BerconTile.obj
 0002:00003950       ??_C@_1BK@PEEDIMCK@?$AAb?$AAm?$AAa?$AAp?$AA1?$AAE?$AAn?$AAa?$AAb?$AAl?$AAe?$AAd?$AA?$AA@ 000000018002f950     BerconTile.obj
 0002:00003970       ??_C@_1M@DLKOHGOH@?$AAb?$AAm?$AAa?$AAp?$AA1?$AA?$AA@ 000000018002f970     BerconTile.obj
 0002:00003988       ??_7BerconTileClassDesc@@6B@ 000000018002f988     BerconTile.obj
 0002:00003b20       ??_C@_1BG@HMMMJDJP@?$AAB?$AAe?$AAr?$AAc?$AAo?$AAn?$AAT?$AAi?$AAl?$AAe?$AA?$AA@ 000000018002fb20     BerconTile.obj
 0002:00003e88       ??_7BerconTile@@6BReferenceTarget@@@ 000000018002fe88     BerconTile.obj
 0002:00004500       ??_7BerconTile@@6BISubMap@@@ 0000000180030500     BerconTile.obj
 0002:00004550       ??_7BerconTile@@6B@        0000000180030550     BerconTile.obj
 0002:00004580       ??_7BerconTileDlgProc@@6B@ 0000000180030580     BerconTile.obj
 0002:000045b8       ??_C@_1BM@FKDFOLKD@?$AA0?$AA?0?$AA1?$AA?0?$AA1?$AA?1?$AA?4?$AA5?$AA?0?$AA?4?$AA5?$AA?0?$AA1?$AA?$AA@ 00000001800305b8     BerconTile.obj
 0002:000045d8       ??_C@_0BA@JFNIOLAK@string?5too?5long?$AA@ 00000001800305d8     BerconTile.obj
 0002:000045e8       ??_C@_0BI@CFPLBAOH@invalid?5string?5position?$AA@ 00000001800305e8     BerconTile.obj
 0002:00004600       __real@38d1b717            0000000180030600     BerconTile.obj
 0002:00004604       __real@3c8efaa4            0000000180030604     BerconTile.obj
 0002:00004608       __real@3dcccccd            0000000180030608     BerconTile.obj
 0002:00004610       __real@3fd3333340000000    0000000180030610     BerconTile.obj
 0002:00004618       __real@4000000000000000    0000000180030618     BerconTile.obj
 0002:00004620       __real@4010000000000000    0000000180030620     BerconTile.obj
 0002:00004628       __real@4039000000000000    0000000180030628     BerconTile.obj
 0002:00004630       __real@4059000000000000    0000000180030630     BerconTile.obj
 0002:00004638       __real@4066800000000000    0000000180030638     BerconTile.obj
 0002:00004640       __real@43340000            0000000180030640     BerconTile.obj
 0002:00004644       __real@49742400            0000000180030644     BerconTile.obj
 0002:00004648       __real@bf000000            0000000180030648     BerconTile.obj
 0002:0000464c       __real@c9742400            000000018003064c     BerconTile.obj
 0002:00004650       __xmm@42c8000042c800004348000043480000 0000000180030650     BerconTile.obj
 0002:00004668       ??_7BerconWoodClassDesc@@6B@ 0000000180030668     BerconWood.obj
 0002:00004800       ??_C@_1BG@GPLMDENA@?$AAB?$AAe?$AAr?$AAc?$AAo?$AAn?$AAW?$AAo?$AAo?$AAd?$AA?$AA@ 0000000180030800     BerconWood.obj
 0002:00004818       ??_C@_1BA@BCHLBBAP@?$AAs?$AAa?$AAm?$AAp?$AAl?$AAe?$AAs?$AA?$AA@ 0000000180030818     BerconWood.obj
 0002:00004828       ??_C@_19CCFLBDDD@?$AAs?$AAk?$AAe?$AAw?$AA?$AA@ 0000000180030828     BerconWood.obj
 0002:00004838       ??_C@_1BG@IBLEJHEI@?$AAr?$AAa?$AAn?$AAd?$AAo?$AAm?$AAS?$AAe?$AAe?$AAd?$AA?$AA@ 0000000180030838     BerconWood.obj
 0002:00004850       ??_C@_1BM@MHGPDJM@?$AAg?$AAa?$AAi?$AAn?$AAV?$AAa?$AAr?$AAi?$AAa?$AAt?$AAi?$AAo?$AAn?$AA?$AA@ 0000000180030850     BerconWood.obj
 0002:00004870       ??_C@_1BO@ECPLJFCD@?$AAw?$AAi?$AAd?$AAt?$AAh?$AAV?$AAa?$AAr?$AAi?$AAa?$AAt?$AAi?$AAo?$AAn?$AA?$AA@ 0000000180030870     BerconWood.obj
 0002:00004890       ??_C@_1BE@GJBNEGJB@?$AAg?$AAr?$AAa?$AAi?$AAn?$AAL?$AAo?$AAc?$AAk?$AA?$AA@ 0000000180030890     BerconWood.obj
 0002:000048a8       ??_C@_1BE@HAHMKGEE@?$AAg?$AAr?$AAa?$AAi?$AAn?$AAF?$AAr?$AAe?$AAq?$AA?$AA@ 00000001800308a8     BerconWood.obj
 0002:000048c0       ??_C@_1BC@CHOMLLBM@?$AAg?$AAr?$AAa?$AAi?$AAn?$AAS?$AAt?$AAr?$AA?$AA@ 00000001800308c0     BerconWood.obj
 0002:000048d8       ??_C@_1BC@BKNHLGGL@?$AAa?$AAn?$AAg?$AAl?$AAe?$AAR?$AAa?$AAd?$AA?$AA@ 00000001800308d8     BerconWood.obj
 0002:000048f0       ??_C@_1BE@GAKFLNAE@?$AAa?$AAn?$AAg?$AAl?$AAe?$AAF?$AAr?$AAe?$AAq?$AA?$AA@ 00000001800308f0     BerconWood.obj
 0002:00004908       ??_C@_1BC@PABECNJO@?$AAa?$AAn?$AAg?$AAl?$AAe?$AAS?$AAt?$AAr?$AA?$AA@ 0000000180030908     BerconWood.obj
 0002:00004920       ??_C@_1BA@JLDBLEIA@?$AAr?$AAa?$AAd?$AAi?$AAa?$AAl?$AAZ?$AA?$AA@ 0000000180030920     BerconWood.obj
 0002:00004930       ??_C@_1BG@BKHLNMEC@?$AAr?$AAa?$AAd?$AAi?$AAa?$AAl?$AAF?$AAr?$AAe?$AAq?$AA?$AA@ 0000000180030930     BerconWood.obj
 0002:00004948       ??_C@_1BE@MAEEJBGC@?$AAr?$AAa?$AAd?$AAi?$AAa?$AAl?$AAS?$AAt?$AAr?$AA?$AA@ 0000000180030948     BerconWood.obj
 0002:00004960       ??_C@_1BE@PAGLOPGC@?$AAt?$AAr?$AAu?$AAn?$AAk?$AAF?$AAr?$AAe?$AAq?$AA?$AA@ 0000000180030960     BerconWood.obj
 0002:00004978       ??_C@_1BC@OGGKLNK@?$AAt?$AAr?$AAu?$AAn?$AAk?$AAS?$AAt?$AAr?$AA?$AA@ 0000000180030978     BerconWood.obj
 0002:00004990       ??_C@_1BC@PCCOIOPC@?$AAw?$AAo?$AAo?$AAd?$AAT?$AAy?$AAp?$AAe?$AA?$AA@ 0000000180030990     BerconWood.obj
 0002:000049a8       ??_C@_1BE@OPFLOLOL@?$AAt?$AAr?$AAe?$AAs?$AAh?$AAH?$AAi?$AAg?$AAh?$AA?$AA@ 00000001800309a8     BerconWood.obj
 0002:000049c0       ??_C@_1BC@OKAAOBEK@?$AAt?$AAr?$AAe?$AAs?$AAh?$AAL?$AAo?$AAw?$AA?$AA@ 00000001800309c0     BerconWood.obj
 0002:000049d8       ??_C@_1BM@LKPLBAOF@?$AAb?$AAm?$AAa?$AAp?$AA1?$AA6?$AAE?$AAn?$AAa?$AAb?$AAl?$AAe?$AAd?$AA?$AA@ 00000001800309d8     BerconWood.obj
 0002:000049f8       ??_C@_1O@HNBJCNPB@?$AAb?$AAm?$AAa?$AAp?$AA1?$AA6?$AA?$AA@ 00000001800309f8     BerconWood.obj
 0002:00004a08       ??_C@_1BM@FAHNMNIH@?$AAb?$AAm?$AAa?$AAp?$AA1?$AA5?$AAE?$AAn?$AAa?$AAb?$AAl?$AAe?$AAd?$AA?$AA@ 0000000180030a08     BerconWood.obj
 0002:00004a28       ??_C@_1O@GPKMICBP@?$AAb?$AAm?$AAa?$AAp?$AA1?$AA5?$AA?$AA@ 0000000180030a28     BerconWood.obj
 0002:00004a38       ??_C@_1BM@LPCPHLGG@?$AAb?$AAm?$AAa?$AAp?$AA1?$AA4?$AAE?$AAn?$AAa?$AAb?$AAl?$AAe?$AAd?$AA?$AA@ 0000000180030a38     BerconWood.obj
 0002:00004a58       ??_C@_1O@NHBAOFHK@?$AAb?$AAm?$AAa?$AAp?$AA1?$AA4?$AA?$AA@ 0000000180030a58     BerconWood.obj
 0002:00004a68       ??_C@_1BM@FOABHBAC@?$AAb?$AAm?$AAa?$AAp?$AA1?$AA3?$AAE?$AAn?$AAa?$AAb?$AAl?$AAe?$AAd?$AA?$AA@ 0000000180030a68     BerconWood.obj
 0002:00004a88       ??_C@_1O@EKMHNNMD@?$AAb?$AAm?$AAa?$AAp?$AA1?$AA3?$AA?$AA@ 0000000180030a88     BerconWood.obj
 0002:00004a98       ??_C@_1BM@LBFDMHOD@?$AAb?$AAm?$AAa?$AAp?$AA1?$AA2?$AAE?$AAn?$AAa?$AAb?$AAl?$AAe?$AAd?$AA?$AA@ 0000000180030a98     BerconWood.obj
 0002:00004ab8       ??_C@_1O@PCHLLKKG@?$AAb?$AAm?$AAa?$AAp?$AA1?$AA2?$AA?$AA@ 0000000180030ab8     BerconWood.obj
 0002:00004ac8       ??_C@_1BM@FLNFBKIB@?$AAb?$AAm?$AAa?$AAp?$AA1?$AA1?$AAE?$AAn?$AAa?$AAb?$AAl?$AAe?$AAd?$AA?$AA@ 0000000180030ac8     BerconWood.obj
 0002:00004ae8       ??_C@_1O@OAMOBFEI@?$AAb?$AAm?$AAa?$AAp?$AA1?$AA1?$AA?$AA@ 0000000180030ae8     BerconWood.obj
 0002:00004af8       ??_C@_1BM@LEIHKMGA@?$AAb?$AAm?$AAa?$AAp?$AA1?$AA0?$AAE?$AAn?$AAa?$AAb?$AAl?$AAe?$AAd?$AA?$AA@ 0000000180030af8     BerconWood.obj
 0002:00004b18       ??_C@_1O@FIHCHCCN@?$AAb?$AAm?$AAa?$AAp?$AA1?$AA0?$AA?$AA@ 0000000180030b18     BerconWood.obj
 0002:00004b28       ??_C@_1BK@ODBCCCCG@?$AAb?$AAm?$AAa?$AAp?$AA9?$AAE?$AAn?$AAa?$AAb?$AAl?$AAe?$AAd?$AA?$AA@ 0000000180030b28     BerconWood.obj
 0002:00004b48       ??_C@_1M@POBKFOAI@?$AAb?$AAm?$AAa?$AAp?$AA9?$AA?$AA@ 0000000180030b48     BerconWood.obj
 0002:00004b58       ??_C@_1BK@MEAJEMH@?$AAb?$AAm?$AAa?$AAp?$AA8?$AAE?$AAn?$AAa?$AAb?$AAl?$AAe?$AAd?$AA?$AA@ 0000000180030b58     BerconWood.obj
 0002:00004b78       ??_C@_1M@EGKGDJGN@?$AAb?$AAm?$AAa?$AAp?$AA8?$AA?$AA@ 0000000180030b78     BerconWood.obj
 0002:00004b88       ??_C@_1BK@PKDPDAKP@?$AAb?$AAm?$AAa?$AAp?$AA7?$AAE?$AAn?$AAa?$AAb?$AAl?$AAe?$AAd?$AA?$AA@ 0000000180030b88     BerconWood.obj
 0002:00004ba8       ??_C@_1M@BOMFCJDL@?$AAb?$AAm?$AAa?$AAp?$AA7?$AA?$AA@ 0000000180030ba8     BerconWood.obj
 0002:00004bb8       ??_C@_1BK@BFGNIGEO@?$AAb?$AAm?$AAa?$AAp?$AA6?$AAE?$AAn?$AAa?$AAb?$AAl?$AAe?$AAd?$AA?$AA@ 0000000180030bb8     BerconWood.obj
 0002:00004bd8       ??_C@_1M@KGHJEOFO@?$AAb?$AAm?$AAa?$AAp?$AA6?$AA?$AA@ 0000000180030bd8     BerconWood.obj
 0002:00004be8       ??_C@_1BK@PPOLFLCM@?$AAb?$AAm?$AAa?$AAp?$AA5?$AAE?$AAn?$AAa?$AAb?$AAl?$AAe?$AAd?$AA?$AA@ 0000000180030be8     BerconWood.obj
 0002:00004c08       ??_C@_1M@LEMMOBLA@?$AAb?$AAm?$AAa?$AAp?$AA5?$AA?$AA@ 0000000180030c08     BerconWood.obj
 0002:00004c18       ??_C@_1BK@BALJONMN@?$AAb?$AAm?$AAa?$AAp?$AA4?$AAE?$AAn?$AAa?$AAb?$AAl?$AAe?$AAd?$AA?$AA@ 0000000180030c18     BerconWood.obj
 0002:00004c38       ??_C@_1M@MHAIGNF@?$AAb?$AAm?$AAa?$AAp?$AA4?$AA?$AA@ 0000000180030c38     BerconWood.obj
 0002:00004c48       ??_C@_1BK@PBJHOHKJ@?$AAb?$AAm?$AAa?$AAp?$AA3?$AAE?$AAn?$AAa?$AAb?$AAl?$AAe?$AAd?$AA?$AA@ 0000000180030c48     BerconWood.obj
 0002:00004c68       ??_C@_1M@JBKHLOGM@?$AAb?$AAm?$AAa?$AAp?$AA3?$AA?$AA@ 0000000180030c68     BerconWood.obj
 0002:00004e60       ??_7BerconWood@@6BReferenceTarget@@@ 0000000180030e60     BerconWood.obj
 0002:000054d8       ??_7BerconWood@@6BISubMap@@@ 00000001800314d8     BerconWood.obj
 0002:00005528       ??_7BerconWood@@6B@        0000000180031528     BerconWood.obj
 0002:00005558       ??_7BerconWoodDlgProc@@6B@ 0000000180031558     BerconWood.obj
 0002:00005590       __real@3c23d70a            0000000180031590     BerconWood.obj
 0002:00005594       __real@3d23d70a            0000000180031594     BerconWood.obj
 0002:00005598       __real@3e4ccccd            0000000180031598     BerconWood.obj
 0002:0000559c       __real@3e78d4fe            000000018003159c     BerconWood.obj
 0002:000055a0       __real@3e800000            00000001800315a0     BerconWood.obj
 0002:000055a4       __real@3e99999a            00000001800315a4     BerconWood.obj
 0002:000055a8       __real@3eac8b44            00000001800315a8     BerconWood.obj
 0002:000055ac       __real@3ec8b439            00000001800315ac     BerconWood.obj
 0002:000055b0       __real@3f0c8b44            00000001800315b0     BerconWood.obj
 0002:000055b4       __real@3f116873            00000001800315b4     BerconWood.obj
 0002:000055b8       __real@3f400000            00000001800315b8     BerconWood.obj
 0002:000055bc       __real@3f449ba6            00000001800315bc     BerconWood.obj
 0002:000055c0       __real@3f50624dd2f1a9fc    00000001800315c0     BerconWood.obj
 0002:000055c8       __real@3f847ae140000000    00000001800315c8     BerconWood.obj
 0002:000055d0       __real@3fa47ae140000000    00000001800315d0     BerconWood.obj
 0002:000055d8       __real@3fc99999a0000000    00000001800315d8     BerconWood.obj
 0002:000055e0       __real@3fd0000000000000    00000001800315e0     BerconWood.obj
 0002:000055e8       __real@3fe0000000000000    00000001800315e8     BerconWood.obj
 0002:000055f0       __real@3fe8000000000000    00000001800315f0     BerconWood.obj
 0002:000055f8       __real@4008000000000000    00000001800315f8     BerconWood.obj
 0002:00005600       __real@4014000000000000    0000000180031600     BerconWood.obj
 0002:00005608       __real@4028b0a3e0000000    0000000180031608     BerconWood.obj
 0002:00005610       __real@402e000000000000    0000000180031610     BerconWood.obj
 0002:00005618       __real@40a00000            0000000180031618     BerconWood.obj
 0002:0000561c       __real@4145851f            000000018003161c     BerconWood.obj
 0002:00005620       __real@41700000            0000000180031620     BerconWood.obj
 0002:00005628       ??_C@_1BK@BFMCNHEO@?$AAC?$AAo?$AAm?$AAc?$AAt?$AAl?$AA3?$AA2?$AA?4?$AAd?$AAl?$AAl?$AA?$AA@ 0000000180031628     DllEntry.obj
 0002:00005648       ?debugString@?4??IsolationAwarePrivatenPgViNgRzlnPgpgk@@9@4QBDB 0000000180031648     DllEntry.obj
 0002:00005688       ??_C@_0BD@KDNHKDOA@InitCommonControls?$AA@ 0000000180031688     DllEntry.obj
 0002:000056a0       ?c@?1??CommctrlIsolationAwarePrivatetRgCebPnQQeRff_pbZPgYQP_QYY@@9@4UIsolationAwarePrivate_pBAFGnAG_zBqHyr_vAsB@@B 00000001800316a0     DllEntry.obj
 0002:000056b0       ??_C@_1BK@JEDIBDND@?$AAL?$AAi?$AAb?$AAC?$AAl?$AAa?$AAs?$AAs?$AAD?$AAe?$AAs?$AAc?$AA?$AA@ 00000001800316b0     DllEntry.obj
 0002:000056d0       ??_C@_1FM@FHBPLIJN@?$AAg?$AA?3?$AA?2?$AAd?$AAr?$AAo?$AAp?$AAb?$AAo?$AAx?$AA?2?$AAg?$AAi?$AAt?$AAh?$AAu?$AAb?$AA?2?$AAb?$AAe?$AAr?$AAc?$AAo?$AAn?$AAm?$AAa?$AAp?$AAs?$AA?2?$AAs?$AAr?$AAc@ 00000001800316d0     DllEntry.obj
 0002:0000572c       __real@3c8efa35            000000018003172c     BerconCommon.obj
 0002:00005730       __real@46fffe00            0000000180031730     BerconCommon.obj
 0002:00005740       ??_7BerconNoiseClassDesc@@6B@ 0000000180031740     BerconNoise.obj
 0002:000058d8       ??_C@_1BI@OFHJLFOO@?$AAB?$AAe?$AAr?$AAc?$AAo?$AAn?$AAN?$AAo?$AAi?$AAs?$AAe?$AA?$AA@ 00000001800318d8     BerconNoise.obj
 0002:000058f0       ??_C@_1BM@NGCAEKNK@?$AAU?$AAV?$AAW?$AAd?$AAi?$AAs?$AAt?$AAo?$AAr?$AAt?$AAi?$AAo?$AAn?$AA?$AA@ 00000001800318f0     BerconNoise.obj
 0002:00005910       ??_C@_1CE@MPOFFPKF@?$AAf?$AAr?$AAa?$AAc?$AAt?$AAa?$AAl?$AAL?$AAa?$AAc?$AAu?$AAn?$AAa?$AAr?$AAi?$AAt?$AAy?$AA?$AA@ 0000000180031910     BerconNoise.obj
 0002:00005938       ??_C@_1BC@KFPODIIO@?$AAf?$AAr?$AAa?$AAc?$AAt?$AAa?$AAl?$AAH?$AA?$AA@ 0000000180031938     BerconNoise.obj
 0002:00005950       ??_C@_1BM@HCLHIJIH@?$AAf?$AAr?$AAa?$AAc?$AAt?$AAa?$AAl?$AAO?$AAf?$AAf?$AAs?$AAe?$AAt?$AA?$AA@ 0000000180031950     BerconNoise.obj
 0002:00005970       ??_C@_1BI@BFKJFNPK@?$AAf?$AAr?$AAa?$AAc?$AAt?$AAa?$AAl?$AAG?$AAa?$AAi?$AAn?$AA?$AA@ 0000000180031970     BerconNoise.obj
 0002:00005988       ??_C@_1O@FNHNBIHH@?$AAl?$AAe?$AAv?$AAe?$AAl?$AAs?$AA?$AA@ 0000000180031988     BerconNoise.obj
 0002:00005998       ??_C@_1BI@IFLGJJNN@?$AAf?$AAr?$AAa?$AAc?$AAt?$AAa?$AAl?$AAT?$AAy?$AAp?$AAe?$AA?$AA@ 0000000180031998     BerconNoise.obj
 0002:000059b0       ??_C@_1BK@IIBHKCH@?$AAw?$AAo?$AAr?$AAl?$AAe?$AAy?$AAS?$AAp?$AAr?$AAe?$AAa?$AAd?$AA?$AA@ 00000001800319b0     BerconNoise.obj
 0002:000059d0       ??_C@_17JKAADOJI@?$AAw?$AAF?$AA4?$AA?$AA@ 00000001800319d0     BerconNoise.obj
 0002:000059d8       ??_C@_17HNHAGCB@?$AAw?$AAF?$AA3?$AA?$AA@ 00000001800319d8     BerconNoise.obj
 0002:000059e0       ??_C@_17LPGLGBEE@?$AAw?$AAF?$AA2?$AA?$AA@ 00000001800319e0     BerconNoise.obj
 0002:000059e8       ??_C@_17KNNOMOKK@?$AAw?$AAF?$AA1?$AA?$AA@ 00000001800319e8     BerconNoise.obj
 0002:000059f0       ??_C@_1BO@KFPLBLON@?$AAw?$AAo?$AAr?$AAl?$AAe?$AAy?$AAD?$AAi?$AAs?$AAt?$AAa?$AAn?$AAc?$AAe?$AA?$AA@ 00000001800319f0     BerconNoise.obj
 0002:00005a10       ??_C@_1BO@FFCIKJO@?$AAn?$AAo?$AAi?$AAs?$AAe?$AA_?$AAf?$AAu?$AAn?$AAc?$AAt?$AAi?$AAo?$AAn?$AA?$AA@ 0000000180031a10     BerconNoise.obj
 0002:00005a30       ??_C@_1M@PPFPCEJL@?$AAp?$AAh?$AAa?$AAs?$AAe?$AA?$AA@ 0000000180031a30     BerconNoise.obj
 0002:00005a40       ??_C@_1BM@FDGPINOP@?$AAt?$AAh?$AAr?$AAe?$AAs?$AAh?$AAo?$AAl?$AAd?$AAH?$AAi?$AAg?$AAh?$AA?$AA@ 0000000180031a40     BerconNoise.obj
 0002:00005a60       ??_C@_1BK@GHPMGGPJ@?$AAt?$AAh?$AAr?$AAe?$AAs?$AAh?$AAo?$AAl?$AAd?$AAL?$AAo?$AAw?$AA?$AA@ 0000000180031a60     BerconNoise.obj
 0002:00005c68       ??_7BerconNoise@@6BReferenceTarget@@@ 0000000180031c68     BerconNoise.obj
 0002:000062e0       ??_7BerconNoise@@6BISubMap@@@ 00000001800322e0     BerconNoise.obj
 0002:00006330       ??_7BerconNoise@@6B@       0000000180032330     BerconNoise.obj
 0002:00006360       ??_7BerconNoiseDlgProc@@6B@ 0000000180032360     BerconNoise.obj
 0002:00006398       ??_C@_1CG@JEPHKPPG@?$AAB?$AAe?$AAr?$AAc?$AAo?$AAn?$AAN?$AAo?$AAi?$AAs?$AAe?$AA?3?$AA?3?$AAR?$AAe?$AAs?$AAe?$AAt?$AA?$AA@ 0000000180032398     BerconNoise.obj
 0002:000063c0       ??_C@_1GC@JFMJJLAB@?$AAg?$AA?3?$AA?2?$AAd?$AAr?$AAo?$AAp?$AAb?$AAo?$AAx?$AA?2?$AAg?$AAi?$AAt?$AAh?$AAu?$AAb?$AA?2?$AAb?$AAe?$AAr?$AAc?$AAo?$AAn?$AAm?$AAa?$AAp?$AAs?$AA?2?$AAs?$AAr?$AAc@ 00000001800323c0     BerconNoise.obj
 0002:00006428       ??_C@_19PAJENPI@?$AAs?$AAw?$AAa?$AAp?$AA?$AA@ 0000000180032428     BerconNoise.obj
 0002:00006438       __real@4034000000000000    0000000180032438     BerconNoise.obj
 0002:00006440       __real@41c80000            0000000180032440     BerconNoise.obj
 0002:00006448       __real@c08f400000000000    0000000180032448     BerconNoise.obj
 0002:00006450       __real@bf800000            0000000180032450     fractal.obj
 0002:00006480       __real@437f0000            0000000180032480     GradientRamp.obj
 0002:00006488       ??_C@_1BK@CABEKACK@?$AAC?$AAu?$AAs?$AAt?$AAG?$AAr?$AAa?$AAd?$AAi?$AAe?$AAn?$AAt?$AA?$AA@ 0000000180032488     IGradient.obj
 0002:000064a4       __real@3f900000            00000001800324a4     noise.obj
 0002:000064a8       __real@4049999a            00000001800324a8     noise.obj
 0002:000064ac       __real@40b00000            00000001800324ac     noise.obj
 0002:000064b0       __real@40e33333            00000001800324b0     noise.obj
 0002:000064b4       __real@4129999a            00000001800324b4     noise.obj
 0002:000064b8       __real@439d1127            00000001800324b8     noise.obj
 0002:000064bc       __real@b8d1b717            00000001800324bc     noise.obj
 0002:000064c0       __real@3e0d8369            00000001800324c0     perlin.obj
 0002:000064c4       __real@3e2aaaab            00000001800324c4     perlin.obj
 0002:000064c8       __real@3e58658c            00000001800324c8     perlin.obj
 0002:000064cc       __real@3e8d8369            00000001800324cc     perlin.obj
 0002:000064d0       __real@3e9e377a            00000001800324d0     perlin.obj
 0002:000064d4       __real@3eaaaaab            00000001800324d4     perlin.obj
 0002:000064d8       __real@3ebb67ae            00000001800324d8     perlin.obj
 0002:000064dc       __real@3eca4588            00000001800324dc     perlin.obj
 0002:000064e0       __real@3ed4451e            00000001800324e0     perlin.obj
 0002:000064e4       __real@3ed8658c            00000001800324e4     perlin.obj
 0002:000064e8       __real@3ee4f92e            00000001800324e8     perlin.obj
 0002:000064ec       __real@3f01cac1            00000001800324ec     perlin.obj
 0002:000064f0       __real@3f19999a            00000001800324f0     perlin.obj
 0002:000064f4       __real@3f5eb852            00000001800324f4     perlin.obj
 0002:000064f8       __real@3f6f9db2            00000001800324f8     perlin.obj
 0002:000064fc       __real@3f7ff972            00000001800324fc     perlin.obj
 0002:00006500       __real@3f99999a            0000000180032500     perlin.obj
 0002:00006504       __real@400ccccd            0000000180032504     perlin.obj
 0002:00006508       __real@40c00000            0000000180032508     perlin.obj
 0002:0000650c       __real@41200000            000000018003250c     perlin.obj
 0002:00006510       __real@41d80000            0000000180032510     perlin.obj
 0002:00006514       __real@42000000            0000000180032514     perlin.obj
 0002:00006518       __real@42200000            0000000180032518     perlin.obj
 0002:0000651c       __real@c0000000            000000018003251c     perlin.obj
 0002:000067f0       ??_C@_1BA@HLCPMHKJ@?$AA0?$AA?0?$AA?5?$AA1?$AA?0?$AA?5?$AA1?$AA?$AA@ 00000001800327f0     tile.obj
 0002:00006800       ??_C@_1CI@MGOLCOH@?$AA0?$AA?0?$AA?5?$AA1?$AA?0?$AA?5?$AA1?$AA?5?$AA?1?$AA?5?$AA0?$AA?4?$AA5?$AA?0?$AA?5?$AA1?$AA?0?$AA?5?$AA1?$AA?$AA@ 0000000180032800     tile.obj
 0002:00006830       ??_C@_1HM@KFKBNDNL@?$AA?4?$AA2?$AA5?$AA?0?$AA?5?$AA1?$AA?0?$AA?5?$AA1?$AA?0?$AA?5?$AA?4?$AA5?$AA?5?$AA?1?$AA?5?$AA?9?$AA?4?$AA5?$AA?0?$AA?5?$AA1?$AA?0?$AA?5?$AA1?$AA?5?$AA?1?$AA?5?$AA?9?$AA?4?$AA5?$AA?0@ 0000000180032830     tile.obj
 0002:000068b0       ??_C@_1HG@LGFFBGEF@?$AA?4?$AA2?$AA5?$AA?0?$AA?5?$AA1?$AA?0?$AA?5?$AA?4?$AA5?$AA?5?$AA?1?$AA?5?$AA?9?$AA?4?$AA5?$AA?0?$AA?5?$AA1?$AA?0?$AA?5?$AA1?$AA?5?$AA?1?$AA?5?$AA?9?$AA?4?$AA5?$AA?0?$AA?5?$AA1?$AA?0@ 00000001800328b0     tile.obj
 0002:00006928       ??_C@_1DI@OGPGLDJP@?$AA0?$AA?0?$AA?5?$AA1?$AA?0?$AA?5?$AA1?$AA?0?$AA?5?$AA?4?$AA5?$AA?5?$AA?1?$AA?5?$AA?4?$AA7?$AA5?$AA?0?$AA?5?$AA1?$AA?0?$AA?5?$AA1?$AA?0?$AA?5?$AA?4?$AA5?$AA?$AA@ 0000000180032928     tile.obj
 0002:00006960       ??_C@_1EG@NKHPAEJM@?$AA0?$AA?0?$AA?5?$AA1?$AA?0?$AA?5?$AA1?$AA?0?$AA?5?$AA1?$AA?0?$AA?5?$AA?4?$AA5?$AA?5?$AA?1?$AA?5?$AA1?$AA?4?$AA2?$AA5?$AA?0?$AA?5?$AA1?$AA?0?$AA?5?$AA1?$AA?0?$AA?5?$AA1?$AA?0?$AA?5@ 0000000180032960     tile.obj
 0002:000069b0       ??_C@_1FC@MFPKJHBG@?$AA0?$AA?0?$AA?5?$AA1?$AA?0?$AA?5?$AA1?$AA?0?$AA?5?$AA1?$AA?0?$AA?5?$AA1?$AA?0?$AA?5?$AA?4?$AA5?$AA?5?$AA?1?$AA?5?$AA1?$AA?4?$AA7?$AA5?$AA?0?$AA?5?$AA1?$AA?0?$AA?5?$AA1?$AA?0?$AA?5@ 00000001800329b0     tile.obj
 0002:00006a08       ??_C@_1CK@FBIPLABB@?$AA?4?$AA2?$AA5?$AA?0?$AA?5?$AA1?$AA?0?$AA?5?$AA?4?$AA5?$AA?5?$AA?1?$AA?5?$AA0?$AA?0?$AA?5?$AA1?$AA?0?$AA?5?$AA1?$AA?$AA@ 0000000180032a08     tile.obj
 0002:00006a40       ??_C@_1FC@LEIJMHNO@?$AA0?$AA?0?$AA1?$AA?0?$AA1?$AA?5?$AA?1?$AA?5?$AA?9?$AA?4?$AA2?$AA5?$AA?0?$AA1?$AA?0?$AA?4?$AA5?$AA?5?$AA?1?$AA?5?$AA?9?$AA?4?$AA2?$AA5?$AA?0?$AA1?$AA?0?$AA1?$AA?5?$AA?1?$AA?5?$AA?9@ 0000000180032a40     tile.obj
 0002:00006aa0       ??_C@_1FC@DKDGEDND@?$AA0?$AA?0?$AA1?$AA?0?$AA?4?$AA5?$AA?5?$AA?1?$AA?5?$AA?9?$AA?4?$AA2?$AA5?$AA?0?$AA1?$AA?0?$AA?4?$AA5?$AA?5?$AA?1?$AA?5?$AA?9?$AA?4?$AA2?$AA5?$AA?0?$AA1?$AA?0?$AA1?$AA?5?$AA?1?$AA?5@ 0000000180032aa0     tile.obj
 0002:00006b00       ??_7?$basic_stringbuf@_WU?$char_traits@_W@std@@V?$allocator@_W@2@@std@@6B@ 0000000180032b00     tile.obj
 0002:00006b80       ??_7?$basic_stringstream@_WU?$char_traits@_W@std@@V?$allocator@_W@2@@std@@6B@ 0000000180032b80     tile.obj
 0002:00006b88       ??_8?$basic_stringstream@_WU?$char_traits@_W@std@@V?$allocator@_W@2@@std@@7B?$basic_istream@_WU?$char_traits@_W@std@@@1@@ 0000000180032b88     tile.obj
 0002:00006b90       ??_8?$basic_stringstream@_WU?$char_traits@_W@std@@V?$allocator@_W@2@@std@@7B?$basic_ostream@_WU?$char_traits@_W@std@@@1@@ 0000000180032b90     tile.obj
 0002:00006b98       ??_C@_13CGOKJPIL@?$AA?1?$AA?$AA@ 0000000180032b98     tile.obj
 0002:00006b9c       ??_C@_13DEFPDAGF@?$AA?0?$AA?$AA@ 0000000180032b9c     tile.obj
 0002:00006ba0       ??_C@_0BD@OLBABOEK@vector?$DMT?$DO?5too?5long?$AA@ 0000000180032ba0     tile.obj
 0002:00006bb4       __real@00000000            0000000180032bb4     tile.obj
 0002:00006bb8       __real@3dfcb924            0000000180032bb8     tile.obj
 0002:00006bbc       __real@3f490fdb            0000000180032bbc     tile.obj
 0002:00006bc0       __real@3f9d70a4            0000000180032bc0     tile.obj
 0002:00006bc4       __real@3fa9999a            0000000180032bc4     tile.obj
 0002:00006bc8       __real@3fb504f3            0000000180032bc8     tile.obj
 0002:00006bd0       __real@403f666666666666    0000000180032bd0     tile.obj
 0002:00006bd8       __real@4048f5c3            0000000180032bd8     tile.obj
 0002:00006bdc       __real@4096cbe4            0000000180032bdc     tile.obj
 0002:00006be0       __real@41fb4c0b            0000000180032be0     tile.obj
 0002:00006be4       __real@5f800000            0000000180032be4     tile.obj
 0002:00006bf0       __xmm@7fffffff7fffffff7fffffff7fffffff 0000000180032bf0     tile.obj
 0002:00006c00       __real@3df0000000000000    0000000180032c00     worley.obj
 0002:00006c08       __real@3fd97b4a2339c0ec    0000000180032c08     worley.obj
 0002:00006c10       __real@400417ca3f5539e6    0000000180032c10     worley.obj
 0002:00006c20       __xmm@400417ca3f5539e6400417ca3f5539e6 0000000180032c20     worley.obj
 0002:00006c30       GUID_NULL                  0000000180032c30     uuid:cguid_i.obj
 0002:00006c48       ??_7type_info@@6B@         0000000180032c48     MSVCRT:std_type_info_static.obj
 0002:00006c50       _pDefaultRawDllMain        0000000180032c50     MSVCRT:dll_dllmain.obj
 0002:00006c50       _pRawDllMain               0000000180032c50     MSVCRT:dll_dllmain.obj
 0002:00006c60       ??_7exception@std@@6B@     0000000180032c60     MSVCRT:throw_bad_alloc.obj
 0002:00006c70       ??_C@_0BC@EOODALEL@Unknown?5exception?$AA@ 0000000180032c70     MSVCRT:throw_bad_alloc.obj
 0002:00006c90       ??_7bad_alloc@std@@6B@     0000000180032c90     MSVCRT:throw_bad_alloc.obj
 0002:00006ca0       ??_C@_0P@GHFPNOJB@bad?5allocation?$AA@ 0000000180032ca0     MSVCRT:throw_bad_alloc.obj
 0002:00006cb8       ??_7bad_array_new_length@std@@6B@ 0000000180032cb8     MSVCRT:throw_bad_alloc.obj
 0002:00006cc8       ??_C@_0BF@KINCDENJ@bad?5array?5new?5length?$AA@ 0000000180032cc8     MSVCRT:throw_bad_alloc.obj
 0002:00006d00       _load_config_used          0000000180032d00     MSVCRT:loadcfg.obj
 0002:00006da0       ??_R4TabOutOfRangeException@Util@MaxSDK@@6B@ 0000000180032da0     BerconDistortion.obj
 0002:00006dc8       ??_R3TabOutOfRangeException@Util@MaxSDK@@8 0000000180032dc8     BerconDistortion.obj
 0002:00006de0       ??_R2TabOutOfRangeException@Util@MaxSDK@@8 0000000180032de0     BerconDistortion.obj
 0002:00006e08       ??_R1A@?0A@EA@TabOutOfRangeException@Util@MaxSDK@@8 0000000180032e08     BerconDistortion.obj
 0002:00006e30       ??_R1A@?0A@EA@OutOfRangeException@Util@MaxSDK@@8 0000000180032e30     BerconDistortion.obj
 0002:00006e58       ??_R3OutOfRangeException@Util@MaxSDK@@8 0000000180032e58     BerconDistortion.obj
 0002:00006e70       ??_R2OutOfRangeException@Util@MaxSDK@@8 0000000180032e70     BerconDistortion.obj
 0002:00006e90       ??_R1A@?0A@EA@Exception@Util@MaxSDK@@8 0000000180032e90     BerconDistortion.obj
 0002:00006eb8       ??_R3Exception@Util@MaxSDK@@8 0000000180032eb8     BerconDistortion.obj
 0002:00006ed0       ??_R2Exception@Util@MaxSDK@@8 0000000180032ed0     BerconDistortion.obj
 0002:00006ee8       ??_R17?0A@EA@MaxHeapOperators@@8 0000000180032ee8     BerconDistortion.obj
 0002:00006f10       ??_R3MaxHeapOperators@@8   0000000180032f10     BerconDistortion.obj
 0002:00006f28       ??_R2MaxHeapOperators@@8   0000000180032f28     BerconDistortion.obj
 0002:00006f38       ??_R1A@?0A@EA@MaxHeapOperators@@8 0000000180032f38     BerconDistortion.obj
 0002:00006f60       ??_R3InterfaceServer@@8    0000000180032f60     BerconDistortion.obj
 0002:00006f78       ??_R2InterfaceServer@@8    0000000180032f78     BerconDistortion.obj
 0002:00006f90       ??_R1A@?0A@EA@InterfaceServer@@8 0000000180032f90     BerconDistortion.obj
 0002:00006fb8       ??_R3BaseInterfaceServer@@8 0000000180032fb8     BerconDistortion.obj
 0002:00006fd0       ??_R2BaseInterfaceServer@@8 0000000180032fd0     BerconDistortion.obj
 0002:00006ff0       ??_R1A@?0A@EA@BaseInterfaceServer@@8 0000000180032ff0     BerconDistortion.obj
 0002:00007018       ??_R3ClassDesc@@8          0000000180033018     BerconDistortion.obj
 0002:00007030       ??_R2ClassDesc@@8          0000000180033030     BerconDistortion.obj
 0002:00007048       ??_R1A@?0A@EA@ClassDesc@@8 0000000180033048     BerconDistortion.obj
 0002:00007070       ??_R4XYZ_Desc@@6B@         0000000180033070     BerconDistortion.obj
 0002:00007098       ??_R3XYZ_Desc@@8           0000000180033098     BerconDistortion.obj
 0002:000070b0       ??_R2XYZ_Desc@@8           00000001800330b0     BerconDistortion.obj
 0002:000070e0       ??_R1A@?0A@EA@XYZ_Desc@@8  00000001800330e0     BerconDistortion.obj
 0002:00007108       ??_R1A@?0A@EA@ParamBlockDesc2@@8 0000000180033108     BerconDistortion.obj
 0002:00007130       ??_R3ParamBlockDesc2@@8    0000000180033130     BerconDistortion.obj
 0002:00007148       ??_R2ParamBlockDesc2@@8    0000000180033148     BerconDistortion.obj
 0002:00007170       ??_R4BerconDistortionClassDesc@@6B@ 0000000180033170     BerconDistortion.obj
 0002:00007198       ??_R3BerconDistortionClassDesc@@8 0000000180033198     BerconDistortion.obj
 0002:000071b0       ??_R2BerconDistortionClassDesc@@8 00000001800331b0     BerconDistortion.obj
 0002:000071d8       ??_R1A@?0A@EA@BerconDistortionClassDesc@@8 00000001800331d8     BerconDistortion.obj
 0002:00007200       ??_R1A@?0A@EA@ClassDesc2@@8 0000000180033200     BerconDistortion.obj
 0002:00007228       ??_R3ClassDesc2@@8         0000000180033228     BerconDistortion.obj
 0002:00007240       ??_R2ClassDesc2@@8         0000000180033240     BerconDistortion.obj
 0002:00007260       ??_R4InterfaceServer@@6B@  0000000180033260     BerconDistortion.obj
 0002:00007288       ??_R4BaseInterfaceServer@@6B@ 0000000180033288     BerconDistortion.obj
 0002:000072b0       ??_R1A@?0A@EA@ReferenceTarget@@8 00000001800332b0     BerconDistortion.obj
 0002:000072d8       ??_R3ReferenceTarget@@8    00000001800332d8     BerconDistortion.obj
 0002:000072f0       ??_R2ReferenceTarget@@8    00000001800332f0     BerconDistortion.obj
 0002:00007330       ??_R1A@?0A@EA@ReferenceMaker@@8 0000000180033330     BerconDistortion.obj
 0002:00007358       ??_R3ReferenceMaker@@8     0000000180033358     BerconDistortion.obj
 0002:00007370       ??_R2ReferenceMaker@@8     0000000180033370     BerconDistortion.obj
 0002:000073a8       ??_R1A@?0A@EA@Animatable@@8 00000001800333a8     BerconDistortion.obj
 0002:000073d0       ??_R3Animatable@@8         00000001800333d0     BerconDistortion.obj
 0002:000073e8       ??_R2Animatable@@8         00000001800333e8     BerconDistortion.obj
 0002:00007418       ??_R17?0A@EC@MaxHeapOperators@@8 0000000180033418     BerconDistortion.obj
 0002:00007440       ??_R18?0A@EA@Noncopyable@Util@MaxSDK@@8 0000000180033440     BerconDistortion.obj
 0002:00007468       ??_R3Noncopyable@Util@MaxSDK@@8 0000000180033468     BerconDistortion.obj
 0002:00007480       ??_R2Noncopyable@Util@MaxSDK@@8 0000000180033480     BerconDistortion.obj
 0002:00007498       ??_R1A@?0A@EA@Noncopyable@Util@MaxSDK@@8 0000000180033498     BerconDistortion.obj
 0002:000074c0       ??_R18?0A@EC@MaxHeapOperators@@8 00000001800334c0     BerconDistortion.obj
 0002:000074e8       ??_R1A@?0A@EC@InterfaceServer@@8 00000001800334e8     BerconDistortion.obj
 0002:00007510       ??_R1EI@?0A@EC@MaxHeapOperators@@8 0000000180033510     BerconDistortion.obj
 0002:00007538       ??_R4ParamMap2UserDlgProc@@6B@ 0000000180033538     BerconDistortion.obj
 0002:00007560       ??_R3ParamMap2UserDlgProc@@8 0000000180033560     BerconDistortion.obj
 0002:00007578       ??_R2ParamMap2UserDlgProc@@8 0000000180033578     BerconDistortion.obj
 0002:00007590       ??_R1A@?0A@EA@ParamMap2UserDlgProc@@8 0000000180033590     BerconDistortion.obj
 0002:000075b8       ??_R4ShadeContext@@6B@     00000001800335b8     BerconDistortion.obj
 0002:000075e0       ??_R3ShadeContext@@8       00000001800335e0     BerconDistortion.obj
 0002:000075f8       ??_R2ShadeContext@@8       00000001800335f8     BerconDistortion.obj
 0002:00007618       ??_R1A@?0A@EA@ShadeContext@@8 0000000180033618     BerconDistortion.obj
 0002:00007640       ??_R4RenderGlobalContext@@6B@ 0000000180033640     BerconDistortion.obj
 0002:00007668       ??_R3RenderGlobalContext@@8 0000000180033668     BerconDistortion.obj
 0002:00007680       ??_R2RenderGlobalContext@@8 0000000180033680     BerconDistortion.obj
 0002:000076a8       ??_R1A@?0A@EA@RenderGlobalContext@@8 00000001800336a8     BerconDistortion.obj
 0002:000076d0       ??_R4ShadeOutput@@6B@      00000001800336d0     BerconDistortion.obj
 0002:000076f8       ??_R3ShadeOutput@@8        00000001800336f8     BerconDistortion.obj
 0002:00007710       ??_R2ShadeOutput@@8        0000000180033710     BerconDistortion.obj
 0002:00007738       ??_R1A@?0A@EA@ShadeOutput@@8 0000000180033738     BerconDistortion.obj
 0002:00007760       ??_R3ISubMap@@8            0000000180033760     BerconDistortion.obj
 0002:00007778       ??_R2ISubMap@@8            0000000180033778     BerconDistortion.obj
 0002:00007790       ??_R1A@?0A@EA@ISubMap@@8   0000000180033790     BerconDistortion.obj
 0002:000077b8       ??_R4BerconXYZDlgProc@@6B@ 00000001800337b8     BerconDistortion.obj
 0002:000077e0       ??_R3BerconXYZDlgProc@@8   00000001800337e0     BerconDistortion.obj
 0002:000077f8       ??_R2BerconXYZDlgProc@@8   00000001800337f8     BerconDistortion.obj
 0002:00007818       ??_R1A@?0A@EA@BerconXYZDlgProc@@8 0000000180033818     BerconDistortion.obj
 0002:00007840       ??_R4BerconSC@@6BShadeContext@@@ 0000000180033840     BerconDistortion.obj
 0002:00007868       ??_R3BerconSC@@8           0000000180033868     BerconDistortion.obj
 0002:00007880       ??_R2BerconSC@@8           0000000180033880     BerconDistortion.obj
 0002:000078c8       ??_R1A@?0A@EA@BerconSC@@8  00000001800338c8     BerconDistortion.obj
 0002:000078f0       ??_R1CII@?0A@EA@RenderGlobalContext@@8 00000001800338f0     BerconDistortion.obj
 0002:00007918       ??_R1CII@?0A@EA@BaseInterfaceServer@@8 0000000180033918     BerconDistortion.obj
 0002:00007940       ??_R1CII@?0A@EC@InterfaceServer@@8 0000000180033940     BerconDistortion.obj
 0002:00007968       ??_R1CJA@?0A@EC@MaxHeapOperators@@8 0000000180033968     BerconDistortion.obj
 0002:00007990       ??_R4BerconSC@@6BRenderGlobalContext@@@ 0000000180033990     BerconDistortion.obj
 0002:000079b8       ??_R4BerconDistortion@@6BReferenceTarget@@@ 00000001800339b8     BerconDistortion.obj
 0002:000079e0       ??_R3BerconDistortion@@8   00000001800339e0     BerconDistortion.obj
 0002:00007a00       ??_R2BerconDistortion@@8   0000000180033a00     BerconDistortion.obj
 0002:00007a68       ??_R1A@?0A@EA@BerconDistortion@@8 0000000180033a68     BerconDistortion.obj
 0002:00007a90       ??_R1A@?0A@EA@Texmap@@8    0000000180033a90     BerconDistortion.obj
 0002:00007ab8       ??_R3Texmap@@8             0000000180033ab8     BerconDistortion.obj
 0002:00007ad0       ??_R2Texmap@@8             0000000180033ad0     BerconDistortion.obj
 0002:00007b30       ??_R1A@?0A@EA@MtlBase@@8   0000000180033b30     BerconDistortion.obj
 0002:00007b58       ??_R3MtlBase@@8            0000000180033b58     BerconDistortion.obj
 0002:00007b70       ??_R2MtlBase@@8            0000000180033b70     BerconDistortion.obj
 0002:00007bc8       ??_R1EA@?0A@EA@ISubMap@@8  0000000180033bc8     BerconDistortion.obj
 0002:00007bf0       ??_R4BerconDistortion@@6BISubMap@@@ 0000000180033bf0     BerconDistortion.obj
 0002:00007c18       ??_R4BerconGradientClassDesc@@6B@ 0000000180033c18     BerconGradient.obj
 0002:00007c40       ??_R3BerconGradientClassDesc@@8 0000000180033c40     BerconGradient.obj
 0002:00007c58       ??_R2BerconGradientClassDesc@@8 0000000180033c58     BerconGradient.obj
 0002:00007c80       ??_R1A@?0A@EA@BerconGradientClassDesc@@8 0000000180033c80     BerconGradient.obj
 0002:00007ca8       ??_R4ICustomControl@@6B@   0000000180033ca8     BerconGradient.obj
 0002:00007cd0       ??_R3ICustomControl@@8     0000000180033cd0     BerconGradient.obj
 0002:00007ce8       ??_R2ICustomControl@@8     0000000180033ce8     BerconGradient.obj
 0002:00007d08       ??_R1A@?0A@EA@ICustomControl@@8 0000000180033d08     BerconGradient.obj
 0002:00007d30       ??_R3ResourceMakerCallback@@8 0000000180033d30     BerconGradient.obj
 0002:00007d48       ??_R2ResourceMakerCallback@@8 0000000180033d48     BerconGradient.obj
 0002:00007d60       ??_R1A@?0A@EA@ResourceMakerCallback@@8 0000000180033d60     BerconGradient.obj
 0002:00007d88       ??_R3GradientMap@@8        0000000180033d88     BerconGradient.obj
 0002:00007da0       ??_R2GradientMap@@8        0000000180033da0     BerconGradient.obj
 0002:00007db0       ??_R1A@?0A@EA@GradientMap@@8 0000000180033db0     BerconGradient.obj
 0002:00007dd8       ??_R4IGradient@@6B@        0000000180033dd8     BerconGradient.obj
 0002:00007e00       ??_R3IGradient@@8          0000000180033e00     BerconGradient.obj
 0002:00007e18       ??_R2IGradient@@8          0000000180033e18     BerconGradient.obj
 0002:00007e40       ??_R1A@?0A@EA@IGradient@@8 0000000180033e40     BerconGradient.obj
 0002:00007e68       ??_R4BerconGradient@@6BReferenceTarget@@@ 0000000180033e68     BerconGradient.obj
 0002:00007e90       ??_R3BerconGradient@@8     0000000180033e90     BerconGradient.obj
 0002:00007eb0       ??_R2BerconGradient@@8     0000000180033eb0     BerconGradient.obj
 0002:00007f30       ??_R1A@?0A@EA@BerconGradient@@8 0000000180033f30     BerconGradient.obj
 0002:00007f58       ??_R1II@?0A@EA@GradientMap@@8 0000000180033f58     BerconGradient.obj
 0002:00007f80       ??_R1JA@?0A@EA@ResourceMakerCallback@@8 0000000180033f80     BerconGradient.obj
 0002:00007fa8       ??_R1JI@?0A@EC@MaxHeapOperators@@8 0000000180033fa8     BerconGradient.obj
 0002:00007fd0       ??_R4BerconGradient@@6BISubMap@@@ 0000000180033fd0     BerconGradient.obj
 0002:00007ff8       ??_R4BerconGradient@@6BGradientMap@@@ 0000000180033ff8     BerconGradient.obj
 0002:00008020       ??_R4BerconGradient@@6BResourceMakerCallback@@@ 0000000180034020     BerconGradient.obj
 0002:00008048       ??_R4BerconGradientDlgProc@@6B@ 0000000180034048     BerconGradient.obj
 0002:00008070       ??_R3BerconGradientDlgProc@@8 0000000180034070     BerconGradient.obj
 0002:00008088       ??_R2BerconGradientDlgProc@@8 0000000180034088     BerconGradient.obj
 0002:000080a8       ??_R1A@?0A@EA@BerconGradientDlgProc@@8 00000001800340a8     BerconGradient.obj
 0002:000080d0       ??_R4BerconTileClassDesc@@6B@ 00000001800340d0     BerconTile.obj
 0002:000080f8       ??_R3BerconTileClassDesc@@8 00000001800340f8     BerconTile.obj
 0002:00008110       ??_R2BerconTileClassDesc@@8 0000000180034110     BerconTile.obj
 0002:00008138       ??_R1A@?0A@EA@BerconTileClassDesc@@8 0000000180034138     BerconTile.obj
 0002:00008160       ??_R4BerconTile@@6BReferenceTarget@@@ 0000000180034160     BerconTile.obj
 0002:00008188       ??_R3BerconTile@@8         0000000180034188     BerconTile.obj
 0002:000081a0       ??_R2BerconTile@@8         00000001800341a0     BerconTile.obj
 0002:00008218       ??_R1A@?0A@EA@BerconTile@@8 0000000180034218     BerconTile.obj
 0002:00008240       ??_R4BerconTile@@6BISubMap@@@ 0000000180034240     BerconTile.obj
 0002:00008268       ??_R4BerconTile@@6B@       0000000180034268     BerconTile.obj
 0002:00008290       ??_R4BerconTileDlgProc@@6B@ 0000000180034290     BerconTile.obj
 0002:000082b8       ??_R3BerconTileDlgProc@@8  00000001800342b8     BerconTile.obj
 0002:000082d0       ??_R2BerconTileDlgProc@@8  00000001800342d0     BerconTile.obj
 0002:000082f0       ??_R1A@?0A@EA@BerconTileDlgProc@@8 00000001800342f0     BerconTile.obj
 0002:00008318       ??_R4BerconWoodClassDesc@@6B@ 0000000180034318     BerconWood.obj
 0002:00008340       ??_R3BerconWoodClassDesc@@8 0000000180034340     BerconWood.obj
 0002:00008358       ??_R2BerconWoodClassDesc@@8 0000000180034358     BerconWood.obj
 0002:00008380       ??_R1A@?0A@EA@BerconWoodClassDesc@@8 0000000180034380     BerconWood.obj
 0002:000083a8       ??_R4BerconWood@@6BReferenceTarget@@@ 00000001800343a8     BerconWood.obj
 0002:000083d0       ??_R3BerconWood@@8         00000001800343d0     BerconWood.obj
 0002:000083f0       ??_R2BerconWood@@8         00000001800343f0     BerconWood.obj
 0002:00008468       ??_R1A@?0A@EA@BerconWood@@8 0000000180034468     BerconWood.obj
 0002:00008490       ??_R4BerconWood@@6BISubMap@@@ 0000000180034490     BerconWood.obj
 0002:000084b8       ??_R4BerconWood@@6B@       00000001800344b8     BerconWood.obj
 0002:000084e0       ??_R4BerconWoodDlgProc@@6B@ 00000001800344e0     BerconWood.obj
 0002:00008508       ??_R3BerconWoodDlgProc@@8  0000000180034508     BerconWood.obj
 0002:00008520       ??_R2BerconWoodDlgProc@@8  0000000180034520     BerconWood.obj
 0002:00008540       ??_R1A@?0A@EA@BerconWoodDlgProc@@8 0000000180034540     BerconWood.obj
 0002:00008568       ??_R4BerconNoiseClassDesc@@6B@ 0000000180034568     BerconNoise.obj
 0002:00008590       ??_R3BerconNoiseClassDesc@@8 0000000180034590     BerconNoise.obj
 0002:000085a8       ??_R2BerconNoiseClassDesc@@8 00000001800345a8     BerconNoise.obj
 0002:000085d0       ??_R1A@?0A@EA@BerconNoiseClassDesc@@8 00000001800345d0     BerconNoise.obj
 0002:000085f8       ??_R4BerconNoise@@6BReferenceTarget@@@ 00000001800345f8     BerconNoise.obj
 0002:00008620       ??_R3BerconNoise@@8        0000000180034620     BerconNoise.obj
 0002:00008640       ??_R2BerconNoise@@8        0000000180034640     BerconNoise.obj
 0002:000086b8       ??_R1A@?0A@EA@BerconNoise@@8 00000001800346b8     BerconNoise.obj
 0002:000086e0       ??_R4BerconNoise@@6BISubMap@@@ 00000001800346e0     BerconNoise.obj
 0002:00008708       ??_R4BerconNoise@@6B@      0000000180034708     BerconNoise.obj
 0002:00008730       ??_R4BerconNoiseDlgProc@@6B@ 0000000180034730     BerconNoise.obj
 0002:00008758       ??_R3BerconNoiseDlgProc@@8 0000000180034758     BerconNoise.obj
 0002:00008770       ??_R2BerconNoiseDlgProc@@8 0000000180034770     BerconNoise.obj
 0002:00008790       ??_R1A@?0A@EA@BerconNoiseDlgProc@@8 0000000180034790     BerconNoise.obj
 0002:000087b8       ??_R4?$basic_stringbuf@_WU?$char_traits@_W@std@@V?$allocator@_W@2@@std@@6B@ 00000001800347b8     tile.obj
 0002:000087e0       ??_R3?$basic_stringbuf@_WU?$char_traits@_W@std@@V?$allocator@_W@2@@std@@8 00000001800347e0     tile.obj
 0002:000087f8       ??_R2?$basic_stringbuf@_WU?$char_traits@_W@std@@V?$allocator@_W@2@@std@@8 00000001800347f8     tile.obj
 0002:00008810       ??_R1A@?0A@EA@?$basic_stringbuf@_WU?$char_traits@_W@std@@V?$allocator@_W@2@@std@@8 0000000180034810     tile.obj
 0002:00008838       ??_R1A@?0A@EA@?$basic_streambuf@_WU?$char_traits@_W@std@@@std@@8 0000000180034838     tile.obj
 0002:00008860       ??_R3?$basic_streambuf@_WU?$char_traits@_W@std@@@std@@8 0000000180034860     tile.obj
 0002:00008878       ??_R2?$basic_streambuf@_WU?$char_traits@_W@std@@@std@@8 0000000180034878     tile.obj
 0002:00008888       ??_R4?$basic_stringstream@_WU?$char_traits@_W@std@@V?$allocator@_W@2@@std@@6B@ 0000000180034888     tile.obj
 0002:000088b0       ??_R3?$basic_stringstream@_WU?$char_traits@_W@std@@V?$allocator@_W@2@@std@@8 00000001800348b0     tile.obj
 0002:000088d0       ??_R2?$basic_stringstream@_WU?$char_traits@_W@std@@V?$allocator@_W@2@@std@@8 00000001800348d0     tile.obj
 0002:00008928       ??_R1A@?0A@EA@?$basic_stringstream@_WU?$char_traits@_W@std@@V?$allocator@_W@2@@std@@8 0000000180034928     tile.obj
 0002:00008950       ??_R1A@?0A@EA@?$basic_iostream@_WU?$char_traits@_W@std@@@std@@8 0000000180034950     tile.obj
 0002:00008978       ??_R3?$basic_iostream@_WU?$char_traits@_W@std@@@std@@8 0000000180034978     tile.obj
 0002:00008990       ??_R2?$basic_iostream@_WU?$char_traits@_W@std@@@std@@8 0000000180034990     tile.obj
 0002:000089e0       ??_R1A@?0A@EA@?$basic_istream@_WU?$char_traits@_W@std@@@std@@8 00000001800349e0     tile.obj
 0002:00008a08       ??_R3?$basic_istream@_WU?$char_traits@_W@std@@@std@@8 0000000180034a08     tile.obj
 0002:00008a20       ??_R2?$basic_istream@_WU?$char_traits@_W@std@@@std@@8 0000000180034a20     tile.obj
 0002:00008a48       ??_R1A@A@3FA@?$basic_ios@_WU?$char_traits@_W@std@@@std@@8 0000000180034a48     tile.obj
 0002:00008a70       ??_R3?$basic_ios@_WU?$char_traits@_W@std@@@std@@8 0000000180034a70     tile.obj
 0002:00008a88       ??_R2?$basic_ios@_WU?$char_traits@_W@std@@@std@@8 0000000180034a88     tile.obj
 0002:00008aa8       ??_R1A@?0A@EA@?$basic_ios@_WU?$char_traits@_W@std@@@std@@8 0000000180034aa8     tile.obj
 0002:00008ad0       ??_R1A@?0A@EA@ios_base@std@@8 0000000180034ad0     tile.obj
 0002:00008af8       ??_R3ios_base@std@@8       0000000180034af8     tile.obj
 0002:00008b10       ??_R2ios_base@std@@8       0000000180034b10     tile.obj
 0002:00008b28       ??_R17?0A@EA@?$_Iosb@H@std@@8 0000000180034b28     tile.obj
 0002:00008b50       ??_R3?$_Iosb@H@std@@8      0000000180034b50     tile.obj
 0002:00008b68       ??_R2?$_Iosb@H@std@@8      0000000180034b68     tile.obj
 0002:00008b78       ??_R1A@?0A@EA@?$_Iosb@H@std@@8 0000000180034b78     tile.obj
 0002:00008ba0       ??_R1A@A@3EA@ios_base@std@@8 0000000180034ba0     tile.obj
 0002:00008bc8       ??_R17A@3EA@?$_Iosb@H@std@@8 0000000180034bc8     tile.obj
 0002:00008bf0       ??_R1BA@?0A@EA@?$basic_ostream@_WU?$char_traits@_W@std@@@std@@8 0000000180034bf0     tile.obj
 0002:00008c18       ??_R3?$basic_ostream@_WU?$char_traits@_W@std@@@std@@8 0000000180034c18     tile.obj
 0002:00008c30       ??_R2?$basic_ostream@_WU?$char_traits@_W@std@@@std@@8 0000000180034c30     tile.obj
 0002:00008c58       ??_R1A@?0A@EA@?$basic_ostream@_WU?$char_traits@_W@std@@@std@@8 0000000180034c58     tile.obj
 0002:00008c80       ??_R4type_info@@6B@        0000000180034c80     MSVCRT:std_type_info_static.obj
 0002:00008ca8       ??_R3type_info@@8          0000000180034ca8     MSVCRT:std_type_info_static.obj
 0002:00008cc0       ??_R2type_info@@8          0000000180034cc0     MSVCRT:std_type_info_static.obj
 0002:00008cd0       ??_R1A@?0A@EA@type_info@@8 0000000180034cd0     MSVCRT:std_type_info_static.obj
 0002:00008cf8       ??_R4exception@std@@6B@    0000000180034cf8     MSVCRT:throw_bad_alloc.obj
 0002:00008d20       ??_R3exception@std@@8      0000000180034d20     MSVCRT:throw_bad_alloc.obj
 0002:00008d38       ??_R2exception@std@@8      0000000180034d38     MSVCRT:throw_bad_alloc.obj
 0002:00008d48       ??_R1A@?0A@EA@exception@std@@8 0000000180034d48     MSVCRT:throw_bad_alloc.obj
 0002:00008d70       ??_R4bad_alloc@std@@6B@    0000000180034d70     MSVCRT:throw_bad_alloc.obj
 0002:00008d98       ??_R3bad_alloc@std@@8      0000000180034d98     MSVCRT:throw_bad_alloc.obj
 0002:00008db0       ??_R2bad_alloc@std@@8      0000000180034db0     MSVCRT:throw_bad_alloc.obj
 0002:00008dc8       ??_R1A@?0A@EA@bad_alloc@std@@8 0000000180034dc8     MSVCRT:throw_bad_alloc.obj
 0002:00008df0       ??_R4bad_array_new_length@std@@6B@ 0000000180034df0     MSVCRT:throw_bad_alloc.obj
 0002:00008e18       ??_R3bad_array_new_length@std@@8 0000000180034e18     MSVCRT:throw_bad_alloc.obj
 0002:00008e30       ??_R2bad_array_new_length@std@@8 0000000180034e30     MSVCRT:throw_bad_alloc.obj
 0002:00008e50       ??_R1A@?0A@EA@bad_array_new_length@std@@8 0000000180034e50     MSVCRT:throw_bad_alloc.obj
 0002:00009140       __rtc_iaa                  0000000180035140     MSVCRT:_initsect_.obj
 0002:00009148       __rtc_izz                  0000000180035148     MSVCRT:_initsect_.obj
 0002:00009150       __rtc_taa                  0000000180035150     MSVCRT:_initsect_.obj
 0002:00009158       __rtc_tzz                  0000000180035158     MSVCRT:_initsect_.obj
 0002:0000ccc0       _CT??_R0?AVMaxHeapOperators@@@818 0000000180038cc0     BerconDistortion.obj
 0002:0000cce8       _TI4?AVTabOutOfRangeException@Util@MaxSDK@@ 0000000180038ce8     BerconDistortion.obj
 0002:0000cd08       _CTA4?AVTabOutOfRangeException@Util@MaxSDK@@ 0000000180038d08     BerconDistortion.obj
 0002:0000cd30       _CT??_R0?AVTabOutOfRangeException@Util@MaxSDK@@@8??0TabOutOfRangeException@Util@MaxSDK@@QEAA@AEBV012@@Z16 0000000180038d30     BerconDistortion.obj
 0002:0000cd58       _CT??_R0?AVOutOfRangeException@Util@MaxSDK@@@8??0OutOfRangeException@Util@MaxSDK@@QEAA@AEBV012@@Z16 0000000180038d58     BerconDistortion.obj
 0002:0000cd80       _CT??_R0?AVException@Util@MaxSDK@@@8??0Exception@Util@MaxSDK@@QEAA@AEBV012@@Z16 0000000180038d80     BerconDistortion.obj
 0002:0000cda8       _TI2?AVbad_alloc@std@@     0000000180038da8     MSVCRT:throw_bad_alloc.obj
 0002:0000cdc8       _CTA2?AVbad_alloc@std@@    0000000180038dc8     MSVCRT:throw_bad_alloc.obj
 0002:0000cde0       _CT??_R0?AVbad_alloc@std@@@8??0bad_alloc@std@@QEAA@AEBV01@@Z24 0000000180038de0     MSVCRT:throw_bad_alloc.obj
 0002:0000ce08       _CT??_R0?AVexception@std@@@8??0exception@std@@QEAA@AEBV01@@Z24 0000000180038e08     MSVCRT:throw_bad_alloc.obj
 0002:0000ce30       _TI3?AVbad_array_new_length@std@@ 0000000180038e30     MSVCRT:throw_bad_alloc.obj
 0002:0000ce50       _CTA3?AVbad_array_new_length@std@@ 0000000180038e50     MSVCRT:throw_bad_alloc.obj
 0002:0000ce70       _CT??_R0?AVbad_array_new_length@std@@@8??0bad_array_new_length@std@@QEAA@AEBV01@@Z24 0000000180038e70     MSVCRT:throw_bad_alloc.obj
 0002:0000cfa4       __IMPORT_DESCRIPTOR_core   0000000180038fa4     core:core.dll
 0002:0000cfb8       __IMPORT_DESCRIPTOR_geom   0000000180038fb8     geom:geom.dll
 0002:0000cfcc       __IMPORT_DESCRIPTOR_MAXScrpt 0000000180038fcc     Maxscrpt:MAXScrpt.dll
 0002:0000cfe0       __IMPORT_DESCRIPTOR_maxutil 0000000180038fe0     maxutil:maxutil.dll
 0002:0000cff4       __IMPORT_DESCRIPTOR_ParamBlk2 0000000180038ff4     Paramblk2:ParamBlk2.dll
 0002:0000d008       __IMPORT_DESCRIPTOR_KERNEL32 0000000180039008     kernel32:KERNEL32.dll
 0002:0000d01c       __IMPORT_DESCRIPTOR_USER32 000000018003901c     user32:USER32.dll
 0002:0000d030       __IMPORT_DESCRIPTOR_GDI32  0000000180039030     gdi32:GDI32.dll
 0002:0000d044       __IMPORT_DESCRIPTOR_MSVCP140 0000000180039044     msvcprt:MSVCP140.dll
 0002:0000d058       __IMPORT_DESCRIPTOR_VCRUNTIME140 0000000180039058     vcruntime:VCRUNTIME140.dll
 0002:0000d06c       __IMPORT_DESCRIPTOR_api-ms-win-crt-utility-l1-1-0 000000018003906c     ucrt:api-ms-win-crt-utility-l1-1-0.dll
 0002:0000d080       __IMPORT_DESCRIPTOR_api-ms-win-crt-math-l1-1-0 0000000180039080     ucrt:api-ms-win-crt-math-l1-1-0.dll
 0002:0000d094       __IMPORT_DESCRIPTOR_api-ms-win-crt-runtime-l1-1-0 0000000180039094     ucrt:api-ms-win-crt-runtime-l1-1-0.dll
 0002:0000d0a8       __IMPORT_DESCRIPTOR_api-ms-win-crt-heap-l1-1-0 00000001800390a8     ucrt:api-ms-win-crt-heap-l1-1-0.dll
 0002:0000d0bc       __NULL_IMPORT_DESCRIPTOR   00000001800390bc     core:core.dll
 0003:00000000       WinbaseIsolationAwarePrivateT_UnPgpgk 000000018003d000     BerconDistortion.obj
 0003:000006f8       __scrt_native_dllmain_reason 000000018003d6f8     MSVCRT:utility.obj
 0003:000006fc       _fltused                   000000018003d6fc     MSVCRT:dllsupp.obj
 0003:00000700       __isa_available            000000018003d700     MSVCRT:_cpu_disp_.obj
 0003:00000704       __isa_enabled              000000018003d704     MSVCRT:_cpu_disp_.obj
 0003:00000708       __memcpy_nt_iters          000000018003d708     MSVCRT:_cpu_disp_.obj
 0003:00000710       __security_cookie          000000018003d710     MSVCRT:gs_cookie.obj
 0003:00000718       __security_cookie_complement 000000018003d718     MSVCRT:gs_cookie.obj
 0003:00000720       __scrt_ucrt_dll_is_in_use  000000018003d720     MSVCRT:ucrt_stubs.obj
 0003:00000730       ??_R0?AVMaxHeapOperators@@@8 000000018003d730     BerconDistortion.obj
 0003:00000758       ??_R0?AVInterfaceServer@@@8 000000018003d758     BerconDistortion.obj
 0003:00000780       ??_R0?AVBaseInterfaceServer@@@8 000000018003d780     BerconDistortion.obj
 0003:000007b0       ??_R0?AVClassDesc2@@@8     000000018003d7b0     BerconDistortion.obj
 0003:000007d8       ??_R0?AVClassDesc@@@8      000000018003d7d8     BerconDistortion.obj
 0003:000007f8       ??_R0?AVTabOutOfRangeException@Util@MaxSDK@@@8 000000018003d7f8     BerconDistortion.obj
 0003:00000838       ??_R0?AVOutOfRangeException@Util@MaxSDK@@@8 000000018003d838     BerconDistortion.obj
 0003:00000870       ??_R0?AVException@Util@MaxSDK@@@8 000000018003d870     BerconDistortion.obj
 0003:000008a0       ??_R0?AVXYZ_Desc@@@8       000000018003d8a0     BerconDistortion.obj
 0003:000008c0       ??_R0?AVParamBlockDesc2@@@8 000000018003d8c0     BerconDistortion.obj
 0003:000008e8       ??_R0?AVBerconDistortionClassDesc@@@8 000000018003d8e8     BerconDistortion.obj
 0003:00000918       ??_R0?AVReferenceTarget@@@8 000000018003d918     BerconDistortion.obj
 0003:00000940       ??_R0?AVReferenceMaker@@@8 000000018003d940     BerconDistortion.obj
 0003:00000968       ??_R0?AVAnimatable@@@8     000000018003d968     BerconDistortion.obj
 0003:00000990       ??_R0?AVNoncopyable@Util@MaxSDK@@@8 000000018003d990     BerconDistortion.obj
 0003:000009c0       ??_R0?AVParamMap2UserDlgProc@@@8 000000018003d9c0     BerconDistortion.obj
 0003:000009f0       ??_R0?AVShadeContext@@@8   000000018003d9f0     BerconDistortion.obj
 0003:00000a18       ??_R0?AVRenderGlobalContext@@@8 000000018003da18     BerconDistortion.obj
 0003:00000a48       ??_R0?AVShadeOutput@@@8    000000018003da48     BerconDistortion.obj
 0003:00000a70       ??_R0?AVISubMap@@@8        000000018003da70     BerconDistortion.obj
 0003:00000a90       ??_R0?AVBerconXYZDlgProc@@@8 000000018003da90     BerconDistortion.obj
 0003:00000ab8       ??_R0?AVBerconSC@@@8       000000018003dab8     BerconDistortion.obj
 0003:00000ad8       ??_R0?AVBerconDistortion@@@8 000000018003dad8     BerconDistortion.obj
 0003:00000b00       ??_R0?AVTexmap@@@8         000000018003db00     BerconDistortion.obj
 0003:00000b20       ??_R0?AVMtlBase@@@8        000000018003db20     BerconDistortion.obj
 0003:00000b40       ??_R0?AVBerconGradientClassDesc@@@8 000000018003db40     BerconGradient.obj
 0003:00000b70       ??_R0?AVICustomControl@@@8 000000018003db70     BerconGradient.obj
 0003:00000b98       ??_R0?AVResourceMakerCallback@@@8 000000018003db98     BerconGradient.obj
 0003:00000bc8       ??_R0?AVGradientMap@@@8    000000018003dbc8     BerconGradient.obj
 0003:00000bf0       ??_R0?AVIGradient@@@8      000000018003dbf0     BerconGradient.obj
 0003:00000c10       ??_R0?AVBerconGradient@@@8 000000018003dc10     BerconGradient.obj
 0003:00000c38       ??_R0?AVBerconGradientDlgProc@@@8 000000018003dc38     BerconGradient.obj
 0003:00000c68       ??_R0?AVBerconTileClassDesc@@@8 000000018003dc68     BerconTile.obj
 0003:00000c98       ??_R0?AVBerconTile@@@8     000000018003dc98     BerconTile.obj
 0003:00000cc0       ??_R0?AVBerconTileDlgProc@@@8 000000018003dcc0     BerconTile.obj
 0003:00000ce8       ??_R0?AVBerconWoodClassDesc@@@8 000000018003dce8     BerconWood.obj
 0003:00000d18       ??_R0?AVBerconWood@@@8     000000018003dd18     BerconWood.obj
 0003:00000d40       ??_R0?AVBerconWoodDlgProc@@@8 000000018003dd40     BerconWood.obj
 0003:00000d68       ??_R0?AVBerconNoiseClassDesc@@@8 000000018003dd68     BerconNoise.obj
 0003:00000d98       ??_R0?AVBerconNoise@@@8    000000018003dd98     BerconNoise.obj
 0003:00000dc0       ??_R0?AVBerconNoiseDlgProc@@@8 000000018003ddc0     BerconNoise.obj
 0003:00000df0       ??_R0?AV?$basic_stringbuf@_WU?$char_traits@_W@std@@V?$allocator@_W@2@@std@@@8 000000018003ddf0     tile.obj
 0003:00000e50       ??_R0?AV?$basic_streambuf@_WU?$char_traits@_W@std@@@std@@@8 000000018003de50     tile.obj
 0003:00000ea0       ??_R0?AV?$basic_stringstream@_WU?$char_traits@_W@std@@V?$allocator@_W@2@@std@@@8 000000018003dea0     tile.obj
 0003:00000f00       ??_R0?AV?$basic_iostream@_WU?$char_traits@_W@std@@@std@@@8 000000018003df00     tile.obj
 0003:00000f50       ??_R0?AV?$basic_istream@_WU?$char_traits@_W@std@@@std@@@8 000000018003df50     tile.obj
 0003:00000fa0       ??_R0?AV?$basic_ios@_WU?$char_traits@_W@std@@@std@@@8 000000018003dfa0     tile.obj
 0003:00000fe0       ??_R0?AVios_base@std@@@8   000000018003dfe0     tile.obj
 0003:00001008       ??_R0?AV?$_Iosb@H@std@@@8  000000018003e008     tile.obj
 0003:00001030       ??_R0?AV?$basic_ostream@_WU?$char_traits@_W@std@@@std@@@8 000000018003e030     tile.obj
 0003:00001078       ??_R0?AVtype_info@@@8      000000018003e078     MSVCRT:std_type_info_static.obj
 0003:00001098       ??_R0?AVbad_alloc@std@@@8  000000018003e098     MSVCRT:throw_bad_alloc.obj
 0003:000010c0       ??_R0?AVexception@std@@@8  000000018003e0c0     MSVCRT:throw_bad_alloc.obj
 0003:000010e8       ??_R0?AVbad_array_new_length@std@@@8 000000018003e0e8     MSVCRT:throw_bad_alloc.obj
 0003:00001120       IsolationAwarePrivateT_SqbjaYRiRY 000000018003e120     BerconDistortion.obj
 0003:00001124       IsolationAwarePrivateT_SAbnPgpgk 000000018003e124     BerconDistortion.obj
 0003:00001128       WinbaseIsolationAwarePrivateT_SpeRNgRQnPgpgk 000000018003e128     BerconDistortion.obj
 0003:0000112c       WinbaseIsolationAwarePrivateT_SpYRNahcpNYYRQ 000000018003e12c     BerconDistortion.obj
 0003:00001280       ?texoutDlg@BerconGradient@@2PEAVParamDlg@@EA 000000018003e280     BerconGradient.obj
 0003:000013d0       ?texoutDlg@BerconTile@@2PEAVParamDlg@@EA 000000018003e3d0     BerconTile.obj
 0003:000015a0       ?texoutDlg@BerconWood@@2PEAVParamDlg@@EA 000000018003e5a0     BerconWood.obj
 0003:00001780       ?hInstance@@3PEAUHINSTANCE__@@EA 000000018003e780     DllEntry.obj
 0003:00001788       ?controlsInit@@3HA         000000018003e788     DllEntry.obj
 0003:000017a0       ?s_pfn@?1??IsolationAwareInitCommonControls@@9@4P6AXXZEA 000000018003e7a0     DllEntry.obj
 0003:000017a8       ?m@?1??CommctrlIsolationAwarePrivatetRgCebPnQQeRff_pbZPgYQP_QYY@@9@4UIsolationAwarePrivate_zHGnoyr_zBqHyr_vAsB@@A 000000018003e7a8     DllEntry.obj
 0003:000019c0       ?texoutDlg@BerconNoise@@2PEAVParamDlg@@EA 000000018003e9c0     BerconNoise.obj
 0003:00001c00       __scrt_current_native_startup_state 000000018003ec00     MSVCRT:utility.obj
 0003:00001c08       __scrt_native_startup_lock 000000018003ec08     MSVCRT:utility.obj
 0003:00001c48       __favor                    000000018003ec48     MSVCRT:_cpu_disp_.obj
 0003:00001c4c       __scrt_debugger_hook_flag  000000018003ec4c     MSVCRT:utility_desktop.obj
 0003:00001c50       ?__type_info_root_node@@3U__type_info_node@@A 000000018003ec50     MSVCRT:tncleanup.obj
 0003:00001c60       ?_OptionsStorage@?1??__local_stdio_printf_options@@9@4_KA 000000018003ec60     MSVCRT:default_local_stdio_options.obj
 0003:00001c68       ?_OptionsStorage@?1??__local_stdio_scanf_options@@9@4_KA 000000018003ec68     MSVCRT:default_local_stdio_options.obj
 0003:00001c70       __dyn_tls_init_callback    000000018003ec70     <common>

 entry point at        0001:000297b8

 Static symbols

 0001:00000000       ??__EBerconDistortionDesc@@YAXXZ 0000000180001000 f   BerconDistortion.obj
 0001:00000040       ??__EBerconDistortion_param_blk@@YAXXZ 0000000180001040 f   BerconDistortion.obj
 0001:00000380       ??__EkInvalidId@AssetManagement@MaxSDK@@YAXXZ 0000000180001380 f   BerconDistortion.obj
 0001:00000390       ??__Exyz_blk@@YAXXZ        0000000180001390 f   BerconDistortion.obj
 0001:000003f0       ??__EBerconGradientDesc@@YAXXZ 00000001800013f0 f   BerconGradient.obj
 0001:00000430       ??__Egradientmap_param_blk@@YAXXZ 0000000180001430 f   BerconGradient.obj
 0001:000012a0       ??__EkInvalidId@AssetManagement@MaxSDK@@YAXXZ 00000001800022a0 f   BerconGradient.obj
 0001:000012b0       ??__Exyz_blk@@YAXXZ        00000001800022b0 f   BerconGradient.obj
 0001:00001310       ??__EBerconMap_param_blk@@YAXXZ 0000000180002310 f   BerconTile.obj
 0001:00001570       ??__EBerconTileDesc@@YAXXZ 0000000180002570 f   BerconTile.obj
 0001:000015b0       ??__EBerconTile_param_blk@@YAXXZ 00000001800025b0 f   BerconTile.obj
 0001:00003070       ??__EkInvalidId@AssetManagement@MaxSDK@@YAXXZ 0000000180004070 f   BerconTile.obj
 0001:00003080       ??__Exyz_blk@@YAXXZ        0000000180004080 f   BerconTile.obj
 0001:000030d0       ??__EBerconMap_param_blk@@YAXXZ 00000001800040d0 f   BerconWood.obj
 0001:000041c0       ??__EBerconWoodDesc@@YAXXZ 00000001800051c0 f   BerconWood.obj
 0001:00004200       ??__EBerconWood_param_blk@@YAXXZ 0000000180005200 f   BerconWood.obj
 0001:000057e0       ??__EkInvalidId@AssetManagement@MaxSDK@@YAXXZ 00000001800067e0 f   BerconWood.obj
 0001:000057f0       ??__Exyz_blk@@YAXXZ        00000001800067f0 f   BerconWood.obj
 0001:00005840       ??__EkInvalidId@AssetManagement@MaxSDK@@YAXXZ 0000000180006840 f   DllEntry.obj
 0001:00005850       ??__EkInvalidId@AssetManagement@MaxSDK@@YAXXZ 0000000180006850 f   BerconCommon.obj
 0001:00005860       ??__EBerconMap_param_blk@@YAXXZ 0000000180006860 f   BerconNoise.obj
 0001:00006730       ??__EBerconNoiseDesc@@YAXXZ 0000000180007730 f   BerconNoise.obj
 0001:00006770       ??__Eberconnoise_param_blk@@YAXXZ 0000000180007770 f   BerconNoise.obj
 0001:000078f0       ??__EkInvalidId@AssetManagement@MaxSDK@@YAXXZ 00000001800088f0 f   BerconNoise.obj
 0001:00007900       ??__Exyz_blk@@YAXXZ        0000000180008900 f   BerconNoise.obj
 0001:00007950       ??__EkInvalidId@AssetManagement@MaxSDK@@YAXXZ 0000000180008950 f   fractal.obj
 0001:00007960       ??__EkInvalidId@AssetManagement@MaxSDK@@YAXXZ 0000000180008960 f   GradientRamp.obj
 0001:00007970       ??__EkInvalidId@AssetManagement@MaxSDK@@YAXXZ 0000000180008970 f   IGradient.obj
 0001:00007980       ??__EkInvalidId@AssetManagement@MaxSDK@@YAXXZ 0000000180008980 f   noise.obj
 0001:00007990       ??__EkInvalidId@AssetManagement@MaxSDK@@YAXXZ 0000000180008990 f   tile.obj
 0001:000079a0       ??__EkInvalidId@AssetManagement@MaxSDK@@YAXXZ 00000001800089a0 f   commonMath.obj
 0001:0000dd58       $LN17                      000000018000ed58     BerconGradient.obj
 0001:0000e438       $LN15                      000000018000f438     BerconGradient.obj
 0001:0000e608       $LN17                      000000018000f608     BerconGradient.obj
 0001:0000f1d4       $LN40                      00000001800101d4     BerconGradient.obj
 0001:0000f578       $LN45                      0000000180010578     BerconGradient.obj
 0001:0000f92c       $LN45                      000000018001092c     BerconGradient.obj
 0001:0000fcc8       $LN69                      0000000180010cc8     BerconGradient.obj
 0001:00012db4       $LN15                      0000000180013db4     BerconTile.obj
 0001:00016d84       $LN29                      0000000180017d84     BerconWood.obj
 0001:000176f4       $LN15                      00000001800186f4     BerconWood.obj
 0001:00017710       $LN14                      0000000180018710     BerconWood.obj
 0001:0001a070       ?setSpinnerType@@YAXPEAVIParamMap2@@HHHHH_N@Z 000000018001b070 f   BerconTile.obj
 0001:0001a070       ?setSpinnerType@@YAXPEAVIParamMap2@@HHHHH_N@Z 000000018001b070 f   BerconCommon.obj
 0001:0001a190       ?tiling@@YAHHAEAM@Z        000000018001b190 f   BerconCommon.obj
 0001:0001a280       ?tiling@@YAHHAEAMAEAH@Z    000000018001b280 f   BerconCommon.obj
 0001:0001cb64       $LN26                      000000018001db64     BerconNoise.obj
 0001:0001d434       $LN15                      000000018001e434     BerconNoise.obj
 0001:0001d450       $LN14                      000000018001e450     BerconNoise.obj
 0001:00021174       $LN29                      0000000180022174     noise.obj
 0001:00021360       $LN29                      0000000180022360     noise.obj
 0001:00021588       $LN15                      0000000180022588     noise.obj
 0001:000216b4       $LN15                      00000001800226b4     noise.obj
 0001:00025960       ?getAngle@@YAMHM@Z         0000000180026960 f   tile.obj
 0001:00025d00       ?parsePattern@@YAHV?$basic_string@_WU?$char_traits@_W@std@@V?$allocator@_W@2@@std@@PEAVTilePattern@@@Z 0000000180026d00 f   tile.obj
 0001:00026fc0       ?rowcol@@YAHAEAM0AEAHMMAEAV?$vector@MV?$allocator@M@std@@@std@@MMM@Z 0000000180027fc0 f   tile.obj
 0001:0002794c       $LN925                     000000018002894c     tile.obj
 0001:000279d0       ?tokenize@@YAXAEBV?$basic_string@_WU?$char_traits@_W@std@@V?$allocator@_W@2@@std@@AEAV?$vector@V?$basic_string@_WU?$char_traits@_W@std@@V?$allocator@_W@2@@std@@V?$allocator@V?$basic_string@_WU?$char_traits@_W@std@@V?$allocator@_W@2@@std@@@2@@2@0@Z 00000001800289d0 f   tile.obj
 0001:000284e8       $LN56                      00000001800294e8     worley.obj
 0001:00029400       $$000000                   000000018002a400     MSVCRT:_chkstk_.obj
 0001:0002946c       ?dllmain_crt_dispatch@@YAHQEAUHINSTANCE__@@KQEAX@Z 000000018002a46c f   MSVCRT:dll_dllmain.obj
 0001:000294bc       ?dllmain_crt_process_attach@@YAHQEAUHINSTANCE__@@QEAX@Z 000000018002a4bc f   MSVCRT:dll_dllmain.obj
 0001:000295e8       ?dllmain_crt_process_detach@@YAH_N@Z 000000018002a5e8 f   MSVCRT:dll_dllmain.obj
 0001:0002966c       ?dllmain_dispatch@@YAHQEAUHINSTANCE__@@KQEAX@Z 000000018002a66c f   MSVCRT:dll_dllmain.obj
 0001:00029764       ?dllmain_raw@@YAHQEAUHINSTANCE__@@KQEAX@Z 000000018002a764 f   MSVCRT:dll_dllmain.obj
 0001:00029f40       $$000000                   000000018002af40     MSVCRT:_guard_dispatch_.obj
 0001:00029f60       ?dtor$0@?0???0BerconDistortion@@QEAA@XZ@4HA 000000018002af60 f   BerconDistortion.obj
 0001:00029f70       ?dtor$2@?0???0BerconSC@@QEAA@QEAVShadeContext@@@Z@4HA 000000018002af70 f   BerconDistortion.obj
 0001:00029f7e       ?dtor$5@?0???0BerconSC@@QEAA@QEAVShadeContext@@@Z@4HA 000000018002af7e f   BerconDistortion.obj
 0001:00029f8c       ?dtor$6@?0???0BerconSC@@QEAA@QEAVShadeContext@@@Z@4HA 000000018002af8c f   BerconDistortion.obj
 0001:00029f9c       ?dtor$4@?0???0BerconSC@@QEAA@QEAVShadeContext@@@Z@4HA 000000018002af9c f   BerconDistortion.obj
 0001:00029faa       ?dtor$3@?0???0BerconSC@@QEAA@QEAVShadeContext@@@Z@4HA 000000018002afaa f   BerconDistortion.obj
 0001:00029fba       ?dtor$0@?0???0BerconSC@@QEAA@QEAVShadeContext@@@Z@4HA 000000018002afba f   BerconDistortion.obj
 0001:00029fc6       ?dtor$8@?0???0BerconSC@@QEAA@QEAVShadeContext@@@Z@4HA 000000018002afc6 f   BerconDistortion.obj
 0001:00029fd4       ?dtor$9@?0???0BerconSC@@QEAA@QEAVShadeContext@@@Z@4HA 000000018002afd4 f   BerconDistortion.obj
 0001:00029fe4       ?dtor$7@?0???0BerconSC@@QEAA@QEAVShadeContext@@@Z@4HA 000000018002afe4 f   BerconDistortion.obj
 0001:00029ff2       ?dtor$1@?0???0BerconSC@@QEAA@QEAVShadeContext@@@Z@4HA 000000018002aff2 f   BerconDistortion.obj
 0001:0002a010       ?dtor$1@?0???0TabOutOfRangeException@Util@MaxSDK@@QEAA@AEBV012@@Z@4HA 000000018002b010 f   BerconDistortion.obj
 0001:0002a01e       ?dtor$0@?0???0TabOutOfRangeException@Util@MaxSDK@@QEAA@AEBV012@@Z@4HA 000000018002b01e f   BerconDistortion.obj
 0001:0002a030       ?dtor$0@?0???0VertexNormalsControl@@QEAA@XZ@4HA 000000018002b030 f   BerconDistortion.obj
 0001:0002a040       ?dtor$0@?0???0XYZ_Desc@@QEAA@PEAVClassDesc2@@HHHHHHH@Z@4HA 000000018002b040 f   BerconDistortion.obj
 0001:0002a050       ?dtor$0@?0???1BerconSC@@UEAA@XZ@4HA 000000018002b050 f   BerconDistortion.obj
 0001:0002a05c       ?dtor$1@?0???1BerconSC@@UEAA@XZ@4HA 000000018002b05c f   BerconDistortion.obj
 0001:0002a06f       ?dtor$2@?0???1BerconSC@@UEAA@XZ@4HA 000000018002b06f f   BerconDistortion.obj
 0001:0002a07d       ?dtor$3@?0???1BerconSC@@UEAA@XZ@4HA 000000018002b07d f   BerconDistortion.obj
 0001:0002a08b       ?dtor$4@?0???1BerconSC@@UEAA@XZ@4HA 000000018002b08b f   BerconDistortion.obj
 0001:0002a09b       ?dtor$5@?0???1BerconSC@@UEAA@XZ@4HA 000000018002b09b f   BerconDistortion.obj
 0001:0002a0b0       ?dtor$0@?0???1ShadeContext@@UEAA@XZ@4HA 000000018002b0b0 f   BerconDistortion.obj
 0001:0002a0be       ?dtor$1@?0???1ShadeContext@@UEAA@XZ@4HA 000000018002b0be f   BerconDistortion.obj
 0001:0002a0ce       ?dtor$2@?0???1ShadeContext@@UEAA@XZ@4HA 000000018002b0ce f   BerconDistortion.obj
 0001:0002a0e0       ?dtor$0@?0???_GRenderGlobalContext@@UEAAPEAXI@Z@4HA 000000018002b0e0 f   BerconDistortion.obj
 0001:0002a0e0       ?dtor$0@?0???1ShadeOutput@@UEAA@XZ@4HA 000000018002b0e0 f   BerconDistortion.obj
 0001:0002a0e0       ?dtor$0@?0???1RenderGlobalContext@@UEAA@XZ@4HA 000000018002b0e0 f   BerconDistortion.obj
 0001:0002a0e0       ?dtor$0@?0???_GShadeOutput@@UEAAPEAXI@Z@4HA 000000018002b0e0 f   BerconDistortion.obj
 0001:0002a0f0       ?dtor$0@?0???1TabOutOfRangeException@Util@MaxSDK@@UEAA@XZ@4HA 000000018002b0f0 f   BerconDistortion.obj
 0001:0002a0f0       ?dtor$0@?0???_GTabOutOfRangeException@Util@MaxSDK@@UEAAPEAXI@Z@4HA 000000018002b0f0 f   BerconDistortion.obj
 0001:0002a0fe       ?dtor$1@?0???1TabOutOfRangeException@Util@MaxSDK@@UEAA@XZ@4HA 000000018002b0fe f   BerconDistortion.obj
 0001:0002a0fe       ?dtor$1@?0???_GTabOutOfRangeException@Util@MaxSDK@@UEAAPEAXI@Z@4HA 000000018002b0fe f   BerconDistortion.obj
 0001:0002a110       ?dtor$0@?0???1Texmap@@UEAA@XZ@4HA 000000018002b110 f   BerconDistortion.obj
 0001:0002a120       ?dtor$0@?0???A?$Tab@PEAVFPInterface@@@@QEBAAEAPEAVFPInterface@@_J@Z@4HA 000000018002b120 f   BerconDistortion.obj
 0001:0002a130       ?dtor$0@?0???_GBerconSC@@UEAAPEAXI@Z@4HA 000000018002b130 f   BerconDistortion.obj
 0001:0002a13c       ?dtor$1@?0???_GBerconSC@@UEAAPEAXI@Z@4HA 000000018002b13c f   BerconDistortion.obj
 0001:0002a14f       ?dtor$2@?0???_GBerconSC@@UEAAPEAXI@Z@4HA 000000018002b14f f   BerconDistortion.obj
 0001:0002a15d       ?dtor$3@?0???_GBerconSC@@UEAAPEAXI@Z@4HA 000000018002b15d f   BerconDistortion.obj
 0001:0002a16b       ?dtor$4@?0???_GBerconSC@@UEAAPEAXI@Z@4HA 000000018002b16b f   BerconDistortion.obj
 0001:0002a17b       ?dtor$5@?0???_GBerconSC@@UEAAPEAXI@Z@4HA 000000018002b17b f   BerconDistortion.obj
 0001:0002a190       ?dtor$0@?0???_GShadeContext@@UEAAPEAXI@Z@4HA 000000018002b190 f   BerconDistortion.obj
 0001:0002a19e       ?dtor$1@?0???_GShadeContext@@UEAAPEAXI@Z@4HA 000000018002b19e f   BerconDistortion.obj
 0001:0002a1ae       ?dtor$2@?0???_GShadeContext@@UEAAPEAXI@Z@4HA 000000018002b1ae f   BerconDistortion.obj
 0001:0002a1c0       ?dtor$0@?0???_GXYZ_Desc@@UEAAPEAXI@Z@4HA 000000018002b1c0 f   BerconDistortion.obj
 0001:0002a1d0       ?dtor$0@?0???__EBerconDistortionDesc@@YAXXZ@4HA 000000018002b1d0 f   BerconDistortion.obj
 0001:0002a1d0       ?dtor$0@?0???__FBerconDistortionDesc@@YAXXZ@4HA 000000018002b1d0 f   BerconDistortion.obj
 0001:0002a1e0       ?dtor$0@?0???__Fxyz_blk@@YAXXZ@4HA 000000018002b1e0 f   BerconDistortion.obj
 0001:0002a1f0       ?dtor$0@?0??CreateParamDlg@BerconDistortion@@UEAAPEAVParamDlg@@PEAUHWND__@@PEAVIMtlParams@@@Z@4HA 000000018002b1f0 f   BerconDistortion.obj
 0001:0002a1fe       ?dtor$1@?0??CreateParamDlg@BerconDistortion@@UEAAPEAVParamDlg@@PEAUHWND__@@PEAVIMtlParams@@@Z@4HA 000000018002b1fe f   BerconDistortion.obj
 0001:0002a210       ?dtor$0@?0??EvalNormalPerturb@BerconDistortion@@UEAA?AVPoint3@@AEAVShadeContext@@@Z@4HA 000000018002b210 f   BerconDistortion.obj
 0001:0002a210       ?dtor$0@?0??EvalMono@BerconDistortion@@UEAAMAEAVShadeContext@@@Z@4HA 000000018002b210 f   BerconDistortion.obj
 0001:0002a210       ?dtor$0@?0??EvalColor@BerconDistortion@@UEAA?AVAColor@@AEAVShadeContext@@@Z@4HA 000000018002b210 f   BerconDistortion.obj
 0001:0002a21c       ?dtor$1@?0??EvalMono@BerconDistortion@@UEAAMAEAVShadeContext@@@Z@4HA 000000018002b21c f   BerconDistortion.obj
 0001:0002a21c       ?dtor$1@?0??EvalColor@BerconDistortion@@UEAA?AVAColor@@AEAVShadeContext@@@Z@4HA 000000018002b21c f   BerconDistortion.obj
 0001:0002a21c       ?dtor$1@?0??EvalNormalPerturb@BerconDistortion@@UEAA?AVPoint3@@AEAVShadeContext@@@Z@4HA 000000018002b21c f   BerconDistortion.obj
 0001:0002a228       ?dtor$2@?0??EvalMono@BerconDistortion@@UEAAMAEAVShadeContext@@@Z@4HA 000000018002b228 f   BerconDistortion.obj
 0001:0002a228       ?dtor$2@?0??EvalNormalPerturb@BerconDistortion@@UEAA?AVPoint3@@AEAVShadeContext@@@Z@4HA 000000018002b228 f   BerconDistortion.obj
 0001:0002a228       ?dtor$2@?0??EvalColor@BerconDistortion@@UEAA?AVAColor@@AEAVShadeContext@@@Z@4HA 000000018002b228 f   BerconDistortion.obj
 0001:0002a23b       ?dtor$3@?0??EvalNormalPerturb@BerconDistortion@@UEAA?AVPoint3@@AEAVShadeContext@@@Z@4HA 000000018002b23b f   BerconDistortion.obj
 0001:0002a23b       ?dtor$3@?0??EvalMono@BerconDistortion@@UEAAMAEAVShadeContext@@@Z@4HA 000000018002b23b f   BerconDistortion.obj
 0001:0002a23b       ?dtor$3@?0??EvalColor@BerconDistortion@@UEAA?AVAColor@@AEAVShadeContext@@@Z@4HA 000000018002b23b f   BerconDistortion.obj
 0001:0002a249       ?dtor$4@?0??EvalMono@BerconDistortion@@UEAAMAEAVShadeContext@@@Z@4HA 000000018002b249 f   BerconDistortion.obj
 0001:0002a249       ?dtor$4@?0??EvalColor@BerconDistortion@@UEAA?AVAColor@@AEAVShadeContext@@@Z@4HA 000000018002b249 f   BerconDistortion.obj
 0001:0002a249       ?dtor$4@?0??EvalNormalPerturb@BerconDistortion@@UEAA?AVPoint3@@AEAVShadeContext@@@Z@4HA 000000018002b249 f   BerconDistortion.obj
 0001:0002a257       ?dtor$5@?0??EvalColor@BerconDistortion@@UEAA?AVAColor@@AEAVShadeContext@@@Z@4HA 000000018002b257 f   BerconDistortion.obj
 0001:0002a257       ?dtor$5@?0??EvalNormalPerturb@BerconDistortion@@UEAA?AVPoint3@@AEAVShadeContext@@@Z@4HA 000000018002b257 f   BerconDistortion.obj
 0001:0002a257       ?dtor$5@?0??EvalMono@BerconDistortion@@UEAAMAEAVShadeContext@@@Z@4HA 000000018002b257 f   BerconDistortion.obj
 0001:0002a267       ?dtor$6@?0??EvalNormalPerturb@BerconDistortion@@UEAA?AVPoint3@@AEAVShadeContext@@@Z@4HA 000000018002b267 f   BerconDistortion.obj
 0001:0002a267       ?dtor$6@?0??EvalColor@BerconDistortion@@UEAA?AVAColor@@AEAVShadeContext@@@Z@4HA 000000018002b267 f   BerconDistortion.obj
 0001:0002a267       ?dtor$6@?0??EvalMono@BerconDistortion@@UEAAMAEAVShadeContext@@@Z@4HA 000000018002b267 f   BerconDistortion.obj
 0001:0002a280       ?dtor$0@?0???0BerconGradient@@QEAA@XZ@4HA 000000018002b280 f   BerconGradient.obj
 0001:0002a28c       ?dtor$1@?0???0BerconGradient@@QEAA@XZ@4HA 000000018002b28c f   BerconGradient.obj
 0001:0002a2b0       ?dtor$1@?0???0IGradient@@QEAA@PEAUHWND__@@PEAVGradientRamp@@@Z@4HA 000000018002b2b0 f   BerconGradient.obj
 0001:0002a2be       ?dtor$0@?0???0IGradient@@QEAA@PEAUHWND__@@PEAVGradientRamp@@@Z@4HA 000000018002b2be f   BerconGradient.obj
 0001:0002a2d0       ?dtor$0@?0???1ICustomControl@@UEAA@XZ@4HA 000000018002b2d0 f   BerconGradient.obj
 0001:0002a2d0       ?dtor$0@?0???_GICustomControl@@UEAAPEAXI@Z@4HA 000000018002b2d0 f   BerconGradient.obj
 0001:0002a2e0       ?dtor$0@?0???_GBerconWoodDlgProc@@UEAAPEAXI@Z@4HA 000000018002b2e0 f   BerconWood.obj
 0001:0002a2e0       ?dtor$0@?0??DeleteThis@BerconXYZDlgProc@@UEAAXXZ@4HA 000000018002b2e0 f   BerconDistortion.obj
 0001:0002a2e0       ?dtor$0@?0???_GBerconGradientDlgProc@@UEAAPEAXI@Z@4HA 000000018002b2e0 f   BerconGradient.obj
 0001:0002a2e0       ?dtor$0@?0???_GBerconNoiseDlgProc@@UEAAPEAXI@Z@4HA 000000018002b2e0 f   BerconNoise.obj
 0001:0002a2e0       ?dtor$0@?0???_GBerconXYZDlgProc@@UEAAPEAXI@Z@4HA 000000018002b2e0 f   BerconDistortion.obj
 0001:0002a2e0       ?dtor$0@?0???_GBerconTileDlgProc@@UEAAPEAXI@Z@4HA 000000018002b2e0 f   BerconTile.obj
 0001:0002a2f0       ?dtor$0@?0???_GIGradient@@UEAAPEAXI@Z@4HA 000000018002b2f0 f   BerconGradient.obj
 0001:0002a2fc       ?dtor$1@?0???_GIGradient@@UEAAPEAXI@Z@4HA 000000018002b2fc f   BerconGradient.obj
 0001:0002a310       ?dtor$0@?0???__EBerconGradientDesc@@YAXXZ@4HA 000000018002b310 f   BerconGradient.obj
 0001:0002a310       ?dtor$0@?0???__FBerconGradientDesc@@YAXXZ@4HA 000000018002b310 f   BerconGradient.obj
 0001:0002a320       ?dtor$0@?0???__Fxyz_blk@@YAXXZ@4HA 000000018002b320 f   BerconGradient.obj
 0001:0002a330       ?dtor$0@?0??DlgProc@BerconGradientDlgProc@@UEAA_JHPEAVIParamMap2@@PEAUHWND__@@I_K_J@Z@4HA 000000018002b330 f   BerconGradient.obj
 0001:0002a340       ?dtor$0@?0??GetSubTexmapSlotName@BerconGradient@@UEAA?AVWStr@@H@Z@4HA 000000018002b340 f   BerconGradient.obj
 0001:0002a367       ?dtor$1@?0??GetSubTexmapSlotName@BerconGradient@@UEAA?AVWStr@@H@Z@4HA 000000018002b367 f   BerconGradient.obj
 0001:0002a380       ?dtor$0@?0??GetSubTexmapSlotName@BerconTile@@UEAA?AVWStr@@H@Z@4HA 000000018002b380 f   BerconTile.obj
 0001:0002a380       ?dtor$0@?0??SubAnimName@BerconTile@@UEAA?AVWStr@@H@Z@4HA 000000018002b380 f   BerconTile.obj
 0001:0002a380       ?dtor$0@?0??SubAnimName@BerconWood@@UEAA?AVWStr@@H@Z@4HA 000000018002b380 f   BerconWood.obj
 0001:0002a380       ?dtor$0@?0??GetSubTexmapSlotName@BerconWood@@UEAA?AVWStr@@H@Z@4HA 000000018002b380 f   BerconWood.obj
 0001:0002a380       ?dtor$0@?0??SubAnimName@BerconDistortion@@UEAA?AVWStr@@H@Z@4HA 000000018002b380 f   BerconDistortion.obj
 0001:0002a380       ?dtor$0@?0??GetSubTexmapSlotName@BerconNoise@@UEAA?AVWStr@@H@Z@4HA 000000018002b380 f   BerconNoise.obj
 0001:0002a380       ?dtor$0@?0??GetSubTexmapSlotName@BerconDistortion@@UEAA?AVWStr@@H@Z@4HA 000000018002b380 f   BerconDistortion.obj
 0001:0002a380       ?dtor$0@?0??SubAnimName@BerconNoise@@UEAA?AVWStr@@H@Z@4HA 000000018002b380 f   BerconNoise.obj
 0001:0002a380       ?dtor$0@?0??SubAnimName@BerconGradient@@UEAA?AVWStr@@H@Z@4HA 000000018002b380 f   BerconGradient.obj
 0001:0002a3b0       ?dtor$0@?0???1TileRow@@QEAA@XZ@4HA 000000018002b3b0 f   tile.obj
 0001:0002a3b0       ?dtor$0@?0???$_Destroy_range1@V?$allocator@VTileRow@@@std@@PEAVTileRow@@@std@@YAXPEAVTileRow@@0AEAU?$_Wrap_alloc@V?$allocator@VTileRow@@@std@@@0@U?$integral_constant@_N$0A@@0@@Z@4HA 000000018002b3b0 f   BerconTile.obj
 0001:0002a3c0       ?dtor$0@?0???0BerconTile@@QEAA@XZ@4HA 000000018002b3c0 f   BerconTile.obj
 0001:0002a3cc       ?dtor$2@?0???0BerconTile@@QEAA@XZ@4HA 000000018002b3cc f   BerconTile.obj
 0001:0002a3dc       ?dtor$3@?0???0BerconTile@@QEAA@XZ@4HA 000000018002b3dc f   BerconTile.obj
 0001:0002a3ec       ?dtor$1@?0???0BerconTile@@QEAA@XZ@4HA 000000018002b3ec f   BerconTile.obj
 0001:0002a400       ?dtor$0@?0???1BerconTile@@UEAA@XZ@4HA 000000018002b400 f   BerconTile.obj
 0001:0002a40c       ?dtor$1@?0???1BerconTile@@UEAA@XZ@4HA 000000018002b40c f   BerconTile.obj
 0001:0002a41f       ?dtor$2@?0???1BerconTile@@UEAA@XZ@4HA 000000018002b41f f   BerconTile.obj
 0001:0002a430       ?dtor$0@?0???1TilePattern@@QEAA@XZ@4HA 000000018002b430 f   BerconTile.obj
 0001:0002a440       ?dtor$1@?0???1TilePattern@@QEAA@XZ@4HA 000000018002b440 f   BerconTile.obj
 0001:0002a450       ?dtor$0@?0???_GBerconDistortionClassDesc@@UEAAPEAXI@Z@4HA 000000018002b450 f   BerconDistortion.obj
 0001:0002a450       ?dtor$0@?0???_GBerconTileClassDesc@@UEAAPEAXI@Z@4HA 000000018002b450 f   BerconTile.obj
 0001:0002a450       ?dtor$0@?0???_GBerconGradientClassDesc@@UEAAPEAXI@Z@4HA 000000018002b450 f   BerconGradient.obj
 0001:0002a450       ?dtor$0@?0???_GBerconNoiseClassDesc@@UEAAPEAXI@Z@4HA 000000018002b450 f   BerconNoise.obj
 0001:0002a450       ?dtor$0@?0???_GBerconWoodClassDesc@@UEAAPEAXI@Z@4HA 000000018002b450 f   BerconWood.obj
 0001:0002a460       ?dtor$0@?0???__FBerconTileDesc@@YAXXZ@4HA 000000018002b460 f   BerconTile.obj
 0001:0002a460       ?dtor$0@?0???__EBerconTileDesc@@YAXXZ@4HA 000000018002b460 f   BerconTile.obj
 0001:0002a470       ?dtor$0@?0???__Fxyz_blk@@YAXXZ@4HA 000000018002b470 f   BerconTile.obj
 0001:0002a480       ?dtor$0@?0??Clone@BerconDistortion@@UEAAPEAVReferenceTarget@@AEAVRemapDir@@@Z@4HA 000000018002b480 f   BerconDistortion.obj
 0001:0002a480       ?dtor$0@?0??Clone@BerconNoise@@UEAAPEAVReferenceTarget@@AEAVRemapDir@@@Z@4HA 000000018002b480 f   BerconNoise.obj
 0001:0002a480       ?dtor$0@?0??Clone@BerconWood@@UEAAPEAVReferenceTarget@@AEAVRemapDir@@@Z@4HA 000000018002b480 f   BerconWood.obj
 0001:0002a480       ?dtor$0@?0??Clone@BerconTile@@UEAAPEAVReferenceTarget@@AEAVRemapDir@@@Z@4HA 000000018002b480 f   BerconTile.obj
 0001:0002a490       ?dtor$0@?0??EvalColor@BerconTile@@UEAA?AVAColor@@AEAVShadeContext@@@Z@4HA 000000018002b490 f   BerconTile.obj
 0001:0002a49c       ?dtor$1@?0??EvalColor@BerconTile@@UEAA?AVAColor@@AEAVShadeContext@@@Z@4HA 000000018002b49c f   BerconTile.obj
 0001:0002a4a8       ?dtor$2@?0??EvalColor@BerconTile@@UEAA?AVAColor@@AEAVShadeContext@@@Z@4HA 000000018002b4a8 f   BerconTile.obj
 0001:0002a4bb       ?dtor$3@?0??EvalColor@BerconTile@@UEAA?AVAColor@@AEAVShadeContext@@@Z@4HA 000000018002b4bb f   BerconTile.obj
 0001:0002a4c9       ?dtor$4@?0??EvalColor@BerconTile@@UEAA?AVAColor@@AEAVShadeContext@@@Z@4HA 000000018002b4c9 f   BerconTile.obj
 0001:0002a4d7       ?dtor$5@?0??EvalColor@BerconTile@@UEAA?AVAColor@@AEAVShadeContext@@@Z@4HA 000000018002b4d7 f   BerconTile.obj
 0001:0002a4e7       ?dtor$6@?0??EvalColor@BerconTile@@UEAA?AVAColor@@AEAVShadeContext@@@Z@4HA 000000018002b4e7 f   BerconTile.obj
 0001:0002a500       ?dtor$0@?0??EvalNormalPerturb@BerconTile@@UEAA?AVPoint3@@AEAVShadeContext@@@Z@4HA 000000018002b500 f   BerconTile.obj
 0001:0002a50c       ?dtor$1@?0??EvalNormalPerturb@BerconTile@@UEAA?AVPoint3@@AEAVShadeContext@@@Z@4HA 000000018002b50c f   BerconTile.obj
 0001:0002a518       ?dtor$2@?0??EvalNormalPerturb@BerconTile@@UEAA?AVPoint3@@AEAVShadeContext@@@Z@4HA 000000018002b518 f   BerconTile.obj
 0001:0002a52b       ?dtor$3@?0??EvalNormalPerturb@BerconTile@@UEAA?AVPoint3@@AEAVShadeContext@@@Z@4HA 000000018002b52b f   BerconTile.obj
 0001:0002a539       ?dtor$4@?0??EvalNormalPerturb@BerconTile@@UEAA?AVPoint3@@AEAVShadeContext@@@Z@4HA 000000018002b539 f   BerconTile.obj
 0001:0002a547       ?dtor$5@?0??EvalNormalPerturb@BerconTile@@UEAA?AVPoint3@@AEAVShadeContext@@@Z@4HA 000000018002b547 f   BerconTile.obj
 0001:0002a557       ?dtor$6@?0??EvalNormalPerturb@BerconTile@@UEAA?AVPoint3@@AEAVShadeContext@@@Z@4HA 000000018002b557 f   BerconTile.obj
 0001:0002a570       ?dtor$0@?0??Update@BerconTile@@UEAAXHAEAVInterval@@@Z@4HA 000000018002b570 f   BerconTile.obj
 0001:0002a580       ?catch$1@?0??_Copy@?$basic_string@_WU?$char_traits@_W@std@@V?$allocator@_W@2@@std@@QEAAX_K0@Z@4HA 000000018002b580 f   BerconTile.obj
 0001:0002a58d       __catch$?_Copy@?$basic_string@_WU?$char_traits@_W@std@@V?$allocator@_W@2@@std@@QEAAX_K0@Z$0 000000018002b58d f   BerconTile.obj
 0001:0002a5b3       ?catch$0@?0??_Copy@?$basic_string@_WU?$char_traits@_W@std@@V?$allocator@_W@2@@std@@QEAAX_K0@Z@4HA 000000018002b5b3 f   BerconTile.obj
 0001:0002a5c1       __catch$?_Copy@?$basic_string@_WU?$char_traits@_W@std@@V?$allocator@_W@2@@std@@QEAAX_K0@Z$1 000000018002b5c1 f   BerconTile.obj
 0001:0002a610       ?dtor$0@?0???1BerconNoise@@UEAA@XZ@4HA 000000018002b610 f   BerconNoise.obj
 0001:0002a610       ?dtor$0@?0???1BerconWood@@UEAA@XZ@4HA 000000018002b610 f   BerconWood.obj
 0001:0002a610       ?dtor$0@?0???1BerconGradient@@UEAA@XZ@4HA 000000018002b610 f   BerconGradient.obj
 0001:0002a610       ?dtor$0@?0???_GBerconDistortion@@UEAAPEAXI@Z@4HA 000000018002b610 f   BerconDistortion.obj
 0001:0002a61c       ?dtor$1@?0???1BerconNoise@@UEAA@XZ@4HA 000000018002b61c f   BerconNoise.obj
 0001:0002a61c       ?dtor$1@?0???1BerconGradient@@UEAA@XZ@4HA 000000018002b61c f   BerconGradient.obj
 0001:0002a61c       ?dtor$1@?0???1BerconWood@@UEAA@XZ@4HA 000000018002b61c f   BerconWood.obj
 0001:0002a61c       ?dtor$1@?0???_GBerconDistortion@@UEAAPEAXI@Z@4HA 000000018002b61c f   BerconDistortion.obj
 0001:0002a630       ?dtor$0@?0???__EBerconWoodDesc@@YAXXZ@4HA 000000018002b630 f   BerconWood.obj
 0001:0002a630       ?dtor$0@?0???__FBerconWoodDesc@@YAXXZ@4HA 000000018002b630 f   BerconWood.obj
 0001:0002a640       ?dtor$0@?0???__Fxyz_blk@@YAXXZ@4HA 000000018002b640 f   BerconWood.obj
 0001:0002a650       CommctrlIsolationAwarePrivatetRgCebPnQQeRff_pbZPgYQP_QYY$fin$0 000000018002b650 f   DllEntry.obj
 0001:0002a6b0       IsolationAwareInitCommonControls$fin$0 000000018002b6b0 f   DllEntry.obj
 0001:0002a6e0       WinbaseIsolationAwarePrivatetRgzlnPgpgk$fin$0 000000018002b6e0 f   DllEntry.obj
 0001:0002a700       ?dtor$0@?0???0BerconWood@@QEAA@XZ@4HA 000000018002b700 f   BerconWood.obj
 0001:0002a700       ?dtor$0@?0???0BerconNoise@@QEAA@XZ@4HA 000000018002b700 f   BerconNoise.obj
 0001:0002a710       ?dtor$0@?0???__EBerconNoiseDesc@@YAXXZ@4HA 000000018002b710 f   BerconNoise.obj
 0001:0002a710       ?dtor$0@?0???__FBerconNoiseDesc@@YAXXZ@4HA 000000018002b710 f   BerconNoise.obj
 0001:0002a720       ?dtor$0@?0???__Fxyz_blk@@YAXXZ@4HA 000000018002b720 f   BerconNoise.obj
 0001:0002a730       ?dtor$0@?0??Create@BerconTileClassDesc@@UEAAPEAXH@Z@4HA 000000018002b730 f   BerconTile.obj
 0001:0002a730       ?dtor$0@?0??Clone@BerconGradient@@UEAAPEAVReferenceTarget@@AEAVRemapDir@@@Z@4HA 000000018002b730 f   BerconGradient.obj
 0001:0002a730       ?dtor$0@?0??Create@BerconDistortionClassDesc@@UEAAPEAXH@Z@4HA 000000018002b730 f   BerconDistortion.obj
 0001:0002a730       ?dtor$0@?0??Create@BerconGradientClassDesc@@UEAAPEAXH@Z@4HA 000000018002b730 f   BerconGradient.obj
 0001:0002a730       ?dtor$0@?0??Create@BerconNoiseClassDesc@@UEAAPEAXH@Z@4HA 000000018002b730 f   BerconNoise.obj
 0001:0002a730       ?dtor$0@?0??Create@BerconWoodClassDesc@@UEAAPEAXH@Z@4HA 000000018002b730 f   BerconWood.obj
 0001:0002a740       ?dtor$0@?0??CreateParamDlg@BerconGradient@@UEAAPEAVParamDlg@@PEAUHWND__@@PEAVIMtlParams@@@Z@4HA 000000018002b740 f   BerconGradient.obj
 0001:0002a740       ?dtor$0@?0??CreateParamDlg@BerconNoise@@UEAAPEAVParamDlg@@PEAUHWND__@@PEAVIMtlParams@@@Z@4HA 000000018002b740 f   BerconNoise.obj
 0001:0002a740       ?dtor$0@?0??CreateParamDlg@BerconTile@@UEAAPEAVParamDlg@@PEAUHWND__@@PEAVIMtlParams@@@Z@4HA 000000018002b740 f   BerconTile.obj
 0001:0002a740       ?dtor$0@?0??CreateParamDlg@BerconWood@@UEAAPEAVParamDlg@@PEAUHWND__@@PEAVIMtlParams@@@Z@4HA 000000018002b740 f   BerconWood.obj
 0001:0002a74e       ?dtor$2@?0??CreateParamDlg@BerconNoise@@UEAAPEAVParamDlg@@PEAUHWND__@@PEAVIMtlParams@@@Z@4HA 000000018002b74e f   BerconNoise.obj
 0001:0002a74e       ?dtor$2@?0??CreateParamDlg@BerconWood@@UEAAPEAVParamDlg@@PEAUHWND__@@PEAVIMtlParams@@@Z@4HA 000000018002b74e f   BerconWood.obj
 0001:0002a74e       ?dtor$2@?0??CreateParamDlg@BerconGradient@@UEAAPEAVParamDlg@@PEAUHWND__@@PEAVIMtlParams@@@Z@4HA 000000018002b74e f   BerconGradient.obj
 0001:0002a74e       ?dtor$2@?0??CreateParamDlg@BerconTile@@UEAAPEAVParamDlg@@PEAUHWND__@@PEAVIMtlParams@@@Z@4HA 000000018002b74e f   BerconTile.obj
 0001:0002a75a       ?dtor$1@?0??CreateParamDlg@BerconWood@@UEAAPEAVParamDlg@@PEAUHWND__@@PEAVIMtlParams@@@Z@4HA 000000018002b75a f   BerconWood.obj
 0001:0002a75a       ?dtor$1@?0??CreateParamDlg@BerconGradient@@UEAAPEAVParamDlg@@PEAUHWND__@@PEAVIMtlParams@@@Z@4HA 000000018002b75a f   BerconGradient.obj
 0001:0002a75a       ?dtor$1@?0??CreateParamDlg@BerconNoise@@UEAAPEAVParamDlg@@PEAUHWND__@@PEAVIMtlParams@@@Z@4HA 000000018002b75a f   BerconNoise.obj
 0001:0002a75a       ?dtor$1@?0??CreateParamDlg@BerconTile@@UEAAPEAVParamDlg@@PEAUHWND__@@PEAVIMtlParams@@@Z@4HA 000000018002b75a f   BerconTile.obj
 0001:0002a768       ?dtor$3@?0??CreateParamDlg@BerconNoise@@UEAAPEAVParamDlg@@PEAUHWND__@@PEAVIMtlParams@@@Z@4HA 000000018002b768 f   BerconNoise.obj
 0001:0002a768       ?dtor$3@?0??CreateParamDlg@BerconTile@@UEAAPEAVParamDlg@@PEAUHWND__@@PEAVIMtlParams@@@Z@4HA 000000018002b768 f   BerconTile.obj
 0001:0002a768       ?dtor$3@?0??CreateParamDlg@BerconWood@@UEAAPEAVParamDlg@@PEAUHWND__@@PEAVIMtlParams@@@Z@4HA 000000018002b768 f   BerconWood.obj
 0001:0002a768       ?dtor$3@?0??CreateParamDlg@BerconGradient@@UEAAPEAVParamDlg@@PEAUHWND__@@PEAVIMtlParams@@@Z@4HA 000000018002b768 f   BerconGradient.obj
 0001:0002a780       ?dtor$0@?0??addKey@GradientRamp@@QEAAXHMVAColor@@PEAVTexmap@@@Z@4HA 000000018002b780 f   GradientRamp.obj
 0001:0002a790       IsolationAwareRegisterClassExW$fin$0 000000018002b790 f   IGradient.obj
 0001:0002a7f0       ?catch$0@?0???$_Uninitialized_move_al_unchecked1@PEAV?$basic_string@_WU?$char_traits@_W@std@@V?$allocator@_W@2@@std@@PEAV12@V?$allocator@V?$basic_string@_WU?$char_traits@_W@std@@V?$allocator@_W@2@@std@@@2@@std@@YAPEAV?$basic_string@_WU?$char_traits@_W@std@@V?$allocator@_W@2@@0@PEAV10@00AEAU?$_Wrap_alloc@V?$allocator@V?$basic_string@_WU?$char_traits@_W@std@@V?$allocator@_W@2@@std@@@std@@@0@U_General_ptr_iterator_tag@0@U_Any_tag@0@@Z@4HA 000000018002b7f0 f   tile.obj
 0001:0002a7fd       __catch$??$_Uninitialized_move_al_unchecked1@PEAV?$basic_string@_WU?$char_traits@_W@std@@V?$allocator@_W@2@@std@@PEAV12@V?$allocator@V?$basic_string@_WU?$char_traits@_W@std@@V?$allocator@_W@2@@std@@@2@@std@@YAPEAV?$basic_string@_WU?$char_traits@_W@std@@V?$allocator@_W@2@@0@PEAV10@00AEAU?$_Wrap_alloc@V?$allocator@V?$basic_string@_WU?$char_traits@_W@std@@V?$allocator@_W@2@@std@@@std@@@0@U_General_ptr_iterator_tag@0@U_Any_tag@0@@Z$0 000000018002b7fd f   tile.obj
 0001:0002a820       ?dtor$0@?0???$_Uninitialized_move_al_unchecked1@PEAVTileRow@@PEAV1@V?$allocator@VTileRow@@@std@@@std@@YAPEAVTileRow@@PEAV1@00AEAU?$_Wrap_alloc@V?$allocator@VTileRow@@@std@@@0@U_General_ptr_iterator_tag@0@U_Any_tag@0@@Z@4HA 000000018002b820 f   tile.obj
 0001:0002a830       ?catch$1@?0???$_Uninitialized_move_al_unchecked1@PEAVTileRow@@PEAV1@V?$allocator@VTileRow@@@std@@@std@@YAPEAVTileRow@@PEAV1@00AEAU?$_Wrap_alloc@V?$allocator@VTileRow@@@std@@@0@U_General_ptr_iterator_tag@0@U_Any_tag@0@@Z@4HA 000000018002b830 f   tile.obj
 0001:0002a83d       __catch$??$_Uninitialized_move_al_unchecked1@PEAVTileRow@@PEAV1@V?$allocator@VTileRow@@@std@@@std@@YAPEAVTileRow@@PEAV1@00AEAU?$_Wrap_alloc@V?$allocator@VTileRow@@@std@@@0@U_General_ptr_iterator_tag@0@U_Any_tag@0@@Z$0 000000018002b83d f   tile.obj
 0001:0002a860       ?catch$0@?0???0?$vector@MV?$allocator@M@std@@@std@@QEAA@AEBV01@@Z@4HA 000000018002b860 f   tile.obj
 0001:0002a86e       __catch$??0?$vector@MV?$allocator@M@std@@@std@@QEAA@AEBV01@@Z$0 000000018002b86e f   tile.obj
 0001:0002a8b0       ?dtor$0@?0???1?$basic_stringstream@_WU?$char_traits@_W@std@@V?$allocator@_W@2@@std@@UEAA@XZ@4HA 000000018002b8b0 f   tile.obj
 0001:0002a8c9       ?dtor$1@?0???1?$basic_stringstream@_WU?$char_traits@_W@std@@V?$allocator@_W@2@@std@@UEAA@XZ@4HA 000000018002b8c9 f   tile.obj
 0001:0002a8e0       ?dtor$2@?0???1?$basic_stringstream@_WU?$char_traits@_W@std@@V?$allocator@_W@2@@std@@UEAA@XZ@4HA 000000018002b8e0 f   tile.obj
 0001:0002a8f0       ?dtor$0@?0???_G?$basic_stringbuf@_WU?$char_traits@_W@std@@V?$allocator@_W@2@@std@@UEAAPEAXI@Z@4HA 000000018002b8f0 f   tile.obj
 0001:0002a8f0       ?dtor$0@?0???1?$basic_stringbuf@_WU?$char_traits@_W@std@@V?$allocator@_W@2@@std@@UEAA@XZ@4HA 000000018002b8f0 f   tile.obj
 0001:0002a900       ?dtor$0@?0???_D?$basic_stringstream@_WU?$char_traits@_W@std@@V?$allocator@_W@2@@std@@QEAAXXZ@4HA 000000018002b900 f   tile.obj
 0001:0002a900       ?dtor$0@?0???_G?$basic_stringstream@_WU?$char_traits@_W@std@@V?$allocator@_W@2@@std@@UEAAPEAXI@Z@4HA 000000018002b900 f   tile.obj
 0001:0002a910       ?catch$0@?0??_Reallocate@?$vector@MV?$allocator@M@std@@@std@@IEAAX_K@Z@4HA 000000018002b910 f   tile.obj
 0001:0002a91d       __catch$?_Reallocate@?$vector@MV?$allocator@M@std@@@std@@IEAAX_K@Z$0 000000018002b91d f   tile.obj
 0001:0002a940       ?catch$0@?0??_Reallocate@?$vector@V?$basic_string@_WU?$char_traits@_W@std@@V?$allocator@_W@2@@std@@V?$allocator@V?$basic_string@_WU?$char_traits@_W@std@@V?$allocator@_W@2@@std@@@2@@std@@IEAAX_K@Z@4HA 000000018002b940 f   tile.obj
 0001:0002a94d       __catch$?_Reallocate@?$vector@V?$basic_string@_WU?$char_traits@_W@std@@V?$allocator@_W@2@@std@@V?$allocator@V?$basic_string@_WU?$char_traits@_W@std@@V?$allocator@_W@2@@std@@@2@@std@@IEAAX_K@Z$0 000000018002b94d f   tile.obj
 0001:0002a970       ?catch$0@?0??_Reallocate@?$vector@VTileRow@@V?$allocator@VTileRow@@@std@@@std@@IEAAX_K@Z@4HA 000000018002b970 f   tile.obj
 0001:0002a97d       __catch$?_Reallocate@?$vector@VTileRow@@V?$allocator@VTileRow@@@std@@@std@@IEAAX_K@Z$0 000000018002b97d f   tile.obj
 0001:0002a9a0       ?dtor$0@?0??parsePattern@@YAHV?$basic_string@_WU?$char_traits@_W@std@@V?$allocator@_W@2@@std@@PEAVTilePattern@@@Z@4HA 000000018002b9a0 f   tile.obj
 0001:0002a9ac       ?dtor$1@?0??parsePattern@@YAHV?$basic_string@_WU?$char_traits@_W@std@@V?$allocator@_W@2@@std@@PEAVTilePattern@@@Z@4HA 000000018002b9ac f   tile.obj
 0001:0002a9b8       ?dtor$2@?0??parsePattern@@YAHV?$basic_string@_WU?$char_traits@_W@std@@V?$allocator@_W@2@@std@@PEAVTilePattern@@@Z@4HA 000000018002b9b8 f   tile.obj
 0001:0002a9c4       ?dtor$3@?0??parsePattern@@YAHV?$basic_string@_WU?$char_traits@_W@std@@V?$allocator@_W@2@@std@@PEAVTilePattern@@@Z@4HA 000000018002b9c4 f   tile.obj
 0001:0002a9d0       ?dtor$4@?0??parsePattern@@YAHV?$basic_string@_WU?$char_traits@_W@std@@V?$allocator@_W@2@@std@@PEAVTilePattern@@@Z@4HA 000000018002b9d0 f   tile.obj
 0001:0002a9dc       ?dtor$9@?0??parsePattern@@YAHV?$basic_string@_WU?$char_traits@_W@std@@V?$allocator@_W@2@@std@@PEAVTilePattern@@@Z@4HA 000000018002b9dc f   tile.obj
 0001:0002aa0d       ?dtor$10@?0??parsePattern@@YAHV?$basic_string@_WU?$char_traits@_W@std@@V?$allocator@_W@2@@std@@PEAVTilePattern@@@Z@4HA 000000018002ba0d f   tile.obj
 0001:0002aa1f       ?dtor$12@?0??parsePattern@@YAHV?$basic_string@_WU?$char_traits@_W@std@@V?$allocator@_W@2@@std@@PEAVTilePattern@@@Z@4HA 000000018002ba1f f   tile.obj
 0001:0002aa2d       ?dtor$11@?0??parsePattern@@YAHV?$basic_string@_WU?$char_traits@_W@std@@V?$allocator@_W@2@@std@@PEAVTilePattern@@@Z@4HA 000000018002ba2d f   tile.obj
 0001:0002aa3d       ?dtor$5@?0??parsePattern@@YAHV?$basic_string@_WU?$char_traits@_W@std@@V?$allocator@_W@2@@std@@PEAVTilePattern@@@Z@4HA 000000018002ba3d f   tile.obj
 0001:0002aa49       ?dtor$13@?0??parsePattern@@YAHV?$basic_string@_WU?$char_traits@_W@std@@V?$allocator@_W@2@@std@@PEAVTilePattern@@@Z@4HA 000000018002ba49 f   tile.obj
 0001:0002aa7a       ?dtor$14@?0??parsePattern@@YAHV?$basic_string@_WU?$char_traits@_W@std@@V?$allocator@_W@2@@std@@PEAVTilePattern@@@Z@4HA 000000018002ba7a f   tile.obj
 0001:0002aa8c       ?dtor$16@?0??parsePattern@@YAHV?$basic_string@_WU?$char_traits@_W@std@@V?$allocator@_W@2@@std@@PEAVTilePattern@@@Z@4HA 000000018002ba8c f   tile.obj
 0001:0002aa9a       ?dtor$15@?0??parsePattern@@YAHV?$basic_string@_WU?$char_traits@_W@std@@V?$allocator@_W@2@@std@@PEAVTilePattern@@@Z@4HA 000000018002ba9a f   tile.obj
 0001:0002aaaa       ?dtor$6@?0??parsePattern@@YAHV?$basic_string@_WU?$char_traits@_W@std@@V?$allocator@_W@2@@std@@PEAVTilePattern@@@Z@4HA 000000018002baaa f   tile.obj
 0001:0002aab6       ?dtor$17@?0??parsePattern@@YAHV?$basic_string@_WU?$char_traits@_W@std@@V?$allocator@_W@2@@std@@PEAVTilePattern@@@Z@4HA 000000018002bab6 f   tile.obj
 0001:0002aac6       ?dtor$7@?0??parsePattern@@YAHV?$basic_string@_WU?$char_traits@_W@std@@V?$allocator@_W@2@@std@@PEAVTilePattern@@@Z@4HA 000000018002bac6 f   tile.obj
 0001:0002aad2       ?dtor$18@?0??parsePattern@@YAHV?$basic_string@_WU?$char_traits@_W@std@@V?$allocator@_W@2@@std@@PEAVTilePattern@@@Z@4HA 000000018002bad2 f   tile.obj
 0001:0002ab03       ?dtor$19@?0??parsePattern@@YAHV?$basic_string@_WU?$char_traits@_W@std@@V?$allocator@_W@2@@std@@PEAVTilePattern@@@Z@4HA 000000018002bb03 f   tile.obj
 0001:0002ab15       ?dtor$21@?0??parsePattern@@YAHV?$basic_string@_WU?$char_traits@_W@std@@V?$allocator@_W@2@@std@@PEAVTilePattern@@@Z@4HA 000000018002bb15 f   tile.obj
 0001:0002ab23       ?dtor$20@?0??parsePattern@@YAHV?$basic_string@_WU?$char_traits@_W@std@@V?$allocator@_W@2@@std@@PEAVTilePattern@@@Z@4HA 000000018002bb23 f   tile.obj
 0001:0002ab33       ?dtor$8@?0??parsePattern@@YAHV?$basic_string@_WU?$char_traits@_W@std@@V?$allocator@_W@2@@std@@PEAVTilePattern@@@Z@4HA 000000018002bb33 f   tile.obj
 0001:0002ab3f       ?dtor$22@?0??parsePattern@@YAHV?$basic_string@_WU?$char_traits@_W@std@@V?$allocator@_W@2@@std@@PEAVTilePattern@@@Z@4HA 000000018002bb3f f   tile.obj
 0001:0002ab58       ?dtor$23@?0??parsePattern@@YAHV?$basic_string@_WU?$char_traits@_W@std@@V?$allocator@_W@2@@std@@PEAVTilePattern@@@Z@4HA 000000018002bb58 f   tile.obj
 0001:0002ab6f       ?dtor$24@?0??parsePattern@@YAHV?$basic_string@_WU?$char_traits@_W@std@@V?$allocator@_W@2@@std@@PEAVTilePattern@@@Z@4HA 000000018002bb6f f   tile.obj
 0001:0002ab7d       ?dtor$25@?0??parsePattern@@YAHV?$basic_string@_WU?$char_traits@_W@std@@V?$allocator@_W@2@@std@@PEAVTilePattern@@@Z@4HA 000000018002bb7d f   tile.obj
 0001:0002ab8b       ?dtor$26@?0??parsePattern@@YAHV?$basic_string@_WU?$char_traits@_W@std@@V?$allocator@_W@2@@std@@PEAVTilePattern@@@Z@4HA 000000018002bb8b f   tile.obj
 0001:0002abad       ?dtor$27@?0??parsePattern@@YAHV?$basic_string@_WU?$char_traits@_W@std@@V?$allocator@_W@2@@std@@PEAVTilePattern@@@Z@4HA 000000018002bbad f   tile.obj
 0001:0002abbd       ?dtor$28@?0??parsePattern@@YAHV?$basic_string@_WU?$char_traits@_W@std@@V?$allocator@_W@2@@std@@PEAVTilePattern@@@Z@4HA 000000018002bbbd f   tile.obj
 0001:0002abdf       ?dtor$29@?0??parsePattern@@YAHV?$basic_string@_WU?$char_traits@_W@std@@V?$allocator@_W@2@@std@@PEAVTilePattern@@@Z@4HA 000000018002bbdf f   tile.obj
 0001:0002abef       ?dtor$30@?0??parsePattern@@YAHV?$basic_string@_WU?$char_traits@_W@std@@V?$allocator@_W@2@@std@@PEAVTilePattern@@@Z@4HA 000000018002bbef f   tile.obj
 0001:0002abff       ?dtor$31@?0??parsePattern@@YAHV?$basic_string@_WU?$char_traits@_W@std@@V?$allocator@_W@2@@std@@PEAVTilePattern@@@Z@4HA 000000018002bbff f   tile.obj
 0001:0002ac0d       ?dtor$32@?0??parsePattern@@YAHV?$basic_string@_WU?$char_traits@_W@std@@V?$allocator@_W@2@@std@@PEAVTilePattern@@@Z@4HA 000000018002bc0d f   tile.obj
 0001:0002ac20       ?dtor$0@?0??setPattern@TilePattern@@QEAAXV?$basic_string@_WU?$char_traits@_W@std@@V?$allocator@_W@2@@std@@@Z@4HA 000000018002bc20 f   tile.obj
 0001:0002ac2c       ?dtor$1@?0??setPattern@TilePattern@@QEAAXV?$basic_string@_WU?$char_traits@_W@std@@V?$allocator@_W@2@@std@@@Z@4HA 000000018002bc2c f   tile.obj
 0001:0002ac40       ?dtor$0@?0??setPreset@TilePattern@@QEAAXH@Z@4HA 000000018002bc40 f   tile.obj
 0001:0002ac4c       ?dtor$1@?0??setPreset@TilePattern@@QEAAXH@Z@4HA 000000018002bc4c f   tile.obj
 0001:0002ac58       ?dtor$2@?0??setPreset@TilePattern@@QEAAXH@Z@4HA 000000018002bc58 f   tile.obj
 0001:0002ac64       ?dtor$3@?0??setPreset@TilePattern@@QEAAXH@Z@4HA 000000018002bc64 f   tile.obj
 0001:0002ac70       ?dtor$4@?0??setPreset@TilePattern@@QEAAXH@Z@4HA 000000018002bc70 f   tile.obj
 0001:0002ac7c       ?dtor$5@?0??setPreset@TilePattern@@QEAAXH@Z@4HA 000000018002bc7c f   tile.obj
 0001:0002ac88       ?dtor$6@?0??setPreset@TilePattern@@QEAAXH@Z@4HA 000000018002bc88 f   tile.obj
 0001:0002ac94       ?dtor$7@?0??setPreset@TilePattern@@QEAAXH@Z@4HA 000000018002bc94 f   tile.obj
 0001:0002aca0       ?dtor$8@?0??setPreset@TilePattern@@QEAAXH@Z@4HA 000000018002bca0 f   tile.obj
 0001:0002acac       ?dtor$9@?0??setPreset@TilePattern@@QEAAXH@Z@4HA 000000018002bcac f   tile.obj
 0001:0002acc0       ?dtor$0@?0??substr@?$basic_string@_WU?$char_traits@_W@std@@V?$allocator@_W@2@@std@@QEBA?AV12@_K0@Z@4HA 000000018002bcc0 f   tile.obj
 0001:0002acf0       ?dtor$0@?0??tokenize@@YAXAEBV?$basic_string@_WU?$char_traits@_W@std@@V?$allocator@_W@2@@std@@AEAV?$vector@V?$basic_string@_WU?$char_traits@_W@std@@V?$allocator@_W@2@@std@@V?$allocator@V?$basic_string@_WU?$char_traits@_W@std@@V?$allocator@_W@2@@std@@@2@@2@0@Z@4HA 000000018002bcf0 f   tile.obj
 0001:0002acfc       __scrt_is_nonwritable_in_current_image$filt$0 000000018002bcfc f   MSVCRT:utility.obj
 0001:0002ad14       ?fin$0@?0??dllmain_crt_process_attach@@YAHQEAUHINSTANCE__@@QEAX@Z@4HA 000000018002bd14 f   MSVCRT:dll_dllmain.obj
 0001:0002ad2b       ?fin$0@?0??dllmain_crt_process_detach@@YAH_N@Z@4HA 000000018002bd2b f   MSVCRT:dll_dllmain.obj
 0001:0002ad47       ?filt$0@?0??dllmain_dispatch@@YAHQEAUHINSTANCE__@@KQEAX@Z@4HA 000000018002bd47 f   MSVCRT:dll_dllmain.obj
 0001:0002ad80       ??__FBerconDistortionDesc@@YAXXZ 000000018002bd80 f   BerconDistortion.obj
 0001:0002adb0       ??__FBerconDistortion_param_blk@@YAXXZ 000000018002bdb0 f   BerconDistortion.obj
 0001:0002adc0       ??__Fxyz_blk@@YAXXZ        000000018002bdc0 f   BerconDistortion.obj
 0001:0002ade0       ??__FBerconGradientDesc@@YAXXZ 000000018002bde0 f   BerconGradient.obj
 0001:0002ae00       ??__Fgradientmap_param_blk@@YAXXZ 000000018002be00 f   BerconGradient.obj
 0001:0002ae10       ??__Fxyz_blk@@YAXXZ        000000018002be10 f   BerconGradient.obj
 0001:0002ae30       ??__FBerconMap_param_blk@@YAXXZ 000000018002be30 f   BerconTile.obj
 0001:0002ae40       ??__FBerconTileDesc@@YAXXZ 000000018002be40 f   BerconTile.obj
 0001:0002ae70       ??__FBerconTile_param_blk@@YAXXZ 000000018002be70 f   BerconTile.obj
 0001:0002ae80       ??__Fxyz_blk@@YAXXZ        000000018002be80 f   BerconTile.obj
 0001:0002aea0       ??__FBerconMap_param_blk@@YAXXZ 000000018002bea0 f   BerconWood.obj
 0001:0002aeb0       ??__FBerconWoodDesc@@YAXXZ 000000018002beb0 f   BerconWood.obj
 0001:0002aed0       ??__FBerconWood_param_blk@@YAXXZ 000000018002bed0 f   BerconWood.obj
 0001:0002aee0       ??__Fxyz_blk@@YAXXZ        000000018002bee0 f   BerconWood.obj
 0001:0002af00       ??__FBerconMap_param_blk@@YAXXZ 000000018002bf00 f   BerconNoise.obj
 0001:0002af10       ??__FBerconNoiseDesc@@YAXXZ 000000018002bf10 f   BerconNoise.obj
 0001:0002af30       ??__Fberconnoise_param_blk@@YAXXZ 000000018002bf30 f   BerconNoise.obj
 0001:0002af40       ??__Fxyz_blk@@YAXXZ        000000018002bf40 f   BerconNoise.obj
 0002:000008d0       ?kInvalidId$initializer$@AssetManagement@MaxSDK@@3P6AXXZEA 000000018002c8d0     BerconDistortion.obj
 0002:000008d8       ?BerconDistortionDesc$initializer$@@3P6AXXZEA 000000018002c8d8     BerconDistortion.obj
 0002:000008e0       ?xyz_blk$initializer$@@3P6AXXZEA 000000018002c8e0     BerconDistortion.obj
 0002:000008e8       ?BerconDistortion_param_blk$initializer$@@3P6AXXZEA 000000018002c8e8     BerconDistortion.obj
 0002:000008f0       ?kInvalidId$initializer$@AssetManagement@MaxSDK@@3P6AXXZEA 000000018002c8f0     BerconGradient.obj
 0002:000008f8       ?BerconGradientDesc$initializer$@@3P6AXXZEA 000000018002c8f8     BerconGradient.obj
 0002:00000900       ?xyz_blk$initializer$@@3P6AXXZEA 000000018002c900     BerconGradient.obj
 0002:00000908       ?gradientmap_param_blk$initializer$@@3P6AXXZEA 000000018002c908     BerconGradient.obj
 0002:00000910       ?kInvalidId$initializer$@AssetManagement@MaxSDK@@3P6AXXZEA 000000018002c910     BerconTile.obj
 0002:00000918       ?BerconTileDesc$initializer$@@3P6AXXZEA 000000018002c918     BerconTile.obj
 0002:00000920       ?xyz_blk$initializer$@@3P6AXXZEA 000000018002c920     BerconTile.obj
 0002:00000928       ?BerconTile_param_blk$initializer$@@3P6AXXZEA 000000018002c928     BerconTile.obj
 0002:00000930       ?BerconMap_param_blk$initializer$@@3P6AXXZEA 000000018002c930     BerconTile.obj
 0002:00000938       ?kInvalidId$initializer$@AssetManagement@MaxSDK@@3P6AXXZEA 000000018002c938     BerconWood.obj
 0002:00000940       ?BerconWoodDesc$initializer$@@3P6AXXZEA 000000018002c940     BerconWood.obj
 0002:00000948       ?xyz_blk$initializer$@@3P6AXXZEA 000000018002c948     BerconWood.obj
 0002:00000950       ?BerconWood_param_blk$initializer$@@3P6AXXZEA 000000018002c950     BerconWood.obj
 0002:00000958       ?BerconMap_param_blk$initializer$@@3P6AXXZEA 000000018002c958     BerconWood.obj
 0002:00000960       ?kInvalidId$initializer$@AssetManagement@MaxSDK@@3P6AXXZEA 000000018002c960     DllEntry.obj
 0002:00000968       ?kInvalidId$initializer$@AssetManagement@MaxSDK@@3P6AXXZEA 000000018002c968     BerconCommon.obj
 0002:00000970       ?kInvalidId$initializer$@AssetManagement@MaxSDK@@3P6AXXZEA 000000018002c970     BerconNoise.obj
 0002:00000978       ?BerconNoiseDesc$initializer$@@3P6AXXZEA 000000018002c978     BerconNoise.obj
 0002:00000980       ?xyz_blk$initializer$@@3P6AXXZEA 000000018002c980     BerconNoise.obj
 0002:00000988       ?berconnoise_param_blk$initializer$@@3P6AXXZEA 000000018002c988     BerconNoise.obj
 0002:00000990       ?BerconMap_param_blk$initializer$@@3P6AXXZEA 000000018002c990     BerconNoise.obj
 0002:00000998       ?kInvalidId$initializer$@AssetManagement@MaxSDK@@3P6AXXZEA 000000018002c998     fractal.obj
 0002:000009a0       ?kInvalidId$initializer$@AssetManagement@MaxSDK@@3P6AXXZEA 000000018002c9a0     GradientRamp.obj
 0002:000009a8       ?kInvalidId$initializer$@AssetManagement@MaxSDK@@3P6AXXZEA 000000018002c9a8     IGradient.obj
 0002:000009b0       ?kInvalidId$initializer$@AssetManagement@MaxSDK@@3P6AXXZEA 000000018002c9b0     noise.obj
 0002:000009b8       ?kInvalidId$initializer$@AssetManagement@MaxSDK@@3P6AXXZEA 000000018002c9b8     tile.obj
 0002:000009c0       ?kInvalidId$initializer$@AssetManagement@MaxSDK@@3P6AXXZEA 000000018002c9c0     commonMath.obj
 0002:00001168       $cppxdata$??1TabOutOfRangeException@Util@MaxSDK@@UEAA@XZ 000000018002d168     BerconDistortion.obj
 0002:00001190       $cppxdata$??0TabOutOfRangeException@Util@MaxSDK@@QEAA@AEBV012@@Z 000000018002d190     BerconDistortion.obj
 0002:000011b8       $cppxdata$??_GTabOutOfRangeException@Util@MaxSDK@@UEAAPEAXI@Z 000000018002d1b8     BerconDistortion.obj
 0002:000011e0       $cppxdata$??1?$Tab@PEAVBaseInterface@@@@QEAA@XZ 000000018002d1e0     BerconDistortion.obj
 0002:00001208       $cppxdata$??A?$Tab@PEAVFPInterface@@@@QEBAAEAPEAVFPInterface@@_J@Z 000000018002d208     BerconDistortion.obj
 0002:00001230       $cppxdata$??1RenderGlobalContext@@UEAA@XZ 000000018002d230     BerconDistortion.obj
 0002:00001258       $cppxdata$??_GRenderGlobalContext@@UEAAPEAXI@Z 000000018002d258     BerconDistortion.obj
 0002:00001280       $cppxdata$??1ShadeOutput@@UEAA@XZ 000000018002d280     BerconDistortion.obj
 0002:000012a8       $cppxdata$??_GShadeOutput@@UEAAPEAXI@Z 000000018002d2a8     BerconDistortion.obj
 0002:000012d0       $cppxdata$??1ShadeContext@@UEAA@XZ 000000018002d2d0     BerconDistortion.obj
 0002:000012f8       $cppxdata$??_GShadeContext@@UEAAPEAXI@Z 000000018002d2f8     BerconDistortion.obj
 0002:00001320       $cppxdata$??1Texmap@@UEAA@XZ 000000018002d320     BerconDistortion.obj
 0002:00001348       $cppxdata$??1?$Tab@PEAVVertexNormalsCallback@@@@QEAA@XZ 000000018002d348     BerconDistortion.obj
 0002:00001370       $cppxdata$??0VertexNormalsControl@@QEAA@XZ 000000018002d370     BerconDistortion.obj
 0002:00001398       $cppxdata$??0XYZ_Desc@@QEAA@PEAVClassDesc2@@HHHHHHH@Z 000000018002d398     BerconDistortion.obj
 0002:000013c0       $cppxdata$??_GXYZ_Desc@@UEAAPEAXI@Z 000000018002d3c0     BerconDistortion.obj
 0002:000013e8       $cppxdata$?DeleteThis@BerconXYZDlgProc@@UEAAXXZ 000000018002d3e8     BerconDistortion.obj
 0002:00001410       $cppxdata$??_GBerconXYZDlgProc@@UEAAPEAXI@Z 000000018002d410     BerconDistortion.obj
 0002:00001438       $cppxdata$??0BerconSC@@QEAA@QEAVShadeContext@@@Z 000000018002d438     BerconDistortion.obj
 0002:00001460       $cppxdata$??1BerconSC@@UEAA@XZ 000000018002d460     BerconDistortion.obj
 0002:00001488       $cppxdata$??_GBerconSC@@UEAAPEAXI@Z 000000018002d488     BerconDistortion.obj
 0002:000014b0       $cppxdata$?CreateParamDlg@BerconDistortion@@UEAAPEAVParamDlg@@PEAUHWND__@@PEAVIMtlParams@@@Z 000000018002d4b0     BerconDistortion.obj
 0002:000014d8       $cppxdata$?GetSubTexmapSlotName@BerconDistortion@@UEAA?AVWStr@@H@Z 000000018002d4d8     BerconDistortion.obj
 0002:00001500       $cppxdata$?EvalColor@BerconDistortion@@UEAA?AVAColor@@AEAVShadeContext@@@Z 000000018002d500     BerconDistortion.obj
 0002:00001528       $cppxdata$?EvalMono@BerconDistortion@@UEAAMAEAVShadeContext@@@Z 000000018002d528     BerconDistortion.obj
 0002:00001550       $cppxdata$?EvalNormalPerturb@BerconDistortion@@UEAA?AVPoint3@@AEAVShadeContext@@@Z 000000018002d550     BerconDistortion.obj
 0002:00001578       $cppxdata$?Clone@BerconDistortion@@UEAAPEAVReferenceTarget@@AEAVRemapDir@@@Z 000000018002d578     BerconDistortion.obj
 0002:000015a0       $cppxdata$?SubAnimName@BerconDistortion@@UEAA?AVWStr@@H@Z 000000018002d5a0     BerconDistortion.obj
 0002:000015c8       $cppxdata$??0BerconDistortion@@QEAA@XZ 000000018002d5c8     BerconDistortion.obj
 0002:000015f0       $cppxdata$??_GBerconDistortion@@UEAAPEAXI@Z 000000018002d5f0     BerconDistortion.obj
 0002:00001618       $cppxdata$?Create@BerconDistortionClassDesc@@UEAAPEAXH@Z 000000018002d618     BerconDistortion.obj
 0002:00001640       $cppxdata$??_GBerconDistortionClassDesc@@UEAAPEAXI@Z 000000018002d640     BerconDistortion.obj
 0002:00001668       $cppxdata$??__EBerconDistortionDesc@@YAXXZ 000000018002d668     BerconDistortion.obj
 0002:00001690       $cppxdata$??__FBerconDistortionDesc@@YAXXZ 000000018002d690     BerconDistortion.obj
 0002:000016b8       $cppxdata$??__Fxyz_blk@@YAXXZ 000000018002d6b8     BerconDistortion.obj
 0002:00002a78       $cppxdata$??1ICustomControl@@UEAA@XZ 000000018002ea78     BerconGradient.obj
 0002:00002aa0       $cppxdata$??_GICustomControl@@UEAAPEAXI@Z 000000018002eaa0     BerconGradient.obj
 0002:00002ac8       $cppxdata$??0IGradient@@QEAA@PEAUHWND__@@PEAVGradientRamp@@@Z 000000018002eac8     BerconGradient.obj
 0002:00002af0       $cppxdata$??_GIGradient@@UEAAPEAXI@Z 000000018002eaf0     BerconGradient.obj
 0002:00002b18       $cppxdata$?CreateParamDlg@BerconGradient@@UEAAPEAVParamDlg@@PEAUHWND__@@PEAVIMtlParams@@@Z 000000018002eb18     BerconGradient.obj
 0002:00002b40       $cppxdata$?GetSubTexmapSlotName@BerconGradient@@UEAA?AVWStr@@H@Z 000000018002eb40     BerconGradient.obj
 0002:00002b68       $cppxdata$?Clone@BerconGradient@@UEAAPEAVReferenceTarget@@AEAVRemapDir@@@Z 000000018002eb68     BerconGradient.obj
 0002:00002b90       $cppxdata$?SubAnimName@BerconGradient@@UEAA?AVWStr@@H@Z 000000018002eb90     BerconGradient.obj
 0002:00002bb8       $cppxdata$??0BerconGradient@@QEAA@XZ 000000018002ebb8     BerconGradient.obj
 0002:00002be0       $cppxdata$??1BerconGradient@@UEAA@XZ 000000018002ebe0     BerconGradient.obj
 0002:00002c08       $cppxdata$?Create@BerconGradientClassDesc@@UEAAPEAXH@Z 000000018002ec08     BerconGradient.obj
 0002:00002c30       $cppxdata$??_GBerconGradientClassDesc@@UEAAPEAXI@Z 000000018002ec30     BerconGradient.obj
 0002:00002c58       $cppxdata$??__EBerconGradientDesc@@YAXXZ 000000018002ec58     BerconGradient.obj
 0002:00002c80       $cppxdata$??__FBerconGradientDesc@@YAXXZ 000000018002ec80     BerconGradient.obj
 0002:00002ca8       $cppxdata$??__Fxyz_blk@@YAXXZ 000000018002eca8     BerconGradient.obj
 0002:00002cd0       $cppxdata$?DlgProc@BerconGradientDlgProc@@UEAA_JHPEAVIParamMap2@@PEAUHWND__@@I_K_J@Z 000000018002ecd0     BerconGradient.obj
 0002:00002cf8       $cppxdata$??_GBerconGradientDlgProc@@UEAAPEAXI@Z 000000018002ecf8     BerconGradient.obj
 0002:00003b38       $cppxdata$??1?$basic_string@_WU?$char_traits@_W@std@@V?$allocator@_W@2@@std@@QEAA@XZ 000000018002fb38     BerconTile.obj
 0002:00003b60       $cppxdata$?_Copy@?$basic_string@_WU?$char_traits@_W@std@@V?$allocator@_W@2@@std@@QEAAX_K0@Z 000000018002fb60     BerconTile.obj
 0002:00003b88       $cppxdata$??1?$vector@MV?$allocator@M@std@@@std@@QEAA@XZ 000000018002fb88     BerconTile.obj
 0002:00003bb0       $cppxdata$??1TilePattern@@QEAA@XZ 000000018002fbb0     BerconTile.obj
 0002:00003bd8       $cppxdata$??1?$vector@VTileRow@@V?$allocator@VTileRow@@@std@@@std@@QEAA@XZ 000000018002fbd8     BerconTile.obj
 0002:00003c00       $cppxdata$?CreateParamDlg@BerconTile@@UEAAPEAVParamDlg@@PEAUHWND__@@PEAVIMtlParams@@@Z 000000018002fc00     BerconTile.obj
 0002:00003c28       $cppxdata$?Update@BerconTile@@UEAAXHAEAVInterval@@@Z 000000018002fc28     BerconTile.obj
 0002:00003c50       $cppxdata$?GetSubTexmapSlotName@BerconTile@@UEAA?AVWStr@@H@Z 000000018002fc50     BerconTile.obj
 0002:00003c78       $cppxdata$?EvalColor@BerconTile@@UEAA?AVAColor@@AEAVShadeContext@@@Z 000000018002fc78     BerconTile.obj
 0002:00003ca0       $cppxdata$?EvalNormalPerturb@BerconTile@@UEAA?AVPoint3@@AEAVShadeContext@@@Z 000000018002fca0     BerconTile.obj
 0002:00003cc8       $cppxdata$?Clone@BerconTile@@UEAAPEAVReferenceTarget@@AEAVRemapDir@@@Z 000000018002fcc8     BerconTile.obj
 0002:00003cf0       $cppxdata$?SubAnimName@BerconTile@@UEAA?AVWStr@@H@Z 000000018002fcf0     BerconTile.obj
 0002:00003d18       $cppxdata$??0BerconTile@@QEAA@XZ 000000018002fd18     BerconTile.obj
 0002:00003d40       $cppxdata$??1BerconTile@@UEAA@XZ 000000018002fd40     BerconTile.obj
 0002:00003d68       $cppxdata$?Create@BerconTileClassDesc@@UEAAPEAXH@Z 000000018002fd68     BerconTile.obj
 0002:00003d90       $cppxdata$??_GBerconTileClassDesc@@UEAAPEAXI@Z 000000018002fd90     BerconTile.obj
 0002:00003db8       $cppxdata$??__EBerconTileDesc@@YAXXZ 000000018002fdb8     BerconTile.obj
 0002:00003de0       $cppxdata$??__FBerconTileDesc@@YAXXZ 000000018002fde0     BerconTile.obj
 0002:00003e08       $cppxdata$??__Fxyz_blk@@YAXXZ 000000018002fe08     BerconTile.obj
 0002:00003e30       $cppxdata$??_GBerconTileDlgProc@@UEAAPEAXI@Z 000000018002fe30     BerconTile.obj
 0002:00003e58       $cppxdata$??$_Destroy_range1@V?$allocator@VTileRow@@@std@@PEAVTileRow@@@std@@YAXPEAVTileRow@@0AEAU?$_Wrap_alloc@V?$allocator@VTileRow@@@std@@@0@U?$integral_constant@_N$0A@@0@@Z 000000018002fe58     BerconTile.obj
 0002:00004c78       $cppxdata$?CreateParamDlg@BerconWood@@UEAAPEAVParamDlg@@PEAUHWND__@@PEAVIMtlParams@@@Z 0000000180030c78     BerconWood.obj
 0002:00004ca0       $cppxdata$?GetSubTexmapSlotName@BerconWood@@UEAA?AVWStr@@H@Z 0000000180030ca0     BerconWood.obj
 0002:00004cc8       $cppxdata$?Clone@BerconWood@@UEAAPEAVReferenceTarget@@AEAVRemapDir@@@Z 0000000180030cc8     BerconWood.obj
 0002:00004cf0       $cppxdata$?SubAnimName@BerconWood@@UEAA?AVWStr@@H@Z 0000000180030cf0     BerconWood.obj
 0002:00004d18       $cppxdata$??0BerconWood@@QEAA@XZ 0000000180030d18     BerconWood.obj
 0002:00004d40       $cppxdata$??1BerconWood@@UEAA@XZ 0000000180030d40     BerconWood.obj
 0002:00004d68       $cppxdata$?Create@BerconWoodClassDesc@@UEAAPEAXH@Z 0000000180030d68     BerconWood.obj
 0002:00004d90       $cppxdata$??_GBerconWoodClassDesc@@UEAAPEAXI@Z 0000000180030d90     BerconWood.obj
 0002:00004db8       $cppxdata$??__EBerconWoodDesc@@YAXXZ 0000000180030db8     BerconWood.obj
 0002:00004de0       $cppxdata$??__FBerconWoodDesc@@YAXXZ 0000000180030de0     BerconWood.obj
 0002:00004e08       $cppxdata$??__Fxyz_blk@@YAXXZ 0000000180030e08     BerconWood.obj
 0002:00004e30       $cppxdata$??_GBerconWoodDlgProc@@UEAAPEAXI@Z 0000000180030e30     BerconWood.obj
 0002:00005a80       $cppxdata$?CreateParamDlg@BerconNoise@@UEAAPEAVParamDlg@@PEAUHWND__@@PEAVIMtlParams@@@Z 0000000180031a80     BerconNoise.obj
 0002:00005aa8       $cppxdata$?GetSubTexmapSlotName@BerconNoise@@UEAA?AVWStr@@H@Z 0000000180031aa8     BerconNoise.obj
 0002:00005ad0       $cppxdata$?Clone@BerconNoise@@UEAAPEAVReferenceTarget@@AEAVRemapDir@@@Z 0000000180031ad0     BerconNoise.obj
 0002:00005af8       $cppxdata$?SubAnimName@BerconNoise@@UEAA?AVWStr@@H@Z 0000000180031af8     BerconNoise.obj
 0002:00005b20       $cppxdata$??0BerconNoise@@QEAA@XZ 0000000180031b20     BerconNoise.obj
 0002:00005b48       $cppxdata$??1BerconNoise@@UEAA@XZ 0000000180031b48     BerconNoise.obj
 0002:00005b70       $cppxdata$?Create@BerconNoiseClassDesc@@UEAAPEAXH@Z 0000000180031b70     BerconNoise.obj
 0002:00005b98       $cppxdata$??_GBerconNoiseClassDesc@@UEAAPEAXI@Z 0000000180031b98     BerconNoise.obj
 0002:00005bc0       $cppxdata$??__EBerconNoiseDesc@@YAXXZ 0000000180031bc0     BerconNoise.obj
 0002:00005be8       $cppxdata$??__FBerconNoiseDesc@@YAXXZ 0000000180031be8     BerconNoise.obj
 0002:00005c10       $cppxdata$??__Fxyz_blk@@YAXXZ 0000000180031c10     BerconNoise.obj
 0002:00005c38       $cppxdata$??_GBerconNoiseDlgProc@@UEAAPEAXI@Z 0000000180031c38     BerconNoise.obj
 0002:00006458       $cppxdata$?addKey@GradientRamp@@QEAAXHMVAColor@@PEAVTexmap@@@Z 0000000180032458     GradientRamp.obj
 0002:00006520       $cppxdata$?substr@?$basic_string@_WU?$char_traits@_W@std@@V?$allocator@_W@2@@std@@QEBA?AV12@_K0@Z 0000000180032520     tile.obj
 0002:00006548       $cppxdata$??0?$vector@MV?$allocator@M@std@@@std@@QEAA@AEBV01@@Z 0000000180032548     tile.obj
 0002:00006570       $cppxdata$?_Reallocate@?$vector@MV?$allocator@M@std@@@std@@IEAAX_K@Z 0000000180032570     tile.obj
 0002:00006598       $cppxdata$??1TileRow@@QEAA@XZ 0000000180032598     tile.obj
 0002:000065c0       $cppxdata$?_Reallocate@?$vector@VTileRow@@V?$allocator@VTileRow@@@std@@@std@@IEAAX_K@Z 00000001800325c0     tile.obj
 0002:000065e8       $cppxdata$?setPattern@TilePattern@@QEAAXV?$basic_string@_WU?$char_traits@_W@std@@V?$allocator@_W@2@@std@@@Z 00000001800325e8     tile.obj
 0002:00006610       $cppxdata$?setPreset@TilePattern@@QEAAXH@Z 0000000180032610     tile.obj
 0002:00006638       $cppxdata$?tokenize@@YAXAEBV?$basic_string@_WU?$char_traits@_W@std@@V?$allocator@_W@2@@std@@AEAV?$vector@V?$basic_string@_WU?$char_traits@_W@std@@V?$allocator@_W@2@@std@@V?$allocator@V?$basic_string@_WU?$char_traits@_W@std@@V?$allocator@_W@2@@std@@@2@@2@0@Z 0000000180032638     tile.obj
 0002:00006660       $cppxdata$??1?$vector@V?$basic_string@_WU?$char_traits@_W@std@@V?$allocator@_W@2@@std@@V?$allocator@V?$basic_string@_WU?$char_traits@_W@std@@V?$allocator@_W@2@@std@@@2@@std@@QEAA@XZ 0000000180032660     tile.obj
 0002:00006688       $cppxdata$?_Reallocate@?$vector@V?$basic_string@_WU?$char_traits@_W@std@@V?$allocator@_W@2@@std@@V?$allocator@V?$basic_string@_WU?$char_traits@_W@std@@V?$allocator@_W@2@@std@@@2@@std@@IEAAX_K@Z 0000000180032688     tile.obj
 0002:000066b0       $cppxdata$?parsePattern@@YAHV?$basic_string@_WU?$char_traits@_W@std@@V?$allocator@_W@2@@std@@PEAVTilePattern@@@Z 00000001800326b0     tile.obj
 0002:000066d8       $cppxdata$??1?$basic_stringstream@_WU?$char_traits@_W@std@@V?$allocator@_W@2@@std@@UEAA@XZ 00000001800326d8     tile.obj
 0002:00006700       $cppxdata$??1?$basic_stringbuf@_WU?$char_traits@_W@std@@V?$allocator@_W@2@@std@@UEAA@XZ 0000000180032700     tile.obj
 0002:00006728       $cppxdata$??_G?$basic_stringbuf@_WU?$char_traits@_W@std@@V?$allocator@_W@2@@std@@UEAAPEAXI@Z 0000000180032728     tile.obj
 0002:00006750       $cppxdata$??_G?$basic_stringstream@_WU?$char_traits@_W@std@@V?$allocator@_W@2@@std@@UEAAPEAXI@Z 0000000180032750     tile.obj
 0002:00006778       $cppxdata$??_D?$basic_stringstream@_WU?$char_traits@_W@std@@V?$allocator@_W@2@@std@@QEAAXXZ 0000000180032778     tile.obj
 0002:000067a0       $cppxdata$??$_Uninitialized_move_al_unchecked1@PEAV?$basic_string@_WU?$char_traits@_W@std@@V?$allocator@_W@2@@std@@PEAV12@V?$allocator@V?$basic_string@_WU?$char_traits@_W@std@@V?$allocator@_W@2@@std@@@2@@std@@YAPEAV?$basic_string@_WU?$char_traits@_W@std@@V?$allocator@_W@2@@0@PEAV10@00AEAU?$_Wrap_alloc@V?$allocator@V?$basic_string@_WU?$char_traits@_W@std@@V?$allocator@_W@2@@std@@@std@@@0@U_General_ptr_iterator_tag@0@U_Any_tag@0@@Z 00000001800327a0     tile.obj
 0002:000067c8       $cppxdata$??$_Uninitialized_move_al_unchecked1@PEAVTileRow@@PEAV1@V?$allocator@VTileRow@@@std@@@std@@YAPEAVTileRow@@PEAV1@00AEAU?$_Wrap_alloc@V?$allocator@VTileRow@@@std@@@0@U_General_ptr_iterator_tag@0@U_Any_tag@0@@Z 00000001800327c8     tile.obj
 0002:00009160       $unwind$??1TabOutOfRangeException@Util@MaxSDK@@UEAA@XZ 0000000180035160     BerconDistortion.obj
 0002:00009170       $stateUnwindMap$??_GTabOutOfRangeException@Util@MaxSDK@@UEAAPEAXI@Z 0000000180035170     BerconDistortion.obj
 0002:00009170       $stateUnwindMap$??1TabOutOfRangeException@Util@MaxSDK@@UEAA@XZ 0000000180035170     BerconDistortion.obj
 0002:00009180       $ip2state$??1TabOutOfRangeException@Util@MaxSDK@@UEAA@XZ 0000000180035180     BerconDistortion.obj
 0002:00009188       $unwind$??0TabOutOfRangeException@Util@MaxSDK@@QEAA@AEBV012@@Z 0000000180035188     BerconDistortion.obj
 0002:00009198       $stateUnwindMap$??0TabOutOfRangeException@Util@MaxSDK@@QEAA@AEBV012@@Z 0000000180035198     BerconDistortion.obj
 0002:000091a8       $ip2state$??0TabOutOfRangeException@Util@MaxSDK@@QEAA@AEBV012@@Z 00000001800351a8     BerconDistortion.obj
 0002:000091c8       $unwind$??_GTabOutOfRangeException@Util@MaxSDK@@UEAAPEAXI@Z 00000001800351c8     BerconDistortion.obj
 0002:000091e0       $ip2state$??_GTabOutOfRangeException@Util@MaxSDK@@UEAAPEAXI@Z 00000001800351e0     BerconDistortion.obj
 0002:000091e8       $unwind$??1?$Tab@PEAVBaseInterface@@@@QEAA@XZ 00000001800351e8     BerconDistortion.obj
 0002:000091f8       $ip2state$??1?$Tab@PEAVBaseInterface@@@@QEAA@XZ 00000001800351f8     BerconDistortion.obj
 0002:00009200       $unwind$?NotifyForeground@ReferenceTarget@@UEAAXH@Z 0000000180035200     BerconDistortion.obj
 0002:0000920c       $unwind$??A?$Tab@PEAVFPInterface@@@@QEBAAEAPEAVFPInterface@@_J@Z 000000018003520c     BerconDistortion.obj
 0002:00009220       $stateUnwindMap$??A?$Tab@PEAVFPInterface@@@@QEBAAEAPEAVFPInterface@@_J@Z 0000000180035220     BerconDistortion.obj
 0002:00009228       $ip2state$??A?$Tab@PEAVFPInterface@@@@QEBAAEAPEAVFPInterface@@_J@Z 0000000180035228     BerconDistortion.obj
 0002:00009240       $unwind$??1RenderGlobalContext@@UEAA@XZ 0000000180035240     BerconDistortion.obj
 0002:00009250       $stateUnwindMap$??1ShadeOutput@@UEAA@XZ 0000000180035250     BerconDistortion.obj
 0002:00009250       $stateUnwindMap$??_GRenderGlobalContext@@UEAAPEAXI@Z 0000000180035250     BerconDistortion.obj
 0002:00009250       $stateUnwindMap$??1RenderGlobalContext@@UEAA@XZ 0000000180035250     BerconDistortion.obj
 0002:00009250       $stateUnwindMap$??_GShadeOutput@@UEAAPEAXI@Z 0000000180035250     BerconDistortion.obj
 0002:00009258       $ip2state$??1RenderGlobalContext@@UEAA@XZ 0000000180035258     BerconDistortion.obj
 0002:00009260       $unwind$??_GRenderGlobalContext@@UEAAPEAXI@Z 0000000180035260     BerconDistortion.obj
 0002:00009278       $ip2state$??_GRenderGlobalContext@@UEAAPEAXI@Z 0000000180035278     BerconDistortion.obj
 0002:00009280       $unwind$??1ShadeOutput@@UEAA@XZ 0000000180035280     BerconDistortion.obj
 0002:00009290       $ip2state$??1ShadeOutput@@UEAA@XZ 0000000180035290     BerconDistortion.obj
 0002:00009298       $unwind$??_GShadeOutput@@UEAAPEAXI@Z 0000000180035298     BerconDistortion.obj
 0002:000092b0       $ip2state$??_GShadeOutput@@UEAAPEAXI@Z 00000001800352b0     BerconDistortion.obj
 0002:000092b8       $unwind$??1ShadeContext@@UEAA@XZ 00000001800352b8     BerconDistortion.obj
 0002:000092c8       $stateUnwindMap$??1ShadeContext@@UEAA@XZ 00000001800352c8     BerconDistortion.obj
 0002:000092e0       $ip2state$??1ShadeContext@@UEAA@XZ 00000001800352e0     BerconDistortion.obj
 0002:000092f8       $unwind$??_GShadeContext@@UEAAPEAXI@Z 00000001800352f8     BerconDistortion.obj
 0002:0000930c       $stateUnwindMap$??_GShadeContext@@UEAAPEAXI@Z 000000018003530c     BerconDistortion.obj
 0002:00009328       $ip2state$??_GShadeContext@@UEAAPEAXI@Z 0000000180035328     BerconDistortion.obj
 0002:00009340       $unwind$??1Texmap@@UEAA@XZ 0000000180035340     BerconDistortion.obj
 0002:00009350       $stateUnwindMap$??1Texmap@@UEAA@XZ 0000000180035350     BerconDistortion.obj
 0002:00009358       $ip2state$??1Texmap@@UEAA@XZ 0000000180035358     BerconDistortion.obj
 0002:00009360       $unwind$??1?$Tab@PEAVVertexNormalsCallback@@@@QEAA@XZ 0000000180035360     BerconDistortion.obj
 0002:00009370       $ip2state$??1?$Tab@PEAVVertexNormalsCallback@@@@QEAA@XZ 0000000180035370     BerconDistortion.obj
 0002:00009378       $unwind$??0VertexNormalsControl@@QEAA@XZ 0000000180035378     BerconDistortion.obj
 0002:00009388       $stateUnwindMap$??0VertexNormalsControl@@QEAA@XZ 0000000180035388     BerconDistortion.obj
 0002:00009390       $ip2state$??0VertexNormalsControl@@QEAA@XZ 0000000180035390     BerconDistortion.obj
 0002:00009398       $unwind$??0XYZ_Desc@@QEAA@PEAVClassDesc2@@HHHHHHH@Z 0000000180035398     BerconDistortion.obj
 0002:000093ac       $stateUnwindMap$??0XYZ_Desc@@QEAA@PEAVClassDesc2@@HHHHHHH@Z 00000001800353ac     BerconDistortion.obj
 0002:000093b8       $ip2state$??0XYZ_Desc@@QEAA@PEAVClassDesc2@@HHHHHHH@Z 00000001800353b8     BerconDistortion.obj
 0002:000093d0       $unwind$??_GXYZ_Desc@@UEAAPEAXI@Z 00000001800353d0     BerconDistortion.obj
 0002:000093e4       $stateUnwindMap$??_GXYZ_Desc@@UEAAPEAXI@Z 00000001800353e4     BerconDistortion.obj
 0002:000093f0       $ip2state$??_GXYZ_Desc@@UEAAPEAXI@Z 00000001800353f0     BerconDistortion.obj
 0002:000093f8       $unwind$?DlgProc@BerconXYZDlgProc@@UEAA_JHPEAVIParamMap2@@PEAUHWND__@@I_K_J@Z 00000001800353f8     BerconDistortion.obj
 0002:00009408       $chain$1$?DlgProc@BerconXYZDlgProc@@UEAA_JHPEAVIParamMap2@@PEAUHWND__@@I_K_J@Z 0000000180035408     BerconDistortion.obj
 0002:00009420       $unwind$?DeleteThis@BerconXYZDlgProc@@UEAAXXZ 0000000180035420     BerconDistortion.obj
 0002:00009430       $ip2state$?DeleteThis@BerconXYZDlgProc@@UEAAXXZ 0000000180035430     BerconDistortion.obj
 0002:00009438       $unwind$??_GBerconXYZDlgProc@@UEAAPEAXI@Z 0000000180035438     BerconDistortion.obj
 0002:00009448       $stateUnwindMap$??_GBerconXYZDlgProc@@UEAAPEAXI@Z 0000000180035448     BerconDistortion.obj
 0002:00009448       $stateUnwindMap$??_GBerconNoiseDlgProc@@UEAAPEAXI@Z 0000000180035448     BerconNoise.obj
 0002:00009448       $stateUnwindMap$??_GBerconWoodDlgProc@@UEAAPEAXI@Z 0000000180035448     BerconWood.obj
 0002:00009448       $stateUnwindMap$??_GBerconGradientDlgProc@@UEAAPEAXI@Z 0000000180035448     BerconGradient.obj
 0002:00009448       $stateUnwindMap$?DeleteThis@BerconXYZDlgProc@@UEAAXXZ 0000000180035448     BerconDistortion.obj
 0002:00009448       $stateUnwindMap$??_GBerconTileDlgProc@@UEAAPEAXI@Z 0000000180035448     BerconTile.obj
 0002:00009450       $ip2state$??_GBerconXYZDlgProc@@UEAAPEAXI@Z 0000000180035450     BerconDistortion.obj
 0002:00009458       $unwind$??0BerconSC@@QEAA@QEAVShadeContext@@@Z 0000000180035458     BerconDistortion.obj
 0002:00009468       $stateUnwindMap$??0BerconSC@@QEAA@QEAVShadeContext@@@Z 0000000180035468     BerconDistortion.obj
 0002:000094c0       $ip2state$??0BerconSC@@QEAA@QEAVShadeContext@@@Z 00000001800354c0     BerconDistortion.obj
 0002:00009510       $unwind$?EvalMono@BerconWood@@UEAAMAEAVShadeContext@@@Z 0000000180035510     BerconWood.obj
 0002:00009510       $unwind$?GetInterface@MtlBase@@UEAAPEAVBaseInterface@@VInterface_ID@@@Z 0000000180035510     BerconDistortion.obj
 0002:00009510       $unwind$?SetView@BerconSC@@UEAAXVPoint3@@@Z 0000000180035510     BerconDistortion.obj
 0002:00009510       $unwind$?noise@Noise@@SAMVPoint3@@AEAVNoiseParams@@@Z 0000000180035510     noise.obj
 0002:00009510       $unwind$?SetNormal@BerconSC@@UEAAXVPoint3@@@Z 0000000180035510     BerconDistortion.obj
 0002:00009510       $unwind$?EvalMono@BerconNoise@@UEAAMAEAVShadeContext@@@Z 0000000180035510     BerconNoise.obj
 0002:00009510       $unwind$?EvalMono@BerconGradient@@UEAAMAEAVShadeContext@@@Z 0000000180035510     BerconGradient.obj
 0002:00009510       $unwind$?EvalMono@BerconTile@@UEAAMAEAVShadeContext@@@Z 0000000180035510     BerconTile.obj
 0002:00009510       $unwind$?RayDiam@ShadeContext@@UEAAMXZ 0000000180035510     BerconDistortion.obj
 0002:00009518       $unwind$??1BerconSC@@UEAA@XZ 0000000180035518     BerconDistortion.obj
 0002:00009528       $stateUnwindMap$??1BerconSC@@UEAA@XZ 0000000180035528     BerconDistortion.obj
 0002:00009558       $ip2state$??1BerconSC@@UEAA@XZ 0000000180035558     BerconDistortion.obj
 0002:00009578       $unwind$??_GBerconSC@@UEAAPEAXI@Z 0000000180035578     BerconDistortion.obj
 0002:0000958c       $stateUnwindMap$??_GBerconSC@@UEAAPEAXI@Z 000000018003558c     BerconDistortion.obj
 0002:000095c0       $ip2state$??_GBerconSC@@UEAAPEAXI@Z 00000001800355c0     BerconDistortion.obj
 0002:000095e0       $unwind$?getDistVector@BerconDistortion@@QEAA?AVPoint3@@AEAVShadeContext@@@Z 00000001800355e0     BerconDistortion.obj
 0002:000095f4       $chain$1$?getDistVector@BerconDistortion@@QEAA?AVPoint3@@AEAVShadeContext@@@Z 00000001800355f4     BerconDistortion.obj
 0002:0000960c       $chain$2$?getDistVector@BerconDistortion@@QEAA?AVPoint3@@AEAVShadeContext@@@Z 000000018003560c     BerconDistortion.obj
 0002:0000961c       $chain$0$?GetActiveTexHandle@BerconDistortion@@UEAA_KHAEAVTexHandleMaker@@@Z 000000018003561c     BerconDistortion.obj
 0002:00009630       $chain$1$?GetActiveTexHandle@BerconDistortion@@UEAA_KHAEAVTexHandleMaker@@@Z 0000000180035630     BerconDistortion.obj
 0002:00009640       $unwind$?CreateParamDlg@BerconDistortion@@UEAAPEAVParamDlg@@PEAUHWND__@@PEAVIMtlParams@@@Z 0000000180035640     BerconDistortion.obj
 0002:00009654       $stateUnwindMap$?CreateParamDlg@BerconDistortion@@UEAAPEAVParamDlg@@PEAUHWND__@@PEAVIMtlParams@@@Z 0000000180035654     BerconDistortion.obj
 0002:00009668       $ip2state$?CreateParamDlg@BerconDistortion@@UEAAPEAVParamDlg@@PEAUHWND__@@PEAVIMtlParams@@@Z 0000000180035668     BerconDistortion.obj
 0002:00009688       $unwind$?Update@BerconDistortion@@UEAAXHAEAVInterval@@@Z 0000000180035688     BerconDistortion.obj
 0002:00009694       $chain$0$?Update@BerconDistortion@@UEAAXHAEAVInterval@@@Z 0000000180035694     BerconDistortion.obj
 0002:000096a8       $chain$2$?Update@BerconDistortion@@UEAAXHAEAVInterval@@@Z 00000001800356a8     BerconDistortion.obj
 0002:000096c0       $chain$3$?Update@BerconDistortion@@UEAAXHAEAVInterval@@@Z 00000001800356c0     BerconDistortion.obj
 0002:000096d0       $chain$4$?Update@BerconDistortion@@UEAAXHAEAVInterval@@@Z 00000001800356d0     BerconDistortion.obj
 0002:000096e0       $unwind$?Reset@BerconDistortion@@UEAAXXZ 00000001800356e0     BerconDistortion.obj
 0002:000096ec       $unwind$?GetSubTexmapSlotName@BerconDistortion@@UEAA?AVWStr@@H@Z 00000001800356ec     BerconDistortion.obj
 0002:00009700       $ip2state$?GetSubTexmapSlotName@BerconDistortion@@UEAA?AVWStr@@H@Z 0000000180035700     BerconDistortion.obj
 0002:00009710       $unwind$?EvalColor@BerconDistortion@@UEAA?AVAColor@@AEAVShadeContext@@@Z 0000000180035710     BerconDistortion.obj
 0002:00009730       $stateUnwindMap$?EvalMono@BerconDistortion@@UEAAMAEAVShadeContext@@@Z 0000000180035730     BerconDistortion.obj
 0002:00009730       $stateUnwindMap$?EvalNormalPerturb@BerconDistortion@@UEAA?AVPoint3@@AEAVShadeContext@@@Z 0000000180035730     BerconDistortion.obj
 0002:00009730       $stateUnwindMap$?EvalColor@BerconDistortion@@UEAA?AVAColor@@AEAVShadeContext@@@Z 0000000180035730     BerconDistortion.obj
 0002:00009768       $ip2state$?EvalColor@BerconDistortion@@UEAA?AVAColor@@AEAVShadeContext@@@Z 0000000180035768     BerconDistortion.obj
 0002:00009790       $unwind$?EvalMono@BerconDistortion@@UEAAMAEAVShadeContext@@@Z 0000000180035790     BerconDistortion.obj
 0002:000097b8       $ip2state$?EvalMono@BerconDistortion@@UEAAMAEAVShadeContext@@@Z 00000001800357b8     BerconDistortion.obj
 0002:000097e0       $unwind$?EvalNormalPerturb@BerconDistortion@@UEAA?AVPoint3@@AEAVShadeContext@@@Z 00000001800357e0     BerconDistortion.obj
 0002:00009800       $ip2state$?EvalNormalPerturb@BerconDistortion@@UEAA?AVPoint3@@AEAVShadeContext@@@Z 0000000180035800     BerconDistortion.obj
 0002:00009828       $unwind$?Clone@BerconDistortion@@UEAAPEAVReferenceTarget@@AEAVRemapDir@@@Z 0000000180035828     BerconDistortion.obj
 0002:00009848       $ip2state$?Clone@BerconDistortion@@UEAAPEAVReferenceTarget@@AEAVRemapDir@@@Z 0000000180035848     BerconDistortion.obj
 0002:00009860       $unwind$?NotifyRefChanged@BerconGradient@@UEAA?AW4RefResult@@AEBVInterval@@PEAVReferenceTarget@@AEA_KIH@Z 0000000180035860     BerconGradient.obj
 0002:00009860       $unwind$?NotifyRefChanged@BerconTile@@UEAA?AW4RefResult@@AEBVInterval@@PEAVReferenceTarget@@AEA_KIH@Z 0000000180035860     BerconTile.obj
 0002:00009860       $unwind$?NotifyRefChanged@BerconNoise@@UEAA?AW4RefResult@@AEBVInterval@@PEAVReferenceTarget@@AEA_KIH@Z 0000000180035860     BerconNoise.obj
 0002:00009860       $unwind$?NotifyRefChanged@BerconWood@@UEAA?AW4RefResult@@AEBVInterval@@PEAVReferenceTarget@@AEA_KIH@Z 0000000180035860     BerconWood.obj
 0002:00009860       $unwind$?NotifyRefChanged@BerconDistortion@@UEAA?AW4RefResult@@AEBVInterval@@PEAVReferenceTarget@@AEA_KIH@Z 0000000180035860     BerconDistortion.obj
 0002:00009868       $chain$0$?NotifyRefChanged@BerconDistortion@@UEAA?AW4RefResult@@AEBVInterval@@PEAVReferenceTarget@@AEA_KIH@Z 0000000180035868     BerconDistortion.obj
 0002:0000987c       $chain$1$?NotifyRefChanged@BerconDistortion@@UEAA?AW4RefResult@@AEBVInterval@@PEAVReferenceTarget@@AEA_KIH@Z 000000018003587c     BerconDistortion.obj
 0002:0000988c       $unwind$?SubAnimName@BerconDistortion@@UEAA?AVWStr@@H@Z 000000018003588c     BerconDistortion.obj
 0002:0000989c       $stateUnwindMap$?SubAnimName@BerconTile@@UEAA?AVWStr@@H@Z 000000018003589c     BerconTile.obj
 0002:0000989c       $stateUnwindMap$?SubAnimName@BerconDistortion@@UEAA?AVWStr@@H@Z 000000018003589c     BerconDistortion.obj
 0002:0000989c       $stateUnwindMap$?GetSubTexmapSlotName@BerconTile@@UEAA?AVWStr@@H@Z 000000018003589c     BerconTile.obj
 0002:0000989c       $stateUnwindMap$?GetSubTexmapSlotName@BerconDistortion@@UEAA?AVWStr@@H@Z 000000018003589c     BerconDistortion.obj
 0002:0000989c       $stateUnwindMap$?SubAnimName@BerconNoise@@UEAA?AVWStr@@H@Z 000000018003589c     BerconNoise.obj
 0002:0000989c       $stateUnwindMap$?GetSubTexmapSlotName@BerconWood@@UEAA?AVWStr@@H@Z 000000018003589c     BerconWood.obj
 0002:0000989c       $stateUnwindMap$?SubAnimName@BerconGradient@@UEAA?AVWStr@@H@Z 000000018003589c     BerconGradient.obj
 0002:0000989c       $stateUnwindMap$?SubAnimName@BerconWood@@UEAA?AVWStr@@H@Z 000000018003589c     BerconWood.obj
 0002:0000989c       $stateUnwindMap$?GetSubTexmapSlotName@BerconNoise@@UEAA?AVWStr@@H@Z 000000018003589c     BerconNoise.obj
 0002:000098a8       $ip2state$?SubAnimName@BerconDistortion@@UEAA?AVWStr@@H@Z 00000001800358a8     BerconDistortion.obj
 0002:000098b8       $unwind$??0BerconDistortion@@QEAA@XZ 00000001800358b8     BerconDistortion.obj
 0002:000098d4       $stateUnwindMap$??0BerconDistortion@@QEAA@XZ 00000001800358d4     BerconDistortion.obj
 0002:000098e0       $ip2state$??0BerconDistortion@@QEAA@XZ 00000001800358e0     BerconDistortion.obj
 0002:000098f8       $unwind$??_GBerconDistortion@@UEAAPEAXI@Z 00000001800358f8     BerconDistortion.obj
 0002:00009910       $ip2state$??_GBerconDistortion@@UEAAPEAXI@Z 0000000180035910     BerconDistortion.obj
 0002:00009928       $unwind$?Create@BerconDistortionClassDesc@@UEAAPEAXH@Z 0000000180035928     BerconDistortion.obj
 0002:00009938       $stateUnwindMap$?Create@BerconDistortionClassDesc@@UEAAPEAXH@Z 0000000180035938     BerconDistortion.obj
 0002:00009938       $stateUnwindMap$?Clone@BerconGradient@@UEAAPEAVReferenceTarget@@AEAVRemapDir@@@Z 0000000180035938     BerconGradient.obj
 0002:00009938       $stateUnwindMap$?Create@BerconNoiseClassDesc@@UEAAPEAXH@Z 0000000180035938     BerconNoise.obj
 0002:00009938       $stateUnwindMap$?Create@BerconGradientClassDesc@@UEAAPEAXH@Z 0000000180035938     BerconGradient.obj
 0002:00009938       $stateUnwindMap$?Create@BerconTileClassDesc@@UEAAPEAXH@Z 0000000180035938     BerconTile.obj
 0002:00009938       $stateUnwindMap$?Create@BerconWoodClassDesc@@UEAAPEAXH@Z 0000000180035938     BerconWood.obj
 0002:00009940       $ip2state$?Create@BerconDistortionClassDesc@@UEAAPEAXH@Z 0000000180035940     BerconDistortion.obj
 0002:00009958       $unwind$??_GBerconDistortionClassDesc@@UEAAPEAXI@Z 0000000180035958     BerconDistortion.obj
 0002:00009970       $ip2state$??_GBerconDistortionClassDesc@@UEAAPEAXI@Z 0000000180035970     BerconDistortion.obj
 0002:00009978       $unwind$??__EBerconDistortionDesc@@YAXXZ 0000000180035978     BerconDistortion.obj
 0002:00009988       $ip2state$??__EBerconDistortionDesc@@YAXXZ 0000000180035988     BerconDistortion.obj
 0002:000099a0       $unwind$??__FBerconDistortionDesc@@YAXXZ 00000001800359a0     BerconDistortion.obj
 0002:000099b0       $stateUnwindMap$??__EBerconDistortionDesc@@YAXXZ 00000001800359b0     BerconDistortion.obj
 0002:000099b0       $stateUnwindMap$??__FBerconDistortionDesc@@YAXXZ 00000001800359b0     BerconDistortion.obj
 0002:000099b8       $ip2state$??__FBerconDistortionDesc@@YAXXZ 00000001800359b8     BerconDistortion.obj
 0002:000099c0       $unwind$??__Fxyz_blk@@YAXXZ 00000001800359c0     BerconDistortion.obj
 0002:000099d0       $stateUnwindMap$??__Fxyz_blk@@YAXXZ 00000001800359d0     BerconDistortion.obj
 0002:000099d8       $ip2state$??__Fxyz_blk@@YAXXZ 00000001800359d8     BerconDistortion.obj
 0002:000099e0       $unwind$??__EBerconDistortion_param_blk@@YAXXZ 00000001800359e0     BerconDistortion.obj
 0002:000099e8       $unwind$??1ICustomControl@@UEAA@XZ 00000001800359e8     BerconGradient.obj
 0002:000099f8       $ip2state$??1ICustomControl@@UEAA@XZ 00000001800359f8     BerconGradient.obj
 0002:00009a00       $unwind$??_GICustomControl@@UEAAPEAXI@Z 0000000180035a00     BerconGradient.obj
 0002:00009a14       $stateUnwindMap$??1ICustomControl@@UEAA@XZ 0000000180035a14     BerconGradient.obj
 0002:00009a14       $stateUnwindMap$??_GICustomControl@@UEAAPEAXI@Z 0000000180035a14     BerconGradient.obj
 0002:00009a20       $ip2state$??_GICustomControl@@UEAAPEAXI@Z 0000000180035a20     BerconGradient.obj
 0002:00009a28       $unwind$??0IGradient@@QEAA@PEAUHWND__@@PEAVGradientRamp@@@Z 0000000180035a28     BerconGradient.obj
 0002:00009a38       $stateUnwindMap$??0IGradient@@QEAA@PEAUHWND__@@PEAVGradientRamp@@@Z 0000000180035a38     BerconGradient.obj
 0002:00009a48       $ip2state$??0IGradient@@QEAA@PEAUHWND__@@PEAVGradientRamp@@@Z 0000000180035a48     BerconGradient.obj
 0002:00009a68       $unwind$??_GIGradient@@UEAAPEAXI@Z 0000000180035a68     BerconGradient.obj
 0002:00009a7c       $stateUnwindMap$??_GIGradient@@UEAAPEAXI@Z 0000000180035a7c     BerconGradient.obj
 0002:00009a90       $ip2state$??_GIGradient@@UEAAPEAXI@Z 0000000180035a90     BerconGradient.obj
 0002:00009aa8       $unwind$?seedRandomGen@BerconGradient@@QEAAXAEAVShadeContext@@@Z 0000000180035aa8     BerconGradient.obj
 0002:00009ab8       $chain$0$?seedRandomGen@BerconGradient@@QEAAXAEAVShadeContext@@@Z 0000000180035ab8     BerconGradient.obj
 0002:00009acc       $chain$1$?seedRandomGen@BerconGradient@@QEAAXAEAVShadeContext@@@Z 0000000180035acc     BerconGradient.obj
 0002:00009ae0       $chain$2$?seedRandomGen@BerconGradient@@QEAAXAEAVShadeContext@@@Z 0000000180035ae0     BerconGradient.obj
 0002:00009af0       $chain$3$?seedRandomGen@BerconGradient@@QEAAXAEAVShadeContext@@@Z 0000000180035af0     BerconGradient.obj
 0002:00009b00       $unwind$?EnableStuff@BerconGradient@@QEAAXXZ 0000000180035b00     BerconGradient.obj
 0002:00009b08       $chain$0$?EnableStuff@BerconGradient@@QEAAXXZ 0000000180035b08     BerconGradient.obj
 0002:00009b1c       $chain$2$?EnableStuff@BerconGradient@@QEAAXXZ 0000000180035b1c     BerconGradient.obj
 0002:00009b34       $chain$6$?EnableStuff@BerconGradient@@QEAAXXZ 0000000180035b34     BerconGradient.obj
 0002:00009b54       $chain$7$?EnableStuff@BerconGradient@@QEAAXXZ 0000000180035b54     BerconGradient.obj
 0002:00009b6c       $chain$8$?EnableStuff@BerconGradient@@QEAAXXZ 0000000180035b6c     BerconGradient.obj
 0002:00009b80       $chain$9$?EnableStuff@BerconGradient@@QEAAXXZ 0000000180035b80     BerconGradient.obj
 0002:00009b90       $chain$10$?EnableStuff@BerconGradient@@QEAAXXZ 0000000180035b90     BerconGradient.obj
 0002:00009ba0       $unwind$?getGradientValueUVW@BerconGradient@@QEAAMVPoint3@@@Z 0000000180035ba0     BerconGradient.obj
 0002:00009ba8       $chain$0$?getGradientValueUVW@BerconGradient@@QEAAMVPoint3@@@Z 0000000180035ba8     BerconGradient.obj
 0002:00009bbc       $chain$2$?getGradientValueUVW@BerconGradient@@QEAAMVPoint3@@@Z 0000000180035bbc     BerconGradient.obj
 0002:00009bd0       $chain$3$?getGradientValueUVW@BerconGradient@@QEAAMVPoint3@@@Z 0000000180035bd0     BerconGradient.obj
 0002:00009be0       $unwind$?getGradientValueDist@BerconGradient@@QEAAMAEAVShadeContext@@@Z 0000000180035be0     BerconGradient.obj
 0002:00009bf8       $chain$3$?getGradientValueDist@BerconGradient@@QEAAMAEAVShadeContext@@@Z 0000000180035bf8     BerconGradient.obj
 0002:00009c18       $chain$4$?getGradientValueDist@BerconGradient@@QEAAMAEAVShadeContext@@@Z 0000000180035c18     BerconGradient.obj
 0002:00009c28       $unwind$?getGradientValueNormal@BerconGradient@@QEAAMAEAVShadeContext@@@Z 0000000180035c28     BerconGradient.obj
 0002:00009c40       $unwind$?getGradientValue@BerconGradient@@QEAAMAEAVShadeContext@@@Z 0000000180035c40     BerconGradient.obj
 0002:00009c54       $chain$3$?getGradientValue@BerconGradient@@QEAAMAEAVShadeContext@@@Z 0000000180035c54     BerconGradient.obj
 0002:00009c74       $chain$4$?getGradientValue@BerconGradient@@QEAAMAEAVShadeContext@@@Z 0000000180035c74     BerconGradient.obj
 0002:00009c84       $unwind$?SetReference@BerconGradient@@EEAAXHPEAVReferenceTarget@@@Z 0000000180035c84     BerconGradient.obj
 0002:00009c84       $unwind$?keyColorChanged@BerconGradient@@QEAAXVAColor@@@Z 0000000180035c84     BerconGradient.obj
 0002:00009c84       $unwind$?setKeyTex@BerconGradient@@QEAAXPEAVTexmap@@@Z 0000000180035c84     BerconGradient.obj
 0002:00009c90       $chain$0$?setKeyTex@BerconGradient@@QEAAXPEAVTexmap@@@Z 0000000180035c90     BerconGradient.obj
 0002:00009ca4       $chain$1$?setKeyTex@BerconGradient@@QEAAXPEAVTexmap@@@Z 0000000180035ca4     BerconGradient.obj
 0002:00009cb4       $unwind$?Validity@BerconDistortion@@UEAA?AVInterval@@H@Z 0000000180035cb4     BerconDistortion.obj
 0002:00009cb4       $unwind$?keyNumChanged@BerconGradient@@QEAAXH@Z 0000000180035cb4     BerconGradient.obj
 0002:00009cb4       $unwind$?Validity@BerconWood@@UEAA?AVInterval@@H@Z 0000000180035cb4     BerconWood.obj
 0002:00009cb4       $unwind$?Validity@BerconNoise@@UEAA?AVInterval@@H@Z 0000000180035cb4     BerconNoise.obj
 0002:00009cb4       $unwind$?Validity@BerconGradient@@UEAA?AVInterval@@H@Z 0000000180035cb4     BerconGradient.obj
 0002:00009cb4       $unwind$?Validity@BerconTile@@UEAA?AVInterval@@H@Z 0000000180035cb4     BerconTile.obj
 0002:00009cc0       $unwind$?keyPosChanged@BerconGradient@@QEAAXM@Z 0000000180035cc0     BerconGradient.obj
 0002:00009ccc       $unwind$?countKeys@BerconGradient@@QEAAHXZ 0000000180035ccc     BerconGradient.obj
 0002:00009cd8       $unwind$?gradAddKey@BerconGradient@@UEAAXM@Z 0000000180035cd8     BerconGradient.obj
 0002:00009ce0       $chain$1$?gradAddKey@BerconGradient@@UEAAXM@Z 0000000180035ce0     BerconGradient.obj
 0002:00009cf8       $chain$2$?gradAddKey@BerconGradient@@UEAAXM@Z 0000000180035cf8     BerconGradient.obj
 0002:00009d08       $unwind$?gradMoveKey@BerconGradient@@UEAAXHM@Z 0000000180035d08     BerconGradient.obj
 0002:00009d20       $unwind$?gradDelKey@BerconGradient@@UEAAXH@Z 0000000180035d20     BerconGradient.obj
 0002:00009d2c       $chain$0$?gradDelKey@BerconGradient@@UEAAXH@Z 0000000180035d2c     BerconGradient.obj
 0002:00009d40       $chain$1$?gradDelKey@BerconGradient@@UEAAXH@Z 0000000180035d40     BerconGradient.obj
 0002:00009d50       $unwind$?CreateParamDlg@BerconGradient@@UEAAPEAVParamDlg@@PEAUHWND__@@PEAVIMtlParams@@@Z 0000000180035d50     BerconGradient.obj
 0002:00009d70       $ip2state$?CreateParamDlg@BerconGradient@@UEAAPEAVParamDlg@@PEAUHWND__@@PEAVIMtlParams@@@Z 0000000180035d70     BerconGradient.obj
 0002:00009da8       $unwind$?Update@BerconGradient@@UEAAXHAEAVInterval@@@Z 0000000180035da8     BerconGradient.obj
 0002:00009db8       $chain$0$?Update@BerconGradient@@UEAAXHAEAVInterval@@@Z 0000000180035db8     BerconGradient.obj
 0002:00009dcc       $chain$3$?Update@BerconGradient@@UEAAXHAEAVInterval@@@Z 0000000180035dcc     BerconGradient.obj
 0002:00009de8       $chain$4$?Update@BerconGradient@@UEAAXHAEAVInterval@@@Z 0000000180035de8     BerconGradient.obj
 0002:00009dfc       $chain$5$?Update@BerconGradient@@UEAAXHAEAVInterval@@@Z 0000000180035dfc     BerconGradient.obj
 0002:00009e0c       $chain$6$?Update@BerconGradient@@UEAAXHAEAVInterval@@@Z 0000000180035e0c     BerconGradient.obj
 0002:00009e20       $chain$7$?Update@BerconGradient@@UEAAXHAEAVInterval@@@Z 0000000180035e20     BerconGradient.obj
 0002:00009e30       $chain$8$?Update@BerconGradient@@UEAAXHAEAVInterval@@@Z 0000000180035e30     BerconGradient.obj
 0002:00009e40       $unwind$?Reset@BerconGradient@@UEAAXXZ 0000000180035e40     BerconGradient.obj
 0002:00009e50       $unwind$?GetSubTexmapSlotName@BerconGradient@@UEAA?AVWStr@@H@Z 0000000180035e50     BerconGradient.obj
 0002:00009e60       $stateUnwindMap$?GetSubTexmapSlotName@BerconGradient@@UEAA?AVWStr@@H@Z 0000000180035e60     BerconGradient.obj
 0002:00009e70       $ip2state$?GetSubTexmapSlotName@BerconGradient@@UEAA?AVWStr@@H@Z 0000000180035e70     BerconGradient.obj
 0002:00009ea8       $unwind$?EvalColor@BerconGradient@@UEAA?AVAColor@@AEAVShadeContext@@@Z 0000000180035ea8     BerconGradient.obj
 0002:00009ebc       $chain$0$?EvalColor@BerconGradient@@UEAA?AVAColor@@AEAVShadeContext@@@Z 0000000180035ebc     BerconGradient.obj
 0002:00009ed0       $chain$1$?EvalColor@BerconGradient@@UEAA?AVAColor@@AEAVShadeContext@@@Z 0000000180035ed0     BerconGradient.obj
 0002:00009ee4       $chain$2$?EvalColor@BerconGradient@@UEAA?AVAColor@@AEAVShadeContext@@@Z 0000000180035ee4     BerconGradient.obj
 0002:00009ef4       $chain$3$?EvalColor@BerconGradient@@UEAA?AVAColor@@AEAVShadeContext@@@Z 0000000180035ef4     BerconGradient.obj
 0002:00009f04       $unwind$?EvalNormalPerturb@BerconGradient@@UEAA?AVPoint3@@AEAVShadeContext@@@Z 0000000180035f04     BerconGradient.obj
 0002:00009f18       $chain$3$?EvalNormalPerturb@BerconGradient@@UEAA?AVPoint3@@AEAVShadeContext@@@Z 0000000180035f18     BerconGradient.obj
 0002:00009f38       $chain$6$?EvalNormalPerturb@BerconGradient@@UEAA?AVPoint3@@AEAVShadeContext@@@Z 0000000180035f38     BerconGradient.obj
 0002:00009f50       $chain$9$?EvalNormalPerturb@BerconGradient@@UEAA?AVPoint3@@AEAVShadeContext@@@Z 0000000180035f50     BerconGradient.obj
 0002:00009f6c       $chain$10$?EvalNormalPerturb@BerconGradient@@UEAA?AVPoint3@@AEAVShadeContext@@@Z 0000000180035f6c     BerconGradient.obj
 0002:00009f7c       $chain$4$?EvalNormalPerturb@BerconGradient@@UEAA?AVPoint3@@AEAVShadeContext@@@Z 0000000180035f7c     BerconGradient.obj
 0002:00009f98       $chain$11$?EvalNormalPerturb@BerconGradient@@UEAA?AVPoint3@@AEAVShadeContext@@@Z 0000000180035f98     BerconGradient.obj
 0002:00009fa8       $unwind$?DiscardTexHandle@BerconNoise@@QEAAXXZ 0000000180035fa8     BerconNoise.obj
 0002:00009fa8       $unwind$IsolationAwarePrivatenPgViNgRzlnPgpgk 0000000180035fa8     DllEntry.obj
 0002:00009fa8       $unwind$?DiscardTexHandle@BerconWood@@QEAAXXZ 0000000180035fa8     BerconWood.obj
 0002:00009fa8       $unwind$??2@YAPEAX_K@Z     0000000180035fa8     MSVCRT:new_scalar.obj
 0002:00009fa8       $unwind$?Normal@BerconSC@@UEAA?AVPoint3@@XZ 0000000180035fa8     BerconDistortion.obj
 0002:00009fa8       $unwind$?alterUVW@Noise@@SAXAEAVPoint3@@H@Z 0000000180035fa8     noise.obj
 0002:00009fa8       $unwind$?DiscardTexHandle@BerconGradient@@QEAAXXZ 0000000180035fa8     BerconGradient.obj
 0002:00009fa8       $unwind$?GetClassName@BerconWood@@UEAAXAEAVWStr@@@Z 0000000180035fa8     BerconWood.obj
 0002:00009fa8       $unwind$?DP@BerconSC@@UEAA?AVPoint3@@XZ 0000000180035fa8     BerconDistortion.obj
 0002:00009fa8       $unwind$?GNormal@BerconSC@@UEAA?AVPoint3@@XZ 0000000180035fa8     BerconDistortion.obj
 0002:00009fa8       $unwind$?VectorFromNoScale@BerconSC@@UEAA?AVPoint3@@AEBV2@W4RefFrame@@@Z 0000000180035fa8     BerconDistortion.obj
 0002:00009fa8       $unwind$?DiscardTexHandle@BerconTile@@QEAAXXZ 0000000180035fa8     BerconTile.obj
 0002:00009fa8       $unwind$?IsSubClassOf@Animatable@@UEAAHVClass_ID@@@Z 0000000180035fa8     BerconDistortion.obj
 0002:00009fa8       $unwind$?GetClassName@BerconNoise@@UEAAXAEAVWStr@@@Z 0000000180035fa8     BerconNoise.obj
 0002:00009fa8       $unwind$?VectorToNoScale@BerconSC@@UEAA?AVPoint3@@AEBV2@W4RefFrame@@@Z 0000000180035fa8     BerconDistortion.obj
 0002:00009fa8       $unwind$?GetClassName@BerconTile@@UEAAXAEAVWStr@@@Z 0000000180035fa8     BerconTile.obj
 0002:00009fa8       $unwind$?_Tidy@?$basic_stringbuf@_WU?$char_traits@_W@std@@V?$allocator@_W@2@@std@@IEAAXXZ 0000000180035fa8     tile.obj
 0002:00009fa8       $unwind$??0exception@std@@QEAA@AEBV01@@Z 0000000180035fa8     MSVCRT:throw_bad_alloc.obj
 0002:00009fa8       $unwind$__scrt_release_startup_lock 0000000180035fa8     MSVCRT:utility.obj
 0002:00009fa8       $unwind$??0bad_alloc@std@@QEAA@AEBV01@@Z 0000000180035fa8     MSVCRT:throw_bad_alloc.obj
 0002:00009fa8       $unwind$?OrigNormal@BerconSC@@UEAA?AVPoint3@@XZ 0000000180035fa8     BerconDistortion.obj
 0002:00009fa8       $unwind$?GetClassName@BerconGradient@@UEAAXAEAVWStr@@@Z 0000000180035fa8     BerconGradient.obj
 0002:00009fa8       $unwind$??0bad_array_new_length@std@@QEAA@AEBV01@@Z 0000000180035fa8     MSVCRT:throw_bad_alloc.obj
 0002:00009fa8       $unwind$?GetClassName@BerconDistortion@@UEAAXAEAVWStr@@@Z 0000000180035fa8     BerconDistortion.obj
 0002:00009fa8       $unwind$?leftUp@GradientRamp@@QEAAXHH_N00@Z 0000000180035fa8     GradientRamp.obj
 0002:00009fa8       $unwind$?SetThing@BerconTileDlgProc@@UEAAXPEAVReferenceTarget@@@Z 0000000180035fa8     BerconTile.obj
 0002:00009fa8       $unwind$?VectorFrom@BerconSC@@UEAA?AVPoint3@@AEBV2@W4RefFrame@@@Z 0000000180035fa8     BerconDistortion.obj
 0002:00009fa8       $unwind$?CamPos@BerconSC@@UEAA?AVPoint3@@XZ 0000000180035fa8     BerconDistortion.obj
 0002:00009fa8       $unwind$__scrt_initialize_crt 0000000180035fa8     MSVCRT:utility.obj
 0002:00009fa8       $unwind$?V@BerconSC@@UEAA?AVPoint3@@XZ 0000000180035fa8     BerconDistortion.obj
 0002:00009fa8       $unwind$__scrt_uninitialize_crt 0000000180035fa8     MSVCRT:utility.obj
 0002:00009fa8       $unwind$?OrigView@BerconSC@@UEAA?AVPoint3@@XZ 0000000180035fa8     BerconDistortion.obj
 0002:00009fa8       $unwind$_onexit            0000000180035fa8     MSVCRT:utility.obj
 0002:00009fa8       $unwind$?VectorTo@BerconSC@@UEAA?AVPoint3@@AEBV2@W4RefFrame@@@Z 0000000180035fa8     BerconDistortion.obj
 0002:00009fa8       $unwind$?PointFrom@BerconSC@@UEAA?AVPoint3@@AEBV2@W4RefFrame@@@Z 0000000180035fa8     BerconDistortion.obj
 0002:00009fa8       $unwind$?PointTo@BerconSC@@UEAA?AVPoint3@@AEBV2@W4RefFrame@@@Z 0000000180035fa8     BerconDistortion.obj
 0002:00009fa8       $unwind$?ReflectVector@BerconSC@@UEAA?AVPoint3@@XZ 0000000180035fa8     BerconDistortion.obj
 0002:00009fa8       $unwind$?DiffuseIllum@BerconSC@@UEAA?AVColor@@XZ 0000000180035fa8     BerconDistortion.obj
 0002:00009fa8       $unwind$?UVWNormal@BerconSC@@UEAA?AVPoint3@@H@Z 0000000180035fa8     BerconDistortion.obj
 0002:00009fa8       $unwind$?DUVW@BerconSC@@UEAA?AVPoint3@@H@Z 0000000180035fa8     BerconDistortion.obj
 0002:00009fa8       $unwind$?BarycentricCoords@BerconSC@@UEAA?AVPoint3@@XZ 0000000180035fa8     BerconDistortion.obj
 0002:00009fa8       $unwind$DllMain            0000000180035fa8     DllEntry.obj
 0002:00009fa8       $unwind$?UVW@BerconSC@@UEAA?AVPoint3@@H@Z 0000000180035fa8     BerconDistortion.obj
 0002:00009fa8       $unwind$?OrigNormal@ShadeContext@@UEAA?AVPoint3@@XZ 0000000180035fa8     BerconDistortion.obj
 0002:00009fa8       $unwind$?SurfacePtScreen@BerconSC@@UEAA?AVPoint2@@XZ 0000000180035fa8     BerconDistortion.obj
 0002:00009fa8       $unwind$?OrigView@ShadeContext@@UEAA?AVPoint3@@XZ 0000000180035fa8     BerconDistortion.obj
 0002:00009fa8       $unwind$??_Gtype_info@@UEAAPEAXI@Z 0000000180035fa8     MSVCRT:std_type_info_static.obj
 0002:00009fa8       $unwind$?ScreenCoord@BerconSC@@UEAA?AVIPoint2@@XZ 0000000180035fa8     BerconDistortion.obj
 0002:00009fa8       $unwind$?DPObjRelBox@BerconSC@@UEAA?AVPoint3@@XZ 0000000180035fa8     BerconDistortion.obj
 0002:00009fa8       $unwind$?PObjRelBox@BerconSC@@UEAA?AVPoint3@@XZ 0000000180035fa8     BerconDistortion.obj
 0002:00009fa8       $unwind$?gradSelKey@BerconGradient@@UEAAXXZ 0000000180035fa8     BerconGradient.obj
 0002:00009fa8       $unwind$??_GParamMap2UserDlgProc@@UEAAPEAXI@Z 0000000180035fa8     BerconDistortion.obj
 0002:00009fa8       $unwind$?ObjectBox@BerconSC@@UEAA?AVBox3@@XZ 0000000180035fa8     BerconDistortion.obj
 0002:00009fa8       $unwind$?DPObj@BerconSC@@UEAA?AVPoint3@@XZ 0000000180035fa8     BerconDistortion.obj
 0002:00009fa8       $unwind$?RefractVector@BerconSC@@UEAA?AVPoint3@@M@Z 0000000180035fa8     BerconDistortion.obj
 0002:00009fb0       $unwind$?GetActiveTexHandle@BerconGradient@@UEAA_KHAEAVTexHandleMaker@@@Z 0000000180035fb0     BerconGradient.obj
 0002:00009fb0       $unwind$?GetActiveTexHandle@BerconDistortion@@UEAA_KHAEAVTexHandleMaker@@@Z 0000000180035fb0     BerconDistortion.obj
 0002:00009fb0       $unwind$?GetActiveTexHandle@BerconNoise@@UEAA_KHAEAVTexHandleMaker@@@Z 0000000180035fb0     BerconNoise.obj
 0002:00009fb0       $unwind$?GetActiveTexHandle@BerconWood@@UEAA_KHAEAVTexHandleMaker@@@Z 0000000180035fb0     BerconWood.obj
 0002:00009fb0       $unwind$?GetActiveTexHandle@BerconTile@@UEAA_KHAEAVTexHandleMaker@@@Z 0000000180035fb0     BerconTile.obj
 0002:00009fc4       $chain$0$?GetActiveTexHandle@BerconGradient@@UEAA_KHAEAVTexHandleMaker@@@Z 0000000180035fc4     BerconGradient.obj
 0002:00009fd8       $chain$1$?GetActiveTexHandle@BerconGradient@@UEAA_KHAEAVTexHandleMaker@@@Z 0000000180035fd8     BerconGradient.obj
 0002:00009fe8       $unwind$?Clone@BerconGradient@@UEAAPEAVReferenceTarget@@AEAVRemapDir@@@Z 0000000180035fe8     BerconGradient.obj
 0002:0000a008       $ip2state$?Clone@BerconGradient@@UEAAPEAVReferenceTarget@@AEAVRemapDir@@@Z 0000000180036008     BerconGradient.obj
 0002:0000a020       $chain$0$?NotifyRefChanged@BerconGradient@@UEAA?AW4RefResult@@AEBVInterval@@PEAVReferenceTarget@@AEA_KIH@Z 0000000180036020     BerconGradient.obj
 0002:0000a034       $chain$2$?NotifyRefChanged@BerconGradient@@UEAA?AW4RefResult@@AEBVInterval@@PEAVReferenceTarget@@AEA_KIH@Z 0000000180036034     BerconGradient.obj
 0002:0000a048       $chain$3$?NotifyRefChanged@BerconGradient@@UEAA?AW4RefResult@@AEBVInterval@@PEAVReferenceTarget@@AEA_KIH@Z 0000000180036048     BerconGradient.obj
 0002:0000a058       $unwind$?SubAnimName@BerconGradient@@UEAA?AVWStr@@H@Z 0000000180036058     BerconGradient.obj
 0002:0000a068       $ip2state$?SubAnimName@BerconGradient@@UEAA?AVWStr@@H@Z 0000000180036068     BerconGradient.obj
 0002:0000a078       $chain$0$?SetReference@BerconGradient@@EEAAXHPEAVReferenceTarget@@@Z 0000000180036078     BerconGradient.obj
 0002:0000a08c       $chain$1$?SetReference@BerconGradient@@EEAAXHPEAVReferenceTarget@@@Z 000000018003608c     BerconGradient.obj
 0002:0000a09c       $unwind$??0BerconGradient@@QEAA@XZ 000000018003609c     BerconGradient.obj
 0002:0000a0b4       $stateUnwindMap$??0BerconGradient@@QEAA@XZ 00000001800360b4     BerconGradient.obj
 0002:0000a0c8       $ip2state$??0BerconGradient@@QEAA@XZ 00000001800360c8     BerconGradient.obj
 0002:0000a0f0       $unwind$??1BerconGradient@@UEAA@XZ 00000001800360f0     BerconGradient.obj
 0002:0000a108       $ip2state$??1BerconGradient@@UEAA@XZ 0000000180036108     BerconGradient.obj
 0002:0000a120       $unwind$?Create@BerconGradientClassDesc@@UEAAPEAXH@Z 0000000180036120     BerconGradient.obj
 0002:0000a130       $ip2state$?Create@BerconGradientClassDesc@@UEAAPEAXH@Z 0000000180036130     BerconGradient.obj
 0002:0000a148       $unwind$??_GBerconGradientClassDesc@@UEAAPEAXI@Z 0000000180036148     BerconGradient.obj
 0002:0000a160       $ip2state$??_GBerconGradientClassDesc@@UEAAPEAXI@Z 0000000180036160     BerconGradient.obj
 0002:0000a168       $unwind$??__EBerconGradientDesc@@YAXXZ 0000000180036168     BerconGradient.obj
 0002:0000a178       $ip2state$??__EBerconGradientDesc@@YAXXZ 0000000180036178     BerconGradient.obj
 0002:0000a190       $unwind$??__FBerconGradientDesc@@YAXXZ 0000000180036190     BerconGradient.obj
 0002:0000a1a0       $stateUnwindMap$??__EBerconGradientDesc@@YAXXZ 00000001800361a0     BerconGradient.obj
 0002:0000a1a0       $stateUnwindMap$??__FBerconGradientDesc@@YAXXZ 00000001800361a0     BerconGradient.obj
 0002:0000a1a8       $ip2state$??__FBerconGradientDesc@@YAXXZ 00000001800361a8     BerconGradient.obj
 0002:0000a1b0       $unwind$??__Exyz_blk@@YAXXZ 00000001800361b0     BerconTile.obj
 0002:0000a1b0       $unwind$??__Exyz_blk@@YAXXZ 00000001800361b0     BerconDistortion.obj
 0002:0000a1b0       $unwind$??__Exyz_blk@@YAXXZ 00000001800361b0     BerconNoise.obj
 0002:0000a1b0       $unwind$??__Exyz_blk@@YAXXZ 00000001800361b0     BerconWood.obj
 0002:0000a1b0       $unwind$??__Exyz_blk@@YAXXZ 00000001800361b0     BerconGradient.obj
 0002:0000a1b8       $unwind$??__Fxyz_blk@@YAXXZ 00000001800361b8     BerconGradient.obj
 0002:0000a1c8       $stateUnwindMap$??__Fxyz_blk@@YAXXZ 00000001800361c8     BerconGradient.obj
 0002:0000a1d0       $ip2state$??__Fxyz_blk@@YAXXZ 00000001800361d0     BerconGradient.obj
 0002:0000a1d8       $unwind$??__Egradientmap_param_blk@@YAXXZ 00000001800361d8     BerconGradient.obj
 0002:0000a1e0       $unwind$?DlgProc@BerconGradientDlgProc@@UEAA_JHPEAVIParamMap2@@PEAUHWND__@@I_K_J@Z 00000001800361e0     BerconGradient.obj
 0002:0000a204       $stateUnwindMap$?DlgProc@BerconGradientDlgProc@@UEAA_JHPEAVIParamMap2@@PEAUHWND__@@I_K_J@Z 0000000180036204     BerconGradient.obj
 0002:0000a210       $ip2state$?DlgProc@BerconGradientDlgProc@@UEAA_JHPEAVIParamMap2@@PEAUHWND__@@I_K_J@Z 0000000180036210     BerconGradient.obj
 0002:0000a228       $unwind$??_GBerconGradientDlgProc@@UEAAPEAXI@Z 0000000180036228     BerconGradient.obj
 0002:0000a238       $ip2state$??_GBerconGradientDlgProc@@UEAAPEAXI@Z 0000000180036238     BerconGradient.obj
 0002:0000a240       $unwind$??1?$basic_string@_WU?$char_traits@_W@std@@V?$allocator@_W@2@@std@@QEAA@XZ 0000000180036240     BerconTile.obj
 0002:0000a250       $ip2state$??1?$basic_string@_WU?$char_traits@_W@std@@V?$allocator@_W@2@@std@@QEAA@XZ 0000000180036250     BerconTile.obj
 0002:0000a258       $unwind$?assign@?$basic_string@_WU?$char_traits@_W@std@@V?$allocator@_W@2@@std@@QEAAAEAV12@AEBV12@_K1@Z 0000000180036258     BerconTile.obj
 0002:0000a26c       $unwind$?_Copy@?$basic_string@_WU?$char_traits@_W@std@@V?$allocator@_W@2@@std@@QEAAX_K0@Z 000000018003626c     BerconTile.obj
 0002:0000a284       $stateUnwindMap$?_Copy@?$basic_string@_WU?$char_traits@_W@std@@V?$allocator@_W@2@@std@@QEAAX_K0@Z 0000000180036284     BerconTile.obj
 0002:0000a2a4       $tryMap$?_Copy@?$basic_string@_WU?$char_traits@_W@std@@V?$allocator@_W@2@@std@@QEAAX_K0@Z 00000001800362a4     BerconTile.obj
 0002:0000a2cc       $handlerMap$0$?_Copy@?$basic_string@_WU?$char_traits@_W@std@@V?$allocator@_W@2@@std@@QEAAX_K0@Z 00000001800362cc     BerconTile.obj
 0002:0000a2e0       $handlerMap$1$?_Copy@?$basic_string@_WU?$char_traits@_W@std@@V?$allocator@_W@2@@std@@QEAAX_K0@Z 00000001800362e0     BerconTile.obj
 0002:0000a300       $ip2state$?_Copy@?$basic_string@_WU?$char_traits@_W@std@@V?$allocator@_W@2@@std@@QEAAX_K0@Z 0000000180036300     BerconTile.obj
 0002:0000a340       $unwind$?catch$1@?0??_Copy@?$basic_string@_WU?$char_traits@_W@std@@V?$allocator@_W@2@@std@@QEAAX_K0@Z@4HA 0000000180036340     BerconTile.obj
 0002:0000a350       $unwind$?catch$0@?0??_Copy@?$basic_string@_WU?$char_traits@_W@std@@V?$allocator@_W@2@@std@@QEAAX_K0@Z@4HA 0000000180036350     BerconTile.obj
 0002:0000a364       $unwind$??1?$vector@MV?$allocator@M@std@@@std@@QEAA@XZ 0000000180036364     BerconTile.obj
 0002:0000a378       $ip2state$??1?$vector@MV?$allocator@M@std@@@std@@QEAA@XZ 0000000180036378     BerconTile.obj
 0002:0000a380       $unwind$??1TilePattern@@QEAA@XZ 0000000180036380     BerconTile.obj
 0002:0000a398       $stateUnwindMap$??1TilePattern@@QEAA@XZ 0000000180036398     BerconTile.obj
 0002:0000a3a8       $ip2state$??1TilePattern@@QEAA@XZ 00000001800363a8     BerconTile.obj
 0002:0000a3c0       $unwind$??1?$vector@VTileRow@@V?$allocator@VTileRow@@@std@@@std@@QEAA@XZ 00000001800363c0     BerconTile.obj
 0002:0000a3d0       $ip2state$??1?$vector@VTileRow@@V?$allocator@VTileRow@@@std@@@std@@QEAA@XZ 00000001800363d0     BerconTile.obj
 0002:0000a3d8       $unwind$?update@TilePattern@@QEAAXXZ 00000001800363d8     BerconTile.obj
 0002:0000a3e4       $chain$0$?update@TilePattern@@QEAAXXZ 00000001800363e4     BerconTile.obj
 0002:0000a3f8       $chain$1$?update@TilePattern@@QEAAXXZ 00000001800363f8     BerconTile.obj
 0002:0000a408       $unwind$?applyDistortion@BerconWood@@QEAAXAEAVShadeContext@@AEAVPoint3@@@Z 0000000180036408     BerconWood.obj
 0002:0000a408       $unwind$?applyDistortion@BerconNoise@@QEAAXAEAVShadeContext@@AEAVPoint3@@@Z 0000000180036408     BerconNoise.obj
 0002:0000a408       $unwind$?getDistVector@BerconTile@@QEAA?AVPoint3@@AEAVShadeContext@@@Z 0000000180036408     BerconTile.obj
 0002:0000a418       $chain$0$?getDistVector@BerconTile@@QEAA?AVPoint3@@AEAVShadeContext@@@Z 0000000180036418     BerconTile.obj
 0002:0000a42c       $chain$2$?getDistVector@BerconTile@@QEAA?AVPoint3@@AEAVShadeContext@@@Z 000000018003642c     BerconTile.obj
 0002:0000a444       $chain$3$?getDistVector@BerconTile@@QEAA?AVPoint3@@AEAVShadeContext@@@Z 0000000180036444     BerconTile.obj
 0002:0000a454       $chain$5$?getDistVector@BerconTile@@QEAA?AVPoint3@@AEAVShadeContext@@@Z 0000000180036454     BerconTile.obj
 0002:0000a468       $chain$6$?getDistVector@BerconTile@@QEAA?AVPoint3@@AEAVShadeContext@@@Z 0000000180036468     BerconTile.obj
 0002:0000a478       $unwind$?EnableStuff@BerconTile@@QEAAXH@Z 0000000180036478     BerconTile.obj
 0002:0000a484       $chain$0$?EnableStuff@BerconTile@@QEAAXH@Z 0000000180036484     BerconTile.obj
 0002:0000a498       $chain$3$?EnableStuff@BerconTile@@QEAAXH@Z 0000000180036498     BerconTile.obj
 0002:0000a4b4       $chain$4$?EnableStuff@BerconTile@@QEAAXH@Z 00000001800364b4     BerconTile.obj
 0002:0000a4c4       $chain$5$?EnableStuff@BerconTile@@QEAAXH@Z 00000001800364c4     BerconTile.obj
 0002:0000a4d4       $unwind$?ActivateTexDisplay@BerconTile@@UEAAXH@Z 00000001800364d4     BerconTile.obj
 0002:0000a4d4       $unwind$?ActivateTexDisplay@BerconGradient@@UEAAXH@Z 00000001800364d4     BerconGradient.obj
 0002:0000a4d4       $unwind$?ActivateTexDisplay@BerconDistortion@@UEAAXH@Z 00000001800364d4     BerconDistortion.obj
 0002:0000a4d4       $unwind$?ActivateTexDisplay@BerconNoise@@UEAAXH@Z 00000001800364d4     BerconNoise.obj
 0002:0000a4d4       $unwind$?ActivateTexDisplay@BerconWood@@UEAAXH@Z 00000001800364d4     BerconWood.obj
 0002:0000a4dc       $chain$0$?GetActiveTexHandle@BerconTile@@UEAA_KHAEAVTexHandleMaker@@@Z 00000001800364dc     BerconTile.obj
 0002:0000a4f0       $chain$1$?GetActiveTexHandle@BerconTile@@UEAA_KHAEAVTexHandleMaker@@@Z 00000001800364f0     BerconTile.obj
 0002:0000a500       $unwind$?CreateParamDlg@BerconTile@@UEAAPEAVParamDlg@@PEAUHWND__@@PEAVIMtlParams@@@Z 0000000180036500     BerconTile.obj
 0002:0000a520       $ip2state$?CreateParamDlg@BerconTile@@UEAAPEAVParamDlg@@PEAUHWND__@@PEAVIMtlParams@@@Z 0000000180036520     BerconTile.obj
 0002:0000a558       $unwind$?Update@BerconTile@@UEAAXHAEAVInterval@@@Z 0000000180036558     BerconTile.obj
 0002:0000a578       $stateUnwindMap$?Update@BerconTile@@UEAAXHAEAVInterval@@@Z 0000000180036578     BerconTile.obj
 0002:0000a580       $ip2state$?Update@BerconTile@@UEAAXHAEAVInterval@@@Z 0000000180036580     BerconTile.obj
 0002:0000a598       $unwind$?GetSubTexmapSlotName@BerconTile@@UEAA?AVWStr@@H@Z 0000000180036598     BerconTile.obj
 0002:0000a5a8       $ip2state$?GetSubTexmapSlotName@BerconTile@@UEAA?AVWStr@@H@Z 00000001800365a8     BerconTile.obj
 0002:0000a5c8       $unwind$?EvalColor@BerconTile@@UEAA?AVAColor@@AEAVShadeContext@@@Z 00000001800365c8     BerconTile.obj
 0002:0000a5f4       $stateUnwindMap$?EvalColor@BerconTile@@UEAA?AVAColor@@AEAVShadeContext@@@Z 00000001800365f4     BerconTile.obj
 0002:0000a630       $ip2state$?EvalColor@BerconTile@@UEAA?AVAColor@@AEAVShadeContext@@@Z 0000000180036630     BerconTile.obj
 0002:0000a658       $unwind$?EvalNormalPerturb@BerconTile@@UEAA?AVPoint3@@AEAVShadeContext@@@Z 0000000180036658     BerconTile.obj
 0002:0000a68c       $stateUnwindMap$?EvalNormalPerturb@BerconTile@@UEAA?AVPoint3@@AEAVShadeContext@@@Z 000000018003668c     BerconTile.obj
 0002:0000a6c8       $ip2state$?EvalNormalPerturb@BerconTile@@UEAA?AVPoint3@@AEAVShadeContext@@@Z 00000001800366c8     BerconTile.obj
 0002:0000a6f0       $unwind$?Clone@BerconTile@@UEAAPEAVReferenceTarget@@AEAVRemapDir@@@Z 00000001800366f0     BerconTile.obj
 0002:0000a710       $stateUnwindMap$?Clone@BerconNoise@@UEAAPEAVReferenceTarget@@AEAVRemapDir@@@Z 0000000180036710     BerconNoise.obj
 0002:0000a710       $stateUnwindMap$?Clone@BerconWood@@UEAAPEAVReferenceTarget@@AEAVRemapDir@@@Z 0000000180036710     BerconWood.obj
 0002:0000a710       $stateUnwindMap$?Clone@BerconDistortion@@UEAAPEAVReferenceTarget@@AEAVRemapDir@@@Z 0000000180036710     BerconDistortion.obj
 0002:0000a710       $stateUnwindMap$?Clone@BerconTile@@UEAAPEAVReferenceTarget@@AEAVRemapDir@@@Z 0000000180036710     BerconTile.obj
 0002:0000a718       $ip2state$?Clone@BerconTile@@UEAAPEAVReferenceTarget@@AEAVRemapDir@@@Z 0000000180036718     BerconTile.obj
 0002:0000a730       $chain$0$?NotifyRefChanged@BerconTile@@UEAA?AW4RefResult@@AEBVInterval@@PEAVReferenceTarget@@AEA_KIH@Z 0000000180036730     BerconTile.obj
 0002:0000a744       $chain$2$?NotifyRefChanged@BerconTile@@UEAA?AW4RefResult@@AEBVInterval@@PEAVReferenceTarget@@AEA_KIH@Z 0000000180036744     BerconTile.obj
 0002:0000a758       $chain$3$?NotifyRefChanged@BerconTile@@UEAA?AW4RefResult@@AEBVInterval@@PEAVReferenceTarget@@AEA_KIH@Z 0000000180036758     BerconTile.obj
 0002:0000a768       $unwind$?SubAnimName@BerconTile@@UEAA?AVWStr@@H@Z 0000000180036768     BerconTile.obj
 0002:0000a778       $ip2state$?SubAnimName@BerconTile@@UEAA?AVWStr@@H@Z 0000000180036778     BerconTile.obj
 0002:0000a788       $unwind$??0BerconTile@@QEAA@XZ 0000000180036788     BerconTile.obj
 0002:0000a79c       $stateUnwindMap$??0BerconTile@@QEAA@XZ 000000018003679c     BerconTile.obj
 0002:0000a7c0       $ip2state$??0BerconTile@@QEAA@XZ 00000001800367c0     BerconTile.obj
 0002:0000a7f0       $unwind$??1BerconTile@@UEAA@XZ 00000001800367f0     BerconTile.obj
 0002:0000a800       $stateUnwindMap$??1BerconTile@@UEAA@XZ 0000000180036800     BerconTile.obj
 0002:0000a818       $ip2state$??1BerconTile@@UEAA@XZ 0000000180036818     BerconTile.obj
 0002:0000a838       $unwind$?Create@BerconTileClassDesc@@UEAAPEAXH@Z 0000000180036838     BerconTile.obj
 0002:0000a848       $ip2state$?Create@BerconTileClassDesc@@UEAAPEAXH@Z 0000000180036848     BerconTile.obj
 0002:0000a860       $unwind$??_GBerconTileClassDesc@@UEAAPEAXI@Z 0000000180036860     BerconTile.obj
 0002:0000a874       $stateUnwindMap$??_GBerconDistortionClassDesc@@UEAAPEAXI@Z 0000000180036874     BerconDistortion.obj
 0002:0000a874       $stateUnwindMap$??_GBerconTileClassDesc@@UEAAPEAXI@Z 0000000180036874     BerconTile.obj
 0002:0000a874       $stateUnwindMap$??_GBerconGradientClassDesc@@UEAAPEAXI@Z 0000000180036874     BerconGradient.obj
 0002:0000a874       $stateUnwindMap$??_GBerconWoodClassDesc@@UEAAPEAXI@Z 0000000180036874     BerconWood.obj
 0002:0000a874       $stateUnwindMap$??_GBerconNoiseClassDesc@@UEAAPEAXI@Z 0000000180036874     BerconNoise.obj
 0002:0000a880       $ip2state$??_GBerconTileClassDesc@@UEAAPEAXI@Z 0000000180036880     BerconTile.obj
 0002:0000a888       $unwind$??__EBerconTileDesc@@YAXXZ 0000000180036888     BerconTile.obj
 0002:0000a898       $stateUnwindMap$??__FBerconTileDesc@@YAXXZ 0000000180036898     BerconTile.obj
 0002:0000a898       $stateUnwindMap$??__EBerconTileDesc@@YAXXZ 0000000180036898     BerconTile.obj
 0002:0000a8a0       $ip2state$??__EBerconTileDesc@@YAXXZ 00000001800368a0     BerconTile.obj
 0002:0000a8b8       $unwind$??__FBerconTileDesc@@YAXXZ 00000001800368b8     BerconTile.obj
 0002:0000a8c8       $ip2state$??__FBerconTileDesc@@YAXXZ 00000001800368c8     BerconTile.obj
 0002:0000a8d0       $unwind$??__Fxyz_blk@@YAXXZ 00000001800368d0     BerconTile.obj
 0002:0000a8e0       $stateUnwindMap$??__Fxyz_blk@@YAXXZ 00000001800368e0     BerconTile.obj
 0002:0000a8e8       $ip2state$??__Fxyz_blk@@YAXXZ 00000001800368e8     BerconTile.obj
 0002:0000a8f0       $unwind$??__EBerconTile_param_blk@@YAXXZ 00000001800368f0     BerconTile.obj
 0002:0000a8f8       $unwind$??__EBerconMap_param_blk@@YAXXZ 00000001800368f8     BerconTile.obj
 0002:0000a900       $unwind$??_GBerconTileDlgProc@@UEAAPEAXI@Z 0000000180036900     BerconTile.obj
 0002:0000a910       $ip2state$??_GBerconTileDlgProc@@UEAAPEAXI@Z 0000000180036910     BerconTile.obj
 0002:0000a918       $unwind$??$_Destroy_range1@V?$allocator@VTileRow@@@std@@PEAVTileRow@@@std@@YAXPEAVTileRow@@0AEAU?$_Wrap_alloc@V?$allocator@VTileRow@@@std@@@0@U?$integral_constant@_N$0A@@0@@Z 0000000180036918     BerconTile.obj
 0002:0000a938       $ip2state$??$_Destroy_range1@V?$allocator@VTileRow@@@std@@PEAVTileRow@@@std@@YAXPEAVTileRow@@0AEAU?$_Wrap_alloc@V?$allocator@VTileRow@@@std@@@0@U?$integral_constant@_N$0A@@0@@Z 0000000180036938     BerconTile.obj
 0002:0000a940       $chain$0$?applyDistortion@BerconWood@@QEAAXAEAVShadeContext@@AEAVPoint3@@@Z 0000000180036940     BerconWood.obj
 0002:0000a954       $chain$2$?applyDistortion@BerconWood@@QEAAXAEAVShadeContext@@AEAVPoint3@@@Z 0000000180036954     BerconWood.obj
 0002:0000a96c       $chain$3$?applyDistortion@BerconWood@@QEAAXAEAVShadeContext@@AEAVPoint3@@@Z 000000018003696c     BerconWood.obj
 0002:0000a97c       $chain$4$?applyDistortion@BerconWood@@QEAAXAEAVShadeContext@@AEAVPoint3@@@Z 000000018003697c     BerconWood.obj
 0002:0000a98c       $unwind$WinbaseIsolationAwarePrivatetRgzlnPgpgk$fin$0 000000018003698c     DllEntry.obj
 0002:0000a98c       $unwind$?EnableStuff@BerconWood@@QEAAXXZ 000000018003698c     BerconWood.obj
 0002:0000a994       $chain$0$?EnableStuff@BerconWood@@QEAAXXZ 0000000180036994     BerconWood.obj
 0002:0000a9a8       $chain$4$?EnableStuff@BerconWood@@QEAAXXZ 00000001800369a8     BerconWood.obj
 0002:0000a9c8       $chain$5$?EnableStuff@BerconWood@@QEAAXXZ 00000001800369c8     BerconWood.obj
 0002:0000a9d8       $chain$6$?EnableStuff@BerconWood@@QEAAXXZ 00000001800369d8     BerconWood.obj
 0002:0000a9e8       $chain$0$?GetActiveTexHandle@BerconWood@@UEAA_KHAEAVTexHandleMaker@@@Z 00000001800369e8     BerconWood.obj
 0002:0000a9fc       $chain$1$?GetActiveTexHandle@BerconWood@@UEAA_KHAEAVTexHandleMaker@@@Z 00000001800369fc     BerconWood.obj
 0002:0000aa0c       $unwind$?CreateParamDlg@BerconWood@@UEAAPEAVParamDlg@@PEAUHWND__@@PEAVIMtlParams@@@Z 0000000180036a0c     BerconWood.obj
 0002:0000aa28       $stateUnwindMap$?CreateParamDlg@BerconWood@@UEAAPEAVParamDlg@@PEAUHWND__@@PEAVIMtlParams@@@Z 0000000180036a28     BerconWood.obj
 0002:0000aa28       $stateUnwindMap$?CreateParamDlg@BerconTile@@UEAAPEAVParamDlg@@PEAUHWND__@@PEAVIMtlParams@@@Z 0000000180036a28     BerconTile.obj
 0002:0000aa28       $stateUnwindMap$?CreateParamDlg@BerconGradient@@UEAAPEAVParamDlg@@PEAUHWND__@@PEAVIMtlParams@@@Z 0000000180036a28     BerconGradient.obj
 0002:0000aa28       $stateUnwindMap$?CreateParamDlg@BerconNoise@@UEAAPEAVParamDlg@@PEAUHWND__@@PEAVIMtlParams@@@Z 0000000180036a28     BerconNoise.obj
 0002:0000aa48       $ip2state$?CreateParamDlg@BerconWood@@UEAAPEAVParamDlg@@PEAUHWND__@@PEAVIMtlParams@@@Z 0000000180036a48     BerconWood.obj
 0002:0000aa80       $unwind$?Update@BerconNoise@@UEAAXHAEAVInterval@@@Z 0000000180036a80     BerconNoise.obj
 0002:0000aa80       $unwind$?Update@BerconWood@@UEAAXHAEAVInterval@@@Z 0000000180036a80     BerconWood.obj
 0002:0000aa8c       $chain$0$?Update@BerconWood@@UEAAXHAEAVInterval@@@Z 0000000180036a8c     BerconWood.obj
 0002:0000aaa0       $chain$4$?Update@BerconWood@@UEAAXHAEAVInterval@@@Z 0000000180036aa0     BerconWood.obj
 0002:0000aac0       $chain$5$?Update@BerconWood@@UEAAXHAEAVInterval@@@Z 0000000180036ac0     BerconWood.obj
 0002:0000aad8       $chain$6$?Update@BerconWood@@UEAAXHAEAVInterval@@@Z 0000000180036ad8     BerconWood.obj
 0002:0000aaec       $chain$7$?Update@BerconWood@@UEAAXHAEAVInterval@@@Z 0000000180036aec     BerconWood.obj
 0002:0000aafc       $chain$8$?Update@BerconWood@@UEAAXHAEAVInterval@@@Z 0000000180036afc     BerconWood.obj
 0002:0000ab0c       $unwind$?Reset@BerconWood@@UEAAXXZ 0000000180036b0c     BerconWood.obj
 0002:0000ab0c       $unwind$?Reset@BerconTile@@UEAAXXZ 0000000180036b0c     BerconTile.obj
 0002:0000ab24       $unwind$?GetSubTexmapSlotName@BerconWood@@UEAA?AVWStr@@H@Z 0000000180036b24     BerconWood.obj
 0002:0000ab38       $ip2state$?GetSubTexmapSlotName@BerconWood@@UEAA?AVWStr@@H@Z 0000000180036b38     BerconWood.obj
 0002:0000ab58       $unwind$?EvalColor@BerconWood@@UEAA?AVAColor@@AEAVShadeContext@@@Z 0000000180036b58     BerconWood.obj
 0002:0000ab74       $chain$8$?EvalColor@BerconWood@@UEAA?AVAColor@@AEAVShadeContext@@@Z 0000000180036b74     BerconWood.obj
 0002:0000aba8       $chain$9$?EvalColor@BerconWood@@UEAA?AVAColor@@AEAVShadeContext@@@Z 0000000180036ba8     BerconWood.obj
 0002:0000abb8       $unwind$?EvalNormalPerturb@BerconWood@@UEAA?AVPoint3@@AEAVShadeContext@@@Z 0000000180036bb8     BerconWood.obj
 0002:0000abd0       $chain$10$?EvalNormalPerturb@BerconWood@@UEAA?AVPoint3@@AEAVShadeContext@@@Z 0000000180036bd0     BerconWood.obj
 0002:0000ac0c       $chain$11$?EvalNormalPerturb@BerconWood@@UEAA?AVPoint3@@AEAVShadeContext@@@Z 0000000180036c0c     BerconWood.obj
 0002:0000ac20       $chain$12$?EvalNormalPerturb@BerconWood@@UEAA?AVPoint3@@AEAVShadeContext@@@Z 0000000180036c20     BerconWood.obj
 0002:0000ac58       $chain$13$?EvalNormalPerturb@BerconWood@@UEAA?AVPoint3@@AEAVShadeContext@@@Z 0000000180036c58     BerconWood.obj
 0002:0000ac68       $unwind$?Clone@BerconWood@@UEAAPEAVReferenceTarget@@AEAVRemapDir@@@Z 0000000180036c68     BerconWood.obj
 0002:0000ac88       $ip2state$?Clone@BerconWood@@UEAAPEAVReferenceTarget@@AEAVRemapDir@@@Z 0000000180036c88     BerconWood.obj
 0002:0000aca0       $chain$0$?NotifyRefChanged@BerconWood@@UEAA?AW4RefResult@@AEBVInterval@@PEAVReferenceTarget@@AEA_KIH@Z 0000000180036ca0     BerconWood.obj
 0002:0000acb4       $chain$2$?NotifyRefChanged@BerconWood@@UEAA?AW4RefResult@@AEBVInterval@@PEAVReferenceTarget@@AEA_KIH@Z 0000000180036cb4     BerconWood.obj
 0002:0000acc8       $chain$3$?NotifyRefChanged@BerconWood@@UEAA?AW4RefResult@@AEBVInterval@@PEAVReferenceTarget@@AEA_KIH@Z 0000000180036cc8     BerconWood.obj
 0002:0000acd8       $unwind$?SubAnimName@BerconWood@@UEAA?AVWStr@@H@Z 0000000180036cd8     BerconWood.obj
 0002:0000ace8       $ip2state$?SubAnimName@BerconWood@@UEAA?AVWStr@@H@Z 0000000180036ce8     BerconWood.obj
 0002:0000ad08       $unwind$?DeleteThis@BerconTile@@UEAAXXZ 0000000180036d08     BerconTile.obj
 0002:0000ad08       $unwind$?DeleteThis@BerconNoise@@UEAAXXZ 0000000180036d08     BerconNoise.obj
 0002:0000ad08       $unwind$?DeleteThis@BerconWood@@UEAAXXZ 0000000180036d08     BerconWood.obj
 0002:0000ad08       $unwind$?DeleteThis@BerconGradient@@UEAAXXZ 0000000180036d08     BerconGradient.obj
 0002:0000ad10       $unwind$??0BerconWood@@QEAA@XZ 0000000180036d10     BerconWood.obj
 0002:0000ad28       $ip2state$??0BerconWood@@QEAA@XZ 0000000180036d28     BerconWood.obj
 0002:0000ad40       $unwind$??1BerconWood@@UEAA@XZ 0000000180036d40     BerconWood.obj
 0002:0000ad50       $ip2state$??1BerconWood@@UEAA@XZ 0000000180036d50     BerconWood.obj
 0002:0000ad68       $unwind$?Create@BerconWoodClassDesc@@UEAAPEAXH@Z 0000000180036d68     BerconWood.obj
 0002:0000ad78       $ip2state$?Create@BerconWoodClassDesc@@UEAAPEAXH@Z 0000000180036d78     BerconWood.obj
 0002:0000ad90       $unwind$??_GBerconWoodClassDesc@@UEAAPEAXI@Z 0000000180036d90     BerconWood.obj
 0002:0000ada8       $ip2state$??_GBerconWoodClassDesc@@UEAAPEAXI@Z 0000000180036da8     BerconWood.obj
 0002:0000adb0       $unwind$??__EBerconWoodDesc@@YAXXZ 0000000180036db0     BerconWood.obj
 0002:0000adc0       $ip2state$??__EBerconWoodDesc@@YAXXZ 0000000180036dc0     BerconWood.obj
 0002:0000add8       $unwind$??__FBerconWoodDesc@@YAXXZ 0000000180036dd8     BerconWood.obj
 0002:0000ade8       $stateUnwindMap$??__EBerconWoodDesc@@YAXXZ 0000000180036de8     BerconWood.obj
 0002:0000ade8       $stateUnwindMap$??__FBerconWoodDesc@@YAXXZ 0000000180036de8     BerconWood.obj
 0002:0000adf0       $ip2state$??__FBerconWoodDesc@@YAXXZ 0000000180036df0     BerconWood.obj
 0002:0000adf8       $unwind$??__Fxyz_blk@@YAXXZ 0000000180036df8     BerconWood.obj
 0002:0000ae08       $stateUnwindMap$??__Fxyz_blk@@YAXXZ 0000000180036e08     BerconWood.obj
 0002:0000ae10       $ip2state$??__Fxyz_blk@@YAXXZ 0000000180036e10     BerconWood.obj
 0002:0000ae18       $unwind$??__EBerconWood_param_blk@@YAXXZ 0000000180036e18     BerconWood.obj
 0002:0000ae24       $unwind$??__EBerconMap_param_blk@@YAXXZ 0000000180036e24     BerconWood.obj
 0002:0000ae2c       $unwind$?DlgProc@BerconWoodDlgProc@@UEAA_JHPEAVIParamMap2@@PEAUHWND__@@I_K_J@Z 0000000180036e2c     BerconWood.obj
 0002:0000ae40       $unwind$??_GBerconWoodDlgProc@@UEAAPEAXI@Z 0000000180036e40     BerconWood.obj
 0002:0000ae50       $ip2state$??_GBerconWoodDlgProc@@UEAAPEAXI@Z 0000000180036e50     BerconWood.obj
 0002:0000ae58       $unwind$WinbaseIsolationAwarePrivatetRgzlnPgpgk 0000000180036e58     DllEntry.obj
 0002:0000ae7c       $unwind$CommctrlIsolationAwarePrivatetRgCebPnQQeRff_pbZPgYQP_QYY 0000000180036e7c     DllEntry.obj
 0002:0000aea8       $unwind$IsolationAwareRegisterClassExW$fin$0 0000000180036ea8     IGradient.obj
 0002:0000aea8       $unwind$CommctrlIsolationAwarePrivatetRgCebPnQQeRff_pbZPgYQP_QYY$fin$0 0000000180036ea8     DllEntry.obj
 0002:0000aeb4       $unwind$IsolationAwareInitCommonControls 0000000180036eb4     DllEntry.obj
 0002:0000aed4       $unwind$?dtor$0@?0??SubAnimName@BerconGradient@@UEAA?AVWStr@@H@Z@4HA 0000000180036ed4     BerconGradient.obj
 0002:0000aed4       $unwind$?dtor$0@?0??SubAnimName@BerconWood@@UEAA?AVWStr@@H@Z@4HA 0000000180036ed4     BerconWood.obj
 0002:0000aed4       $unwind$?dtor$0@?0??SubAnimName@BerconNoise@@UEAA?AVWStr@@H@Z@4HA 0000000180036ed4     BerconNoise.obj
 0002:0000aed4       $unwind$?dtor$0@?0??GetSubTexmapSlotName@BerconTile@@UEAA?AVWStr@@H@Z@4HA 0000000180036ed4     BerconTile.obj
 0002:0000aed4       $unwind$?dtor$0@?0??substr@?$basic_string@_WU?$char_traits@_W@std@@V?$allocator@_W@2@@std@@QEBA?AV12@_K0@Z@4HA 0000000180036ed4     tile.obj
 0002:0000aed4       $unwind$?dtor$1@?0???0BerconGradient@@QEAA@XZ@4HA 0000000180036ed4     BerconGradient.obj
 0002:0000aed4       $unwind$?dtor$0@?0??GetSubTexmapSlotName@BerconWood@@UEAA?AVWStr@@H@Z@4HA 0000000180036ed4     BerconWood.obj
 0002:0000aed4       $unwind$IsolationAwareInitCommonControls$fin$0 0000000180036ed4     DllEntry.obj
 0002:0000aed4       $unwind$?dtor$26@?0??parsePattern@@YAHV?$basic_string@_WU?$char_traits@_W@std@@V?$allocator@_W@2@@std@@PEAVTilePattern@@@Z@4HA 0000000180036ed4     tile.obj
 0002:0000aed4       $unwind$?fin$0@?0??dllmain_crt_process_detach@@YAH_N@Z@4HA 0000000180036ed4     MSVCRT:dll_dllmain.obj
 0002:0000aed4       $unwind$?dtor$0@?0??SubAnimName@BerconDistortion@@UEAA?AVWStr@@H@Z@4HA 0000000180036ed4     BerconDistortion.obj
 0002:0000aed4       $unwind$?dtor$13@?0??parsePattern@@YAHV?$basic_string@_WU?$char_traits@_W@std@@V?$allocator@_W@2@@std@@PEAVTilePattern@@@Z@4HA 0000000180036ed4     tile.obj
 0002:0000aed4       $unwind$?dtor$0@?0??GetSubTexmapSlotName@BerconGradient@@UEAA?AVWStr@@H@Z@4HA 0000000180036ed4     BerconGradient.obj
 0002:0000aed4       $unwind$?dtor$18@?0??parsePattern@@YAHV?$basic_string@_WU?$char_traits@_W@std@@V?$allocator@_W@2@@std@@PEAVTilePattern@@@Z@4HA 0000000180036ed4     tile.obj
 0002:0000aed4       $unwind$?dtor$0@?0??GetSubTexmapSlotName@BerconNoise@@UEAA?AVWStr@@H@Z@4HA 0000000180036ed4     BerconNoise.obj
 0002:0000aed4       $unwind$?dtor$28@?0??parsePattern@@YAHV?$basic_string@_WU?$char_traits@_W@std@@V?$allocator@_W@2@@std@@PEAVTilePattern@@@Z@4HA 0000000180036ed4     tile.obj
 0002:0000aed4       $unwind$?dtor$9@?0??parsePattern@@YAHV?$basic_string@_WU?$char_traits@_W@std@@V?$allocator@_W@2@@std@@PEAVTilePattern@@@Z@4HA 0000000180036ed4     tile.obj
 0002:0000aed4       $unwind$?dtor$0@?0??SubAnimName@BerconTile@@UEAA?AVWStr@@H@Z@4HA 0000000180036ed4     BerconTile.obj
 0002:0000aed4       $unwind$?dtor$0@?0??GetSubTexmapSlotName@BerconDistortion@@UEAA?AVWStr@@H@Z@4HA 0000000180036ed4     BerconDistortion.obj
 0002:0000aed4       $unwind$?fin$0@?0??dllmain_crt_process_attach@@YAHQEAUHINSTANCE__@@QEAX@Z@4HA 0000000180036ed4     MSVCRT:dll_dllmain.obj
 0002:0000aedc       $chain$0$?GetString@@YAPEA_WH@Z 0000000180036edc     DllEntry.obj
 0002:0000aef0       $chain$1$?GetString@@YAPEA_WH@Z 0000000180036ef0     DllEntry.obj
 0002:0000af00       $unwind$__scrt_dllmain_crt_thread_attach 0000000180036f00     MSVCRT:utility.obj
 0002:0000af00       $unwind$__scrt_dllmain_uninitialize_c 0000000180036f00     MSVCRT:utility.obj
 0002:0000af00       $unwind$__scrt_dllmain_after_initialize_c 0000000180036f00     MSVCRT:utility.obj
 0002:0000af00       $unwind$?SetDlgThing@BerconGradient@@UEAAHPEAVParamDlg@@@Z 0000000180036f00     BerconGradient.obj
 0002:0000af00       $unwind$__scrt_dllmain_before_initialize_c 0000000180036f00     MSVCRT:utility.obj
 0002:0000af00       $unwind$?GetString@@YAPEA_WH@Z 0000000180036f00     DllEntry.obj
 0002:0000af00       $unwind$?SetDlgThing@BerconWood@@UEAAHPEAVParamDlg@@@Z 0000000180036f00     BerconWood.obj
 0002:0000af00       $unwind$__scrt_acquire_startup_lock 0000000180036f00     MSVCRT:utility.obj
 0002:0000af00       $unwind$?allocate@?$allocator@M@std@@QEAAPEAM_K@Z 0000000180036f00     tile.obj
 0002:0000af00       $unwind$?GetInterfaceAt@ClassDesc@@UEAAPEAVFPInterface@@H@Z 0000000180036f00     BerconDistortion.obj
 0002:0000af00       $unwind$?LibClassDesc@@YAPEAVClassDesc@@H@Z 0000000180036f00     DllEntry.obj
 0002:0000af00       $unwind$?allocate@?$allocator@_W@std@@QEAAPEA_W_K@Z 0000000180036f00     BerconTile.obj
 0002:0000af00       $unwind$atexit             0000000180036f00     MSVCRT:utility.obj
 0002:0000af00       $unwind$__scrt_initialize_default_local_stdio_options 0000000180036f00     MSVCRT:default_local_stdio_options.obj
 0002:0000af00       $unwind$?LibDescription@@YAPEB_WXZ 0000000180036f00     DllEntry.obj
 0002:0000af00       $unwind$__scrt_dllmain_crt_thread_detach 0000000180036f00     MSVCRT:utility.obj
 0002:0000af00       $unwind$?deallocate@?$allocator@_W@std@@QEAAXPEA_W_K@Z 0000000180036f00     BerconTile.obj
 0002:0000af00       $unwind$?NotifyDependents@ReferenceMaker@@EEAA?AW4RefResult@@AEBVInterval@@_KIKHPEAVReferenceTarget@@@Z 0000000180036f00     BerconDistortion.obj
 0002:0000af00       $unwind$?deallocate@?$allocator@M@std@@QEAAXPEAM_K@Z 0000000180036f00     BerconTile.obj
 0002:0000af00       $unwind$?SetDlgThing@BerconTile@@UEAAHPEAVParamDlg@@@Z 0000000180036f00     BerconTile.obj
 0002:0000af00       $unwind$?dllmain_crt_dispatch@@YAHQEAUHINSTANCE__@@KQEAX@Z 0000000180036f00     MSVCRT:dll_dllmain.obj
 0002:0000af00       $unwind$?allocate@?$allocator@VTileRow@@@std@@QEAAPEAVTileRow@@_K@Z 0000000180036f00     tile.obj
 0002:0000af00       $unwind$__scrt_dllmain_uninitialize_critical 0000000180036f00     MSVCRT:utility.obj
 0002:0000af00       $unwind$?deallocate@?$allocator@VTileRow@@@std@@QEAAXPEAVTileRow@@_K@Z 0000000180036f00     BerconTile.obj
 0002:0000af00       $unwind$?allocate@?$allocator@V?$basic_string@_WU?$char_traits@_W@std@@V?$allocator@_W@2@@std@@@std@@QEAAPEAV?$basic_string@_WU?$char_traits@_W@std@@V?$allocator@_W@2@@2@_K@Z 0000000180036f00     tile.obj
 0002:0000af00       $unwind$?deallocate@?$allocator@V?$basic_string@_WU?$char_traits@_W@std@@V?$allocator@_W@2@@std@@@std@@QEAAXPEAV?$basic_string@_WU?$char_traits@_W@std@@V?$allocator@_W@2@@2@_K@Z 0000000180036f00     tile.obj
 0002:0000af00       $unwind$?SetDlgThing@BerconNoise@@UEAAHPEAVParamDlg@@@Z 0000000180036f00     BerconNoise.obj
 0002:0000af08       $chain$0$?LibDescription@@YAPEB_WXZ 0000000180036f08     DllEntry.obj
 0002:0000af1c       $chain$1$?LibDescription@@YAPEB_WXZ 0000000180036f1c     DllEntry.obj
 0002:0000af2c       $unwind$?setSpinnerType@@YAXPEAVIParamMap2@@HHHHH_N@Z 0000000180036f2c     BerconCommon.obj
 0002:0000af2c       $unwind$?setSpinnerType@@YAXPEAVIParamMap2@@HHHHH_N@Z 0000000180036f2c     BerconTile.obj
 0002:0000af40       $chain$0$?setSpinnerType@@YAXPEAVIParamMap2@@HHHHH_N@Z 0000000180036f40     BerconCommon.obj
 0002:0000af40       $chain$0$?setSpinnerType@@YAXPEAVIParamMap2@@HHHHH_N@Z 0000000180036f40     BerconTile.obj
 0002:0000af54       $chain$1$?setSpinnerType@@YAXPEAVIParamMap2@@HHHHH_N@Z 0000000180036f54     BerconCommon.obj
 0002:0000af54       $chain$1$?setSpinnerType@@YAXPEAVIParamMap2@@HHHHH_N@Z 0000000180036f54     BerconTile.obj
 0002:0000af64       $unwind$?update@BerconXYZ@@QEAAXPEAVIParamBlock2@@HAEAVInterval@@@Z 0000000180036f64     BerconCommon.obj
 0002:0000af74       $chain$3$?update@BerconXYZ@@QEAAXPEAVIParamBlock2@@HAEAVInterval@@@Z 0000000180036f74     BerconCommon.obj
 0002:0000af94       $chain$4$?update@BerconXYZ@@QEAAXPEAVIParamBlock2@@HAEAVInterval@@@Z 0000000180036f94     BerconCommon.obj
 0002:0000afa4       $unwind$?update@BerconXYZ@@QEAAXXZ 0000000180036fa4     BerconCommon.obj
 0002:0000afb0       $unwind$?reset@BerconXYZ@@QEAAXPEAVIParamBlock2@@AEAVInterval@@HHHH@Z 0000000180036fb0     BerconCommon.obj
 0002:0000afc0       $chain$2$?reset@BerconXYZ@@QEAAXPEAVIParamBlock2@@AEAVInterval@@HHHH@Z 0000000180036fc0     BerconCommon.obj
 0002:0000afdc       $chain$3$?reset@BerconXYZ@@QEAAXPEAVIParamBlock2@@AEAVInterval@@HHHH@Z 0000000180036fdc     BerconCommon.obj
 0002:0000afec       $unwind$?get@BerconXYZ@@QEAAHAEAVShadeContext@@AEAVPoint3@@11@Z 0000000180036fec     BerconCommon.obj
 0002:0000b004       $unwind$?get@BerconXYZ@@QEAAHAEAVShadeContext@@AEAVPoint3@@11PEAV3@@Z 0000000180037004     BerconCommon.obj
 0002:0000b024       $unwind$?get@BerconXYZ@@QEAAHAEAVShadeContext@@AEAVPoint3@@@Z 0000000180037024     BerconCommon.obj
 0002:0000b038       $unwind$?get@BerconXYZ@@QEAAHAEAVShadeContext@@AEAVPoint3@@PEAV3@@Z 0000000180037038     BerconCommon.obj
 0002:0000b058       $unwind$?get@BerconXYZ@@AEAAHAEAVShadeContext@@AEAVPoint3@@11VMatrix3@@PEAH@Z 0000000180037058     BerconCommon.obj
 0002:0000b070       $chain$0$?get@BerconXYZ@@AEAAHAEAVShadeContext@@AEAVPoint3@@11VMatrix3@@PEAH@Z 0000000180037070     BerconCommon.obj
 0002:0000b084       $chain$1$?get@BerconXYZ@@AEAAHAEAVShadeContext@@AEAVPoint3@@11VMatrix3@@PEAH@Z 0000000180037084     BerconCommon.obj
 0002:0000b098       $chain$2$?get@BerconXYZ@@AEAAHAEAVShadeContext@@AEAVPoint3@@11VMatrix3@@PEAH@Z 0000000180037098     BerconCommon.obj
 0002:0000b0a8       $chain$3$?get@BerconXYZ@@AEAAHAEAVShadeContext@@AEAVPoint3@@11VMatrix3@@PEAH@Z 00000001800370a8     BerconCommon.obj
 0002:0000b0b8       $unwind$?get@BerconXYZ@@AEAAHAEAVShadeContext@@AEAVPoint3@@VMatrix3@@PEAH@Z 00000001800370b8     BerconCommon.obj
 0002:0000b0cc       $chain$1$?get@BerconXYZ@@AEAAHAEAVShadeContext@@AEAVPoint3@@VMatrix3@@PEAH@Z 00000001800370cc     BerconCommon.obj
 0002:0000b0e4       $chain$2$?get@BerconXYZ@@AEAAHAEAVShadeContext@@AEAVPoint3@@VMatrix3@@PEAH@Z 00000001800370e4     BerconCommon.obj
 0002:0000b0f4       $unwind$?seedRandomGen@BerconXYZ@@AEAAXAEAVShadeContext@@@Z 00000001800370f4     BerconCommon.obj
 0002:0000b104       $chain$0$?seedRandomGen@BerconXYZ@@AEAAXAEAVShadeContext@@@Z 0000000180037104     BerconCommon.obj
 0002:0000b118       $chain$1$?seedRandomGen@BerconXYZ@@AEAAXAEAVShadeContext@@@Z 0000000180037118     BerconCommon.obj
 0002:0000b12c       $chain$2$?seedRandomGen@BerconXYZ@@AEAAXAEAVShadeContext@@@Z 000000018003712c     BerconCommon.obj
 0002:0000b13c       $chain$3$?seedRandomGen@BerconXYZ@@AEAAXAEAVShadeContext@@@Z 000000018003713c     BerconCommon.obj
 0002:0000b14c       $unwind$?random@BerconXYZ@@AEAA?AVMatrix3@@AEAVShadeContext@@PEAV2@@Z 000000018003714c     BerconCommon.obj
 0002:0000b16c       $unwind$?EnableStuff@BerconXYZ@@AEAAXPEAVIParamBlock2@@H@Z 000000018003716c     BerconCommon.obj
 0002:0000b178       $chain$0$?EnableStuff@BerconXYZ@@AEAAXPEAVIParamBlock2@@H@Z 0000000180037178     BerconCommon.obj
 0002:0000b18c       $chain$2$?EnableStuff@BerconXYZ@@AEAAXPEAVIParamBlock2@@H@Z 000000018003718c     BerconCommon.obj
 0002:0000b1a4       $chain$3$?EnableStuff@BerconXYZ@@AEAAXPEAVIParamBlock2@@H@Z 00000001800371a4     BerconCommon.obj
 0002:0000b1b4       $chain$4$?EnableStuff@BerconXYZ@@AEAAXPEAVIParamBlock2@@H@Z 00000001800371b4     BerconCommon.obj
 0002:0000b1c4       $unwind$?getBasis@BerconXYZ@@AEAAXVMatrix3@@PEAVPoint3@@@Z 00000001800371c4     BerconCommon.obj
 0002:0000b1d4       $chain$0$?NotifyRefChanged@BerconNoise@@UEAA?AW4RefResult@@AEBVInterval@@PEAVReferenceTarget@@AEA_KIH@Z 00000001800371d4     BerconNoise.obj
 0002:0000b1e8       $chain$2$?NotifyRefChanged@BerconNoise@@UEAA?AW4RefResult@@AEBVInterval@@PEAVReferenceTarget@@AEA_KIH@Z 00000001800371e8     BerconNoise.obj
 0002:0000b1fc       $chain$3$?NotifyRefChanged@BerconNoise@@UEAA?AW4RefResult@@AEBVInterval@@PEAVReferenceTarget@@AEA_KIH@Z 00000001800371fc     BerconNoise.obj
 0002:0000b20c       $chain$0$?applyDistortion@BerconNoise@@QEAAXAEAVShadeContext@@AEAVPoint3@@@Z 000000018003720c     BerconNoise.obj
 0002:0000b220       $chain$2$?applyDistortion@BerconNoise@@QEAAXAEAVShadeContext@@AEAVPoint3@@@Z 0000000180037220     BerconNoise.obj
 0002:0000b238       $chain$3$?applyDistortion@BerconNoise@@QEAAXAEAVShadeContext@@AEAVPoint3@@@Z 0000000180037238     BerconNoise.obj
 0002:0000b248       $chain$4$?applyDistortion@BerconNoise@@QEAAXAEAVShadeContext@@AEAVPoint3@@@Z 0000000180037248     BerconNoise.obj
 0002:0000b258       $unwind$?EnableStuff@BerconNoise@@QEAAXXZ 0000000180037258     BerconNoise.obj
 0002:0000b260       $chain$0$?EnableStuff@BerconNoise@@QEAAXXZ 0000000180037260     BerconNoise.obj
 0002:0000b274       $chain$5$?EnableStuff@BerconNoise@@QEAAXXZ 0000000180037274     BerconNoise.obj
 0002:0000b298       $chain$6$?EnableStuff@BerconNoise@@QEAAXXZ 0000000180037298     BerconNoise.obj
 0002:0000b2b8       $chain$7$?EnableStuff@BerconNoise@@QEAAXXZ 00000001800372b8     BerconNoise.obj
 0002:0000b2c8       $chain$8$?EnableStuff@BerconNoise@@QEAAXXZ 00000001800372c8     BerconNoise.obj
 0002:0000b2d8       $unwind$?SwapInputs@BerconNoise@@QEAAXXZ 00000001800372d8     BerconNoise.obj
 0002:0000b2d8       $unwind$?InitGradientControls@@YAXXZ 00000001800372d8     IGradient.obj
 0002:0000b2d8       $unwind$?resetKeys@BerconGradient@@QEAAXXZ 00000001800372d8     BerconGradient.obj
 0002:0000b2e0       $chain$0$?GetActiveTexHandle@BerconNoise@@UEAA_KHAEAVTexHandleMaker@@@Z 00000001800372e0     BerconNoise.obj
 0002:0000b2f4       $chain$1$?GetActiveTexHandle@BerconNoise@@UEAA_KHAEAVTexHandleMaker@@@Z 00000001800372f4     BerconNoise.obj
 0002:0000b304       $unwind$?CreateParamDlg@BerconNoise@@UEAAPEAVParamDlg@@PEAUHWND__@@PEAVIMtlParams@@@Z 0000000180037304     BerconNoise.obj
 0002:0000b320       $ip2state$?CreateParamDlg@BerconNoise@@UEAAPEAVParamDlg@@PEAUHWND__@@PEAVIMtlParams@@@Z 0000000180037320     BerconNoise.obj
 0002:0000b358       $chain$0$?Update@BerconNoise@@UEAAXHAEAVInterval@@@Z 0000000180037358     BerconNoise.obj
 0002:0000b36c       $chain$4$?Update@BerconNoise@@UEAAXHAEAVInterval@@@Z 000000018003736c     BerconNoise.obj
 0002:0000b38c       $chain$5$?Update@BerconNoise@@UEAAXHAEAVInterval@@@Z 000000018003738c     BerconNoise.obj
 0002:0000b3a0       $chain$6$?Update@BerconNoise@@UEAAXHAEAVInterval@@@Z 00000001800373a0     BerconNoise.obj
 0002:0000b3b0       $chain$7$?Update@BerconNoise@@UEAAXHAEAVInterval@@@Z 00000001800373b0     BerconNoise.obj
 0002:0000b3c0       $unwind$?Reset@BerconNoise@@UEAAXXZ 00000001800373c0     BerconNoise.obj
 0002:0000b3d4       $chain$0$?Reset@BerconNoise@@UEAAXXZ 00000001800373d4     BerconNoise.obj
 0002:0000b3e8       $chain$1$?Reset@BerconNoise@@UEAAXXZ 00000001800373e8     BerconNoise.obj
 0002:0000b3f8       $unwind$?GetSubTexmapSlotName@BerconNoise@@UEAA?AVWStr@@H@Z 00000001800373f8     BerconNoise.obj
 0002:0000b408       $ip2state$?GetSubTexmapSlotName@BerconNoise@@UEAA?AVWStr@@H@Z 0000000180037408     BerconNoise.obj
 0002:0000b428       $unwind$?EvalColor@BerconNoise@@UEAA?AVAColor@@AEAVShadeContext@@@Z 0000000180037428     BerconNoise.obj
 0002:0000b440       $chain$5$?EvalColor@BerconNoise@@UEAA?AVAColor@@AEAVShadeContext@@@Z 0000000180037440     BerconNoise.obj
 0002:0000b468       $chain$6$?EvalColor@BerconNoise@@UEAA?AVAColor@@AEAVShadeContext@@@Z 0000000180037468     BerconNoise.obj
 0002:0000b478       $unwind$?EvalNormalPerturb@BerconNoise@@UEAA?AVPoint3@@AEAVShadeContext@@@Z 0000000180037478     BerconNoise.obj
 0002:0000b48c       $chain$2$?EvalNormalPerturb@BerconNoise@@UEAA?AVPoint3@@AEAVShadeContext@@@Z 000000018003748c     BerconNoise.obj
 0002:0000b4a8       $chain$3$?EvalNormalPerturb@BerconNoise@@UEAA?AVPoint3@@AEAVShadeContext@@@Z 00000001800374a8     BerconNoise.obj
 0002:0000b4bc       $chain$6$?EvalNormalPerturb@BerconNoise@@UEAA?AVPoint3@@AEAVShadeContext@@@Z 00000001800374bc     BerconNoise.obj
 0002:0000b4d8       $chain$7$?EvalNormalPerturb@BerconNoise@@UEAA?AVPoint3@@AEAVShadeContext@@@Z 00000001800374d8     BerconNoise.obj
 0002:0000b4e8       $chain$8$?EvalNormalPerturb@BerconNoise@@UEAA?AVPoint3@@AEAVShadeContext@@@Z 00000001800374e8     BerconNoise.obj
 0002:0000b4f8       $unwind$?Clone@BerconNoise@@UEAAPEAVReferenceTarget@@AEAVRemapDir@@@Z 00000001800374f8     BerconNoise.obj
 0002:0000b520       $ip2state$?Clone@BerconNoise@@UEAAPEAVReferenceTarget@@AEAVRemapDir@@@Z 0000000180037520     BerconNoise.obj
 0002:0000b538       $unwind$?SubAnimName@BerconNoise@@UEAA?AVWStr@@H@Z 0000000180037538     BerconNoise.obj
 0002:0000b548       $ip2state$?SubAnimName@BerconNoise@@UEAA?AVWStr@@H@Z 0000000180037548     BerconNoise.obj
 0002:0000b568       $unwind$??0BerconNoise@@QEAA@XZ 0000000180037568     BerconNoise.obj
 0002:0000b580       $stateUnwindMap$??0BerconWood@@QEAA@XZ 0000000180037580     BerconWood.obj
 0002:0000b580       $stateUnwindMap$??0BerconNoise@@QEAA@XZ 0000000180037580     BerconNoise.obj
 0002:0000b588       $ip2state$??0BerconNoise@@QEAA@XZ 0000000180037588     BerconNoise.obj
 0002:0000b5a0       $unwind$??1BerconNoise@@UEAA@XZ 00000001800375a0     BerconNoise.obj
 0002:0000b5b0       $stateUnwindMap$??1BerconWood@@UEAA@XZ 00000001800375b0     BerconWood.obj
 0002:0000b5b0       $stateUnwindMap$??1BerconGradient@@UEAA@XZ 00000001800375b0     BerconGradient.obj
 0002:0000b5b0       $stateUnwindMap$??_GBerconDistortion@@UEAAPEAXI@Z 00000001800375b0     BerconDistortion.obj
 0002:0000b5b0       $stateUnwindMap$??1BerconNoise@@UEAA@XZ 00000001800375b0     BerconNoise.obj
 0002:0000b5c0       $ip2state$??1BerconNoise@@UEAA@XZ 00000001800375c0     BerconNoise.obj
 0002:0000b5d8       $unwind$?Create@BerconNoiseClassDesc@@UEAAPEAXH@Z 00000001800375d8     BerconNoise.obj
 0002:0000b5e8       $ip2state$?Create@BerconNoiseClassDesc@@UEAAPEAXH@Z 00000001800375e8     BerconNoise.obj
 0002:0000b600       $unwind$??_GBerconNoiseClassDesc@@UEAAPEAXI@Z 0000000180037600     BerconNoise.obj
 0002:0000b618       $ip2state$??_GBerconNoiseClassDesc@@UEAAPEAXI@Z 0000000180037618     BerconNoise.obj
 0002:0000b620       $unwind$??__EBerconNoiseDesc@@YAXXZ 0000000180037620     BerconNoise.obj
 0002:0000b630       $stateUnwindMap$??__EBerconNoiseDesc@@YAXXZ 0000000180037630     BerconNoise.obj
 0002:0000b630       $stateUnwindMap$??__FBerconNoiseDesc@@YAXXZ 0000000180037630     BerconNoise.obj
 0002:0000b638       $ip2state$??__EBerconNoiseDesc@@YAXXZ 0000000180037638     BerconNoise.obj
 0002:0000b650       $unwind$??__FBerconNoiseDesc@@YAXXZ 0000000180037650     BerconNoise.obj
 0002:0000b660       $ip2state$??__FBerconNoiseDesc@@YAXXZ 0000000180037660     BerconNoise.obj
 0002:0000b668       $unwind$??__Fxyz_blk@@YAXXZ 0000000180037668     BerconNoise.obj
 0002:0000b678       $stateUnwindMap$??__Fxyz_blk@@YAXXZ 0000000180037678     BerconNoise.obj
 0002:0000b680       $ip2state$??__Fxyz_blk@@YAXXZ 0000000180037680     BerconNoise.obj
 0002:0000b688       $unwind$??__Eberconnoise_param_blk@@YAXXZ 0000000180037688     BerconNoise.obj
 0002:0000b690       $unwind$??__EBerconMap_param_blk@@YAXXZ 0000000180037690     BerconNoise.obj
 0002:0000b698       $unwind$?DlgProc@BerconTileDlgProc@@UEAA_JHPEAVIParamMap2@@PEAUHWND__@@I_K_J@Z 0000000180037698     BerconTile.obj
 0002:0000b698       $unwind$?DlgProc@BerconNoiseDlgProc@@UEAA_JHPEAVIParamMap2@@PEAUHWND__@@I_K_J@Z 0000000180037698     BerconNoise.obj
 0002:0000b6b4       $unwind$??_GBerconNoiseDlgProc@@UEAAPEAXI@Z 00000001800376b4     BerconNoise.obj
 0002:0000b6c8       $ip2state$??_GBerconNoiseDlgProc@@UEAAPEAXI@Z 00000001800376c8     BerconNoise.obj
 0002:0000b6d0       $unwind$?fractal@Fractal@@SAMVPoint3@@AEAVNoiseParams@@@Z 00000001800376d0     fractal.obj
 0002:0000b6f0       $chain$0$?fractal@Fractal@@SAMVPoint3@@AEAVNoiseParams@@@Z 00000001800376f0     fractal.obj
 0002:0000b704       $chain$1$?fractal@Fractal@@SAMVPoint3@@AEAVNoiseParams@@@Z 0000000180037704     fractal.obj
 0002:0000b718       $chain$2$?fractal@Fractal@@SAMVPoint3@@AEAVNoiseParams@@@Z 0000000180037718     fractal.obj
 0002:0000b728       $chain$3$?fractal@Fractal@@SAMVPoint3@@AEAVNoiseParams@@@Z 0000000180037728     fractal.obj
 0002:0000b738       $unwind$?turbulence@Fractal@@SAMVPoint3@@AEAVNoiseParams@@@Z 0000000180037738     fractal.obj
 0002:0000b758       $chain$1$?turbulence@Fractal@@SAMVPoint3@@AEAVNoiseParams@@@Z 0000000180037758     fractal.obj
 0002:0000b770       $chain$2$?turbulence@Fractal@@SAMVPoint3@@AEAVNoiseParams@@@Z 0000000180037770     fractal.obj
 0002:0000b784       $chain$3$?turbulence@Fractal@@SAMVPoint3@@AEAVNoiseParams@@@Z 0000000180037784     fractal.obj
 0002:0000b794       $chain$4$?turbulence@Fractal@@SAMVPoint3@@AEAVNoiseParams@@@Z 0000000180037794     fractal.obj
 0002:0000b7a4       $unwind$?fBm@Fractal@@SAMVPoint3@@AEAVNoiseParams@@@Z 00000001800377a4     fractal.obj
 0002:0000b7c4       $unwind$?fBmTurb@Fractal@@SAMVPoint3@@AEAVNoiseParams@@@Z 00000001800377c4     fractal.obj
 0002:0000b7e8       $unwind$?heteroTerrain@Fractal@@SAMVPoint3@@AEAVNoiseParams@@@Z 00000001800377e8     fractal.obj
 0002:0000b804       $unwind$?hybridMultiFractal@Fractal@@SAMVPoint3@@AEAVNoiseParams@@@Z 0000000180037804     fractal.obj
 0002:0000b830       $unwind$?ridgedMultiFractal@Fractal@@SAMVPoint3@@AEAVNoiseParams@@@Z 0000000180037830     fractal.obj
 0002:0000b854       $chain$1$?ridgedMultiFractal@Fractal@@SAMVPoint3@@AEAVNoiseParams@@@Z 0000000180037854     fractal.obj
 0002:0000b86c       $chain$2$?ridgedMultiFractal@Fractal@@SAMVPoint3@@AEAVNoiseParams@@@Z 000000018003786c     fractal.obj
 0002:0000b87c       $unwind$?fractal@Fractal@@SAMVPoint3@@MAEAVNoiseParams@@@Z 000000018003787c     fractal.obj
 0002:0000b8a0       $chain$0$?fractal@Fractal@@SAMVPoint3@@MAEAVNoiseParams@@@Z 00000001800378a0     fractal.obj
 0002:0000b8b4       $chain$1$?fractal@Fractal@@SAMVPoint3@@MAEAVNoiseParams@@@Z 00000001800378b4     fractal.obj
 0002:0000b8c8       $chain$2$?fractal@Fractal@@SAMVPoint3@@MAEAVNoiseParams@@@Z 00000001800378c8     fractal.obj
 0002:0000b8d8       $chain$3$?fractal@Fractal@@SAMVPoint3@@MAEAVNoiseParams@@@Z 00000001800378d8     fractal.obj
 0002:0000b8e8       $unwind$?turbulence@Fractal@@SAMVPoint3@@MAEAVNoiseParams@@@Z 00000001800378e8     fractal.obj
 0002:0000b90c       $chain$1$?turbulence@Fractal@@SAMVPoint3@@MAEAVNoiseParams@@@Z 000000018003790c     fractal.obj
 0002:0000b924       $chain$2$?turbulence@Fractal@@SAMVPoint3@@MAEAVNoiseParams@@@Z 0000000180037924     fractal.obj
 0002:0000b938       $chain$3$?turbulence@Fractal@@SAMVPoint3@@MAEAVNoiseParams@@@Z 0000000180037938     fractal.obj
 0002:0000b948       $chain$4$?turbulence@Fractal@@SAMVPoint3@@MAEAVNoiseParams@@@Z 0000000180037948     fractal.obj
 0002:0000b958       $unwind$?fBm@Fractal@@SAMVPoint3@@MAEAVNoiseParams@@@Z 0000000180037958     fractal.obj
 0002:0000b97c       $unwind$?fBmTurb@Fractal@@SAMVPoint3@@MAEAVNoiseParams@@@Z 000000018003797c     fractal.obj
 0002:0000b9a8       $unwind$?hybridMultiFractal@Fractal@@SAMVPoint3@@MAEAVNoiseParams@@@Z 00000001800379a8     fractal.obj
 0002:0000b9d8       $unwind$?ridgedMultiFractal@Fractal@@SAMVPoint3@@MAEAVNoiseParams@@@Z 00000001800379d8     fractal.obj
 0002:0000ba00       $chain$1$?ridgedMultiFractal@Fractal@@SAMVPoint3@@MAEAVNoiseParams@@@Z 0000000180037a00     fractal.obj
 0002:0000ba18       $chain$2$?ridgedMultiFractal@Fractal@@SAMVPoint3@@MAEAVNoiseParams@@@Z 0000000180037a18     fractal.obj
 0002:0000ba28       $unwind$?fBm@Fractal@@SAMVPoint3@@MMM@Z 0000000180037a28     fractal.obj
 0002:0000ba3c       $chain$2$?fBm@Fractal@@SAMVPoint3@@MMM@Z 0000000180037a3c     fractal.obj
 0002:0000ba58       $chain$3$?fBm@Fractal@@SAMVPoint3@@MMM@Z 0000000180037a58     fractal.obj
 0002:0000ba6c       $chain$4$?fBm@Fractal@@SAMVPoint3@@MMM@Z 0000000180037a6c     fractal.obj
 0002:0000ba7c       $chain$5$?fBm@Fractal@@SAMVPoint3@@MMM@Z 0000000180037a7c     fractal.obj
 0002:0000ba8c       $unwind$?grain@Fractal@@SAMVPoint3@@MM@Z 0000000180037a8c     fractal.obj
 0002:0000ba98       $unwind$?paint@GradientRamp@@QEAAXPEAUHDC__@@@Z 0000000180037a98     GradientRamp.obj
 0002:0000baa4       $chain$5$?paint@GradientRamp@@QEAAXPEAUHDC__@@@Z 0000000180037aa4     GradientRamp.obj
 0002:0000bacc       $chain$7$?paint@GradientRamp@@QEAAXPEAUHDC__@@@Z 0000000180037acc     GradientRamp.obj
 0002:0000bae4       $chain$8$?paint@GradientRamp@@QEAAXPEAUHDC__@@@Z 0000000180037ae4     GradientRamp.obj
 0002:0000baf4       $chain$9$?paint@GradientRamp@@QEAAXPEAUHDC__@@@Z 0000000180037af4     GradientRamp.obj
 0002:0000bb08       $chain$10$?paint@GradientRamp@@QEAAXPEAUHDC__@@@Z 0000000180037b08     GradientRamp.obj
 0002:0000bb18       $chain$11$?paint@GradientRamp@@QEAAXPEAUHDC__@@@Z 0000000180037b18     GradientRamp.obj
 0002:0000bb28       $unwind$?addKey@GradientRamp@@QEAAXHMVAColor@@PEAVTexmap@@@Z 0000000180037b28     GradientRamp.obj
 0002:0000bb50       $stateUnwindMap$?addKey@GradientRamp@@QEAAXHMVAColor@@PEAVTexmap@@@Z 0000000180037b50     GradientRamp.obj
 0002:0000bb58       $ip2state$?addKey@GradientRamp@@QEAAXHMVAColor@@PEAVTexmap@@@Z 0000000180037b58     GradientRamp.obj
 0002:0000bb60       $unwind$?reset@GradientRamp@@QEAAXXZ 0000000180037b60     GradientRamp.obj
 0002:0000bb6c       $unwind$?sort@GradientRamp@@QEAAXXZ 0000000180037b6c     GradientRamp.obj
 0002:0000bb78       $chain$1$?sort@GradientRamp@@QEAAXXZ 0000000180037b78     GradientRamp.obj
 0002:0000bb90       $chain$2$?sort@GradientRamp@@QEAAXXZ 0000000180037b90     GradientRamp.obj
 0002:0000bba0       $unwind$?setSubtex@GradientRamp@@QEAAXHPEAVTexmap@@@Z 0000000180037ba0     GradientRamp.obj
 0002:0000bba0       $unwind$?seekpos@?$basic_stringbuf@_WU?$char_traits@_W@std@@V?$allocator@_W@2@@std@@MEAA?AV?$fpos@U_Mbstatet@@@2@V32@H@Z 0000000180037ba0     tile.obj
 0002:0000bba8       $unwind$?getColor@GradientRamp@@QEAA?AVAColor@@M@Z 0000000180037ba8     GradientRamp.obj
 0002:0000bbb4       $chain$0$?getColor@GradientRamp@@QEAA?AVAColor@@M@Z 0000000180037bb4     GradientRamp.obj
 0002:0000bbc8       $chain$2$?getColor@GradientRamp@@QEAA?AVAColor@@M@Z 0000000180037bc8     GradientRamp.obj
 0002:0000bbdc       $chain$7$?getColor@GradientRamp@@QEAA?AVAColor@@M@Z 0000000180037bdc     GradientRamp.obj
 0002:0000bbfc       $unwind$?getColor@GradientRamp@@QEAA?AVAColor@@MAEAVShadeContext@@@Z 0000000180037bfc     GradientRamp.obj
 0002:0000bc10       $chain$0$?getColor@GradientRamp@@QEAA?AVAColor@@MAEAVShadeContext@@@Z 0000000180037c10     GradientRamp.obj
 0002:0000bc24       $chain$4$?getColor@GradientRamp@@QEAA?AVAColor@@MAEAVShadeContext@@@Z 0000000180037c24     GradientRamp.obj
 0002:0000bc44       $chain$5$?getColor@GradientRamp@@QEAA?AVAColor@@MAEAVShadeContext@@@Z 0000000180037c44     GradientRamp.obj
 0002:0000bc54       $chain$6$?getColor@GradientRamp@@QEAA?AVAColor@@MAEAVShadeContext@@@Z 0000000180037c54     GradientRamp.obj
 0002:0000bc64       $unwind$?getBump@GradientRamp@@QEAA?AVPoint3@@MV2@AEAVShadeContext@@@Z 0000000180037c64     GradientRamp.obj
 0002:0000bc7c       $chain$0$?getBump@GradientRamp@@QEAA?AVPoint3@@MV2@AEAVShadeContext@@@Z 0000000180037c7c     GradientRamp.obj
 0002:0000bc90       $chain$1$?getBump@GradientRamp@@QEAA?AVPoint3@@MV2@AEAVShadeContext@@@Z 0000000180037c90     GradientRamp.obj
 0002:0000bca4       $chain$2$?getBump@GradientRamp@@QEAA?AVPoint3@@MV2@AEAVShadeContext@@@Z 0000000180037ca4     GradientRamp.obj
 0002:0000bcb8       $chain$3$?getBump@GradientRamp@@QEAA?AVPoint3@@MV2@AEAVShadeContext@@@Z 0000000180037cb8     GradientRamp.obj
 0002:0000bcc8       $chain$4$?getBump@GradientRamp@@QEAA?AVPoint3@@MV2@AEAVShadeContext@@@Z 0000000180037cc8     GradientRamp.obj
 0002:0000bcd8       $chain$5$?getBump@GradientRamp@@QEAA?AVPoint3@@MV2@AEAVShadeContext@@@Z 0000000180037cd8     GradientRamp.obj
 0002:0000bce8       $unwind$IsolationAwareRegisterClassExW 0000000180037ce8     IGradient.obj
 0002:0000bd10       $unwind$?GradientProc@IGradient@@SA_JPEAUHWND__@@I_K_J@Z 0000000180037d10     IGradient.obj
 0002:0000bd2c       $unwind$?worleyWrapper@Noise@@SAMVPoint3@@AEAVNoiseParams@@@Z 0000000180037d2c     noise.obj
 0002:0000bd38       $unwind$?wood@Noise@@SAMVPoint3@@AEAV2@AEAVWoodParam@@@Z 0000000180037d38     noise.obj
 0002:0000bd5c       $unwind$?wood@Noise@@SAMVPoint3@@00AEAV2@VWoodParam@@@Z 0000000180037d5c     noise.obj
 0002:0000bd88       $chain$3$?wood@Noise@@SAMVPoint3@@00AEAV2@VWoodParam@@@Z 0000000180037d88     noise.obj
 0002:0000bda8       $chain$4$?wood@Noise@@SAMVPoint3@@00AEAV2@VWoodParam@@@Z 0000000180037da8     noise.obj
 0002:0000bdb8       $unwind$?getNormal@BerconTile@@QEAA?AVPoint3@@AEAVShadeContext@@H@Z 0000000180037db8     BerconTile.obj
 0002:0000bdb8       $unwind$?PObj@BerconSC@@UEAA?AVPoint3@@XZ 0000000180037db8     BerconDistortion.obj
 0002:0000bdb8       $unwind$?setHWND@GradientRamp@@QEAAXPEAUHWND__@@@Z 0000000180037db8     GradientRamp.obj
 0002:0000bdb8       $unwind$?EvalEnvironMap@BerconSC@@UEAA?AVAColor@@PEAVTexmap@@VPoint3@@@Z 0000000180037db8     BerconDistortion.obj
 0002:0000bdb8       $unwind$?EvalGlobalEnvironMap@BerconSC@@UEAA?AVAColor@@VPoint3@@@Z 0000000180037db8     BerconDistortion.obj
 0002:0000bdb8       $unwind$?draw@Tile@@SA?AVTilePoint@@VPoint3@@AEAVTileParam@@@Z 0000000180037db8     tile.obj
 0002:0000bdb8       $unwind$?limitedNoise@Noise@@SAMVPoint3@@AEAVNoiseParams@@@Z 0000000180037db8     noise.obj
 0002:0000bdb8       $unwind$?getColor@BerconTile@@QEAA?AVAColor@@AEAVShadeContext@@H@Z 0000000180037db8     BerconTile.obj
 0002:0000bdb8       $unwind$?P@BerconSC@@UEAA?AVPoint3@@XZ 0000000180037db8     BerconDistortion.obj
 0002:0000bdc0       $unwind$?limitedNoise@Noise@@SAMVPoint3@@00AEAVNoiseParams@@@Z 0000000180037dc0     noise.obj
 0002:0000bdd4       $unwind$?f@Fractal@@SAMVPoint3@@AEAVNoiseParams@@@Z 0000000180037dd4     noise.obj
 0002:0000bdd4       $unwind$?f@Fractal@@SAMVPoint3@@MAEAVNoiseParams@@@Z 0000000180037dd4     noise.obj
 0002:0000bddc       $unwind$?noise@Perlin@@SAMMM@Z 0000000180037ddc     perlin.obj
 0002:0000be00       $unwind$?noise@Perlin@@SAMMMM@Z 0000000180037e00     perlin.obj
 0002:0000be38       $unwind$?noise@Perlin@@SAMMMMM@Z 0000000180037e38     perlin.obj
 0002:0000be74       $unwind$?snoise@Perlin@@SAMM@Z 0000000180037e74     perlin.obj
 0002:0000be80       $unwind$?snoise@Perlin@@SAMMM@Z 0000000180037e80     perlin.obj
 0002:0000be98       $unwind$?snoise@Perlin@@SAMMMM@Z 0000000180037e98     perlin.obj
 0002:0000bec4       $unwind$?snoise@Perlin@@SAMMMMM@Z 0000000180037ec4     perlin.obj
 0002:0000bef0       $unwind$?fnoise3D@Perlin@@SAMMMMM@Z 0000000180037ef0     perlin.obj
 0002:0000bef0       $unwind$?fsnoise3D@Perlin@@SAMMMMM@Z 0000000180037ef0     perlin.obj
 0002:0000bf08       $unwind$?fsnoise2D@Perlin@@SAMMMM@Z 0000000180037f08     perlin.obj
 0002:0000bf08       $unwind$?fnoise2D@Perlin@@SAMMMM@Z 0000000180037f08     perlin.obj
 0002:0000bf1c       $unwind$?fnoise4D@Perlin@@SAMMMMMM@Z 0000000180037f1c     perlin.obj
 0002:0000bf1c       $unwind$?fsnoise4D@Perlin@@SAMMMMMM@Z 0000000180037f1c     perlin.obj
 0002:0000bf38       $unwind$?point@Perlin@@CAMMMMHHH@Z 0000000180037f38     perlin.obj
 0002:0000bf44       $unwind$?point@Perlin@@CAMMMMMHHHH@Z 0000000180037f44     perlin.obj
 0002:0000bf50       $unwind$?find_first_of@?$basic_string@_WU?$char_traits@_W@std@@V?$allocator@_W@2@@std@@QEBA_KAEBV12@_K@Z 0000000180037f50     tile.obj
 0002:0000bf5c       $unwind$?find_first_not_of@?$basic_string@_WU?$char_traits@_W@std@@V?$allocator@_W@2@@std@@QEBA_KAEBV12@_K@Z 0000000180037f5c     tile.obj
 0002:0000bf68       $unwind$?substr@?$basic_string@_WU?$char_traits@_W@std@@V?$allocator@_W@2@@std@@QEBA?AV12@_K0@Z 0000000180037f68     tile.obj
 0002:0000bf78       $stateUnwindMap$?substr@?$basic_string@_WU?$char_traits@_W@std@@V?$allocator@_W@2@@std@@QEBA?AV12@_K0@Z 0000000180037f78     tile.obj
 0002:0000bf80       $ip2state$?substr@?$basic_string@_WU?$char_traits@_W@std@@V?$allocator@_W@2@@std@@QEBA?AV12@_K0@Z 0000000180037f80     tile.obj
 0002:0000bf90       $unwind$??0?$vector@MV?$allocator@M@std@@@std@@QEAA@AEBV01@@Z 0000000180037f90     tile.obj
 0002:0000bfac       $tryMap$??0?$vector@MV?$allocator@M@std@@@std@@QEAA@AEBV01@@Z 0000000180037fac     tile.obj
 0002:0000bfc0       $handlerMap$0$??0?$vector@MV?$allocator@M@std@@@std@@QEAA@AEBV01@@Z 0000000180037fc0     tile.obj
 0002:0000bfd8       $ip2state$??0?$vector@MV?$allocator@M@std@@@std@@QEAA@AEBV01@@Z 0000000180037fd8     tile.obj
 0002:0000c000       $unwind$?catch$0@?0???0?$vector@MV?$allocator@M@std@@@std@@QEAA@AEBV01@@Z@4HA 0000000180038000     tile.obj
 0002:0000c014       $unwind$?_Reallocate@?$vector@MV?$allocator@M@std@@@std@@IEAAX_K@Z 0000000180038014     tile.obj
 0002:0000c02c       $tryMap$?_Reallocate@?$vector@MV?$allocator@M@std@@@std@@IEAAX_K@Z 000000018003802c     tile.obj
 0002:0000c040       $handlerMap$0$?_Reallocate@?$vector@MV?$allocator@M@std@@@std@@IEAAX_K@Z 0000000180038040     tile.obj
 0002:0000c058       $ip2state$?_Reallocate@?$vector@MV?$allocator@M@std@@@std@@IEAAX_K@Z 0000000180038058     tile.obj
 0002:0000c080       $unwind$?catch$0@?0??_Reallocate@?$vector@MV?$allocator@M@std@@@std@@IEAAX_K@Z@4HA 0000000180038080     tile.obj
 0002:0000c090       $unwind$??1TileRow@@QEAA@XZ 0000000180038090     tile.obj
 0002:0000c0a0       $stateUnwindMap$??$_Destroy_range1@V?$allocator@VTileRow@@@std@@PEAVTileRow@@@std@@YAXPEAVTileRow@@0AEAU?$_Wrap_alloc@V?$allocator@VTileRow@@@std@@@0@U?$integral_constant@_N$0A@@0@@Z 00000001800380a0     BerconTile.obj
 0002:0000c0a0       $stateUnwindMap$??1TileRow@@QEAA@XZ 00000001800380a0     tile.obj
 0002:0000c0a8       $ip2state$??1TileRow@@QEAA@XZ 00000001800380a8     tile.obj
 0002:0000c0b0       $unwind$?_Reallocate@?$vector@VTileRow@@V?$allocator@VTileRow@@@std@@@std@@IEAAX_K@Z 00000001800380b0     tile.obj
 0002:0000c0c8       $stateUnwindMap$??0?$vector@MV?$allocator@M@std@@@std@@QEAA@AEBV01@@Z 00000001800380c8     tile.obj
 0002:0000c0c8       $stateUnwindMap$?_Reallocate@?$vector@V?$basic_string@_WU?$char_traits@_W@std@@V?$allocator@_W@2@@std@@V?$allocator@V?$basic_string@_WU?$char_traits@_W@std@@V?$allocator@_W@2@@std@@@2@@std@@IEAAX_K@Z 00000001800380c8     tile.obj
 0002:0000c0c8       $stateUnwindMap$?_Reallocate@?$vector@VTileRow@@V?$allocator@VTileRow@@@std@@@std@@IEAAX_K@Z 00000001800380c8     tile.obj
 0002:0000c0c8       $stateUnwindMap$?_Reallocate@?$vector@MV?$allocator@M@std@@@std@@IEAAX_K@Z 00000001800380c8     tile.obj
 0002:0000c0c8       $stateUnwindMap$??$_Uninitialized_move_al_unchecked1@PEAV?$basic_string@_WU?$char_traits@_W@std@@V?$allocator@_W@2@@std@@PEAV12@V?$allocator@V?$basic_string@_WU?$char_traits@_W@std@@V?$allocator@_W@2@@std@@@2@@std@@YAPEAV?$basic_string@_WU?$char_traits@_W@std@@V?$allocator@_W@2@@0@PEAV10@00AEAU?$_Wrap_alloc@V?$allocator@V?$basic_string@_WU?$char_traits@_W@std@@V?$allocator@_W@2@@std@@@std@@@0@U_General_ptr_iterator_tag@0@U_Any_tag@0@@Z 00000001800380c8     tile.obj
 0002:0000c0d8       $tryMap$?_Reallocate@?$vector@VTileRow@@V?$allocator@VTileRow@@@std@@@std@@IEAAX_K@Z 00000001800380d8     tile.obj
 0002:0000c0ec       $handlerMap$0$?_Reallocate@?$vector@VTileRow@@V?$allocator@VTileRow@@@std@@@std@@IEAAX_K@Z 00000001800380ec     tile.obj
 0002:0000c100       $ip2state$?_Reallocate@?$vector@VTileRow@@V?$allocator@VTileRow@@@std@@@std@@IEAAX_K@Z 0000000180038100     tile.obj
 0002:0000c128       $unwind$?catch$0@?0??_Reallocate@?$vector@VTileRow@@V?$allocator@VTileRow@@@std@@@std@@IEAAX_K@Z@4HA 0000000180038128     tile.obj
 0002:0000c138       $unwind$?setPattern@TilePattern@@QEAAXV?$basic_string@_WU?$char_traits@_W@std@@V?$allocator@_W@2@@std@@@Z 0000000180038138     tile.obj
 0002:0000c150       $stateUnwindMap$?setPattern@TilePattern@@QEAAXV?$basic_string@_WU?$char_traits@_W@std@@V?$allocator@_W@2@@std@@@Z 0000000180038150     tile.obj
 0002:0000c160       $ip2state$?setPattern@TilePattern@@QEAAXV?$basic_string@_WU?$char_traits@_W@std@@V?$allocator@_W@2@@std@@@Z 0000000180038160     tile.obj
 0002:0000c178       $unwind$?setPreset@TilePattern@@QEAAXH@Z 0000000180038178     tile.obj
 0002:0000c18c       $stateUnwindMap$?setPreset@TilePattern@@QEAAXH@Z 000000018003818c     tile.obj
 0002:0000c1e0       $ip2state$?setPreset@TilePattern@@QEAAXH@Z 00000001800381e0     tile.obj
 0002:0000c290       $unwind$?corner@Tile@@CA?AVTilePoint@@MMMMAEAVTileParam@@@Z 0000000180038290     tile.obj
 0002:0000c2b8       $unwind$?uvMapping@Tile@@CAXAEAVTilePoint@@VPoint3@@QEAMAEAVTileParam@@H@Z 00000001800382b8     tile.obj
 0002:0000c2f0       $unwind$?drawTile@Tile@@CA?AVTilePoint@@VPoint3@@QEAMAEAVTileParam@@HH@Z 00000001800382f0     tile.obj
 0002:0000c320       $chain$1$?drawTile@Tile@@CA?AVTilePoint@@VPoint3@@QEAMAEAVTileParam@@HH@Z 0000000180038320     tile.obj
 0002:0000c338       $chain$2$?drawTile@Tile@@CA?AVTilePoint@@VPoint3@@QEAMAEAVTileParam@@HH@Z 0000000180038338     tile.obj
 0002:0000c348       $unwind$?pat_xBond@Tile@@CA?AVTilePoint@@VPoint3@@AEAVTileParam@@@Z 0000000180038348     tile.obj
 0002:0000c35c       $chain$0$?pat_xBond@Tile@@CA?AVTilePoint@@VPoint3@@AEAVTileParam@@@Z 000000018003835c     tile.obj
 0002:0000c370       $chain$1$?pat_xBond@Tile@@CA?AVTilePoint@@VPoint3@@AEAVTileParam@@@Z 0000000180038370     tile.obj
 0002:0000c380       $unwind$?pat_herring@Tile@@CA?AVTilePoint@@VPoint3@@AEAVTileParam@@@Z 0000000180038380     tile.obj
 0002:0000c398       $unwind$?getAngle@@YAMHM@Z 0000000180038398     tile.obj
 0002:0000c3a4       $unwind$?rowcol@@YAHAEAM0AEAHMMAEAV?$vector@MV?$allocator@M@std@@@std@@MMM@Z 00000001800383a4     tile.obj
 0002:0000c3d4       $chain$5$?rowcol@@YAHAEAM0AEAHMMAEAV?$vector@MV?$allocator@M@std@@@std@@MMM@Z 00000001800383d4     tile.obj
 0002:0000c3fc       $chain$6$?rowcol@@YAHAEAM0AEAHMMAEAV?$vector@MV?$allocator@M@std@@@std@@MMM@Z 00000001800383fc     tile.obj
 0002:0000c40c       $unwind$?tokenize@@YAXAEBV?$basic_string@_WU?$char_traits@_W@std@@V?$allocator@_W@2@@std@@AEAV?$vector@V?$basic_string@_WU?$char_traits@_W@std@@V?$allocator@_W@2@@std@@V?$allocator@V?$basic_string@_WU?$char_traits@_W@std@@V?$allocator@_W@2@@std@@@2@@2@0@Z 000000018003840c     tile.obj
 0002:0000c430       $stateUnwindMap$?tokenize@@YAXAEBV?$basic_string@_WU?$char_traits@_W@std@@V?$allocator@_W@2@@std@@AEAV?$vector@V?$basic_string@_WU?$char_traits@_W@std@@V?$allocator@_W@2@@std@@V?$allocator@V?$basic_string@_WU?$char_traits@_W@std@@V?$allocator@_W@2@@std@@@2@@2@0@Z 0000000180038430     tile.obj
 0002:0000c438       $ip2state$?tokenize@@YAXAEBV?$basic_string@_WU?$char_traits@_W@std@@V?$allocator@_W@2@@std@@AEAV?$vector@V?$basic_string@_WU?$char_traits@_W@std@@V?$allocator@_W@2@@std@@V?$allocator@V?$basic_string@_WU?$char_traits@_W@std@@V?$allocator@_W@2@@std@@@2@@2@0@Z 0000000180038438     tile.obj
 0002:0000c460       $unwind$??1?$vector@V?$basic_string@_WU?$char_traits@_W@std@@V?$allocator@_W@2@@std@@V?$allocator@V?$basic_string@_WU?$char_traits@_W@std@@V?$allocator@_W@2@@std@@@2@@std@@QEAA@XZ 0000000180038460     tile.obj
 0002:0000c470       $ip2state$??1?$vector@V?$basic_string@_WU?$char_traits@_W@std@@V?$allocator@_W@2@@std@@V?$allocator@V?$basic_string@_WU?$char_traits@_W@std@@V?$allocator@_W@2@@std@@@2@@std@@QEAA@XZ 0000000180038470     tile.obj
 0002:0000c478       $unwind$?_Reallocate@?$vector@V?$basic_string@_WU?$char_traits@_W@std@@V?$allocator@_W@2@@std@@V?$allocator@V?$basic_string@_WU?$char_traits@_W@std@@V?$allocator@_W@2@@std@@@2@@std@@IEAAX_K@Z 0000000180038478     tile.obj
 0002:0000c490       $tryMap$?_Reallocate@?$vector@V?$basic_string@_WU?$char_traits@_W@std@@V?$allocator@_W@2@@std@@V?$allocator@V?$basic_string@_WU?$char_traits@_W@std@@V?$allocator@_W@2@@std@@@2@@std@@IEAAX_K@Z 0000000180038490     tile.obj
 0002:0000c4a4       $handlerMap$0$?_Reallocate@?$vector@V?$basic_string@_WU?$char_traits@_W@std@@V?$allocator@_W@2@@std@@V?$allocator@V?$basic_string@_WU?$char_traits@_W@std@@V?$allocator@_W@2@@std@@@2@@std@@IEAAX_K@Z 00000001800384a4     tile.obj
 0002:0000c4b8       $ip2state$?_Reallocate@?$vector@V?$basic_string@_WU?$char_traits@_W@std@@V?$allocator@_W@2@@std@@V?$allocator@V?$basic_string@_WU?$char_traits@_W@std@@V?$allocator@_W@2@@std@@@2@@std@@IEAAX_K@Z 00000001800384b8     tile.obj
 0002:0000c4e0       $unwind$?catch$0@?0??_Reallocate@?$vector@V?$basic_string@_WU?$char_traits@_W@std@@V?$allocator@_W@2@@std@@V?$allocator@V?$basic_string@_WU?$char_traits@_W@std@@V?$allocator@_W@2@@std@@@2@@std@@IEAAX_K@Z@4HA 00000001800384e0     tile.obj
 0002:0000c4f0       $unwind$?parsePattern@@YAHV?$basic_string@_WU?$char_traits@_W@std@@V?$allocator@_W@2@@std@@PEAVTilePattern@@@Z 00000001800384f0     tile.obj
 0002:0000c514       $stateUnwindMap$?parsePattern@@YAHV?$basic_string@_WU?$char_traits@_W@std@@V?$allocator@_W@2@@std@@PEAVTilePattern@@@Z 0000000180038514     tile.obj
 0002:0000c620       $ip2state$?parsePattern@@YAHV?$basic_string@_WU?$char_traits@_W@std@@V?$allocator@_W@2@@std@@PEAVTilePattern@@@Z 0000000180038620     tile.obj
 0002:0000c780       $unwind$??1?$basic_stringstream@_WU?$char_traits@_W@std@@V?$allocator@_W@2@@std@@UEAA@XZ 0000000180038780     tile.obj
 0002:0000c794       $stateUnwindMap$??1?$basic_stringstream@_WU?$char_traits@_W@std@@V?$allocator@_W@2@@std@@UEAA@XZ 0000000180038794     tile.obj
 0002:0000c7b0       $ip2state$??1?$basic_stringstream@_WU?$char_traits@_W@std@@V?$allocator@_W@2@@std@@UEAA@XZ 00000001800387b0     tile.obj
 0002:0000c7d8       $unwind$??1?$basic_stringbuf@_WU?$char_traits@_W@std@@V?$allocator@_W@2@@std@@UEAA@XZ 00000001800387d8     tile.obj
 0002:0000c7e8       $stateUnwindMap$??_G?$basic_stringbuf@_WU?$char_traits@_W@std@@V?$allocator@_W@2@@std@@UEAAPEAXI@Z 00000001800387e8     tile.obj
 0002:0000c7e8       $stateUnwindMap$??1?$basic_stringbuf@_WU?$char_traits@_W@std@@V?$allocator@_W@2@@std@@UEAA@XZ 00000001800387e8     tile.obj
 0002:0000c7f0       $ip2state$??1?$basic_stringbuf@_WU?$char_traits@_W@std@@V?$allocator@_W@2@@std@@UEAA@XZ 00000001800387f0     tile.obj
 0002:0000c808       $unwind$?overflow@?$basic_stringbuf@_WU?$char_traits@_W@std@@V?$allocator@_W@2@@std@@MEAAGG@Z 0000000180038808     tile.obj
 0002:0000c814       $chain$0$?overflow@?$basic_stringbuf@_WU?$char_traits@_W@std@@V?$allocator@_W@2@@std@@MEAAGG@Z 0000000180038814     tile.obj
 0002:0000c828       $chain$2$?overflow@?$basic_stringbuf@_WU?$char_traits@_W@std@@V?$allocator@_W@2@@std@@MEAAGG@Z 0000000180038828     tile.obj
 0002:0000c83c       $chain$5$?overflow@?$basic_stringbuf@_WU?$char_traits@_W@std@@V?$allocator@_W@2@@std@@MEAAGG@Z 000000018003883c     tile.obj
 0002:0000c854       $chain$11$?overflow@?$basic_stringbuf@_WU?$char_traits@_W@std@@V?$allocator@_W@2@@std@@MEAAGG@Z 0000000180038854     tile.obj
 0002:0000c87c       $chain$12$?overflow@?$basic_stringbuf@_WU?$char_traits@_W@std@@V?$allocator@_W@2@@std@@MEAAGG@Z 000000018003887c     tile.obj
 0002:0000c89c       $unwind$?seekoff@?$basic_stringbuf@_WU?$char_traits@_W@std@@V?$allocator@_W@2@@std@@MEAA?AV?$fpos@U_Mbstatet@@@2@_JHH@Z 000000018003889c     tile.obj
 0002:0000c8ac       $unwind$?_Init@?$basic_stringbuf@_WU?$char_traits@_W@std@@V?$allocator@_W@2@@std@@IEAAXPEB_W_KH@Z 00000001800388ac     tile.obj
 0002:0000c8bc       $chain$1$?_Init@?$basic_stringbuf@_WU?$char_traits@_W@std@@V?$allocator@_W@2@@std@@IEAAXPEB_W_KH@Z 00000001800388bc     tile.obj
 0002:0000c8d4       $chain$2$?_Init@?$basic_stringbuf@_WU?$char_traits@_W@std@@V?$allocator@_W@2@@std@@IEAAXPEB_W_KH@Z 00000001800388d4     tile.obj
 0002:0000c8e4       $unwind$??_G?$basic_stringbuf@_WU?$char_traits@_W@std@@V?$allocator@_W@2@@std@@UEAAPEAXI@Z 00000001800388e4     tile.obj
 0002:0000c8f8       $ip2state$??_G?$basic_stringbuf@_WU?$char_traits@_W@std@@V?$allocator@_W@2@@std@@UEAAPEAXI@Z 00000001800388f8     tile.obj
 0002:0000c910       $unwind$??_G?$basic_stringstream@_WU?$char_traits@_W@std@@V?$allocator@_W@2@@std@@UEAAPEAXI@Z 0000000180038910     tile.obj
 0002:0000c928       $ip2state$??_G?$basic_stringstream@_WU?$char_traits@_W@std@@V?$allocator@_W@2@@std@@UEAAPEAXI@Z 0000000180038928     tile.obj
 0002:0000c930       $unwind$??_D?$basic_stringstream@_WU?$char_traits@_W@std@@V?$allocator@_W@2@@std@@QEAAXXZ 0000000180038930     tile.obj
 0002:0000c940       $stateUnwindMap$??_G?$basic_stringstream@_WU?$char_traits@_W@std@@V?$allocator@_W@2@@std@@UEAAPEAXI@Z 0000000180038940     tile.obj
 0002:0000c940       $stateUnwindMap$??_D?$basic_stringstream@_WU?$char_traits@_W@std@@V?$allocator@_W@2@@std@@QEAAXXZ 0000000180038940     tile.obj
 0002:0000c948       $ip2state$??_D?$basic_stringstream@_WU?$char_traits@_W@std@@V?$allocator@_W@2@@std@@QEAAXXZ 0000000180038948     tile.obj
 0002:0000c950       $unwind$??$_Destroy_range1@V?$allocator@V?$basic_string@_WU?$char_traits@_W@std@@V?$allocator@_W@2@@std@@@std@@PEAV?$basic_string@_WU?$char_traits@_W@std@@V?$allocator@_W@2@@2@@std@@YAXPEAV?$basic_string@_WU?$char_traits@_W@std@@V?$allocator@_W@2@@0@0AEAU?$_Wrap_alloc@V?$allocator@V?$basic_string@_WU?$char_traits@_W@std@@V?$allocator@_W@2@@std@@@std@@@0@U?$integral_constant@_N$0A@@0@@Z 0000000180038950     tile.obj
 0002:0000c958       $chain$2$??$_Destroy_range1@V?$allocator@V?$basic_string@_WU?$char_traits@_W@std@@V?$allocator@_W@2@@std@@@std@@PEAV?$basic_string@_WU?$char_traits@_W@std@@V?$allocator@_W@2@@2@@std@@YAXPEAV?$basic_string@_WU?$char_traits@_W@std@@V?$allocator@_W@2@@0@0AEAU?$_Wrap_alloc@V?$allocator@V?$basic_string@_WU?$char_traits@_W@std@@V?$allocator@_W@2@@std@@@std@@@0@U?$integral_constant@_N$0A@@0@@Z 0000000180038958     tile.obj
 0002:0000c974       $chain$3$??$_Destroy_range1@V?$allocator@V?$basic_string@_WU?$char_traits@_W@std@@V?$allocator@_W@2@@std@@@std@@PEAV?$basic_string@_WU?$char_traits@_W@std@@V?$allocator@_W@2@@2@@std@@YAXPEAV?$basic_string@_WU?$char_traits@_W@std@@V?$allocator@_W@2@@0@0AEAU?$_Wrap_alloc@V?$allocator@V?$basic_string@_WU?$char_traits@_W@std@@V?$allocator@_W@2@@std@@@std@@@0@U?$integral_constant@_N$0A@@0@@Z 0000000180038974     tile.obj
 0002:0000c984       $chain$4$??$_Destroy_range1@V?$allocator@V?$basic_string@_WU?$char_traits@_W@std@@V?$allocator@_W@2@@std@@@std@@PEAV?$basic_string@_WU?$char_traits@_W@std@@V?$allocator@_W@2@@2@@std@@YAXPEAV?$basic_string@_WU?$char_traits@_W@std@@V?$allocator@_W@2@@0@0AEAU?$_Wrap_alloc@V?$allocator@V?$basic_string@_WU?$char_traits@_W@std@@V?$allocator@_W@2@@std@@@std@@@0@U?$integral_constant@_N$0A@@0@@Z 0000000180038984     tile.obj
 0002:0000c9a0       $unwind$??$_Uninitialized_move_al_unchecked1@PEAV?$basic_string@_WU?$char_traits@_W@std@@V?$allocator@_W@2@@std@@PEAV12@V?$allocator@V?$basic_string@_WU?$char_traits@_W@std@@V?$allocator@_W@2@@std@@@2@@std@@YAPEAV?$basic_string@_WU?$char_traits@_W@std@@V?$allocator@_W@2@@0@PEAV10@00AEAU?$_Wrap_alloc@V?$allocator@V?$basic_string@_WU?$char_traits@_W@std@@V?$allocator@_W@2@@std@@@std@@@0@U_General_ptr_iterator_tag@0@U_Any_tag@0@@Z 00000001800389a0     tile.obj
 0002:0000c9b8       $tryMap$??$_Uninitialized_move_al_unchecked1@PEAV?$basic_string@_WU?$char_traits@_W@std@@V?$allocator@_W@2@@std@@PEAV12@V?$allocator@V?$basic_string@_WU?$char_traits@_W@std@@V?$allocator@_W@2@@std@@@2@@std@@YAPEAV?$basic_string@_WU?$char_traits@_W@std@@V?$allocator@_W@2@@0@PEAV10@00AEAU?$_Wrap_alloc@V?$allocator@V?$basic_string@_WU?$char_traits@_W@std@@V?$allocator@_W@2@@std@@@std@@@0@U_General_ptr_iterator_tag@0@U_Any_tag@0@@Z 00000001800389b8     tile.obj
 0002:0000c9cc       $handlerMap$0$??$_Uninitialized_move_al_unchecked1@PEAV?$basic_string@_WU?$char_traits@_W@std@@V?$allocator@_W@2@@std@@PEAV12@V?$allocator@V?$basic_string@_WU?$char_traits@_W@std@@V?$allocator@_W@2@@std@@@2@@std@@YAPEAV?$basic_string@_WU?$char_traits@_W@std@@V?$allocator@_W@2@@0@PEAV10@00AEAU?$_Wrap_alloc@V?$allocator@V?$basic_string@_WU?$char_traits@_W@std@@V?$allocator@_W@2@@std@@@std@@@0@U_General_ptr_iterator_tag@0@U_Any_tag@0@@Z 00000001800389cc     tile.obj
 0002:0000c9e0       $ip2state$??$_Uninitialized_move_al_unchecked1@PEAV?$basic_string@_WU?$char_traits@_W@std@@V?$allocator@_W@2@@std@@PEAV12@V?$allocator@V?$basic_string@_WU?$char_traits@_W@std@@V?$allocator@_W@2@@std@@@2@@std@@YAPEAV?$basic_string@_WU?$char_traits@_W@std@@V?$allocator@_W@2@@0@PEAV10@00AEAU?$_Wrap_alloc@V?$allocator@V?$basic_string@_WU?$char_traits@_W@std@@V?$allocator@_W@2@@std@@@std@@@0@U_General_ptr_iterator_tag@0@U_Any_tag@0@@Z 00000001800389e0     tile.obj
 0002:0000ca08       $unwind$?catch$0@?0???$_Uninitialized_move_al_unchecked1@PEAV?$basic_string@_WU?$char_traits@_W@std@@V?$allocator@_W@2@@std@@PEAV12@V?$allocator@V?$basic_string@_WU?$char_traits@_W@std@@V?$allocator@_W@2@@std@@@2@@std@@YAPEAV?$basic_string@_WU?$char_traits@_W@std@@V?$allocator@_W@2@@0@PEAV10@00AEAU?$_Wrap_alloc@V?$allocator@V?$basic_string@_WU?$char_traits@_W@std@@V?$allocator@_W@2@@std@@@std@@@0@U_General_ptr_iterator_tag@0@U_Any_tag@0@@Z@4HA 0000000180038a08     tile.obj
 0002:0000ca18       $unwind$??$_Uninitialized_move_al_unchecked1@PEAVTileRow@@PEAV1@V?$allocator@VTileRow@@@std@@@std@@YAPEAVTileRow@@PEAV1@00AEAU?$_Wrap_alloc@V?$allocator@VTileRow@@@std@@@0@U_General_ptr_iterator_tag@0@U_Any_tag@0@@Z 0000000180038a18     tile.obj
 0002:0000ca28       $stateUnwindMap$??$_Uninitialized_move_al_unchecked1@PEAVTileRow@@PEAV1@V?$allocator@VTileRow@@@std@@@std@@YAPEAVTileRow@@PEAV1@00AEAU?$_Wrap_alloc@V?$allocator@VTileRow@@@std@@@0@U_General_ptr_iterator_tag@0@U_Any_tag@0@@Z 0000000180038a28     tile.obj
 0002:0000ca40       $tryMap$??$_Uninitialized_move_al_unchecked1@PEAVTileRow@@PEAV1@V?$allocator@VTileRow@@@std@@@std@@YAPEAVTileRow@@PEAV1@00AEAU?$_Wrap_alloc@V?$allocator@VTileRow@@@std@@@0@U_General_ptr_iterator_tag@0@U_Any_tag@0@@Z 0000000180038a40     tile.obj
 0002:0000ca54       $handlerMap$0$??$_Uninitialized_move_al_unchecked1@PEAVTileRow@@PEAV1@V?$allocator@VTileRow@@@std@@@std@@YAPEAVTileRow@@PEAV1@00AEAU?$_Wrap_alloc@V?$allocator@VTileRow@@@std@@@0@U_General_ptr_iterator_tag@0@U_Any_tag@0@@Z 0000000180038a54     tile.obj
 0002:0000ca68       $ip2state$??$_Uninitialized_move_al_unchecked1@PEAVTileRow@@PEAV1@V?$allocator@VTileRow@@@std@@@std@@YAPEAVTileRow@@PEAV1@00AEAU?$_Wrap_alloc@V?$allocator@VTileRow@@@std@@@0@U_General_ptr_iterator_tag@0@U_Any_tag@0@@Z 0000000180038a68     tile.obj
 0002:0000ca90       $unwind$?catch$1@?0???$_Uninitialized_move_al_unchecked1@PEAVTileRow@@PEAV1@V?$allocator@VTileRow@@@std@@@std@@YAPEAVTileRow@@PEAV1@00AEAU?$_Wrap_alloc@V?$allocator@VTileRow@@@std@@@0@U_General_ptr_iterator_tag@0@U_Any_tag@0@@Z@4HA 0000000180038a90     tile.obj
 0002:0000caa0       $unwind$?noise@Worley@@SAXQEBNHPEANH@Z 0000000180038aa0     worley.obj
 0002:0000cae4       $unwind$?add@Worley@@CAXJJJQEBNHPEANH@Z 0000000180038ae4     worley.obj
 0002:0000caf8       $chain$11$?add@Worley@@CAXJJJQEBNHPEANH@Z 0000000180038af8     worley.obj
 0002:0000cb38       $chain$12$?add@Worley@@CAXJJJQEBNHPEANH@Z 0000000180038b38     worley.obj
 0002:0000cb48       $chain$13$?add@Worley@@CAXJJJQEBNHPEANH@Z 0000000180038b48     worley.obj
 0002:0000cb88       $unwind$__scrt_is_nonwritable_in_current_image 0000000180038b88     MSVCRT:utility.obj
 0002:0000cba8       $unwind$__scrt_is_nonwritable_in_current_image$filt$0 0000000180038ba8     MSVCRT:utility.obj
 0002:0000cbb0       $unwind$__scrt_initialize_onexit_tables 0000000180038bb0     MSVCRT:utility.obj
 0002:0000cbc0       $xdatasym                  0000000180038bc0     MSVCRT:_chkstk_.obj
 0002:0000cbc8       $unwind$?dllmain_crt_process_attach@@YAHQEAUHINSTANCE__@@QEAX@Z 0000000180038bc8     MSVCRT:dll_dllmain.obj
 0002:0000cbf4       $unwind$?dllmain_crt_process_detach@@YAH_N@Z 0000000180038bf4     MSVCRT:dll_dllmain.obj
 0002:0000cc1c       $unwind$__scrt_dllmain_exception_filter 0000000180038c1c     MSVCRT:utility.obj
 0002:0000cc1c       $unwind$??0BerconXYZ@@QEAA@XZ 0000000180038c1c     BerconDistortion.obj
 0002:0000cc1c       $unwind$?dllmain_raw@@YAHQEAUHINSTANCE__@@KQEAX@Z 0000000180038c1c     MSVCRT:dll_dllmain.obj
 0002:0000cc30       $unwind$?dllmain_dispatch@@YAHQEAUHINSTANCE__@@KQEAX@Z 0000000180038c30     MSVCRT:dll_dllmain.obj
 0002:0000cc58       $unwind$?filt$0@?0??dllmain_dispatch@@YAHQEAUHINSTANCE__@@KQEAX@Z@4HA 0000000180038c58     MSVCRT:dll_dllmain.obj
 0002:0000cc60       $unwind$__isa_available_init 0000000180038c60     MSVCRT:_cpu_disp_.obj
 0002:0000cc74       $unwind$__scrt_fastfail    0000000180038c74     MSVCRT:utility_desktop.obj
 0002:0000cc84       $unwind$?GetParamBlockByID@BerconWood@@UEAAPEAVIParamBlock2@@F@Z 0000000180038c84     BerconWood.obj
 0002:0000cc84       $unwind$??_GBaseInterfaceServer@@UEAAPEAXI@Z 0000000180038c84     BerconDistortion.obj
 0002:0000cc84       $unwind$??_GInterfaceServer@@UEAAPEAXI@Z 0000000180038c84     BerconDistortion.obj
 0002:0000cc84       $unwind$??_Gbad_alloc@std@@UEAAPEAXI@Z 0000000180038c84     MSVCRT:throw_bad_alloc.obj
 0002:0000cc84       $unwind$?SetSubTexmap@BerconWood@@UEAAXHPEAVTexmap@@@Z 0000000180038c84     BerconWood.obj
 0002:0000cc84       $unwind$?GetParamBlockByID@BerconDistortion@@UEAAPEAVIParamBlock2@@F@Z 0000000180038c84     BerconDistortion.obj
 0002:0000cc84       $unwind$?GetParamBlockByID@BerconGradient@@UEAAPEAVIParamBlock2@@F@Z 0000000180038c84     BerconGradient.obj
 0002:0000cc84       $unwind$??_Gexception@std@@UEAAPEAXI@Z 0000000180038c84     MSVCRT:throw_bad_alloc.obj
 0002:0000cc84       $unwind$?SetSubTexmap@BerconDistortion@@UEAAXHPEAVTexmap@@@Z 0000000180038c84     BerconDistortion.obj
 0002:0000cc84       $unwind$?Set@BitArray@@QEAAXH@Z 0000000180038c84     BerconDistortion.obj
 0002:0000cc84       $unwind$??_GBerconWood@@UEAAPEAXI@Z 0000000180038c84     BerconWood.obj
 0002:0000cc84       $unwind$?SetSubTexmap@BerconNoise@@UEAAXHPEAVTexmap@@@Z 0000000180038c84     BerconNoise.obj
 0002:0000cc84       $unwind$?GetParamBlockByID@BerconTile@@UEAAPEAVIParamBlock2@@F@Z 0000000180038c84     BerconTile.obj
 0002:0000cc84       $unwind$??_Gbad_array_new_length@std@@UEAAPEAXI@Z 0000000180038c84     MSVCRT:throw_bad_alloc.obj
 0002:0000cc84       $unwind$??_GBerconTile@@UEAAPEAXI@Z 0000000180038c84     BerconTile.obj
 0002:0000cc84       $unwind$?SetSubTexmap@BerconGradient@@UEAAXHPEAVTexmap@@@Z 0000000180038c84     BerconGradient.obj
 0002:0000cc84       $unwind$??_GBerconGradient@@UEAAPEAXI@Z 0000000180038c84     BerconGradient.obj
 0002:0000cc84       $unwind$?erase@?$basic_string@_WU?$char_traits@_W@std@@V?$allocator@_W@2@@std@@QEAAAEAV12@_K0@Z 0000000180038c84     BerconTile.obj
 0002:0000cc84       $unwind$?ScreenUV@BerconSC@@UEAAXAEAVPoint2@@0@Z 0000000180038c84     BerconDistortion.obj
 0002:0000cc84       $unwind$?GetParamBlockByID@BerconNoise@@UEAAPEAVIParamBlock2@@F@Z 0000000180038c84     BerconNoise.obj
 0002:0000cc84       $unwind$?SetSubTexmap@BerconTile@@UEAAXHPEAVTexmap@@@Z 0000000180038c84     BerconTile.obj
 0002:0000cc84       $unwind$?popup@GradientRamp@@QEAAXHHH@Z 0000000180038c84     GradientRamp.obj
 0002:0000cc84       $unwind$??_GBerconNoise@@UEAAPEAXI@Z 0000000180038c84     BerconNoise.obj
 0002:0000cc90       $unwind$?noise@Noise@@SAMVPoint3@@MAEAVNoiseParams@@@Z 0000000180038c90     noise.obj
 0002:0000cc90       $unwind$?__scrt_throw_std_bad_array_new_length@@YAXXZ 0000000180038c90     MSVCRT:throw_bad_alloc.obj
 0002:0000cc90       $unwind$?__scrt_throw_std_bad_alloc@@YAXXZ 0000000180038c90     MSVCRT:throw_bad_alloc.obj
 0002:0000cc98       $unwind$__security_init_cookie 0000000180038c98     MSVCRT:gs_support.obj
 0002:0000cca4       $unwind$?SetThing@BerconGradientDlgProc@@UEAAXPEAVReferenceTarget@@@Z 0000000180038ca4     BerconGradient.obj
 0002:0000cca4       $unwind$_RTC_Initialize    0000000180038ca4     MSVCRT:_initsect_.obj
 0002:0000cca4       $unwind$?_Assign_rv@?$basic_string@_WU?$char_traits@_W@std@@V?$allocator@_W@2@@std@@QEAAX$$QEAV12@@Z 0000000180038ca4     tile.obj
 0002:0000cca4       $unwind$?EvalParameters@BerconNoise@@QEAA?AVNoiseParams@@PEAVShadeContext@@@Z 0000000180038ca4     BerconNoise.obj
 0002:0000cca4       $unwind$_DllMainCRTStartup 0000000180038ca4     MSVCRT:dll_dllmain.obj
 0002:0000cca4       $unwind$_RTC_Terminate     0000000180038ca4     MSVCRT:_initsect_.obj
 0002:0000cca4       $unwind$?EvalParameters@BerconWood@@QEAA?AVWoodParam@@AEAVShadeContext@@@Z 0000000180038ca4     BerconWood.obj
 0002:0000cca4       $unwind$?assign@?$basic_string@_WU?$char_traits@_W@std@@V?$allocator@_W@2@@std@@QEAAAEAV12@PEB_W_K@Z 0000000180038ca4     BerconTile.obj
 0002:0000cca4       $unwind$?EvalParameters@BerconTile@@QEAA?AVTileParam@@AEAVShadeContext@@@Z 0000000180038ca4     BerconTile.obj
 0002:0000ccb8       $xdatasym                  0000000180038cb8     MSVCRT:_guard_dispatch_.obj
 0002:0000cea0       .edata                     0000000180038ea0     BerconMaps.exp
 0002:0000cec8       rgpv                       0000000180038ec8     BerconMaps.exp
 0002:0000cee4       rgszName                   0000000180038ee4     BerconMaps.exp
 0002:0000cf00       rgwOrd                     0000000180038f00     BerconMaps.exp
 0002:0000cf0e       szName                     0000000180038f0e     BerconMaps.exp
 0002:0000cf1e       $N00005                    0000000180038f1e     BerconMaps.exp
 0002:0000cf3f       $N00003                    0000000180038f3f     BerconMaps.exp
 0002:0000cf4c       $N00001                    0000000180038f4c     BerconMaps.exp
 0002:0000cf5b       $N00006                    0000000180038f5b     BerconMaps.exp
 0002:0000cf71       $N00002                    0000000180038f71     BerconMaps.exp
 0002:0000cf82       $N00007                    0000000180038f82     BerconMaps.exp
 0002:0000cf96       $N00004                    0000000180038f96     BerconMaps.exp
 0002:0000ee60       .idata$6                   000000018003ae60     core:core.dll
 0002:0000f0a8       .idata$6                   000000018003b0a8     geom:geom.dll
 0002:0000f0f8       .idata$6                   000000018003b0f8     Maxscrpt:MAXScrpt.dll
 0002:0000f4d4       .idata$6                   000000018003b4d4     maxutil:maxutil.dll
 0002:0000f94a       .idata$6                   000000018003b94a     Paramblk2:ParamBlk2.dll
 0002:0000fa68       .idata$6                   000000018003ba68     kernel32:KERNEL32.dll
 0002:0000fba2       .idata$6                   000000018003bba2     user32:USER32.dll
 0002:0000fc46       .idata$6                   000000018003bc46     gdi32:GDI32.dll
 0002:0001020e       .idata$6                   000000018003c20e     msvcprt:MSVCP140.dll
 0002:000102dc       .idata$6                   000000018003c2dc     vcruntime:VCRUNTIME140.dll
 0002:0001045c       .idata$6                   000000018003c45c     ucrt:api-ms-win-crt-utility-l1-1-0.dll
 0002:0001047e       .idata$6                   000000018003c47e     ucrt:api-ms-win-crt-math-l1-1-0.dll
 0002:0001049e       .idata$6                   000000018003c49e     ucrt:api-ms-win-crt-runtime-l1-1-0.dll
 0002:000104c0       .idata$6                   000000018003c4c0     ucrt:api-ms-win-crt-heap-l1-1-0.dll
 0003:00000008       ?BlinnClassID@@3VClass_ID@@A 000000018003d008     BerconDistortion.obj
 0003:00000010       ?AnisoShaderClassID@@3VClass_ID@@A 000000018003d010     BerconDistortion.obj
 0003:00000018       ?AnisoShaderDlgClassID@@3VClass_ID@@A 000000018003d018     BerconDistortion.obj
 0003:00000020       ?OrenNayarBlinnShaderClassID@@3VClass_ID@@A 000000018003d020     BerconDistortion.obj
 0003:00000028       ?OrenNayarShaderDlgClassID@@3VClass_ID@@A 000000018003d028     BerconDistortion.obj
 0003:00000030       ?StraussShaderClassID@@3VClass_ID@@A 000000018003d030     BerconDistortion.obj
 0003:00000038       ?kTriObjNormalXTCID@@3VClass_ID@@B 000000018003d038     BerconDistortion.obj
 0003:00000040       ?black@@3VAColor@@A        000000018003d040     BerconDistortion.obj
 0003:00000050       ?BlinnClassID@@3VClass_ID@@A 000000018003d050     BerconGradient.obj
 0003:00000058       ?AnisoShaderClassID@@3VClass_ID@@A 000000018003d058     BerconGradient.obj
 0003:00000060       ?AnisoShaderDlgClassID@@3VClass_ID@@A 000000018003d060     BerconGradient.obj
 0003:00000068       ?OrenNayarBlinnShaderClassID@@3VClass_ID@@A 000000018003d068     BerconGradient.obj
 0003:00000070       ?OrenNayarShaderDlgClassID@@3VClass_ID@@A 000000018003d070     BerconGradient.obj
 0003:00000078       ?StraussShaderClassID@@3VClass_ID@@A 000000018003d078     BerconGradient.obj
 0003:00000080       ?kTriObjNormalXTCID@@3VClass_ID@@B 000000018003d080     BerconGradient.obj
 0003:00000088       ?n1@?L@??getGradientValue@BerconGradient@@QEAAMAEAVShadeContext@@@Z@4MA 000000018003d088     BerconGradient.obj
 0003:00000090       ?BlinnClassID@@3VClass_ID@@A 000000018003d090     BerconTile.obj
 0003:00000098       ?AnisoShaderClassID@@3VClass_ID@@A 000000018003d098     BerconTile.obj
 0003:000000a0       ?AnisoShaderDlgClassID@@3VClass_ID@@A 000000018003d0a0     BerconTile.obj
 0003:000000a8       ?OrenNayarBlinnShaderClassID@@3VClass_ID@@A 000000018003d0a8     BerconTile.obj
 0003:000000b0       ?OrenNayarShaderDlgClassID@@3VClass_ID@@A 000000018003d0b0     BerconTile.obj
 0003:000000b8       ?StraussShaderClassID@@3VClass_ID@@A 000000018003d0b8     BerconTile.obj
 0003:000000c0       ?kTriObjNormalXTCID@@3VClass_ID@@B 000000018003d0c0     BerconTile.obj
 0003:000000c8       ?black@@3VAColor@@A        000000018003d0c8     BerconTile.obj
 0003:000000d8       ?white@@3VAColor@@A        000000018003d0d8     BerconTile.obj
 0003:000000e8       ?BlinnClassID@@3VClass_ID@@A 000000018003d0e8     BerconWood.obj
 0003:000000f0       ?AnisoShaderClassID@@3VClass_ID@@A 000000018003d0f0     BerconWood.obj
 0003:000000f8       ?AnisoShaderDlgClassID@@3VClass_ID@@A 000000018003d0f8     BerconWood.obj
 0003:00000100       ?OrenNayarBlinnShaderClassID@@3VClass_ID@@A 000000018003d100     BerconWood.obj
 0003:00000108       ?OrenNayarShaderDlgClassID@@3VClass_ID@@A 000000018003d108     BerconWood.obj
 0003:00000110       ?StraussShaderClassID@@3VClass_ID@@A 000000018003d110     BerconWood.obj
 0003:00000118       ?kTriObjNormalXTCID@@3VClass_ID@@B 000000018003d118     BerconWood.obj
 0003:00000120       ?white@@3VAColor@@A        000000018003d120     BerconWood.obj
 0003:00000130       ?kTriObjNormalXTCID@@3VClass_ID@@B 000000018003d130     DllEntry.obj
 0003:00000138       ?BlinnClassID@@3VClass_ID@@A 000000018003d138     BerconCommon.obj
 0003:00000140       ?AnisoShaderClassID@@3VClass_ID@@A 000000018003d140     BerconCommon.obj
 0003:00000148       ?AnisoShaderDlgClassID@@3VClass_ID@@A 000000018003d148     BerconCommon.obj
 0003:00000150       ?OrenNayarBlinnShaderClassID@@3VClass_ID@@A 000000018003d150     BerconCommon.obj
 0003:00000158       ?OrenNayarShaderDlgClassID@@3VClass_ID@@A 000000018003d158     BerconCommon.obj
 0003:00000160       ?StraussShaderClassID@@3VClass_ID@@A 000000018003d160     BerconCommon.obj
 0003:00000168       ?kTriObjNormalXTCID@@3VClass_ID@@B 000000018003d168     BerconCommon.obj
 0003:00000170       ?BlinnClassID@@3VClass_ID@@A 000000018003d170     BerconNoise.obj
 0003:00000178       ?AnisoShaderClassID@@3VClass_ID@@A 000000018003d178     BerconNoise.obj
 0003:00000180       ?AnisoShaderDlgClassID@@3VClass_ID@@A 000000018003d180     BerconNoise.obj
 0003:00000188       ?OrenNayarBlinnShaderClassID@@3VClass_ID@@A 000000018003d188     BerconNoise.obj
 0003:00000190       ?OrenNayarShaderDlgClassID@@3VClass_ID@@A 000000018003d190     BerconNoise.obj
 0003:00000198       ?StraussShaderClassID@@3VClass_ID@@A 000000018003d198     BerconNoise.obj
 0003:000001a0       ?kTriObjNormalXTCID@@3VClass_ID@@B 000000018003d1a0     BerconNoise.obj
 0003:000001a8       ?white@@3VAColor@@A        000000018003d1a8     BerconNoise.obj
 0003:000001b8       ?kTriObjNormalXTCID@@3VClass_ID@@B 000000018003d1b8     fractal.obj
 0003:000001c0       ?BlinnClassID@@3VClass_ID@@A 000000018003d1c0     GradientRamp.obj
 0003:000001c8       ?AnisoShaderClassID@@3VClass_ID@@A 000000018003d1c8     GradientRamp.obj
 0003:000001d0       ?AnisoShaderDlgClassID@@3VClass_ID@@A 000000018003d1d0     GradientRamp.obj
 0003:000001d8       ?OrenNayarBlinnShaderClassID@@3VClass_ID@@A 000000018003d1d8     GradientRamp.obj
 0003:000001e0       ?OrenNayarShaderDlgClassID@@3VClass_ID@@A 000000018003d1e0     GradientRamp.obj
 0003:000001e8       ?StraussShaderClassID@@3VClass_ID@@A 000000018003d1e8     GradientRamp.obj
 0003:000001f0       ?kTriObjNormalXTCID@@3VClass_ID@@B 000000018003d1f0     GradientRamp.obj
 0003:000001f8       ?kTriObjNormalXTCID@@3VClass_ID@@B 000000018003d1f8     IGradient.obj
 0003:00000200       ?BlinnClassID@@3VClass_ID@@A 000000018003d200     IGradient.obj
 0003:00000208       ?AnisoShaderClassID@@3VClass_ID@@A 000000018003d208     IGradient.obj
 0003:00000210       ?AnisoShaderDlgClassID@@3VClass_ID@@A 000000018003d210     IGradient.obj
 0003:00000218       ?OrenNayarBlinnShaderClassID@@3VClass_ID@@A 000000018003d218     IGradient.obj
 0003:00000220       ?OrenNayarShaderDlgClassID@@3VClass_ID@@A 000000018003d220     IGradient.obj
 0003:00000228       ?StraussShaderClassID@@3VClass_ID@@A 000000018003d228     IGradient.obj
 0003:00000230       ?kTriObjNormalXTCID@@3VClass_ID@@B 000000018003d230     noise.obj
 0003:00000240       ?perm@@3PAEA               000000018003d240     perlin.obj
 0003:00000440       ?simplex@@3PAY03EA         000000018003d440     perlin.obj
 0003:00000540       ?kTriObjNormalXTCID@@3VClass_ID@@B 000000018003d540     tile.obj
 0003:00000548       ?pat_herring_dir@@3PAEA    000000018003d548     tile.obj
 0003:00000560       ?pat_herring_x@@3PAMA      000000018003d560     tile.obj
 0003:000005a0       ?pat_herring_y@@3PAMA      000000018003d5a0     tile.obj
 0003:000005e0       ?pat_herring_id@@3PAEA     000000018003d5e0     tile.obj
 0003:000005f0       ?Poisson_count@@3PADA      000000018003d5f0     worley.obj
 0003:000006f0       ?kTriObjNormalXTCID@@3VClass_ID@@B 000000018003d6f0     commonMath.obj
 0003:00001130       ?BerconDistortion_param_blk@@3VParamBlockDesc2@@A 000000018003e130     BerconDistortion.obj
 0003:000011b0       ?kInvalidId@AssetManagement@MaxSDK@@3UAssetId@12@A 000000018003e1b0     BerconDistortion.obj
 0003:000011c0       ?BerconDistortionDesc@@3VBerconDistortionClassDesc@@A 000000018003e1c0     BerconDistortion.obj
 0003:00001200       ?xyz_blk@@3VXYZ_Desc@@A    000000018003e200     BerconDistortion.obj
 0003:00001288       ?kInvalidId@AssetManagement@MaxSDK@@3UAssetId@12@A 000000018003e288     BerconGradient.obj
 0003:00001298       ?BerconGradientDesc@@3VBerconGradientClassDesc@@A 000000018003e298     BerconGradient.obj
 0003:000012d0       ?gradientmap_param_blk@@3VParamBlockDesc2@@A 000000018003e2d0     BerconGradient.obj
 0003:00001350       ?xyz_blk@@3VXYZ_Desc@@A    000000018003e350     BerconGradient.obj
 0003:000013d8       ?BerconTileDesc@@3VBerconTileClassDesc@@A 000000018003e3d8     BerconTile.obj
 0003:00001410       ?BerconMap_param_blk@@3VParamBlockDesc2@@A 000000018003e410     BerconTile.obj
 0003:00001490       ?kInvalidId@AssetManagement@MaxSDK@@3UAssetId@12@A 000000018003e490     BerconTile.obj
 0003:000014a0       ?BerconTile_param_blk@@3VParamBlockDesc2@@A 000000018003e4a0     BerconTile.obj
 0003:00001520       ?xyz_blk@@3VXYZ_Desc@@A    000000018003e520     BerconTile.obj
 0003:000015a8       ?BerconWoodDesc@@3VBerconWoodClassDesc@@A 000000018003e5a8     BerconWood.obj
 0003:000015e0       ?BerconMap_param_blk@@3VParamBlockDesc2@@A 000000018003e5e0     BerconWood.obj
 0003:00001660       ?kInvalidId@AssetManagement@MaxSDK@@3UAssetId@12@A 000000018003e660     BerconWood.obj
 0003:00001670       ?xyz_blk@@3VXYZ_Desc@@A    000000018003e670     BerconWood.obj
 0003:000016f0       ?BerconWood_param_blk@@3VParamBlockDesc2@@A 000000018003e6f0     BerconWood.obj
 0003:00001770       ?black@@3VAColor@@A        000000018003e770     BerconWood.obj
 0003:00001790       ?kInvalidId@AssetManagement@MaxSDK@@3UAssetId@12@A 000000018003e790     DllEntry.obj
 0003:000017b0       ?buf@?1??GetString@@YAPEA_WH@Z@4PA_WA 000000018003e7b0     DllEntry.obj
 0003:000019b0       ?kInvalidId@AssetManagement@MaxSDK@@3UAssetId@12@A 000000018003e9b0     BerconCommon.obj
 0003:000019c8       ?BerconNoiseDesc@@3VBerconNoiseClassDesc@@A 000000018003e9c8     BerconNoise.obj
 0003:00001a00       ?BerconMap_param_blk@@3VParamBlockDesc2@@A 000000018003ea00     BerconNoise.obj
 0003:00001a80       ?berconnoise_param_blk@@3VParamBlockDesc2@@A 000000018003ea80     BerconNoise.obj
 0003:00001b00       ?kInvalidId@AssetManagement@MaxSDK@@3UAssetId@12@A 000000018003eb00     BerconNoise.obj
 0003:00001b10       ?xyz_blk@@3VXYZ_Desc@@A    000000018003eb10     BerconNoise.obj
 0003:00001b90       ?black@@3VAColor@@A        000000018003eb90     BerconNoise.obj
 0003:00001ba0       ?kInvalidId@AssetManagement@MaxSDK@@3UAssetId@12@A 000000018003eba0     fractal.obj
 0003:00001bb0       ?kInvalidId@AssetManagement@MaxSDK@@3UAssetId@12@A 000000018003ebb0     GradientRamp.obj
 0003:00001bc0       ?kInvalidId@AssetManagement@MaxSDK@@3UAssetId@12@A 000000018003ebc0     IGradient.obj
 0003:00001bd0       ?kInvalidId@AssetManagement@MaxSDK@@3UAssetId@12@A 000000018003ebd0     noise.obj
 0003:00001be0       ?kInvalidId@AssetManagement@MaxSDK@@3UAssetId@12@A 000000018003ebe0     tile.obj
 0003:00001bf0       ?kInvalidId@AssetManagement@MaxSDK@@3UAssetId@12@A 000000018003ebf0     commonMath.obj
 0003:00001c10       ?module_local_atexit_table@@3U_onexit_table_t@@A 000000018003ec10     MSVCRT:utility.obj
 0003:00001c28       ?module_local_at_quick_exit_table@@3U_onexit_table_t@@A 000000018003ec28     MSVCRT:utility.obj
 0003:00001c40       ?is_initialized_as_dll@@3_NA 000000018003ec40     MSVCRT:utility.obj
 0003:00001c44       ?__proc_attached@@3HA      000000018003ec44     MSVCRT:dll_dllmain.obj
 0004:00000000       $pdata$??__EBerconDistortionDesc@@YAXXZ 000000018003f000     BerconDistortion.obj
 0004:0000000c       $pdata$??__EBerconDistortion_param_blk@@YAXXZ 000000018003f00c     BerconDistortion.obj
 0004:00000018       $pdata$??__Exyz_blk@@YAXXZ 000000018003f018     BerconDistortion.obj
 0004:00000024       $pdata$??__EBerconGradientDesc@@YAXXZ 000000018003f024     BerconGradient.obj
 0004:00000030       $pdata$??__Egradientmap_param_blk@@YAXXZ 000000018003f030     BerconGradient.obj
 0004:0000003c       $pdata$??__Exyz_blk@@YAXXZ 000000018003f03c     BerconGradient.obj
 0004:00000048       $pdata$??__EBerconMap_param_blk@@YAXXZ 000000018003f048     BerconTile.obj
 0004:00000054       $pdata$??__EBerconTileDesc@@YAXXZ 000000018003f054     BerconTile.obj
 0004:00000060       $pdata$??__EBerconTile_param_blk@@YAXXZ 000000018003f060     BerconTile.obj
 0004:0000006c       $pdata$??__Exyz_blk@@YAXXZ 000000018003f06c     BerconTile.obj
 0004:00000078       $pdata$??__EBerconMap_param_blk@@YAXXZ 000000018003f078     BerconWood.obj
 0004:00000084       $pdata$??__EBerconWoodDesc@@YAXXZ 000000018003f084     BerconWood.obj
 0004:00000090       $pdata$??__EBerconWood_param_blk@@YAXXZ 000000018003f090     BerconWood.obj
 0004:0000009c       $pdata$??__Exyz_blk@@YAXXZ 000000018003f09c     BerconWood.obj
 0004:000000a8       $pdata$??__EBerconMap_param_blk@@YAXXZ 000000018003f0a8     BerconNoise.obj
 0004:000000b4       $pdata$??__EBerconNoiseDesc@@YAXXZ 000000018003f0b4     BerconNoise.obj
 0004:000000c0       $pdata$??__Eberconnoise_param_blk@@YAXXZ 000000018003f0c0     BerconNoise.obj
 0004:000000cc       $pdata$??__Exyz_blk@@YAXXZ 000000018003f0cc     BerconNoise.obj
 0004:000000d8       $pdata$?Create@BerconDistortionClassDesc@@UEAAPEAXH@Z 000000018003f0d8     BerconDistortion.obj
 0004:000000e4       $pdata$??_GBerconDistortionClassDesc@@UEAAPEAXI@Z 000000018003f0e4     BerconDistortion.obj
 0004:000000f0       $pdata$??_GXYZ_Desc@@UEAAPEAXI@Z 000000018003f0f0     BerconDistortion.obj
 0004:000000fc       $pdata$??1TabOutOfRangeException@Util@MaxSDK@@UEAA@XZ 000000018003f0fc     BerconDistortion.obj
 0004:00000108       $pdata$??0TabOutOfRangeException@Util@MaxSDK@@QEAA@AEBV012@@Z 000000018003f108     BerconDistortion.obj
 0004:00000114       $pdata$??_GTabOutOfRangeException@Util@MaxSDK@@UEAAPEAXI@Z 000000018003f114     BerconDistortion.obj
 0004:00000120       $pdata$?GetInterfaceAt@ClassDesc@@UEAAPEAVFPInterface@@H@Z 000000018003f120     BerconDistortion.obj
 0004:0000012c       $pdata$??0BerconDistortion@@QEAA@XZ 000000018003f12c     BerconDistortion.obj
 0004:00000138       $pdata$??0BerconSC@@QEAA@QEAVShadeContext@@@Z 000000018003f138     BerconDistortion.obj
 0004:00000144       $pdata$??0BerconXYZ@@QEAA@XZ 000000018003f144     BerconDistortion.obj
 0004:00000150       $pdata$??0VertexNormalsControl@@QEAA@XZ 000000018003f150     BerconDistortion.obj
 0004:0000015c       $pdata$??0XYZ_Desc@@QEAA@PEAVClassDesc2@@HHHHHHH@Z 000000018003f15c     BerconDistortion.obj
 0004:00000168       $pdata$??1?$Tab@PEAVBaseInterface@@@@QEAA@XZ 000000018003f168     BerconDistortion.obj
 0004:00000174       $pdata$??1?$Tab@PEAVVertexNormalsCallback@@@@QEAA@XZ 000000018003f174     BerconDistortion.obj
 0004:00000180       $pdata$??1BerconSC@@UEAA@XZ 000000018003f180     BerconDistortion.obj
 0004:0000018c       $pdata$??1RenderGlobalContext@@UEAA@XZ 000000018003f18c     BerconDistortion.obj
 0004:00000198       $pdata$??1ShadeContext@@UEAA@XZ 000000018003f198     BerconDistortion.obj
 0004:000001a4       $pdata$??1ShadeOutput@@UEAA@XZ 000000018003f1a4     BerconDistortion.obj
 0004:000001b0       $pdata$??1Texmap@@UEAA@XZ  000000018003f1b0     BerconDistortion.obj
 0004:000001bc       $pdata$??A?$Tab@PEAVFPInterface@@@@QEBAAEAPEAVFPInterface@@_J@Z 000000018003f1bc     BerconDistortion.obj
 0004:000001c8       $pdata$??_GBaseInterfaceServer@@UEAAPEAXI@Z 000000018003f1c8     BerconDistortion.obj
 0004:000001d4       $pdata$??_GBerconDistortion@@UEAAPEAXI@Z 000000018003f1d4     BerconDistortion.obj
 0004:000001e0       $pdata$??_GBerconSC@@UEAAPEAXI@Z 000000018003f1e0     BerconDistortion.obj
 0004:000001ec       $pdata$??_GBerconXYZDlgProc@@UEAAPEAXI@Z 000000018003f1ec     BerconDistortion.obj
 0004:000001f8       $pdata$??_GInterfaceServer@@UEAAPEAXI@Z 000000018003f1f8     BerconDistortion.obj
 0004:00000204       $pdata$??_GParamMap2UserDlgProc@@UEAAPEAXI@Z 000000018003f204     BerconDistortion.obj
 0004:00000210       $pdata$??_GRenderGlobalContext@@UEAAPEAXI@Z 000000018003f210     BerconDistortion.obj
 0004:0000021c       $pdata$??_GShadeContext@@UEAAPEAXI@Z 000000018003f21c     BerconDistortion.obj
 0004:00000228       $pdata$??_GShadeOutput@@UEAAPEAXI@Z 000000018003f228     BerconDistortion.obj
 0004:00000234       $pdata$?ActivateTexDisplay@BerconDistortion@@UEAAXH@Z 000000018003f234     BerconDistortion.obj
 0004:00000240       $pdata$?BarycentricCoords@BerconSC@@UEAA?AVPoint3@@XZ 000000018003f240     BerconDistortion.obj
 0004:0000024c       $pdata$?CamPos@BerconSC@@UEAA?AVPoint3@@XZ 000000018003f24c     BerconDistortion.obj
 0004:00000258       $pdata$?Clone@BerconDistortion@@UEAAPEAVReferenceTarget@@AEAVRemapDir@@@Z 000000018003f258     BerconDistortion.obj
 0004:00000264       $pdata$?CreateParamDlg@BerconDistortion@@UEAAPEAVParamDlg@@PEAUHWND__@@PEAVIMtlParams@@@Z 000000018003f264     BerconDistortion.obj
 0004:00000270       $pdata$?DP@BerconSC@@UEAA?AVPoint3@@XZ 000000018003f270     BerconDistortion.obj
 0004:0000027c       $pdata$?DPObj@BerconSC@@UEAA?AVPoint3@@XZ 000000018003f27c     BerconDistortion.obj
 0004:00000288       $pdata$?DPObjRelBox@BerconSC@@UEAA?AVPoint3@@XZ 000000018003f288     BerconDistortion.obj
 0004:00000294       $pdata$?DUVW@BerconSC@@UEAA?AVPoint3@@H@Z 000000018003f294     BerconDistortion.obj
 0004:000002a0       $pdata$?DeleteThis@BerconXYZDlgProc@@UEAAXXZ 000000018003f2a0     BerconDistortion.obj
 0004:000002ac       $pdata$?DiffuseIllum@BerconSC@@UEAA?AVColor@@XZ 000000018003f2ac     BerconDistortion.obj
 0004:000002b8       $pdata$?DlgProc@BerconXYZDlgProc@@UEAA_JHPEAVIParamMap2@@PEAUHWND__@@I_K_J@Z 000000018003f2b8     BerconDistortion.obj
 0004:000002c4       $pdata$1$?DlgProc@BerconXYZDlgProc@@UEAA_JHPEAVIParamMap2@@PEAUHWND__@@I_K_J@Z 000000018003f2c4     BerconDistortion.obj
 0004:000002d0       $pdata$?EvalColor@BerconDistortion@@UEAA?AVAColor@@AEAVShadeContext@@@Z 000000018003f2d0     BerconDistortion.obj
 0004:000002dc       $pdata$?EvalEnvironMap@BerconSC@@UEAA?AVAColor@@PEAVTexmap@@VPoint3@@@Z 000000018003f2dc     BerconDistortion.obj
 0004:000002e8       $pdata$?EvalGlobalEnvironMap@BerconSC@@UEAA?AVAColor@@VPoint3@@@Z 000000018003f2e8     BerconDistortion.obj
 0004:000002f4       $pdata$?EvalMono@BerconDistortion@@UEAAMAEAVShadeContext@@@Z 000000018003f2f4     BerconDistortion.obj
 0004:00000300       $pdata$?EvalNormalPerturb@BerconDistortion@@UEAA?AVPoint3@@AEAVShadeContext@@@Z 000000018003f300     BerconDistortion.obj
 0004:0000030c       $pdata$?GNormal@BerconSC@@UEAA?AVPoint3@@XZ 000000018003f30c     BerconDistortion.obj
 0004:00000318       $pdata$?GetActiveTexHandle@BerconDistortion@@UEAA_KHAEAVTexHandleMaker@@@Z 000000018003f318     BerconDistortion.obj
 0004:00000324       $pdata$0$?GetActiveTexHandle@BerconDistortion@@UEAA_KHAEAVTexHandleMaker@@@Z 000000018003f324     BerconDistortion.obj
 0004:00000330       $pdata$1$?GetActiveTexHandle@BerconDistortion@@UEAA_KHAEAVTexHandleMaker@@@Z 000000018003f330     BerconDistortion.obj
 0004:0000033c       $pdata$?GetClassName@BerconDistortion@@UEAAXAEAVWStr@@@Z 000000018003f33c     BerconDistortion.obj
 0004:00000348       $pdata$?GetInterface@MtlBase@@UEAAPEAVBaseInterface@@VInterface_ID@@@Z 000000018003f348     BerconDistortion.obj
 0004:00000354       $pdata$?GetParamBlockByID@BerconDistortion@@UEAAPEAVIParamBlock2@@F@Z 000000018003f354     BerconDistortion.obj
 0004:00000360       $pdata$?GetSubTexmapSlotName@BerconDistortion@@UEAA?AVWStr@@H@Z 000000018003f360     BerconDistortion.obj
 0004:0000036c       $pdata$?IsSubClassOf@Animatable@@UEAAHVClass_ID@@@Z 000000018003f36c     BerconDistortion.obj
 0004:00000378       $pdata$?Normal@BerconSC@@UEAA?AVPoint3@@XZ 000000018003f378     BerconDistortion.obj
 0004:00000384       $pdata$?NotifyDependents@ReferenceMaker@@EEAA?AW4RefResult@@AEBVInterval@@_KIKHPEAVReferenceTarget@@@Z 000000018003f384     BerconDistortion.obj
 0004:00000390       $pdata$?NotifyForeground@ReferenceTarget@@UEAAXH@Z 000000018003f390     BerconDistortion.obj
 0004:0000039c       $pdata$?NotifyRefChanged@BerconDistortion@@UEAA?AW4RefResult@@AEBVInterval@@PEAVReferenceTarget@@AEA_KIH@Z 000000018003f39c     BerconDistortion.obj
 0004:000003a8       $pdata$0$?NotifyRefChanged@BerconDistortion@@UEAA?AW4RefResult@@AEBVInterval@@PEAVReferenceTarget@@AEA_KIH@Z 000000018003f3a8     BerconDistortion.obj
 0004:000003b4       $pdata$1$?NotifyRefChanged@BerconDistortion@@UEAA?AW4RefResult@@AEBVInterval@@PEAVReferenceTarget@@AEA_KIH@Z 000000018003f3b4     BerconDistortion.obj
 0004:000003c0       $pdata$?ObjectBox@BerconSC@@UEAA?AVBox3@@XZ 000000018003f3c0     BerconDistortion.obj
 0004:000003cc       $pdata$?OrigNormal@BerconSC@@UEAA?AVPoint3@@XZ 000000018003f3cc     BerconDistortion.obj
 0004:000003d8       $pdata$?OrigNormal@ShadeContext@@UEAA?AVPoint3@@XZ 000000018003f3d8     BerconDistortion.obj
 0004:000003e4       $pdata$?OrigView@BerconSC@@UEAA?AVPoint3@@XZ 000000018003f3e4     BerconDistortion.obj
 0004:000003f0       $pdata$?OrigView@ShadeContext@@UEAA?AVPoint3@@XZ 000000018003f3f0     BerconDistortion.obj
 0004:000003fc       $pdata$?P@BerconSC@@UEAA?AVPoint3@@XZ 000000018003f3fc     BerconDistortion.obj
 0004:00000408       $pdata$?PObj@BerconSC@@UEAA?AVPoint3@@XZ 000000018003f408     BerconDistortion.obj
 0004:00000414       $pdata$?PObjRelBox@BerconSC@@UEAA?AVPoint3@@XZ 000000018003f414     BerconDistortion.obj
 0004:00000420       $pdata$?PointFrom@BerconSC@@UEAA?AVPoint3@@AEBV2@W4RefFrame@@@Z 000000018003f420     BerconDistortion.obj
 0004:0000042c       $pdata$?PointTo@BerconSC@@UEAA?AVPoint3@@AEBV2@W4RefFrame@@@Z 000000018003f42c     BerconDistortion.obj
 0004:00000438       $pdata$?RayDiam@ShadeContext@@UEAAMXZ 000000018003f438     BerconDistortion.obj
 0004:00000444       $pdata$?ReflectVector@BerconSC@@UEAA?AVPoint3@@XZ 000000018003f444     BerconDistortion.obj
 0004:00000450       $pdata$?RefractVector@BerconSC@@UEAA?AVPoint3@@M@Z 000000018003f450     BerconDistortion.obj
 0004:0000045c       $pdata$?Reset@BerconDistortion@@UEAAXXZ 000000018003f45c     BerconDistortion.obj
 0004:00000468       $pdata$?ScreenCoord@BerconSC@@UEAA?AVIPoint2@@XZ 000000018003f468     BerconDistortion.obj
 0004:00000474       $pdata$?ScreenUV@BerconSC@@UEAAXAEAVPoint2@@0@Z 000000018003f474     BerconDistortion.obj
 0004:00000480       $pdata$?Set@BitArray@@QEAAXH@Z 000000018003f480     BerconDistortion.obj
 0004:0000048c       $pdata$?SetNormal@BerconSC@@UEAAXVPoint3@@@Z 000000018003f48c     BerconDistortion.obj
 0004:00000498       $pdata$?SetSubTexmap@BerconDistortion@@UEAAXHPEAVTexmap@@@Z 000000018003f498     BerconDistortion.obj
 0004:000004a4       $pdata$?SetView@BerconSC@@UEAAXVPoint3@@@Z 000000018003f4a4     BerconDistortion.obj
 0004:000004b0       $pdata$?SubAnimName@BerconDistortion@@UEAA?AVWStr@@H@Z 000000018003f4b0     BerconDistortion.obj
 0004:000004bc       $pdata$?SurfacePtScreen@BerconSC@@UEAA?AVPoint2@@XZ 000000018003f4bc     BerconDistortion.obj
 0004:000004c8       $pdata$?UVW@BerconSC@@UEAA?AVPoint3@@H@Z 000000018003f4c8     BerconDistortion.obj
 0004:000004d4       $pdata$?UVWNormal@BerconSC@@UEAA?AVPoint3@@H@Z 000000018003f4d4     BerconDistortion.obj
 0004:000004e0       $pdata$?Update@BerconDistortion@@UEAAXHAEAVInterval@@@Z 000000018003f4e0     BerconDistortion.obj
 0004:000004ec       $pdata$0$?Update@BerconDistortion@@UEAAXHAEAVInterval@@@Z 000000018003f4ec     BerconDistortion.obj
 0004:000004f8       $pdata$2$?Update@BerconDistortion@@UEAAXHAEAVInterval@@@Z 000000018003f4f8     BerconDistortion.obj
 0004:00000504       $pdata$3$?Update@BerconDistortion@@UEAAXHAEAVInterval@@@Z 000000018003f504     BerconDistortion.obj
 0004:00000510       $pdata$4$?Update@BerconDistortion@@UEAAXHAEAVInterval@@@Z 000000018003f510     BerconDistortion.obj
 0004:0000051c       $pdata$?V@BerconSC@@UEAA?AVPoint3@@XZ 000000018003f51c     BerconDistortion.obj
 0004:00000528       $pdata$?Validity@BerconDistortion@@UEAA?AVInterval@@H@Z 000000018003f528     BerconDistortion.obj
 0004:00000534       $pdata$?VectorFrom@BerconSC@@UEAA?AVPoint3@@AEBV2@W4RefFrame@@@Z 000000018003f534     BerconDistortion.obj
 0004:00000540       $pdata$?VectorFromNoScale@BerconSC@@UEAA?AVPoint3@@AEBV2@W4RefFrame@@@Z 000000018003f540     BerconDistortion.obj
 0004:0000054c       $pdata$?VectorTo@BerconSC@@UEAA?AVPoint3@@AEBV2@W4RefFrame@@@Z 000000018003f54c     BerconDistortion.obj
 0004:00000558       $pdata$?VectorToNoScale@BerconSC@@UEAA?AVPoint3@@AEBV2@W4RefFrame@@@Z 000000018003f558     BerconDistortion.obj
 0004:00000564       $pdata$?getDistVector@BerconDistortion@@QEAA?AVPoint3@@AEAVShadeContext@@@Z 000000018003f564     BerconDistortion.obj
 0004:00000570       $pdata$1$?getDistVector@BerconDistortion@@QEAA?AVPoint3@@AEAVShadeContext@@@Z 000000018003f570     BerconDistortion.obj
 0004:0000057c       $pdata$2$?getDistVector@BerconDistortion@@QEAA?AVPoint3@@AEAVShadeContext@@@Z 000000018003f57c     BerconDistortion.obj
 0004:00000588       $pdata$?Create@BerconGradientClassDesc@@UEAAPEAXH@Z 000000018003f588     BerconGradient.obj
 0004:00000594       $pdata$??_GBerconGradientClassDesc@@UEAAPEAXI@Z 000000018003f594     BerconGradient.obj
 0004:000005a0       $pdata$??0BerconGradient@@QEAA@XZ 000000018003f5a0     BerconGradient.obj
 0004:000005ac       $pdata$??0IGradient@@QEAA@PEAUHWND__@@PEAVGradientRamp@@@Z 000000018003f5ac     BerconGradient.obj
 0004:000005b8       $pdata$??1BerconGradient@@UEAA@XZ 000000018003f5b8     BerconGradient.obj
 0004:000005c4       $pdata$??1ICustomControl@@UEAA@XZ 000000018003f5c4     BerconGradient.obj
 0004:000005d0       $pdata$??_GBerconGradient@@UEAAPEAXI@Z 000000018003f5d0     BerconGradient.obj
 0004:000005dc       $pdata$??_GBerconGradientDlgProc@@UEAAPEAXI@Z 000000018003f5dc     BerconGradient.obj
 0004:000005e8       $pdata$??_GICustomControl@@UEAAPEAXI@Z 000000018003f5e8     BerconGradient.obj
 0004:000005f4       $pdata$??_GIGradient@@UEAAPEAXI@Z 000000018003f5f4     BerconGradient.obj
 0004:00000600       $pdata$?ActivateTexDisplay@BerconGradient@@UEAAXH@Z 000000018003f600     BerconGradient.obj
 0004:0000060c       $pdata$?Clone@BerconGradient@@UEAAPEAVReferenceTarget@@AEAVRemapDir@@@Z 000000018003f60c     BerconGradient.obj
 0004:00000618       $pdata$?CreateParamDlg@BerconGradient@@UEAAPEAVParamDlg@@PEAUHWND__@@PEAVIMtlParams@@@Z 000000018003f618     BerconGradient.obj
 0004:00000624       $pdata$?DeleteThis@BerconGradient@@UEAAXXZ 000000018003f624     BerconGradient.obj
 0004:00000630       $pdata$?DiscardTexHandle@BerconGradient@@QEAAXXZ 000000018003f630     BerconGradient.obj
 0004:0000063c       $pdata$?DlgProc@BerconGradientDlgProc@@UEAA_JHPEAVIParamMap2@@PEAUHWND__@@I_K_J@Z 000000018003f63c     BerconGradient.obj
 0004:00000648       $pdata$?EnableStuff@BerconGradient@@QEAAXXZ 000000018003f648     BerconGradient.obj
 0004:00000654       $pdata$0$?EnableStuff@BerconGradient@@QEAAXXZ 000000018003f654     BerconGradient.obj
 0004:00000660       $pdata$2$?EnableStuff@BerconGradient@@QEAAXXZ 000000018003f660     BerconGradient.obj
 0004:0000066c       $pdata$6$?EnableStuff@BerconGradient@@QEAAXXZ 000000018003f66c     BerconGradient.obj
 0004:00000678       $pdata$7$?EnableStuff@BerconGradient@@QEAAXXZ 000000018003f678     BerconGradient.obj
 0004:00000684       $pdata$8$?EnableStuff@BerconGradient@@QEAAXXZ 000000018003f684     BerconGradient.obj
 0004:00000690       $pdata$9$?EnableStuff@BerconGradient@@QEAAXXZ 000000018003f690     BerconGradient.obj
 0004:0000069c       $pdata$10$?EnableStuff@BerconGradient@@QEAAXXZ 000000018003f69c     BerconGradient.obj
 0004:000006a8       $pdata$?EvalColor@BerconGradient@@UEAA?AVAColor@@AEAVShadeContext@@@Z 000000018003f6a8     BerconGradient.obj
 0004:000006b4       $pdata$0$?EvalColor@BerconGradient@@UEAA?AVAColor@@AEAVShadeContext@@@Z 000000018003f6b4     BerconGradient.obj
 0004:000006c0       $pdata$1$?EvalColor@BerconGradient@@UEAA?AVAColor@@AEAVShadeContext@@@Z 000000018003f6c0     BerconGradient.obj
 0004:000006cc       $pdata$2$?EvalColor@BerconGradient@@UEAA?AVAColor@@AEAVShadeContext@@@Z 000000018003f6cc     BerconGradient.obj
 0004:000006d8       $pdata$3$?EvalColor@BerconGradient@@UEAA?AVAColor@@AEAVShadeContext@@@Z 000000018003f6d8     BerconGradient.obj
 0004:000006e4       $pdata$?EvalMono@BerconGradient@@UEAAMAEAVShadeContext@@@Z 000000018003f6e4     BerconGradient.obj
 0004:000006f0       $pdata$?EvalNormalPerturb@BerconGradient@@UEAA?AVPoint3@@AEAVShadeContext@@@Z 000000018003f6f0     BerconGradient.obj
 0004:000006fc       $pdata$3$?EvalNormalPerturb@BerconGradient@@UEAA?AVPoint3@@AEAVShadeContext@@@Z 000000018003f6fc     BerconGradient.obj
 0004:00000708       $pdata$6$?EvalNormalPerturb@BerconGradient@@UEAA?AVPoint3@@AEAVShadeContext@@@Z 000000018003f708     BerconGradient.obj
 0004:00000714       $pdata$9$?EvalNormalPerturb@BerconGradient@@UEAA?AVPoint3@@AEAVShadeContext@@@Z 000000018003f714     BerconGradient.obj
 0004:00000720       $pdata$10$?EvalNormalPerturb@BerconGradient@@UEAA?AVPoint3@@AEAVShadeContext@@@Z 000000018003f720     BerconGradient.obj
 0004:0000072c       $pdata$4$?EvalNormalPerturb@BerconGradient@@UEAA?AVPoint3@@AEAVShadeContext@@@Z 000000018003f72c     BerconGradient.obj
 0004:00000738       $pdata$11$?EvalNormalPerturb@BerconGradient@@UEAA?AVPoint3@@AEAVShadeContext@@@Z 000000018003f738     BerconGradient.obj
 0004:00000744       $pdata$?GetActiveTexHandle@BerconGradient@@UEAA_KHAEAVTexHandleMaker@@@Z 000000018003f744     BerconGradient.obj
 0004:00000750       $pdata$0$?GetActiveTexHandle@BerconGradient@@UEAA_KHAEAVTexHandleMaker@@@Z 000000018003f750     BerconGradient.obj
 0004:0000075c       $pdata$1$?GetActiveTexHandle@BerconGradient@@UEAA_KHAEAVTexHandleMaker@@@Z 000000018003f75c     BerconGradient.obj
 0004:00000768       $pdata$?GetClassName@BerconGradient@@UEAAXAEAVWStr@@@Z 000000018003f768     BerconGradient.obj
 0004:00000774       $pdata$?GetParamBlockByID@BerconGradient@@UEAAPEAVIParamBlock2@@F@Z 000000018003f774     BerconGradient.obj
 0004:00000780       $pdata$?GetSubTexmapSlotName@BerconGradient@@UEAA?AVWStr@@H@Z 000000018003f780     BerconGradient.obj
 0004:0000078c       $pdata$?NotifyRefChanged@BerconGradient@@UEAA?AW4RefResult@@AEBVInterval@@PEAVReferenceTarget@@AEA_KIH@Z 000000018003f78c     BerconGradient.obj
 0004:00000798       $pdata$0$?NotifyRefChanged@BerconGradient@@UEAA?AW4RefResult@@AEBVInterval@@PEAVReferenceTarget@@AEA_KIH@Z 000000018003f798     BerconGradient.obj
 0004:000007a4       $pdata$2$?NotifyRefChanged@BerconGradient@@UEAA?AW4RefResult@@AEBVInterval@@PEAVReferenceTarget@@AEA_KIH@Z 000000018003f7a4     BerconGradient.obj
 0004:000007b0       $pdata$3$?NotifyRefChanged@BerconGradient@@UEAA?AW4RefResult@@AEBVInterval@@PEAVReferenceTarget@@AEA_KIH@Z 000000018003f7b0     BerconGradient.obj
 0004:000007bc       $pdata$?Reset@BerconGradient@@UEAAXXZ 000000018003f7bc     BerconGradient.obj
 0004:000007c8       $pdata$?SetDlgThing@BerconGradient@@UEAAHPEAVParamDlg@@@Z 000000018003f7c8     BerconGradient.obj
 0004:000007d4       $pdata$?SetReference@BerconGradient@@EEAAXHPEAVReferenceTarget@@@Z 000000018003f7d4     BerconGradient.obj
 0004:000007e0       $pdata$0$?SetReference@BerconGradient@@EEAAXHPEAVReferenceTarget@@@Z 000000018003f7e0     BerconGradient.obj
 0004:000007ec       $pdata$1$?SetReference@BerconGradient@@EEAAXHPEAVReferenceTarget@@@Z 000000018003f7ec     BerconGradient.obj
 0004:000007f8       $pdata$?SetSubTexmap@BerconGradient@@UEAAXHPEAVTexmap@@@Z 000000018003f7f8     BerconGradient.obj
 0004:00000804       $pdata$?SetThing@BerconGradientDlgProc@@UEAAXPEAVReferenceTarget@@@Z 000000018003f804     BerconGradient.obj
 0004:00000810       $pdata$?SubAnimName@BerconGradient@@UEAA?AVWStr@@H@Z 000000018003f810     BerconGradient.obj
 0004:0000081c       $pdata$?Update@BerconGradient@@UEAAXHAEAVInterval@@@Z 000000018003f81c     BerconGradient.obj
 0004:00000828       $pdata$0$?Update@BerconGradient@@UEAAXHAEAVInterval@@@Z 000000018003f828     BerconGradient.obj
 0004:00000834       $pdata$3$?Update@BerconGradient@@UEAAXHAEAVInterval@@@Z 000000018003f834     BerconGradient.obj
 0004:00000840       $pdata$4$?Update@BerconGradient@@UEAAXHAEAVInterval@@@Z 000000018003f840     BerconGradient.obj
 0004:0000084c       $pdata$5$?Update@BerconGradient@@UEAAXHAEAVInterval@@@Z 000000018003f84c     BerconGradient.obj
 0004:00000858       $pdata$6$?Update@BerconGradient@@UEAAXHAEAVInterval@@@Z 000000018003f858     BerconGradient.obj
 0004:00000864       $pdata$7$?Update@BerconGradient@@UEAAXHAEAVInterval@@@Z 000000018003f864     BerconGradient.obj
 0004:00000870       $pdata$8$?Update@BerconGradient@@UEAAXHAEAVInterval@@@Z 000000018003f870     BerconGradient.obj
 0004:0000087c       $pdata$?Validity@BerconGradient@@UEAA?AVInterval@@H@Z 000000018003f87c     BerconGradient.obj
 0004:00000888       $pdata$?countKeys@BerconGradient@@QEAAHXZ 000000018003f888     BerconGradient.obj
 0004:00000894       $pdata$?getGradientValue@BerconGradient@@QEAAMAEAVShadeContext@@@Z 000000018003f894     BerconGradient.obj
 0004:000008a0       $pdata$3$?getGradientValue@BerconGradient@@QEAAMAEAVShadeContext@@@Z 000000018003f8a0     BerconGradient.obj
 0004:000008ac       $pdata$4$?getGradientValue@BerconGradient@@QEAAMAEAVShadeContext@@@Z 000000018003f8ac     BerconGradient.obj
 0004:000008b8       $pdata$?getGradientValueDist@BerconGradient@@QEAAMAEAVShadeContext@@@Z 000000018003f8b8     BerconGradient.obj
 0004:000008c4       $pdata$3$?getGradientValueDist@BerconGradient@@QEAAMAEAVShadeContext@@@Z 000000018003f8c4     BerconGradient.obj
 0004:000008d0       $pdata$4$?getGradientValueDist@BerconGradient@@QEAAMAEAVShadeContext@@@Z 000000018003f8d0     BerconGradient.obj
 0004:000008dc       $pdata$?getGradientValueNormal@BerconGradient@@QEAAMAEAVShadeContext@@@Z 000000018003f8dc     BerconGradient.obj
 0004:000008e8       $pdata$?getGradientValueUVW@BerconGradient@@QEAAMVPoint3@@@Z 000000018003f8e8     BerconGradient.obj
 0004:000008f4       $pdata$0$?getGradientValueUVW@BerconGradient@@QEAAMVPoint3@@@Z 000000018003f8f4     BerconGradient.obj
 0004:00000900       $pdata$2$?getGradientValueUVW@BerconGradient@@QEAAMVPoint3@@@Z 000000018003f900     BerconGradient.obj
 0004:0000090c       $pdata$3$?getGradientValueUVW@BerconGradient@@QEAAMVPoint3@@@Z 000000018003f90c     BerconGradient.obj
 0004:00000918       $pdata$?gradAddKey@BerconGradient@@UEAAXM@Z 000000018003f918     BerconGradient.obj
 0004:00000924       $pdata$1$?gradAddKey@BerconGradient@@UEAAXM@Z 000000018003f924     BerconGradient.obj
 0004:00000930       $pdata$2$?gradAddKey@BerconGradient@@UEAAXM@Z 000000018003f930     BerconGradient.obj
 0004:0000093c       $pdata$?gradDelKey@BerconGradient@@UEAAXH@Z 000000018003f93c     BerconGradient.obj
 0004:00000948       $pdata$0$?gradDelKey@BerconGradient@@UEAAXH@Z 000000018003f948     BerconGradient.obj
 0004:00000954       $pdata$1$?gradDelKey@BerconGradient@@UEAAXH@Z 000000018003f954     BerconGradient.obj
 0004:00000960       $pdata$?gradMoveKey@BerconGradient@@UEAAXHM@Z 000000018003f960     BerconGradient.obj
 0004:0000096c       $pdata$?gradSelKey@BerconGradient@@UEAAXXZ 000000018003f96c     BerconGradient.obj
 0004:00000978       $pdata$?keyColorChanged@BerconGradient@@QEAAXVAColor@@@Z 000000018003f978     BerconGradient.obj
 0004:00000984       $pdata$?keyNumChanged@BerconGradient@@QEAAXH@Z 000000018003f984     BerconGradient.obj
 0004:00000990       $pdata$?keyPosChanged@BerconGradient@@QEAAXM@Z 000000018003f990     BerconGradient.obj
 0004:0000099c       $pdata$?resetKeys@BerconGradient@@QEAAXXZ 000000018003f99c     BerconGradient.obj
 0004:000009a8       $pdata$?seedRandomGen@BerconGradient@@QEAAXAEAVShadeContext@@@Z 000000018003f9a8     BerconGradient.obj
 0004:000009b4       $pdata$0$?seedRandomGen@BerconGradient@@QEAAXAEAVShadeContext@@@Z 000000018003f9b4     BerconGradient.obj
 0004:000009c0       $pdata$1$?seedRandomGen@BerconGradient@@QEAAXAEAVShadeContext@@@Z 000000018003f9c0     BerconGradient.obj
 0004:000009cc       $pdata$2$?seedRandomGen@BerconGradient@@QEAAXAEAVShadeContext@@@Z 000000018003f9cc     BerconGradient.obj
 0004:000009d8       $pdata$3$?seedRandomGen@BerconGradient@@QEAAXAEAVShadeContext@@@Z 000000018003f9d8     BerconGradient.obj
 0004:000009e4       $pdata$?setKeyTex@BerconGradient@@QEAAXPEAVTexmap@@@Z 000000018003f9e4     BerconGradient.obj
 0004:000009f0       $pdata$0$?setKeyTex@BerconGradient@@QEAAXPEAVTexmap@@@Z 000000018003f9f0     BerconGradient.obj
 0004:000009fc       $pdata$1$?setKeyTex@BerconGradient@@QEAAXPEAVTexmap@@@Z 000000018003f9fc     BerconGradient.obj
 0004:00000a08       $pdata$?Create@BerconTileClassDesc@@UEAAPEAXH@Z 000000018003fa08     BerconTile.obj
 0004:00000a14       $pdata$??_GBerconTileClassDesc@@UEAAPEAXI@Z 000000018003fa14     BerconTile.obj
 0004:00000a20       $pdata$??$_Destroy_range1@V?$allocator@VTileRow@@@std@@PEAVTileRow@@@std@@YAXPEAVTileRow@@0AEAU?$_Wrap_alloc@V?$allocator@VTileRow@@@std@@@0@U?$integral_constant@_N$0A@@0@@Z 000000018003fa20     BerconTile.obj
 0004:00000a2c       $pdata$??0BerconTile@@QEAA@XZ 000000018003fa2c     BerconTile.obj
 0004:00000a38       $pdata$??1?$basic_string@_WU?$char_traits@_W@std@@V?$allocator@_W@2@@std@@QEAA@XZ 000000018003fa38     BerconTile.obj
 0004:00000a44       $pdata$??1?$vector@MV?$allocator@M@std@@@std@@QEAA@XZ 000000018003fa44     BerconTile.obj
 0004:00000a50       $pdata$??1?$vector@VTileRow@@V?$allocator@VTileRow@@@std@@@std@@QEAA@XZ 000000018003fa50     BerconTile.obj
 0004:00000a5c       $pdata$??1BerconTile@@UEAA@XZ 000000018003fa5c     BerconTile.obj
 0004:00000a68       $pdata$??1TilePattern@@QEAA@XZ 000000018003fa68     BerconTile.obj
 0004:00000a74       $pdata$??_GBerconTile@@UEAAPEAXI@Z 000000018003fa74     BerconTile.obj
 0004:00000a80       $pdata$??_GBerconTileDlgProc@@UEAAPEAXI@Z 000000018003fa80     BerconTile.obj
 0004:00000a8c       $pdata$?ActivateTexDisplay@BerconTile@@UEAAXH@Z 000000018003fa8c     BerconTile.obj
 0004:00000a98       $pdata$?Clone@BerconTile@@UEAAPEAVReferenceTarget@@AEAVRemapDir@@@Z 000000018003fa98     BerconTile.obj
 0004:00000aa4       $pdata$?CreateParamDlg@BerconTile@@UEAAPEAVParamDlg@@PEAUHWND__@@PEAVIMtlParams@@@Z 000000018003faa4     BerconTile.obj
 0004:00000ab0       $pdata$?DeleteThis@BerconTile@@UEAAXXZ 000000018003fab0     BerconTile.obj
 0004:00000abc       $pdata$?DiscardTexHandle@BerconTile@@QEAAXXZ 000000018003fabc     BerconTile.obj
 0004:00000ac8       $pdata$?DlgProc@BerconTileDlgProc@@UEAA_JHPEAVIParamMap2@@PEAUHWND__@@I_K_J@Z 000000018003fac8     BerconTile.obj
 0004:00000ad4       $pdata$?EnableStuff@BerconTile@@QEAAXH@Z 000000018003fad4     BerconTile.obj
 0004:00000ae0       $pdata$0$?EnableStuff@BerconTile@@QEAAXH@Z 000000018003fae0     BerconTile.obj
 0004:00000aec       $pdata$3$?EnableStuff@BerconTile@@QEAAXH@Z 000000018003faec     BerconTile.obj
 0004:00000af8       $pdata$4$?EnableStuff@BerconTile@@QEAAXH@Z 000000018003faf8     BerconTile.obj
 0004:00000b04       $pdata$5$?EnableStuff@BerconTile@@QEAAXH@Z 000000018003fb04     BerconTile.obj
 0004:00000b10       $pdata$?EvalColor@BerconTile@@UEAA?AVAColor@@AEAVShadeContext@@@Z 000000018003fb10     BerconTile.obj
 0004:00000b1c       $pdata$?EvalMono@BerconTile@@UEAAMAEAVShadeContext@@@Z 000000018003fb1c     BerconTile.obj
 0004:00000b28       $pdata$?EvalNormalPerturb@BerconTile@@UEAA?AVPoint3@@AEAVShadeContext@@@Z 000000018003fb28     BerconTile.obj
 0004:00000b34       $pdata$?EvalParameters@BerconTile@@QEAA?AVTileParam@@AEAVShadeContext@@@Z 000000018003fb34     BerconTile.obj
 0004:00000b40       $pdata$?GetActiveTexHandle@BerconTile@@UEAA_KHAEAVTexHandleMaker@@@Z 000000018003fb40     BerconTile.obj
 0004:00000b4c       $pdata$0$?GetActiveTexHandle@BerconTile@@UEAA_KHAEAVTexHandleMaker@@@Z 000000018003fb4c     BerconTile.obj
 0004:00000b58       $pdata$1$?GetActiveTexHandle@BerconTile@@UEAA_KHAEAVTexHandleMaker@@@Z 000000018003fb58     BerconTile.obj
 0004:00000b64       $pdata$?GetClassName@BerconTile@@UEAAXAEAVWStr@@@Z 000000018003fb64     BerconTile.obj
 0004:00000b70       $pdata$?GetParamBlockByID@BerconTile@@UEAAPEAVIParamBlock2@@F@Z 000000018003fb70     BerconTile.obj
 0004:00000b7c       $pdata$?GetSubTexmapSlotName@BerconTile@@UEAA?AVWStr@@H@Z 000000018003fb7c     BerconTile.obj
 0004:00000b88       $pdata$?NotifyRefChanged@BerconTile@@UEAA?AW4RefResult@@AEBVInterval@@PEAVReferenceTarget@@AEA_KIH@Z 000000018003fb88     BerconTile.obj
 0004:00000b94       $pdata$0$?NotifyRefChanged@BerconTile@@UEAA?AW4RefResult@@AEBVInterval@@PEAVReferenceTarget@@AEA_KIH@Z 000000018003fb94     BerconTile.obj
 0004:00000ba0       $pdata$2$?NotifyRefChanged@BerconTile@@UEAA?AW4RefResult@@AEBVInterval@@PEAVReferenceTarget@@AEA_KIH@Z 000000018003fba0     BerconTile.obj
 0004:00000bac       $pdata$3$?NotifyRefChanged@BerconTile@@UEAA?AW4RefResult@@AEBVInterval@@PEAVReferenceTarget@@AEA_KIH@Z 000000018003fbac     BerconTile.obj
 0004:00000bb8       $pdata$?Reset@BerconTile@@UEAAXXZ 000000018003fbb8     BerconTile.obj
 0004:00000bc4       $pdata$?SetDlgThing@BerconTile@@UEAAHPEAVParamDlg@@@Z 000000018003fbc4     BerconTile.obj
 0004:00000bd0       $pdata$?SetSubTexmap@BerconTile@@UEAAXHPEAVTexmap@@@Z 000000018003fbd0     BerconTile.obj
 0004:00000bdc       $pdata$?SetThing@BerconTileDlgProc@@UEAAXPEAVReferenceTarget@@@Z 000000018003fbdc     BerconTile.obj
 0004:00000be8       $pdata$?SubAnimName@BerconTile@@UEAA?AVWStr@@H@Z 000000018003fbe8     BerconTile.obj
 0004:00000bf4       $pdata$?Update@BerconTile@@UEAAXHAEAVInterval@@@Z 000000018003fbf4     BerconTile.obj
 0004:00000c00       $pdata$?Validity@BerconTile@@UEAA?AVInterval@@H@Z 000000018003fc00     BerconTile.obj
 0004:00000c0c       $pdata$?_Copy@?$basic_string@_WU?$char_traits@_W@std@@V?$allocator@_W@2@@std@@QEAAX_K0@Z 000000018003fc0c     BerconTile.obj
 0004:00000c18       $pdata$?allocate@?$allocator@_W@std@@QEAAPEA_W_K@Z 000000018003fc18     BerconTile.obj
 0004:00000c24       $pdata$?assign@?$basic_string@_WU?$char_traits@_W@std@@V?$allocator@_W@2@@std@@QEAAAEAV12@AEBV12@_K1@Z 000000018003fc24     BerconTile.obj
 0004:00000c30       $pdata$?assign@?$basic_string@_WU?$char_traits@_W@std@@V?$allocator@_W@2@@std@@QEAAAEAV12@PEB_W_K@Z 000000018003fc30     BerconTile.obj
 0004:00000c3c       $pdata$?deallocate@?$allocator@M@std@@QEAAXPEAM_K@Z 000000018003fc3c     BerconTile.obj
 0004:00000c48       $pdata$?deallocate@?$allocator@V?$basic_string@_WU?$char_traits@_W@std@@V?$allocator@_W@2@@std@@@std@@QEAAXPEAV?$basic_string@_WU?$char_traits@_W@std@@V?$allocator@_W@2@@2@_K@Z 000000018003fc48     tile.obj
 0004:00000c48       $pdata$?deallocate@?$allocator@VTileRow@@@std@@QEAAXPEAVTileRow@@_K@Z 000000018003fc48     BerconTile.obj
 0004:00000c54       $pdata$?deallocate@?$allocator@_W@std@@QEAAXPEA_W_K@Z 000000018003fc54     BerconTile.obj
 0004:00000c60       $pdata$?erase@?$basic_string@_WU?$char_traits@_W@std@@V?$allocator@_W@2@@std@@QEAAAEAV12@_K0@Z 000000018003fc60     BerconTile.obj
 0004:00000c6c       $pdata$?getColor@BerconTile@@QEAA?AVAColor@@AEAVShadeContext@@H@Z 000000018003fc6c     BerconTile.obj
 0004:00000c78       $pdata$?getDistVector@BerconTile@@QEAA?AVPoint3@@AEAVShadeContext@@@Z 000000018003fc78     BerconTile.obj
 0004:00000c84       $pdata$0$?getDistVector@BerconTile@@QEAA?AVPoint3@@AEAVShadeContext@@@Z 000000018003fc84     BerconTile.obj
 0004:00000c90       $pdata$2$?getDistVector@BerconTile@@QEAA?AVPoint3@@AEAVShadeContext@@@Z 000000018003fc90     BerconTile.obj
 0004:00000c9c       $pdata$3$?getDistVector@BerconTile@@QEAA?AVPoint3@@AEAVShadeContext@@@Z 000000018003fc9c     BerconTile.obj
 0004:00000ca8       $pdata$5$?getDistVector@BerconTile@@QEAA?AVPoint3@@AEAVShadeContext@@@Z 000000018003fca8     BerconTile.obj
 0004:00000cb4       $pdata$6$?getDistVector@BerconTile@@QEAA?AVPoint3@@AEAVShadeContext@@@Z 000000018003fcb4     BerconTile.obj
 0004:00000cc0       $pdata$?getNormal@BerconTile@@QEAA?AVPoint3@@AEAVShadeContext@@H@Z 000000018003fcc0     BerconTile.obj
 0004:00000ccc       $pdata$?update@TilePattern@@QEAAXXZ 000000018003fccc     BerconTile.obj
 0004:00000cd8       $pdata$0$?update@TilePattern@@QEAAXXZ 000000018003fcd8     BerconTile.obj
 0004:00000ce4       $pdata$1$?update@TilePattern@@QEAAXXZ 000000018003fce4     BerconTile.obj
 0004:00000cf0       $pdata$?Create@BerconWoodClassDesc@@UEAAPEAXH@Z 000000018003fcf0     BerconWood.obj
 0004:00000cfc       $pdata$??_GBerconWoodClassDesc@@UEAAPEAXI@Z 000000018003fcfc     BerconWood.obj
 0004:00000d08       $pdata$??0BerconWood@@QEAA@XZ 000000018003fd08     BerconWood.obj
 0004:00000d14       $pdata$??1BerconWood@@UEAA@XZ 000000018003fd14     BerconWood.obj
 0004:00000d20       $pdata$??_GBerconWood@@UEAAPEAXI@Z 000000018003fd20     BerconWood.obj
 0004:00000d2c       $pdata$??_GBerconWoodDlgProc@@UEAAPEAXI@Z 000000018003fd2c     BerconWood.obj
 0004:00000d38       $pdata$?ActivateTexDisplay@BerconWood@@UEAAXH@Z 000000018003fd38     BerconWood.obj
 0004:00000d44       $pdata$?Clone@BerconWood@@UEAAPEAVReferenceTarget@@AEAVRemapDir@@@Z 000000018003fd44     BerconWood.obj
 0004:00000d50       $pdata$?CreateParamDlg@BerconWood@@UEAAPEAVParamDlg@@PEAUHWND__@@PEAVIMtlParams@@@Z 000000018003fd50     BerconWood.obj
 0004:00000d5c       $pdata$?DeleteThis@BerconWood@@UEAAXXZ 000000018003fd5c     BerconWood.obj
 0004:00000d68       $pdata$?DiscardTexHandle@BerconWood@@QEAAXXZ 000000018003fd68     BerconWood.obj
 0004:00000d74       $pdata$?DlgProc@BerconWoodDlgProc@@UEAA_JHPEAVIParamMap2@@PEAUHWND__@@I_K_J@Z 000000018003fd74     BerconWood.obj
 0004:00000d80       $pdata$?EnableStuff@BerconWood@@QEAAXXZ 000000018003fd80     BerconWood.obj
 0004:00000d8c       $pdata$0$?EnableStuff@BerconWood@@QEAAXXZ 000000018003fd8c     BerconWood.obj
 0004:00000d98       $pdata$4$?EnableStuff@BerconWood@@QEAAXXZ 000000018003fd98     BerconWood.obj
 0004:00000da4       $pdata$5$?EnableStuff@BerconWood@@QEAAXXZ 000000018003fda4     BerconWood.obj
 0004:00000db0       $pdata$6$?EnableStuff@BerconWood@@QEAAXXZ 000000018003fdb0     BerconWood.obj
 0004:00000dbc       $pdata$?EvalColor@BerconWood@@UEAA?AVAColor@@AEAVShadeContext@@@Z 000000018003fdbc     BerconWood.obj
 0004:00000dc8       $pdata$8$?EvalColor@BerconWood@@UEAA?AVAColor@@AEAVShadeContext@@@Z 000000018003fdc8     BerconWood.obj
 0004:00000dd4       $pdata$9$?EvalColor@BerconWood@@UEAA?AVAColor@@AEAVShadeContext@@@Z 000000018003fdd4     BerconWood.obj
 0004:00000de0       $pdata$?EvalMono@BerconWood@@UEAAMAEAVShadeContext@@@Z 000000018003fde0     BerconWood.obj
 0004:00000dec       $pdata$?EvalNormalPerturb@BerconWood@@UEAA?AVPoint3@@AEAVShadeContext@@@Z 000000018003fdec     BerconWood.obj
 0004:00000df8       $pdata$10$?EvalNormalPerturb@BerconWood@@UEAA?AVPoint3@@AEAVShadeContext@@@Z 000000018003fdf8     BerconWood.obj
 0004:00000e04       $pdata$11$?EvalNormalPerturb@BerconWood@@UEAA?AVPoint3@@AEAVShadeContext@@@Z 000000018003fe04     BerconWood.obj
 0004:00000e10       $pdata$12$?EvalNormalPerturb@BerconWood@@UEAA?AVPoint3@@AEAVShadeContext@@@Z 000000018003fe10     BerconWood.obj
 0004:00000e1c       $pdata$13$?EvalNormalPerturb@BerconWood@@UEAA?AVPoint3@@AEAVShadeContext@@@Z 000000018003fe1c     BerconWood.obj
 0004:00000e28       $pdata$?EvalParameters@BerconWood@@QEAA?AVWoodParam@@AEAVShadeContext@@@Z 000000018003fe28     BerconWood.obj
 0004:00000e34       $pdata$?GetActiveTexHandle@BerconWood@@UEAA_KHAEAVTexHandleMaker@@@Z 000000018003fe34     BerconWood.obj
 0004:00000e40       $pdata$0$?GetActiveTexHandle@BerconWood@@UEAA_KHAEAVTexHandleMaker@@@Z 000000018003fe40     BerconWood.obj
 0004:00000e4c       $pdata$1$?GetActiveTexHandle@BerconWood@@UEAA_KHAEAVTexHandleMaker@@@Z 000000018003fe4c     BerconWood.obj
 0004:00000e58       $pdata$?GetClassName@BerconWood@@UEAAXAEAVWStr@@@Z 000000018003fe58     BerconWood.obj
 0004:00000e64       $pdata$?GetParamBlockByID@BerconWood@@UEAAPEAVIParamBlock2@@F@Z 000000018003fe64     BerconWood.obj
 0004:00000e70       $pdata$?GetSubTexmapSlotName@BerconWood@@UEAA?AVWStr@@H@Z 000000018003fe70     BerconWood.obj
 0004:00000e7c       $pdata$?NotifyRefChanged@BerconWood@@UEAA?AW4RefResult@@AEBVInterval@@PEAVReferenceTarget@@AEA_KIH@Z 000000018003fe7c     BerconWood.obj
 0004:00000e88       $pdata$0$?NotifyRefChanged@BerconWood@@UEAA?AW4RefResult@@AEBVInterval@@PEAVReferenceTarget@@AEA_KIH@Z 000000018003fe88     BerconWood.obj
 0004:00000e94       $pdata$2$?NotifyRefChanged@BerconWood@@UEAA?AW4RefResult@@AEBVInterval@@PEAVReferenceTarget@@AEA_KIH@Z 000000018003fe94     BerconWood.obj
 0004:00000ea0       $pdata$3$?NotifyRefChanged@BerconWood@@UEAA?AW4RefResult@@AEBVInterval@@PEAVReferenceTarget@@AEA_KIH@Z 000000018003fea0     BerconWood.obj
 0004:00000eac       $pdata$?Reset@BerconWood@@UEAAXXZ 000000018003feac     BerconWood.obj
 0004:00000eb8       $pdata$?SetDlgThing@BerconWood@@UEAAHPEAVParamDlg@@@Z 000000018003feb8     BerconWood.obj
 0004:00000ec4       $pdata$?SetSubTexmap@BerconWood@@UEAAXHPEAVTexmap@@@Z 000000018003fec4     BerconWood.obj
 0004:00000ed0       $pdata$?SubAnimName@BerconWood@@UEAA?AVWStr@@H@Z 000000018003fed0     BerconWood.obj
 0004:00000edc       $pdata$?Update@BerconWood@@UEAAXHAEAVInterval@@@Z 000000018003fedc     BerconWood.obj
 0004:00000ee8       $pdata$0$?Update@BerconWood@@UEAAXHAEAVInterval@@@Z 000000018003fee8     BerconWood.obj
 0004:00000ef4       $pdata$4$?Update@BerconWood@@UEAAXHAEAVInterval@@@Z 000000018003fef4     BerconWood.obj
 0004:00000f00       $pdata$5$?Update@BerconWood@@UEAAXHAEAVInterval@@@Z 000000018003ff00     BerconWood.obj
 0004:00000f0c       $pdata$6$?Update@BerconWood@@UEAAXHAEAVInterval@@@Z 000000018003ff0c     BerconWood.obj
 0004:00000f18       $pdata$7$?Update@BerconWood@@UEAAXHAEAVInterval@@@Z 000000018003ff18     BerconWood.obj
 0004:00000f24       $pdata$8$?Update@BerconWood@@UEAAXHAEAVInterval@@@Z 000000018003ff24     BerconWood.obj
 0004:00000f30       $pdata$?Validity@BerconWood@@UEAA?AVInterval@@H@Z 000000018003ff30     BerconWood.obj
 0004:00000f3c       $pdata$?applyDistortion@BerconWood@@QEAAXAEAVShadeContext@@AEAVPoint3@@@Z 000000018003ff3c     BerconWood.obj
 0004:00000f48       $pdata$0$?applyDistortion@BerconWood@@QEAAXAEAVShadeContext@@AEAVPoint3@@@Z 000000018003ff48     BerconWood.obj
 0004:00000f54       $pdata$2$?applyDistortion@BerconWood@@QEAAXAEAVShadeContext@@AEAVPoint3@@@Z 000000018003ff54     BerconWood.obj
 0004:00000f60       $pdata$3$?applyDistortion@BerconWood@@QEAAXAEAVShadeContext@@AEAVPoint3@@@Z 000000018003ff60     BerconWood.obj
 0004:00000f6c       $pdata$4$?applyDistortion@BerconWood@@QEAAXAEAVShadeContext@@AEAVPoint3@@@Z 000000018003ff6c     BerconWood.obj
 0004:00000f78       $pdata$?GetString@@YAPEA_WH@Z 000000018003ff78     DllEntry.obj
 0004:00000f84       $pdata$0$?GetString@@YAPEA_WH@Z 000000018003ff84     DllEntry.obj
 0004:00000f90       $pdata$1$?GetString@@YAPEA_WH@Z 000000018003ff90     DllEntry.obj
 0004:00000f9c       $pdata$?LibClassDesc@@YAPEAVClassDesc@@H@Z 000000018003ff9c     DllEntry.obj
 0004:00000fa8       $pdata$?LibDescription@@YAPEB_WXZ 000000018003ffa8     DllEntry.obj
 0004:00000fb4       $pdata$0$?LibDescription@@YAPEB_WXZ 000000018003ffb4     DllEntry.obj
 0004:00000fc0       $pdata$1$?LibDescription@@YAPEB_WXZ 000000018003ffc0     DllEntry.obj
 0004:00000fcc       $pdata$CommctrlIsolationAwarePrivatetRgCebPnQQeRff_pbZPgYQP_QYY 000000018003ffcc     DllEntry.obj
 0004:00000fd8       $pdata$DllMain             000000018003ffd8     DllEntry.obj
 0004:00000fe4       $pdata$IsolationAwareInitCommonControls 000000018003ffe4     DllEntry.obj
 0004:00000ff0       $pdata$IsolationAwarePrivatenPgViNgRzlnPgpgk 000000018003fff0     DllEntry.obj
 0004:00000ffc       $pdata$WinbaseIsolationAwarePrivatetRgzlnPgpgk 000000018003fffc     DllEntry.obj
 0004:00001008       $pdata$?EnableStuff@BerconXYZ@@AEAAXPEAVIParamBlock2@@H@Z 0000000180040008     BerconCommon.obj
 0004:00001014       $pdata$0$?EnableStuff@BerconXYZ@@AEAAXPEAVIParamBlock2@@H@Z 0000000180040014     BerconCommon.obj
 0004:00001020       $pdata$2$?EnableStuff@BerconXYZ@@AEAAXPEAVIParamBlock2@@H@Z 0000000180040020     BerconCommon.obj
 0004:0000102c       $pdata$3$?EnableStuff@BerconXYZ@@AEAAXPEAVIParamBlock2@@H@Z 000000018004002c     BerconCommon.obj
 0004:00001038       $pdata$4$?EnableStuff@BerconXYZ@@AEAAXPEAVIParamBlock2@@H@Z 0000000180040038     BerconCommon.obj
 0004:00001044       $pdata$?get@BerconXYZ@@AEAAHAEAVShadeContext@@AEAVPoint3@@11VMatrix3@@PEAH@Z 0000000180040044     BerconCommon.obj
 0004:00001050       $pdata$0$?get@BerconXYZ@@AEAAHAEAVShadeContext@@AEAVPoint3@@11VMatrix3@@PEAH@Z 0000000180040050     BerconCommon.obj
 0004:0000105c       $pdata$1$?get@BerconXYZ@@AEAAHAEAVShadeContext@@AEAVPoint3@@11VMatrix3@@PEAH@Z 000000018004005c     BerconCommon.obj
 0004:00001068       $pdata$2$?get@BerconXYZ@@AEAAHAEAVShadeContext@@AEAVPoint3@@11VMatrix3@@PEAH@Z 0000000180040068     BerconCommon.obj
 0004:00001074       $pdata$3$?get@BerconXYZ@@AEAAHAEAVShadeContext@@AEAVPoint3@@11VMatrix3@@PEAH@Z 0000000180040074     BerconCommon.obj
 0004:00001080       $pdata$?get@BerconXYZ@@AEAAHAEAVShadeContext@@AEAVPoint3@@VMatrix3@@PEAH@Z 0000000180040080     BerconCommon.obj
 0004:0000108c       $pdata$1$?get@BerconXYZ@@AEAAHAEAVShadeContext@@AEAVPoint3@@VMatrix3@@PEAH@Z 000000018004008c     BerconCommon.obj
 0004:00001098       $pdata$2$?get@BerconXYZ@@AEAAHAEAVShadeContext@@AEAVPoint3@@VMatrix3@@PEAH@Z 0000000180040098     BerconCommon.obj
 0004:000010a4       $pdata$?get@BerconXYZ@@QEAAHAEAVShadeContext@@AEAVPoint3@@11@Z 00000001800400a4     BerconCommon.obj
 0004:000010b0       $pdata$?get@BerconXYZ@@QEAAHAEAVShadeContext@@AEAVPoint3@@11PEAV3@@Z 00000001800400b0     BerconCommon.obj
 0004:000010bc       $pdata$?get@BerconXYZ@@QEAAHAEAVShadeContext@@AEAVPoint3@@@Z 00000001800400bc     BerconCommon.obj
 0004:000010c8       $pdata$?get@BerconXYZ@@QEAAHAEAVShadeContext@@AEAVPoint3@@PEAV3@@Z 00000001800400c8     BerconCommon.obj
 0004:000010d4       $pdata$?getBasis@BerconXYZ@@AEAAXVMatrix3@@PEAVPoint3@@@Z 00000001800400d4     BerconCommon.obj
 0004:000010e0       $pdata$?random@BerconXYZ@@AEAA?AVMatrix3@@AEAVShadeContext@@PEAV2@@Z 00000001800400e0     BerconCommon.obj
 0004:000010ec       $pdata$?reset@BerconXYZ@@QEAAXPEAVIParamBlock2@@AEAVInterval@@HHHH@Z 00000001800400ec     BerconCommon.obj
 0004:000010f8       $pdata$2$?reset@BerconXYZ@@QEAAXPEAVIParamBlock2@@AEAVInterval@@HHHH@Z 00000001800400f8     BerconCommon.obj
 0004:00001104       $pdata$3$?reset@BerconXYZ@@QEAAXPEAVIParamBlock2@@AEAVInterval@@HHHH@Z 0000000180040104     BerconCommon.obj
 0004:00001110       $pdata$?seedRandomGen@BerconXYZ@@AEAAXAEAVShadeContext@@@Z 0000000180040110     BerconCommon.obj
 0004:0000111c       $pdata$0$?seedRandomGen@BerconXYZ@@AEAAXAEAVShadeContext@@@Z 000000018004011c     BerconCommon.obj
 0004:00001128       $pdata$1$?seedRandomGen@BerconXYZ@@AEAAXAEAVShadeContext@@@Z 0000000180040128     BerconCommon.obj
 0004:00001134       $pdata$2$?seedRandomGen@BerconXYZ@@AEAAXAEAVShadeContext@@@Z 0000000180040134     BerconCommon.obj
 0004:00001140       $pdata$3$?seedRandomGen@BerconXYZ@@AEAAXAEAVShadeContext@@@Z 0000000180040140     BerconCommon.obj
 0004:0000114c       $pdata$?setSpinnerType@@YAXPEAVIParamMap2@@HHHHH_N@Z 000000018004014c     BerconTile.obj
 0004:0000114c       $pdata$?setSpinnerType@@YAXPEAVIParamMap2@@HHHHH_N@Z 000000018004014c     BerconCommon.obj
 0004:00001158       $pdata$0$?setSpinnerType@@YAXPEAVIParamMap2@@HHHHH_N@Z 0000000180040158     BerconCommon.obj
 0004:00001158       $pdata$0$?setSpinnerType@@YAXPEAVIParamMap2@@HHHHH_N@Z 0000000180040158     BerconTile.obj
 0004:00001164       $pdata$1$?setSpinnerType@@YAXPEAVIParamMap2@@HHHHH_N@Z 0000000180040164     BerconTile.obj
 0004:00001164       $pdata$1$?setSpinnerType@@YAXPEAVIParamMap2@@HHHHH_N@Z 0000000180040164     BerconCommon.obj
 0004:00001170       $pdata$?update@BerconXYZ@@QEAAXPEAVIParamBlock2@@HAEAVInterval@@@Z 0000000180040170     BerconCommon.obj
 0004:0000117c       $pdata$3$?update@BerconXYZ@@QEAAXPEAVIParamBlock2@@HAEAVInterval@@@Z 000000018004017c     BerconCommon.obj
 0004:00001188       $pdata$4$?update@BerconXYZ@@QEAAXPEAVIParamBlock2@@HAEAVInterval@@@Z 0000000180040188     BerconCommon.obj
 0004:00001194       $pdata$?update@BerconXYZ@@QEAAXXZ 0000000180040194     BerconCommon.obj
 0004:000011a0       $pdata$?Create@BerconNoiseClassDesc@@UEAAPEAXH@Z 00000001800401a0     BerconNoise.obj
 0004:000011ac       $pdata$??_GBerconNoiseClassDesc@@UEAAPEAXI@Z 00000001800401ac     BerconNoise.obj
 0004:000011b8       $pdata$??0BerconNoise@@QEAA@XZ 00000001800401b8     BerconNoise.obj
 0004:000011c4       $pdata$??1BerconNoise@@UEAA@XZ 00000001800401c4     BerconNoise.obj
 0004:000011d0       $pdata$??_GBerconNoise@@UEAAPEAXI@Z 00000001800401d0     BerconNoise.obj
 0004:000011dc       $pdata$??_GBerconNoiseDlgProc@@UEAAPEAXI@Z 00000001800401dc     BerconNoise.obj
 0004:000011e8       $pdata$?ActivateTexDisplay@BerconNoise@@UEAAXH@Z 00000001800401e8     BerconNoise.obj
 0004:000011f4       $pdata$?Clone@BerconNoise@@UEAAPEAVReferenceTarget@@AEAVRemapDir@@@Z 00000001800401f4     BerconNoise.obj
 0004:00001200       $pdata$?CreateParamDlg@BerconNoise@@UEAAPEAVParamDlg@@PEAUHWND__@@PEAVIMtlParams@@@Z 0000000180040200     BerconNoise.obj
 0004:0000120c       $pdata$?DeleteThis@BerconNoise@@UEAAXXZ 000000018004020c     BerconNoise.obj
 0004:00001218       $pdata$?DiscardTexHandle@BerconNoise@@QEAAXXZ 0000000180040218     BerconNoise.obj
 0004:00001224       $pdata$?DlgProc@BerconNoiseDlgProc@@UEAA_JHPEAVIParamMap2@@PEAUHWND__@@I_K_J@Z 0000000180040224     BerconNoise.obj
 0004:00001230       $pdata$?EnableStuff@BerconNoise@@QEAAXXZ 0000000180040230     BerconNoise.obj
 0004:0000123c       $pdata$0$?EnableStuff@BerconNoise@@QEAAXXZ 000000018004023c     BerconNoise.obj
 0004:00001248       $pdata$5$?EnableStuff@BerconNoise@@QEAAXXZ 0000000180040248     BerconNoise.obj
 0004:00001254       $pdata$6$?EnableStuff@BerconNoise@@QEAAXXZ 0000000180040254     BerconNoise.obj
 0004:00001260       $pdata$7$?EnableStuff@BerconNoise@@QEAAXXZ 0000000180040260     BerconNoise.obj
 0004:0000126c       $pdata$8$?EnableStuff@BerconNoise@@QEAAXXZ 000000018004026c     BerconNoise.obj
 0004:00001278       $pdata$?EvalColor@BerconNoise@@UEAA?AVAColor@@AEAVShadeContext@@@Z 0000000180040278     BerconNoise.obj
 0004:00001284       $pdata$5$?EvalColor@BerconNoise@@UEAA?AVAColor@@AEAVShadeContext@@@Z 0000000180040284     BerconNoise.obj
 0004:00001290       $pdata$6$?EvalColor@BerconNoise@@UEAA?AVAColor@@AEAVShadeContext@@@Z 0000000180040290     BerconNoise.obj
 0004:0000129c       $pdata$?EvalMono@BerconNoise@@UEAAMAEAVShadeContext@@@Z 000000018004029c     BerconNoise.obj
 0004:000012a8       $pdata$?EvalNormalPerturb@BerconNoise@@UEAA?AVPoint3@@AEAVShadeContext@@@Z 00000001800402a8     BerconNoise.obj
 0004:000012b4       $pdata$2$?EvalNormalPerturb@BerconNoise@@UEAA?AVPoint3@@AEAVShadeContext@@@Z 00000001800402b4     BerconNoise.obj
 0004:000012c0       $pdata$3$?EvalNormalPerturb@BerconNoise@@UEAA?AVPoint3@@AEAVShadeContext@@@Z 00000001800402c0     BerconNoise.obj
 0004:000012cc       $pdata$6$?EvalNormalPerturb@BerconNoise@@UEAA?AVPoint3@@AEAVShadeContext@@@Z 00000001800402cc     BerconNoise.obj
 0004:000012d8       $pdata$7$?EvalNormalPerturb@BerconNoise@@UEAA?AVPoint3@@AEAVShadeContext@@@Z 00000001800402d8     BerconNoise.obj
 0004:000012e4       $pdata$8$?EvalNormalPerturb@BerconNoise@@UEAA?AVPoint3@@AEAVShadeContext@@@Z 00000001800402e4     BerconNoise.obj
 0004:000012f0       $pdata$?EvalParameters@BerconNoise@@QEAA?AVNoiseParams@@PEAVShadeContext@@@Z 00000001800402f0     BerconNoise.obj
 0004:000012fc       $pdata$?GetActiveTexHandle@BerconNoise@@UEAA_KHAEAVTexHandleMaker@@@Z 00000001800402fc     BerconNoise.obj
 0004:00001308       $pdata$0$?GetActiveTexHandle@BerconNoise@@UEAA_KHAEAVTexHandleMaker@@@Z 0000000180040308     BerconNoise.obj
 0004:00001314       $pdata$1$?GetActiveTexHandle@BerconNoise@@UEAA_KHAEAVTexHandleMaker@@@Z 0000000180040314     BerconNoise.obj
 0004:00001320       $pdata$?GetClassName@BerconNoise@@UEAAXAEAVWStr@@@Z 0000000180040320     BerconNoise.obj
 0004:0000132c       $pdata$?GetParamBlockByID@BerconNoise@@UEAAPEAVIParamBlock2@@F@Z 000000018004032c     BerconNoise.obj
 0004:00001338       $pdata$?GetSubTexmapSlotName@BerconNoise@@UEAA?AVWStr@@H@Z 0000000180040338     BerconNoise.obj
 0004:00001344       $pdata$?NotifyRefChanged@BerconNoise@@UEAA?AW4RefResult@@AEBVInterval@@PEAVReferenceTarget@@AEA_KIH@Z 0000000180040344     BerconNoise.obj
 0004:00001350       $pdata$0$?NotifyRefChanged@BerconNoise@@UEAA?AW4RefResult@@AEBVInterval@@PEAVReferenceTarget@@AEA_KIH@Z 0000000180040350     BerconNoise.obj
 0004:0000135c       $pdata$2$?NotifyRefChanged@BerconNoise@@UEAA?AW4RefResult@@AEBVInterval@@PEAVReferenceTarget@@AEA_KIH@Z 000000018004035c     BerconNoise.obj
 0004:00001368       $pdata$3$?NotifyRefChanged@BerconNoise@@UEAA?AW4RefResult@@AEBVInterval@@PEAVReferenceTarget@@AEA_KIH@Z 0000000180040368     BerconNoise.obj
 0004:00001374       $pdata$?Reset@BerconNoise@@UEAAXXZ 0000000180040374     BerconNoise.obj
 0004:00001380       $pdata$0$?Reset@BerconNoise@@UEAAXXZ 0000000180040380     BerconNoise.obj
 0004:0000138c       $pdata$1$?Reset@BerconNoise@@UEAAXXZ 000000018004038c     BerconNoise.obj
 0004:00001398       $pdata$?SetDlgThing@BerconNoise@@UEAAHPEAVParamDlg@@@Z 0000000180040398     BerconNoise.obj
 0004:000013a4       $pdata$?SetSubTexmap@BerconNoise@@UEAAXHPEAVTexmap@@@Z 00000001800403a4     BerconNoise.obj
 0004:000013b0       $pdata$?SubAnimName@BerconNoise@@UEAA?AVWStr@@H@Z 00000001800403b0     BerconNoise.obj
 0004:000013bc       $pdata$?SwapInputs@BerconNoise@@QEAAXXZ 00000001800403bc     BerconNoise.obj
 0004:000013c8       $pdata$?Update@BerconNoise@@UEAAXHAEAVInterval@@@Z 00000001800403c8     BerconNoise.obj
 0004:000013d4       $pdata$0$?Update@BerconNoise@@UEAAXHAEAVInterval@@@Z 00000001800403d4     BerconNoise.obj
 0004:000013e0       $pdata$4$?Update@BerconNoise@@UEAAXHAEAVInterval@@@Z 00000001800403e0     BerconNoise.obj
 0004:000013ec       $pdata$5$?Update@BerconNoise@@UEAAXHAEAVInterval@@@Z 00000001800403ec     BerconNoise.obj
 0004:000013f8       $pdata$6$?Update@BerconNoise@@UEAAXHAEAVInterval@@@Z 00000001800403f8     BerconNoise.obj
 0004:00001404       $pdata$7$?Update@BerconNoise@@UEAAXHAEAVInterval@@@Z 0000000180040404     BerconNoise.obj
 0004:00001410       $pdata$?Validity@BerconNoise@@UEAA?AVInterval@@H@Z 0000000180040410     BerconNoise.obj
 0004:0000141c       $pdata$?applyDistortion@BerconNoise@@QEAAXAEAVShadeContext@@AEAVPoint3@@@Z 000000018004041c     BerconNoise.obj
 0004:00001428       $pdata$0$?applyDistortion@BerconNoise@@QEAAXAEAVShadeContext@@AEAVPoint3@@@Z 0000000180040428     BerconNoise.obj
 0004:00001434       $pdata$2$?applyDistortion@BerconNoise@@QEAAXAEAVShadeContext@@AEAVPoint3@@@Z 0000000180040434     BerconNoise.obj
 0004:00001440       $pdata$3$?applyDistortion@BerconNoise@@QEAAXAEAVShadeContext@@AEAVPoint3@@@Z 0000000180040440     BerconNoise.obj
 0004:0000144c       $pdata$4$?applyDistortion@BerconNoise@@QEAAXAEAVShadeContext@@AEAVPoint3@@@Z 000000018004044c     BerconNoise.obj
 0004:00001458       $pdata$?fBm@Fractal@@SAMVPoint3@@AEAVNoiseParams@@@Z 0000000180040458     fractal.obj
 0004:00001464       $pdata$?fBm@Fractal@@SAMVPoint3@@MAEAVNoiseParams@@@Z 0000000180040464     fractal.obj
 0004:00001470       $pdata$?fBm@Fractal@@SAMVPoint3@@MMM@Z 0000000180040470     fractal.obj
 0004:0000147c       $pdata$2$?fBm@Fractal@@SAMVPoint3@@MMM@Z 000000018004047c     fractal.obj
 0004:00001488       $pdata$3$?fBm@Fractal@@SAMVPoint3@@MMM@Z 0000000180040488     fractal.obj
 0004:00001494       $pdata$4$?fBm@Fractal@@SAMVPoint3@@MMM@Z 0000000180040494     fractal.obj
 0004:000014a0       $pdata$5$?fBm@Fractal@@SAMVPoint3@@MMM@Z 00000001800404a0     fractal.obj
 0004:000014ac       $pdata$?fBmTurb@Fractal@@SAMVPoint3@@AEAVNoiseParams@@@Z 00000001800404ac     fractal.obj
 0004:000014b8       $pdata$?fBmTurb@Fractal@@SAMVPoint3@@MAEAVNoiseParams@@@Z 00000001800404b8     fractal.obj
 0004:000014c4       $pdata$?fractal@Fractal@@SAMVPoint3@@AEAVNoiseParams@@@Z 00000001800404c4     fractal.obj
 0004:000014d0       $pdata$0$?fractal@Fractal@@SAMVPoint3@@AEAVNoiseParams@@@Z 00000001800404d0     fractal.obj
 0004:000014dc       $pdata$1$?fractal@Fractal@@SAMVPoint3@@AEAVNoiseParams@@@Z 00000001800404dc     fractal.obj
 0004:000014e8       $pdata$2$?fractal@Fractal@@SAMVPoint3@@AEAVNoiseParams@@@Z 00000001800404e8     fractal.obj
 0004:000014f4       $pdata$3$?fractal@Fractal@@SAMVPoint3@@AEAVNoiseParams@@@Z 00000001800404f4     fractal.obj
 0004:00001500       $pdata$?fractal@Fractal@@SAMVPoint3@@MAEAVNoiseParams@@@Z 0000000180040500     fractal.obj
 0004:0000150c       $pdata$0$?fractal@Fractal@@SAMVPoint3@@MAEAVNoiseParams@@@Z 000000018004050c     fractal.obj
 0004:00001518       $pdata$1$?fractal@Fractal@@SAMVPoint3@@MAEAVNoiseParams@@@Z 0000000180040518     fractal.obj
 0004:00001524       $pdata$2$?fractal@Fractal@@SAMVPoint3@@MAEAVNoiseParams@@@Z 0000000180040524     fractal.obj
 0004:00001530       $pdata$3$?fractal@Fractal@@SAMVPoint3@@MAEAVNoiseParams@@@Z 0000000180040530     fractal.obj
 0004:0000153c       $pdata$?grain@Fractal@@SAMVPoint3@@MM@Z 000000018004053c     fractal.obj
 0004:00001548       $pdata$?heteroTerrain@Fractal@@SAMVPoint3@@AEAVNoiseParams@@@Z 0000000180040548     fractal.obj
 0004:00001554       $pdata$?hybridMultiFractal@Fractal@@SAMVPoint3@@AEAVNoiseParams@@@Z 0000000180040554     fractal.obj
 0004:00001560       $pdata$?hybridMultiFractal@Fractal@@SAMVPoint3@@MAEAVNoiseParams@@@Z 0000000180040560     fractal.obj
 0004:0000156c       $pdata$?ridgedMultiFractal@Fractal@@SAMVPoint3@@AEAVNoiseParams@@@Z 000000018004056c     fractal.obj
 0004:00001578       $pdata$1$?ridgedMultiFractal@Fractal@@SAMVPoint3@@AEAVNoiseParams@@@Z 0000000180040578     fractal.obj
 0004:00001584       $pdata$2$?ridgedMultiFractal@Fractal@@SAMVPoint3@@AEAVNoiseParams@@@Z 0000000180040584     fractal.obj
 0004:00001590       $pdata$?ridgedMultiFractal@Fractal@@SAMVPoint3@@MAEAVNoiseParams@@@Z 0000000180040590     fractal.obj
 0004:0000159c       $pdata$1$?ridgedMultiFractal@Fractal@@SAMVPoint3@@MAEAVNoiseParams@@@Z 000000018004059c     fractal.obj
 0004:000015a8       $pdata$2$?ridgedMultiFractal@Fractal@@SAMVPoint3@@MAEAVNoiseParams@@@Z 00000001800405a8     fractal.obj
 0004:000015b4       $pdata$?turbulence@Fractal@@SAMVPoint3@@AEAVNoiseParams@@@Z 00000001800405b4     fractal.obj
 0004:000015c0       $pdata$1$?turbulence@Fractal@@SAMVPoint3@@AEAVNoiseParams@@@Z 00000001800405c0     fractal.obj
 0004:000015cc       $pdata$2$?turbulence@Fractal@@SAMVPoint3@@AEAVNoiseParams@@@Z 00000001800405cc     fractal.obj
 0004:000015d8       $pdata$3$?turbulence@Fractal@@SAMVPoint3@@AEAVNoiseParams@@@Z 00000001800405d8     fractal.obj
 0004:000015e4       $pdata$4$?turbulence@Fractal@@SAMVPoint3@@AEAVNoiseParams@@@Z 00000001800405e4     fractal.obj
 0004:000015f0       $pdata$?turbulence@Fractal@@SAMVPoint3@@MAEAVNoiseParams@@@Z 00000001800405f0     fractal.obj
 0004:000015fc       $pdata$1$?turbulence@Fractal@@SAMVPoint3@@MAEAVNoiseParams@@@Z 00000001800405fc     fractal.obj
 0004:00001608       $pdata$2$?turbulence@Fractal@@SAMVPoint3@@MAEAVNoiseParams@@@Z 0000000180040608     fractal.obj
 0004:00001614       $pdata$3$?turbulence@Fractal@@SAMVPoint3@@MAEAVNoiseParams@@@Z 0000000180040614     fractal.obj
 0004:00001620       $pdata$4$?turbulence@Fractal@@SAMVPoint3@@MAEAVNoiseParams@@@Z 0000000180040620     fractal.obj
 0004:0000162c       $pdata$?addKey@GradientRamp@@QEAAXHMVAColor@@PEAVTexmap@@@Z 000000018004062c     GradientRamp.obj
 0004:00001638       $pdata$?getBump@GradientRamp@@QEAA?AVPoint3@@MV2@AEAVShadeContext@@@Z 0000000180040638     GradientRamp.obj
 0004:00001644       $pdata$0$?getBump@GradientRamp@@QEAA?AVPoint3@@MV2@AEAVShadeContext@@@Z 0000000180040644     GradientRamp.obj
 0004:00001650       $pdata$1$?getBump@GradientRamp@@QEAA?AVPoint3@@MV2@AEAVShadeContext@@@Z 0000000180040650     GradientRamp.obj
 0004:0000165c       $pdata$2$?getBump@GradientRamp@@QEAA?AVPoint3@@MV2@AEAVShadeContext@@@Z 000000018004065c     GradientRamp.obj
 0004:00001668       $pdata$3$?getBump@GradientRamp@@QEAA?AVPoint3@@MV2@AEAVShadeContext@@@Z 0000000180040668     GradientRamp.obj
 0004:00001674       $pdata$4$?getBump@GradientRamp@@QEAA?AVPoint3@@MV2@AEAVShadeContext@@@Z 0000000180040674     GradientRamp.obj
 0004:00001680       $pdata$5$?getBump@GradientRamp@@QEAA?AVPoint3@@MV2@AEAVShadeContext@@@Z 0000000180040680     GradientRamp.obj
 0004:0000168c       $pdata$?getColor@GradientRamp@@QEAA?AVAColor@@M@Z 000000018004068c     GradientRamp.obj
 0004:00001698       $pdata$0$?getColor@GradientRamp@@QEAA?AVAColor@@M@Z 0000000180040698     GradientRamp.obj
 0004:000016a4       $pdata$2$?getColor@GradientRamp@@QEAA?AVAColor@@M@Z 00000001800406a4     GradientRamp.obj
 0004:000016b0       $pdata$7$?getColor@GradientRamp@@QEAA?AVAColor@@M@Z 00000001800406b0     GradientRamp.obj
 0004:000016bc       $pdata$?getColor@GradientRamp@@QEAA?AVAColor@@MAEAVShadeContext@@@Z 00000001800406bc     GradientRamp.obj
 0004:000016c8       $pdata$0$?getColor@GradientRamp@@QEAA?AVAColor@@MAEAVShadeContext@@@Z 00000001800406c8     GradientRamp.obj
 0004:000016d4       $pdata$4$?getColor@GradientRamp@@QEAA?AVAColor@@MAEAVShadeContext@@@Z 00000001800406d4     GradientRamp.obj
 0004:000016e0       $pdata$5$?getColor@GradientRamp@@QEAA?AVAColor@@MAEAVShadeContext@@@Z 00000001800406e0     GradientRamp.obj
 0004:000016ec       $pdata$6$?getColor@GradientRamp@@QEAA?AVAColor@@MAEAVShadeContext@@@Z 00000001800406ec     GradientRamp.obj
 0004:000016f8       $pdata$?leftUp@GradientRamp@@QEAAXHH_N00@Z 00000001800406f8     GradientRamp.obj
 0004:00001704       $pdata$?paint@GradientRamp@@QEAAXPEAUHDC__@@@Z 0000000180040704     GradientRamp.obj
 0004:00001710       $pdata$5$?paint@GradientRamp@@QEAAXPEAUHDC__@@@Z 0000000180040710     GradientRamp.obj
 0004:0000171c       $pdata$7$?paint@GradientRamp@@QEAAXPEAUHDC__@@@Z 000000018004071c     GradientRamp.obj
 0004:00001728       $pdata$8$?paint@GradientRamp@@QEAAXPEAUHDC__@@@Z 0000000180040728     GradientRamp.obj
 0004:00001734       $pdata$9$?paint@GradientRamp@@QEAAXPEAUHDC__@@@Z 0000000180040734     GradientRamp.obj
 0004:00001740       $pdata$10$?paint@GradientRamp@@QEAAXPEAUHDC__@@@Z 0000000180040740     GradientRamp.obj
 0004:0000174c       $pdata$11$?paint@GradientRamp@@QEAAXPEAUHDC__@@@Z 000000018004074c     GradientRamp.obj
 0004:00001758       $pdata$?popup@GradientRamp@@QEAAXHHH@Z 0000000180040758     GradientRamp.obj
 0004:00001764       $pdata$?reset@GradientRamp@@QEAAXXZ 0000000180040764     GradientRamp.obj
 0004:00001770       $pdata$?setHWND@GradientRamp@@QEAAXPEAUHWND__@@@Z 0000000180040770     GradientRamp.obj
 0004:0000177c       $pdata$?setSubtex@GradientRamp@@QEAAXHPEAVTexmap@@@Z 000000018004077c     GradientRamp.obj
 0004:00001788       $pdata$?sort@GradientRamp@@QEAAXXZ 0000000180040788     GradientRamp.obj
 0004:00001794       $pdata$1$?sort@GradientRamp@@QEAAXXZ 0000000180040794     GradientRamp.obj
 0004:000017a0       $pdata$2$?sort@GradientRamp@@QEAAXXZ 00000001800407a0     GradientRamp.obj
 0004:000017ac       $pdata$?GradientProc@IGradient@@SA_JPEAUHWND__@@I_K_J@Z 00000001800407ac     IGradient.obj
 0004:000017b8       $pdata$?InitGradientControls@@YAXXZ 00000001800407b8     IGradient.obj
 0004:000017c4       $pdata$IsolationAwareRegisterClassExW 00000001800407c4     IGradient.obj
 0004:000017d0       $pdata$?alterUVW@Noise@@SAXAEAVPoint3@@H@Z 00000001800407d0     noise.obj
 0004:000017dc       $pdata$?f@Fractal@@SAMVPoint3@@AEAVNoiseParams@@@Z 00000001800407dc     noise.obj
 0004:000017e8       $pdata$?f@Fractal@@SAMVPoint3@@MAEAVNoiseParams@@@Z 00000001800407e8     noise.obj
 0004:000017f4       $pdata$?limitedNoise@Noise@@SAMVPoint3@@00AEAVNoiseParams@@@Z 00000001800407f4     noise.obj
 0004:00001800       $pdata$?limitedNoise@Noise@@SAMVPoint3@@AEAVNoiseParams@@@Z 0000000180040800     noise.obj
 0004:0000180c       $pdata$?noise@Noise@@SAMVPoint3@@AEAVNoiseParams@@@Z 000000018004080c     noise.obj
 0004:00001818       $pdata$?noise@Noise@@SAMVPoint3@@MAEAVNoiseParams@@@Z 0000000180040818     noise.obj
 0004:00001824       $pdata$?wood@Noise@@SAMVPoint3@@00AEAV2@VWoodParam@@@Z 0000000180040824     noise.obj
 0004:00001830       $pdata$3$?wood@Noise@@SAMVPoint3@@00AEAV2@VWoodParam@@@Z 0000000180040830     noise.obj
 0004:0000183c       $pdata$4$?wood@Noise@@SAMVPoint3@@00AEAV2@VWoodParam@@@Z 000000018004083c     noise.obj
 0004:00001848       $pdata$?wood@Noise@@SAMVPoint3@@AEAV2@AEAVWoodParam@@@Z 0000000180040848     noise.obj
 0004:00001854       $pdata$?worleyWrapper@Noise@@SAMVPoint3@@AEAVNoiseParams@@@Z 0000000180040854     noise.obj
 0004:00001860       $pdata$?fnoise2D@Perlin@@SAMMMM@Z 0000000180040860     perlin.obj
 0004:0000186c       $pdata$?fnoise3D@Perlin@@SAMMMMM@Z 000000018004086c     perlin.obj
 0004:00001878       $pdata$?fnoise4D@Perlin@@SAMMMMMM@Z 0000000180040878     perlin.obj
 0004:00001884       $pdata$?fsnoise2D@Perlin@@SAMMMM@Z 0000000180040884     perlin.obj
 0004:00001890       $pdata$?fsnoise3D@Perlin@@SAMMMMM@Z 0000000180040890     perlin.obj
 0004:0000189c       $pdata$?fsnoise4D@Perlin@@SAMMMMMM@Z 000000018004089c     perlin.obj
 0004:000018a8       $pdata$?noise@Perlin@@SAMMM@Z 00000001800408a8     perlin.obj
 0004:000018b4       $pdata$?noise@Perlin@@SAMMMM@Z 00000001800408b4     perlin.obj
 0004:000018c0       $pdata$?noise@Perlin@@SAMMMMM@Z 00000001800408c0     perlin.obj
 0004:000018cc       $pdata$?point@Perlin@@CAMMMMHHH@Z 00000001800408cc     perlin.obj
 0004:000018d8       $pdata$?point@Perlin@@CAMMMMMHHHH@Z 00000001800408d8     perlin.obj
 0004:000018e4       $pdata$?snoise@Perlin@@SAMM@Z 00000001800408e4     perlin.obj
 0004:000018f0       $pdata$?snoise@Perlin@@SAMMM@Z 00000001800408f0     perlin.obj
 0004:000018fc       $pdata$?snoise@Perlin@@SAMMMM@Z 00000001800408fc     perlin.obj
 0004:00001908       $pdata$?snoise@Perlin@@SAMMMMM@Z 0000000180040908     perlin.obj
 0004:00001914       $pdata$??$_Destroy_range1@V?$allocator@V?$basic_string@_WU?$char_traits@_W@std@@V?$allocator@_W@2@@std@@@std@@PEAV?$basic_string@_WU?$char_traits@_W@std@@V?$allocator@_W@2@@2@@std@@YAXPEAV?$basic_string@_WU?$char_traits@_W@std@@V?$allocator@_W@2@@0@0AEAU?$_Wrap_alloc@V?$allocator@V?$basic_string@_WU?$char_traits@_W@std@@V?$allocator@_W@2@@std@@@std@@@0@U?$integral_constant@_N$0A@@0@@Z 0000000180040914     tile.obj
 0004:00001920       $pdata$2$??$_Destroy_range1@V?$allocator@V?$basic_string@_WU?$char_traits@_W@std@@V?$allocator@_W@2@@std@@@std@@PEAV?$basic_string@_WU?$char_traits@_W@std@@V?$allocator@_W@2@@2@@std@@YAXPEAV?$basic_string@_WU?$char_traits@_W@std@@V?$allocator@_W@2@@0@0AEAU?$_Wrap_alloc@V?$allocator@V?$basic_string@_WU?$char_traits@_W@std@@V?$allocator@_W@2@@std@@@std@@@0@U?$integral_constant@_N$0A@@0@@Z 0000000180040920     tile.obj
 0004:0000192c       $pdata$3$??$_Destroy_range1@V?$allocator@V?$basic_string@_WU?$char_traits@_W@std@@V?$allocator@_W@2@@std@@@std@@PEAV?$basic_string@_WU?$char_traits@_W@std@@V?$allocator@_W@2@@2@@std@@YAXPEAV?$basic_string@_WU?$char_traits@_W@std@@V?$allocator@_W@2@@0@0AEAU?$_Wrap_alloc@V?$allocator@V?$basic_string@_WU?$char_traits@_W@std@@V?$allocator@_W@2@@std@@@std@@@0@U?$integral_constant@_N$0A@@0@@Z 000000018004092c     tile.obj
 0004:00001938       $pdata$4$??$_Destroy_range1@V?$allocator@V?$basic_string@_WU?$char_traits@_W@std@@V?$allocator@_W@2@@std@@@std@@PEAV?$basic_string@_WU?$char_traits@_W@std@@V?$allocator@_W@2@@2@@std@@YAXPEAV?$basic_string@_WU?$char_traits@_W@std@@V?$allocator@_W@2@@0@0AEAU?$_Wrap_alloc@V?$allocator@V?$basic_string@_WU?$char_traits@_W@std@@V?$allocator@_W@2@@std@@@std@@@0@U?$integral_constant@_N$0A@@0@@Z 0000000180040938     tile.obj
 0004:00001944       $pdata$??$_Uninitialized_move_al_unchecked1@PEAV?$basic_string@_WU?$char_traits@_W@std@@V?$allocator@_W@2@@std@@PEAV12@V?$allocator@V?$basic_string@_WU?$char_traits@_W@std@@V?$allocator@_W@2@@std@@@2@@std@@YAPEAV?$basic_string@_WU?$char_traits@_W@std@@V?$allocator@_W@2@@0@PEAV10@00AEAU?$_Wrap_alloc@V?$allocator@V?$basic_string@_WU?$char_traits@_W@std@@V?$allocator@_W@2@@std@@@std@@@0@U_General_ptr_iterator_tag@0@U_Any_tag@0@@Z 0000000180040944     tile.obj
 0004:00001950       $pdata$??$_Uninitialized_move_al_unchecked1@PEAVTileRow@@PEAV1@V?$allocator@VTileRow@@@std@@@std@@YAPEAVTileRow@@PEAV1@00AEAU?$_Wrap_alloc@V?$allocator@VTileRow@@@std@@@0@U_General_ptr_iterator_tag@0@U_Any_tag@0@@Z 0000000180040950     tile.obj
 0004:0000195c       $pdata$??0?$vector@MV?$allocator@M@std@@@std@@QEAA@AEBV01@@Z 000000018004095c     tile.obj
 0004:00001968       $pdata$??1?$basic_stringbuf@_WU?$char_traits@_W@std@@V?$allocator@_W@2@@std@@UEAA@XZ 0000000180040968     tile.obj
 0004:00001974       $pdata$??1?$basic_stringstream@_WU?$char_traits@_W@std@@V?$allocator@_W@2@@std@@UEAA@XZ 0000000180040974     tile.obj
 0004:00001980       $pdata$??1?$vector@V?$basic_string@_WU?$char_traits@_W@std@@V?$allocator@_W@2@@std@@V?$allocator@V?$basic_string@_WU?$char_traits@_W@std@@V?$allocator@_W@2@@std@@@2@@std@@QEAA@XZ 0000000180040980     tile.obj
 0004:0000198c       $pdata$??1TileRow@@QEAA@XZ 000000018004098c     tile.obj
 0004:00001998       $pdata$??_D?$basic_stringstream@_WU?$char_traits@_W@std@@V?$allocator@_W@2@@std@@QEAAXXZ 0000000180040998     tile.obj
 0004:000019a4       $pdata$??_G?$basic_stringbuf@_WU?$char_traits@_W@std@@V?$allocator@_W@2@@std@@UEAAPEAXI@Z 00000001800409a4     tile.obj
 0004:000019b0       $pdata$??_G?$basic_stringstream@_WU?$char_traits@_W@std@@V?$allocator@_W@2@@std@@UEAAPEAXI@Z 00000001800409b0     tile.obj
 0004:000019bc       $pdata$?_Assign_rv@?$basic_string@_WU?$char_traits@_W@std@@V?$allocator@_W@2@@std@@QEAAX$$QEAV12@@Z 00000001800409bc     tile.obj
 0004:000019c8       $pdata$?_Init@?$basic_stringbuf@_WU?$char_traits@_W@std@@V?$allocator@_W@2@@std@@IEAAXPEB_W_KH@Z 00000001800409c8     tile.obj
 0004:000019d4       $pdata$1$?_Init@?$basic_stringbuf@_WU?$char_traits@_W@std@@V?$allocator@_W@2@@std@@IEAAXPEB_W_KH@Z 00000001800409d4     tile.obj
 0004:000019e0       $pdata$2$?_Init@?$basic_stringbuf@_WU?$char_traits@_W@std@@V?$allocator@_W@2@@std@@IEAAXPEB_W_KH@Z 00000001800409e0     tile.obj
 0004:000019ec       $pdata$?_Reallocate@?$vector@MV?$allocator@M@std@@@std@@IEAAX_K@Z 00000001800409ec     tile.obj
 0004:000019f8       $pdata$?_Reallocate@?$vector@V?$basic_string@_WU?$char_traits@_W@std@@V?$allocator@_W@2@@std@@V?$allocator@V?$basic_string@_WU?$char_traits@_W@std@@V?$allocator@_W@2@@std@@@2@@std@@IEAAX_K@Z 00000001800409f8     tile.obj
 0004:00001a04       $pdata$?_Reallocate@?$vector@VTileRow@@V?$allocator@VTileRow@@@std@@@std@@IEAAX_K@Z 0000000180040a04     tile.obj
 0004:00001a10       $pdata$?_Tidy@?$basic_stringbuf@_WU?$char_traits@_W@std@@V?$allocator@_W@2@@std@@IEAAXXZ 0000000180040a10     tile.obj
 0004:00001a1c       $pdata$?allocate@?$allocator@M@std@@QEAAPEAM_K@Z 0000000180040a1c     tile.obj
 0004:00001a28       $pdata$?allocate@?$allocator@VTileRow@@@std@@QEAAPEAVTileRow@@_K@Z 0000000180040a28     tile.obj
 0004:00001a28       $pdata$?allocate@?$allocator@V?$basic_string@_WU?$char_traits@_W@std@@V?$allocator@_W@2@@std@@@std@@QEAAPEAV?$basic_string@_WU?$char_traits@_W@std@@V?$allocator@_W@2@@2@_K@Z 0000000180040a28     tile.obj
 0004:00001a34       $pdata$?corner@Tile@@CA?AVTilePoint@@MMMMAEAVTileParam@@@Z 0000000180040a34     tile.obj
 0004:00001a40       $pdata$?draw@Tile@@SA?AVTilePoint@@VPoint3@@AEAVTileParam@@@Z 0000000180040a40     tile.obj
 0004:00001a4c       $pdata$?drawTile@Tile@@CA?AVTilePoint@@VPoint3@@QEAMAEAVTileParam@@HH@Z 0000000180040a4c     tile.obj
 0004:00001a58       $pdata$1$?drawTile@Tile@@CA?AVTilePoint@@VPoint3@@QEAMAEAVTileParam@@HH@Z 0000000180040a58     tile.obj
 0004:00001a64       $pdata$2$?drawTile@Tile@@CA?AVTilePoint@@VPoint3@@QEAMAEAVTileParam@@HH@Z 0000000180040a64     tile.obj
 0004:00001a70       $pdata$?find_first_not_of@?$basic_string@_WU?$char_traits@_W@std@@V?$allocator@_W@2@@std@@QEBA_KAEBV12@_K@Z 0000000180040a70     tile.obj
 0004:00001a7c       $pdata$?find_first_of@?$basic_string@_WU?$char_traits@_W@std@@V?$allocator@_W@2@@std@@QEBA_KAEBV12@_K@Z 0000000180040a7c     tile.obj
 0004:00001a88       $pdata$?getAngle@@YAMHM@Z  0000000180040a88     tile.obj
 0004:00001a94       $pdata$?overflow@?$basic_stringbuf@_WU?$char_traits@_W@std@@V?$allocator@_W@2@@std@@MEAAGG@Z 0000000180040a94     tile.obj
 0004:00001aa0       $pdata$0$?overflow@?$basic_stringbuf@_WU?$char_traits@_W@std@@V?$allocator@_W@2@@std@@MEAAGG@Z 0000000180040aa0     tile.obj
 0004:00001aac       $pdata$2$?overflow@?$basic_stringbuf@_WU?$char_traits@_W@std@@V?$allocator@_W@2@@std@@MEAAGG@Z 0000000180040aac     tile.obj
 0004:00001ab8       $pdata$5$?overflow@?$basic_stringbuf@_WU?$char_traits@_W@std@@V?$allocator@_W@2@@std@@MEAAGG@Z 0000000180040ab8     tile.obj
 0004:00001ac4       $pdata$11$?overflow@?$basic_stringbuf@_WU?$char_traits@_W@std@@V?$allocator@_W@2@@std@@MEAAGG@Z 0000000180040ac4     tile.obj
 0004:00001ad0       $pdata$12$?overflow@?$basic_stringbuf@_WU?$char_traits@_W@std@@V?$allocator@_W@2@@std@@MEAAGG@Z 0000000180040ad0     tile.obj
 0004:00001adc       $pdata$?parsePattern@@YAHV?$basic_string@_WU?$char_traits@_W@std@@V?$allocator@_W@2@@std@@PEAVTilePattern@@@Z 0000000180040adc     tile.obj
 0004:00001ae8       $pdata$?pat_herring@Tile@@CA?AVTilePoint@@VPoint3@@AEAVTileParam@@@Z 0000000180040ae8     tile.obj
 0004:00001af4       $pdata$?pat_xBond@Tile@@CA?AVTilePoint@@VPoint3@@AEAVTileParam@@@Z 0000000180040af4     tile.obj
 0004:00001b00       $pdata$0$?pat_xBond@Tile@@CA?AVTilePoint@@VPoint3@@AEAVTileParam@@@Z 0000000180040b00     tile.obj
 0004:00001b0c       $pdata$1$?pat_xBond@Tile@@CA?AVTilePoint@@VPoint3@@AEAVTileParam@@@Z 0000000180040b0c     tile.obj
 0004:00001b18       $pdata$?rowcol@@YAHAEAM0AEAHMMAEAV?$vector@MV?$allocator@M@std@@@std@@MMM@Z 0000000180040b18     tile.obj
 0004:00001b24       $pdata$5$?rowcol@@YAHAEAM0AEAHMMAEAV?$vector@MV?$allocator@M@std@@@std@@MMM@Z 0000000180040b24     tile.obj
 0004:00001b30       $pdata$6$?rowcol@@YAHAEAM0AEAHMMAEAV?$vector@MV?$allocator@M@std@@@std@@MMM@Z 0000000180040b30     tile.obj
 0004:00001b3c       $pdata$?seekoff@?$basic_stringbuf@_WU?$char_traits@_W@std@@V?$allocator@_W@2@@std@@MEAA?AV?$fpos@U_Mbstatet@@@2@_JHH@Z 0000000180040b3c     tile.obj
 0004:00001b48       $pdata$?seekpos@?$basic_stringbuf@_WU?$char_traits@_W@std@@V?$allocator@_W@2@@std@@MEAA?AV?$fpos@U_Mbstatet@@@2@V32@H@Z 0000000180040b48     tile.obj
 0004:00001b54       $pdata$?setPattern@TilePattern@@QEAAXV?$basic_string@_WU?$char_traits@_W@std@@V?$allocator@_W@2@@std@@@Z 0000000180040b54     tile.obj
 0004:00001b60       $pdata$?setPreset@TilePattern@@QEAAXH@Z 0000000180040b60     tile.obj
 0004:00001b6c       $pdata$?substr@?$basic_string@_WU?$char_traits@_W@std@@V?$allocator@_W@2@@std@@QEBA?AV12@_K0@Z 0000000180040b6c     tile.obj
 0004:00001b78       $pdata$?tokenize@@YAXAEBV?$basic_string@_WU?$char_traits@_W@std@@V?$allocator@_W@2@@std@@AEAV?$vector@V?$basic_string@_WU?$char_traits@_W@std@@V?$allocator@_W@2@@std@@V?$allocator@V?$basic_string@_WU?$char_traits@_W@std@@V?$allocator@_W@2@@std@@@2@@2@0@Z 0000000180040b78     tile.obj
 0004:00001b84       $pdata$?uvMapping@Tile@@CAXAEAVTilePoint@@VPoint3@@QEAMAEAVTileParam@@H@Z 0000000180040b84     tile.obj
 0004:00001b90       $pdata$?add@Worley@@CAXJJJQEBNHPEANH@Z 0000000180040b90     worley.obj
 0004:00001b9c       $pdata$11$?add@Worley@@CAXJJJQEBNHPEANH@Z 0000000180040b9c     worley.obj
 0004:00001ba8       $pdata$12$?add@Worley@@CAXJJJQEBNHPEANH@Z 0000000180040ba8     worley.obj
 0004:00001bb4       $pdata$13$?add@Worley@@CAXJJJQEBNHPEANH@Z 0000000180040bb4     worley.obj
 0004:00001bc0       $pdata$?noise@Worley@@SAXQEBNHPEANH@Z 0000000180040bc0     worley.obj
 0004:00001bcc       $pdata$??_Gtype_info@@UEAAPEAXI@Z 0000000180040bcc     MSVCRT:std_type_info_static.obj
 0004:00001bd8       $pdata$__scrt_acquire_startup_lock 0000000180040bd8     MSVCRT:utility.obj
 0004:00001be4       $pdata$__scrt_dllmain_after_initialize_c 0000000180040be4     MSVCRT:utility.obj
 0004:00001bf0       $pdata$__scrt_dllmain_before_initialize_c 0000000180040bf0     MSVCRT:utility.obj
 0004:00001bfc       $pdata$__scrt_dllmain_crt_thread_attach 0000000180040bfc     MSVCRT:utility.obj
 0004:00001c08       $pdata$__scrt_dllmain_crt_thread_detach 0000000180040c08     MSVCRT:utility.obj
 0004:00001c14       $pdata$__scrt_dllmain_exception_filter 0000000180040c14     MSVCRT:utility.obj
 0004:00001c20       $pdata$__scrt_dllmain_uninitialize_c 0000000180040c20     MSVCRT:utility.obj
 0004:00001c2c       $pdata$__scrt_dllmain_uninitialize_critical 0000000180040c2c     MSVCRT:utility.obj
 0004:00001c38       $pdata$__scrt_initialize_crt 0000000180040c38     MSVCRT:utility.obj
 0004:00001c44       $pdata$__scrt_initialize_onexit_tables 0000000180040c44     MSVCRT:utility.obj
 0004:00001c50       $pdata$__scrt_is_nonwritable_in_current_image 0000000180040c50     MSVCRT:utility.obj
 0004:00001c5c       $pdata$__scrt_release_startup_lock 0000000180040c5c     MSVCRT:utility.obj
 0004:00001c68       $pdata$__scrt_uninitialize_crt 0000000180040c68     MSVCRT:utility.obj
 0004:00001c74       $pdata$_onexit             0000000180040c74     MSVCRT:utility.obj
 0004:00001c80       $pdata$atexit              0000000180040c80     MSVCRT:utility.obj
 0004:00001c8c       $pdata$??2@YAPEAX_K@Z      0000000180040c8c     MSVCRT:new_scalar.obj
 0004:00001ca4       $pdata$?dllmain_crt_dispatch@@YAHQEAUHINSTANCE__@@KQEAX@Z 0000000180040ca4     MSVCRT:dll_dllmain.obj
 0004:00001cb0       $pdata$?dllmain_crt_process_attach@@YAHQEAUHINSTANCE__@@QEAX@Z 0000000180040cb0     MSVCRT:dll_dllmain.obj
 0004:00001cbc       $pdata$?dllmain_crt_process_detach@@YAH_N@Z 0000000180040cbc     MSVCRT:dll_dllmain.obj
 0004:00001cc8       $pdata$?dllmain_dispatch@@YAHQEAUHINSTANCE__@@KQEAX@Z 0000000180040cc8     MSVCRT:dll_dllmain.obj
 0004:00001cd4       $pdata$?dllmain_raw@@YAHQEAUHINSTANCE__@@KQEAX@Z 0000000180040cd4     MSVCRT:dll_dllmain.obj
 0004:00001ce0       $pdata$_DllMainCRTStartup  0000000180040ce0     MSVCRT:dll_dllmain.obj
 0004:00001cec       $pdata$__isa_available_init 0000000180040cec     MSVCRT:_cpu_disp_.obj
 0004:00001cf8       $pdata$__scrt_fastfail     0000000180040cf8     MSVCRT:utility_desktop.obj
 0004:00001d04       $pdata$??0bad_alloc@std@@QEAA@AEBV01@@Z 0000000180040d04     MSVCRT:throw_bad_alloc.obj
 0004:00001d10       $pdata$??0bad_array_new_length@std@@QEAA@AEBV01@@Z 0000000180040d10     MSVCRT:throw_bad_alloc.obj
 0004:00001d1c       $pdata$??0exception@std@@QEAA@AEBV01@@Z 0000000180040d1c     MSVCRT:throw_bad_alloc.obj
 0004:00001d28       $pdata$??_Gexception@std@@UEAAPEAXI@Z 0000000180040d28     MSVCRT:throw_bad_alloc.obj
 0004:00001d28       $pdata$??_Gbad_alloc@std@@UEAAPEAXI@Z 0000000180040d28     MSVCRT:throw_bad_alloc.obj
 0004:00001d28       $pdata$??_Gbad_array_new_length@std@@UEAAPEAXI@Z 0000000180040d28     MSVCRT:throw_bad_alloc.obj
 0004:00001d34       $pdata$?__scrt_throw_std_bad_alloc@@YAXXZ 0000000180040d34     MSVCRT:throw_bad_alloc.obj
 0004:00001d40       $pdata$?__scrt_throw_std_bad_array_new_length@@YAXXZ 0000000180040d40     MSVCRT:throw_bad_alloc.obj
 0004:00001d4c       $pdata$__security_init_cookie 0000000180040d4c     MSVCRT:gs_support.obj
 0004:00001d58       $pdata$__scrt_initialize_default_local_stdio_options 0000000180040d58     MSVCRT:default_local_stdio_options.obj
 0004:00001d64       $pdata$_RTC_Initialize     0000000180040d64     MSVCRT:_initsect_.obj
 0004:00001d70       $pdata$_RTC_Terminate      0000000180040d70     MSVCRT:_initsect_.obj
 0004:00001d88       $pdata$?dtor$1@?0???0BerconGradient@@QEAA@XZ@4HA 0000000180040d88     BerconGradient.obj
 0004:00001d94       $pdata$?dtor$0@?0??GetSubTexmapSlotName@BerconGradient@@UEAA?AVWStr@@H@Z@4HA 0000000180040d94     BerconGradient.obj
 0004:00001da0       $pdata$?dtor$0@?0??SubAnimName@BerconDistortion@@UEAA?AVWStr@@H@Z@4HA 0000000180040da0     BerconDistortion.obj
 0004:00001da0       $pdata$?dtor$0@?0??SubAnimName@BerconNoise@@UEAA?AVWStr@@H@Z@4HA 0000000180040da0     BerconNoise.obj
 0004:00001da0       $pdata$?dtor$0@?0??SubAnimName@BerconWood@@UEAA?AVWStr@@H@Z@4HA 0000000180040da0     BerconWood.obj
 0004:00001da0       $pdata$?dtor$0@?0??SubAnimName@BerconGradient@@UEAA?AVWStr@@H@Z@4HA 0000000180040da0     BerconGradient.obj
 0004:00001da0       $pdata$?dtor$0@?0??GetSubTexmapSlotName@BerconNoise@@UEAA?AVWStr@@H@Z@4HA 0000000180040da0     BerconNoise.obj
 0004:00001da0       $pdata$?dtor$0@?0??GetSubTexmapSlotName@BerconDistortion@@UEAA?AVWStr@@H@Z@4HA 0000000180040da0     BerconDistortion.obj
 0004:00001da0       $pdata$?dtor$0@?0??GetSubTexmapSlotName@BerconTile@@UEAA?AVWStr@@H@Z@4HA 0000000180040da0     BerconTile.obj
 0004:00001da0       $pdata$?dtor$0@?0??GetSubTexmapSlotName@BerconWood@@UEAA?AVWStr@@H@Z@4HA 0000000180040da0     BerconWood.obj
 0004:00001da0       $pdata$?dtor$0@?0??SubAnimName@BerconTile@@UEAA?AVWStr@@H@Z@4HA 0000000180040da0     BerconTile.obj
 0004:00001dac       $pdata$?catch$1@?0??_Copy@?$basic_string@_WU?$char_traits@_W@std@@V?$allocator@_W@2@@std@@QEAAX_K0@Z@4HA 0000000180040dac     BerconTile.obj
 0004:00001db8       $pdata$?catch$0@?0??_Copy@?$basic_string@_WU?$char_traits@_W@std@@V?$allocator@_W@2@@std@@QEAAX_K0@Z@4HA 0000000180040db8     BerconTile.obj
 0004:00001dc4       $pdata$CommctrlIsolationAwarePrivatetRgCebPnQQeRff_pbZPgYQP_QYY$fin$0 0000000180040dc4     DllEntry.obj
 0004:00001dd0       $pdata$IsolationAwareInitCommonControls$fin$0 0000000180040dd0     DllEntry.obj
 0004:00001ddc       $pdata$WinbaseIsolationAwarePrivatetRgzlnPgpgk$fin$0 0000000180040ddc     DllEntry.obj
 0004:00001de8       $pdata$IsolationAwareRegisterClassExW$fin$0 0000000180040de8     IGradient.obj
 0004:00001df4       $pdata$?catch$0@?0???$_Uninitialized_move_al_unchecked1@PEAV?$basic_string@_WU?$char_traits@_W@std@@V?$allocator@_W@2@@std@@PEAV12@V?$allocator@V?$basic_string@_WU?$char_traits@_W@std@@V?$allocator@_W@2@@std@@@2@@std@@YAPEAV?$basic_string@_WU?$char_traits@_W@std@@V?$allocator@_W@2@@0@PEAV10@00AEAU?$_Wrap_alloc@V?$allocator@V?$basic_string@_WU?$char_traits@_W@std@@V?$allocator@_W@2@@std@@@std@@@0@U_General_ptr_iterator_tag@0@U_Any_tag@0@@Z@4HA 0000000180040df4     tile.obj
 0004:00001e00       $pdata$?catch$1@?0???$_Uninitialized_move_al_unchecked1@PEAVTileRow@@PEAV1@V?$allocator@VTileRow@@@std@@@std@@YAPEAVTileRow@@PEAV1@00AEAU?$_Wrap_alloc@V?$allocator@VTileRow@@@std@@@0@U_General_ptr_iterator_tag@0@U_Any_tag@0@@Z@4HA 0000000180040e00     tile.obj
 0004:00001e0c       $pdata$?catch$0@?0???0?$vector@MV?$allocator@M@std@@@std@@QEAA@AEBV01@@Z@4HA 0000000180040e0c     tile.obj
 0004:00001e18       $pdata$?catch$0@?0??_Reallocate@?$vector@MV?$allocator@M@std@@@std@@IEAAX_K@Z@4HA 0000000180040e18     tile.obj
 0004:00001e24       $pdata$?catch$0@?0??_Reallocate@?$vector@V?$basic_string@_WU?$char_traits@_W@std@@V?$allocator@_W@2@@std@@V?$allocator@V?$basic_string@_WU?$char_traits@_W@std@@V?$allocator@_W@2@@std@@@2@@std@@IEAAX_K@Z@4HA 0000000180040e24     tile.obj
 0004:00001e30       $pdata$?catch$0@?0??_Reallocate@?$vector@VTileRow@@V?$allocator@VTileRow@@@std@@@std@@IEAAX_K@Z@4HA 0000000180040e30     tile.obj
 0004:00001e3c       $pdata$?dtor$9@?0??parsePattern@@YAHV?$basic_string@_WU?$char_traits@_W@std@@V?$allocator@_W@2@@std@@PEAVTilePattern@@@Z@4HA 0000000180040e3c     tile.obj
 0004:00001e48       $pdata$?dtor$13@?0??parsePattern@@YAHV?$basic_string@_WU?$char_traits@_W@std@@V?$allocator@_W@2@@std@@PEAVTilePattern@@@Z@4HA 0000000180040e48     tile.obj
 0004:00001e54       $pdata$?dtor$18@?0??parsePattern@@YAHV?$basic_string@_WU?$char_traits@_W@std@@V?$allocator@_W@2@@std@@PEAVTilePattern@@@Z@4HA 0000000180040e54     tile.obj
 0004:00001e60       $pdata$?dtor$26@?0??parsePattern@@YAHV?$basic_string@_WU?$char_traits@_W@std@@V?$allocator@_W@2@@std@@PEAVTilePattern@@@Z@4HA 0000000180040e60     tile.obj
 0004:00001e6c       $pdata$?dtor$28@?0??parsePattern@@YAHV?$basic_string@_WU?$char_traits@_W@std@@V?$allocator@_W@2@@std@@PEAVTilePattern@@@Z@4HA 0000000180040e6c     tile.obj
 0004:00001e78       $pdata$?dtor$0@?0??substr@?$basic_string@_WU?$char_traits@_W@std@@V?$allocator@_W@2@@std@@QEBA?AV12@_K0@Z@4HA 0000000180040e78     tile.obj
 0004:00001e84       $pdata$__scrt_is_nonwritable_in_current_image$filt$0 0000000180040e84     MSVCRT:utility.obj
 0004:00001e90       $pdata$?fin$0@?0??dllmain_crt_process_attach@@YAHQEAUHINSTANCE__@@QEAX@Z@4HA 0000000180040e90     MSVCRT:dll_dllmain.obj
 0004:00001e9c       $pdata$?fin$0@?0??dllmain_crt_process_detach@@YAH_N@Z@4HA 0000000180040e9c     MSVCRT:dll_dllmain.obj
 0004:00001ea8       $pdata$?filt$0@?0??dllmain_dispatch@@YAHQEAUHINSTANCE__@@KQEAX@Z@4HA 0000000180040ea8     MSVCRT:dll_dllmain.obj
 0004:00001eb4       $pdata$??__FBerconDistortionDesc@@YAXXZ 0000000180040eb4     BerconDistortion.obj
 0004:00001ec0       $pdata$??__Fxyz_blk@@YAXXZ 0000000180040ec0     BerconDistortion.obj
 0004:00001ecc       $pdata$??__FBerconGradientDesc@@YAXXZ 0000000180040ecc     BerconGradient.obj
 0004:00001ed8       $pdata$??__Fxyz_blk@@YAXXZ 0000000180040ed8     BerconGradient.obj
 0004:00001ee4       $pdata$??__FBerconTileDesc@@YAXXZ 0000000180040ee4     BerconTile.obj
 0004:00001ef0       $pdata$??__Fxyz_blk@@YAXXZ 0000000180040ef0     BerconTile.obj
 0004:00001efc       $pdata$??__FBerconWoodDesc@@YAXXZ 0000000180040efc     BerconWood.obj
 0004:00001f08       $pdata$??__Fxyz_blk@@YAXXZ 0000000180040f08     BerconWood.obj
 0004:00001f14       $pdata$??__FBerconNoiseDesc@@YAXXZ 0000000180040f14     BerconNoise.obj
 0004:00001f20       $pdata$??__Fxyz_blk@@YAXXZ 0000000180040f20     BerconNoise.obj
 0005:00000000       __guard_fids__             0000000180041000     MSVCRT:std_type_info_static.obj
 0005:00000004       __guard_fids_?dllmain_crt_process_attach@@YAHQEAUHINSTANCE__@@QEAX@Z 0000000180041004     MSVCRT:dll_dllmain.obj
 0005:0000000c       __guard_fids_?dllmain_dispatch@@YAHQEAUHINSTANCE__@@KQEAX@Z 000000018004100c     MSVCRT:dll_dllmain.obj
 0005:00000010       __guard_fids__             0000000180041010     MSVCRT:throw_bad_alloc.obj
 0005:00000018       __guard_fids__             0000000180041018     MSVCRT:throw_bad_alloc.obj
 0005:00000020       __guard_fids__             0000000180041020     MSVCRT:throw_bad_alloc.obj
 0005:00000028       __guard_fids__             0000000180041028     MSVCRT:guard_support.obj
 0006:00000a10       $R000000                   0000000180042a10     BerconNoise.res
 0006:00000ac8       $R0000B8                   0000000180042ac8     BerconNoise.res
 0006:00000af8       $R0000E8                   0000000180042af8     BerconNoise.res
 0006:00000ba0       $R000190                   0000000180042ba0     BerconNoise.res
 0006:00000d30       $R000320                   0000000180042d30     BerconNoise.res
 0006:00000dd8       $R0003C8                   0000000180042dd8     BerconNoise.res
 0006:00000e80       $R000470                   0000000180042e80     BerconNoise.res
 0006:00000f70       $R000560                   0000000180042f70     BerconNoise.res
 0006:00001018       $R000608                   0000000180043018     BerconNoise.res
 0006:00001ea8       $R001498                   0000000180043ea8     BerconNoise.res
 0006:00003138       $R002728                   0000000180045138     BerconNoise.res
 0006:00004910       $R003F00                   0000000180046910     BerconNoise.res
 0006:00005318       $R004908                   0000000180047318     BerconNoise.res
 0006:00005560       $R004B50                   0000000180047560     BerconNoise.res
 0006:000056d8       $R004CC8                   00000001800476d8     BerconNoise.res
 0006:00005ec8       $R0054B8                   0000000180047ec8     BerconNoise.res
 0006:00006ac8       $R0060B8                   0000000180048ac8     BerconNoise.res
 0006:00007c20       $R007210                   0000000180049c20     BerconNoise.res
 0006:00008d88       $R008378                   000000018004ad88     BerconNoise.res
 0006:00009d40       $R009330                   000000018004bd40     BerconNoise.res
 0006:0000add8       $R00A3C8                   000000018004cdd8     BerconNoise.res
 0006:0000b758       $R00AD48                   000000018004d758     BerconNoise.res
 0006:0000b760       $R00AD50                   000000018004d760     BerconNoise.res
 0006:0000b768       $R00AD58                   000000018004d768     BerconNoise.res
 0006:0000b770       $R00AD60                   000000018004d770     BerconNoise.res
 0006:0000b778       $R00AD68                   000000018004d778     BerconNoise.res
 0006:0000b780       $R00AD70                   000000018004d780     BerconNoise.res
 0006:0000b840       $R00AE30                   000000018004d840     BerconNoise.res
 0006:00018988       $R017F78                   000000018005a988     BerconNoise.res
 0006:00018b00       $R0180F0                   000000018005ab00     BerconNoise.res
 0006:00018b68       $R018158                   000000018005ab68     BerconNoise.res
 0006:00018cd0       $R0182C0                   000000018005acd0     BerconNoise.res
 0006:00018d20       $R018310                   000000018005ad20     BerconNoise.res
 0006:00018ee8       $R0184D8                   000000018005aee8     BerconNoise.res
 0006:000190c0       $R0186B0                   000000018005b0c0     BerconNoise.res
 0006:00019298       $R018888                   000000018005b298     BerconNoise.res
 0006:00019398       $R018988                   000000018005b398     BerconNoise.res
 0006:00019468       $R018A58                   000000018005b468     BerconNoise.res
 0006:00019590       $R018B80                   000000018005b590     BerconNoise.res
 0006:00019690       $R018C80                   000000018005b690     BerconNoise.res
 0006:00019808       $R018DF8                   000000018005b808     BerconNoise.res
 0006:00019988       $R018F78                   000000018005b988     BerconNoise.res
 0006:00019b38       $R019128                   000000018005bb38     BerconNoise.res
 0006:00019c18       $R019208                   000000018005bc18     BerconNoise.res
 0006:00019d58       $R019348                   000000018005bd58     BerconNoise.res
 0006:00019ed0       $R0194C0                   000000018005bed0     BerconNoise.res
 0006:0001a0e0       $R0196D0                   000000018005c0e0     BerconNoise.res
 0006:0001a298       $R019888                   000000018005c298     BerconNoise.res
 0006:0001a3b0       $R0199A0                   000000018005c3b0     BerconNoise.res

 Exports

  ordinal    name

        1    ?LibDescription@@YAPEB_WXZ (wchar_t const * __cdecl LibDescription(void))
               exported name: LibDescription
        2    ?LibNumberClasses@@YAHXZ (int __cdecl LibNumberClasses(void))
               exported name: LibNumberClasses
        3    ?LibClassDesc@@YAPEAVClassDesc@@H@Z (class ClassDesc * __cdecl LibClassDesc(int))
               exported name: LibClassDesc
        4    ?LibVersion@@YAKXZ (unsigned long __cdecl LibVersion(void))
               exported name: LibVersion
        5    ??0VertexNormalsControl@@QEAA@XZ (public: __cdecl VertexNormalsControl::VertexNormalsControl(void))
        6    ?LibInitialize@@YAHXZ (int __cdecl LibInitialize(void))
        7    ?LibShutdown@@YAHXZ (int __cdecl LibShutdown(void))
